; Listing generated by Microsoft (R) Optimizing Compiler Version 19.43.34810.0 

include listing.inc

INCLUDELIB LIBCMT
INCLUDELIB OLDNAMES

PUBLIC	??_C@_06GLKGGCJO@LcOpen@			; `string'
PUBLIC	??_C@_06GJPHNGFG@LcRead@			; `string'
PUBLIC	??_C@_0O@CBBNAKKC@LcReadScatter@		; `string'
PUBLIC	??_C@_07MBHEMNEL@LcWrite@			; `string'
PUBLIC	??_C@_0P@DAJMPOFM@LcWriteScatter@		; `string'
PUBLIC	??_C@_0M@HBBFEIGD@LcGetOption@			; `string'
PUBLIC	??_C@_0M@FPFAGJPB@LcSetOption@			; `string'
PUBLIC	??_C@_09DCHLEDFD@LcCommand@			; `string'
PUBLIC	??_C@_03HPADHAHE@N?1A@				; `string'
PUBLIC	??_C@_03HDGGCCPD@X86@				; `string'
PUBLIC	??_C@_06IDLKBMKC@X86PAE@			; `string'
PUBLIC	??_C@_03ELMOGNHL@X64@				; `string'
PUBLIC	??_C@_05DKFIPBAL@ARM64@				; `string'
PUBLIC	??_C@_04PCJGBDOP@Zero@				; `string'
PUBLIC	??_C@_04HJMOFLDF@Free@				; `string'
PUBLIC	??_C@_07LNBDIIPN@Standby@			; `string'
PUBLIC	??_C@_07PFEKAJBJ@Modifiy@			; `string'
PUBLIC	??_C@_07DGKCKENG@ModNoWr@			; `string'
PUBLIC	??_C@_03KHCCLPOB@Bad@				; `string'
PUBLIC	??_C@_06MAFFGDO@Active@				; `string'
PUBLIC	??_C@_07KADDEKFE@Transit@			; `string'
PUBLIC	??_C@_01JOAMLHOP@?9@				; `string'
PUBLIC	??_C@_06CGLFEPBO@Unused@			; `string'
PUBLIC	??_C@_08LBAJPEDB@ProcPriv@			; `string'
PUBLIC	??_C@_09BGPMMIPE@PageTable@			; `string'
PUBLIC	??_C@_09MFCNICMF@LargePage@			; `string'
PUBLIC	??_C@_0L@DHBAIELD@DriverLock@			; `string'
PUBLIC	??_C@_09PKFILKGD@Shareable@			; `string'
PUBLIC	??_C@_04PBAHLACE@File@				; `string'
PUBLIC	_Avx2WmemEnabledWeakValue
EXTRN	?x86RegData@asmjit@@3UX86RegData@1@B:BYTE	; asmjit::x86RegData
;	COMDAT _Avx2WmemEnabledWeakValue
_BSS	SEGMENT
_Avx2WmemEnabledWeakValue DD 01H DUP (?)
_BSS	ENDS
CONST	SEGMENT
?NoInit@asmjit@@3U_NoInit@1@B	ORG $+1			; asmjit::NoInit
CONST	ENDS
;	COMDAT ??_C@_04PBAHLACE@File@
CONST	SEGMENT
??_C@_04PBAHLACE@File@ DB 'File', 00H			; `string'
CONST	ENDS
;	COMDAT ??_C@_09PKFILKGD@Shareable@
CONST	SEGMENT
??_C@_09PKFILKGD@Shareable@ DB 'Shareable', 00H		; `string'
CONST	ENDS
;	COMDAT ??_C@_0L@DHBAIELD@DriverLock@
CONST	SEGMENT
??_C@_0L@DHBAIELD@DriverLock@ DB 'DriverLock', 00H	; `string'
CONST	ENDS
;	COMDAT ??_C@_09MFCNICMF@LargePage@
CONST	SEGMENT
??_C@_09MFCNICMF@LargePage@ DB 'LargePage', 00H		; `string'
CONST	ENDS
;	COMDAT ??_C@_09BGPMMIPE@PageTable@
CONST	SEGMENT
??_C@_09BGPMMIPE@PageTable@ DB 'PageTable', 00H		; `string'
CONST	ENDS
;	COMDAT ??_C@_08LBAJPEDB@ProcPriv@
CONST	SEGMENT
??_C@_08LBAJPEDB@ProcPriv@ DB 'ProcPriv', 00H		; `string'
CONST	ENDS
;	COMDAT ??_C@_06CGLFEPBO@Unused@
CONST	SEGMENT
??_C@_06CGLFEPBO@Unused@ DB 'Unused', 00H		; `string'
CONST	ENDS
;	COMDAT ??_C@_01JOAMLHOP@?9@
CONST	SEGMENT
??_C@_01JOAMLHOP@?9@ DB '-', 00H			; `string'
CONST	ENDS
;	COMDAT ??_C@_07KADDEKFE@Transit@
CONST	SEGMENT
??_C@_07KADDEKFE@Transit@ DB 'Transit', 00H		; `string'
CONST	ENDS
;	COMDAT ??_C@_06MAFFGDO@Active@
CONST	SEGMENT
??_C@_06MAFFGDO@Active@ DB 'Active', 00H		; `string'
CONST	ENDS
;	COMDAT ??_C@_03KHCCLPOB@Bad@
CONST	SEGMENT
??_C@_03KHCCLPOB@Bad@ DB 'Bad', 00H			; `string'
CONST	ENDS
;	COMDAT ??_C@_07DGKCKENG@ModNoWr@
CONST	SEGMENT
??_C@_07DGKCKENG@ModNoWr@ DB 'ModNoWr', 00H		; `string'
CONST	ENDS
;	COMDAT ??_C@_07PFEKAJBJ@Modifiy@
CONST	SEGMENT
??_C@_07PFEKAJBJ@Modifiy@ DB 'Modifiy', 00H		; `string'
CONST	ENDS
;	COMDAT ??_C@_07LNBDIIPN@Standby@
CONST	SEGMENT
??_C@_07LNBDIIPN@Standby@ DB 'Standby', 00H		; `string'
CONST	ENDS
;	COMDAT ??_C@_04HJMOFLDF@Free@
CONST	SEGMENT
??_C@_04HJMOFLDF@Free@ DB 'Free', 00H			; `string'
CONST	ENDS
;	COMDAT ??_C@_04PCJGBDOP@Zero@
CONST	SEGMENT
??_C@_04PCJGBDOP@Zero@ DB 'Zero', 00H			; `string'
CONST	ENDS
;	COMDAT ??_C@_05DKFIPBAL@ARM64@
CONST	SEGMENT
??_C@_05DKFIPBAL@ARM64@ DB 'ARM64', 00H			; `string'
CONST	ENDS
;	COMDAT ??_C@_03ELMOGNHL@X64@
CONST	SEGMENT
??_C@_03ELMOGNHL@X64@ DB 'X64', 00H			; `string'
CONST	ENDS
;	COMDAT ??_C@_06IDLKBMKC@X86PAE@
CONST	SEGMENT
??_C@_06IDLKBMKC@X86PAE@ DB 'X86PAE', 00H		; `string'
CONST	ENDS
;	COMDAT ??_C@_03HDGGCCPD@X86@
CONST	SEGMENT
??_C@_03HDGGCCPD@X86@ DB 'X86', 00H			; `string'
CONST	ENDS
;	COMDAT ??_C@_03HPADHAHE@N?1A@
CONST	SEGMENT
??_C@_03HPADHAHE@N?1A@ DB 'N/A', 00H			; `string'
CONST	ENDS
;	COMDAT ??_C@_09DCHLEDFD@LcCommand@
CONST	SEGMENT
??_C@_09DCHLEDFD@LcCommand@ DB 'LcCommand', 00H		; `string'
CONST	ENDS
;	COMDAT ??_C@_0M@FPFAGJPB@LcSetOption@
CONST	SEGMENT
??_C@_0M@FPFAGJPB@LcSetOption@ DB 'LcSetOption', 00H	; `string'
CONST	ENDS
;	COMDAT ??_C@_0M@HBBFEIGD@LcGetOption@
CONST	SEGMENT
??_C@_0M@HBBFEIGD@LcGetOption@ DB 'LcGetOption', 00H	; `string'
CONST	ENDS
;	COMDAT ??_C@_0P@DAJMPOFM@LcWriteScatter@
CONST	SEGMENT
??_C@_0P@DAJMPOFM@LcWriteScatter@ DB 'LcWriteScatter', 00H ; `string'
CONST	ENDS
;	COMDAT ??_C@_07MBHEMNEL@LcWrite@
CONST	SEGMENT
??_C@_07MBHEMNEL@LcWrite@ DB 'LcWrite', 00H		; `string'
CONST	ENDS
;	COMDAT ??_C@_0O@CBBNAKKC@LcReadScatter@
CONST	SEGMENT
??_C@_0O@CBBNAKKC@LcReadScatter@ DB 'LcReadScatter', 00H ; `string'
CONST	ENDS
;	COMDAT ??_C@_06GJPHNGFG@LcRead@
CONST	SEGMENT
??_C@_06GJPHNGFG@LcRead@ DB 'LcRead', 00H		; `string'
CONST	ENDS
;	COMDAT ??_C@_06GLKGGCJO@LcOpen@
CONST	SEGMENT
??_C@_06GLKGGCJO@LcOpen@ DB 'LcOpen', 00H		; `string'
CONST	ENDS
PUBLIC	??_H@YAXPEAX_K1P6APEAX0@Z@Z			; `vector constructor iterator'
PUBLIC	?_Adjust_manually_vector_aligned@std@@YAXAEAPEAXAEA_K@Z ; std::_Adjust_manually_vector_aligned
PUBLIC	?_Orphan_all@_Container_base0@std@@QEAAXXZ	; std::_Container_base0::_Orphan_all
PUBLIC	?_Alloc_proxy@_Container_base0@std@@QEAAXAEBU_Fake_allocator@2@@Z ; std::_Container_base0::_Alloc_proxy
PUBLIC	??0WSInit@detail@httplib@@QEAA@XZ		; httplib::detail::WSInit::WSInit
PUBLIC	??1WSInit@detail@httplib@@QEAA@XZ		; httplib::detail::WSInit::~WSInit
PUBLIC	??0SSLInit@detail@httplib@@QEAA@XZ		; httplib::detail::SSLInit::SSLInit
PUBLIC	?pack32_2x8_1x16@IntUtil@asmjit@@SAIIII@Z	; asmjit::IntUtil::pack32_2x8_1x16
PUBLIC	?pack64_2x32@IntUtil@asmjit@@SA_KII@Z		; asmjit::IntUtil::pack64_2x32
PUBLIC	?setPacked_2x32@UInt64@asmjit@@QEAAAEAT12@II@Z	; asmjit::UInt64::setPacked_2x32
PUBLIC	??0Operand@asmjit@@QEAA@AEBU01@@Z		; asmjit::Operand::Operand
PUBLIC	??0Operand@asmjit@@QEAA@AEBU_NoInit@1@@Z	; asmjit::Operand::Operand
PUBLIC	?_init@Operand@asmjit@@QEAAXAEBU12@@Z		; asmjit::Operand::_init
PUBLIC	?_init_packed_op_sz_w0_id@Operand@asmjit@@QEAAXIIII@Z ; asmjit::Operand::_init_packed_op_sz_w0_id
PUBLIC	?_init_packed_d2_d3@Operand@asmjit@@QEAAXII@Z	; asmjit::Operand::_init_packed_d2_d3
PUBLIC	??0Reg@asmjit@@QEAA@XZ				; asmjit::Reg::Reg
PUBLIC	??0Reg@asmjit@@QEAA@AEBU01@@Z			; asmjit::Reg::Reg
PUBLIC	??0X86Reg@asmjit@@QEAA@XZ			; asmjit::X86Reg::X86Reg
PUBLIC	??0X86Reg@asmjit@@QEAA@AEBU01@@Z		; asmjit::X86Reg::X86Reg
PUBLIC	??0X86GpReg@asmjit@@QEAA@XZ			; asmjit::X86GpReg::X86GpReg
PUBLIC	??0X86GpReg@asmjit@@QEAA@AEBU01@@Z		; asmjit::X86GpReg::X86GpReg
PUBLIC	??R?$default_delete@VIAsmHelper@IronMan@@@std@@QEBAXPEAVIAsmHelper@IronMan@@@Z ; std::default_delete<IronMan::IAsmHelper>::operator()
PUBLIC	??1?$unique_ptr@VIAsmHelper@IronMan@@U?$default_delete@VIAsmHelper@IronMan@@@std@@@std@@QEAA@XZ ; std::unique_ptr<IronMan::IAsmHelper,std::default_delete<IronMan::IAsmHelper> >::~unique_ptr<IronMan::IAsmHelper,std::default_delete<IronMan::IAsmHelper> >
PUBLIC	?_Get_first@?$_Compressed_pair@U?$default_delete@VIAsmHelper@IronMan@@@std@@PEAVIAsmHelper@IronMan@@$00@std@@QEAAAEAU?$default_delete@VIAsmHelper@IronMan@@@2@XZ ; std::_Compressed_pair<std::default_delete<IronMan::IAsmHelper>,IronMan::IAsmHelper *,1>::_Get_first
PUBLIC	??_G?$unique_ptr@VIAsmHelper@IronMan@@U?$default_delete@VIAsmHelper@IronMan@@@std@@@std@@QEAAPEAXI@Z ; std::unique_ptr<IronMan::IAsmHelper,std::default_delete<IronMan::IAsmHelper> >::`scalar deleting destructor'
PUBLIC	??0AnalysisBase@Analysis@IronMan@@QEAA@_K0@Z	; IronMan::Analysis::AnalysisBase::AnalysisBase
PUBLIC	??1AnalysisBase@Analysis@IronMan@@UEAA@XZ	; IronMan::Analysis::AnalysisBase::~AnalysisBase
PUBLIC	?GetEntryPoint@AnalysisBase@Analysis@IronMan@@UEBA?B_KXZ ; IronMan::Analysis::AnalysisBase::GetEntryPoint
PUBLIC	?GpRegTo64@AnalysisBase@Analysis@IronMan@@IEAA?AW4ZydisRegister_@@W44@@Z ; IronMan::Analysis::AnalysisBase::GpRegTo64
PUBLIC	?ToGpReg@AnalysisBase@Analysis@IronMan@@IEAA?AUX86GpReg@asmjit@@W4ZydisRegister_@@@Z ; IronMan::Analysis::AnalysisBase::ToGpReg
PUBLIC	?inRange@AnalysisBase@Analysis@IronMan@@IEBA_N_K00@Z ; IronMan::Analysis::AnalysisBase::inRange
PUBLIC	??0?$allocator@V?$unique_ptr@VIAsmHelper@IronMan@@U?$default_delete@VIAsmHelper@IronMan@@@std@@@std@@@std@@QEAA@XZ ; std::allocator<std::unique_ptr<IronMan::IAsmHelper,std::default_delete<IronMan::IAsmHelper> > >::allocator<std::unique_ptr<IronMan::IAsmHelper,std::default_delete<IronMan::IAsmHelper> > >
PUBLIC	?deallocate@?$allocator@V?$unique_ptr@VIAsmHelper@IronMan@@U?$default_delete@VIAsmHelper@IronMan@@@std@@@std@@@std@@QEAAXQEAV?$unique_ptr@VIAsmHelper@IronMan@@U?$default_delete@VIAsmHelper@IronMan@@@std@@@2@_K@Z ; std::allocator<std::unique_ptr<IronMan::IAsmHelper,std::default_delete<IronMan::IAsmHelper> > >::deallocate
PUBLIC	??0?$vector@V?$unique_ptr@VIAsmHelper@IronMan@@U?$default_delete@VIAsmHelper@IronMan@@@std@@@std@@V?$allocator@V?$unique_ptr@VIAsmHelper@IronMan@@U?$default_delete@VIAsmHelper@IronMan@@@std@@@std@@@2@@std@@QEAA@XZ ; std::vector<std::unique_ptr<IronMan::IAsmHelper,std::default_delete<IronMan::IAsmHelper> >,std::allocator<std::unique_ptr<IronMan::IAsmHelper,std::default_delete<IronMan::IAsmHelper> > > >::vector<std::unique_ptr<IronMan::IAsmHelper,std::default_delete<IronMan::IAsmHelper> >,std::allocator<std::unique_ptr<IronMan::IAsmHelper,std::default_delete<IronMan::IAsmHelper> > > >
PUBLIC	??1?$vector@V?$unique_ptr@VIAsmHelper@IronMan@@U?$default_delete@VIAsmHelper@IronMan@@@std@@@std@@V?$allocator@V?$unique_ptr@VIAsmHelper@IronMan@@U?$default_delete@VIAsmHelper@IronMan@@@std@@@std@@@2@@std@@QEAA@XZ ; std::vector<std::unique_ptr<IronMan::IAsmHelper,std::default_delete<IronMan::IAsmHelper> >,std::allocator<std::unique_ptr<IronMan::IAsmHelper,std::default_delete<IronMan::IAsmHelper> > > >::~vector<std::unique_ptr<IronMan::IAsmHelper,std::default_delete<IronMan::IAsmHelper> >,std::allocator<std::unique_ptr<IronMan::IAsmHelper,std::default_delete<IronMan::IAsmHelper> > > >
PUBLIC	?_Tidy@?$vector@V?$unique_ptr@VIAsmHelper@IronMan@@U?$default_delete@VIAsmHelper@IronMan@@@std@@@std@@V?$allocator@V?$unique_ptr@VIAsmHelper@IronMan@@U?$default_delete@VIAsmHelper@IronMan@@@std@@@std@@@2@@std@@AEAAXXZ ; std::vector<std::unique_ptr<IronMan::IAsmHelper,std::default_delete<IronMan::IAsmHelper> >,std::allocator<std::unique_ptr<IronMan::IAsmHelper,std::default_delete<IronMan::IAsmHelper> > > >::_Tidy
PUBLIC	?_Getal@?$vector@V?$unique_ptr@VIAsmHelper@IronMan@@U?$default_delete@VIAsmHelper@IronMan@@@std@@@std@@V?$allocator@V?$unique_ptr@VIAsmHelper@IronMan@@U?$default_delete@VIAsmHelper@IronMan@@@std@@@std@@@2@@std@@AEAAAEAV?$allocator@V?$unique_ptr@VIAsmHelper@IronMan@@U?$default_delete@VIAsmHelper@IronMan@@@std@@@std@@@2@XZ ; std::vector<std::unique_ptr<IronMan::IAsmHelper,std::default_delete<IronMan::IAsmHelper> >,std::allocator<std::unique_ptr<IronMan::IAsmHelper,std::default_delete<IronMan::IAsmHelper> > > >::_Getal
PUBLIC	??0?$_Vector_val@U?$_Simple_types@V?$unique_ptr@VIAsmHelper@IronMan@@U?$default_delete@VIAsmHelper@IronMan@@@std@@@std@@@std@@@std@@QEAA@XZ ; std::_Vector_val<std::_Simple_types<std::unique_ptr<IronMan::IAsmHelper,std::default_delete<IronMan::IAsmHelper> > > >::_Vector_val<std::_Simple_types<std::unique_ptr<IronMan::IAsmHelper,std::default_delete<IronMan::IAsmHelper> > > >
PUBLIC	?_Get_first@?$_Compressed_pair@V?$allocator@V?$unique_ptr@VIAsmHelper@IronMan@@U?$default_delete@VIAsmHelper@IronMan@@@std@@@std@@@std@@V?$_Vector_val@U?$_Simple_types@V?$unique_ptr@VIAsmHelper@IronMan@@U?$default_delete@VIAsmHelper@IronMan@@@std@@@std@@@std@@@2@$00@std@@QEAAAEAV?$allocator@V?$unique_ptr@VIAsmHelper@IronMan@@U?$default_delete@VIAsmHelper@IronMan@@@std@@@std@@@2@XZ ; std::_Compressed_pair<std::allocator<std::unique_ptr<IronMan::IAsmHelper,std::default_delete<IronMan::IAsmHelper> > >,std::_Vector_val<std::_Simple_types<std::unique_ptr<IronMan::IAsmHelper,std::default_delete<IronMan::IAsmHelper> > > >,1>::_Get_first
PUBLIC	??_GAnalysisBase@Analysis@IronMan@@UEAAPEAXI@Z	; IronMan::Analysis::AnalysisBase::`scalar deleting destructor'
PUBLIC	??$?0$$V@?$_Compressed_pair@V?$allocator@V?$unique_ptr@VIAsmHelper@IronMan@@U?$default_delete@VIAsmHelper@IronMan@@@std@@@std@@@std@@V?$_Vector_val@U?$_Simple_types@V?$unique_ptr@VIAsmHelper@IronMan@@U?$default_delete@VIAsmHelper@IronMan@@@std@@@std@@@std@@@2@$00@std@@QEAA@U_Zero_then_variadic_args_t@1@@Z ; std::_Compressed_pair<std::allocator<std::unique_ptr<IronMan::IAsmHelper,std::default_delete<IronMan::IAsmHelper> > >,std::_Vector_val<std::_Simple_types<std::unique_ptr<IronMan::IAsmHelper,std::default_delete<IronMan::IAsmHelper> > > >,1>::_Compressed_pair<std::allocator<std::unique_ptr<IronMan::IAsmHelper,std::default_delete<IronMan::IAsmHelper> > >,std::_Vector_val<std::_Simple_types<std::unique_ptr<IronMan::IAsmHelper,std::default_delete<IronMan::IAsmHelper> > > >,1><>
PUBLIC	??$_Destroy_range@V?$allocator@V?$unique_ptr@VIAsmHelper@IronMan@@U?$default_delete@VIAsmHelper@IronMan@@@std@@@std@@@std@@@std@@YAXPEAV?$unique_ptr@VIAsmHelper@IronMan@@U?$default_delete@VIAsmHelper@IronMan@@@std@@@0@QEAV10@AEAV?$allocator@V?$unique_ptr@VIAsmHelper@IronMan@@U?$default_delete@VIAsmHelper@IronMan@@@std@@@std@@@0@@Z ; std::_Destroy_range<std::allocator<std::unique_ptr<IronMan::IAsmHelper,std::default_delete<IronMan::IAsmHelper> > > >
PUBLIC	??$_Deallocate@$0BA@@std@@YAXPEAX_K@Z		; std::_Deallocate<16>
PUBLIC	??$_Unfancy@V?$unique_ptr@VIAsmHelper@IronMan@@U?$default_delete@VIAsmHelper@IronMan@@@std@@@std@@@std@@YAPEAV?$unique_ptr@VIAsmHelper@IronMan@@U?$default_delete@VIAsmHelper@IronMan@@@std@@@0@PEAV10@@Z ; std::_Unfancy<std::unique_ptr<IronMan::IAsmHelper,std::default_delete<IronMan::IAsmHelper> > >
PUBLIC	??$destroy@V?$unique_ptr@VIAsmHelper@IronMan@@U?$default_delete@VIAsmHelper@IronMan@@@std@@@std@@@?$_Default_allocator_traits@V?$allocator@V?$unique_ptr@VIAsmHelper@IronMan@@U?$default_delete@VIAsmHelper@IronMan@@@std@@@std@@@std@@@std@@SAXAEAV?$allocator@V?$unique_ptr@VIAsmHelper@IronMan@@U?$default_delete@VIAsmHelper@IronMan@@@std@@@std@@@1@QEAV?$unique_ptr@VIAsmHelper@IronMan@@U?$default_delete@VIAsmHelper@IronMan@@@std@@@1@@Z ; std::_Default_allocator_traits<std::allocator<std::unique_ptr<IronMan::IAsmHelper,std::default_delete<IronMan::IAsmHelper> > > >::destroy<std::unique_ptr<IronMan::IAsmHelper,std::default_delete<IronMan::IAsmHelper> > >
PUBLIC	??$?0$0A@@id@locale@std@@QEAA@XZ		; std::locale::id::id<0>
PUBLIC	?_Fake_alloc@std@@3U_Fake_allocator@1@B		; std::_Fake_alloc
PUBLIC	??_7AnalysisBase@Analysis@IronMan@@6B@		; IronMan::Analysis::AnalysisBase::`vftable'
PUBLIC	?id@?$num_put@DV?$ostreambuf_iterator@DU?$char_traits@D@std@@@std@@@std@@2V0locale@2@A ; std::num_put<char,std::ostreambuf_iterator<char,std::char_traits<char> > >::id
PUBLIC	?id@?$codecvt@DDU_Mbstatet@@@std@@2V0locale@2@A	; std::codecvt<char,char,_Mbstatet>::id
PUBLIC	?id@?$numpunct@D@std@@2V0locale@2@A		; std::numpunct<char>::id
PUBLIC	?id@?$collate@D@std@@2V0locale@2@A		; std::collate<char>::id
PUBLIC	??_R4AnalysisBase@Analysis@IronMan@@6B@		; IronMan::Analysis::AnalysisBase::`RTTI Complete Object Locator'
PUBLIC	??_R0?AVAnalysisBase@Analysis@IronMan@@@8	; IronMan::Analysis::AnalysisBase `RTTI Type Descriptor'
PUBLIC	??_R3AnalysisBase@Analysis@IronMan@@8		; IronMan::Analysis::AnalysisBase::`RTTI Class Hierarchy Descriptor'
PUBLIC	??_R2AnalysisBase@Analysis@IronMan@@8		; IronMan::Analysis::AnalysisBase::`RTTI Base Class Array'
PUBLIC	??_R1A@?0A@EA@AnalysisBase@Analysis@IronMan@@8	; IronMan::Analysis::AnalysisBase::`RTTI Base Class Descriptor at (0,-1,0,64)'
EXTRN	_purecall:PROC
EXTRN	??3@YAXPEAX_K@Z:PROC				; operator delete
EXTRN	atexit:PROC
EXTRN	_invalid_parameter_noinfo_noreturn:PROC
EXTRN	memcpy:PROC
EXTRN	__imp_WSAStartup:PROC
EXTRN	__imp_WSACleanup:PROC
EXTRN	OPENSSL_init_ssl:PROC
EXTRN	??0Zydis@IronMan@@QEAA@XZ:PROC			; IronMan::Zydis::Zydis
EXTRN	??1Zydis@IronMan@@QEAA@XZ:PROC			; IronMan::Zydis::~Zydis
EXTRN	??_EAnalysisBase@Analysis@IronMan@@UEAAPEAXI@Z:PROC ; IronMan::Analysis::AnalysisBase::`vector deleting destructor'
EXTRN	__CxxFrameHandler4:PROC
EXTRN	__GSHandlerCheck:PROC
EXTRN	__security_check_cookie:PROC
EXTRN	??_7type_info@@6B@:BYTE				; type_info::`vftable'
EXTRN	__security_cookie:QWORD
_BSS	SEGMENT
?wsinit_@detail@httplib@@3VWSInit@12@A DB 01H DUP (?)	; httplib::detail::wsinit_
?sslinit_@detail@httplib@@3VSSLInit@12@A DB 01H DUP (?)	; httplib::detail::sslinit_
_BSS	ENDS
;	COMDAT ?id@?$num_put@DV?$ostreambuf_iterator@DU?$char_traits@D@std@@@std@@@std@@2V0locale@2@A
_BSS	SEGMENT
?id@?$num_put@DV?$ostreambuf_iterator@DU?$char_traits@D@std@@@std@@@std@@2V0locale@2@A DQ 01H DUP (?) ; std::num_put<char,std::ostreambuf_iterator<char,std::char_traits<char> > >::id
_BSS	ENDS
;	COMDAT ?id@?$codecvt@DDU_Mbstatet@@@std@@2V0locale@2@A
_BSS	SEGMENT
?id@?$codecvt@DDU_Mbstatet@@@std@@2V0locale@2@A DQ 01H DUP (?) ; std::codecvt<char,char,_Mbstatet>::id
_BSS	ENDS
;	COMDAT ?id@?$numpunct@D@std@@2V0locale@2@A
_BSS	SEGMENT
?id@?$numpunct@D@std@@2V0locale@2@A DQ 01H DUP (?)	; std::numpunct<char>::id
_BSS	ENDS
;	COMDAT ?id@?$collate@D@std@@2V0locale@2@A
_BSS	SEGMENT
?id@?$collate@D@std@@2V0locale@2@A DQ 01H DUP (?)	; std::collate<char>::id
_BSS	ENDS
;	COMDAT pdata
pdata	SEGMENT
$pdata$??_H@YAXPEAX_K1P6APEAX0@Z@Z DD imagerel $LN5
	DD	imagerel $LN5+102
	DD	imagerel $unwind$??_H@YAXPEAX_K1P6APEAX0@Z@Z
pdata	ENDS
;	COMDAT pdata
pdata	SEGMENT
$pdata$?_Adjust_manually_vector_aligned@std@@YAXAEAPEAXAEA_K@Z DD imagerel $LN11
	DD	imagerel $LN11+154
	DD	imagerel $unwind$?_Adjust_manually_vector_aligned@std@@YAXAEAPEAXAEA_K@Z
pdata	ENDS
;	COMDAT pdata
pdata	SEGMENT
$pdata$??0WSInit@detail@httplib@@QEAA@XZ DD imagerel $LN4
	DD	imagerel $LN4+103
	DD	imagerel $unwind$??0WSInit@detail@httplib@@QEAA@XZ
pdata	ENDS
;	COMDAT pdata
pdata	SEGMENT
$pdata$??1WSInit@detail@httplib@@QEAA@XZ DD imagerel $LN4
	DD	imagerel $LN4+33
	DD	imagerel $unwind$??1WSInit@detail@httplib@@QEAA@XZ
pdata	ENDS
;	COMDAT pdata
pdata	SEGMENT
$pdata$??__Ewsinit_@detail@httplib@@YAXXZ DD imagerel ??__Ewsinit_@detail@httplib@@YAXXZ
	DD	imagerel ??__Ewsinit_@detail@httplib@@YAXXZ+34
	DD	imagerel $unwind$??__Ewsinit_@detail@httplib@@YAXXZ
pdata	ENDS
;	COMDAT pdata
pdata	SEGMENT
$pdata$??__Fwsinit_@detail@httplib@@YAXXZ DD imagerel ??__Fwsinit_@detail@httplib@@YAXXZ
	DD	imagerel ??__Fwsinit_@detail@httplib@@YAXXZ+22
	DD	imagerel $unwind$??__Fwsinit_@detail@httplib@@YAXXZ
pdata	ENDS
;	COMDAT pdata
pdata	SEGMENT
$pdata$??0SSLInit@detail@httplib@@QEAA@XZ DD imagerel $LN3
	DD	imagerel $LN3+32
	DD	imagerel $unwind$??0SSLInit@detail@httplib@@QEAA@XZ
pdata	ENDS
;	COMDAT pdata
pdata	SEGMENT
$pdata$??__Esslinit_@detail@httplib@@YAXXZ DD imagerel ??__Esslinit_@detail@httplib@@YAXXZ
	DD	imagerel ??__Esslinit_@detail@httplib@@YAXXZ+22
	DD	imagerel $unwind$??__Esslinit_@detail@httplib@@YAXXZ
pdata	ENDS
;	COMDAT pdata
pdata	SEGMENT
$pdata$?setPacked_2x32@UInt64@asmjit@@QEAAAEAT12@II@Z DD imagerel $LN5
	DD	imagerel $LN5+100
	DD	imagerel $unwind$?setPacked_2x32@UInt64@asmjit@@QEAAAEAT12@II@Z
pdata	ENDS
;	COMDAT pdata
pdata	SEGMENT
$pdata$??0Operand@asmjit@@QEAA@AEBU01@@Z DD imagerel $LN3
	DD	imagerel $LN3+40
	DD	imagerel $unwind$??0Operand@asmjit@@QEAA@AEBU01@@Z
pdata	ENDS
;	COMDAT pdata
pdata	SEGMENT
$pdata$?_init@Operand@asmjit@@QEAAXAEBU12@@Z DD imagerel $LN3
	DD	imagerel $LN3+41
	DD	imagerel $unwind$?_init@Operand@asmjit@@QEAAXAEBU12@@Z
pdata	ENDS
;	COMDAT pdata
pdata	SEGMENT
$pdata$?_init_packed_op_sz_w0_id@Operand@asmjit@@QEAAXIIII@Z DD imagerel $LN3
	DD	imagerel $LN3+89
	DD	imagerel $unwind$?_init_packed_op_sz_w0_id@Operand@asmjit@@QEAAXIIII@Z
pdata	ENDS
;	COMDAT pdata
pdata	SEGMENT
$pdata$?_init_packed_d2_d3@Operand@asmjit@@QEAAXII@Z DD imagerel $LN3
	DD	imagerel $LN3+68
	DD	imagerel $unwind$?_init_packed_d2_d3@Operand@asmjit@@QEAAXII@Z
pdata	ENDS
;	COMDAT pdata
pdata	SEGMENT
$pdata$??0Reg@asmjit@@QEAA@XZ DD imagerel $LN3
	DD	imagerel $LN3+87
	DD	imagerel $unwind$??0Reg@asmjit@@QEAA@XZ
pdata	ENDS
;	COMDAT pdata
pdata	SEGMENT
$pdata$??0Reg@asmjit@@QEAA@AEBU01@@Z DD imagerel $LN3
	DD	imagerel $LN3+40
	DD	imagerel $unwind$??0Reg@asmjit@@QEAA@AEBU01@@Z
pdata	ENDS
;	COMDAT pdata
pdata	SEGMENT
$pdata$??0X86Reg@asmjit@@QEAA@XZ DD imagerel $LN3
	DD	imagerel $LN3+30
	DD	imagerel $unwind$??0X86Reg@asmjit@@QEAA@XZ
pdata	ENDS
;	COMDAT pdata
pdata	SEGMENT
$pdata$??0X86Reg@asmjit@@QEAA@AEBU01@@Z DD imagerel $LN3
	DD	imagerel $LN3+40
	DD	imagerel $unwind$??0X86Reg@asmjit@@QEAA@AEBU01@@Z
pdata	ENDS
;	COMDAT pdata
pdata	SEGMENT
$pdata$??0X86GpReg@asmjit@@QEAA@XZ DD imagerel $LN3
	DD	imagerel $LN3+30
	DD	imagerel $unwind$??0X86GpReg@asmjit@@QEAA@XZ
pdata	ENDS
;	COMDAT pdata
pdata	SEGMENT
$pdata$??0X86GpReg@asmjit@@QEAA@AEBU01@@Z DD imagerel $LN3
	DD	imagerel $LN3+40
	DD	imagerel $unwind$??0X86GpReg@asmjit@@QEAA@AEBU01@@Z
pdata	ENDS
;	COMDAT pdata
pdata	SEGMENT
$pdata$??R?$default_delete@VIAsmHelper@IronMan@@@std@@QEBAXPEAVIAsmHelper@IronMan@@@Z DD imagerel $LN5
	DD	imagerel $LN5+83
	DD	imagerel $unwind$??R?$default_delete@VIAsmHelper@IronMan@@@std@@QEBAXPEAVIAsmHelper@IronMan@@@Z
pdata	ENDS
;	COMDAT pdata
pdata	SEGMENT
$pdata$??1?$unique_ptr@VIAsmHelper@IronMan@@U?$default_delete@VIAsmHelper@IronMan@@@std@@@std@@QEAA@XZ DD imagerel $LN4
	DD	imagerel $LN4+72
	DD	imagerel $unwind$??1?$unique_ptr@VIAsmHelper@IronMan@@U?$default_delete@VIAsmHelper@IronMan@@@std@@@std@@QEAA@XZ
pdata	ENDS
;	COMDAT pdata
pdata	SEGMENT
$pdata$??_G?$unique_ptr@VIAsmHelper@IronMan@@U?$default_delete@VIAsmHelper@IronMan@@@std@@@std@@QEAAPEAXI@Z DD imagerel $LN4
	DD	imagerel $LN4+60
	DD	imagerel $unwind$??_G?$unique_ptr@VIAsmHelper@IronMan@@U?$default_delete@VIAsmHelper@IronMan@@@std@@@std@@QEAAPEAXI@Z
pdata	ENDS
pdata	SEGMENT
$pdata$??0AnalysisBase@Analysis@IronMan@@QEAA@_K0@Z DD imagerel $LN5
	DD	imagerel $LN5+123
	DD	imagerel $unwind$??0AnalysisBase@Analysis@IronMan@@QEAA@_K0@Z
pdata	ENDS
pdata	SEGMENT
$pdata$?dtor$0@?0???0AnalysisBase@Analysis@IronMan@@QEAA@_K0@Z@4HA DD imagerel ?dtor$0@?0???0AnalysisBase@Analysis@IronMan@@QEAA@_K0@Z@4HA
	DD	imagerel ?dtor$0@?0???0AnalysisBase@Analysis@IronMan@@QEAA@_K0@Z@4HA+28
	DD	imagerel $unwind$?dtor$0@?0???0AnalysisBase@Analysis@IronMan@@QEAA@_K0@Z@4HA
$pdata$?dtor$1@?0???0AnalysisBase@Analysis@IronMan@@QEAA@_K0@Z@4HA DD imagerel ?dtor$1@?0???0AnalysisBase@Analysis@IronMan@@QEAA@_K0@Z@4HA
	DD	imagerel ?dtor$1@?0???0AnalysisBase@Analysis@IronMan@@QEAA@_K0@Z@4HA+31
	DD	imagerel $unwind$?dtor$1@?0???0AnalysisBase@Analysis@IronMan@@QEAA@_K0@Z@4HA
pdata	ENDS
pdata	SEGMENT
$pdata$??1AnalysisBase@Analysis@IronMan@@UEAA@XZ DD imagerel $LN5
	DD	imagerel $LN5+67
	DD	imagerel $unwind$??1AnalysisBase@Analysis@IronMan@@UEAA@XZ
pdata	ENDS
pdata	SEGMENT
$pdata$?dtor$0@?0???1AnalysisBase@Analysis@IronMan@@UEAA@XZ@4HA DD imagerel ?dtor$0@?0???1AnalysisBase@Analysis@IronMan@@UEAA@XZ@4HA
	DD	imagerel ?dtor$0@?0???1AnalysisBase@Analysis@IronMan@@UEAA@XZ@4HA+28
	DD	imagerel $unwind$?dtor$0@?0???1AnalysisBase@Analysis@IronMan@@UEAA@XZ@4HA
$pdata$?dtor$1@?0???1AnalysisBase@Analysis@IronMan@@UEAA@XZ@4HA DD imagerel ?dtor$1@?0???1AnalysisBase@Analysis@IronMan@@UEAA@XZ@4HA
	DD	imagerel ?dtor$1@?0???1AnalysisBase@Analysis@IronMan@@UEAA@XZ@4HA+31
	DD	imagerel $unwind$?dtor$1@?0???1AnalysisBase@Analysis@IronMan@@UEAA@XZ@4HA
pdata	ENDS
pdata	SEGMENT
$pdata$?GpRegTo64@AnalysisBase@Analysis@IronMan@@IEAA?AW4ZydisRegister_@@W44@@Z DD imagerel $LN12
	DD	imagerel $LN12+269
	DD	imagerel $unwind$?GpRegTo64@AnalysisBase@Analysis@IronMan@@IEAA?AW4ZydisRegister_@@W44@@Z
$pdata$?ToGpReg@AnalysisBase@Analysis@IronMan@@IEAA?AUX86GpReg@asmjit@@W4ZydisRegister_@@@Z DD imagerel $LN15
	DD	imagerel $LN15+570
	DD	imagerel $unwind$?ToGpReg@AnalysisBase@Analysis@IronMan@@IEAA?AUX86GpReg@asmjit@@W4ZydisRegister_@@@Z
pdata	ENDS
;	COMDAT pdata
pdata	SEGMENT
$pdata$?inRange@AnalysisBase@Analysis@IronMan@@IEBA_N_K00@Z DD imagerel $LN5
	DD	imagerel $LN5+73
	DD	imagerel $unwind$?inRange@AnalysisBase@Analysis@IronMan@@IEBA_N_K00@Z
pdata	ENDS
;	COMDAT pdata
pdata	SEGMENT
$pdata$?deallocate@?$allocator@V?$unique_ptr@VIAsmHelper@IronMan@@U?$default_delete@VIAsmHelper@IronMan@@@std@@@std@@@std@@QEAAXQEAV?$unique_ptr@VIAsmHelper@IronMan@@U?$default_delete@VIAsmHelper@IronMan@@@std@@@2@_K@Z DD imagerel $LN3
	DD	imagerel $LN3+47
	DD	imagerel $unwind$?deallocate@?$allocator@V?$unique_ptr@VIAsmHelper@IronMan@@U?$default_delete@VIAsmHelper@IronMan@@@std@@@std@@@std@@QEAAXQEAV?$unique_ptr@VIAsmHelper@IronMan@@U?$default_delete@VIAsmHelper@IronMan@@@std@@@2@_K@Z
pdata	ENDS
;	COMDAT pdata
pdata	SEGMENT
$pdata$??0?$vector@V?$unique_ptr@VIAsmHelper@IronMan@@U?$default_delete@VIAsmHelper@IronMan@@@std@@@std@@V?$allocator@V?$unique_ptr@VIAsmHelper@IronMan@@U?$default_delete@VIAsmHelper@IronMan@@@std@@@std@@@2@@std@@QEAA@XZ DD imagerel $LN3
	DD	imagerel $LN3+73
	DD	imagerel $unwind$??0?$vector@V?$unique_ptr@VIAsmHelper@IronMan@@U?$default_delete@VIAsmHelper@IronMan@@@std@@@std@@V?$allocator@V?$unique_ptr@VIAsmHelper@IronMan@@U?$default_delete@VIAsmHelper@IronMan@@@std@@@std@@@2@@std@@QEAA@XZ
pdata	ENDS
;	COMDAT pdata
pdata	SEGMENT
$pdata$??1?$vector@V?$unique_ptr@VIAsmHelper@IronMan@@U?$default_delete@VIAsmHelper@IronMan@@@std@@@std@@V?$allocator@V?$unique_ptr@VIAsmHelper@IronMan@@U?$default_delete@VIAsmHelper@IronMan@@@std@@@std@@@2@@std@@QEAA@XZ DD imagerel $LN3
	DD	imagerel $LN3+25
	DD	imagerel $unwind$??1?$vector@V?$unique_ptr@VIAsmHelper@IronMan@@U?$default_delete@VIAsmHelper@IronMan@@@std@@@std@@V?$allocator@V?$unique_ptr@VIAsmHelper@IronMan@@U?$default_delete@VIAsmHelper@IronMan@@@std@@@std@@@2@@std@@QEAA@XZ
pdata	ENDS
;	COMDAT pdata
pdata	SEGMENT
$pdata$?_Tidy@?$vector@V?$unique_ptr@VIAsmHelper@IronMan@@U?$default_delete@VIAsmHelper@IronMan@@@std@@@std@@V?$allocator@V?$unique_ptr@VIAsmHelper@IronMan@@U?$default_delete@VIAsmHelper@IronMan@@@std@@@std@@@2@@std@@AEAAXXZ DD imagerel $LN4
	DD	imagerel $LN4+205
	DD	imagerel $unwind$?_Tidy@?$vector@V?$unique_ptr@VIAsmHelper@IronMan@@U?$default_delete@VIAsmHelper@IronMan@@@std@@@std@@V?$allocator@V?$unique_ptr@VIAsmHelper@IronMan@@U?$default_delete@VIAsmHelper@IronMan@@@std@@@std@@@2@@std@@AEAAXXZ
pdata	ENDS
;	COMDAT pdata
pdata	SEGMENT
$pdata$?_Getal@?$vector@V?$unique_ptr@VIAsmHelper@IronMan@@U?$default_delete@VIAsmHelper@IronMan@@@std@@@std@@V?$allocator@V?$unique_ptr@VIAsmHelper@IronMan@@U?$default_delete@VIAsmHelper@IronMan@@@std@@@std@@@2@@std@@AEAAAEAV?$allocator@V?$unique_ptr@VIAsmHelper@IronMan@@U?$default_delete@VIAsmHelper@IronMan@@@std@@@std@@@2@XZ DD imagerel $LN3
	DD	imagerel $LN3+27
	DD	imagerel $unwind$?_Getal@?$vector@V?$unique_ptr@VIAsmHelper@IronMan@@U?$default_delete@VIAsmHelper@IronMan@@@std@@@std@@V?$allocator@V?$unique_ptr@VIAsmHelper@IronMan@@U?$default_delete@VIAsmHelper@IronMan@@@std@@@std@@@2@@std@@AEAAAEAV?$allocator@V?$unique_ptr@VIAsmHelper@IronMan@@U?$default_delete@VIAsmHelper@IronMan@@@std@@@std@@@2@XZ
pdata	ENDS
;	COMDAT pdata
pdata	SEGMENT
$pdata$??_GAnalysisBase@Analysis@IronMan@@UEAAPEAXI@Z DD imagerel $LN4
	DD	imagerel $LN4+60
	DD	imagerel $unwind$??_GAnalysisBase@Analysis@IronMan@@UEAAPEAXI@Z
pdata	ENDS
;	COMDAT pdata
pdata	SEGMENT
$pdata$??$?0$$V@?$_Compressed_pair@V?$allocator@V?$unique_ptr@VIAsmHelper@IronMan@@U?$default_delete@VIAsmHelper@IronMan@@@std@@@std@@@std@@V?$_Vector_val@U?$_Simple_types@V?$unique_ptr@VIAsmHelper@IronMan@@U?$default_delete@VIAsmHelper@IronMan@@@std@@@std@@@std@@@2@$00@std@@QEAA@U_Zero_then_variadic_args_t@1@@Z DD imagerel $LN3
	DD	imagerel $LN3+47
	DD	imagerel $unwind$??$?0$$V@?$_Compressed_pair@V?$allocator@V?$unique_ptr@VIAsmHelper@IronMan@@U?$default_delete@VIAsmHelper@IronMan@@@std@@@std@@@std@@V?$_Vector_val@U?$_Simple_types@V?$unique_ptr@VIAsmHelper@IronMan@@U?$default_delete@VIAsmHelper@IronMan@@@std@@@std@@@std@@@2@$00@std@@QEAA@U_Zero_then_variadic_args_t@1@@Z
pdata	ENDS
;	COMDAT pdata
pdata	SEGMENT
$pdata$??$_Destroy_range@V?$allocator@V?$unique_ptr@VIAsmHelper@IronMan@@U?$default_delete@VIAsmHelper@IronMan@@@std@@@std@@@std@@@std@@YAXPEAV?$unique_ptr@VIAsmHelper@IronMan@@U?$default_delete@VIAsmHelper@IronMan@@@std@@@0@QEAV10@AEAV?$allocator@V?$unique_ptr@VIAsmHelper@IronMan@@U?$default_delete@VIAsmHelper@IronMan@@@std@@@std@@@0@@Z DD imagerel $LN6
	DD	imagerel $LN6+78
	DD	imagerel $unwind$??$_Destroy_range@V?$allocator@V?$unique_ptr@VIAsmHelper@IronMan@@U?$default_delete@VIAsmHelper@IronMan@@@std@@@std@@@std@@@std@@YAXPEAV?$unique_ptr@VIAsmHelper@IronMan@@U?$default_delete@VIAsmHelper@IronMan@@@std@@@0@QEAV10@AEAV?$allocator@V?$unique_ptr@VIAsmHelper@IronMan@@U?$default_delete@VIAsmHelper@IronMan@@@std@@@std@@@0@@Z
pdata	ENDS
;	COMDAT pdata
pdata	SEGMENT
$pdata$??$_Deallocate@$0BA@@std@@YAXPEAX_K@Z DD imagerel $LN4
	DD	imagerel $LN4+62
	DD	imagerel $unwind$??$_Deallocate@$0BA@@std@@YAXPEAX_K@Z
pdata	ENDS
;	COMDAT pdata
pdata	SEGMENT
$pdata$??$destroy@V?$unique_ptr@VIAsmHelper@IronMan@@U?$default_delete@VIAsmHelper@IronMan@@@std@@@std@@@?$_Default_allocator_traits@V?$allocator@V?$unique_ptr@VIAsmHelper@IronMan@@U?$default_delete@VIAsmHelper@IronMan@@@std@@@std@@@std@@@std@@SAXAEAV?$allocator@V?$unique_ptr@VIAsmHelper@IronMan@@U?$default_delete@VIAsmHelper@IronMan@@@std@@@std@@@1@QEAV?$unique_ptr@VIAsmHelper@IronMan@@U?$default_delete@VIAsmHelper@IronMan@@@std@@@1@@Z DD imagerel $LN3
	DD	imagerel $LN3+32
	DD	imagerel $unwind$??$destroy@V?$unique_ptr@VIAsmHelper@IronMan@@U?$default_delete@VIAsmHelper@IronMan@@@std@@@std@@@?$_Default_allocator_traits@V?$allocator@V?$unique_ptr@VIAsmHelper@IronMan@@U?$default_delete@VIAsmHelper@IronMan@@@std@@@std@@@std@@@std@@SAXAEAV?$allocator@V?$unique_ptr@VIAsmHelper@IronMan@@U?$default_delete@VIAsmHelper@IronMan@@@std@@@std@@@1@QEAV?$unique_ptr@VIAsmHelper@IronMan@@U?$default_delete@VIAsmHelper@IronMan@@@std@@@1@@Z
pdata	ENDS
;	COMDAT pdata
pdata	SEGMENT
$pdata$??__E?id@?$codecvt@DDU_Mbstatet@@@std@@2V0locale@2@A@@YAXXZ DD imagerel ??__E?id@?$codecvt@DDU_Mbstatet@@@std@@2V0locale@2@A@@YAXXZ
	DD	imagerel ??__E?id@?$codecvt@DDU_Mbstatet@@@std@@2V0locale@2@A@@YAXXZ+22
	DD	imagerel $unwind$??__E?id@?$codecvt@DDU_Mbstatet@@@std@@2V0locale@2@A@@YAXXZ
pdata	ENDS
;	COMDAT pdata
pdata	SEGMENT
$pdata$??__E?id@?$num_put@DV?$ostreambuf_iterator@DU?$char_traits@D@std@@@std@@@std@@2V0locale@2@A@@YAXXZ DD imagerel ??__E?id@?$num_put@DV?$ostreambuf_iterator@DU?$char_traits@D@std@@@std@@@std@@2V0locale@2@A@@YAXXZ
	DD	imagerel ??__E?id@?$num_put@DV?$ostreambuf_iterator@DU?$char_traits@D@std@@@std@@@std@@2V0locale@2@A@@YAXXZ+22
	DD	imagerel $unwind$??__E?id@?$num_put@DV?$ostreambuf_iterator@DU?$char_traits@D@std@@@std@@@std@@2V0locale@2@A@@YAXXZ
pdata	ENDS
;	COMDAT pdata
pdata	SEGMENT
$pdata$??__E?id@?$collate@D@std@@2V0locale@2@A@@YAXXZ DD imagerel ??__E?id@?$collate@D@std@@2V0locale@2@A@@YAXXZ
	DD	imagerel ??__E?id@?$collate@D@std@@2V0locale@2@A@@YAXXZ+22
	DD	imagerel $unwind$??__E?id@?$collate@D@std@@2V0locale@2@A@@YAXXZ
pdata	ENDS
;	COMDAT pdata
pdata	SEGMENT
$pdata$??__E?id@?$numpunct@D@std@@2V0locale@2@A@@YAXXZ DD imagerel ??__E?id@?$numpunct@D@std@@2V0locale@2@A@@YAXXZ
	DD	imagerel ??__E?id@?$numpunct@D@std@@2V0locale@2@A@@YAXXZ+22
	DD	imagerel $unwind$??__E?id@?$numpunct@D@std@@2V0locale@2@A@@YAXXZ
pdata	ENDS
CRT$XCU	SEGMENT
?wsinit_$initializer$@detail@httplib@@3P6AXXZEA DQ FLAT:??__Ewsinit_@detail@httplib@@YAXXZ ; httplib::detail::wsinit_$initializer$
CRT$XCU	ENDS
;	COMDAT ??_R1A@?0A@EA@AnalysisBase@Analysis@IronMan@@8
rdata$r	SEGMENT
??_R1A@?0A@EA@AnalysisBase@Analysis@IronMan@@8 DD imagerel ??_R0?AVAnalysisBase@Analysis@IronMan@@@8 ; IronMan::Analysis::AnalysisBase::`RTTI Base Class Descriptor at (0,-1,0,64)'
	DD	00H
	DD	00H
	DD	0ffffffffH
	DD	00H
	DD	040H
	DD	imagerel ??_R3AnalysisBase@Analysis@IronMan@@8
rdata$r	ENDS
;	COMDAT ??_R2AnalysisBase@Analysis@IronMan@@8
rdata$r	SEGMENT
??_R2AnalysisBase@Analysis@IronMan@@8 DD imagerel ??_R1A@?0A@EA@AnalysisBase@Analysis@IronMan@@8 ; IronMan::Analysis::AnalysisBase::`RTTI Base Class Array'
	ORG $+3
rdata$r	ENDS
;	COMDAT ??_R3AnalysisBase@Analysis@IronMan@@8
rdata$r	SEGMENT
??_R3AnalysisBase@Analysis@IronMan@@8 DD 00H		; IronMan::Analysis::AnalysisBase::`RTTI Class Hierarchy Descriptor'
	DD	00H
	DD	01H
	DD	imagerel ??_R2AnalysisBase@Analysis@IronMan@@8
rdata$r	ENDS
;	COMDAT ??_R0?AVAnalysisBase@Analysis@IronMan@@@8
data$rs	SEGMENT
??_R0?AVAnalysisBase@Analysis@IronMan@@@8 DQ FLAT:??_7type_info@@6B@ ; IronMan::Analysis::AnalysisBase `RTTI Type Descriptor'
	DQ	0000000000000000H
	DB	'.?AVAnalysisBase@Analysis@IronMan@@', 00H
data$rs	ENDS
;	COMDAT ??_R4AnalysisBase@Analysis@IronMan@@6B@
rdata$r	SEGMENT
??_R4AnalysisBase@Analysis@IronMan@@6B@ DD 01H		; IronMan::Analysis::AnalysisBase::`RTTI Complete Object Locator'
	DD	00H
	DD	00H
	DD	imagerel ??_R0?AVAnalysisBase@Analysis@IronMan@@@8
	DD	imagerel ??_R3AnalysisBase@Analysis@IronMan@@8
	DD	imagerel ??_R4AnalysisBase@Analysis@IronMan@@6B@
rdata$r	ENDS
;	COMDAT ??_7AnalysisBase@Analysis@IronMan@@6B@
CONST	SEGMENT
??_7AnalysisBase@Analysis@IronMan@@6B@ DQ FLAT:??_R4AnalysisBase@Analysis@IronMan@@6B@ ; IronMan::Analysis::AnalysisBase::`vftable'
	DQ	FLAT:??_EAnalysisBase@Analysis@IronMan@@UEAAPEAXI@Z
	DQ	FLAT:_purecall
	DQ	FLAT:_purecall
	DQ	FLAT:?GetEntryPoint@AnalysisBase@Analysis@IronMan@@UEBA?B_KXZ
CONST	ENDS
;	COMDAT ?_Fake_alloc@std@@3U_Fake_allocator@1@B
CONST	SEGMENT
?_Fake_alloc@std@@3U_Fake_allocator@1@B	ORG $+1		; std::_Fake_alloc
CONST	ENDS
;	COMDAT xdata
xdata	SEGMENT
$unwind$??__E?id@?$numpunct@D@std@@2V0locale@2@A@@YAXXZ DD 010401H
	DD	04204H
xdata	ENDS
;	COMDAT xdata
xdata	SEGMENT
$unwind$??__E?id@?$collate@D@std@@2V0locale@2@A@@YAXXZ DD 010401H
	DD	04204H
xdata	ENDS
;	COMDAT xdata
xdata	SEGMENT
$unwind$??__E?id@?$num_put@DV?$ostreambuf_iterator@DU?$char_traits@D@std@@@std@@@std@@2V0locale@2@A@@YAXXZ DD 010401H
	DD	04204H
xdata	ENDS
;	COMDAT xdata
xdata	SEGMENT
$unwind$??__E?id@?$codecvt@DDU_Mbstatet@@@std@@2V0locale@2@A@@YAXXZ DD 010401H
	DD	04204H
xdata	ENDS
;	COMDAT xdata
xdata	SEGMENT
$unwind$??$destroy@V?$unique_ptr@VIAsmHelper@IronMan@@U?$default_delete@VIAsmHelper@IronMan@@@std@@@std@@@?$_Default_allocator_traits@V?$allocator@V?$unique_ptr@VIAsmHelper@IronMan@@U?$default_delete@VIAsmHelper@IronMan@@@std@@@std@@@std@@@std@@SAXAEAV?$allocator@V?$unique_ptr@VIAsmHelper@IronMan@@U?$default_delete@VIAsmHelper@IronMan@@@std@@@std@@@1@QEAV?$unique_ptr@VIAsmHelper@IronMan@@U?$default_delete@VIAsmHelper@IronMan@@@std@@@1@@Z DD 010e01H
	DD	0420eH
xdata	ENDS
;	COMDAT xdata
xdata	SEGMENT
$ip2state$??$_Deallocate@$0BA@@std@@YAXPEAX_K@Z DB 02H
	DB	00H
	DB	00H
xdata	ENDS
;	COMDAT xdata
xdata	SEGMENT
$cppxdata$??$_Deallocate@$0BA@@std@@YAXPEAX_K@Z DB 040H
	DD	imagerel $ip2state$??$_Deallocate@$0BA@@std@@YAXPEAX_K@Z
xdata	ENDS
;	COMDAT xdata
xdata	SEGMENT
$unwind$??$_Deallocate@$0BA@@std@@YAXPEAX_K@Z DD 010e19H
	DD	0420eH
	DD	imagerel __CxxFrameHandler4
	DD	imagerel $cppxdata$??$_Deallocate@$0BA@@std@@YAXPEAX_K@Z
xdata	ENDS
;	COMDAT xdata
xdata	SEGMENT
$ip2state$??$_Destroy_range@V?$allocator@V?$unique_ptr@VIAsmHelper@IronMan@@U?$default_delete@VIAsmHelper@IronMan@@@std@@@std@@@std@@@std@@YAXPEAV?$unique_ptr@VIAsmHelper@IronMan@@U?$default_delete@VIAsmHelper@IronMan@@@std@@@0@QEAV10@AEAV?$allocator@V?$unique_ptr@VIAsmHelper@IronMan@@U?$default_delete@VIAsmHelper@IronMan@@@std@@@std@@@0@@Z DB 02H
	DB	00H
	DB	00H
xdata	ENDS
;	COMDAT xdata
xdata	SEGMENT
$cppxdata$??$_Destroy_range@V?$allocator@V?$unique_ptr@VIAsmHelper@IronMan@@U?$default_delete@VIAsmHelper@IronMan@@@std@@@std@@@std@@@std@@YAXPEAV?$unique_ptr@VIAsmHelper@IronMan@@U?$default_delete@VIAsmHelper@IronMan@@@std@@@0@QEAV10@AEAV?$allocator@V?$unique_ptr@VIAsmHelper@IronMan@@U?$default_delete@VIAsmHelper@IronMan@@@std@@@std@@@0@@Z DB 040H
	DD	imagerel $ip2state$??$_Destroy_range@V?$allocator@V?$unique_ptr@VIAsmHelper@IronMan@@U?$default_delete@VIAsmHelper@IronMan@@@std@@@std@@@std@@@std@@YAXPEAV?$unique_ptr@VIAsmHelper@IronMan@@U?$default_delete@VIAsmHelper@IronMan@@@std@@@0@QEAV10@AEAV?$allocator@V?$unique_ptr@VIAsmHelper@IronMan@@U?$default_delete@VIAsmHelper@IronMan@@@std@@@std@@@0@@Z
xdata	ENDS
;	COMDAT xdata
xdata	SEGMENT
$unwind$??$_Destroy_range@V?$allocator@V?$unique_ptr@VIAsmHelper@IronMan@@U?$default_delete@VIAsmHelper@IronMan@@@std@@@std@@@std@@@std@@YAXPEAV?$unique_ptr@VIAsmHelper@IronMan@@U?$default_delete@VIAsmHelper@IronMan@@@std@@@0@QEAV10@AEAV?$allocator@V?$unique_ptr@VIAsmHelper@IronMan@@U?$default_delete@VIAsmHelper@IronMan@@@std@@@std@@@0@@Z DD 011319H
	DD	04213H
	DD	imagerel __CxxFrameHandler4
	DD	imagerel $cppxdata$??$_Destroy_range@V?$allocator@V?$unique_ptr@VIAsmHelper@IronMan@@U?$default_delete@VIAsmHelper@IronMan@@@std@@@std@@@std@@@std@@YAXPEAV?$unique_ptr@VIAsmHelper@IronMan@@U?$default_delete@VIAsmHelper@IronMan@@@std@@@0@QEAV10@AEAV?$allocator@V?$unique_ptr@VIAsmHelper@IronMan@@U?$default_delete@VIAsmHelper@IronMan@@@std@@@std@@@0@@Z
xdata	ENDS
;	COMDAT xdata
xdata	SEGMENT
$unwind$??$?0$$V@?$_Compressed_pair@V?$allocator@V?$unique_ptr@VIAsmHelper@IronMan@@U?$default_delete@VIAsmHelper@IronMan@@@std@@@std@@@std@@V?$_Vector_val@U?$_Simple_types@V?$unique_ptr@VIAsmHelper@IronMan@@U?$default_delete@VIAsmHelper@IronMan@@@std@@@std@@@std@@@2@$00@std@@QEAA@U_Zero_then_variadic_args_t@1@@Z DD 010d01H
	DD	0420dH
xdata	ENDS
;	COMDAT xdata
xdata	SEGMENT
$unwind$??_GAnalysisBase@Analysis@IronMan@@UEAAPEAXI@Z DD 010d01H
	DD	0420dH
xdata	ENDS
;	COMDAT xdata
xdata	SEGMENT
$unwind$?_Getal@?$vector@V?$unique_ptr@VIAsmHelper@IronMan@@U?$default_delete@VIAsmHelper@IronMan@@@std@@@std@@V?$allocator@V?$unique_ptr@VIAsmHelper@IronMan@@U?$default_delete@VIAsmHelper@IronMan@@@std@@@std@@@2@@std@@AEAAAEAV?$allocator@V?$unique_ptr@VIAsmHelper@IronMan@@U?$default_delete@VIAsmHelper@IronMan@@@std@@@std@@@2@XZ DD 010901H
	DD	04209H
xdata	ENDS
;	COMDAT xdata
xdata	SEGMENT
$unwind$?_Tidy@?$vector@V?$unique_ptr@VIAsmHelper@IronMan@@U?$default_delete@VIAsmHelper@IronMan@@@std@@@std@@V?$allocator@V?$unique_ptr@VIAsmHelper@IronMan@@U?$default_delete@VIAsmHelper@IronMan@@@std@@@std@@@2@@std@@AEAAXXZ DD 010901H
	DD	0a209H
xdata	ENDS
;	COMDAT xdata
xdata	SEGMENT
$unwind$??1?$vector@V?$unique_ptr@VIAsmHelper@IronMan@@U?$default_delete@VIAsmHelper@IronMan@@@std@@@std@@V?$allocator@V?$unique_ptr@VIAsmHelper@IronMan@@U?$default_delete@VIAsmHelper@IronMan@@@std@@@std@@@2@@std@@QEAA@XZ DD 010901H
	DD	04209H
xdata	ENDS
;	COMDAT xdata
xdata	SEGMENT
$unwind$??0?$vector@V?$unique_ptr@VIAsmHelper@IronMan@@U?$default_delete@VIAsmHelper@IronMan@@@std@@@std@@V?$allocator@V?$unique_ptr@VIAsmHelper@IronMan@@U?$default_delete@VIAsmHelper@IronMan@@@std@@@std@@@2@@std@@QEAA@XZ DD 010901H
	DD	08209H
xdata	ENDS
;	COMDAT xdata
xdata	SEGMENT
$unwind$?deallocate@?$allocator@V?$unique_ptr@VIAsmHelper@IronMan@@U?$default_delete@VIAsmHelper@IronMan@@@std@@@std@@@std@@QEAAXQEAV?$unique_ptr@VIAsmHelper@IronMan@@U?$default_delete@VIAsmHelper@IronMan@@@std@@@2@_K@Z DD 011301H
	DD	04213H
xdata	ENDS
;	COMDAT xdata
xdata	SEGMENT
$unwind$?inRange@AnalysisBase@Analysis@IronMan@@IEBA_N_K00@Z DD 011801H
	DD	02218H
xdata	ENDS
xdata	SEGMENT
$unwind$??0AnalysisBase@Analysis@IronMan@@QEAA@_K0@Z DD 011311H
	DD	04213H
	DD	imagerel __CxxFrameHandler4
	DD	imagerel $cppxdata$??0AnalysisBase@Analysis@IronMan@@QEAA@_K0@Z
$cppxdata$??0AnalysisBase@Analysis@IronMan@@QEAA@_K0@Z DB 08H
	DD	imagerel $stateUnwindMap$??0AnalysisBase@Analysis@IronMan@@QEAA@_K0@Z
	DD	imagerel $ip2state$??0AnalysisBase@Analysis@IronMan@@QEAA@_K0@Z
$stateUnwindMap$??0AnalysisBase@Analysis@IronMan@@QEAA@_K0@Z DB 04H
	DB	0eH
	DD	imagerel ?dtor$0@?0???0AnalysisBase@Analysis@IronMan@@QEAA@_K0@Z@4HA
	DB	02eH
	DD	imagerel ?dtor$1@?0???0AnalysisBase@Analysis@IronMan@@QEAA@_K0@Z@4HA
$ip2state$??0AnalysisBase@Analysis@IronMan@@QEAA@_K0@Z DB 08H
	DB	00H
	DB	00H
	DB	'h'
	DB	02H
	DB	'('
	DB	04H
	DB	'R'
	DB	00H
	ORG $+3
$unwind$?dtor$0@?0???0AnalysisBase@Analysis@IronMan@@QEAA@_K0@Z@4HA DD 020601H
	DD	050023206H
$unwind$?dtor$1@?0???0AnalysisBase@Analysis@IronMan@@QEAA@_K0@Z@4HA DD 020601H
	DD	050023206H
$unwind$??1AnalysisBase@Analysis@IronMan@@UEAA@XZ DD 010911H
	DD	04209H
	DD	imagerel __CxxFrameHandler4
	DD	imagerel $cppxdata$??1AnalysisBase@Analysis@IronMan@@UEAA@XZ
$cppxdata$??1AnalysisBase@Analysis@IronMan@@UEAA@XZ DB 048H
	DD	imagerel $stateUnwindMap$??1AnalysisBase@Analysis@IronMan@@UEAA@XZ
	DD	imagerel $ip2state$??1AnalysisBase@Analysis@IronMan@@UEAA@XZ
$stateUnwindMap$??1AnalysisBase@Analysis@IronMan@@UEAA@XZ DB 04H
	DB	0eH
	DD	imagerel ?dtor$0@?0???1AnalysisBase@Analysis@IronMan@@UEAA@XZ@4HA
	DB	02eH
	DD	imagerel ?dtor$1@?0???1AnalysisBase@Analysis@IronMan@@UEAA@XZ@4HA
$ip2state$??1AnalysisBase@Analysis@IronMan@@UEAA@XZ DB 06H
	DB	00H
	DB	00H
	DB	'0'
	DB	02H
	DB	'('
	DB	00H
	ORG $+1
$unwind$?dtor$0@?0???1AnalysisBase@Analysis@IronMan@@UEAA@XZ@4HA DD 020601H
	DD	050023206H
$unwind$?dtor$1@?0???1AnalysisBase@Analysis@IronMan@@UEAA@XZ@4HA DD 020601H
	DD	050023206H
$unwind$?GpRegTo64@AnalysisBase@Analysis@IronMan@@IEAA?AW4ZydisRegister_@@W44@@Z DD 010d01H
	DD	0420dH
$unwind$?ToGpReg@AnalysisBase@Analysis@IronMan@@IEAA?AUX86GpReg@asmjit@@W4ZydisRegister_@@@Z DD 011301H
	DD	04213H
xdata	ENDS
;	COMDAT xdata
xdata	SEGMENT
$unwind$??_G?$unique_ptr@VIAsmHelper@IronMan@@U?$default_delete@VIAsmHelper@IronMan@@@std@@@std@@QEAAPEAXI@Z DD 010d01H
	DD	0420dH
xdata	ENDS
;	COMDAT xdata
xdata	SEGMENT
$unwind$??1?$unique_ptr@VIAsmHelper@IronMan@@U?$default_delete@VIAsmHelper@IronMan@@@std@@@std@@QEAA@XZ DD 010901H
	DD	06209H
xdata	ENDS
;	COMDAT xdata
xdata	SEGMENT
$unwind$??R?$default_delete@VIAsmHelper@IronMan@@@std@@QEBAXPEAVIAsmHelper@IronMan@@@Z DD 010e01H
	DD	0820eH
xdata	ENDS
;	COMDAT xdata
xdata	SEGMENT
$unwind$??0X86GpReg@asmjit@@QEAA@AEBU01@@Z DD 010e01H
	DD	0420eH
xdata	ENDS
;	COMDAT xdata
xdata	SEGMENT
$unwind$??0X86GpReg@asmjit@@QEAA@XZ DD 010901H
	DD	04209H
xdata	ENDS
;	COMDAT xdata
xdata	SEGMENT
$unwind$??0X86Reg@asmjit@@QEAA@AEBU01@@Z DD 010e01H
	DD	0420eH
xdata	ENDS
;	COMDAT xdata
xdata	SEGMENT
$unwind$??0X86Reg@asmjit@@QEAA@XZ DD 010901H
	DD	04209H
xdata	ENDS
;	COMDAT xdata
xdata	SEGMENT
$unwind$??0Reg@asmjit@@QEAA@AEBU01@@Z DD 010e01H
	DD	0420eH
xdata	ENDS
;	COMDAT xdata
xdata	SEGMENT
$unwind$??0Reg@asmjit@@QEAA@XZ DD 010901H
	DD	06209H
xdata	ENDS
;	COMDAT xdata
xdata	SEGMENT
$unwind$?_init_packed_d2_d3@Operand@asmjit@@QEAAXII@Z DD 011201H
	DD	06212H
xdata	ENDS
;	COMDAT xdata
xdata	SEGMENT
$unwind$?_init_packed_op_sz_w0_id@Operand@asmjit@@QEAAXIIII@Z DD 011701H
	DD	06217H
xdata	ENDS
;	COMDAT xdata
xdata	SEGMENT
$unwind$?_init@Operand@asmjit@@QEAAXAEBU12@@Z DD 010e01H
	DD	0420eH
xdata	ENDS
;	COMDAT xdata
xdata	SEGMENT
$unwind$??0Operand@asmjit@@QEAA@AEBU01@@Z DD 010e01H
	DD	0420eH
xdata	ENDS
;	COMDAT xdata
xdata	SEGMENT
$unwind$?setPacked_2x32@UInt64@asmjit@@QEAAAEAT12@II@Z DD 011201H
	DD	04212H
xdata	ENDS
;	COMDAT xdata
xdata	SEGMENT
$unwind$??__Esslinit_@detail@httplib@@YAXXZ DD 010401H
	DD	04204H
xdata	ENDS
;	COMDAT xdata
xdata	SEGMENT
$unwind$??0SSLInit@detail@httplib@@QEAA@XZ DD 010901H
	DD	04209H
xdata	ENDS
;	COMDAT xdata
xdata	SEGMENT
$unwind$??__Fwsinit_@detail@httplib@@YAXXZ DD 010401H
	DD	04204H
xdata	ENDS
;	COMDAT xdata
xdata	SEGMENT
$unwind$??__Ewsinit_@detail@httplib@@YAXXZ DD 010401H
	DD	04204H
xdata	ENDS
;	COMDAT xdata
xdata	SEGMENT
$ip2state$??1WSInit@detail@httplib@@QEAA@XZ DB 02H
	DB	00H
	DB	00H
xdata	ENDS
;	COMDAT xdata
xdata	SEGMENT
$cppxdata$??1WSInit@detail@httplib@@QEAA@XZ DB 040H
	DD	imagerel $ip2state$??1WSInit@detail@httplib@@QEAA@XZ
xdata	ENDS
;	COMDAT xdata
xdata	SEGMENT
$unwind$??1WSInit@detail@httplib@@QEAA@XZ DD 010919H
	DD	04209H
	DD	imagerel __CxxFrameHandler4
	DD	imagerel $cppxdata$??1WSInit@detail@httplib@@QEAA@XZ
xdata	ENDS
;	COMDAT voltbl
voltbl	SEGMENT
_volmd	DB	016H
	DB	04fH
voltbl	ENDS
;	COMDAT xdata
xdata	SEGMENT
$unwind$??0WSInit@detail@httplib@@QEAA@XZ DD 021e19H
	DD	03b010cH
	DD	imagerel __GSHandlerCheck
	DD	01c0H
xdata	ENDS
;	COMDAT xdata
xdata	SEGMENT
$unwind$?_Adjust_manually_vector_aligned@std@@YAXAEAPEAXAEA_K@Z DD 010e01H
	DD	0820eH
xdata	ENDS
;	COMDAT xdata
xdata	SEGMENT
$unwind$??_H@YAXPEAX_K1P6APEAX0@Z@Z DD 011801H
	DD	06218H
xdata	ENDS
CRT$XCU	SEGMENT
?sslinit_$initializer$@detail@httplib@@3P6AXXZEA DQ FLAT:??__Esslinit_@detail@httplib@@YAXXZ ; httplib::detail::sslinit_$initializer$
CRT$XCU	ENDS
;	COMDAT CRT$XCU
CRT$XCU	SEGMENT
??id$initializer$@?$codecvt@DDU_Mbstatet@@@std@@2P6AXXZEA@@3P6AXXZEA DQ FLAT:??__E?id@?$codecvt@DDU_Mbstatet@@@std@@2V0locale@2@A@@YAXXZ ; ??id$initializer$@?$codecvt@DDU_Mbstatet@@@std@@2P6AXXZEA@@3P6AXXZEA
CRT$XCU	ENDS
;	COMDAT CRT$XCU
CRT$XCU	SEGMENT
??id$initializer$@?$num_put@DV?$ostreambuf_iterator@DU?$char_traits@D@std@@@std@@@std@@2P6AXXZEA@@3P6AXXZEA DQ FLAT:??__E?id@?$num_put@DV?$ostreambuf_iterator@DU?$char_traits@D@std@@@std@@@std@@2V0locale@2@A@@YAXXZ ; ??id$initializer$@?$num_put@DV?$ostreambuf_iterator@DU?$char_traits@D@std@@@std@@@std@@2P6AXXZEA@@3P6AXXZEA
CRT$XCU	ENDS
;	COMDAT CRT$XCU
CRT$XCU	SEGMENT
??id$initializer$@?$collate@D@std@@2P6AXXZEA@@3P6AXXZEA DQ FLAT:??__E?id@?$collate@D@std@@2V0locale@2@A@@YAXXZ ; ??id$initializer$@?$collate@D@std@@2P6AXXZEA@@3P6AXXZEA
CRT$XCU	ENDS
;	COMDAT CRT$XCU
CRT$XCU	SEGMENT
??id$initializer$@?$numpunct@D@std@@2P6AXXZEA@@3P6AXXZEA DQ FLAT:??__E?id@?$numpunct@D@std@@2V0locale@2@A@@YAXXZ ; ??id$initializer$@?$numpunct@D@std@@2P6AXXZEA@@3P6AXXZEA
CRT$XCU	ENDS
; Function compile flags: /Odtp
; File C:\Program Files\Microsoft Visual Studio\2022\Community\VC\Tools\MSVC\14.43.34808\include\xlocnum
;	COMDAT ??__E?id@?$numpunct@D@std@@2V0locale@2@A@@YAXXZ
text$di	SEGMENT
??__E?id@?$numpunct@D@std@@2V0locale@2@A@@YAXXZ PROC	; `dynamic initializer for 'std::numpunct<char>::id'', COMDAT

; 236  : __PURE_APPDOMAIN_GLOBAL locale::id numpunct<_Elem>::id;

	sub	rsp, 40					; 00000028H
	lea	rcx, OFFSET FLAT:?id@?$numpunct@D@std@@2V0locale@2@A ; std::numpunct<char>::id
	call	??$?0$0A@@id@locale@std@@QEAA@XZ	; std::locale::id::id<0>
	npad	1
	add	rsp, 40					; 00000028H
	ret	0
??__E?id@?$numpunct@D@std@@2V0locale@2@A@@YAXXZ ENDP	; `dynamic initializer for 'std::numpunct<char>::id''
text$di	ENDS
; Function compile flags: /Odtp
; File C:\Program Files\Microsoft Visual Studio\2022\Community\VC\Tools\MSVC\14.43.34808\include\locale
;	COMDAT ??__E?id@?$collate@D@std@@2V0locale@2@A@@YAXXZ
text$di	SEGMENT
??__E?id@?$collate@D@std@@2V0locale@2@A@@YAXXZ PROC	; `dynamic initializer for 'std::collate<char>::id'', COMDAT

; 124  : __PURE_APPDOMAIN_GLOBAL locale::id collate<_Elem>::id;

	sub	rsp, 40					; 00000028H
	lea	rcx, OFFSET FLAT:?id@?$collate@D@std@@2V0locale@2@A ; std::collate<char>::id
	call	??$?0$0A@@id@locale@std@@QEAA@XZ	; std::locale::id::id<0>
	npad	1
	add	rsp, 40					; 00000028H
	ret	0
??__E?id@?$collate@D@std@@2V0locale@2@A@@YAXXZ ENDP	; `dynamic initializer for 'std::collate<char>::id''
text$di	ENDS
; Function compile flags: /Odtp
; File C:\Program Files\Microsoft Visual Studio\2022\Community\VC\Tools\MSVC\14.43.34808\include\xlocnum
;	COMDAT ??__E?id@?$num_put@DV?$ostreambuf_iterator@DU?$char_traits@D@std@@@std@@@std@@2V0locale@2@A@@YAXXZ
text$di	SEGMENT
??__E?id@?$num_put@DV?$ostreambuf_iterator@DU?$char_traits@D@std@@@std@@@std@@2V0locale@2@A@@YAXXZ PROC ; `dynamic initializer for 'std::num_put<char,std::ostreambuf_iterator<char,std::char_traits<char> > >::id'', COMDAT

; 1646 : __PURE_APPDOMAIN_GLOBAL locale::id num_put<_Elem, _OutIt>::id;

	sub	rsp, 40					; 00000028H
	lea	rcx, OFFSET FLAT:?id@?$num_put@DV?$ostreambuf_iterator@DU?$char_traits@D@std@@@std@@@std@@2V0locale@2@A ; std::num_put<char,std::ostreambuf_iterator<char,std::char_traits<char> > >::id
	call	??$?0$0A@@id@locale@std@@QEAA@XZ	; std::locale::id::id<0>
	npad	1
	add	rsp, 40					; 00000028H
	ret	0
??__E?id@?$num_put@DV?$ostreambuf_iterator@DU?$char_traits@D@std@@@std@@@std@@2V0locale@2@A@@YAXXZ ENDP ; `dynamic initializer for 'std::num_put<char,std::ostreambuf_iterator<char,std::char_traits<char> > >::id''
text$di	ENDS
; Function compile flags: /Odtp
; File C:\Program Files\Microsoft Visual Studio\2022\Community\VC\Tools\MSVC\14.43.34808\include\xlocale
;	COMDAT ??__E?id@?$codecvt@DDU_Mbstatet@@@std@@2V0locale@2@A@@YAXXZ
text$di	SEGMENT
??__E?id@?$codecvt@DDU_Mbstatet@@@std@@2V0locale@2@A@@YAXXZ PROC ; `dynamic initializer for 'std::codecvt<char,char,_Mbstatet>::id'', COMDAT

; 809  : __PURE_APPDOMAIN_GLOBAL locale::id codecvt<_Elem, _Byte, _Statype>::id;

	sub	rsp, 40					; 00000028H
	lea	rcx, OFFSET FLAT:?id@?$codecvt@DDU_Mbstatet@@@std@@2V0locale@2@A ; std::codecvt<char,char,_Mbstatet>::id
	call	??$?0$0A@@id@locale@std@@QEAA@XZ	; std::locale::id::id<0>
	npad	1
	add	rsp, 40					; 00000028H
	ret	0
??__E?id@?$codecvt@DDU_Mbstatet@@@std@@2V0locale@2@A@@YAXXZ ENDP ; `dynamic initializer for 'std::codecvt<char,char,_Mbstatet>::id''
text$di	ENDS
; Function compile flags: /Odtp
; File C:\Program Files\Microsoft Visual Studio\2022\Community\VC\Tools\MSVC\14.43.34808\include\xlocale
;	COMDAT ??$?0$0A@@id@locale@std@@QEAA@XZ
_TEXT	SEGMENT
this$ = 8
??$?0$0A@@id@locale@std@@QEAA@XZ PROC			; std::locale::id::id<0>, COMDAT

; 81   :         id() noexcept /* strengthened */ {}

	mov	QWORD PTR [rsp+8], rcx

; 82   : #endif // ^^^ !defined(_CRTBLD) ^^^
; 83   : 
; 84   :         id(const id&)            = delete;
; 85   :         id& operator=(const id&) = delete;
; 86   : 
; 87   :         template <int = 0> // TRANSITION, ABI
; 88   :         size_t _Get_index() { // get stamp, with lazy allocation
; 89   :             if (_Id == 0) { // still zero, allocate stamp
; 90   :                 _BEGIN_LOCK(_LOCK_LOCALE)
; 91   :                 if (_Id == 0) {
; 92   :                     _Id = static_cast<size_t>(++_Id_cnt);
; 93   :                 }
; 94   :                 _END_LOCK()
; 95   :             }
; 96   :             return _Id;
; 97   :         }
; 98   : 
; 99   : #ifdef _CRTBLD // TRANSITION, ABI: preserved for binary compatibility
; 100  :         __CLR_OR_THIS_CALL operator size_t() {
; 101  :             return _Get_index();
; 102  :         }
; 103  : #endif // defined(_CRTBLD)
; 104  : 
; 105  :     private:
; 106  :         size_t _Id = 0; // the identifier stamp

	mov	rax, QWORD PTR this$[rsp]
	mov	QWORD PTR [rax], 0

; 81   :         id() noexcept /* strengthened */ {}

	mov	rax, QWORD PTR this$[rsp]
	ret	0
??$?0$0A@@id@locale@std@@QEAA@XZ ENDP			; std::locale::id::id<0>
_TEXT	ENDS
; Function compile flags: /Odtp
; File C:\Program Files\Microsoft Visual Studio\2022\Community\VC\Tools\MSVC\14.43.34808\include\xmemory
;	COMDAT ??$destroy@V?$unique_ptr@VIAsmHelper@IronMan@@U?$default_delete@VIAsmHelper@IronMan@@@std@@@std@@@?$_Default_allocator_traits@V?$allocator@V?$unique_ptr@VIAsmHelper@IronMan@@U?$default_delete@VIAsmHelper@IronMan@@@std@@@std@@@std@@@std@@SAXAEAV?$allocator@V?$unique_ptr@VIAsmHelper@IronMan@@U?$default_delete@VIAsmHelper@IronMan@@@std@@@std@@@1@QEAV?$unique_ptr@VIAsmHelper@IronMan@@U?$default_delete@VIAsmHelper@IronMan@@@std@@@1@@Z
_TEXT	SEGMENT
__formal$ = 48
_Ptr$ = 56
??$destroy@V?$unique_ptr@VIAsmHelper@IronMan@@U?$default_delete@VIAsmHelper@IronMan@@@std@@@std@@@?$_Default_allocator_traits@V?$allocator@V?$unique_ptr@VIAsmHelper@IronMan@@U?$default_delete@VIAsmHelper@IronMan@@@std@@@std@@@std@@@std@@SAXAEAV?$allocator@V?$unique_ptr@VIAsmHelper@IronMan@@U?$default_delete@VIAsmHelper@IronMan@@@std@@@std@@@1@QEAV?$unique_ptr@VIAsmHelper@IronMan@@U?$default_delete@VIAsmHelper@IronMan@@@std@@@1@@Z PROC ; std::_Default_allocator_traits<std::allocator<std::unique_ptr<IronMan::IAsmHelper,std::default_delete<IronMan::IAsmHelper> > > >::destroy<std::unique_ptr<IronMan::IAsmHelper,std::default_delete<IronMan::IAsmHelper> > >, COMDAT

; 737  :     static _CONSTEXPR20 void destroy(_Alloc&, _Uty* const _Ptr) {

$LN3:
	mov	QWORD PTR [rsp+16], rdx
	mov	QWORD PTR [rsp+8], rcx
	sub	rsp, 40					; 00000028H

; 738  : #if _HAS_CXX20
; 739  :         _STD destroy_at(_Ptr);
; 740  : #else // ^^^ _HAS_CXX20 / !_HAS_CXX20 vvv
; 741  :         _Ptr->~_Uty();

	xor	edx, edx
	mov	rcx, QWORD PTR _Ptr$[rsp]
	call	??_G?$unique_ptr@VIAsmHelper@IronMan@@U?$default_delete@VIAsmHelper@IronMan@@@std@@@std@@QEAAPEAXI@Z
	npad	1

; 742  : #endif // ^^^ !_HAS_CXX20 ^^^
; 743  :     }

	add	rsp, 40					; 00000028H
	ret	0
??$destroy@V?$unique_ptr@VIAsmHelper@IronMan@@U?$default_delete@VIAsmHelper@IronMan@@@std@@@std@@@?$_Default_allocator_traits@V?$allocator@V?$unique_ptr@VIAsmHelper@IronMan@@U?$default_delete@VIAsmHelper@IronMan@@@std@@@std@@@std@@@std@@SAXAEAV?$allocator@V?$unique_ptr@VIAsmHelper@IronMan@@U?$default_delete@VIAsmHelper@IronMan@@@std@@@std@@@1@QEAV?$unique_ptr@VIAsmHelper@IronMan@@U?$default_delete@VIAsmHelper@IronMan@@@std@@@1@@Z ENDP ; std::_Default_allocator_traits<std::allocator<std::unique_ptr<IronMan::IAsmHelper,std::default_delete<IronMan::IAsmHelper> > > >::destroy<std::unique_ptr<IronMan::IAsmHelper,std::default_delete<IronMan::IAsmHelper> > >
_TEXT	ENDS
; Function compile flags: /Odtp
; File C:\Program Files\Microsoft Visual Studio\2022\Community\VC\Tools\MSVC\14.43.34808\include\xmemory
;	COMDAT ??$_Unfancy@V?$unique_ptr@VIAsmHelper@IronMan@@U?$default_delete@VIAsmHelper@IronMan@@@std@@@std@@@std@@YAPEAV?$unique_ptr@VIAsmHelper@IronMan@@U?$default_delete@VIAsmHelper@IronMan@@@std@@@0@PEAV10@@Z
_TEXT	SEGMENT
_Ptr$ = 8
??$_Unfancy@V?$unique_ptr@VIAsmHelper@IronMan@@U?$default_delete@VIAsmHelper@IronMan@@@std@@@std@@@std@@YAPEAV?$unique_ptr@VIAsmHelper@IronMan@@U?$default_delete@VIAsmHelper@IronMan@@@std@@@0@PEAV10@@Z PROC ; std::_Unfancy<std::unique_ptr<IronMan::IAsmHelper,std::default_delete<IronMan::IAsmHelper> > >, COMDAT

; 68   : _NODISCARD constexpr _Ty* _Unfancy(_Ty* _Ptr) noexcept { // do nothing for plain pointers

	mov	QWORD PTR [rsp+8], rcx

; 69   :     return _Ptr;

	mov	rax, QWORD PTR _Ptr$[rsp]

; 70   : }

	ret	0
??$_Unfancy@V?$unique_ptr@VIAsmHelper@IronMan@@U?$default_delete@VIAsmHelper@IronMan@@@std@@@std@@@std@@YAPEAV?$unique_ptr@VIAsmHelper@IronMan@@U?$default_delete@VIAsmHelper@IronMan@@@std@@@0@PEAV10@@Z ENDP ; std::_Unfancy<std::unique_ptr<IronMan::IAsmHelper,std::default_delete<IronMan::IAsmHelper> > >
_TEXT	ENDS
; Function compile flags: /Odtp
; File C:\Program Files\Microsoft Visual Studio\2022\Community\VC\Tools\MSVC\14.43.34808\include\xmemory
;	COMDAT ??$_Deallocate@$0BA@@std@@YAXPEAX_K@Z
_TEXT	SEGMENT
_Ptr$ = 48
_Bytes$ = 56
??$_Deallocate@$0BA@@std@@YAXPEAX_K@Z PROC		; std::_Deallocate<16>, COMDAT

; 261  : _CONSTEXPR20 void _Deallocate(void* _Ptr, size_t _Bytes) noexcept {

$LN4:
	mov	QWORD PTR [rsp+16], rdx
	mov	QWORD PTR [rsp+8], rcx
	sub	rsp, 40					; 00000028H

; 262  :     // deallocate storage allocated by _Allocate
; 263  : #if _HAS_CXX20 // TRANSITION, GH-1532
; 264  :     if (_STD is_constant_evaluated()) {
; 265  :         ::operator delete(_Ptr);
; 266  :         return;
; 267  :     }
; 268  : #endif // _HAS_CXX20
; 269  : 
; 270  : #ifdef __cpp_aligned_new
; 271  :     if constexpr (_Align > __STDCPP_DEFAULT_NEW_ALIGNMENT__) {
; 272  :         size_t _Passed_align = _Align;
; 273  : #if defined(_M_IX86) || defined(_M_X64)
; 274  :         if (_Bytes >= _Big_allocation_threshold) {
; 275  :             // boost the alignment of big allocations to help autovectorization
; 276  :             _Passed_align = (_STD max)(_Align, _Big_allocation_alignment);
; 277  :         }
; 278  : #endif // defined(_M_IX86) || defined(_M_X64)
; 279  :         ::operator delete(_Ptr, _Bytes, align_val_t{_Passed_align});
; 280  :     } else
; 281  : #endif // defined(__cpp_aligned_new)
; 282  :     {
; 283  : #if defined(_M_IX86) || defined(_M_X64)
; 284  :         if (_Bytes >= _Big_allocation_threshold) {

	cmp	QWORD PTR _Bytes$[rsp], 4096		; 00001000H
	jb	SHORT $LN2@Deallocate

; 285  :             // boost the alignment of big allocations to help autovectorization
; 286  :             _Adjust_manually_vector_aligned(_Ptr, _Bytes);

	lea	rdx, QWORD PTR _Bytes$[rsp]
	lea	rcx, QWORD PTR _Ptr$[rsp]
	call	?_Adjust_manually_vector_aligned@std@@YAXAEAPEAXAEA_K@Z ; std::_Adjust_manually_vector_aligned
	npad	1
$LN2@Deallocate:

; 287  :         }
; 288  : #endif // defined(_M_IX86) || defined(_M_X64)
; 289  :         ::operator delete(_Ptr, _Bytes);

	mov	rdx, QWORD PTR _Bytes$[rsp]
	mov	rcx, QWORD PTR _Ptr$[rsp]
	call	??3@YAXPEAX_K@Z				; operator delete
	npad	1

; 290  :     }
; 291  : }

	add	rsp, 40					; 00000028H
	ret	0
??$_Deallocate@$0BA@@std@@YAXPEAX_K@Z ENDP		; std::_Deallocate<16>
_TEXT	ENDS
; Function compile flags: /Odtp
; File C:\Program Files\Microsoft Visual Studio\2022\Community\VC\Tools\MSVC\14.43.34808\include\xmemory
;	COMDAT ??$_Destroy_range@V?$allocator@V?$unique_ptr@VIAsmHelper@IronMan@@U?$default_delete@VIAsmHelper@IronMan@@@std@@@std@@@std@@@std@@YAXPEAV?$unique_ptr@VIAsmHelper@IronMan@@U?$default_delete@VIAsmHelper@IronMan@@@std@@@0@QEAV10@AEAV?$allocator@V?$unique_ptr@VIAsmHelper@IronMan@@U?$default_delete@VIAsmHelper@IronMan@@@std@@@std@@@0@@Z
_TEXT	SEGMENT
_First$ = 48
_Last$ = 56
_Al$ = 64
??$_Destroy_range@V?$allocator@V?$unique_ptr@VIAsmHelper@IronMan@@U?$default_delete@VIAsmHelper@IronMan@@@std@@@std@@@std@@@std@@YAXPEAV?$unique_ptr@VIAsmHelper@IronMan@@U?$default_delete@VIAsmHelper@IronMan@@@std@@@0@QEAV10@AEAV?$allocator@V?$unique_ptr@VIAsmHelper@IronMan@@U?$default_delete@VIAsmHelper@IronMan@@@std@@@std@@@0@@Z PROC ; std::_Destroy_range<std::allocator<std::unique_ptr<IronMan::IAsmHelper,std::default_delete<IronMan::IAsmHelper> > > >, COMDAT

; 1094 : _CONSTEXPR20 void _Destroy_range(_Alloc_ptr_t<_Alloc> _First, const _Alloc_ptr_t<_Alloc> _Last, _Alloc& _Al) noexcept {

$LN6:
	mov	QWORD PTR [rsp+24], r8
	mov	QWORD PTR [rsp+16], rdx
	mov	QWORD PTR [rsp+8], rcx
	sub	rsp, 40					; 00000028H

; 1095 :     // note that this is an optimization for debug mode codegen; in release mode the BE removes all of this
; 1096 :     using _Ty = typename _Alloc::value_type;
; 1097 :     if constexpr (!conjunction_v<is_trivially_destructible<_Ty>, _Uses_default_destroy<_Alloc, _Ty*>>) {
; 1098 :         for (; _First != _Last; ++_First) {

	jmp	SHORT $LN4@Destroy_ra
$LN2@Destroy_ra:
	mov	rax, QWORD PTR _First$[rsp]
	add	rax, 8
	mov	QWORD PTR _First$[rsp], rax
$LN4@Destroy_ra:
	mov	rax, QWORD PTR _Last$[rsp]
	cmp	QWORD PTR _First$[rsp], rax
	je	SHORT $LN3@Destroy_ra

; 1099 :             allocator_traits<_Alloc>::destroy(_Al, _STD _Unfancy(_First));

	mov	rcx, QWORD PTR _First$[rsp]
	call	??$_Unfancy@V?$unique_ptr@VIAsmHelper@IronMan@@U?$default_delete@VIAsmHelper@IronMan@@@std@@@std@@@std@@YAPEAV?$unique_ptr@VIAsmHelper@IronMan@@U?$default_delete@VIAsmHelper@IronMan@@@std@@@0@PEAV10@@Z ; std::_Unfancy<std::unique_ptr<IronMan::IAsmHelper,std::default_delete<IronMan::IAsmHelper> > >
	mov	rdx, rax
	mov	rcx, QWORD PTR _Al$[rsp]
	call	??$destroy@V?$unique_ptr@VIAsmHelper@IronMan@@U?$default_delete@VIAsmHelper@IronMan@@@std@@@std@@@?$_Default_allocator_traits@V?$allocator@V?$unique_ptr@VIAsmHelper@IronMan@@U?$default_delete@VIAsmHelper@IronMan@@@std@@@std@@@std@@@std@@SAXAEAV?$allocator@V?$unique_ptr@VIAsmHelper@IronMan@@U?$default_delete@VIAsmHelper@IronMan@@@std@@@std@@@1@QEAV?$unique_ptr@VIAsmHelper@IronMan@@U?$default_delete@VIAsmHelper@IronMan@@@std@@@1@@Z ; std::_Default_allocator_traits<std::allocator<std::unique_ptr<IronMan::IAsmHelper,std::default_delete<IronMan::IAsmHelper> > > >::destroy<std::unique_ptr<IronMan::IAsmHelper,std::default_delete<IronMan::IAsmHelper> > >
	npad	1

; 1100 :         }

	jmp	SHORT $LN2@Destroy_ra
$LN3@Destroy_ra:

; 1101 :     }
; 1102 : }

	add	rsp, 40					; 00000028H
	ret	0
??$_Destroy_range@V?$allocator@V?$unique_ptr@VIAsmHelper@IronMan@@U?$default_delete@VIAsmHelper@IronMan@@@std@@@std@@@std@@@std@@YAXPEAV?$unique_ptr@VIAsmHelper@IronMan@@U?$default_delete@VIAsmHelper@IronMan@@@std@@@0@QEAV10@AEAV?$allocator@V?$unique_ptr@VIAsmHelper@IronMan@@U?$default_delete@VIAsmHelper@IronMan@@@std@@@std@@@0@@Z ENDP ; std::_Destroy_range<std::allocator<std::unique_ptr<IronMan::IAsmHelper,std::default_delete<IronMan::IAsmHelper> > > >
_TEXT	ENDS
; Function compile flags: /Odtp
; File C:\Program Files\Microsoft Visual Studio\2022\Community\VC\Tools\MSVC\14.43.34808\include\xmemory
;	COMDAT ??$?0$$V@?$_Compressed_pair@V?$allocator@V?$unique_ptr@VIAsmHelper@IronMan@@U?$default_delete@VIAsmHelper@IronMan@@@std@@@std@@@std@@V?$_Vector_val@U?$_Simple_types@V?$unique_ptr@VIAsmHelper@IronMan@@U?$default_delete@VIAsmHelper@IronMan@@@std@@@std@@@std@@@2@$00@std@@QEAA@U_Zero_then_variadic_args_t@1@@Z
_TEXT	SEGMENT
this$ = 48
__formal$ = 56
??$?0$$V@?$_Compressed_pair@V?$allocator@V?$unique_ptr@VIAsmHelper@IronMan@@U?$default_delete@VIAsmHelper@IronMan@@@std@@@std@@@std@@V?$_Vector_val@U?$_Simple_types@V?$unique_ptr@VIAsmHelper@IronMan@@U?$default_delete@VIAsmHelper@IronMan@@@std@@@std@@@std@@@2@$00@std@@QEAA@U_Zero_then_variadic_args_t@1@@Z PROC ; std::_Compressed_pair<std::allocator<std::unique_ptr<IronMan::IAsmHelper,std::default_delete<IronMan::IAsmHelper> > >,std::_Vector_val<std::_Simple_types<std::unique_ptr<IronMan::IAsmHelper,std::default_delete<IronMan::IAsmHelper> > > >,1>::_Compressed_pair<std::allocator<std::unique_ptr<IronMan::IAsmHelper,std::default_delete<IronMan::IAsmHelper> > >,std::_Vector_val<std::_Simple_types<std::unique_ptr<IronMan::IAsmHelper,std::default_delete<IronMan::IAsmHelper> > > >,1><>, COMDAT

; 1527 :         : _Ty1(), _Myval2(_STD forward<_Other2>(_Val2)...) {}

$LN3:
	mov	BYTE PTR [rsp+16], dl
	mov	QWORD PTR [rsp+8], rcx
	sub	rsp, 40					; 00000028H
	mov	rcx, QWORD PTR this$[rsp]
	call	??0?$allocator@V?$unique_ptr@VIAsmHelper@IronMan@@U?$default_delete@VIAsmHelper@IronMan@@@std@@@std@@@std@@QEAA@XZ ; std::allocator<std::unique_ptr<IronMan::IAsmHelper,std::default_delete<IronMan::IAsmHelper> > >::allocator<std::unique_ptr<IronMan::IAsmHelper,std::default_delete<IronMan::IAsmHelper> > >
	mov	rax, QWORD PTR this$[rsp]
	mov	rcx, rax
	call	??0?$_Vector_val@U?$_Simple_types@V?$unique_ptr@VIAsmHelper@IronMan@@U?$default_delete@VIAsmHelper@IronMan@@@std@@@std@@@std@@@std@@QEAA@XZ ; std::_Vector_val<std::_Simple_types<std::unique_ptr<IronMan::IAsmHelper,std::default_delete<IronMan::IAsmHelper> > > >::_Vector_val<std::_Simple_types<std::unique_ptr<IronMan::IAsmHelper,std::default_delete<IronMan::IAsmHelper> > > >
	npad	1
	mov	rax, QWORD PTR this$[rsp]
	add	rsp, 40					; 00000028H
	ret	0
??$?0$$V@?$_Compressed_pair@V?$allocator@V?$unique_ptr@VIAsmHelper@IronMan@@U?$default_delete@VIAsmHelper@IronMan@@@std@@@std@@@std@@V?$_Vector_val@U?$_Simple_types@V?$unique_ptr@VIAsmHelper@IronMan@@U?$default_delete@VIAsmHelper@IronMan@@@std@@@std@@@std@@@2@$00@std@@QEAA@U_Zero_then_variadic_args_t@1@@Z ENDP ; std::_Compressed_pair<std::allocator<std::unique_ptr<IronMan::IAsmHelper,std::default_delete<IronMan::IAsmHelper> > >,std::_Vector_val<std::_Simple_types<std::unique_ptr<IronMan::IAsmHelper,std::default_delete<IronMan::IAsmHelper> > > >,1>::_Compressed_pair<std::allocator<std::unique_ptr<IronMan::IAsmHelper,std::default_delete<IronMan::IAsmHelper> > >,std::_Vector_val<std::_Simple_types<std::unique_ptr<IronMan::IAsmHelper,std::default_delete<IronMan::IAsmHelper> > > >,1><>
_TEXT	ENDS
; Function compile flags: /Odtp
;	COMDAT ??_GAnalysisBase@Analysis@IronMan@@UEAAPEAXI@Z
_TEXT	SEGMENT
this$ = 48
__flags$ = 56
??_GAnalysisBase@Analysis@IronMan@@UEAAPEAXI@Z PROC	; IronMan::Analysis::AnalysisBase::`scalar deleting destructor', COMDAT
$LN4:
	mov	DWORD PTR [rsp+16], edx
	mov	QWORD PTR [rsp+8], rcx
	sub	rsp, 40					; 00000028H
	mov	rcx, QWORD PTR this$[rsp]
	call	??1AnalysisBase@Analysis@IronMan@@UEAA@XZ ; IronMan::Analysis::AnalysisBase::~AnalysisBase
	mov	eax, DWORD PTR __flags$[rsp]
	and	eax, 1
	test	eax, eax
	je	SHORT $LN2@scalar
	mov	edx, 1800				; 00000708H
	mov	rcx, QWORD PTR this$[rsp]
	call	??3@YAXPEAX_K@Z				; operator delete
	npad	1
$LN2@scalar:
	mov	rax, QWORD PTR this$[rsp]
	add	rsp, 40					; 00000028H
	ret	0
??_GAnalysisBase@Analysis@IronMan@@UEAAPEAXI@Z ENDP	; IronMan::Analysis::AnalysisBase::`scalar deleting destructor'
_TEXT	ENDS
; Function compile flags: /Odtp
; File C:\Program Files\Microsoft Visual Studio\2022\Community\VC\Tools\MSVC\14.43.34808\include\xmemory
;	COMDAT ?_Get_first@?$_Compressed_pair@V?$allocator@V?$unique_ptr@VIAsmHelper@IronMan@@U?$default_delete@VIAsmHelper@IronMan@@@std@@@std@@@std@@V?$_Vector_val@U?$_Simple_types@V?$unique_ptr@VIAsmHelper@IronMan@@U?$default_delete@VIAsmHelper@IronMan@@@std@@@std@@@std@@@2@$00@std@@QEAAAEAV?$allocator@V?$unique_ptr@VIAsmHelper@IronMan@@U?$default_delete@VIAsmHelper@IronMan@@@std@@@std@@@2@XZ
_TEXT	SEGMENT
this$ = 8
?_Get_first@?$_Compressed_pair@V?$allocator@V?$unique_ptr@VIAsmHelper@IronMan@@U?$default_delete@VIAsmHelper@IronMan@@@std@@@std@@@std@@V?$_Vector_val@U?$_Simple_types@V?$unique_ptr@VIAsmHelper@IronMan@@U?$default_delete@VIAsmHelper@IronMan@@@std@@@std@@@std@@@2@$00@std@@QEAAAEAV?$allocator@V?$unique_ptr@VIAsmHelper@IronMan@@U?$default_delete@VIAsmHelper@IronMan@@@std@@@std@@@2@XZ PROC ; std::_Compressed_pair<std::allocator<std::unique_ptr<IronMan::IAsmHelper,std::default_delete<IronMan::IAsmHelper> > >,std::_Vector_val<std::_Simple_types<std::unique_ptr<IronMan::IAsmHelper,std::default_delete<IronMan::IAsmHelper> > > >,1>::_Get_first, COMDAT

; 1534 :     constexpr _Ty1& _Get_first() noexcept {

	mov	QWORD PTR [rsp+8], rcx

; 1535 :         return *this;

	mov	rax, QWORD PTR this$[rsp]

; 1536 :     }

	ret	0
?_Get_first@?$_Compressed_pair@V?$allocator@V?$unique_ptr@VIAsmHelper@IronMan@@U?$default_delete@VIAsmHelper@IronMan@@@std@@@std@@@std@@V?$_Vector_val@U?$_Simple_types@V?$unique_ptr@VIAsmHelper@IronMan@@U?$default_delete@VIAsmHelper@IronMan@@@std@@@std@@@std@@@2@$00@std@@QEAAAEAV?$allocator@V?$unique_ptr@VIAsmHelper@IronMan@@U?$default_delete@VIAsmHelper@IronMan@@@std@@@std@@@2@XZ ENDP ; std::_Compressed_pair<std::allocator<std::unique_ptr<IronMan::IAsmHelper,std::default_delete<IronMan::IAsmHelper> > >,std::_Vector_val<std::_Simple_types<std::unique_ptr<IronMan::IAsmHelper,std::default_delete<IronMan::IAsmHelper> > > >,1>::_Get_first
_TEXT	ENDS
; Function compile flags: /Odtp
; File C:\Program Files\Microsoft Visual Studio\2022\Community\VC\Tools\MSVC\14.43.34808\include\vector
;	COMDAT ??0?$_Vector_val@U?$_Simple_types@V?$unique_ptr@VIAsmHelper@IronMan@@U?$default_delete@VIAsmHelper@IronMan@@@std@@@std@@@std@@@std@@QEAA@XZ
_TEXT	SEGMENT
this$ = 8
??0?$_Vector_val@U?$_Simple_types@V?$unique_ptr@VIAsmHelper@IronMan@@U?$default_delete@VIAsmHelper@IronMan@@@std@@@std@@@std@@@std@@QEAA@XZ PROC ; std::_Vector_val<std::_Simple_types<std::unique_ptr<IronMan::IAsmHelper,std::default_delete<IronMan::IAsmHelper> > > >::_Vector_val<std::_Simple_types<std::unique_ptr<IronMan::IAsmHelper,std::default_delete<IronMan::IAsmHelper> > > >, COMDAT

; 400  :     _CONSTEXPR20 _Vector_val() noexcept : _Myfirst(), _Mylast(), _Myend() {}

	mov	QWORD PTR [rsp+8], rcx
	mov	rax, QWORD PTR this$[rsp]
	mov	QWORD PTR [rax], 0
	mov	rax, QWORD PTR this$[rsp]
	mov	QWORD PTR [rax+8], 0
	mov	rax, QWORD PTR this$[rsp]
	mov	QWORD PTR [rax+16], 0
	mov	rax, QWORD PTR this$[rsp]
	ret	0
??0?$_Vector_val@U?$_Simple_types@V?$unique_ptr@VIAsmHelper@IronMan@@U?$default_delete@VIAsmHelper@IronMan@@@std@@@std@@@std@@@std@@QEAA@XZ ENDP ; std::_Vector_val<std::_Simple_types<std::unique_ptr<IronMan::IAsmHelper,std::default_delete<IronMan::IAsmHelper> > > >::_Vector_val<std::_Simple_types<std::unique_ptr<IronMan::IAsmHelper,std::default_delete<IronMan::IAsmHelper> > > >
_TEXT	ENDS
; Function compile flags: /Odtp
; File C:\Program Files\Microsoft Visual Studio\2022\Community\VC\Tools\MSVC\14.43.34808\include\vector
;	COMDAT ?_Getal@?$vector@V?$unique_ptr@VIAsmHelper@IronMan@@U?$default_delete@VIAsmHelper@IronMan@@@std@@@std@@V?$allocator@V?$unique_ptr@VIAsmHelper@IronMan@@U?$default_delete@VIAsmHelper@IronMan@@@std@@@std@@@2@@std@@AEAAAEAV?$allocator@V?$unique_ptr@VIAsmHelper@IronMan@@U?$default_delete@VIAsmHelper@IronMan@@@std@@@std@@@2@XZ
_TEXT	SEGMENT
this$ = 48
?_Getal@?$vector@V?$unique_ptr@VIAsmHelper@IronMan@@U?$default_delete@VIAsmHelper@IronMan@@@std@@@std@@V?$allocator@V?$unique_ptr@VIAsmHelper@IronMan@@U?$default_delete@VIAsmHelper@IronMan@@@std@@@std@@@2@@std@@AEAAAEAV?$allocator@V?$unique_ptr@VIAsmHelper@IronMan@@U?$default_delete@VIAsmHelper@IronMan@@@std@@@std@@@2@XZ PROC ; std::vector<std::unique_ptr<IronMan::IAsmHelper,std::default_delete<IronMan::IAsmHelper> >,std::allocator<std::unique_ptr<IronMan::IAsmHelper,std::default_delete<IronMan::IAsmHelper> > > >::_Getal, COMDAT

; 2211 :     _NODISCARD _CONSTEXPR20 _Alty& _Getal() noexcept {

$LN3:
	mov	QWORD PTR [rsp+8], rcx
	sub	rsp, 40					; 00000028H

; 2212 :         return _Mypair._Get_first();

	mov	rax, QWORD PTR this$[rsp]
	mov	rcx, rax
	call	?_Get_first@?$_Compressed_pair@V?$allocator@V?$unique_ptr@VIAsmHelper@IronMan@@U?$default_delete@VIAsmHelper@IronMan@@@std@@@std@@@std@@V?$_Vector_val@U?$_Simple_types@V?$unique_ptr@VIAsmHelper@IronMan@@U?$default_delete@VIAsmHelper@IronMan@@@std@@@std@@@std@@@2@$00@std@@QEAAAEAV?$allocator@V?$unique_ptr@VIAsmHelper@IronMan@@U?$default_delete@VIAsmHelper@IronMan@@@std@@@std@@@2@XZ ; std::_Compressed_pair<std::allocator<std::unique_ptr<IronMan::IAsmHelper,std::default_delete<IronMan::IAsmHelper> > >,std::_Vector_val<std::_Simple_types<std::unique_ptr<IronMan::IAsmHelper,std::default_delete<IronMan::IAsmHelper> > > >,1>::_Get_first

; 2213 :     }

	add	rsp, 40					; 00000028H
	ret	0
?_Getal@?$vector@V?$unique_ptr@VIAsmHelper@IronMan@@U?$default_delete@VIAsmHelper@IronMan@@@std@@@std@@V?$allocator@V?$unique_ptr@VIAsmHelper@IronMan@@U?$default_delete@VIAsmHelper@IronMan@@@std@@@std@@@2@@std@@AEAAAEAV?$allocator@V?$unique_ptr@VIAsmHelper@IronMan@@U?$default_delete@VIAsmHelper@IronMan@@@std@@@std@@@2@XZ ENDP ; std::vector<std::unique_ptr<IronMan::IAsmHelper,std::default_delete<IronMan::IAsmHelper> >,std::allocator<std::unique_ptr<IronMan::IAsmHelper,std::default_delete<IronMan::IAsmHelper> > > >::_Getal
_TEXT	ENDS
; Function compile flags: /Odtp
; File C:\Program Files\Microsoft Visual Studio\2022\Community\VC\Tools\MSVC\14.43.34808\include\vector
;	COMDAT ?_Tidy@?$vector@V?$unique_ptr@VIAsmHelper@IronMan@@U?$default_delete@VIAsmHelper@IronMan@@@std@@@std@@V?$allocator@V?$unique_ptr@VIAsmHelper@IronMan@@U?$default_delete@VIAsmHelper@IronMan@@@std@@@std@@@2@@std@@AEAAXXZ
_TEXT	SEGMENT
_Myfirst$ = 32
_My_data$ = 40
_Al$ = 48
_Mylast$ = 56
_Myend$ = 64
this$ = 96
?_Tidy@?$vector@V?$unique_ptr@VIAsmHelper@IronMan@@U?$default_delete@VIAsmHelper@IronMan@@@std@@@std@@V?$allocator@V?$unique_ptr@VIAsmHelper@IronMan@@U?$default_delete@VIAsmHelper@IronMan@@@std@@@std@@@2@@std@@AEAAXXZ PROC ; std::vector<std::unique_ptr<IronMan::IAsmHelper,std::default_delete<IronMan::IAsmHelper> >,std::allocator<std::unique_ptr<IronMan::IAsmHelper,std::default_delete<IronMan::IAsmHelper> > > >::_Tidy, COMDAT

; 2066 :     _CONSTEXPR20 void _Tidy() noexcept { // free all storage

$LN4:
	mov	QWORD PTR [rsp+8], rcx
	sub	rsp, 88					; 00000058H

; 2067 :         auto& _Al         = _Getal();

	mov	rcx, QWORD PTR this$[rsp]
	call	?_Getal@?$vector@V?$unique_ptr@VIAsmHelper@IronMan@@U?$default_delete@VIAsmHelper@IronMan@@@std@@@std@@V?$allocator@V?$unique_ptr@VIAsmHelper@IronMan@@U?$default_delete@VIAsmHelper@IronMan@@@std@@@std@@@2@@std@@AEAAAEAV?$allocator@V?$unique_ptr@VIAsmHelper@IronMan@@U?$default_delete@VIAsmHelper@IronMan@@@std@@@std@@@2@XZ ; std::vector<std::unique_ptr<IronMan::IAsmHelper,std::default_delete<IronMan::IAsmHelper> >,std::allocator<std::unique_ptr<IronMan::IAsmHelper,std::default_delete<IronMan::IAsmHelper> > > >::_Getal
	mov	QWORD PTR _Al$[rsp], rax

; 2068 :         auto& _My_data    = _Mypair._Myval2;

	mov	rax, QWORD PTR this$[rsp]
	mov	QWORD PTR _My_data$[rsp], rax

; 2069 :         pointer& _Myfirst = _My_data._Myfirst;

	mov	rax, QWORD PTR _My_data$[rsp]
	mov	QWORD PTR _Myfirst$[rsp], rax

; 2070 :         pointer& _Mylast  = _My_data._Mylast;

	mov	rax, QWORD PTR _My_data$[rsp]
	add	rax, 8
	mov	QWORD PTR _Mylast$[rsp], rax

; 2071 :         pointer& _Myend   = _My_data._Myend;

	mov	rax, QWORD PTR _My_data$[rsp]
	add	rax, 16
	mov	QWORD PTR _Myend$[rsp], rax

; 2072 : 
; 2073 :         _My_data._Orphan_all();

	mov	rcx, QWORD PTR _My_data$[rsp]
	call	?_Orphan_all@_Container_base0@std@@QEAAXXZ ; std::_Container_base0::_Orphan_all
	npad	1

; 2074 : 
; 2075 :         if (_Myfirst) { // destroy and deallocate old array

	mov	rax, QWORD PTR _Myfirst$[rsp]
	cmp	QWORD PTR [rax], 0
	je	SHORT $LN2@Tidy

; 2076 :             _STD _Destroy_range(_Myfirst, _Mylast, _Al);

	mov	r8, QWORD PTR _Al$[rsp]
	mov	rax, QWORD PTR _Mylast$[rsp]
	mov	rdx, QWORD PTR [rax]
	mov	rax, QWORD PTR _Myfirst$[rsp]
	mov	rcx, QWORD PTR [rax]
	call	??$_Destroy_range@V?$allocator@V?$unique_ptr@VIAsmHelper@IronMan@@U?$default_delete@VIAsmHelper@IronMan@@@std@@@std@@@std@@@std@@YAXPEAV?$unique_ptr@VIAsmHelper@IronMan@@U?$default_delete@VIAsmHelper@IronMan@@@std@@@0@QEAV10@AEAV?$allocator@V?$unique_ptr@VIAsmHelper@IronMan@@U?$default_delete@VIAsmHelper@IronMan@@@std@@@std@@@0@@Z ; std::_Destroy_range<std::allocator<std::unique_ptr<IronMan::IAsmHelper,std::default_delete<IronMan::IAsmHelper> > > >

; 2077 :             _ASAN_VECTOR_REMOVE;
; 2078 :             _Al.deallocate(_Myfirst, static_cast<size_type>(_Myend - _Myfirst));

	mov	rax, QWORD PTR _Myend$[rsp]
	mov	rcx, QWORD PTR _Myfirst$[rsp]
	mov	rcx, QWORD PTR [rcx]
	mov	rax, QWORD PTR [rax]
	sub	rax, rcx
	sar	rax, 3
	mov	r8, rax
	mov	rax, QWORD PTR _Myfirst$[rsp]
	mov	rdx, QWORD PTR [rax]
	mov	rcx, QWORD PTR _Al$[rsp]
	call	?deallocate@?$allocator@V?$unique_ptr@VIAsmHelper@IronMan@@U?$default_delete@VIAsmHelper@IronMan@@@std@@@std@@@std@@QEAAXQEAV?$unique_ptr@VIAsmHelper@IronMan@@U?$default_delete@VIAsmHelper@IronMan@@@std@@@2@_K@Z ; std::allocator<std::unique_ptr<IronMan::IAsmHelper,std::default_delete<IronMan::IAsmHelper> > >::deallocate

; 2079 : 
; 2080 :             _Myfirst = nullptr;

	mov	rax, QWORD PTR _Myfirst$[rsp]
	mov	QWORD PTR [rax], 0

; 2081 :             _Mylast  = nullptr;

	mov	rax, QWORD PTR _Mylast$[rsp]
	mov	QWORD PTR [rax], 0

; 2082 :             _Myend   = nullptr;

	mov	rax, QWORD PTR _Myend$[rsp]
	mov	QWORD PTR [rax], 0
$LN2@Tidy:

; 2083 :         }
; 2084 :     }

	add	rsp, 88					; 00000058H
	ret	0
?_Tidy@?$vector@V?$unique_ptr@VIAsmHelper@IronMan@@U?$default_delete@VIAsmHelper@IronMan@@@std@@@std@@V?$allocator@V?$unique_ptr@VIAsmHelper@IronMan@@U?$default_delete@VIAsmHelper@IronMan@@@std@@@std@@@2@@std@@AEAAXXZ ENDP ; std::vector<std::unique_ptr<IronMan::IAsmHelper,std::default_delete<IronMan::IAsmHelper> >,std::allocator<std::unique_ptr<IronMan::IAsmHelper,std::default_delete<IronMan::IAsmHelper> > > >::_Tidy
_TEXT	ENDS
; Function compile flags: /Odtp
; File C:\Program Files\Microsoft Visual Studio\2022\Community\VC\Tools\MSVC\14.43.34808\include\vector
;	COMDAT ??1?$vector@V?$unique_ptr@VIAsmHelper@IronMan@@U?$default_delete@VIAsmHelper@IronMan@@@std@@@std@@V?$allocator@V?$unique_ptr@VIAsmHelper@IronMan@@U?$default_delete@VIAsmHelper@IronMan@@@std@@@std@@@2@@std@@QEAA@XZ
_TEXT	SEGMENT
this$ = 48
??1?$vector@V?$unique_ptr@VIAsmHelper@IronMan@@U?$default_delete@VIAsmHelper@IronMan@@@std@@@std@@V?$allocator@V?$unique_ptr@VIAsmHelper@IronMan@@U?$default_delete@VIAsmHelper@IronMan@@@std@@@std@@@2@@std@@QEAA@XZ PROC ; std::vector<std::unique_ptr<IronMan::IAsmHelper,std::default_delete<IronMan::IAsmHelper> >,std::allocator<std::unique_ptr<IronMan::IAsmHelper,std::default_delete<IronMan::IAsmHelper> > > >::~vector<std::unique_ptr<IronMan::IAsmHelper,std::default_delete<IronMan::IAsmHelper> >,std::allocator<std::unique_ptr<IronMan::IAsmHelper,std::default_delete<IronMan::IAsmHelper> > > >, COMDAT

; 814  :     _CONSTEXPR20 ~vector() noexcept {

$LN3:
	mov	QWORD PTR [rsp+8], rcx
	sub	rsp, 40					; 00000028H

; 815  :         _Tidy();

	mov	rcx, QWORD PTR this$[rsp]
	call	?_Tidy@?$vector@V?$unique_ptr@VIAsmHelper@IronMan@@U?$default_delete@VIAsmHelper@IronMan@@@std@@@std@@V?$allocator@V?$unique_ptr@VIAsmHelper@IronMan@@U?$default_delete@VIAsmHelper@IronMan@@@std@@@std@@@2@@std@@AEAAXXZ ; std::vector<std::unique_ptr<IronMan::IAsmHelper,std::default_delete<IronMan::IAsmHelper> >,std::allocator<std::unique_ptr<IronMan::IAsmHelper,std::default_delete<IronMan::IAsmHelper> > > >::_Tidy
	npad	1

; 816  : #if _ITERATOR_DEBUG_LEVEL != 0
; 817  :         auto&& _Alproxy = _GET_PROXY_ALLOCATOR(_Alty, _Getal());
; 818  :         _Delete_plain_internal(_Alproxy, _STD exchange(_Mypair._Myval2._Myproxy, nullptr));
; 819  : #endif // _ITERATOR_DEBUG_LEVEL != 0
; 820  :     }

	add	rsp, 40					; 00000028H
	ret	0
??1?$vector@V?$unique_ptr@VIAsmHelper@IronMan@@U?$default_delete@VIAsmHelper@IronMan@@@std@@@std@@V?$allocator@V?$unique_ptr@VIAsmHelper@IronMan@@U?$default_delete@VIAsmHelper@IronMan@@@std@@@std@@@2@@std@@QEAA@XZ ENDP ; std::vector<std::unique_ptr<IronMan::IAsmHelper,std::default_delete<IronMan::IAsmHelper> >,std::allocator<std::unique_ptr<IronMan::IAsmHelper,std::default_delete<IronMan::IAsmHelper> > > >::~vector<std::unique_ptr<IronMan::IAsmHelper,std::default_delete<IronMan::IAsmHelper> >,std::allocator<std::unique_ptr<IronMan::IAsmHelper,std::default_delete<IronMan::IAsmHelper> > > >
_TEXT	ENDS
; Function compile flags: /Odtp
; File C:\Program Files\Microsoft Visual Studio\2022\Community\VC\Tools\MSVC\14.43.34808\include\vector
;	COMDAT ??0?$vector@V?$unique_ptr@VIAsmHelper@IronMan@@U?$default_delete@VIAsmHelper@IronMan@@@std@@@std@@V?$allocator@V?$unique_ptr@VIAsmHelper@IronMan@@U?$default_delete@VIAsmHelper@IronMan@@@std@@@std@@@2@@std@@QEAA@XZ
_TEXT	SEGMENT
$T1 = 32
tv69 = 40
tv78 = 48
this$ = 80
??0?$vector@V?$unique_ptr@VIAsmHelper@IronMan@@U?$default_delete@VIAsmHelper@IronMan@@@std@@@std@@V?$allocator@V?$unique_ptr@VIAsmHelper@IronMan@@U?$default_delete@VIAsmHelper@IronMan@@@std@@@std@@@2@@std@@QEAA@XZ PROC ; std::vector<std::unique_ptr<IronMan::IAsmHelper,std::default_delete<IronMan::IAsmHelper> >,std::allocator<std::unique_ptr<IronMan::IAsmHelper,std::default_delete<IronMan::IAsmHelper> > > >::vector<std::unique_ptr<IronMan::IAsmHelper,std::default_delete<IronMan::IAsmHelper> >,std::allocator<std::unique_ptr<IronMan::IAsmHelper,std::default_delete<IronMan::IAsmHelper> > > >, COMDAT

; 655  :     _CONSTEXPR20 vector() noexcept(is_nothrow_default_constructible_v<_Alty>) : _Mypair(_Zero_then_variadic_args_t{}) {

$LN3:
	mov	QWORD PTR [rsp+8], rcx
	sub	rsp, 72					; 00000048H
	mov	rax, QWORD PTR this$[rsp]
	mov	QWORD PTR tv69[rsp], rax
	movzx	edx, BYTE PTR $T1[rsp]
	mov	rcx, QWORD PTR tv69[rsp]
	call	??$?0$$V@?$_Compressed_pair@V?$allocator@V?$unique_ptr@VIAsmHelper@IronMan@@U?$default_delete@VIAsmHelper@IronMan@@@std@@@std@@@std@@V?$_Vector_val@U?$_Simple_types@V?$unique_ptr@VIAsmHelper@IronMan@@U?$default_delete@VIAsmHelper@IronMan@@@std@@@std@@@std@@@2@$00@std@@QEAA@U_Zero_then_variadic_args_t@1@@Z ; std::_Compressed_pair<std::allocator<std::unique_ptr<IronMan::IAsmHelper,std::default_delete<IronMan::IAsmHelper> > >,std::_Vector_val<std::_Simple_types<std::unique_ptr<IronMan::IAsmHelper,std::default_delete<IronMan::IAsmHelper> > > >,1>::_Compressed_pair<std::allocator<std::unique_ptr<IronMan::IAsmHelper,std::default_delete<IronMan::IAsmHelper> > >,std::_Vector_val<std::_Simple_types<std::unique_ptr<IronMan::IAsmHelper,std::default_delete<IronMan::IAsmHelper> > > >,1><>
	npad	1

; 656  :         _Mypair._Myval2._Alloc_proxy(_GET_PROXY_ALLOCATOR(_Alty, _Getal()));

	mov	rax, QWORD PTR this$[rsp]
	mov	QWORD PTR tv78[rsp], rax
	lea	rdx, OFFSET FLAT:?_Fake_alloc@std@@3U_Fake_allocator@1@B ; std::_Fake_alloc
	mov	rcx, QWORD PTR tv78[rsp]
	call	?_Alloc_proxy@_Container_base0@std@@QEAAXAEBU_Fake_allocator@2@@Z ; std::_Container_base0::_Alloc_proxy
	npad	1

; 657  :     }

	mov	rax, QWORD PTR this$[rsp]
	add	rsp, 72					; 00000048H
	ret	0
??0?$vector@V?$unique_ptr@VIAsmHelper@IronMan@@U?$default_delete@VIAsmHelper@IronMan@@@std@@@std@@V?$allocator@V?$unique_ptr@VIAsmHelper@IronMan@@U?$default_delete@VIAsmHelper@IronMan@@@std@@@std@@@2@@std@@QEAA@XZ ENDP ; std::vector<std::unique_ptr<IronMan::IAsmHelper,std::default_delete<IronMan::IAsmHelper> >,std::allocator<std::unique_ptr<IronMan::IAsmHelper,std::default_delete<IronMan::IAsmHelper> > > >::vector<std::unique_ptr<IronMan::IAsmHelper,std::default_delete<IronMan::IAsmHelper> >,std::allocator<std::unique_ptr<IronMan::IAsmHelper,std::default_delete<IronMan::IAsmHelper> > > >
_TEXT	ENDS
; Function compile flags: /Odtp
; File C:\Program Files\Microsoft Visual Studio\2022\Community\VC\Tools\MSVC\14.43.34808\include\xmemory
;	COMDAT ?deallocate@?$allocator@V?$unique_ptr@VIAsmHelper@IronMan@@U?$default_delete@VIAsmHelper@IronMan@@@std@@@std@@@std@@QEAAXQEAV?$unique_ptr@VIAsmHelper@IronMan@@U?$default_delete@VIAsmHelper@IronMan@@@std@@@2@_K@Z
_TEXT	SEGMENT
this$ = 48
_Ptr$ = 56
_Count$ = 64
?deallocate@?$allocator@V?$unique_ptr@VIAsmHelper@IronMan@@U?$default_delete@VIAsmHelper@IronMan@@@std@@@std@@@std@@QEAAXQEAV?$unique_ptr@VIAsmHelper@IronMan@@U?$default_delete@VIAsmHelper@IronMan@@@std@@@2@_K@Z PROC ; std::allocator<std::unique_ptr<IronMan::IAsmHelper,std::default_delete<IronMan::IAsmHelper> > >::deallocate, COMDAT

; 978  :     _CONSTEXPR20 void deallocate(_Ty* const _Ptr, const size_t _Count) noexcept /* strengthened */ {

$LN3:
	mov	QWORD PTR [rsp+24], r8
	mov	QWORD PTR [rsp+16], rdx
	mov	QWORD PTR [rsp+8], rcx
	sub	rsp, 40					; 00000028H

; 979  :         _STL_ASSERT(_Ptr != nullptr || _Count == 0, "null pointer cannot point to a block of non-zero size");
; 980  :         // no overflow check on the following multiply; we assume _Allocate did that check
; 981  :         _STD _Deallocate<_New_alignof<_Ty>>(_Ptr, sizeof(_Ty) * _Count);

	mov	rax, QWORD PTR _Count$[rsp]
	shl	rax, 3
	mov	rdx, rax
	mov	rcx, QWORD PTR _Ptr$[rsp]
	call	??$_Deallocate@$0BA@@std@@YAXPEAX_K@Z	; std::_Deallocate<16>
	npad	1

; 982  :     }

	add	rsp, 40					; 00000028H
	ret	0
?deallocate@?$allocator@V?$unique_ptr@VIAsmHelper@IronMan@@U?$default_delete@VIAsmHelper@IronMan@@@std@@@std@@@std@@QEAAXQEAV?$unique_ptr@VIAsmHelper@IronMan@@U?$default_delete@VIAsmHelper@IronMan@@@std@@@2@_K@Z ENDP ; std::allocator<std::unique_ptr<IronMan::IAsmHelper,std::default_delete<IronMan::IAsmHelper> > >::deallocate
_TEXT	ENDS
; Function compile flags: /Odtp
; File C:\Program Files\Microsoft Visual Studio\2022\Community\VC\Tools\MSVC\14.43.34808\include\xmemory
;	COMDAT ??0?$allocator@V?$unique_ptr@VIAsmHelper@IronMan@@U?$default_delete@VIAsmHelper@IronMan@@@std@@@std@@@std@@QEAA@XZ
_TEXT	SEGMENT
this$ = 8
??0?$allocator@V?$unique_ptr@VIAsmHelper@IronMan@@U?$default_delete@VIAsmHelper@IronMan@@@std@@@std@@@std@@QEAA@XZ PROC ; std::allocator<std::unique_ptr<IronMan::IAsmHelper,std::default_delete<IronMan::IAsmHelper> > >::allocator<std::unique_ptr<IronMan::IAsmHelper,std::default_delete<IronMan::IAsmHelper> > >, COMDAT

; 970  :     constexpr allocator() noexcept {}

	mov	QWORD PTR [rsp+8], rcx
	mov	rax, QWORD PTR this$[rsp]
	ret	0
??0?$allocator@V?$unique_ptr@VIAsmHelper@IronMan@@U?$default_delete@VIAsmHelper@IronMan@@@std@@@std@@@std@@QEAA@XZ ENDP ; std::allocator<std::unique_ptr<IronMan::IAsmHelper,std::default_delete<IronMan::IAsmHelper> > >::allocator<std::unique_ptr<IronMan::IAsmHelper,std::default_delete<IronMan::IAsmHelper> > >
_TEXT	ENDS
; Function compile flags: /Odtp
; File D:\c++\paoda\Helper\Analysis\AnalysisBase.h
;	COMDAT ?inRange@AnalysisBase@Analysis@IronMan@@IEBA_N_K00@Z
_TEXT	SEGMENT
tv66 = 0
this$ = 32
addr$ = 40
min$ = 48
max$ = 56
?inRange@AnalysisBase@Analysis@IronMan@@IEBA_N_K00@Z PROC ; IronMan::Analysis::AnalysisBase::inRange, COMDAT

; 119  : 		{

$LN5:
	mov	QWORD PTR [rsp+32], r9
	mov	QWORD PTR [rsp+24], r8
	mov	QWORD PTR [rsp+16], rdx
	mov	QWORD PTR [rsp+8], rcx
	sub	rsp, 24

; 120  : 			return addr >= min && addr <= max;

	mov	rax, QWORD PTR min$[rsp]
	cmp	QWORD PTR addr$[rsp], rax
	jb	SHORT $LN3@inRange
	mov	rax, QWORD PTR max$[rsp]
	cmp	QWORD PTR addr$[rsp], rax
	ja	SHORT $LN3@inRange
	mov	DWORD PTR tv66[rsp], 1
	jmp	SHORT $LN4@inRange
$LN3@inRange:
	mov	DWORD PTR tv66[rsp], 0
$LN4@inRange:
	movzx	eax, BYTE PTR tv66[rsp]

; 121  : 		}

	add	rsp, 24
	ret	0
?inRange@AnalysisBase@Analysis@IronMan@@IEBA_N_K00@Z ENDP ; IronMan::Analysis::AnalysisBase::inRange
_TEXT	ENDS
; Function compile flags: /Odtp
; File D:\c++\paoda\Helper\Analysis\AnalysisBase.cpp
_TEXT	SEGMENT
this$ = 48
__$ReturnUdt$ = 56
reg$ = 64
?ToGpReg@AnalysisBase@Analysis@IronMan@@IEAA?AUX86GpReg@asmjit@@W4ZydisRegister_@@@Z PROC ; IronMan::Analysis::AnalysisBase::ToGpReg

; 39   : 	{

$LN15:
	mov	DWORD PTR [rsp+24], r8d
	mov	QWORD PTR [rsp+16], rdx
	mov	QWORD PTR [rsp+8], rcx
	sub	rsp, 40					; 00000028H

; 40   : 		if (inRange(reg, ZYDIS_REGISTER_AL, ZYDIS_REGISTER_BL))

	movsxd	rax, DWORD PTR reg$[rsp]
	mov	r9d, 4
	mov	r8d, 1
	mov	rdx, rax
	mov	rcx, QWORD PTR this$[rsp]
	call	?inRange@AnalysisBase@Analysis@IronMan@@IEBA_N_K00@Z ; IronMan::Analysis::AnalysisBase::inRange
	movzx	eax, al
	test	eax, eax
	je	SHORT $LN2@ToGpReg

; 41   : 			return asmjit::x86RegData.gpbLo[reg - ZYDIS_REGISTER_AL];

	mov	eax, DWORD PTR reg$[rsp]
	dec	eax
	cdqe
	imul	rax, rax, 16
	lea	rcx, OFFSET FLAT:?x86RegData@asmjit@@3UX86RegData@1@B+144
	add	rcx, rax
	mov	rax, rcx
	mov	rdx, rax
	mov	rcx, QWORD PTR __$ReturnUdt$[rsp]
	call	??0X86GpReg@asmjit@@QEAA@AEBU01@@Z	; asmjit::X86GpReg::X86GpReg
	mov	rax, QWORD PTR __$ReturnUdt$[rsp]
	jmp	$LN1@ToGpReg
	jmp	$LN3@ToGpReg
$LN2@ToGpReg:

; 42   : 		else if (inRange(reg, ZYDIS_REGISTER_AH, ZYDIS_REGISTER_BH))

	movsxd	rax, DWORD PTR reg$[rsp]
	mov	r9d, 8
	mov	r8d, 5
	mov	rdx, rax
	mov	rcx, QWORD PTR this$[rsp]
	call	?inRange@AnalysisBase@Analysis@IronMan@@IEBA_N_K00@Z ; IronMan::Analysis::AnalysisBase::inRange
	movzx	eax, al
	test	eax, eax
	je	SHORT $LN4@ToGpReg

; 43   : 			return asmjit::x86RegData.gpbHi[reg - ZYDIS_REGISTER_AH];

	mov	eax, DWORD PTR reg$[rsp]
	sub	eax, 5
	cdqe
	imul	rax, rax, 16
	lea	rcx, OFFSET FLAT:?x86RegData@asmjit@@3UX86RegData@1@B+400
	add	rcx, rax
	mov	rax, rcx
	mov	rdx, rax
	mov	rcx, QWORD PTR __$ReturnUdt$[rsp]
	call	??0X86GpReg@asmjit@@QEAA@AEBU01@@Z	; asmjit::X86GpReg::X86GpReg
	mov	rax, QWORD PTR __$ReturnUdt$[rsp]
	jmp	$LN1@ToGpReg
	jmp	$LN5@ToGpReg
$LN4@ToGpReg:

; 44   : 		else if (inRange(reg, ZYDIS_REGISTER_SPL, ZYDIS_REGISTER_R15B))

	movsxd	rax, DWORD PTR reg$[rsp]
	mov	r9d, 20
	mov	r8d, 9
	mov	rdx, rax
	mov	rcx, QWORD PTR this$[rsp]
	call	?inRange@AnalysisBase@Analysis@IronMan@@IEBA_N_K00@Z ; IronMan::Analysis::AnalysisBase::inRange
	movzx	eax, al
	test	eax, eax
	je	SHORT $LN6@ToGpReg

; 45   : 			return asmjit::x86RegData.gpbLo[reg - ZYDIS_REGISTER_AH];

	mov	eax, DWORD PTR reg$[rsp]
	sub	eax, 5
	cdqe
	imul	rax, rax, 16
	lea	rcx, OFFSET FLAT:?x86RegData@asmjit@@3UX86RegData@1@B+144
	add	rcx, rax
	mov	rax, rcx
	mov	rdx, rax
	mov	rcx, QWORD PTR __$ReturnUdt$[rsp]
	call	??0X86GpReg@asmjit@@QEAA@AEBU01@@Z	; asmjit::X86GpReg::X86GpReg
	mov	rax, QWORD PTR __$ReturnUdt$[rsp]
	jmp	$LN1@ToGpReg
	jmp	$LN7@ToGpReg
$LN6@ToGpReg:

; 46   : 
; 47   : 		// General purpose registers 16-bit
; 48   : 		else if (inRange(reg, ZYDIS_REGISTER_AX, ZYDIS_REGISTER_R15W))

	movsxd	rax, DWORD PTR reg$[rsp]
	mov	r9d, 36					; 00000024H
	mov	r8d, 21
	mov	rdx, rax
	mov	rcx, QWORD PTR this$[rsp]
	call	?inRange@AnalysisBase@Analysis@IronMan@@IEBA_N_K00@Z ; IronMan::Analysis::AnalysisBase::inRange
	movzx	eax, al
	test	eax, eax
	je	SHORT $LN8@ToGpReg

; 49   : 			return asmjit::x86RegData.gpw[reg - ZYDIS_REGISTER_AX];

	mov	eax, DWORD PTR reg$[rsp]
	sub	eax, 21
	cdqe
	imul	rax, rax, 16
	lea	rcx, OFFSET FLAT:?x86RegData@asmjit@@3UX86RegData@1@B+464
	add	rcx, rax
	mov	rax, rcx
	mov	rdx, rax
	mov	rcx, QWORD PTR __$ReturnUdt$[rsp]
	call	??0X86GpReg@asmjit@@QEAA@AEBU01@@Z	; asmjit::X86GpReg::X86GpReg
	mov	rax, QWORD PTR __$ReturnUdt$[rsp]
	jmp	$LN1@ToGpReg
	jmp	$LN9@ToGpReg
$LN8@ToGpReg:

; 50   : 
; 51   : 		// General purpose registers 32-bit
; 52   : 		else if (inRange(reg, ZYDIS_REGISTER_EAX, ZYDIS_REGISTER_R15D))

	movsxd	rax, DWORD PTR reg$[rsp]
	mov	r9d, 52					; 00000034H
	mov	r8d, 37					; 00000025H
	mov	rdx, rax
	mov	rcx, QWORD PTR this$[rsp]
	call	?inRange@AnalysisBase@Analysis@IronMan@@IEBA_N_K00@Z ; IronMan::Analysis::AnalysisBase::inRange
	movzx	eax, al
	test	eax, eax
	je	SHORT $LN10@ToGpReg

; 53   : 			return asmjit::x86RegData.gpd[reg - ZYDIS_REGISTER_EAX];

	mov	eax, DWORD PTR reg$[rsp]
	sub	eax, 37					; 00000025H
	cdqe
	imul	rax, rax, 16
	lea	rcx, OFFSET FLAT:?x86RegData@asmjit@@3UX86RegData@1@B+720
	add	rcx, rax
	mov	rax, rcx
	mov	rdx, rax
	mov	rcx, QWORD PTR __$ReturnUdt$[rsp]
	call	??0X86GpReg@asmjit@@QEAA@AEBU01@@Z	; asmjit::X86GpReg::X86GpReg
	mov	rax, QWORD PTR __$ReturnUdt$[rsp]
	jmp	SHORT $LN1@ToGpReg
	jmp	SHORT $LN11@ToGpReg
$LN10@ToGpReg:

; 54   : 
; 55   : 		// General purpose registers 64-bit
; 56   : 		else if (inRange(reg, ZYDIS_REGISTER_RAX, ZYDIS_REGISTER_R15))

	movsxd	rax, DWORD PTR reg$[rsp]
	mov	r9d, 68					; 00000044H
	mov	r8d, 53					; 00000035H
	mov	rdx, rax
	mov	rcx, QWORD PTR this$[rsp]
	call	?inRange@AnalysisBase@Analysis@IronMan@@IEBA_N_K00@Z ; IronMan::Analysis::AnalysisBase::inRange
	movzx	eax, al
	test	eax, eax
	je	SHORT $LN12@ToGpReg

; 57   : 			return asmjit::x86RegData.gpq[reg - ZYDIS_REGISTER_RAX];

	mov	eax, DWORD PTR reg$[rsp]
	sub	eax, 53					; 00000035H
	cdqe
	imul	rax, rax, 16
	lea	rcx, OFFSET FLAT:?x86RegData@asmjit@@3UX86RegData@1@B+976
	add	rcx, rax
	mov	rax, rcx
	mov	rdx, rax
	mov	rcx, QWORD PTR __$ReturnUdt$[rsp]
	call	??0X86GpReg@asmjit@@QEAA@AEBU01@@Z	; asmjit::X86GpReg::X86GpReg
	mov	rax, QWORD PTR __$ReturnUdt$[rsp]
	jmp	SHORT $LN1@ToGpReg
$LN12@ToGpReg:
$LN11@ToGpReg:
$LN9@ToGpReg:
$LN7@ToGpReg:
$LN5@ToGpReg:
$LN3@ToGpReg:

; 58   : 
; 59   : 		// TODO:
; 60   : 		else
; 61   : 			assert(0);
; 62   : 		return asmjit::GpReg();

	mov	rcx, QWORD PTR __$ReturnUdt$[rsp]
	call	??0X86GpReg@asmjit@@QEAA@XZ		; asmjit::X86GpReg::X86GpReg
	mov	rax, QWORD PTR __$ReturnUdt$[rsp]
$LN1@ToGpReg:

; 63   : 	}

	add	rsp, 40					; 00000028H
	ret	0
?ToGpReg@AnalysisBase@Analysis@IronMan@@IEAA?AUX86GpReg@asmjit@@W4ZydisRegister_@@@Z ENDP ; IronMan::Analysis::AnalysisBase::ToGpReg
_TEXT	ENDS
; Function compile flags: /Odtp
; File D:\c++\paoda\Helper\Analysis\AnalysisBase.cpp
_TEXT	SEGMENT
this$ = 48
reg$ = 56
?GpRegTo64@AnalysisBase@Analysis@IronMan@@IEAA?AW4ZydisRegister_@@W44@@Z PROC ; IronMan::Analysis::AnalysisBase::GpRegTo64

; 18   : 	{

$LN12:
	mov	DWORD PTR [rsp+16], edx
	mov	QWORD PTR [rsp+8], rcx
	sub	rsp, 40					; 00000028H

; 19   : 		if (inRange(reg, ZYDIS_REGISTER_AL, ZYDIS_REGISTER_BL))

	movsxd	rax, DWORD PTR reg$[rsp]
	mov	r9d, 4
	mov	r8d, 1
	mov	rdx, rax
	mov	rcx, QWORD PTR this$[rsp]
	call	?inRange@AnalysisBase@Analysis@IronMan@@IEBA_N_K00@Z ; IronMan::Analysis::AnalysisBase::inRange
	movzx	eax, al
	test	eax, eax
	je	SHORT $LN2@GpRegTo64

; 20   : 			return static_cast<ZydisRegister>(ZYDIS_REGISTER_RAX + reg - ZYDIS_REGISTER_AL);

	mov	eax, DWORD PTR reg$[rsp]
	add	eax, 52					; 00000034H
	jmp	$LN1@GpRegTo64
	jmp	$LN3@GpRegTo64
$LN2@GpRegTo64:

; 21   : 		else if (inRange(reg, ZYDIS_REGISTER_R8B, ZYDIS_REGISTER_R15B))

	movsxd	rax, DWORD PTR reg$[rsp]
	mov	r9d, 20
	mov	r8d, 13
	mov	rdx, rax
	mov	rcx, QWORD PTR this$[rsp]
	call	?inRange@AnalysisBase@Analysis@IronMan@@IEBA_N_K00@Z ; IronMan::Analysis::AnalysisBase::inRange
	movzx	eax, al
	test	eax, eax
	je	SHORT $LN4@GpRegTo64

; 22   : 			return static_cast<ZydisRegister>(ZYDIS_REGISTER_R8 + reg - ZYDIS_REGISTER_R8B);

	mov	eax, DWORD PTR reg$[rsp]
	add	eax, 48					; 00000030H
	jmp	$LN1@GpRegTo64
	jmp	$LN5@GpRegTo64
$LN4@GpRegTo64:

; 23   : 
; 24   : 		// General purpose registers 16-bit
; 25   : 		else if (inRange(reg, ZYDIS_REGISTER_AX, ZYDIS_REGISTER_R15W))

	movsxd	rax, DWORD PTR reg$[rsp]
	mov	r9d, 36					; 00000024H
	mov	r8d, 21
	mov	rdx, rax
	mov	rcx, QWORD PTR this$[rsp]
	call	?inRange@AnalysisBase@Analysis@IronMan@@IEBA_N_K00@Z ; IronMan::Analysis::AnalysisBase::inRange
	movzx	eax, al
	test	eax, eax
	je	SHORT $LN6@GpRegTo64

; 26   : 			return static_cast<ZydisRegister>(ZYDIS_REGISTER_RAX + reg - ZYDIS_REGISTER_AX);

	mov	eax, DWORD PTR reg$[rsp]
	add	eax, 32					; 00000020H
	jmp	SHORT $LN1@GpRegTo64
	jmp	SHORT $LN7@GpRegTo64
$LN6@GpRegTo64:

; 27   : 
; 28   : 		// General purpose registers 32-bit
; 29   : 		else if (inRange(reg, ZYDIS_REGISTER_EAX, ZYDIS_REGISTER_R15D))

	movsxd	rax, DWORD PTR reg$[rsp]
	mov	r9d, 52					; 00000034H
	mov	r8d, 37					; 00000025H
	mov	rdx, rax
	mov	rcx, QWORD PTR this$[rsp]
	call	?inRange@AnalysisBase@Analysis@IronMan@@IEBA_N_K00@Z ; IronMan::Analysis::AnalysisBase::inRange
	movzx	eax, al
	test	eax, eax
	je	SHORT $LN8@GpRegTo64

; 30   : 			return static_cast<ZydisRegister>(ZYDIS_REGISTER_RAX + reg - ZYDIS_REGISTER_EAX);

	mov	eax, DWORD PTR reg$[rsp]
	add	eax, 16
	jmp	SHORT $LN1@GpRegTo64
	jmp	SHORT $LN9@GpRegTo64
$LN8@GpRegTo64:

; 31   : 
; 32   : 		// General purpose registers 64-bit
; 33   : 		else if (inRange(reg, ZYDIS_REGISTER_RAX, ZYDIS_REGISTER_R15))

	movsxd	rax, DWORD PTR reg$[rsp]
	mov	r9d, 68					; 00000044H
	mov	r8d, 53					; 00000035H
	mov	rdx, rax
	mov	rcx, QWORD PTR this$[rsp]
	call	?inRange@AnalysisBase@Analysis@IronMan@@IEBA_N_K00@Z ; IronMan::Analysis::AnalysisBase::inRange
	movzx	eax, al
	test	eax, eax
	je	SHORT $LN10@GpRegTo64

; 34   : 			return static_cast<ZydisRegister>(ZYDIS_REGISTER_RAX + reg - ZYDIS_REGISTER_RAX);

	mov	eax, DWORD PTR reg$[rsp]
	jmp	SHORT $LN1@GpRegTo64
$LN10@GpRegTo64:
$LN9@GpRegTo64:
$LN7@GpRegTo64:
$LN5@GpRegTo64:
$LN3@GpRegTo64:

; 35   : 		return reg;

	mov	eax, DWORD PTR reg$[rsp]
$LN1@GpRegTo64:

; 36   : 	}

	add	rsp, 40					; 00000028H
	ret	0
?GpRegTo64@AnalysisBase@Analysis@IronMan@@IEAA?AW4ZydisRegister_@@W44@@Z ENDP ; IronMan::Analysis::AnalysisBase::GpRegTo64
_TEXT	ENDS
; Function compile flags: /Odtp
; File D:\c++\paoda\Helper\Analysis\AnalysisBase.h
;	COMDAT ?GetEntryPoint@AnalysisBase@Analysis@IronMan@@UEBA?B_KXZ
_TEXT	SEGMENT
this$ = 8
?GetEntryPoint@AnalysisBase@Analysis@IronMan@@UEBA?B_KXZ PROC ; IronMan::Analysis::AnalysisBase::GetEntryPoint, COMDAT

; 106  : 		virtual const ptr_t GetEntryPoint() const { return 0; }

	mov	QWORD PTR [rsp+8], rcx
	xor	eax, eax
	ret	0
?GetEntryPoint@AnalysisBase@Analysis@IronMan@@UEBA?B_KXZ ENDP ; IronMan::Analysis::AnalysisBase::GetEntryPoint
_TEXT	ENDS
; Function compile flags: /Odtp
; File D:\c++\paoda\Helper\Analysis\AnalysisBase.cpp
_TEXT	SEGMENT
this$ = 48
??1AnalysisBase@Analysis@IronMan@@UEAA@XZ PROC		; IronMan::Analysis::AnalysisBase::~AnalysisBase

; 14   : 	{

$LN5:
	mov	QWORD PTR [rsp+8], rcx
	sub	rsp, 40					; 00000028H
	mov	rax, QWORD PTR this$[rsp]
	lea	rcx, OFFSET FLAT:??_7AnalysisBase@Analysis@IronMan@@6B@
	mov	QWORD PTR [rax], rcx

; 15   : 	}

	mov	rax, QWORD PTR this$[rsp]
	add	rax, 1776				; 000006f0H
	mov	rcx, rax
	call	??1?$vector@V?$unique_ptr@VIAsmHelper@IronMan@@U?$default_delete@VIAsmHelper@IronMan@@@std@@@std@@V?$allocator@V?$unique_ptr@VIAsmHelper@IronMan@@U?$default_delete@VIAsmHelper@IronMan@@@std@@@std@@@2@@std@@QEAA@XZ ; std::vector<std::unique_ptr<IronMan::IAsmHelper,std::default_delete<IronMan::IAsmHelper> >,std::allocator<std::unique_ptr<IronMan::IAsmHelper,std::default_delete<IronMan::IAsmHelper> > > >::~vector<std::unique_ptr<IronMan::IAsmHelper,std::default_delete<IronMan::IAsmHelper> >,std::allocator<std::unique_ptr<IronMan::IAsmHelper,std::default_delete<IronMan::IAsmHelper> > > >
	npad	1
	mov	rax, QWORD PTR this$[rsp]
	add	rax, 32					; 00000020H
	mov	rcx, rax
	call	??1Zydis@IronMan@@QEAA@XZ		; IronMan::Zydis::~Zydis
	npad	1
	add	rsp, 40					; 00000028H
	ret	0
??1AnalysisBase@Analysis@IronMan@@UEAA@XZ ENDP		; IronMan::Analysis::AnalysisBase::~AnalysisBase
_TEXT	ENDS
; Function compile flags: /Odtp
text$x	SEGMENT
this$ = 48
?dtor$0@?0???1AnalysisBase@Analysis@IronMan@@UEAA@XZ@4HA PROC ; `IronMan::Analysis::AnalysisBase::~AnalysisBase'::`1'::dtor$0
	push	rbp
	sub	rsp, 32					; 00000020H
	mov	rbp, rdx
	mov	rcx, QWORD PTR this$[rbp]
	add	rcx, 32					; 00000020H
	call	??1Zydis@IronMan@@QEAA@XZ		; IronMan::Zydis::~Zydis
	add	rsp, 32					; 00000020H
	pop	rbp
	ret	0
?dtor$0@?0???1AnalysisBase@Analysis@IronMan@@UEAA@XZ@4HA ENDP ; `IronMan::Analysis::AnalysisBase::~AnalysisBase'::`1'::dtor$0
text$x	ENDS
; Function compile flags: /Odtp
text$x	SEGMENT
this$ = 48
?dtor$1@?0???1AnalysisBase@Analysis@IronMan@@UEAA@XZ@4HA PROC ; `IronMan::Analysis::AnalysisBase::~AnalysisBase'::`1'::dtor$1
	push	rbp
	sub	rsp, 32					; 00000020H
	mov	rbp, rdx
	mov	rcx, QWORD PTR this$[rbp]
	add	rcx, 1776				; 000006f0H
	call	??1?$vector@V?$unique_ptr@VIAsmHelper@IronMan@@U?$default_delete@VIAsmHelper@IronMan@@@std@@@std@@V?$allocator@V?$unique_ptr@VIAsmHelper@IronMan@@U?$default_delete@VIAsmHelper@IronMan@@@std@@@std@@@2@@std@@QEAA@XZ ; std::vector<std::unique_ptr<IronMan::IAsmHelper,std::default_delete<IronMan::IAsmHelper> >,std::allocator<std::unique_ptr<IronMan::IAsmHelper,std::default_delete<IronMan::IAsmHelper> > > >::~vector<std::unique_ptr<IronMan::IAsmHelper,std::default_delete<IronMan::IAsmHelper> >,std::allocator<std::unique_ptr<IronMan::IAsmHelper,std::default_delete<IronMan::IAsmHelper> > > >
	add	rsp, 32					; 00000020H
	pop	rbp
	ret	0
?dtor$1@?0???1AnalysisBase@Analysis@IronMan@@UEAA@XZ@4HA ENDP ; `IronMan::Analysis::AnalysisBase::~AnalysisBase'::`1'::dtor$1
text$x	ENDS
; Function compile flags: /Odtp
; File D:\c++\paoda\Helper\Analysis\AnalysisBase.cpp
_TEXT	SEGMENT
this$ = 48
base$ = 56
size$ = 64
??0AnalysisBase@Analysis@IronMan@@QEAA@_K0@Z PROC	; IronMan::Analysis::AnalysisBase::AnalysisBase

; 7    : 	{

$LN5:
	mov	QWORD PTR [rsp+24], r8
	mov	QWORD PTR [rsp+16], rdx
	mov	QWORD PTR [rsp+8], rcx
	sub	rsp, 40					; 00000028H
	mov	rax, QWORD PTR this$[rsp]
	lea	rcx, OFFSET FLAT:??_7AnalysisBase@Analysis@IronMan@@6B@
	mov	QWORD PTR [rax], rcx
	mov	rax, QWORD PTR this$[rsp]
	add	rax, 32					; 00000020H
	mov	rcx, rax
	call	??0Zydis@IronMan@@QEAA@XZ		; IronMan::Zydis::Zydis
	npad	1
	mov	rax, QWORD PTR this$[rsp]
	add	rax, 1776				; 000006f0H
	mov	rcx, rax
	call	??0?$vector@V?$unique_ptr@VIAsmHelper@IronMan@@U?$default_delete@VIAsmHelper@IronMan@@@std@@@std@@V?$allocator@V?$unique_ptr@VIAsmHelper@IronMan@@U?$default_delete@VIAsmHelper@IronMan@@@std@@@std@@@2@@std@@QEAA@XZ ; std::vector<std::unique_ptr<IronMan::IAsmHelper,std::default_delete<IronMan::IAsmHelper> >,std::allocator<std::unique_ptr<IronMan::IAsmHelper,std::default_delete<IronMan::IAsmHelper> > > >::vector<std::unique_ptr<IronMan::IAsmHelper,std::default_delete<IronMan::IAsmHelper> >,std::allocator<std::unique_ptr<IronMan::IAsmHelper,std::default_delete<IronMan::IAsmHelper> > > >
	npad	1

; 8    : 		mBase = base;

	mov	rax, QWORD PTR this$[rsp]
	mov	rcx, QWORD PTR base$[rsp]
	mov	QWORD PTR [rax+8], rcx

; 9    : 		mSize = size;

	mov	rax, QWORD PTR this$[rsp]
	mov	rcx, QWORD PTR size$[rsp]
	mov	QWORD PTR [rax+16], rcx

; 10   : 		mData = nullptr;

	mov	rax, QWORD PTR this$[rsp]
	mov	QWORD PTR [rax+24], 0

; 11   : 	}

	mov	rax, QWORD PTR this$[rsp]
	add	rsp, 40					; 00000028H
	ret	0
??0AnalysisBase@Analysis@IronMan@@QEAA@_K0@Z ENDP	; IronMan::Analysis::AnalysisBase::AnalysisBase
_TEXT	ENDS
; Function compile flags: /Odtp
text$x	SEGMENT
this$ = 48
base$ = 56
size$ = 64
?dtor$0@?0???0AnalysisBase@Analysis@IronMan@@QEAA@_K0@Z@4HA PROC ; `IronMan::Analysis::AnalysisBase::AnalysisBase'::`1'::dtor$0
	push	rbp
	sub	rsp, 32					; 00000020H
	mov	rbp, rdx
	mov	rcx, QWORD PTR this$[rbp]
	add	rcx, 32					; 00000020H
	call	??1Zydis@IronMan@@QEAA@XZ		; IronMan::Zydis::~Zydis
	add	rsp, 32					; 00000020H
	pop	rbp
	ret	0
?dtor$0@?0???0AnalysisBase@Analysis@IronMan@@QEAA@_K0@Z@4HA ENDP ; `IronMan::Analysis::AnalysisBase::AnalysisBase'::`1'::dtor$0
text$x	ENDS
; Function compile flags: /Odtp
text$x	SEGMENT
this$ = 48
base$ = 56
size$ = 64
?dtor$1@?0???0AnalysisBase@Analysis@IronMan@@QEAA@_K0@Z@4HA PROC ; `IronMan::Analysis::AnalysisBase::AnalysisBase'::`1'::dtor$1
	push	rbp
	sub	rsp, 32					; 00000020H
	mov	rbp, rdx
	mov	rcx, QWORD PTR this$[rbp]
	add	rcx, 1776				; 000006f0H
	call	??1?$vector@V?$unique_ptr@VIAsmHelper@IronMan@@U?$default_delete@VIAsmHelper@IronMan@@@std@@@std@@V?$allocator@V?$unique_ptr@VIAsmHelper@IronMan@@U?$default_delete@VIAsmHelper@IronMan@@@std@@@std@@@2@@std@@QEAA@XZ ; std::vector<std::unique_ptr<IronMan::IAsmHelper,std::default_delete<IronMan::IAsmHelper> >,std::allocator<std::unique_ptr<IronMan::IAsmHelper,std::default_delete<IronMan::IAsmHelper> > > >::~vector<std::unique_ptr<IronMan::IAsmHelper,std::default_delete<IronMan::IAsmHelper> >,std::allocator<std::unique_ptr<IronMan::IAsmHelper,std::default_delete<IronMan::IAsmHelper> > > >
	add	rsp, 32					; 00000020H
	pop	rbp
	ret	0
?dtor$1@?0???0AnalysisBase@Analysis@IronMan@@QEAA@_K0@Z@4HA ENDP ; `IronMan::Analysis::AnalysisBase::AnalysisBase'::`1'::dtor$1
text$x	ENDS
; Function compile flags: /Odtp
;	COMDAT ??_G?$unique_ptr@VIAsmHelper@IronMan@@U?$default_delete@VIAsmHelper@IronMan@@@std@@@std@@QEAAPEAXI@Z
_TEXT	SEGMENT
this$ = 48
__flags$ = 56
??_G?$unique_ptr@VIAsmHelper@IronMan@@U?$default_delete@VIAsmHelper@IronMan@@@std@@@std@@QEAAPEAXI@Z PROC ; std::unique_ptr<IronMan::IAsmHelper,std::default_delete<IronMan::IAsmHelper> >::`scalar deleting destructor', COMDAT
$LN4:
	mov	DWORD PTR [rsp+16], edx
	mov	QWORD PTR [rsp+8], rcx
	sub	rsp, 40					; 00000028H
	mov	rcx, QWORD PTR this$[rsp]
	call	??1?$unique_ptr@VIAsmHelper@IronMan@@U?$default_delete@VIAsmHelper@IronMan@@@std@@@std@@QEAA@XZ ; std::unique_ptr<IronMan::IAsmHelper,std::default_delete<IronMan::IAsmHelper> >::~unique_ptr<IronMan::IAsmHelper,std::default_delete<IronMan::IAsmHelper> >
	mov	eax, DWORD PTR __flags$[rsp]
	and	eax, 1
	test	eax, eax
	je	SHORT $LN2@scalar
	mov	edx, 8
	mov	rcx, QWORD PTR this$[rsp]
	call	??3@YAXPEAX_K@Z				; operator delete
	npad	1
$LN2@scalar:
	mov	rax, QWORD PTR this$[rsp]
	add	rsp, 40					; 00000028H
	ret	0
??_G?$unique_ptr@VIAsmHelper@IronMan@@U?$default_delete@VIAsmHelper@IronMan@@@std@@@std@@QEAAPEAXI@Z ENDP ; std::unique_ptr<IronMan::IAsmHelper,std::default_delete<IronMan::IAsmHelper> >::`scalar deleting destructor'
_TEXT	ENDS
; Function compile flags: /Odtp
; File C:\Program Files\Microsoft Visual Studio\2022\Community\VC\Tools\MSVC\14.43.34808\include\xmemory
;	COMDAT ?_Get_first@?$_Compressed_pair@U?$default_delete@VIAsmHelper@IronMan@@@std@@PEAVIAsmHelper@IronMan@@$00@std@@QEAAAEAU?$default_delete@VIAsmHelper@IronMan@@@2@XZ
_TEXT	SEGMENT
this$ = 8
?_Get_first@?$_Compressed_pair@U?$default_delete@VIAsmHelper@IronMan@@@std@@PEAVIAsmHelper@IronMan@@$00@std@@QEAAAEAU?$default_delete@VIAsmHelper@IronMan@@@2@XZ PROC ; std::_Compressed_pair<std::default_delete<IronMan::IAsmHelper>,IronMan::IAsmHelper *,1>::_Get_first, COMDAT

; 1534 :     constexpr _Ty1& _Get_first() noexcept {

	mov	QWORD PTR [rsp+8], rcx

; 1535 :         return *this;

	mov	rax, QWORD PTR this$[rsp]

; 1536 :     }

	ret	0
?_Get_first@?$_Compressed_pair@U?$default_delete@VIAsmHelper@IronMan@@@std@@PEAVIAsmHelper@IronMan@@$00@std@@QEAAAEAU?$default_delete@VIAsmHelper@IronMan@@@2@XZ ENDP ; std::_Compressed_pair<std::default_delete<IronMan::IAsmHelper>,IronMan::IAsmHelper *,1>::_Get_first
_TEXT	ENDS
; Function compile flags: /Odtp
; File C:\Program Files\Microsoft Visual Studio\2022\Community\VC\Tools\MSVC\14.43.34808\include\memory
;	COMDAT ??1?$unique_ptr@VIAsmHelper@IronMan@@U?$default_delete@VIAsmHelper@IronMan@@@std@@@std@@QEAA@XZ
_TEXT	SEGMENT
tv75 = 32
tv77 = 40
this$ = 64
??1?$unique_ptr@VIAsmHelper@IronMan@@U?$default_delete@VIAsmHelper@IronMan@@@std@@@std@@QEAA@XZ PROC ; std::unique_ptr<IronMan::IAsmHelper,std::default_delete<IronMan::IAsmHelper> >::~unique_ptr<IronMan::IAsmHelper,std::default_delete<IronMan::IAsmHelper> >, COMDAT

; 3407 :     _CONSTEXPR23 ~unique_ptr() noexcept {

$LN4:
	mov	QWORD PTR [rsp+8], rcx
	sub	rsp, 56					; 00000038H

; 3408 :         if (_Mypair._Myval2) {

	mov	rax, QWORD PTR this$[rsp]
	cmp	QWORD PTR [rax], 0
	je	SHORT $LN2@unique_ptr

; 3409 :             _Mypair._Get_first()(_Mypair._Myval2);

	mov	rax, QWORD PTR this$[rsp]
	mov	rcx, rax
	call	?_Get_first@?$_Compressed_pair@U?$default_delete@VIAsmHelper@IronMan@@@std@@PEAVIAsmHelper@IronMan@@$00@std@@QEAAAEAU?$default_delete@VIAsmHelper@IronMan@@@2@XZ ; std::_Compressed_pair<std::default_delete<IronMan::IAsmHelper>,IronMan::IAsmHelper *,1>::_Get_first
	mov	QWORD PTR tv77[rsp], rax
	mov	rax, QWORD PTR this$[rsp]
	mov	rax, QWORD PTR [rax]
	mov	QWORD PTR tv75[rsp], rax
	mov	rdx, QWORD PTR tv75[rsp]
	mov	rcx, QWORD PTR tv77[rsp]
	call	??R?$default_delete@VIAsmHelper@IronMan@@@std@@QEBAXPEAVIAsmHelper@IronMan@@@Z ; std::default_delete<IronMan::IAsmHelper>::operator()
	npad	1
$LN2@unique_ptr:

; 3410 :         }
; 3411 :     }

	add	rsp, 56					; 00000038H
	ret	0
??1?$unique_ptr@VIAsmHelper@IronMan@@U?$default_delete@VIAsmHelper@IronMan@@@std@@@std@@QEAA@XZ ENDP ; std::unique_ptr<IronMan::IAsmHelper,std::default_delete<IronMan::IAsmHelper> >::~unique_ptr<IronMan::IAsmHelper,std::default_delete<IronMan::IAsmHelper> >
_TEXT	ENDS
; Function compile flags: /Odtp
; File C:\Program Files\Microsoft Visual Studio\2022\Community\VC\Tools\MSVC\14.43.34808\include\memory
;	COMDAT ??R?$default_delete@VIAsmHelper@IronMan@@@std@@QEBAXPEAVIAsmHelper@IronMan@@@Z
_TEXT	SEGMENT
$T1 = 32
tv71 = 40
tv72 = 48
this$ = 80
_Ptr$ = 88
??R?$default_delete@VIAsmHelper@IronMan@@@std@@QEBAXPEAVIAsmHelper@IronMan@@@Z PROC ; std::default_delete<IronMan::IAsmHelper>::operator(), COMDAT

; 3297 :     _CONSTEXPR23 void operator()(_Ty* _Ptr) const noexcept /* strengthened */ { // delete a pointer

$LN5:
	mov	QWORD PTR [rsp+16], rdx
	mov	QWORD PTR [rsp+8], rcx
	sub	rsp, 72					; 00000048H

; 3298 :         static_assert(0 < sizeof(_Ty), "can't delete an incomplete type");
; 3299 :         delete _Ptr;

	mov	rax, QWORD PTR _Ptr$[rsp]
	mov	QWORD PTR $T1[rsp], rax
	cmp	QWORD PTR $T1[rsp], 0
	je	SHORT $LN3@operator
	mov	rax, QWORD PTR $T1[rsp]
	mov	rax, QWORD PTR [rax]
	mov	rax, QWORD PTR [rax]
	mov	QWORD PTR tv71[rsp], rax
	mov	edx, 1
	mov	rcx, QWORD PTR $T1[rsp]
	call	QWORD PTR tv71[rsp]
	mov	QWORD PTR tv72[rsp], rax
	jmp	SHORT $LN4@operator
$LN3@operator:
	mov	QWORD PTR tv72[rsp], 0
$LN4@operator:

; 3300 :     }

	add	rsp, 72					; 00000048H
	ret	0
??R?$default_delete@VIAsmHelper@IronMan@@@std@@QEBAXPEAVIAsmHelper@IronMan@@@Z ENDP ; std::default_delete<IronMan::IAsmHelper>::operator()
_TEXT	ENDS
; Function compile flags: /Odtp
; File D:\c++\paoda\ThirdParty\AsmJit\x86\x86operand.h
;	COMDAT ??0X86GpReg@asmjit@@QEAA@AEBU01@@Z
_TEXT	SEGMENT
this$ = 48
other$ = 56
??0X86GpReg@asmjit@@QEAA@AEBU01@@Z PROC			; asmjit::X86GpReg::X86GpReg, COMDAT

; 779  :   ASMJIT_INLINE X86GpReg(const X86GpReg& other) : X86Reg(other) {}

$LN3:
	mov	QWORD PTR [rsp+16], rdx
	mov	QWORD PTR [rsp+8], rcx
	sub	rsp, 40					; 00000028H
	mov	rdx, QWORD PTR other$[rsp]
	mov	rcx, QWORD PTR this$[rsp]
	call	??0X86Reg@asmjit@@QEAA@AEBU01@@Z	; asmjit::X86Reg::X86Reg
	npad	1
	mov	rax, QWORD PTR this$[rsp]
	add	rsp, 40					; 00000028H
	ret	0
??0X86GpReg@asmjit@@QEAA@AEBU01@@Z ENDP			; asmjit::X86GpReg::X86GpReg
_TEXT	ENDS
; Function compile flags: /Odtp
; File D:\c++\paoda\ThirdParty\AsmJit\x86\x86operand.h
;	COMDAT ??0X86GpReg@asmjit@@QEAA@XZ
_TEXT	SEGMENT
this$ = 48
??0X86GpReg@asmjit@@QEAA@XZ PROC			; asmjit::X86GpReg::X86GpReg, COMDAT

; 777  :   ASMJIT_INLINE X86GpReg() : X86Reg() {}

$LN3:
	mov	QWORD PTR [rsp+8], rcx
	sub	rsp, 40					; 00000028H
	mov	rcx, QWORD PTR this$[rsp]
	call	??0X86Reg@asmjit@@QEAA@XZ		; asmjit::X86Reg::X86Reg
	npad	1
	mov	rax, QWORD PTR this$[rsp]
	add	rsp, 40					; 00000028H
	ret	0
??0X86GpReg@asmjit@@QEAA@XZ ENDP			; asmjit::X86GpReg::X86GpReg
_TEXT	ENDS
; Function compile flags: /Odtp
; File D:\c++\paoda\ThirdParty\AsmJit\x86\x86operand.h
;	COMDAT ??0X86Reg@asmjit@@QEAA@AEBU01@@Z
_TEXT	SEGMENT
this$ = 48
other$ = 56
??0X86Reg@asmjit@@QEAA@AEBU01@@Z PROC			; asmjit::X86Reg::X86Reg, COMDAT

; 652  :   ASMJIT_INLINE X86Reg(const X86Reg& other) : Reg(other) {}

$LN3:
	mov	QWORD PTR [rsp+16], rdx
	mov	QWORD PTR [rsp+8], rcx
	sub	rsp, 40					; 00000028H
	mov	rdx, QWORD PTR other$[rsp]
	mov	rcx, QWORD PTR this$[rsp]
	call	??0Reg@asmjit@@QEAA@AEBU01@@Z		; asmjit::Reg::Reg
	npad	1
	mov	rax, QWORD PTR this$[rsp]
	add	rsp, 40					; 00000028H
	ret	0
??0X86Reg@asmjit@@QEAA@AEBU01@@Z ENDP			; asmjit::X86Reg::X86Reg
_TEXT	ENDS
; Function compile flags: /Odtp
; File D:\c++\paoda\ThirdParty\AsmJit\x86\x86operand.h
;	COMDAT ??0X86Reg@asmjit@@QEAA@XZ
_TEXT	SEGMENT
this$ = 48
??0X86Reg@asmjit@@QEAA@XZ PROC				; asmjit::X86Reg::X86Reg, COMDAT

; 650  :   ASMJIT_INLINE X86Reg() : Reg() {}

$LN3:
	mov	QWORD PTR [rsp+8], rcx
	sub	rsp, 40					; 00000028H
	mov	rcx, QWORD PTR this$[rsp]
	call	??0Reg@asmjit@@QEAA@XZ			; asmjit::Reg::Reg
	npad	1
	mov	rax, QWORD PTR this$[rsp]
	add	rsp, 40					; 00000028H
	ret	0
??0X86Reg@asmjit@@QEAA@XZ ENDP				; asmjit::X86Reg::X86Reg
_TEXT	ENDS
; Function compile flags: /Odtp
; File D:\c++\paoda\ThirdParty\AsmJit\base\operand.h
;	COMDAT ??0Reg@asmjit@@QEAA@AEBU01@@Z
_TEXT	SEGMENT
this$ = 48
other$ = 56
??0Reg@asmjit@@QEAA@AEBU01@@Z PROC			; asmjit::Reg::Reg, COMDAT

; 540  :   ASMJIT_INLINE Reg(const Reg& other) : Operand(other) {}

$LN3:
	mov	QWORD PTR [rsp+16], rdx
	mov	QWORD PTR [rsp+8], rcx
	sub	rsp, 40					; 00000028H
	mov	rdx, QWORD PTR other$[rsp]
	mov	rcx, QWORD PTR this$[rsp]
	call	??0Operand@asmjit@@QEAA@AEBU01@@Z	; asmjit::Operand::Operand
	npad	1
	mov	rax, QWORD PTR this$[rsp]
	add	rsp, 40					; 00000028H
	ret	0
??0Reg@asmjit@@QEAA@AEBU01@@Z ENDP			; asmjit::Reg::Reg
_TEXT	ENDS
; Function compile flags: /Odtp
; File D:\c++\paoda\ThirdParty\AsmJit\base\operand.h
;	COMDAT ??0Reg@asmjit@@QEAA@XZ
_TEXT	SEGMENT
this$ = 64
??0Reg@asmjit@@QEAA@XZ PROC				; asmjit::Reg::Reg, COMDAT

; 528  :   ASMJIT_INLINE Reg() : Operand(NoInit) {

$LN3:
	mov	QWORD PTR [rsp+8], rcx
	sub	rsp, 56					; 00000038H
	lea	rdx, OFFSET FLAT:?NoInit@asmjit@@3U_NoInit@1@B
	mov	rcx, QWORD PTR this$[rsp]
	call	??0Operand@asmjit@@QEAA@AEBU_NoInit@1@@Z ; asmjit::Operand::Operand

; 529  :     _init_packed_op_sz_w0_id(kOperandTypeReg, 0, (kInvalidReg << 8) + kInvalidReg, kInvalidValue);

	mov	DWORD PTR [rsp+32], -1			; ffffffffH
	mov	r9d, 65535				; 0000ffffH
	xor	r8d, r8d
	mov	edx, 1
	mov	rcx, QWORD PTR this$[rsp]
	call	?_init_packed_op_sz_w0_id@Operand@asmjit@@QEAAXIIII@Z ; asmjit::Operand::_init_packed_op_sz_w0_id

; 530  :     _init_packed_d2_d3(kInvalidVar, 0);

	xor	r8d, r8d
	mov	edx, 255				; 000000ffH
	mov	rcx, QWORD PTR this$[rsp]
	call	?_init_packed_d2_d3@Operand@asmjit@@QEAAXII@Z ; asmjit::Operand::_init_packed_d2_d3
	npad	1

; 531  :   }

	mov	rax, QWORD PTR this$[rsp]
	add	rsp, 56					; 00000038H
	ret	0
??0Reg@asmjit@@QEAA@XZ ENDP				; asmjit::Reg::Reg
_TEXT	ENDS
; Function compile flags: /Odtp
; File D:\c++\paoda\ThirdParty\AsmJit\base\operand.h
;	COMDAT ?_init_packed_d2_d3@Operand@asmjit@@QEAAXII@Z
_TEXT	SEGMENT
tv72 = 32
this$ = 64
u2$ = 72
u3$ = 80
?_init_packed_d2_d3@Operand@asmjit@@QEAAXII@Z PROC	; asmjit::Operand::_init_packed_d2_d3, COMDAT

; 352  :   ASMJIT_INLINE void _init_packed_d2_d3(uint32_t u2, uint32_t u3) {

$LN3:
	mov	DWORD PTR [rsp+24], r8d
	mov	DWORD PTR [rsp+16], edx
	mov	QWORD PTR [rsp+8], rcx
	sub	rsp, 56					; 00000038H

; 353  :     _packed[1].setPacked_2x32(u2, u3);

	mov	eax, 8
	imul	rax, rax, 1
	mov	rcx, QWORD PTR this$[rsp]
	add	rcx, rax
	mov	rax, rcx
	mov	QWORD PTR tv72[rsp], rax
	mov	r8d, DWORD PTR u3$[rsp]
	mov	edx, DWORD PTR u2$[rsp]
	mov	rcx, QWORD PTR tv72[rsp]
	call	?setPacked_2x32@UInt64@asmjit@@QEAAAEAT12@II@Z ; asmjit::UInt64::setPacked_2x32
	npad	1

; 354  :   }

	add	rsp, 56					; 00000038H
	ret	0
?_init_packed_d2_d3@Operand@asmjit@@QEAAXII@Z ENDP	; asmjit::Operand::_init_packed_d2_d3
_TEXT	ENDS
; Function compile flags: /Odtp
; File D:\c++\paoda\ThirdParty\AsmJit\base\operand.h
;	COMDAT ?_init_packed_op_sz_w0_id@Operand@asmjit@@QEAAXIIII@Z
_TEXT	SEGMENT
tv76 = 32
this$ = 64
op$ = 72
sz$ = 80
w0$ = 88
id$ = 96
?_init_packed_op_sz_w0_id@Operand@asmjit@@QEAAXIIII@Z PROC ; asmjit::Operand::_init_packed_op_sz_w0_id, COMDAT

; 344  :   ASMJIT_INLINE void _init_packed_op_sz_w0_id(uint32_t op, uint32_t sz, uint32_t w0, uint32_t id) {

$LN3:
	mov	DWORD PTR [rsp+32], r9d
	mov	DWORD PTR [rsp+24], r8d
	mov	DWORD PTR [rsp+16], edx
	mov	QWORD PTR [rsp+8], rcx
	sub	rsp, 56					; 00000038H

; 345  :     _packed[0].setPacked_2x32(IntUtil::pack32_2x8_1x16(op, sz, w0), id);

	mov	eax, 8
	imul	rax, rax, 0
	mov	rcx, QWORD PTR this$[rsp]
	add	rcx, rax
	mov	rax, rcx
	mov	QWORD PTR tv76[rsp], rax
	mov	r8d, DWORD PTR w0$[rsp]
	mov	edx, DWORD PTR sz$[rsp]
	mov	ecx, DWORD PTR op$[rsp]
	call	?pack32_2x8_1x16@IntUtil@asmjit@@SAIIII@Z ; asmjit::IntUtil::pack32_2x8_1x16
	mov	r8d, DWORD PTR id$[rsp]
	mov	edx, eax
	mov	rcx, QWORD PTR tv76[rsp]
	call	?setPacked_2x32@UInt64@asmjit@@QEAAAEAT12@II@Z ; asmjit::UInt64::setPacked_2x32
	npad	1

; 346  :   }

	add	rsp, 56					; 00000038H
	ret	0
?_init_packed_op_sz_w0_id@Operand@asmjit@@QEAAXIIII@Z ENDP ; asmjit::Operand::_init_packed_op_sz_w0_id
_TEXT	ENDS
; Function compile flags: /Odtp
; File D:\c++\paoda\ThirdParty\AsmJit\base\operand.h
;	COMDAT ?_init@Operand@asmjit@@QEAAXAEBU12@@Z
_TEXT	SEGMENT
this$ = 48
other$ = 56
?_init@Operand@asmjit@@QEAAXAEBU12@@Z PROC		; asmjit::Operand::_init, COMDAT

; 330  :   ASMJIT_INLINE void _init(const Operand& other) {

$LN3:
	mov	QWORD PTR [rsp+16], rdx
	mov	QWORD PTR [rsp+8], rcx
	sub	rsp, 40					; 00000028H

; 331  :     ::memcpy(this, &other, sizeof(Operand));

	mov	r8d, 16
	mov	rdx, QWORD PTR other$[rsp]
	mov	rcx, QWORD PTR this$[rsp]
	call	memcpy
	npad	1

; 332  :   }

	add	rsp, 40					; 00000028H
	ret	0
?_init@Operand@asmjit@@QEAAXAEBU12@@Z ENDP		; asmjit::Operand::_init
_TEXT	ENDS
; Function compile flags: /Odtp
; File D:\c++\paoda\ThirdParty\AsmJit\base\operand.h
;	COMDAT ??0Operand@asmjit@@QEAA@AEBU_NoInit@1@@Z
_TEXT	SEGMENT
this$ = 8
__formal$ = 16
??0Operand@asmjit@@QEAA@AEBU_NoInit@1@@Z PROC		; asmjit::Operand::Operand, COMDAT

; 312  :   explicit ASMJIT_INLINE Operand(const _NoInit&) {}

	mov	QWORD PTR [rsp+16], rdx
	mov	QWORD PTR [rsp+8], rcx
	mov	rax, QWORD PTR this$[rsp]
	ret	0
??0Operand@asmjit@@QEAA@AEBU_NoInit@1@@Z ENDP		; asmjit::Operand::Operand
_TEXT	ENDS
; Function compile flags: /Odtp
; File D:\c++\paoda\ThirdParty\AsmJit\base\operand.h
;	COMDAT ??0Operand@asmjit@@QEAA@AEBU01@@Z
_TEXT	SEGMENT
this$ = 48
other$ = 56
??0Operand@asmjit@@QEAA@AEBU01@@Z PROC			; asmjit::Operand::Operand, COMDAT

; 308  :   ASMJIT_INLINE Operand(const Operand& other) {

$LN3:
	mov	QWORD PTR [rsp+16], rdx
	mov	QWORD PTR [rsp+8], rcx
	sub	rsp, 40					; 00000028H

; 309  :     _init(other);

	mov	rdx, QWORD PTR other$[rsp]
	mov	rcx, QWORD PTR this$[rsp]
	call	?_init@Operand@asmjit@@QEAAXAEBU12@@Z	; asmjit::Operand::_init
	npad	1

; 310  :   }

	mov	rax, QWORD PTR this$[rsp]
	add	rsp, 40					; 00000028H
	ret	0
??0Operand@asmjit@@QEAA@AEBU01@@Z ENDP			; asmjit::Operand::Operand
_TEXT	ENDS
; Function compile flags: /Odtp
; File D:\c++\paoda\ThirdParty\AsmJit\base\intutil.h
;	COMDAT ?setPacked_2x32@UInt64@asmjit@@QEAAAEAT12@II@Z
_TEXT	SEGMENT
this$ = 48
u0$ = 56
u1$ = 64
?setPacked_2x32@UInt64@asmjit@@QEAAAEAT12@II@Z PROC	; asmjit::UInt64::setPacked_2x32, COMDAT

; 498  :   ASMJIT_INLINE UInt64& setPacked_2x32(uint32_t u0, uint32_t u1) {

$LN5:
	mov	DWORD PTR [rsp+24], r8d
	mov	DWORD PTR [rsp+16], edx
	mov	QWORD PTR [rsp+8], rcx
	sub	rsp, 40					; 00000028H

; 499  :     if (kArchHost64Bit) {

	xor	eax, eax
	cmp	eax, 1
	je	SHORT $LN2@setPacked_

; 500  :       u64 = IntUtil::pack64_2x32(u0, u1);

	mov	edx, DWORD PTR u1$[rsp]
	mov	ecx, DWORD PTR u0$[rsp]
	call	?pack64_2x32@IntUtil@asmjit@@SA_KII@Z	; asmjit::IntUtil::pack64_2x32
	mov	rcx, QWORD PTR this$[rsp]
	mov	QWORD PTR [rcx], rax

; 501  :     }

	jmp	SHORT $LN3@setPacked_
$LN2@setPacked_:

; 502  :     else {
; 503  :       u32[0] = u0;

	mov	eax, 4
	imul	rax, rax, 0
	mov	rcx, QWORD PTR this$[rsp]
	mov	edx, DWORD PTR u0$[rsp]
	mov	DWORD PTR [rcx+rax], edx

; 504  :       u32[1] = u1;

	mov	eax, 4
	imul	rax, rax, 1
	mov	rcx, QWORD PTR this$[rsp]
	mov	edx, DWORD PTR u1$[rsp]
	mov	DWORD PTR [rcx+rax], edx
$LN3@setPacked_:

; 505  :     }
; 506  :     return *this;

	mov	rax, QWORD PTR this$[rsp]

; 507  :   }

	add	rsp, 40					; 00000028H
	ret	0
?setPacked_2x32@UInt64@asmjit@@QEAAAEAT12@II@Z ENDP	; asmjit::UInt64::setPacked_2x32
_TEXT	ENDS
; Function compile flags: /Odtp
; File D:\c++\paoda\ThirdParty\AsmJit\base\intutil.h
;	COMDAT ?pack64_2x32@IntUtil@asmjit@@SA_KII@Z
_TEXT	SEGMENT
u0$ = 8
u1$ = 16
?pack64_2x32@IntUtil@asmjit@@SA_KII@Z PROC		; asmjit::IntUtil::pack64_2x32, COMDAT

; 102  :   static ASMJIT_INLINE uint64_t pack64_2x32(uint32_t u0, uint32_t u1) {

	mov	DWORD PTR [rsp+16], edx
	mov	DWORD PTR [rsp+8], ecx

; 103  : #if defined(ASMJIT_HOST_LE)
; 104  :     return (static_cast<uint64_t>(u1) << 32) + u0;

	mov	eax, DWORD PTR u1$[rsp]
	shl	rax, 32					; 00000020H
	mov	ecx, DWORD PTR u0$[rsp]
	add	rax, rcx

; 105  : #else
; 106  :     return (static_cast<uint64_t>(u0) << 32) + u1;
; 107  : #endif // ASMJIT_HOST
; 108  :   }

	ret	0
?pack64_2x32@IntUtil@asmjit@@SA_KII@Z ENDP		; asmjit::IntUtil::pack64_2x32
_TEXT	ENDS
; Function compile flags: /Odtp
; File D:\c++\paoda\ThirdParty\AsmJit\base\intutil.h
;	COMDAT ?pack32_2x8_1x16@IntUtil@asmjit@@SAIIII@Z
_TEXT	SEGMENT
u0$ = 8
u1$ = 16
w2$ = 24
?pack32_2x8_1x16@IntUtil@asmjit@@SAIIII@Z PROC		; asmjit::IntUtil::pack32_2x8_1x16, COMDAT

; 84   :   static ASMJIT_INLINE uint32_t pack32_2x8_1x16(uint32_t u0, uint32_t u1, uint32_t w2) {

	mov	DWORD PTR [rsp+24], r8d
	mov	DWORD PTR [rsp+16], edx
	mov	DWORD PTR [rsp+8], ecx

; 85   : #if defined(ASMJIT_HOST_LE)
; 86   :     return u0 + (u1 << 8) + (w2 << 16);

	mov	eax, DWORD PTR u1$[rsp]
	shl	eax, 8
	mov	ecx, DWORD PTR u0$[rsp]
	add	ecx, eax
	mov	eax, ecx
	mov	ecx, DWORD PTR w2$[rsp]
	shl	ecx, 16
	add	eax, ecx

; 87   : #else
; 88   :     return (u0 << 24) + (u1 << 16) + (w2);
; 89   : #endif // ASMJIT_HOST
; 90   :   }

	ret	0
?pack32_2x8_1x16@IntUtil@asmjit@@SAIIII@Z ENDP		; asmjit::IntUtil::pack32_2x8_1x16
_TEXT	ENDS
; Function compile flags: /Odtp
; File D:\c++\paoda\Helper\HttpLib\httplib.h
;	COMDAT ??__Esslinit_@detail@httplib@@YAXXZ
text$di	SEGMENT
??__Esslinit_@detail@httplib@@YAXXZ PROC		; httplib::detail::`dynamic initializer for 'sslinit_'', COMDAT

; 8802 :         static SSLInit sslinit_;

	sub	rsp, 40					; 00000028H
	lea	rcx, OFFSET FLAT:?sslinit_@detail@httplib@@3VSSLInit@12@A
	call	??0SSLInit@detail@httplib@@QEAA@XZ	; httplib::detail::SSLInit::SSLInit
	npad	1
	add	rsp, 40					; 00000028H
	ret	0
??__Esslinit_@detail@httplib@@YAXXZ ENDP		; httplib::detail::`dynamic initializer for 'sslinit_''
text$di	ENDS
; Function compile flags: /Odtp
; File D:\c++\paoda\Helper\HttpLib\httplib.h
;	COMDAT ??0SSLInit@detail@httplib@@QEAA@XZ
_TEXT	SEGMENT
this$ = 48
??0SSLInit@detail@httplib@@QEAA@XZ PROC			; httplib::detail::SSLInit::SSLInit, COMDAT

; 8693 :             SSLInit() {

$LN3:
	mov	QWORD PTR [rsp+8], rcx
	sub	rsp, 40					; 00000028H

; 8694 :                 OPENSSL_init_ssl(

	xor	edx, edx
	mov	ecx, 2097154				; 00200002H
	call	OPENSSL_init_ssl
	npad	1

; 8695 :                     OPENSSL_INIT_LOAD_SSL_STRINGS | OPENSSL_INIT_LOAD_CRYPTO_STRINGS, NULL);
; 8696 :             }

	mov	rax, QWORD PTR this$[rsp]
	add	rsp, 40					; 00000028H
	ret	0
??0SSLInit@detail@httplib@@QEAA@XZ ENDP			; httplib::detail::SSLInit::SSLInit
_TEXT	ENDS
; Function compile flags: /Odtp
;	COMDAT ??__Fwsinit_@detail@httplib@@YAXXZ
text$yd	SEGMENT
??__Fwsinit_@detail@httplib@@YAXXZ PROC			; httplib::detail::`dynamic atexit destructor for 'wsinit_'', COMDAT
	sub	rsp, 40					; 00000028H
	lea	rcx, OFFSET FLAT:?wsinit_@detail@httplib@@3VWSInit@12@A
	call	??1WSInit@detail@httplib@@QEAA@XZ	; httplib::detail::WSInit::~WSInit
	npad	1
	add	rsp, 40					; 00000028H
	ret	0
??__Fwsinit_@detail@httplib@@YAXXZ ENDP			; httplib::detail::`dynamic atexit destructor for 'wsinit_''
text$yd	ENDS
; Function compile flags: /Odtp
; File D:\c++\paoda\Helper\HttpLib\httplib.h
;	COMDAT ??__Ewsinit_@detail@httplib@@YAXXZ
text$di	SEGMENT
??__Ewsinit_@detail@httplib@@YAXXZ PROC			; httplib::detail::`dynamic initializer for 'wsinit_'', COMDAT

; 5291 :         static WSInit wsinit_;

	sub	rsp, 40					; 00000028H
	lea	rcx, OFFSET FLAT:?wsinit_@detail@httplib@@3VWSInit@12@A
	call	??0WSInit@detail@httplib@@QEAA@XZ	; httplib::detail::WSInit::WSInit
	lea	rcx, OFFSET FLAT:??__Fwsinit_@detail@httplib@@YAXXZ ; httplib::detail::`dynamic atexit destructor for 'wsinit_''
	call	atexit
	npad	1
	add	rsp, 40					; 00000028H
	ret	0
??__Ewsinit_@detail@httplib@@YAXXZ ENDP			; httplib::detail::`dynamic initializer for 'wsinit_''
text$di	ENDS
; Function compile flags: /Odtp
; File D:\c++\paoda\Helper\HttpLib\httplib.h
;	COMDAT ??1WSInit@detail@httplib@@QEAA@XZ
_TEXT	SEGMENT
this$ = 48
??1WSInit@detail@httplib@@QEAA@XZ PROC			; httplib::detail::WSInit::~WSInit, COMDAT

; 5284 :             ~WSInit() {

$LN4:
	mov	QWORD PTR [rsp+8], rcx
	sub	rsp, 40					; 00000028H

; 5285 :                 if (is_valid_) WSACleanup();

	mov	rax, QWORD PTR this$[rsp]
	movzx	eax, BYTE PTR [rax]
	test	eax, eax
	je	SHORT $LN2@WSInit
	call	QWORD PTR __imp_WSACleanup
	npad	1
$LN2@WSInit:

; 5286 :             }

	add	rsp, 40					; 00000028H
	ret	0
??1WSInit@detail@httplib@@QEAA@XZ ENDP			; httplib::detail::WSInit::~WSInit
_TEXT	ENDS
; Function compile flags: /Odtp
; File D:\c++\paoda\Helper\HttpLib\httplib.h
;	COMDAT ??0WSInit@detail@httplib@@QEAA@XZ
_TEXT	SEGMENT
wsaData$ = 32
__$ArrayPad$ = 448
this$ = 480
??0WSInit@detail@httplib@@QEAA@XZ PROC			; httplib::detail::WSInit::WSInit, COMDAT

; 5279 :             WSInit() {

$LN4:
	mov	QWORD PTR [rsp+8], rcx
	sub	rsp, 472				; 000001d8H
	mov	rax, QWORD PTR __security_cookie
	xor	rax, rsp
	mov	QWORD PTR __$ArrayPad$[rsp], rax

; 5283 : 
; 5284 :             ~WSInit() {
; 5285 :                 if (is_valid_) WSACleanup();
; 5286 :             }
; 5287 : 
; 5288 :             bool is_valid_ = false;

	mov	rax, QWORD PTR this$[rsp]
	mov	BYTE PTR [rax], 0

; 5280 :                 WSADATA wsaData;
; 5281 :                 if (WSAStartup(0x0002, &wsaData) == 0) is_valid_ = true;

	lea	rdx, QWORD PTR wsaData$[rsp]
	mov	cx, 2
	call	QWORD PTR __imp_WSAStartup
	test	eax, eax
	jne	SHORT $LN2@WSInit
	mov	rax, QWORD PTR this$[rsp]
	mov	BYTE PTR [rax], 1
$LN2@WSInit:

; 5282 :             }

	mov	rax, QWORD PTR this$[rsp]
	mov	rcx, QWORD PTR __$ArrayPad$[rsp]
	xor	rcx, rsp
	call	__security_check_cookie
	add	rsp, 472				; 000001d8H
	ret	0
??0WSInit@detail@httplib@@QEAA@XZ ENDP			; httplib::detail::WSInit::WSInit
_TEXT	ENDS
; Function compile flags: /Odtp
; File C:\Program Files\Microsoft Visual Studio\2022\Community\VC\Tools\MSVC\14.43.34808\include\xmemory
;	COMDAT ?_Alloc_proxy@_Container_base0@std@@QEAAXAEBU_Fake_allocator@2@@Z
_TEXT	SEGMENT
this$ = 8
__formal$ = 16
?_Alloc_proxy@_Container_base0@std@@QEAAXAEBU_Fake_allocator@2@@Z PROC ; std::_Container_base0::_Alloc_proxy, COMDAT

; 1182 :     _CONSTEXPR20 void _Alloc_proxy(const _Fake_allocator&) noexcept {}

	mov	QWORD PTR [rsp+16], rdx
	mov	QWORD PTR [rsp+8], rcx
	ret	0
?_Alloc_proxy@_Container_base0@std@@QEAAXAEBU_Fake_allocator@2@@Z ENDP ; std::_Container_base0::_Alloc_proxy
_TEXT	ENDS
; Function compile flags: /Odtp
; File C:\Program Files\Microsoft Visual Studio\2022\Community\VC\Tools\MSVC\14.43.34808\include\xmemory
;	COMDAT ?_Orphan_all@_Container_base0@std@@QEAAXXZ
_TEXT	SEGMENT
this$ = 8
?_Orphan_all@_Container_base0@std@@QEAAXXZ PROC		; std::_Container_base0::_Orphan_all, COMDAT

; 1180 :     _CONSTEXPR20 void _Orphan_all() noexcept {}

	mov	QWORD PTR [rsp+8], rcx
	ret	0
?_Orphan_all@_Container_base0@std@@QEAAXXZ ENDP		; std::_Container_base0::_Orphan_all
_TEXT	ENDS
; Function compile flags: /Odtp
; File C:\Program Files\Microsoft Visual Studio\2022\Community\VC\Tools\MSVC\14.43.34808\include\xmemory
;	COMDAT ?_Adjust_manually_vector_aligned@std@@YAXAEAPEAXAEA_K@Z
_TEXT	SEGMENT
_Back_shift$ = 32
_Ptr_container$ = 40
_Ptr_user$ = 48
_Min_back_shift$ = 56
_Ptr$ = 80
_Bytes$ = 88
?_Adjust_manually_vector_aligned@std@@YAXAEAPEAXAEA_K@Z PROC ; std::_Adjust_manually_vector_aligned, COMDAT

; 200  : inline void _Adjust_manually_vector_aligned(void*& _Ptr, size_t& _Bytes) {

$LN11:
	mov	QWORD PTR [rsp+16], rdx
	mov	QWORD PTR [rsp+8], rcx
	sub	rsp, 72					; 00000048H

; 201  :     // adjust parameters from _Allocate_manually_vector_aligned to pass to operator delete
; 202  :     _Bytes += _Non_user_size;

	mov	rax, QWORD PTR _Bytes$[rsp]
	mov	rax, QWORD PTR [rax]
	add	rax, 39					; 00000027H
	mov	rcx, QWORD PTR _Bytes$[rsp]
	mov	QWORD PTR [rcx], rax

; 203  : 
; 204  :     const uintptr_t* const _Ptr_user = static_cast<uintptr_t*>(_Ptr);

	mov	rax, QWORD PTR _Ptr$[rsp]
	mov	rax, QWORD PTR [rax]
	mov	QWORD PTR _Ptr_user$[rsp], rax

; 205  :     const uintptr_t _Ptr_container   = _Ptr_user[-1];

	mov	eax, 8
	imul	rax, rax, -1
	mov	rcx, QWORD PTR _Ptr_user$[rsp]
	mov	rax, QWORD PTR [rcx+rax]
	mov	QWORD PTR _Ptr_container$[rsp], rax

; 206  : 
; 207  :     // If the following asserts, it likely means that we are performing
; 208  :     // an aligned delete on memory coming from an unaligned allocation.
; 209  :     _STL_ASSERT(_Ptr_user[-2] == _Big_allocation_sentinel, "invalid argument");
; 210  : 
; 211  :     // Extra paranoia on aligned allocation/deallocation; ensure _Ptr_container is
; 212  :     // in range [_Min_back_shift, _Non_user_size]
; 213  : #ifdef _DEBUG
; 214  :     constexpr uintptr_t _Min_back_shift = 2 * sizeof(void*);
; 215  : #else // ^^^ defined(_DEBUG) / !defined(_DEBUG) vvv
; 216  :     constexpr uintptr_t _Min_back_shift = sizeof(void*);

	mov	QWORD PTR _Min_back_shift$[rsp], 8

; 217  : #endif // ^^^ !defined(_DEBUG) ^^^
; 218  :     const uintptr_t _Back_shift = reinterpret_cast<uintptr_t>(_Ptr) - _Ptr_container;

	mov	rax, QWORD PTR _Ptr$[rsp]
	mov	rcx, QWORD PTR _Ptr_container$[rsp]
	mov	rax, QWORD PTR [rax]
	sub	rax, rcx
	mov	QWORD PTR _Back_shift$[rsp], rax
$LN4@Adjust_man:

; 219  :     _STL_VERIFY(_Back_shift >= _Min_back_shift && _Back_shift <= _Non_user_size, "invalid argument");

	cmp	QWORD PTR _Back_shift$[rsp], 8
	jb	SHORT $LN8@Adjust_man
	cmp	QWORD PTR _Back_shift$[rsp], 39		; 00000027H
	ja	SHORT $LN8@Adjust_man
	jmp	SHORT $LN9@Adjust_man
$LN8@Adjust_man:
$LN7@Adjust_man:
	call	_invalid_parameter_noinfo_noreturn
	npad	1
	xor	eax, eax
	test	eax, eax
	jne	SHORT $LN7@Adjust_man
$LN9@Adjust_man:
	xor	eax, eax
	test	eax, eax
	jne	SHORT $LN4@Adjust_man

; 220  :     _Ptr = reinterpret_cast<void*>(_Ptr_container);

	mov	rax, QWORD PTR _Ptr$[rsp]
	mov	rcx, QWORD PTR _Ptr_container$[rsp]
	mov	QWORD PTR [rax], rcx
$LN10@Adjust_man:

; 221  : }

	add	rsp, 72					; 00000048H
	ret	0
?_Adjust_manually_vector_aligned@std@@YAXAEAPEAXAEA_K@Z ENDP ; std::_Adjust_manually_vector_aligned
_TEXT	ENDS
; Function compile flags: /Odtp
;	COMDAT ??_H@YAXPEAX_K1P6APEAX0@Z@Z
_TEXT	SEGMENT
tv66 = 32
tv70 = 40
__t$ = 64
__s$ = 72
__n$ = 80
__f$ = 88
??_H@YAXPEAX_K1P6APEAX0@Z@Z PROC			; `vector constructor iterator', COMDAT
$LN5:
	mov	QWORD PTR [rsp+32], r9
	mov	QWORD PTR [rsp+24], r8
	mov	QWORD PTR [rsp+16], rdx
	mov	QWORD PTR [rsp+8], rcx
	sub	rsp, 56					; 00000038H
$LN2@vector:
	mov	rax, QWORD PTR __n$[rsp]
	mov	QWORD PTR tv66[rsp], rax
	mov	rax, QWORD PTR __n$[rsp]
	dec	rax
	mov	QWORD PTR __n$[rsp], rax
	cmp	QWORD PTR tv66[rsp], 0
	jbe	SHORT $LN3@vector
	mov	rax, QWORD PTR __f$[rsp]
	mov	QWORD PTR tv70[rsp], rax
	mov	rcx, QWORD PTR __t$[rsp]
	call	QWORD PTR tv70[rsp]
	mov	rax, QWORD PTR __s$[rsp]
	mov	rcx, QWORD PTR __t$[rsp]
	add	rcx, rax
	mov	rax, rcx
	mov	QWORD PTR __t$[rsp], rax
	jmp	SHORT $LN2@vector
$LN3@vector:
	add	rsp, 56					; 00000038H
	ret	0
??_H@YAXPEAX_K1P6APEAX0@Z@Z ENDP			; `vector constructor iterator'
_TEXT	ENDS
END
