; Listing generated by Microsoft (R) Optimizing Compiler Version 19.43.34810.0 

include listing.inc

INCLUDELIB LIBCMT
INCLUDELIB OLDNAMES

PUBLIC	??_C@_06GLKGGCJO@LcOpen@			; `string'
PUBLIC	??_C@_06GJPHNGFG@LcRead@			; `string'
PUBLIC	??_C@_0O@CBBNAKKC@LcReadScatter@		; `string'
PUBLIC	??_C@_07MBHEMNEL@LcWrite@			; `string'
PUBLIC	??_C@_0P@DAJMPOFM@LcWriteScatter@		; `string'
PUBLIC	??_C@_0M@HBBFEIGD@LcGetOption@			; `string'
PUBLIC	??_C@_0M@FPFAGJPB@LcSetOption@			; `string'
PUBLIC	??_C@_09DCHLEDFD@LcCommand@			; `string'
PUBLIC	??_C@_03HPADHAHE@N?1A@				; `string'
PUBLIC	??_C@_03HDGGCCPD@X86@				; `string'
PUBLIC	??_C@_06IDLKBMKC@X86PAE@			; `string'
PUBLIC	??_C@_03ELMOGNHL@X64@				; `string'
PUBLIC	??_C@_05DKFIPBAL@ARM64@				; `string'
PUBLIC	??_C@_04PCJGBDOP@Zero@				; `string'
PUBLIC	??_C@_04HJMOFLDF@Free@				; `string'
PUBLIC	??_C@_07LNBDIIPN@Standby@			; `string'
PUBLIC	??_C@_07PFEKAJBJ@Modifiy@			; `string'
PUBLIC	??_C@_07DGKCKENG@ModNoWr@			; `string'
PUBLIC	??_C@_03KHCCLPOB@Bad@				; `string'
PUBLIC	??_C@_06MAFFGDO@Active@				; `string'
PUBLIC	??_C@_07KADDEKFE@Transit@			; `string'
PUBLIC	??_C@_01JOAMLHOP@?9@				; `string'
PUBLIC	??_C@_06CGLFEPBO@Unused@			; `string'
PUBLIC	??_C@_08LBAJPEDB@ProcPriv@			; `string'
PUBLIC	??_C@_09BGPMMIPE@PageTable@			; `string'
PUBLIC	??_C@_09MFCNICMF@LargePage@			; `string'
PUBLIC	??_C@_0L@DHBAIELD@DriverLock@			; `string'
PUBLIC	??_C@_09PKFILKGD@Shareable@			; `string'
PUBLIC	??_C@_04PBAHLACE@File@				; `string'
PUBLIC	_Avx2WmemEnabledWeakValue
EXTRN	?x86RegData@asmjit@@3UX86RegData@1@B:BYTE	; asmjit::x86RegData
;	COMDAT _Avx2WmemEnabledWeakValue
_BSS	SEGMENT
_Avx2WmemEnabledWeakValue DD 01H DUP (?)
_BSS	ENDS
;	COMDAT ??_C@_04PBAHLACE@File@
CONST	SEGMENT
??_C@_04PBAHLACE@File@ DB 'File', 00H			; `string'
CONST	ENDS
;	COMDAT ??_C@_09PKFILKGD@Shareable@
CONST	SEGMENT
??_C@_09PKFILKGD@Shareable@ DB 'Shareable', 00H		; `string'
CONST	ENDS
;	COMDAT ??_C@_0L@DHBAIELD@DriverLock@
CONST	SEGMENT
??_C@_0L@DHBAIELD@DriverLock@ DB 'DriverLock', 00H	; `string'
CONST	ENDS
;	COMDAT ??_C@_09MFCNICMF@LargePage@
CONST	SEGMENT
??_C@_09MFCNICMF@LargePage@ DB 'LargePage', 00H		; `string'
CONST	ENDS
;	COMDAT ??_C@_09BGPMMIPE@PageTable@
CONST	SEGMENT
??_C@_09BGPMMIPE@PageTable@ DB 'PageTable', 00H		; `string'
CONST	ENDS
;	COMDAT ??_C@_08LBAJPEDB@ProcPriv@
CONST	SEGMENT
??_C@_08LBAJPEDB@ProcPriv@ DB 'ProcPriv', 00H		; `string'
CONST	ENDS
;	COMDAT ??_C@_06CGLFEPBO@Unused@
CONST	SEGMENT
??_C@_06CGLFEPBO@Unused@ DB 'Unused', 00H		; `string'
CONST	ENDS
;	COMDAT ??_C@_01JOAMLHOP@?9@
CONST	SEGMENT
??_C@_01JOAMLHOP@?9@ DB '-', 00H			; `string'
CONST	ENDS
;	COMDAT ??_C@_07KADDEKFE@Transit@
CONST	SEGMENT
??_C@_07KADDEKFE@Transit@ DB 'Transit', 00H		; `string'
CONST	ENDS
;	COMDAT ??_C@_06MAFFGDO@Active@
CONST	SEGMENT
??_C@_06MAFFGDO@Active@ DB 'Active', 00H		; `string'
CONST	ENDS
;	COMDAT ??_C@_03KHCCLPOB@Bad@
CONST	SEGMENT
??_C@_03KHCCLPOB@Bad@ DB 'Bad', 00H			; `string'
CONST	ENDS
;	COMDAT ??_C@_07DGKCKENG@ModNoWr@
CONST	SEGMENT
??_C@_07DGKCKENG@ModNoWr@ DB 'ModNoWr', 00H		; `string'
CONST	ENDS
;	COMDAT ??_C@_07PFEKAJBJ@Modifiy@
CONST	SEGMENT
??_C@_07PFEKAJBJ@Modifiy@ DB 'Modifiy', 00H		; `string'
CONST	ENDS
;	COMDAT ??_C@_07LNBDIIPN@Standby@
CONST	SEGMENT
??_C@_07LNBDIIPN@Standby@ DB 'Standby', 00H		; `string'
CONST	ENDS
;	COMDAT ??_C@_04HJMOFLDF@Free@
CONST	SEGMENT
??_C@_04HJMOFLDF@Free@ DB 'Free', 00H			; `string'
CONST	ENDS
;	COMDAT ??_C@_04PCJGBDOP@Zero@
CONST	SEGMENT
??_C@_04PCJGBDOP@Zero@ DB 'Zero', 00H			; `string'
CONST	ENDS
CONST	SEGMENT
?NoInit@asmjit@@3U_NoInit@1@B	ORG $+1			; asmjit::NoInit
CONST	ENDS
;	COMDAT ??_C@_05DKFIPBAL@ARM64@
CONST	SEGMENT
??_C@_05DKFIPBAL@ARM64@ DB 'ARM64', 00H			; `string'
CONST	ENDS
;	COMDAT ??_C@_03ELMOGNHL@X64@
CONST	SEGMENT
??_C@_03ELMOGNHL@X64@ DB 'X64', 00H			; `string'
CONST	ENDS
;	COMDAT ??_C@_06IDLKBMKC@X86PAE@
CONST	SEGMENT
??_C@_06IDLKBMKC@X86PAE@ DB 'X86PAE', 00H		; `string'
CONST	ENDS
;	COMDAT ??_C@_03HDGGCCPD@X86@
CONST	SEGMENT
??_C@_03HDGGCCPD@X86@ DB 'X86', 00H			; `string'
CONST	ENDS
;	COMDAT ??_C@_03HPADHAHE@N?1A@
CONST	SEGMENT
??_C@_03HPADHAHE@N?1A@ DB 'N/A', 00H			; `string'
CONST	ENDS
;	COMDAT ??_C@_09DCHLEDFD@LcCommand@
CONST	SEGMENT
??_C@_09DCHLEDFD@LcCommand@ DB 'LcCommand', 00H		; `string'
CONST	ENDS
;	COMDAT ??_C@_0M@FPFAGJPB@LcSetOption@
CONST	SEGMENT
??_C@_0M@FPFAGJPB@LcSetOption@ DB 'LcSetOption', 00H	; `string'
CONST	ENDS
;	COMDAT ??_C@_0M@HBBFEIGD@LcGetOption@
CONST	SEGMENT
??_C@_0M@HBBFEIGD@LcGetOption@ DB 'LcGetOption', 00H	; `string'
CONST	ENDS
;	COMDAT ??_C@_0P@DAJMPOFM@LcWriteScatter@
CONST	SEGMENT
??_C@_0P@DAJMPOFM@LcWriteScatter@ DB 'LcWriteScatter', 00H ; `string'
CONST	ENDS
;	COMDAT ??_C@_07MBHEMNEL@LcWrite@
CONST	SEGMENT
??_C@_07MBHEMNEL@LcWrite@ DB 'LcWrite', 00H		; `string'
CONST	ENDS
;	COMDAT ??_C@_0O@CBBNAKKC@LcReadScatter@
CONST	SEGMENT
??_C@_0O@CBBNAKKC@LcReadScatter@ DB 'LcReadScatter', 00H ; `string'
CONST	ENDS
;	COMDAT ??_C@_06GJPHNGFG@LcRead@
CONST	SEGMENT
??_C@_06GJPHNGFG@LcRead@ DB 'LcRead', 00H		; `string'
CONST	ENDS
;	COMDAT ??_C@_06GLKGGCJO@LcOpen@
CONST	SEGMENT
??_C@_06GLKGGCJO@LcOpen@ DB 'LcOpen', 00H		; `string'
CONST	ENDS
PUBLIC	??_H@YAXPEAX_K1P6APEAX0@Z@Z			; `vector constructor iterator'
PUBLIC	?Align@@YA_K_K0@Z				; Align
PUBLIC	??0WSInit@detail@httplib@@QEAA@XZ		; httplib::detail::WSInit::WSInit
PUBLIC	??1WSInit@detail@httplib@@QEAA@XZ		; httplib::detail::WSInit::~WSInit
PUBLIC	??0SSLInit@detail@httplib@@QEAA@XZ		; httplib::detail::SSLInit::SSLInit
PUBLIC	?pack32_4x8@IntUtil@asmjit@@SAIIIII@Z		; asmjit::IntUtil::pack32_4x8
PUBLIC	?pack64_2x32@IntUtil@asmjit@@SA_KII@Z		; asmjit::IntUtil::pack64_2x32
PUBLIC	?setPacked_2x32@UInt64@asmjit@@QEAAAEAT12@II@Z	; asmjit::UInt64::setPacked_2x32
PUBLIC	??0Operand@asmjit@@QEAA@AEBU01@@Z		; asmjit::Operand::Operand
PUBLIC	??0Operand@asmjit@@QEAA@AEBU_NoInit@1@@Z	; asmjit::Operand::Operand
PUBLIC	?_init@Operand@asmjit@@QEAAXAEBU12@@Z		; asmjit::Operand::_init
PUBLIC	?_init_packed_op_sz_b0_b1_id@Operand@asmjit@@QEAAXIIIII@Z ; asmjit::Operand::_init_packed_op_sz_b0_b1_id
PUBLIC	?_init_packed_d2_d3@Operand@asmjit@@QEAAXII@Z	; asmjit::Operand::_init_packed_d2_d3
PUBLIC	??0Reg@asmjit@@QEAA@AEBU01@@Z			; asmjit::Reg::Reg
PUBLIC	?getRegIndex@Reg@asmjit@@QEBAIXZ		; asmjit::Reg::getRegIndex
PUBLIC	??0BaseMem@asmjit@@QEAA@AEBU_NoInit@1@@Z	; asmjit::BaseMem::BaseMem
PUBLIC	??0Label@asmjit@@QEAA@AEBU01@@Z			; asmjit::Label::Label
PUBLIC	??0Label@asmjit@@QEAA@AEBU_NoInit@1@@Z		; asmjit::Label::Label
PUBLIC	?newLabel@Assembler@asmjit@@QEAA?AULabel@2@XZ	; asmjit::Assembler::newLabel
PUBLIC	??0X86Reg@asmjit@@QEAA@AEBU01@@Z		; asmjit::X86Reg::X86Reg
PUBLIC	??0X86GpReg@asmjit@@QEAA@AEBU01@@Z		; asmjit::X86GpReg::X86GpReg
PUBLIC	??0X86XmmReg@asmjit@@QEAA@AEBU01@@Z		; asmjit::X86XmmReg::X86XmmReg
PUBLIC	??0X86Mem@asmjit@@QEAA@AEBUX86GpReg@1@HI@Z	; asmjit::X86Mem::X86Mem
PUBLIC	?setSegment@X86Mem@asmjit@@QEAAAEAU12@I@Z	; asmjit::X86Mem::setSegment
PUBLIC	?setSegment@X86Mem@asmjit@@QEAAAEAU12@AEBUX86SegReg@2@@Z ; asmjit::X86Mem::setSegment
PUBLIC	?_getGpdFlags@X86Mem@asmjit@@SAIAEBUOperand@2@@Z ; asmjit::X86Mem::_getGpdFlags
PUBLIC	?db@X86Assembler@asmjit@@QEAAXE@Z		; asmjit::X86Assembler::db
PUBLIC	?dd@X86Assembler@asmjit@@QEAAXI@Z		; asmjit::X86Assembler::dd
PUBLIC	?add@X86Assembler@asmjit@@QEAAIAEBUX86GpReg@2@_K@Z ; asmjit::X86Assembler::add
PUBLIC	?add@X86Assembler@asmjit@@QEAAIAEBUX86Mem@2@H@Z	; asmjit::X86Assembler::add
PUBLIC	?and_@X86Assembler@asmjit@@QEAAIAEBUX86GpReg@2@_K@Z ; asmjit::X86Assembler::and_
PUBLIC	?call@X86Assembler@asmjit@@QEAAIAEBUX86GpReg@2@@Z ; asmjit::X86Assembler::call
PUBLIC	?call@X86Assembler@asmjit@@QEAAIAEBULabel@2@@Z	; asmjit::X86Assembler::call
PUBLIC	?lea@X86Assembler@asmjit@@QEAAIAEBUX86GpReg@2@AEBUX86Mem@2@@Z ; asmjit::X86Assembler::lea
PUBLIC	?mov@X86Assembler@asmjit@@QEAAIAEBUX86GpReg@2@0@Z ; asmjit::X86Assembler::mov
PUBLIC	?mov@X86Assembler@asmjit@@QEAAIAEBUX86GpReg@2@AEBUX86Mem@2@@Z ; asmjit::X86Assembler::mov
PUBLIC	?mov@X86Assembler@asmjit@@QEAAIAEBUX86GpReg@2@H@Z ; asmjit::X86Assembler::mov
PUBLIC	?mov@X86Assembler@asmjit@@QEAAIAEBUX86GpReg@2@I@Z ; asmjit::X86Assembler::mov
PUBLIC	?mov@X86Assembler@asmjit@@QEAAIAEBUX86GpReg@2@_K@Z ; asmjit::X86Assembler::mov
PUBLIC	?mov@X86Assembler@asmjit@@QEAAIAEBUX86Mem@2@AEBUX86GpReg@2@@Z ; asmjit::X86Assembler::mov
PUBLIC	?mov@X86Assembler@asmjit@@QEAAIAEBUX86Mem@2@H@Z	; asmjit::X86Assembler::mov
PUBLIC	?push@X86Assembler@asmjit@@QEAAIH@Z		; asmjit::X86Assembler::push
PUBLIC	?ret@X86Assembler@asmjit@@QEAAIXZ		; asmjit::X86Assembler::ret
PUBLIC	?sub@X86Assembler@asmjit@@QEAAIAEBUX86GpReg@2@_K@Z ; asmjit::X86Assembler::sub
PUBLIC	?movq@X86Assembler@asmjit@@QEAAIAEBUX86XmmReg@2@AEBUX86GpReg@2@@Z ; asmjit::X86Assembler::movq
PUBLIC	?getImm_float@AsmVariant@IronMan@@QEBAIXZ	; IronMan::AsmVariant::getImm_float
PUBLIC	?getImm_double@AsmVariant@IronMan@@QEBA_KXZ	; IronMan::AsmVariant::getImm_double
PUBLIC	??0IAsmHelper@IronMan@@QEAA@I@Z			; IronMan::IAsmHelper::IAsmHelper
PUBLIC	??1IAsmHelper@IronMan@@UEAA@XZ			; IronMan::IAsmHelper::~IAsmHelper
PUBLIC	?SwitchTo86@IAsmHelper@IronMan@@QEAAXXZ		; IronMan::IAsmHelper::SwitchTo86
PUBLIC	?SwitchTo64@IAsmHelper@IronMan@@QEAAXXZ		; IronMan::IAsmHelper::SwitchTo64
PUBLIC	??_GIAsmHelper@IronMan@@UEAAPEAXI@Z		; IronMan::IAsmHelper::`scalar deleting destructor'
PUBLIC	??0AsmHelper64@IronMan@@QEAA@XZ			; IronMan::AsmHelper64::AsmHelper64
PUBLIC	??1AsmHelper64@IronMan@@UEAA@XZ			; IronMan::AsmHelper64::~AsmHelper64
PUBLIC	?GenPrologue@AsmHelper64@IronMan@@UEAAX_N@Z	; IronMan::AsmHelper64::GenPrologue
PUBLIC	?GenEpilogue@AsmHelper64@IronMan@@UEAAX_NH@Z	; IronMan::AsmHelper64::GenEpilogue
PUBLIC	?GenCall@AsmHelper64@IronMan@@UEAAXAEBUAsmFunctionPtr@2@AEBV?$vector@UAsmVariant@IronMan@@V?$allocator@UAsmVariant@IronMan@@@std@@@std@@W4eCalligConvention@2@@Z ; IronMan::AsmHelper64::GenCall
PUBLIC	?ExitThreadWithStatus@AsmHelper64@IronMan@@UEAAX_K0@Z ; IronMan::AsmHelper64::ExitThreadWithStatus
PUBLIC	?SaveRetValAndSignalEvent@AsmHelper64@IronMan@@UEAAX_K000W4eReturnType@2@@Z ; IronMan::AsmHelper64::SaveRetValAndSignalEvent
PUBLIC	?EnableX64CallStack@AsmHelper64@IronMan@@UEAAX_N@Z ; IronMan::AsmHelper64::EnableX64CallStack
PUBLIC	?PushArg@AsmHelper64@IronMan@@AEAAXAEBUAsmVariant@2@H@Z ; IronMan::AsmHelper64::PushArg
PUBLIC	??_GAsmHelper64@IronMan@@UEAAPEAXI@Z		; IronMan::AsmHelper64::`scalar deleting destructor'
PUBLIC	?size@?$vector@UAsmVariant@IronMan@@V?$allocator@UAsmVariant@IronMan@@@std@@@std@@QEBA_KXZ ; std::vector<IronMan::AsmVariant,std::allocator<IronMan::AsmVariant> >::size
PUBLIC	??A?$vector@UAsmVariant@IronMan@@V?$allocator@UAsmVariant@IronMan@@@std@@@std@@QEBAAEBUAsmVariant@IronMan@@_K@Z ; std::vector<IronMan::AsmVariant,std::allocator<IronMan::AsmVariant> >::operator[]
PUBLIC	??$PushArgp@_K@AsmHelper64@IronMan@@AEAAXAEB_KH_N@Z ; IronMan::AsmHelper64::PushArgp<unsigned __int64>
PUBLIC	??$PushArgp@I@AsmHelper64@IronMan@@AEAAXAEBIH_N@Z ; IronMan::AsmHelper64::PushArgp<unsigned int>
PUBLIC	??$PushArgp@UX86GpReg@asmjit@@@AsmHelper64@IronMan@@AEAAXAEBUX86GpReg@asmjit@@H_N@Z ; IronMan::AsmHelper64::PushArgp<asmjit::X86GpReg>
PUBLIC	??$PushArgp@UX86Mem@asmjit@@@AsmHelper64@IronMan@@AEAAXAEBUX86Mem@asmjit@@H_N@Z ; IronMan::AsmHelper64::PushArgp<asmjit::X86Mem>
PUBLIC	??$?0$0A@@id@locale@std@@QEAA@XZ		; std::locale::id::id<0>
PUBLIC	??_7IAsmHelper@IronMan@@6B@			; IronMan::IAsmHelper::`vftable'
PUBLIC	??_7AsmHelper64@IronMan@@6B@			; IronMan::AsmHelper64::`vftable'
PUBLIC	?id@?$num_put@DV?$ostreambuf_iterator@DU?$char_traits@D@std@@@std@@@std@@2V0locale@2@A ; std::num_put<char,std::ostreambuf_iterator<char,std::char_traits<char> > >::id
PUBLIC	?id@?$codecvt@DDU_Mbstatet@@@std@@2V0locale@2@A	; std::codecvt<char,char,_Mbstatet>::id
PUBLIC	?id@?$numpunct@D@std@@2V0locale@2@A		; std::numpunct<char>::id
PUBLIC	?regs@?1???$PushArgp@_K@AsmHelper64@IronMan@@AEAAXAEB_KH_N@Z@4QBUX86GpReg@asmjit@@B ; `IronMan::AsmHelper64::PushArgp<unsigned __int64>'::`2'::regs
PUBLIC	?$TSS0@?1???$PushArgp@_K@AsmHelper64@IronMan@@AEAAXAEB_KH_N@Z@4HA ; `IronMan::AsmHelper64::PushArgp<unsigned __int64>'::`2'::$TSS0
PUBLIC	?xregs@?1???$PushArgp@_K@AsmHelper64@IronMan@@AEAAXAEB_KH_N@Z@4QBUX86XmmReg@asmjit@@B ; `IronMan::AsmHelper64::PushArgp<unsigned __int64>'::`2'::xregs
PUBLIC	?$TSS1@?1???$PushArgp@_K@AsmHelper64@IronMan@@AEAAXAEB_KH_N@Z@4HA ; `IronMan::AsmHelper64::PushArgp<unsigned __int64>'::`2'::$TSS1
PUBLIC	?regs@?1???$PushArgp@I@AsmHelper64@IronMan@@AEAAXAEBIH_N@Z@4QBUX86GpReg@asmjit@@B ; `IronMan::AsmHelper64::PushArgp<unsigned int>'::`2'::regs
PUBLIC	?$TSS0@?1???$PushArgp@I@AsmHelper64@IronMan@@AEAAXAEBIH_N@Z@4HA ; `IronMan::AsmHelper64::PushArgp<unsigned int>'::`2'::$TSS0
PUBLIC	?xregs@?1???$PushArgp@I@AsmHelper64@IronMan@@AEAAXAEBIH_N@Z@4QBUX86XmmReg@asmjit@@B ; `IronMan::AsmHelper64::PushArgp<unsigned int>'::`2'::xregs
PUBLIC	?$TSS1@?1???$PushArgp@I@AsmHelper64@IronMan@@AEAAXAEBIH_N@Z@4HA ; `IronMan::AsmHelper64::PushArgp<unsigned int>'::`2'::$TSS1
PUBLIC	?regs@?1???$PushArgp@UX86GpReg@asmjit@@@AsmHelper64@IronMan@@AEAAXAEBUX86GpReg@asmjit@@H_N@Z@4QBU34@B ; `IronMan::AsmHelper64::PushArgp<asmjit::X86GpReg>'::`2'::regs
PUBLIC	?$TSS0@?1???$PushArgp@UX86GpReg@asmjit@@@AsmHelper64@IronMan@@AEAAXAEBUX86GpReg@asmjit@@H_N@Z@4HA ; `IronMan::AsmHelper64::PushArgp<asmjit::X86GpReg>'::`2'::$TSS0
PUBLIC	?xregs@?1???$PushArgp@UX86GpReg@asmjit@@@AsmHelper64@IronMan@@AEAAXAEBUX86GpReg@asmjit@@H_N@Z@4QBUX86XmmReg@4@B ; `IronMan::AsmHelper64::PushArgp<asmjit::X86GpReg>'::`2'::xregs
PUBLIC	?$TSS1@?1???$PushArgp@UX86GpReg@asmjit@@@AsmHelper64@IronMan@@AEAAXAEBUX86GpReg@asmjit@@H_N@Z@4HA ; `IronMan::AsmHelper64::PushArgp<asmjit::X86GpReg>'::`2'::$TSS1
PUBLIC	?regs@?1???$PushArgp@UX86Mem@asmjit@@@AsmHelper64@IronMan@@AEAAXAEBUX86Mem@asmjit@@H_N@Z@4QBUX86GpReg@4@B ; `IronMan::AsmHelper64::PushArgp<asmjit::X86Mem>'::`2'::regs
PUBLIC	?$TSS0@?1???$PushArgp@UX86Mem@asmjit@@@AsmHelper64@IronMan@@AEAAXAEBUX86Mem@asmjit@@H_N@Z@4HA ; `IronMan::AsmHelper64::PushArgp<asmjit::X86Mem>'::`2'::$TSS0
PUBLIC	?xregs@?1???$PushArgp@UX86Mem@asmjit@@@AsmHelper64@IronMan@@AEAAXAEBUX86Mem@asmjit@@H_N@Z@4QBUX86XmmReg@4@B ; `IronMan::AsmHelper64::PushArgp<asmjit::X86Mem>'::`2'::xregs
PUBLIC	?$TSS1@?1???$PushArgp@UX86Mem@asmjit@@@AsmHelper64@IronMan@@AEAAXAEBUX86Mem@asmjit@@H_N@Z@4HA ; `IronMan::AsmHelper64::PushArgp<asmjit::X86Mem>'::`2'::$TSS1
PUBLIC	?id@?$collate@D@std@@2V0locale@2@A		; std::collate<char>::id
PUBLIC	??_R4IAsmHelper@IronMan@@6B@			; IronMan::IAsmHelper::`RTTI Complete Object Locator'
PUBLIC	??_R0?AVIAsmHelper@IronMan@@@8			; IronMan::IAsmHelper `RTTI Type Descriptor'
PUBLIC	??_R3IAsmHelper@IronMan@@8			; IronMan::IAsmHelper::`RTTI Class Hierarchy Descriptor'
PUBLIC	??_R2IAsmHelper@IronMan@@8			; IronMan::IAsmHelper::`RTTI Base Class Array'
PUBLIC	??_R1A@?0A@EA@IAsmHelper@IronMan@@8		; IronMan::IAsmHelper::`RTTI Base Class Descriptor at (0,-1,0,64)'
PUBLIC	??_R4AsmHelper64@IronMan@@6B@			; IronMan::AsmHelper64::`RTTI Complete Object Locator'
PUBLIC	??_R0?AVAsmHelper64@IronMan@@@8			; IronMan::AsmHelper64 `RTTI Type Descriptor'
PUBLIC	??_R3AsmHelper64@IronMan@@8			; IronMan::AsmHelper64::`RTTI Class Hierarchy Descriptor'
PUBLIC	??_R2AsmHelper64@IronMan@@8			; IronMan::AsmHelper64::`RTTI Base Class Array'
PUBLIC	??_R1A@?0A@EA@AsmHelper64@IronMan@@8		; IronMan::AsmHelper64::`RTTI Base Class Descriptor at (0,-1,0,64)'
EXTRN	_purecall:PROC
EXTRN	??3@YAXPEAX_K@Z:PROC				; operator delete
EXTRN	atexit:PROC
EXTRN	_Init_thread_header:PROC
EXTRN	_Init_thread_abort:PROC
EXTRN	_Init_thread_footer:PROC
EXTRN	memcpy:PROC
EXTRN	__imp_WSAStartup:PROC
EXTRN	__imp_WSACleanup:PROC
EXTRN	OPENSSL_init_ssl:PROC
EXTRN	??0JitRuntime@asmjit@@QEAA@XZ:PROC		; asmjit::JitRuntime::JitRuntime
EXTRN	??1JitRuntime@asmjit@@UEAA@XZ:PROC		; asmjit::JitRuntime::~JitRuntime
EXTRN	?_newLabel@Assembler@asmjit@@QEAAIPEAULabel@2@@Z:PROC ; asmjit::Assembler::_newLabel
EXTRN	?emit@Assembler@asmjit@@QEAAII@Z:PROC		; asmjit::Assembler::emit
EXTRN	?emit@Assembler@asmjit@@QEAAIIAEBUOperand@2@@Z:PROC ; asmjit::Assembler::emit
EXTRN	?emit@Assembler@asmjit@@QEAAIIAEBUOperand@2@0@Z:PROC ; asmjit::Assembler::emit
EXTRN	?emit@Assembler@asmjit@@QEAAIIH@Z:PROC		; asmjit::Assembler::emit
EXTRN	?emit@Assembler@asmjit@@QEAAIIAEBUOperand@2@H@Z:PROC ; asmjit::Assembler::emit
EXTRN	?emit@Assembler@asmjit@@QEAAIIAEBUOperand@2@_K@Z:PROC ; asmjit::Assembler::emit
EXTRN	?ptr_abs@x86@asmjit@@YA?AUX86Mem@2@_KHI@Z:PROC	; asmjit::x86::ptr_abs
EXTRN	??0X86Assembler@asmjit@@QEAA@PEAURuntime@1@I@Z:PROC ; asmjit::X86Assembler::X86Assembler
EXTRN	??1X86Assembler@asmjit@@UEAA@XZ:PROC		; asmjit::X86Assembler::~X86Assembler
EXTRN	??_EIAsmHelper@IronMan@@UEAAPEAXI@Z:PROC	; IronMan::IAsmHelper::`vector deleting destructor'
EXTRN	??_EAsmHelper64@IronMan@@UEAAPEAXI@Z:PROC	; IronMan::AsmHelper64::`vector deleting destructor'
EXTRN	__CxxFrameHandler4:PROC
EXTRN	__GSHandlerCheck:PROC
EXTRN	__security_check_cookie:PROC
EXTRN	_Init_thread_epoch:DWORD
EXTRN	??_7type_info@@6B@:BYTE				; type_info::`vftable'
EXTRN	__ImageBase:BYTE
EXTRN	__security_cookie:QWORD
EXTRN	_tls_index:DWORD
_BSS	SEGMENT
?wsinit_@detail@httplib@@3VWSInit@12@A DB 01H DUP (?)	; httplib::detail::wsinit_
?sslinit_@detail@httplib@@3VSSLInit@12@A DB 01H DUP (?)	; httplib::detail::sslinit_
_BSS	ENDS
;	COMDAT ?id@?$num_put@DV?$ostreambuf_iterator@DU?$char_traits@D@std@@@std@@@std@@2V0locale@2@A
_BSS	SEGMENT
?id@?$num_put@DV?$ostreambuf_iterator@DU?$char_traits@D@std@@@std@@@std@@2V0locale@2@A DQ 01H DUP (?) ; std::num_put<char,std::ostreambuf_iterator<char,std::char_traits<char> > >::id
_BSS	ENDS
;	COMDAT ?id@?$codecvt@DDU_Mbstatet@@@std@@2V0locale@2@A
_BSS	SEGMENT
?id@?$codecvt@DDU_Mbstatet@@@std@@2V0locale@2@A DQ 01H DUP (?) ; std::codecvt<char,char,_Mbstatet>::id
_BSS	ENDS
;	COMDAT ?id@?$numpunct@D@std@@2V0locale@2@A
_BSS	SEGMENT
?id@?$numpunct@D@std@@2V0locale@2@A DQ 01H DUP (?)	; std::numpunct<char>::id
_BSS	ENDS
;	COMDAT ?regs@?1???$PushArgp@_K@AsmHelper64@IronMan@@AEAAXAEB_KH_N@Z@4QBUX86GpReg@asmjit@@B
_BSS	SEGMENT
?regs@?1???$PushArgp@_K@AsmHelper64@IronMan@@AEAAXAEB_KH_N@Z@4QBUX86GpReg@asmjit@@B DB 040H DUP (?) ; `IronMan::AsmHelper64::PushArgp<unsigned __int64>'::`2'::regs
_BSS	ENDS
;	COMDAT ?$TSS0@?1???$PushArgp@_K@AsmHelper64@IronMan@@AEAAXAEB_KH_N@Z@4HA
_BSS	SEGMENT
?$TSS0@?1???$PushArgp@_K@AsmHelper64@IronMan@@AEAAXAEB_KH_N@Z@4HA DD 01H DUP (?) ; `IronMan::AsmHelper64::PushArgp<unsigned __int64>'::`2'::$TSS0
_BSS	ENDS
;	COMDAT ?xregs@?1???$PushArgp@_K@AsmHelper64@IronMan@@AEAAXAEB_KH_N@Z@4QBUX86XmmReg@asmjit@@B
_BSS	SEGMENT
?xregs@?1???$PushArgp@_K@AsmHelper64@IronMan@@AEAAXAEB_KH_N@Z@4QBUX86XmmReg@asmjit@@B DB 040H DUP (?) ; `IronMan::AsmHelper64::PushArgp<unsigned __int64>'::`2'::xregs
_BSS	ENDS
;	COMDAT ?$TSS1@?1???$PushArgp@_K@AsmHelper64@IronMan@@AEAAXAEB_KH_N@Z@4HA
_BSS	SEGMENT
?$TSS1@?1???$PushArgp@_K@AsmHelper64@IronMan@@AEAAXAEB_KH_N@Z@4HA DD 01H DUP (?) ; `IronMan::AsmHelper64::PushArgp<unsigned __int64>'::`2'::$TSS1
_BSS	ENDS
;	COMDAT ?regs@?1???$PushArgp@I@AsmHelper64@IronMan@@AEAAXAEBIH_N@Z@4QBUX86GpReg@asmjit@@B
_BSS	SEGMENT
?regs@?1???$PushArgp@I@AsmHelper64@IronMan@@AEAAXAEBIH_N@Z@4QBUX86GpReg@asmjit@@B DB 040H DUP (?) ; `IronMan::AsmHelper64::PushArgp<unsigned int>'::`2'::regs
_BSS	ENDS
;	COMDAT ?$TSS0@?1???$PushArgp@I@AsmHelper64@IronMan@@AEAAXAEBIH_N@Z@4HA
_BSS	SEGMENT
?$TSS0@?1???$PushArgp@I@AsmHelper64@IronMan@@AEAAXAEBIH_N@Z@4HA DD 01H DUP (?) ; `IronMan::AsmHelper64::PushArgp<unsigned int>'::`2'::$TSS0
_BSS	ENDS
;	COMDAT ?xregs@?1???$PushArgp@I@AsmHelper64@IronMan@@AEAAXAEBIH_N@Z@4QBUX86XmmReg@asmjit@@B
_BSS	SEGMENT
?xregs@?1???$PushArgp@I@AsmHelper64@IronMan@@AEAAXAEBIH_N@Z@4QBUX86XmmReg@asmjit@@B DB 040H DUP (?) ; `IronMan::AsmHelper64::PushArgp<unsigned int>'::`2'::xregs
_BSS	ENDS
;	COMDAT ?$TSS1@?1???$PushArgp@I@AsmHelper64@IronMan@@AEAAXAEBIH_N@Z@4HA
_BSS	SEGMENT
?$TSS1@?1???$PushArgp@I@AsmHelper64@IronMan@@AEAAXAEBIH_N@Z@4HA DD 01H DUP (?) ; `IronMan::AsmHelper64::PushArgp<unsigned int>'::`2'::$TSS1
_BSS	ENDS
;	COMDAT ?regs@?1???$PushArgp@UX86GpReg@asmjit@@@AsmHelper64@IronMan@@AEAAXAEBUX86GpReg@asmjit@@H_N@Z@4QBU34@B
_BSS	SEGMENT
?regs@?1???$PushArgp@UX86GpReg@asmjit@@@AsmHelper64@IronMan@@AEAAXAEBUX86GpReg@asmjit@@H_N@Z@4QBU34@B DB 040H DUP (?) ; `IronMan::AsmHelper64::PushArgp<asmjit::X86GpReg>'::`2'::regs
_BSS	ENDS
;	COMDAT ?$TSS0@?1???$PushArgp@UX86GpReg@asmjit@@@AsmHelper64@IronMan@@AEAAXAEBUX86GpReg@asmjit@@H_N@Z@4HA
_BSS	SEGMENT
?$TSS0@?1???$PushArgp@UX86GpReg@asmjit@@@AsmHelper64@IronMan@@AEAAXAEBUX86GpReg@asmjit@@H_N@Z@4HA DD 01H DUP (?) ; `IronMan::AsmHelper64::PushArgp<asmjit::X86GpReg>'::`2'::$TSS0
_BSS	ENDS
;	COMDAT ?xregs@?1???$PushArgp@UX86GpReg@asmjit@@@AsmHelper64@IronMan@@AEAAXAEBUX86GpReg@asmjit@@H_N@Z@4QBUX86XmmReg@4@B
_BSS	SEGMENT
?xregs@?1???$PushArgp@UX86GpReg@asmjit@@@AsmHelper64@IronMan@@AEAAXAEBUX86GpReg@asmjit@@H_N@Z@4QBUX86XmmReg@4@B DB 040H DUP (?) ; `IronMan::AsmHelper64::PushArgp<asmjit::X86GpReg>'::`2'::xregs
_BSS	ENDS
;	COMDAT ?$TSS1@?1???$PushArgp@UX86GpReg@asmjit@@@AsmHelper64@IronMan@@AEAAXAEBUX86GpReg@asmjit@@H_N@Z@4HA
_BSS	SEGMENT
?$TSS1@?1???$PushArgp@UX86GpReg@asmjit@@@AsmHelper64@IronMan@@AEAAXAEBUX86GpReg@asmjit@@H_N@Z@4HA DD 01H DUP (?) ; `IronMan::AsmHelper64::PushArgp<asmjit::X86GpReg>'::`2'::$TSS1
_BSS	ENDS
;	COMDAT ?regs@?1???$PushArgp@UX86Mem@asmjit@@@AsmHelper64@IronMan@@AEAAXAEBUX86Mem@asmjit@@H_N@Z@4QBUX86GpReg@4@B
_BSS	SEGMENT
?regs@?1???$PushArgp@UX86Mem@asmjit@@@AsmHelper64@IronMan@@AEAAXAEBUX86Mem@asmjit@@H_N@Z@4QBUX86GpReg@4@B DB 040H DUP (?) ; `IronMan::AsmHelper64::PushArgp<asmjit::X86Mem>'::`2'::regs
_BSS	ENDS
;	COMDAT ?$TSS0@?1???$PushArgp@UX86Mem@asmjit@@@AsmHelper64@IronMan@@AEAAXAEBUX86Mem@asmjit@@H_N@Z@4HA
_BSS	SEGMENT
?$TSS0@?1???$PushArgp@UX86Mem@asmjit@@@AsmHelper64@IronMan@@AEAAXAEBUX86Mem@asmjit@@H_N@Z@4HA DD 01H DUP (?) ; `IronMan::AsmHelper64::PushArgp<asmjit::X86Mem>'::`2'::$TSS0
_BSS	ENDS
;	COMDAT ?xregs@?1???$PushArgp@UX86Mem@asmjit@@@AsmHelper64@IronMan@@AEAAXAEBUX86Mem@asmjit@@H_N@Z@4QBUX86XmmReg@4@B
_BSS	SEGMENT
?xregs@?1???$PushArgp@UX86Mem@asmjit@@@AsmHelper64@IronMan@@AEAAXAEBUX86Mem@asmjit@@H_N@Z@4QBUX86XmmReg@4@B DB 040H DUP (?) ; `IronMan::AsmHelper64::PushArgp<asmjit::X86Mem>'::`2'::xregs
_BSS	ENDS
;	COMDAT ?$TSS1@?1???$PushArgp@UX86Mem@asmjit@@@AsmHelper64@IronMan@@AEAAXAEBUX86Mem@asmjit@@H_N@Z@4HA
_BSS	SEGMENT
?$TSS1@?1???$PushArgp@UX86Mem@asmjit@@@AsmHelper64@IronMan@@AEAAXAEBUX86Mem@asmjit@@H_N@Z@4HA DD 01H DUP (?) ; `IronMan::AsmHelper64::PushArgp<asmjit::X86Mem>'::`2'::$TSS1
_BSS	ENDS
;	COMDAT ?id@?$collate@D@std@@2V0locale@2@A
_BSS	SEGMENT
?id@?$collate@D@std@@2V0locale@2@A DQ 01H DUP (?)	; std::collate<char>::id
_BSS	ENDS
;	COMDAT pdata
pdata	SEGMENT
$pdata$??_H@YAXPEAX_K1P6APEAX0@Z@Z DD imagerel $LN5
	DD	imagerel $LN5+102
	DD	imagerel $unwind$??_H@YAXPEAX_K1P6APEAX0@Z@Z
pdata	ENDS
;	COMDAT pdata
pdata	SEGMENT
$pdata$?Align@@YA_K_K0@Z DD imagerel $LN5
	DD	imagerel $LN5+79
	DD	imagerel $unwind$?Align@@YA_K_K0@Z
pdata	ENDS
;	COMDAT pdata
pdata	SEGMENT
$pdata$??0WSInit@detail@httplib@@QEAA@XZ DD imagerel $LN4
	DD	imagerel $LN4+103
	DD	imagerel $unwind$??0WSInit@detail@httplib@@QEAA@XZ
pdata	ENDS
;	COMDAT pdata
pdata	SEGMENT
$pdata$??1WSInit@detail@httplib@@QEAA@XZ DD imagerel $LN4
	DD	imagerel $LN4+33
	DD	imagerel $unwind$??1WSInit@detail@httplib@@QEAA@XZ
pdata	ENDS
;	COMDAT pdata
pdata	SEGMENT
$pdata$??__Ewsinit_@detail@httplib@@YAXXZ DD imagerel ??__Ewsinit_@detail@httplib@@YAXXZ
	DD	imagerel ??__Ewsinit_@detail@httplib@@YAXXZ+34
	DD	imagerel $unwind$??__Ewsinit_@detail@httplib@@YAXXZ
pdata	ENDS
;	COMDAT pdata
pdata	SEGMENT
$pdata$??__Fwsinit_@detail@httplib@@YAXXZ DD imagerel ??__Fwsinit_@detail@httplib@@YAXXZ
	DD	imagerel ??__Fwsinit_@detail@httplib@@YAXXZ+22
	DD	imagerel $unwind$??__Fwsinit_@detail@httplib@@YAXXZ
pdata	ENDS
;	COMDAT pdata
pdata	SEGMENT
$pdata$??0SSLInit@detail@httplib@@QEAA@XZ DD imagerel $LN3
	DD	imagerel $LN3+32
	DD	imagerel $unwind$??0SSLInit@detail@httplib@@QEAA@XZ
pdata	ENDS
;	COMDAT pdata
pdata	SEGMENT
$pdata$??__Esslinit_@detail@httplib@@YAXXZ DD imagerel ??__Esslinit_@detail@httplib@@YAXXZ
	DD	imagerel ??__Esslinit_@detail@httplib@@YAXXZ+22
	DD	imagerel $unwind$??__Esslinit_@detail@httplib@@YAXXZ
pdata	ENDS
;	COMDAT pdata
pdata	SEGMENT
$pdata$?setPacked_2x32@UInt64@asmjit@@QEAAAEAT12@II@Z DD imagerel $LN5
	DD	imagerel $LN5+100
	DD	imagerel $unwind$?setPacked_2x32@UInt64@asmjit@@QEAAAEAT12@II@Z
pdata	ENDS
;	COMDAT pdata
pdata	SEGMENT
$pdata$??0Operand@asmjit@@QEAA@AEBU01@@Z DD imagerel $LN3
	DD	imagerel $LN3+40
	DD	imagerel $unwind$??0Operand@asmjit@@QEAA@AEBU01@@Z
pdata	ENDS
;	COMDAT pdata
pdata	SEGMENT
$pdata$?_init@Operand@asmjit@@QEAAXAEBU12@@Z DD imagerel $LN3
	DD	imagerel $LN3+41
	DD	imagerel $unwind$?_init@Operand@asmjit@@QEAAXAEBU12@@Z
pdata	ENDS
;	COMDAT pdata
pdata	SEGMENT
$pdata$?_init_packed_op_sz_b0_b1_id@Operand@asmjit@@QEAAXIIIII@Z DD imagerel $LN3
	DD	imagerel $LN3+94
	DD	imagerel $unwind$?_init_packed_op_sz_b0_b1_id@Operand@asmjit@@QEAAXIIIII@Z
pdata	ENDS
;	COMDAT pdata
pdata	SEGMENT
$pdata$?_init_packed_d2_d3@Operand@asmjit@@QEAAXII@Z DD imagerel $LN3
	DD	imagerel $LN3+68
	DD	imagerel $unwind$?_init_packed_d2_d3@Operand@asmjit@@QEAAXII@Z
pdata	ENDS
;	COMDAT pdata
pdata	SEGMENT
$pdata$??0Reg@asmjit@@QEAA@AEBU01@@Z DD imagerel $LN3
	DD	imagerel $LN3+40
	DD	imagerel $unwind$??0Reg@asmjit@@QEAA@AEBU01@@Z
pdata	ENDS
;	COMDAT pdata
pdata	SEGMENT
$pdata$??0BaseMem@asmjit@@QEAA@AEBU_NoInit@1@@Z DD imagerel $LN3
	DD	imagerel $LN3+42
	DD	imagerel $unwind$??0BaseMem@asmjit@@QEAA@AEBU_NoInit@1@@Z
pdata	ENDS
;	COMDAT pdata
pdata	SEGMENT
$pdata$??0Label@asmjit@@QEAA@AEBU01@@Z DD imagerel $LN3
	DD	imagerel $LN3+40
	DD	imagerel $unwind$??0Label@asmjit@@QEAA@AEBU01@@Z
pdata	ENDS
;	COMDAT pdata
pdata	SEGMENT
$pdata$??0Label@asmjit@@QEAA@AEBU_NoInit@1@@Z DD imagerel $LN3
	DD	imagerel $LN3+42
	DD	imagerel $unwind$??0Label@asmjit@@QEAA@AEBU_NoInit@1@@Z
pdata	ENDS
;	COMDAT pdata
pdata	SEGMENT
$pdata$?newLabel@Assembler@asmjit@@QEAA?AULabel@2@XZ DD imagerel $LN3
	DD	imagerel $LN3+71
	DD	imagerel $unwind$?newLabel@Assembler@asmjit@@QEAA?AULabel@2@XZ
pdata	ENDS
;	COMDAT pdata
pdata	SEGMENT
$pdata$??0X86Reg@asmjit@@QEAA@AEBU01@@Z DD imagerel $LN3
	DD	imagerel $LN3+40
	DD	imagerel $unwind$??0X86Reg@asmjit@@QEAA@AEBU01@@Z
pdata	ENDS
;	COMDAT pdata
pdata	SEGMENT
$pdata$??0X86GpReg@asmjit@@QEAA@AEBU01@@Z DD imagerel $LN3
	DD	imagerel $LN3+40
	DD	imagerel $unwind$??0X86GpReg@asmjit@@QEAA@AEBU01@@Z
pdata	ENDS
;	COMDAT pdata
pdata	SEGMENT
$pdata$??0X86XmmReg@asmjit@@QEAA@AEBU01@@Z DD imagerel $LN3
	DD	imagerel $LN3+40
	DD	imagerel $unwind$??0X86XmmReg@asmjit@@QEAA@AEBU01@@Z
pdata	ENDS
;	COMDAT pdata
pdata	SEGMENT
$pdata$??0X86Mem@asmjit@@QEAA@AEBUX86GpReg@1@HI@Z DD imagerel $LN3
	DD	imagerel $LN3+139
	DD	imagerel $unwind$??0X86Mem@asmjit@@QEAA@AEBUX86GpReg@1@HI@Z
pdata	ENDS
;	COMDAT pdata
pdata	SEGMENT
$pdata$?setSegment@X86Mem@asmjit@@QEAAAEAU12@AEBUX86SegReg@2@@Z DD imagerel $LN3
	DD	imagerel $LN3+41
	DD	imagerel $unwind$?setSegment@X86Mem@asmjit@@QEAAAEAU12@AEBUX86SegReg@2@@Z
pdata	ENDS
pdata	SEGMENT
$pdata$?dword_ptr@x86@asmjit@@YA?AUX86Mem@2@AEBUX86GpReg@2@H@Z DD imagerel ?dword_ptr@x86@asmjit@@YA?AUX86Mem@2@AEBUX86GpReg@2@H@Z
	DD	imagerel ?dword_ptr@x86@asmjit@@YA?AUX86Mem@2@AEBUX86GpReg@2@H@Z+55
	DD	imagerel $unwind$?dword_ptr@x86@asmjit@@YA?AUX86Mem@2@AEBUX86GpReg@2@H@Z
$pdata$?dword_ptr_abs@x86@asmjit@@YA?AUX86Mem@2@_KH@Z DD imagerel ?dword_ptr_abs@x86@asmjit@@YA?AUX86Mem@2@_KH@Z
	DD	imagerel ?dword_ptr_abs@x86@asmjit@@YA?AUX86Mem@2@_KH@Z+55
	DD	imagerel $unwind$?dword_ptr_abs@x86@asmjit@@YA?AUX86Mem@2@_KH@Z
$pdata$?qword_ptr@x86@asmjit@@YA?AUX86Mem@2@AEBUX86GpReg@2@H@Z DD imagerel ?qword_ptr@x86@asmjit@@YA?AUX86Mem@2@AEBUX86GpReg@2@H@Z
	DD	imagerel ?qword_ptr@x86@asmjit@@YA?AUX86Mem@2@AEBUX86GpReg@2@H@Z+55
	DD	imagerel $unwind$?qword_ptr@x86@asmjit@@YA?AUX86Mem@2@AEBUX86GpReg@2@H@Z
pdata	ENDS
;	COMDAT pdata
pdata	SEGMENT
$pdata$?db@X86Assembler@asmjit@@QEAAXE@Z DD imagerel $LN3
	DD	imagerel $LN3+56
	DD	imagerel $unwind$?db@X86Assembler@asmjit@@QEAAXE@Z
pdata	ENDS
;	COMDAT pdata
pdata	SEGMENT
$pdata$?dd@X86Assembler@asmjit@@QEAAXI@Z DD imagerel $LN3
	DD	imagerel $LN3+56
	DD	imagerel $unwind$?dd@X86Assembler@asmjit@@QEAAXI@Z
pdata	ENDS
;	COMDAT pdata
pdata	SEGMENT
$pdata$?add@X86Assembler@asmjit@@QEAAIAEBUX86GpReg@2@_K@Z DD imagerel $LN3
	DD	imagerel $LN3+49
	DD	imagerel $unwind$?add@X86Assembler@asmjit@@QEAAIAEBUX86GpReg@2@_K@Z
pdata	ENDS
;	COMDAT pdata
pdata	SEGMENT
$pdata$?add@X86Assembler@asmjit@@QEAAIAEBUX86Mem@2@H@Z DD imagerel $LN3
	DD	imagerel $LN3+49
	DD	imagerel $unwind$?add@X86Assembler@asmjit@@QEAAIAEBUX86Mem@2@H@Z
pdata	ENDS
;	COMDAT pdata
pdata	SEGMENT
$pdata$?and_@X86Assembler@asmjit@@QEAAIAEBUX86GpReg@2@_K@Z DD imagerel $LN3
	DD	imagerel $LN3+49
	DD	imagerel $unwind$?and_@X86Assembler@asmjit@@QEAAIAEBUX86GpReg@2@_K@Z
pdata	ENDS
;	COMDAT pdata
pdata	SEGMENT
$pdata$?call@X86Assembler@asmjit@@QEAAIAEBUX86GpReg@2@@Z DD imagerel $LN3
	DD	imagerel $LN3+39
	DD	imagerel $unwind$?call@X86Assembler@asmjit@@QEAAIAEBUX86GpReg@2@@Z
pdata	ENDS
;	COMDAT pdata
pdata	SEGMENT
$pdata$?call@X86Assembler@asmjit@@QEAAIAEBULabel@2@@Z DD imagerel $LN3
	DD	imagerel $LN3+39
	DD	imagerel $unwind$?call@X86Assembler@asmjit@@QEAAIAEBULabel@2@@Z
pdata	ENDS
;	COMDAT pdata
pdata	SEGMENT
$pdata$?lea@X86Assembler@asmjit@@QEAAIAEBUX86GpReg@2@AEBUX86Mem@2@@Z DD imagerel $LN3
	DD	imagerel $LN3+49
	DD	imagerel $unwind$?lea@X86Assembler@asmjit@@QEAAIAEBUX86GpReg@2@AEBUX86Mem@2@@Z
pdata	ENDS
;	COMDAT pdata
pdata	SEGMENT
$pdata$?mov@X86Assembler@asmjit@@QEAAIAEBUX86GpReg@2@0@Z DD imagerel $LN3
	DD	imagerel $LN3+49
	DD	imagerel $unwind$?mov@X86Assembler@asmjit@@QEAAIAEBUX86GpReg@2@0@Z
pdata	ENDS
;	COMDAT pdata
pdata	SEGMENT
$pdata$?mov@X86Assembler@asmjit@@QEAAIAEBUX86GpReg@2@AEBUX86Mem@2@@Z DD imagerel $LN3
	DD	imagerel $LN3+49
	DD	imagerel $unwind$?mov@X86Assembler@asmjit@@QEAAIAEBUX86GpReg@2@AEBUX86Mem@2@@Z
pdata	ENDS
;	COMDAT pdata
pdata	SEGMENT
$pdata$?mov@X86Assembler@asmjit@@QEAAIAEBUX86GpReg@2@H@Z DD imagerel $LN3
	DD	imagerel $LN3+49
	DD	imagerel $unwind$?mov@X86Assembler@asmjit@@QEAAIAEBUX86GpReg@2@H@Z
pdata	ENDS
;	COMDAT pdata
pdata	SEGMENT
$pdata$?mov@X86Assembler@asmjit@@QEAAIAEBUX86GpReg@2@I@Z DD imagerel $LN3
	DD	imagerel $LN3+51
	DD	imagerel $unwind$?mov@X86Assembler@asmjit@@QEAAIAEBUX86GpReg@2@I@Z
pdata	ENDS
;	COMDAT pdata
pdata	SEGMENT
$pdata$?mov@X86Assembler@asmjit@@QEAAIAEBUX86GpReg@2@_K@Z DD imagerel $LN3
	DD	imagerel $LN3+49
	DD	imagerel $unwind$?mov@X86Assembler@asmjit@@QEAAIAEBUX86GpReg@2@_K@Z
pdata	ENDS
;	COMDAT pdata
pdata	SEGMENT
$pdata$?mov@X86Assembler@asmjit@@QEAAIAEBUX86Mem@2@AEBUX86GpReg@2@@Z DD imagerel $LN3
	DD	imagerel $LN3+49
	DD	imagerel $unwind$?mov@X86Assembler@asmjit@@QEAAIAEBUX86Mem@2@AEBUX86GpReg@2@@Z
pdata	ENDS
;	COMDAT pdata
pdata	SEGMENT
$pdata$?mov@X86Assembler@asmjit@@QEAAIAEBUX86Mem@2@H@Z DD imagerel $LN3
	DD	imagerel $LN3+49
	DD	imagerel $unwind$?mov@X86Assembler@asmjit@@QEAAIAEBUX86Mem@2@H@Z
pdata	ENDS
;	COMDAT pdata
pdata	SEGMENT
$pdata$?push@X86Assembler@asmjit@@QEAAIH@Z DD imagerel $LN3
	DD	imagerel $LN3+38
	DD	imagerel $unwind$?push@X86Assembler@asmjit@@QEAAIH@Z
pdata	ENDS
;	COMDAT pdata
pdata	SEGMENT
$pdata$?ret@X86Assembler@asmjit@@QEAAIXZ DD imagerel $LN3
	DD	imagerel $LN3+29
	DD	imagerel $unwind$?ret@X86Assembler@asmjit@@QEAAIXZ
pdata	ENDS
;	COMDAT pdata
pdata	SEGMENT
$pdata$?sub@X86Assembler@asmjit@@QEAAIAEBUX86GpReg@2@_K@Z DD imagerel $LN3
	DD	imagerel $LN3+49
	DD	imagerel $unwind$?sub@X86Assembler@asmjit@@QEAAIAEBUX86GpReg@2@_K@Z
pdata	ENDS
;	COMDAT pdata
pdata	SEGMENT
$pdata$?movq@X86Assembler@asmjit@@QEAAIAEBUX86XmmReg@2@AEBUX86GpReg@2@@Z DD imagerel $LN3
	DD	imagerel $LN3+49
	DD	imagerel $unwind$?movq@X86Assembler@asmjit@@QEAAIAEBUX86XmmReg@2@AEBUX86GpReg@2@@Z
pdata	ENDS
;	COMDAT pdata
pdata	SEGMENT
$pdata$??0IAsmHelper@IronMan@@QEAA@I@Z DD imagerel $LN5
	DD	imagerel $LN5+100
	DD	imagerel $unwind$??0IAsmHelper@IronMan@@QEAA@I@Z
pdata	ENDS
;	COMDAT pdata
pdata	SEGMENT
$pdata$?dtor$0@?0???0IAsmHelper@IronMan@@QEAA@I@Z@4HA DD imagerel ?dtor$0@?0???0IAsmHelper@IronMan@@QEAA@I@Z@4HA
	DD	imagerel ?dtor$0@?0???0IAsmHelper@IronMan@@QEAA@I@Z@4HA+28
	DD	imagerel $unwind$?dtor$0@?0???0IAsmHelper@IronMan@@QEAA@I@Z@4HA
pdata	ENDS
;	COMDAT pdata
pdata	SEGMENT
$pdata$?dtor$1@?0???0IAsmHelper@IronMan@@QEAA@I@Z@4HA DD imagerel ?dtor$1@?0???0IAsmHelper@IronMan@@QEAA@I@Z@4HA
	DD	imagerel ?dtor$1@?0???0IAsmHelper@IronMan@@QEAA@I@Z@4HA+31
	DD	imagerel $unwind$?dtor$1@?0???0IAsmHelper@IronMan@@QEAA@I@Z@4HA
pdata	ENDS
;	COMDAT pdata
pdata	SEGMENT
$pdata$??1IAsmHelper@IronMan@@UEAA@XZ DD imagerel $LN5
	DD	imagerel $LN5+67
	DD	imagerel $unwind$??1IAsmHelper@IronMan@@UEAA@XZ
pdata	ENDS
;	COMDAT pdata
pdata	SEGMENT
$pdata$?dtor$0@?0???1IAsmHelper@IronMan@@UEAA@XZ@4HA DD imagerel ?dtor$0@?0???1IAsmHelper@IronMan@@UEAA@XZ@4HA
	DD	imagerel ?dtor$0@?0???1IAsmHelper@IronMan@@UEAA@XZ@4HA+28
	DD	imagerel $unwind$?dtor$0@?0???1IAsmHelper@IronMan@@UEAA@XZ@4HA
pdata	ENDS
;	COMDAT pdata
pdata	SEGMENT
$pdata$?dtor$1@?0???1IAsmHelper@IronMan@@UEAA@XZ@4HA DD imagerel ?dtor$1@?0???1IAsmHelper@IronMan@@UEAA@XZ@4HA
	DD	imagerel ?dtor$1@?0???1IAsmHelper@IronMan@@UEAA@XZ@4HA+31
	DD	imagerel $unwind$?dtor$1@?0???1IAsmHelper@IronMan@@UEAA@XZ@4HA
pdata	ENDS
;	COMDAT pdata
pdata	SEGMENT
$pdata$?SwitchTo86@IAsmHelper@IronMan@@QEAAXXZ DD imagerel $LN3
	DD	imagerel $LN3+299
	DD	imagerel $unwind$?SwitchTo86@IAsmHelper@IronMan@@QEAAXXZ
pdata	ENDS
;	COMDAT pdata
pdata	SEGMENT
$pdata$?SwitchTo64@IAsmHelper@IronMan@@QEAAXXZ DD imagerel $LN3
	DD	imagerel $LN3+239
	DD	imagerel $unwind$?SwitchTo64@IAsmHelper@IronMan@@QEAAXXZ
pdata	ENDS
;	COMDAT pdata
pdata	SEGMENT
$pdata$??_GIAsmHelper@IronMan@@UEAAPEAXI@Z DD imagerel $LN4
	DD	imagerel $LN4+60
	DD	imagerel $unwind$??_GIAsmHelper@IronMan@@UEAAPEAXI@Z
pdata	ENDS
pdata	SEGMENT
$pdata$??0AsmHelper64@IronMan@@QEAA@XZ DD imagerel $LN4
	DD	imagerel $LN4+62
	DD	imagerel $unwind$??0AsmHelper64@IronMan@@QEAA@XZ
pdata	ENDS
pdata	SEGMENT
$pdata$?dtor$0@?0???0AsmHelper64@IronMan@@QEAA@XZ@4HA DD imagerel ?dtor$0@?0???0AsmHelper64@IronMan@@QEAA@XZ@4HA
	DD	imagerel ?dtor$0@?0???0AsmHelper64@IronMan@@QEAA@XZ@4HA+24
	DD	imagerel $unwind$?dtor$0@?0???0AsmHelper64@IronMan@@QEAA@XZ@4HA
pdata	ENDS
pdata	SEGMENT
$pdata$??1AsmHelper64@IronMan@@UEAA@XZ DD imagerel $LN4
	DD	imagerel $LN4+40
	DD	imagerel $unwind$??1AsmHelper64@IronMan@@UEAA@XZ
pdata	ENDS
pdata	SEGMENT
$pdata$?dtor$0@?0???1AsmHelper64@IronMan@@UEAA@XZ@4HA DD imagerel ?dtor$0@?0???1AsmHelper64@IronMan@@UEAA@XZ@4HA
	DD	imagerel ?dtor$0@?0???1AsmHelper64@IronMan@@UEAA@XZ@4HA+24
	DD	imagerel $unwind$?dtor$0@?0???1AsmHelper64@IronMan@@UEAA@XZ@4HA
pdata	ENDS
pdata	SEGMENT
$pdata$?GenPrologue@AsmHelper64@IronMan@@UEAAX_N@Z DD imagerel $LN5
	DD	imagerel $LN5+547
	DD	imagerel $unwind$?GenPrologue@AsmHelper64@IronMan@@UEAAX_N@Z
$pdata$?GenEpilogue@AsmHelper64@IronMan@@UEAAX_NH@Z DD imagerel $LN5
	DD	imagerel $LN5+516
	DD	imagerel $unwind$?GenEpilogue@AsmHelper64@IronMan@@UEAAX_NH@Z
$pdata$?GenCall@AsmHelper64@IronMan@@UEAAXAEBUAsmFunctionPtr@2@AEBV?$vector@UAsmVariant@IronMan@@V?$allocator@UAsmVariant@IronMan@@@std@@@std@@W4eCalligConvention@2@@Z DD imagerel $LN14
	DD	imagerel $LN14+453
	DD	imagerel $unwind$?GenCall@AsmHelper64@IronMan@@UEAAXAEBUAsmFunctionPtr@2@AEBV?$vector@UAsmVariant@IronMan@@V?$allocator@UAsmVariant@IronMan@@@std@@@std@@W4eCalligConvention@2@@Z
$pdata$?ExitThreadWithStatus@AsmHelper64@IronMan@@UEAAX_K0@Z DD imagerel $LN4
	DD	imagerel $LN4+320
	DD	imagerel $unwind$?ExitThreadWithStatus@AsmHelper64@IronMan@@UEAAX_K0@Z
$pdata$?SaveRetValAndSignalEvent@AsmHelper64@IronMan@@UEAAX_K000W4eReturnType@2@@Z DD imagerel $LN5
	DD	imagerel $LN5+855
	DD	imagerel $unwind$?SaveRetValAndSignalEvent@AsmHelper64@IronMan@@UEAAX_K000W4eReturnType@2@@Z
$pdata$?PushArg@AsmHelper64@IronMan@@AEAAXAEBUAsmVariant@2@H@Z DD imagerel $LN18
	DD	imagerel $LN18+468
	DD	imagerel $unwind$?PushArg@AsmHelper64@IronMan@@AEAAXAEBUAsmVariant@2@H@Z
pdata	ENDS
;	COMDAT pdata
pdata	SEGMENT
$pdata$??_GAsmHelper64@IronMan@@UEAAPEAXI@Z DD imagerel $LN4
	DD	imagerel $LN4+60
	DD	imagerel $unwind$??_GAsmHelper64@IronMan@@UEAAPEAXI@Z
pdata	ENDS
;	COMDAT pdata
pdata	SEGMENT
$pdata$?size@?$vector@UAsmVariant@IronMan@@V?$allocator@UAsmVariant@IronMan@@@std@@@std@@QEBA_KXZ DD imagerel $LN3
	DD	imagerel $LN3+51
	DD	imagerel $unwind$?size@?$vector@UAsmVariant@IronMan@@V?$allocator@UAsmVariant@IronMan@@@std@@@std@@QEBA_KXZ
pdata	ENDS
;	COMDAT pdata
pdata	SEGMENT
$pdata$??A?$vector@UAsmVariant@IronMan@@V?$allocator@UAsmVariant@IronMan@@@std@@@std@@QEBAAEBUAsmVariant@IronMan@@_K@Z DD imagerel $LN3
	DD	imagerel $LN3+41
	DD	imagerel $unwind$??A?$vector@UAsmVariant@IronMan@@V?$allocator@UAsmVariant@IronMan@@@std@@@std@@QEBAAEBUAsmVariant@IronMan@@_K@Z
pdata	ENDS
;	COMDAT pdata
pdata	SEGMENT
$pdata$??$PushArgp@_K@AsmHelper64@IronMan@@AEAAXAEB_KH_N@Z DD imagerel $LN11
	DD	imagerel $LN11+676
	DD	imagerel $unwind$??$PushArgp@_K@AsmHelper64@IronMan@@AEAAXAEB_KH_N@Z
pdata	ENDS
;	COMDAT pdata
pdata	SEGMENT
$pdata$?dtor$0@?0???$PushArgp@_K@AsmHelper64@IronMan@@AEAAXAEB_KH_N@Z@4HA DD imagerel ?dtor$0@?0???$PushArgp@_K@AsmHelper64@IronMan@@AEAAXAEB_KH_N@Z@4HA
	DD	imagerel ?dtor$0@?0???$PushArgp@_K@AsmHelper64@IronMan@@AEAAXAEB_KH_N@Z@4HA+27
	DD	imagerel $unwind$?dtor$0@?0???$PushArgp@_K@AsmHelper64@IronMan@@AEAAXAEB_KH_N@Z@4HA
pdata	ENDS
;	COMDAT pdata
pdata	SEGMENT
$pdata$?dtor$1@?0???$PushArgp@_K@AsmHelper64@IronMan@@AEAAXAEB_KH_N@Z@4HA DD imagerel ?dtor$1@?0???$PushArgp@_K@AsmHelper64@IronMan@@AEAAXAEB_KH_N@Z@4HA
	DD	imagerel ?dtor$1@?0???$PushArgp@_K@AsmHelper64@IronMan@@AEAAXAEB_KH_N@Z@4HA+27
	DD	imagerel $unwind$?dtor$1@?0???$PushArgp@_K@AsmHelper64@IronMan@@AEAAXAEB_KH_N@Z@4HA
pdata	ENDS
;	COMDAT pdata
pdata	SEGMENT
$pdata$??$PushArgp@I@AsmHelper64@IronMan@@AEAAXAEBIH_N@Z DD imagerel $LN11
	DD	imagerel $LN11+676
	DD	imagerel $unwind$??$PushArgp@I@AsmHelper64@IronMan@@AEAAXAEBIH_N@Z
pdata	ENDS
;	COMDAT pdata
pdata	SEGMENT
$pdata$?dtor$0@?0???$PushArgp@I@AsmHelper64@IronMan@@AEAAXAEBIH_N@Z@4HA DD imagerel ?dtor$0@?0???$PushArgp@I@AsmHelper64@IronMan@@AEAAXAEBIH_N@Z@4HA
	DD	imagerel ?dtor$0@?0???$PushArgp@I@AsmHelper64@IronMan@@AEAAXAEBIH_N@Z@4HA+27
	DD	imagerel $unwind$?dtor$0@?0???$PushArgp@I@AsmHelper64@IronMan@@AEAAXAEBIH_N@Z@4HA
pdata	ENDS
;	COMDAT pdata
pdata	SEGMENT
$pdata$?dtor$1@?0???$PushArgp@I@AsmHelper64@IronMan@@AEAAXAEBIH_N@Z@4HA DD imagerel ?dtor$1@?0???$PushArgp@I@AsmHelper64@IronMan@@AEAAXAEBIH_N@Z@4HA
	DD	imagerel ?dtor$1@?0???$PushArgp@I@AsmHelper64@IronMan@@AEAAXAEBIH_N@Z@4HA+27
	DD	imagerel $unwind$?dtor$1@?0???$PushArgp@I@AsmHelper64@IronMan@@AEAAXAEBIH_N@Z@4HA
pdata	ENDS
;	COMDAT pdata
pdata	SEGMENT
$pdata$??$PushArgp@UX86GpReg@asmjit@@@AsmHelper64@IronMan@@AEAAXAEBUX86GpReg@asmjit@@H_N@Z DD imagerel $LN11
	DD	imagerel $LN11+667
	DD	imagerel $unwind$??$PushArgp@UX86GpReg@asmjit@@@AsmHelper64@IronMan@@AEAAXAEBUX86GpReg@asmjit@@H_N@Z
pdata	ENDS
;	COMDAT pdata
pdata	SEGMENT
$pdata$?dtor$0@?0???$PushArgp@UX86GpReg@asmjit@@@AsmHelper64@IronMan@@AEAAXAEBUX86GpReg@asmjit@@H_N@Z@4HA DD imagerel ?dtor$0@?0???$PushArgp@UX86GpReg@asmjit@@@AsmHelper64@IronMan@@AEAAXAEBUX86GpReg@asmjit@@H_N@Z@4HA
	DD	imagerel ?dtor$0@?0???$PushArgp@UX86GpReg@asmjit@@@AsmHelper64@IronMan@@AEAAXAEBUX86GpReg@asmjit@@H_N@Z@4HA+27
	DD	imagerel $unwind$?dtor$0@?0???$PushArgp@UX86GpReg@asmjit@@@AsmHelper64@IronMan@@AEAAXAEBUX86GpReg@asmjit@@H_N@Z@4HA
pdata	ENDS
;	COMDAT pdata
pdata	SEGMENT
$pdata$?dtor$1@?0???$PushArgp@UX86GpReg@asmjit@@@AsmHelper64@IronMan@@AEAAXAEBUX86GpReg@asmjit@@H_N@Z@4HA DD imagerel ?dtor$1@?0???$PushArgp@UX86GpReg@asmjit@@@AsmHelper64@IronMan@@AEAAXAEBUX86GpReg@asmjit@@H_N@Z@4HA
	DD	imagerel ?dtor$1@?0???$PushArgp@UX86GpReg@asmjit@@@AsmHelper64@IronMan@@AEAAXAEBUX86GpReg@asmjit@@H_N@Z@4HA+27
	DD	imagerel $unwind$?dtor$1@?0???$PushArgp@UX86GpReg@asmjit@@@AsmHelper64@IronMan@@AEAAXAEBUX86GpReg@asmjit@@H_N@Z@4HA
pdata	ENDS
;	COMDAT pdata
pdata	SEGMENT
$pdata$??$PushArgp@UX86Mem@asmjit@@@AsmHelper64@IronMan@@AEAAXAEBUX86Mem@asmjit@@H_N@Z DD imagerel $LN11
	DD	imagerel $LN11+667
	DD	imagerel $unwind$??$PushArgp@UX86Mem@asmjit@@@AsmHelper64@IronMan@@AEAAXAEBUX86Mem@asmjit@@H_N@Z
pdata	ENDS
;	COMDAT pdata
pdata	SEGMENT
$pdata$?dtor$0@?0???$PushArgp@UX86Mem@asmjit@@@AsmHelper64@IronMan@@AEAAXAEBUX86Mem@asmjit@@H_N@Z@4HA DD imagerel ?dtor$0@?0???$PushArgp@UX86Mem@asmjit@@@AsmHelper64@IronMan@@AEAAXAEBUX86Mem@asmjit@@H_N@Z@4HA
	DD	imagerel ?dtor$0@?0???$PushArgp@UX86Mem@asmjit@@@AsmHelper64@IronMan@@AEAAXAEBUX86Mem@asmjit@@H_N@Z@4HA+27
	DD	imagerel $unwind$?dtor$0@?0???$PushArgp@UX86Mem@asmjit@@@AsmHelper64@IronMan@@AEAAXAEBUX86Mem@asmjit@@H_N@Z@4HA
pdata	ENDS
;	COMDAT pdata
pdata	SEGMENT
$pdata$?dtor$1@?0???$PushArgp@UX86Mem@asmjit@@@AsmHelper64@IronMan@@AEAAXAEBUX86Mem@asmjit@@H_N@Z@4HA DD imagerel ?dtor$1@?0???$PushArgp@UX86Mem@asmjit@@@AsmHelper64@IronMan@@AEAAXAEBUX86Mem@asmjit@@H_N@Z@4HA
	DD	imagerel ?dtor$1@?0???$PushArgp@UX86Mem@asmjit@@@AsmHelper64@IronMan@@AEAAXAEBUX86Mem@asmjit@@H_N@Z@4HA+27
	DD	imagerel $unwind$?dtor$1@?0???$PushArgp@UX86Mem@asmjit@@@AsmHelper64@IronMan@@AEAAXAEBUX86Mem@asmjit@@H_N@Z@4HA
pdata	ENDS
;	COMDAT pdata
pdata	SEGMENT
$pdata$??__E?id@?$codecvt@DDU_Mbstatet@@@std@@2V0locale@2@A@@YAXXZ DD imagerel ??__E?id@?$codecvt@DDU_Mbstatet@@@std@@2V0locale@2@A@@YAXXZ
	DD	imagerel ??__E?id@?$codecvt@DDU_Mbstatet@@@std@@2V0locale@2@A@@YAXXZ+22
	DD	imagerel $unwind$??__E?id@?$codecvt@DDU_Mbstatet@@@std@@2V0locale@2@A@@YAXXZ
pdata	ENDS
;	COMDAT pdata
pdata	SEGMENT
$pdata$??__E?id@?$num_put@DV?$ostreambuf_iterator@DU?$char_traits@D@std@@@std@@@std@@2V0locale@2@A@@YAXXZ DD imagerel ??__E?id@?$num_put@DV?$ostreambuf_iterator@DU?$char_traits@D@std@@@std@@@std@@2V0locale@2@A@@YAXXZ
	DD	imagerel ??__E?id@?$num_put@DV?$ostreambuf_iterator@DU?$char_traits@D@std@@@std@@@std@@2V0locale@2@A@@YAXXZ+22
	DD	imagerel $unwind$??__E?id@?$num_put@DV?$ostreambuf_iterator@DU?$char_traits@D@std@@@std@@@std@@2V0locale@2@A@@YAXXZ
pdata	ENDS
;	COMDAT pdata
pdata	SEGMENT
$pdata$??__E?id@?$collate@D@std@@2V0locale@2@A@@YAXXZ DD imagerel ??__E?id@?$collate@D@std@@2V0locale@2@A@@YAXXZ
	DD	imagerel ??__E?id@?$collate@D@std@@2V0locale@2@A@@YAXXZ+22
	DD	imagerel $unwind$??__E?id@?$collate@D@std@@2V0locale@2@A@@YAXXZ
pdata	ENDS
;	COMDAT pdata
pdata	SEGMENT
$pdata$??__E?id@?$numpunct@D@std@@2V0locale@2@A@@YAXXZ DD imagerel ??__E?id@?$numpunct@D@std@@2V0locale@2@A@@YAXXZ
	DD	imagerel ??__E?id@?$numpunct@D@std@@2V0locale@2@A@@YAXXZ+22
	DD	imagerel $unwind$??__E?id@?$numpunct@D@std@@2V0locale@2@A@@YAXXZ
pdata	ENDS
CRT$XCU	SEGMENT
?wsinit_$initializer$@detail@httplib@@3P6AXXZEA DQ FLAT:??__Ewsinit_@detail@httplib@@YAXXZ ; httplib::detail::wsinit_$initializer$
CRT$XCU	ENDS
;	COMDAT ??_R1A@?0A@EA@AsmHelper64@IronMan@@8
rdata$r	SEGMENT
??_R1A@?0A@EA@AsmHelper64@IronMan@@8 DD imagerel ??_R0?AVAsmHelper64@IronMan@@@8 ; IronMan::AsmHelper64::`RTTI Base Class Descriptor at (0,-1,0,64)'
	DD	01H
	DD	00H
	DD	0ffffffffH
	DD	00H
	DD	040H
	DD	imagerel ??_R3AsmHelper64@IronMan@@8
rdata$r	ENDS
;	COMDAT ??_R2AsmHelper64@IronMan@@8
rdata$r	SEGMENT
??_R2AsmHelper64@IronMan@@8 DD imagerel ??_R1A@?0A@EA@AsmHelper64@IronMan@@8 ; IronMan::AsmHelper64::`RTTI Base Class Array'
	DD	imagerel ??_R1A@?0A@EA@IAsmHelper@IronMan@@8
	ORG $+3
rdata$r	ENDS
;	COMDAT ??_R3AsmHelper64@IronMan@@8
rdata$r	SEGMENT
??_R3AsmHelper64@IronMan@@8 DD 00H			; IronMan::AsmHelper64::`RTTI Class Hierarchy Descriptor'
	DD	00H
	DD	02H
	DD	imagerel ??_R2AsmHelper64@IronMan@@8
rdata$r	ENDS
;	COMDAT ??_R0?AVAsmHelper64@IronMan@@@8
data$rs	SEGMENT
??_R0?AVAsmHelper64@IronMan@@@8 DQ FLAT:??_7type_info@@6B@ ; IronMan::AsmHelper64 `RTTI Type Descriptor'
	DQ	0000000000000000H
	DB	'.?AVAsmHelper64@IronMan@@', 00H
data$rs	ENDS
;	COMDAT ??_R4AsmHelper64@IronMan@@6B@
rdata$r	SEGMENT
??_R4AsmHelper64@IronMan@@6B@ DD 01H			; IronMan::AsmHelper64::`RTTI Complete Object Locator'
	DD	00H
	DD	00H
	DD	imagerel ??_R0?AVAsmHelper64@IronMan@@@8
	DD	imagerel ??_R3AsmHelper64@IronMan@@8
	DD	imagerel ??_R4AsmHelper64@IronMan@@6B@
rdata$r	ENDS
;	COMDAT ??_R1A@?0A@EA@IAsmHelper@IronMan@@8
rdata$r	SEGMENT
??_R1A@?0A@EA@IAsmHelper@IronMan@@8 DD imagerel ??_R0?AVIAsmHelper@IronMan@@@8 ; IronMan::IAsmHelper::`RTTI Base Class Descriptor at (0,-1,0,64)'
	DD	00H
	DD	00H
	DD	0ffffffffH
	DD	00H
	DD	040H
	DD	imagerel ??_R3IAsmHelper@IronMan@@8
rdata$r	ENDS
;	COMDAT ??_R2IAsmHelper@IronMan@@8
rdata$r	SEGMENT
??_R2IAsmHelper@IronMan@@8 DD imagerel ??_R1A@?0A@EA@IAsmHelper@IronMan@@8 ; IronMan::IAsmHelper::`RTTI Base Class Array'
	ORG $+3
rdata$r	ENDS
;	COMDAT ??_R3IAsmHelper@IronMan@@8
rdata$r	SEGMENT
??_R3IAsmHelper@IronMan@@8 DD 00H			; IronMan::IAsmHelper::`RTTI Class Hierarchy Descriptor'
	DD	00H
	DD	01H
	DD	imagerel ??_R2IAsmHelper@IronMan@@8
rdata$r	ENDS
;	COMDAT ??_R0?AVIAsmHelper@IronMan@@@8
data$rs	SEGMENT
??_R0?AVIAsmHelper@IronMan@@@8 DQ FLAT:??_7type_info@@6B@ ; IronMan::IAsmHelper `RTTI Type Descriptor'
	DQ	0000000000000000H
	DB	'.?AVIAsmHelper@IronMan@@', 00H
data$rs	ENDS
;	COMDAT ??_R4IAsmHelper@IronMan@@6B@
rdata$r	SEGMENT
??_R4IAsmHelper@IronMan@@6B@ DD 01H			; IronMan::IAsmHelper::`RTTI Complete Object Locator'
	DD	00H
	DD	00H
	DD	imagerel ??_R0?AVIAsmHelper@IronMan@@@8
	DD	imagerel ??_R3IAsmHelper@IronMan@@8
	DD	imagerel ??_R4IAsmHelper@IronMan@@6B@
rdata$r	ENDS
;	COMDAT ??_7AsmHelper64@IronMan@@6B@
CONST	SEGMENT
??_7AsmHelper64@IronMan@@6B@ DQ FLAT:??_R4AsmHelper64@IronMan@@6B@ ; IronMan::AsmHelper64::`vftable'
	DQ	FLAT:??_EAsmHelper64@IronMan@@UEAAPEAXI@Z
	DQ	FLAT:?GenPrologue@AsmHelper64@IronMan@@UEAAX_N@Z
	DQ	FLAT:?GenEpilogue@AsmHelper64@IronMan@@UEAAX_NH@Z
	DQ	FLAT:?GenCall@AsmHelper64@IronMan@@UEAAXAEBUAsmFunctionPtr@2@AEBV?$vector@UAsmVariant@IronMan@@V?$allocator@UAsmVariant@IronMan@@@std@@@std@@W4eCalligConvention@2@@Z
	DQ	FLAT:?ExitThreadWithStatus@AsmHelper64@IronMan@@UEAAX_K0@Z
	DQ	FLAT:?SaveRetValAndSignalEvent@AsmHelper64@IronMan@@UEAAX_K000W4eReturnType@2@@Z
	DQ	FLAT:?EnableX64CallStack@AsmHelper64@IronMan@@UEAAX_N@Z
CONST	ENDS
;	COMDAT ??_7IAsmHelper@IronMan@@6B@
CONST	SEGMENT
??_7IAsmHelper@IronMan@@6B@ DQ FLAT:??_R4IAsmHelper@IronMan@@6B@ ; IronMan::IAsmHelper::`vftable'
	DQ	FLAT:??_EIAsmHelper@IronMan@@UEAAPEAXI@Z
	DQ	FLAT:_purecall
	DQ	FLAT:_purecall
	DQ	FLAT:_purecall
	DQ	FLAT:_purecall
	DQ	FLAT:_purecall
	DQ	FLAT:_purecall
CONST	ENDS
_DATA	SEGMENT
?gs@x86@asmjit@@3AEBUX86SegReg@2@EB DQ FLAT:?x86RegData@asmjit@@3UX86RegData@1@B+128 ; asmjit::x86::gs
?esp@x86@asmjit@@3AEBUX86GpReg@2@EB DQ FLAT:?x86RegData@asmjit@@3UX86RegData@1@B+784 ; asmjit::x86::esp
?rax@x86@asmjit@@3AEBUX86GpReg@2@EB DQ FLAT:?x86RegData@asmjit@@3UX86RegData@1@B+976 ; asmjit::x86::rax
?rcx@x86@asmjit@@3AEBUX86GpReg@2@EB DQ FLAT:?x86RegData@asmjit@@3UX86RegData@1@B+992 ; asmjit::x86::rcx
?rdx@x86@asmjit@@3AEBUX86GpReg@2@EB DQ FLAT:?x86RegData@asmjit@@3UX86RegData@1@B+1008 ; asmjit::x86::rdx
?rsp@x86@asmjit@@3AEBUX86GpReg@2@EB DQ FLAT:?x86RegData@asmjit@@3UX86RegData@1@B+1040 ; asmjit::x86::rsp
?r8@x86@asmjit@@3AEBUX86GpReg@2@EB DQ FLAT:?x86RegData@asmjit@@3UX86RegData@1@B+1104 ; asmjit::x86::r8
?r9@x86@asmjit@@3AEBUX86GpReg@2@EB DQ FLAT:?x86RegData@asmjit@@3UX86RegData@1@B+1120 ; asmjit::x86::r9
?r15@x86@asmjit@@3AEBUX86GpReg@2@EB DQ FLAT:?x86RegData@asmjit@@3UX86RegData@1@B+1216 ; asmjit::x86::r15
?xmm0@x86@asmjit@@3AEBUX86XmmReg@2@EB DQ FLAT:?x86RegData@asmjit@@3UX86RegData@1@B+1616 ; asmjit::x86::xmm0
?xmm1@x86@asmjit@@3AEBUX86XmmReg@2@EB DQ FLAT:?x86RegData@asmjit@@3UX86RegData@1@B+1632 ; asmjit::x86::xmm1
?xmm2@x86@asmjit@@3AEBUX86XmmReg@2@EB DQ FLAT:?x86RegData@asmjit@@3UX86RegData@1@B+1648 ; asmjit::x86::xmm2
?xmm3@x86@asmjit@@3AEBUX86XmmReg@2@EB DQ FLAT:?x86RegData@asmjit@@3UX86RegData@1@B+1664 ; asmjit::x86::xmm3
_DATA	ENDS
;	COMDAT xdata
xdata	SEGMENT
$unwind$??__E?id@?$numpunct@D@std@@2V0locale@2@A@@YAXXZ DD 010401H
	DD	04204H
xdata	ENDS
;	COMDAT xdata
xdata	SEGMENT
$unwind$??__E?id@?$collate@D@std@@2V0locale@2@A@@YAXXZ DD 010401H
	DD	04204H
xdata	ENDS
;	COMDAT xdata
xdata	SEGMENT
$unwind$??__E?id@?$num_put@DV?$ostreambuf_iterator@DU?$char_traits@D@std@@@std@@@std@@2V0locale@2@A@@YAXXZ DD 010401H
	DD	04204H
xdata	ENDS
;	COMDAT xdata
xdata	SEGMENT
$unwind$??__E?id@?$codecvt@DDU_Mbstatet@@@std@@2V0locale@2@A@@YAXXZ DD 010401H
	DD	04204H
xdata	ENDS
;	COMDAT xdata
xdata	SEGMENT
$unwind$?dtor$1@?0???$PushArgp@UX86Mem@asmjit@@@AsmHelper64@IronMan@@AEAAXAEBUX86Mem@asmjit@@H_N@Z@4HA DD 020601H
	DD	050023206H
xdata	ENDS
;	COMDAT xdata
xdata	SEGMENT
$unwind$?dtor$0@?0???$PushArgp@UX86Mem@asmjit@@@AsmHelper64@IronMan@@AEAAXAEBUX86Mem@asmjit@@H_N@Z@4HA DD 020601H
	DD	050023206H
xdata	ENDS
;	COMDAT xdata
xdata	SEGMENT
$ip2state$??$PushArgp@UX86Mem@asmjit@@@AsmHelper64@IronMan@@AEAAXAEBUX86Mem@asmjit@@H_N@Z DB 0aH
	DB	00H
	DB	00H
	DB	0a4H
	DB	02H
	DB	09aH
	DB	00H
	DB	08eH
	DB	04H
	DB	09aH
	DB	00H
xdata	ENDS
;	COMDAT xdata
xdata	SEGMENT
$stateUnwindMap$??$PushArgp@UX86Mem@asmjit@@@AsmHelper64@IronMan@@AEAAXAEBUX86Mem@asmjit@@H_N@Z DB 04H
	DB	0eH
	DD	imagerel ?dtor$0@?0???$PushArgp@UX86Mem@asmjit@@@AsmHelper64@IronMan@@AEAAXAEBUX86Mem@asmjit@@H_N@Z@4HA
	DB	036H
	DD	imagerel ?dtor$1@?0???$PushArgp@UX86Mem@asmjit@@@AsmHelper64@IronMan@@AEAAXAEBUX86Mem@asmjit@@H_N@Z@4HA
xdata	ENDS
;	COMDAT xdata
xdata	SEGMENT
$cppxdata$??$PushArgp@UX86Mem@asmjit@@@AsmHelper64@IronMan@@AEAAXAEBUX86Mem@asmjit@@H_N@Z DB 08H
	DD	imagerel $stateUnwindMap$??$PushArgp@UX86Mem@asmjit@@@AsmHelper64@IronMan@@AEAAXAEBUX86Mem@asmjit@@H_N@Z
	DD	imagerel $ip2state$??$PushArgp@UX86Mem@asmjit@@@AsmHelper64@IronMan@@AEAAXAEBUX86Mem@asmjit@@H_N@Z
xdata	ENDS
;	COMDAT xdata
xdata	SEGMENT
$unwind$??$PushArgp@UX86Mem@asmjit@@@AsmHelper64@IronMan@@AEAAXAEBUX86Mem@asmjit@@H_N@Z DD 011811H
	DD	0e218H
	DD	imagerel __CxxFrameHandler4
	DD	imagerel $cppxdata$??$PushArgp@UX86Mem@asmjit@@@AsmHelper64@IronMan@@AEAAXAEBUX86Mem@asmjit@@H_N@Z
xdata	ENDS
;	COMDAT xdata
xdata	SEGMENT
$unwind$?dtor$1@?0???$PushArgp@UX86GpReg@asmjit@@@AsmHelper64@IronMan@@AEAAXAEBUX86GpReg@asmjit@@H_N@Z@4HA DD 020601H
	DD	050023206H
xdata	ENDS
;	COMDAT xdata
xdata	SEGMENT
$unwind$?dtor$0@?0???$PushArgp@UX86GpReg@asmjit@@@AsmHelper64@IronMan@@AEAAXAEBUX86GpReg@asmjit@@H_N@Z@4HA DD 020601H
	DD	050023206H
xdata	ENDS
;	COMDAT xdata
xdata	SEGMENT
$ip2state$??$PushArgp@UX86GpReg@asmjit@@@AsmHelper64@IronMan@@AEAAXAEBUX86GpReg@asmjit@@H_N@Z DB 0aH
	DB	00H
	DB	00H
	DB	0a4H
	DB	02H
	DB	09aH
	DB	00H
	DB	08eH
	DB	04H
	DB	09aH
	DB	00H
xdata	ENDS
;	COMDAT xdata
xdata	SEGMENT
$stateUnwindMap$??$PushArgp@UX86GpReg@asmjit@@@AsmHelper64@IronMan@@AEAAXAEBUX86GpReg@asmjit@@H_N@Z DB 04H
	DB	0eH
	DD	imagerel ?dtor$0@?0???$PushArgp@UX86GpReg@asmjit@@@AsmHelper64@IronMan@@AEAAXAEBUX86GpReg@asmjit@@H_N@Z@4HA
	DB	036H
	DD	imagerel ?dtor$1@?0???$PushArgp@UX86GpReg@asmjit@@@AsmHelper64@IronMan@@AEAAXAEBUX86GpReg@asmjit@@H_N@Z@4HA
xdata	ENDS
;	COMDAT xdata
xdata	SEGMENT
$cppxdata$??$PushArgp@UX86GpReg@asmjit@@@AsmHelper64@IronMan@@AEAAXAEBUX86GpReg@asmjit@@H_N@Z DB 08H
	DD	imagerel $stateUnwindMap$??$PushArgp@UX86GpReg@asmjit@@@AsmHelper64@IronMan@@AEAAXAEBUX86GpReg@asmjit@@H_N@Z
	DD	imagerel $ip2state$??$PushArgp@UX86GpReg@asmjit@@@AsmHelper64@IronMan@@AEAAXAEBUX86GpReg@asmjit@@H_N@Z
xdata	ENDS
;	COMDAT xdata
xdata	SEGMENT
$unwind$??$PushArgp@UX86GpReg@asmjit@@@AsmHelper64@IronMan@@AEAAXAEBUX86GpReg@asmjit@@H_N@Z DD 011811H
	DD	0e218H
	DD	imagerel __CxxFrameHandler4
	DD	imagerel $cppxdata$??$PushArgp@UX86GpReg@asmjit@@@AsmHelper64@IronMan@@AEAAXAEBUX86GpReg@asmjit@@H_N@Z
xdata	ENDS
;	COMDAT xdata
xdata	SEGMENT
$unwind$?dtor$1@?0???$PushArgp@I@AsmHelper64@IronMan@@AEAAXAEBIH_N@Z@4HA DD 020601H
	DD	050023206H
xdata	ENDS
;	COMDAT xdata
xdata	SEGMENT
$unwind$?dtor$0@?0???$PushArgp@I@AsmHelper64@IronMan@@AEAAXAEBIH_N@Z@4HA DD 020601H
	DD	050023206H
xdata	ENDS
;	COMDAT xdata
xdata	SEGMENT
$ip2state$??$PushArgp@I@AsmHelper64@IronMan@@AEAAXAEBIH_N@Z DB 0aH
	DB	00H
	DB	00H
	DB	0a4H
	DB	02H
	DB	09aH
	DB	00H
	DB	08eH
	DB	04H
	DB	09aH
	DB	00H
xdata	ENDS
;	COMDAT xdata
xdata	SEGMENT
$stateUnwindMap$??$PushArgp@I@AsmHelper64@IronMan@@AEAAXAEBIH_N@Z DB 04H
	DB	0eH
	DD	imagerel ?dtor$0@?0???$PushArgp@I@AsmHelper64@IronMan@@AEAAXAEBIH_N@Z@4HA
	DB	036H
	DD	imagerel ?dtor$1@?0???$PushArgp@I@AsmHelper64@IronMan@@AEAAXAEBIH_N@Z@4HA
xdata	ENDS
;	COMDAT xdata
xdata	SEGMENT
$cppxdata$??$PushArgp@I@AsmHelper64@IronMan@@AEAAXAEBIH_N@Z DB 08H
	DD	imagerel $stateUnwindMap$??$PushArgp@I@AsmHelper64@IronMan@@AEAAXAEBIH_N@Z
	DD	imagerel $ip2state$??$PushArgp@I@AsmHelper64@IronMan@@AEAAXAEBIH_N@Z
xdata	ENDS
;	COMDAT xdata
xdata	SEGMENT
$unwind$??$PushArgp@I@AsmHelper64@IronMan@@AEAAXAEBIH_N@Z DD 011811H
	DD	0e218H
	DD	imagerel __CxxFrameHandler4
	DD	imagerel $cppxdata$??$PushArgp@I@AsmHelper64@IronMan@@AEAAXAEBIH_N@Z
xdata	ENDS
;	COMDAT xdata
xdata	SEGMENT
$unwind$?dtor$1@?0???$PushArgp@_K@AsmHelper64@IronMan@@AEAAXAEB_KH_N@Z@4HA DD 020601H
	DD	050023206H
xdata	ENDS
;	COMDAT xdata
xdata	SEGMENT
$unwind$?dtor$0@?0???$PushArgp@_K@AsmHelper64@IronMan@@AEAAXAEB_KH_N@Z@4HA DD 020601H
	DD	050023206H
xdata	ENDS
;	COMDAT xdata
xdata	SEGMENT
$ip2state$??$PushArgp@_K@AsmHelper64@IronMan@@AEAAXAEB_KH_N@Z DB 0aH
	DB	00H
	DB	00H
	DB	0a4H
	DB	02H
	DB	09aH
	DB	00H
	DB	08eH
	DB	04H
	DB	09aH
	DB	00H
xdata	ENDS
;	COMDAT xdata
xdata	SEGMENT
$stateUnwindMap$??$PushArgp@_K@AsmHelper64@IronMan@@AEAAXAEB_KH_N@Z DB 04H
	DB	0eH
	DD	imagerel ?dtor$0@?0???$PushArgp@_K@AsmHelper64@IronMan@@AEAAXAEB_KH_N@Z@4HA
	DB	036H
	DD	imagerel ?dtor$1@?0???$PushArgp@_K@AsmHelper64@IronMan@@AEAAXAEB_KH_N@Z@4HA
xdata	ENDS
;	COMDAT xdata
xdata	SEGMENT
$cppxdata$??$PushArgp@_K@AsmHelper64@IronMan@@AEAAXAEB_KH_N@Z DB 08H
	DD	imagerel $stateUnwindMap$??$PushArgp@_K@AsmHelper64@IronMan@@AEAAXAEB_KH_N@Z
	DD	imagerel $ip2state$??$PushArgp@_K@AsmHelper64@IronMan@@AEAAXAEB_KH_N@Z
xdata	ENDS
;	COMDAT xdata
xdata	SEGMENT
$unwind$??$PushArgp@_K@AsmHelper64@IronMan@@AEAAXAEB_KH_N@Z DD 011811H
	DD	0e218H
	DD	imagerel __CxxFrameHandler4
	DD	imagerel $cppxdata$??$PushArgp@_K@AsmHelper64@IronMan@@AEAAXAEB_KH_N@Z
xdata	ENDS
;	COMDAT xdata
xdata	SEGMENT
$unwind$??A?$vector@UAsmVariant@IronMan@@V?$allocator@UAsmVariant@IronMan@@@std@@@std@@QEBAAEBUAsmVariant@IronMan@@_K@Z DD 010e01H
	DD	0220eH
xdata	ENDS
;	COMDAT xdata
xdata	SEGMENT
$unwind$?size@?$vector@UAsmVariant@IronMan@@V?$allocator@UAsmVariant@IronMan@@@std@@@std@@QEBA_KXZ DD 010901H
	DD	02209H
xdata	ENDS
;	COMDAT xdata
xdata	SEGMENT
$unwind$??_GAsmHelper64@IronMan@@UEAAPEAXI@Z DD 010d01H
	DD	0420dH
xdata	ENDS
;	COMDAT xdata
xdata	SEGMENT
$unwind$??_GIAsmHelper@IronMan@@UEAAPEAXI@Z DD 010d01H
	DD	0420dH
xdata	ENDS
;	COMDAT xdata
xdata	SEGMENT
$unwind$?SwitchTo64@IAsmHelper@IronMan@@QEAAXXZ DD 010901H
	DD	0e209H
xdata	ENDS
;	COMDAT xdata
xdata	SEGMENT
$unwind$?SwitchTo86@IAsmHelper@IronMan@@QEAAXXZ DD 020c01H
	DD	013010cH
xdata	ENDS
;	COMDAT xdata
xdata	SEGMENT
$unwind$?dtor$1@?0???1IAsmHelper@IronMan@@UEAA@XZ@4HA DD 020601H
	DD	050023206H
xdata	ENDS
;	COMDAT xdata
xdata	SEGMENT
$unwind$?dtor$0@?0???1IAsmHelper@IronMan@@UEAA@XZ@4HA DD 020601H
	DD	050023206H
xdata	ENDS
;	COMDAT xdata
xdata	SEGMENT
$ip2state$??1IAsmHelper@IronMan@@UEAA@XZ DB 06H
	DB	00H
	DB	00H
	DB	'0'
	DB	02H
	DB	'('
	DB	00H
xdata	ENDS
;	COMDAT xdata
xdata	SEGMENT
$stateUnwindMap$??1IAsmHelper@IronMan@@UEAA@XZ DB 04H
	DB	0eH
	DD	imagerel ?dtor$0@?0???1IAsmHelper@IronMan@@UEAA@XZ@4HA
	DB	02eH
	DD	imagerel ?dtor$1@?0???1IAsmHelper@IronMan@@UEAA@XZ@4HA
xdata	ENDS
;	COMDAT xdata
xdata	SEGMENT
$cppxdata$??1IAsmHelper@IronMan@@UEAA@XZ DB 048H
	DD	imagerel $stateUnwindMap$??1IAsmHelper@IronMan@@UEAA@XZ
	DD	imagerel $ip2state$??1IAsmHelper@IronMan@@UEAA@XZ
xdata	ENDS
;	COMDAT xdata
xdata	SEGMENT
$unwind$??1IAsmHelper@IronMan@@UEAA@XZ DD 010911H
	DD	04209H
	DD	imagerel __CxxFrameHandler4
	DD	imagerel $cppxdata$??1IAsmHelper@IronMan@@UEAA@XZ
xdata	ENDS
;	COMDAT xdata
xdata	SEGMENT
$unwind$?dtor$1@?0???0IAsmHelper@IronMan@@QEAA@I@Z@4HA DD 020601H
	DD	050023206H
xdata	ENDS
;	COMDAT xdata
xdata	SEGMENT
$unwind$?dtor$0@?0???0IAsmHelper@IronMan@@QEAA@I@Z@4HA DD 020601H
	DD	050023206H
xdata	ENDS
;	COMDAT xdata
xdata	SEGMENT
$ip2state$??0IAsmHelper@IronMan@@QEAA@I@Z DB 06H
	DB	00H
	DB	00H
	DB	'\'
	DB	02H
	DB	'X'
	DB	00H
xdata	ENDS
;	COMDAT xdata
xdata	SEGMENT
$stateUnwindMap$??0IAsmHelper@IronMan@@QEAA@I@Z DB 04H
	DB	0eH
	DD	imagerel ?dtor$0@?0???0IAsmHelper@IronMan@@QEAA@I@Z@4HA
	DB	02eH
	DD	imagerel ?dtor$1@?0???0IAsmHelper@IronMan@@QEAA@I@Z@4HA
xdata	ENDS
;	COMDAT xdata
xdata	SEGMENT
$cppxdata$??0IAsmHelper@IronMan@@QEAA@I@Z DB 08H
	DD	imagerel $stateUnwindMap$??0IAsmHelper@IronMan@@QEAA@I@Z
	DD	imagerel $ip2state$??0IAsmHelper@IronMan@@QEAA@I@Z
xdata	ENDS
;	COMDAT xdata
xdata	SEGMENT
$unwind$??0IAsmHelper@IronMan@@QEAA@I@Z DD 010d11H
	DD	0620dH
	DD	imagerel __CxxFrameHandler4
	DD	imagerel $cppxdata$??0IAsmHelper@IronMan@@QEAA@I@Z
xdata	ENDS
;	COMDAT xdata
xdata	SEGMENT
$unwind$?movq@X86Assembler@asmjit@@QEAAIAEBUX86XmmReg@2@AEBUX86GpReg@2@@Z DD 011301H
	DD	04213H
xdata	ENDS
;	COMDAT xdata
xdata	SEGMENT
$unwind$?sub@X86Assembler@asmjit@@QEAAIAEBUX86GpReg@2@_K@Z DD 011301H
	DD	04213H
xdata	ENDS
;	COMDAT xdata
xdata	SEGMENT
$unwind$?ret@X86Assembler@asmjit@@QEAAIXZ DD 010901H
	DD	04209H
xdata	ENDS
;	COMDAT xdata
xdata	SEGMENT
$unwind$?push@X86Assembler@asmjit@@QEAAIH@Z DD 010d01H
	DD	0420dH
xdata	ENDS
;	COMDAT xdata
xdata	SEGMENT
$unwind$?mov@X86Assembler@asmjit@@QEAAIAEBUX86Mem@2@H@Z DD 011301H
	DD	04213H
xdata	ENDS
;	COMDAT xdata
xdata	SEGMENT
$unwind$?mov@X86Assembler@asmjit@@QEAAIAEBUX86Mem@2@AEBUX86GpReg@2@@Z DD 011301H
	DD	04213H
xdata	ENDS
;	COMDAT xdata
xdata	SEGMENT
$unwind$?mov@X86Assembler@asmjit@@QEAAIAEBUX86GpReg@2@_K@Z DD 011301H
	DD	04213H
xdata	ENDS
;	COMDAT xdata
xdata	SEGMENT
$unwind$?mov@X86Assembler@asmjit@@QEAAIAEBUX86GpReg@2@I@Z DD 011301H
	DD	04213H
xdata	ENDS
;	COMDAT xdata
xdata	SEGMENT
$unwind$?mov@X86Assembler@asmjit@@QEAAIAEBUX86GpReg@2@H@Z DD 011301H
	DD	04213H
xdata	ENDS
;	COMDAT xdata
xdata	SEGMENT
$unwind$?mov@X86Assembler@asmjit@@QEAAIAEBUX86GpReg@2@AEBUX86Mem@2@@Z DD 011301H
	DD	04213H
xdata	ENDS
;	COMDAT xdata
xdata	SEGMENT
$unwind$?mov@X86Assembler@asmjit@@QEAAIAEBUX86GpReg@2@0@Z DD 011301H
	DD	04213H
xdata	ENDS
;	COMDAT xdata
xdata	SEGMENT
$unwind$?lea@X86Assembler@asmjit@@QEAAIAEBUX86GpReg@2@AEBUX86Mem@2@@Z DD 011301H
	DD	04213H
xdata	ENDS
;	COMDAT xdata
xdata	SEGMENT
$unwind$?call@X86Assembler@asmjit@@QEAAIAEBULabel@2@@Z DD 010e01H
	DD	0420eH
xdata	ENDS
;	COMDAT xdata
xdata	SEGMENT
$unwind$?call@X86Assembler@asmjit@@QEAAIAEBUX86GpReg@2@@Z DD 010e01H
	DD	0420eH
xdata	ENDS
;	COMDAT xdata
xdata	SEGMENT
$unwind$?and_@X86Assembler@asmjit@@QEAAIAEBUX86GpReg@2@_K@Z DD 011301H
	DD	04213H
xdata	ENDS
;	COMDAT xdata
xdata	SEGMENT
$unwind$?add@X86Assembler@asmjit@@QEAAIAEBUX86Mem@2@H@Z DD 011301H
	DD	04213H
xdata	ENDS
;	COMDAT xdata
xdata	SEGMENT
$unwind$?add@X86Assembler@asmjit@@QEAAIAEBUX86GpReg@2@_K@Z DD 011301H
	DD	04213H
xdata	ENDS
;	COMDAT xdata
xdata	SEGMENT
$unwind$?dd@X86Assembler@asmjit@@QEAAXI@Z DD 010d01H
	DD	0620dH
xdata	ENDS
;	COMDAT xdata
xdata	SEGMENT
$unwind$?db@X86Assembler@asmjit@@QEAAXE@Z DD 010d01H
	DD	0620dH
xdata	ENDS
xdata	SEGMENT
$unwind$?dword_ptr@x86@asmjit@@YA?AUX86Mem@2@AEBUX86GpReg@2@H@Z DD 011301H
	DD	04213H
$unwind$?dword_ptr_abs@x86@asmjit@@YA?AUX86Mem@2@_KH@Z DD 011301H
	DD	04213H
$unwind$?qword_ptr@x86@asmjit@@YA?AUX86Mem@2@AEBUX86GpReg@2@H@Z DD 011301H
	DD	04213H
$unwind$??0AsmHelper64@IronMan@@QEAA@XZ DD 010911H
	DD	04209H
	DD	imagerel __CxxFrameHandler4
	DD	imagerel $cppxdata$??0AsmHelper64@IronMan@@QEAA@XZ
$cppxdata$??0AsmHelper64@IronMan@@QEAA@XZ DB 08H
	DD	imagerel $stateUnwindMap$??0AsmHelper64@IronMan@@QEAA@XZ
	DD	imagerel $ip2state$??0AsmHelper64@IronMan@@QEAA@XZ
$stateUnwindMap$??0AsmHelper64@IronMan@@QEAA@XZ DB 02H
	DB	0eH
	DD	imagerel ?dtor$0@?0???0AsmHelper64@IronMan@@QEAA@XZ@4HA
$ip2state$??0AsmHelper64@IronMan@@QEAA@XZ DB 06H
	DB	00H
	DB	00H
	DB	'2'
	DB	02H
	DB	'6'
	DB	00H
	ORG $+2
$unwind$?dtor$0@?0???0AsmHelper64@IronMan@@QEAA@XZ@4HA DD 020601H
	DD	050023206H
$unwind$??1AsmHelper64@IronMan@@UEAA@XZ DD 010911H
	DD	04209H
	DD	imagerel __CxxFrameHandler4
	DD	imagerel $cppxdata$??1AsmHelper64@IronMan@@UEAA@XZ
$cppxdata$??1AsmHelper64@IronMan@@UEAA@XZ DB 048H
	DD	imagerel $stateUnwindMap$??1AsmHelper64@IronMan@@UEAA@XZ
	DD	imagerel $ip2state$??1AsmHelper64@IronMan@@UEAA@XZ
$stateUnwindMap$??1AsmHelper64@IronMan@@UEAA@XZ DB 02H
	DB	0eH
	DD	imagerel ?dtor$0@?0???1AsmHelper64@IronMan@@UEAA@XZ@4HA
$ip2state$??1AsmHelper64@IronMan@@UEAA@XZ DB 02H
	DB	00H
	DB	00H
	ORG $+2
$unwind$?dtor$0@?0???1AsmHelper64@IronMan@@UEAA@XZ@4HA DD 020601H
	DD	050023206H
$unwind$?GenPrologue@AsmHelper64@IronMan@@UEAAX_N@Z DD 021001H
	DD	01f0110H
$unwind$?GenEpilogue@AsmHelper64@IronMan@@UEAAX_NH@Z DD 021501H
	DD	01f0115H
$unwind$?GenCall@AsmHelper64@IronMan@@UEAAXAEBUAsmFunctionPtr@2@AEBV?$vector@UAsmVariant@IronMan@@V?$allocator@UAsmVariant@IronMan@@@std@@@std@@W4eCalligConvention@2@@Z DD 011801H
	DD	0c218H
$unwind$?ExitThreadWithStatus@AsmHelper64@IronMan@@UEAAX_K0@Z DD 011301H
	DD	0e213H
$unwind$?SaveRetValAndSignalEvent@AsmHelper64@IronMan@@UEAAX_K000W4eReturnType@2@@Z DD 021b01H
	DD	027011bH
$unwind$?PushArg@AsmHelper64@IronMan@@AEAAXAEBUAsmVariant@2@H@Z DD 011301H
	DD	0a213H
xdata	ENDS
;	COMDAT xdata
xdata	SEGMENT
$unwind$?setSegment@X86Mem@asmjit@@QEAAAEAU12@AEBUX86SegReg@2@@Z DD 010e01H
	DD	0420eH
xdata	ENDS
;	COMDAT xdata
xdata	SEGMENT
$unwind$??0X86Mem@asmjit@@QEAA@AEBUX86GpReg@1@HI@Z DD 011801H
	DD	08218H
xdata	ENDS
;	COMDAT xdata
xdata	SEGMENT
$unwind$??0X86XmmReg@asmjit@@QEAA@AEBU01@@Z DD 010e01H
	DD	0420eH
xdata	ENDS
;	COMDAT xdata
xdata	SEGMENT
$unwind$??0X86GpReg@asmjit@@QEAA@AEBU01@@Z DD 010e01H
	DD	0420eH
xdata	ENDS
;	COMDAT xdata
xdata	SEGMENT
$unwind$??0X86Reg@asmjit@@QEAA@AEBU01@@Z DD 010e01H
	DD	0420eH
xdata	ENDS
;	COMDAT xdata
xdata	SEGMENT
$unwind$?newLabel@Assembler@asmjit@@QEAA?AULabel@2@XZ DD 010e01H
	DD	0620eH
xdata	ENDS
;	COMDAT xdata
xdata	SEGMENT
$unwind$??0Label@asmjit@@QEAA@AEBU_NoInit@1@@Z DD 010e01H
	DD	0420eH
xdata	ENDS
;	COMDAT xdata
xdata	SEGMENT
$unwind$??0Label@asmjit@@QEAA@AEBU01@@Z DD 010e01H
	DD	0420eH
xdata	ENDS
;	COMDAT xdata
xdata	SEGMENT
$unwind$??0BaseMem@asmjit@@QEAA@AEBU_NoInit@1@@Z DD 010e01H
	DD	0420eH
xdata	ENDS
;	COMDAT xdata
xdata	SEGMENT
$unwind$??0Reg@asmjit@@QEAA@AEBU01@@Z DD 010e01H
	DD	0420eH
xdata	ENDS
;	COMDAT xdata
xdata	SEGMENT
$unwind$?_init_packed_d2_d3@Operand@asmjit@@QEAAXII@Z DD 011201H
	DD	06212H
xdata	ENDS
;	COMDAT xdata
xdata	SEGMENT
$unwind$?_init_packed_op_sz_b0_b1_id@Operand@asmjit@@QEAAXIIIII@Z DD 011701H
	DD	06217H
xdata	ENDS
;	COMDAT xdata
xdata	SEGMENT
$unwind$?_init@Operand@asmjit@@QEAAXAEBU12@@Z DD 010e01H
	DD	0420eH
xdata	ENDS
;	COMDAT xdata
xdata	SEGMENT
$unwind$??0Operand@asmjit@@QEAA@AEBU01@@Z DD 010e01H
	DD	0420eH
xdata	ENDS
;	COMDAT xdata
xdata	SEGMENT
$unwind$?setPacked_2x32@UInt64@asmjit@@QEAAAEAT12@II@Z DD 011201H
	DD	04212H
xdata	ENDS
;	COMDAT xdata
xdata	SEGMENT
$unwind$??__Esslinit_@detail@httplib@@YAXXZ DD 010401H
	DD	04204H
xdata	ENDS
;	COMDAT xdata
xdata	SEGMENT
$unwind$??0SSLInit@detail@httplib@@QEAA@XZ DD 010901H
	DD	04209H
xdata	ENDS
;	COMDAT xdata
xdata	SEGMENT
$unwind$??__Fwsinit_@detail@httplib@@YAXXZ DD 010401H
	DD	04204H
xdata	ENDS
;	COMDAT xdata
xdata	SEGMENT
$unwind$??__Ewsinit_@detail@httplib@@YAXXZ DD 010401H
	DD	04204H
xdata	ENDS
;	COMDAT xdata
xdata	SEGMENT
$ip2state$??1WSInit@detail@httplib@@QEAA@XZ DB 02H
	DB	00H
	DB	00H
xdata	ENDS
;	COMDAT xdata
xdata	SEGMENT
$cppxdata$??1WSInit@detail@httplib@@QEAA@XZ DB 040H
	DD	imagerel $ip2state$??1WSInit@detail@httplib@@QEAA@XZ
xdata	ENDS
;	COMDAT xdata
xdata	SEGMENT
$unwind$??1WSInit@detail@httplib@@QEAA@XZ DD 010919H
	DD	04209H
	DD	imagerel __CxxFrameHandler4
	DD	imagerel $cppxdata$??1WSInit@detail@httplib@@QEAA@XZ
xdata	ENDS
;	COMDAT voltbl
voltbl	SEGMENT
_volmd	DB	016H
	DB	04fH
voltbl	ENDS
;	COMDAT xdata
xdata	SEGMENT
$unwind$??0WSInit@detail@httplib@@QEAA@XZ DD 021e19H
	DD	03b010cH
	DD	imagerel __GSHandlerCheck
	DD	01c0H
xdata	ENDS
;	COMDAT xdata
xdata	SEGMENT
$unwind$?Align@@YA_K_K0@Z DD 010e01H
	DD	0220eH
xdata	ENDS
;	COMDAT xdata
xdata	SEGMENT
$unwind$??_H@YAXPEAX_K1P6APEAX0@Z@Z DD 011801H
	DD	06218H
xdata	ENDS
CRT$XCU	SEGMENT
?sslinit_$initializer$@detail@httplib@@3P6AXXZEA DQ FLAT:??__Esslinit_@detail@httplib@@YAXXZ ; httplib::detail::sslinit_$initializer$
CRT$XCU	ENDS
;	COMDAT CRT$XCU
CRT$XCU	SEGMENT
??id$initializer$@?$codecvt@DDU_Mbstatet@@@std@@2P6AXXZEA@@3P6AXXZEA DQ FLAT:??__E?id@?$codecvt@DDU_Mbstatet@@@std@@2V0locale@2@A@@YAXXZ ; ??id$initializer$@?$codecvt@DDU_Mbstatet@@@std@@2P6AXXZEA@@3P6AXXZEA
CRT$XCU	ENDS
;	COMDAT CRT$XCU
CRT$XCU	SEGMENT
??id$initializer$@?$num_put@DV?$ostreambuf_iterator@DU?$char_traits@D@std@@@std@@@std@@2P6AXXZEA@@3P6AXXZEA DQ FLAT:??__E?id@?$num_put@DV?$ostreambuf_iterator@DU?$char_traits@D@std@@@std@@@std@@2V0locale@2@A@@YAXXZ ; ??id$initializer$@?$num_put@DV?$ostreambuf_iterator@DU?$char_traits@D@std@@@std@@@std@@2P6AXXZEA@@3P6AXXZEA
CRT$XCU	ENDS
;	COMDAT CRT$XCU
CRT$XCU	SEGMENT
??id$initializer$@?$collate@D@std@@2P6AXXZEA@@3P6AXXZEA DQ FLAT:??__E?id@?$collate@D@std@@2V0locale@2@A@@YAXXZ ; ??id$initializer$@?$collate@D@std@@2P6AXXZEA@@3P6AXXZEA
CRT$XCU	ENDS
;	COMDAT CRT$XCU
CRT$XCU	SEGMENT
??id$initializer$@?$numpunct@D@std@@2P6AXXZEA@@3P6AXXZEA DQ FLAT:??__E?id@?$numpunct@D@std@@2V0locale@2@A@@YAXXZ ; ??id$initializer$@?$numpunct@D@std@@2P6AXXZEA@@3P6AXXZEA
CRT$XCU	ENDS
; Function compile flags: /Odtp
; File C:\Program Files\Microsoft Visual Studio\2022\Community\VC\Tools\MSVC\14.43.34808\include\xlocnum
;	COMDAT ??__E?id@?$numpunct@D@std@@2V0locale@2@A@@YAXXZ
text$di	SEGMENT
??__E?id@?$numpunct@D@std@@2V0locale@2@A@@YAXXZ PROC	; `dynamic initializer for 'std::numpunct<char>::id'', COMDAT

; 236  : __PURE_APPDOMAIN_GLOBAL locale::id numpunct<_Elem>::id;

	sub	rsp, 40					; 00000028H
	lea	rcx, OFFSET FLAT:?id@?$numpunct@D@std@@2V0locale@2@A ; std::numpunct<char>::id
	call	??$?0$0A@@id@locale@std@@QEAA@XZ	; std::locale::id::id<0>
	npad	1
	add	rsp, 40					; 00000028H
	ret	0
??__E?id@?$numpunct@D@std@@2V0locale@2@A@@YAXXZ ENDP	; `dynamic initializer for 'std::numpunct<char>::id''
text$di	ENDS
; Function compile flags: /Odtp
; File C:\Program Files\Microsoft Visual Studio\2022\Community\VC\Tools\MSVC\14.43.34808\include\locale
;	COMDAT ??__E?id@?$collate@D@std@@2V0locale@2@A@@YAXXZ
text$di	SEGMENT
??__E?id@?$collate@D@std@@2V0locale@2@A@@YAXXZ PROC	; `dynamic initializer for 'std::collate<char>::id'', COMDAT

; 124  : __PURE_APPDOMAIN_GLOBAL locale::id collate<_Elem>::id;

	sub	rsp, 40					; 00000028H
	lea	rcx, OFFSET FLAT:?id@?$collate@D@std@@2V0locale@2@A ; std::collate<char>::id
	call	??$?0$0A@@id@locale@std@@QEAA@XZ	; std::locale::id::id<0>
	npad	1
	add	rsp, 40					; 00000028H
	ret	0
??__E?id@?$collate@D@std@@2V0locale@2@A@@YAXXZ ENDP	; `dynamic initializer for 'std::collate<char>::id''
text$di	ENDS
; Function compile flags: /Odtp
; File C:\Program Files\Microsoft Visual Studio\2022\Community\VC\Tools\MSVC\14.43.34808\include\xlocnum
;	COMDAT ??__E?id@?$num_put@DV?$ostreambuf_iterator@DU?$char_traits@D@std@@@std@@@std@@2V0locale@2@A@@YAXXZ
text$di	SEGMENT
??__E?id@?$num_put@DV?$ostreambuf_iterator@DU?$char_traits@D@std@@@std@@@std@@2V0locale@2@A@@YAXXZ PROC ; `dynamic initializer for 'std::num_put<char,std::ostreambuf_iterator<char,std::char_traits<char> > >::id'', COMDAT

; 1646 : __PURE_APPDOMAIN_GLOBAL locale::id num_put<_Elem, _OutIt>::id;

	sub	rsp, 40					; 00000028H
	lea	rcx, OFFSET FLAT:?id@?$num_put@DV?$ostreambuf_iterator@DU?$char_traits@D@std@@@std@@@std@@2V0locale@2@A ; std::num_put<char,std::ostreambuf_iterator<char,std::char_traits<char> > >::id
	call	??$?0$0A@@id@locale@std@@QEAA@XZ	; std::locale::id::id<0>
	npad	1
	add	rsp, 40					; 00000028H
	ret	0
??__E?id@?$num_put@DV?$ostreambuf_iterator@DU?$char_traits@D@std@@@std@@@std@@2V0locale@2@A@@YAXXZ ENDP ; `dynamic initializer for 'std::num_put<char,std::ostreambuf_iterator<char,std::char_traits<char> > >::id''
text$di	ENDS
; Function compile flags: /Odtp
; File C:\Program Files\Microsoft Visual Studio\2022\Community\VC\Tools\MSVC\14.43.34808\include\xlocale
;	COMDAT ??__E?id@?$codecvt@DDU_Mbstatet@@@std@@2V0locale@2@A@@YAXXZ
text$di	SEGMENT
??__E?id@?$codecvt@DDU_Mbstatet@@@std@@2V0locale@2@A@@YAXXZ PROC ; `dynamic initializer for 'std::codecvt<char,char,_Mbstatet>::id'', COMDAT

; 809  : __PURE_APPDOMAIN_GLOBAL locale::id codecvt<_Elem, _Byte, _Statype>::id;

	sub	rsp, 40					; 00000028H
	lea	rcx, OFFSET FLAT:?id@?$codecvt@DDU_Mbstatet@@@std@@2V0locale@2@A ; std::codecvt<char,char,_Mbstatet>::id
	call	??$?0$0A@@id@locale@std@@QEAA@XZ	; std::locale::id::id<0>
	npad	1
	add	rsp, 40					; 00000028H
	ret	0
??__E?id@?$codecvt@DDU_Mbstatet@@@std@@2V0locale@2@A@@YAXXZ ENDP ; `dynamic initializer for 'std::codecvt<char,char,_Mbstatet>::id''
text$di	ENDS
; Function compile flags: /Odtp
; File C:\Program Files\Microsoft Visual Studio\2022\Community\VC\Tools\MSVC\14.43.34808\include\xlocale
;	COMDAT ??$?0$0A@@id@locale@std@@QEAA@XZ
_TEXT	SEGMENT
this$ = 8
??$?0$0A@@id@locale@std@@QEAA@XZ PROC			; std::locale::id::id<0>, COMDAT

; 81   :         id() noexcept /* strengthened */ {}

	mov	QWORD PTR [rsp+8], rcx

; 82   : #endif // ^^^ !defined(_CRTBLD) ^^^
; 83   : 
; 84   :         id(const id&)            = delete;
; 85   :         id& operator=(const id&) = delete;
; 86   : 
; 87   :         template <int = 0> // TRANSITION, ABI
; 88   :         size_t _Get_index() { // get stamp, with lazy allocation
; 89   :             if (_Id == 0) { // still zero, allocate stamp
; 90   :                 _BEGIN_LOCK(_LOCK_LOCALE)
; 91   :                 if (_Id == 0) {
; 92   :                     _Id = static_cast<size_t>(++_Id_cnt);
; 93   :                 }
; 94   :                 _END_LOCK()
; 95   :             }
; 96   :             return _Id;
; 97   :         }
; 98   : 
; 99   : #ifdef _CRTBLD // TRANSITION, ABI: preserved for binary compatibility
; 100  :         __CLR_OR_THIS_CALL operator size_t() {
; 101  :             return _Get_index();
; 102  :         }
; 103  : #endif // defined(_CRTBLD)
; 104  : 
; 105  :     private:
; 106  :         size_t _Id = 0; // the identifier stamp

	mov	rax, QWORD PTR this$[rsp]
	mov	QWORD PTR [rax], 0

; 81   :         id() noexcept /* strengthened */ {}

	mov	rax, QWORD PTR this$[rsp]
	ret	0
??$?0$0A@@id@locale@std@@QEAA@XZ ENDP			; std::locale::id::id<0>
_TEXT	ENDS
; Function compile flags: /Odtp
; File D:\c++\paoda\Helper\Asm\AsmHelper64.cpp
;	COMDAT ??$PushArgp@UX86Mem@asmjit@@@AsmHelper64@IronMan@@AEAAXAEBUX86Mem@asmjit@@H_N@Z
_TEXT	SEGMENT
tv147 = 32
tv160 = 40
tv173 = 48
tv183 = 56
tv202 = 64
tv200 = 72
tv204 = 80
$T1 = 88
this$ = 128
arg$ = 136
index$ = 144
fpu$ = 152
??$PushArgp@UX86Mem@asmjit@@@AsmHelper64@IronMan@@AEAAXAEBUX86Mem@asmjit@@H_N@Z PROC ; IronMan::AsmHelper64::PushArgp<asmjit::X86Mem>, COMDAT

; 231  : 	{

$LN11:
	mov	BYTE PTR [rsp+32], r9b
	mov	DWORD PTR [rsp+24], r8d
	mov	QWORD PTR [rsp+16], rdx
	mov	QWORD PTR [rsp+8], rcx
	sub	rsp, 120				; 00000078H

; 232  : 
; 233  : 		static const asmjit::GpReg regs[] = { asmjit::host::rcx, asmjit::host::rdx, asmjit::host::r8, asmjit::host::r9 };

	mov	eax, OFFSET FLAT:_Init_thread_epoch
	mov	eax, eax
	mov	ecx, DWORD PTR _tls_index
	mov	rdx, QWORD PTR gs:88
	mov	rcx, QWORD PTR [rdx+rcx*8]
	mov	eax, DWORD PTR [rax+rcx]
	cmp	DWORD PTR ?$TSS0@?1???$PushArgp@UX86Mem@asmjit@@@AsmHelper64@IronMan@@AEAAXAEBUX86Mem@asmjit@@H_N@Z@4HA, eax ; `IronMan::AsmHelper64::PushArgp<asmjit::X86Mem>'::`2'::$TSS0
	jle	SHORT $LN2@PushArgp
	lea	rcx, OFFSET FLAT:?$TSS0@?1???$PushArgp@UX86Mem@asmjit@@@AsmHelper64@IronMan@@AEAAXAEBUX86Mem@asmjit@@H_N@Z@4HA ; `IronMan::AsmHelper64::PushArgp<asmjit::X86Mem>'::`2'::$TSS0
	call	_Init_thread_header
	cmp	DWORD PTR ?$TSS0@?1???$PushArgp@UX86Mem@asmjit@@@AsmHelper64@IronMan@@AEAAXAEBUX86Mem@asmjit@@H_N@Z@4HA, -1 ; `IronMan::AsmHelper64::PushArgp<asmjit::X86Mem>'::`2'::$TSS0
	jne	SHORT $LN2@PushArgp
	mov	rdx, QWORD PTR ?rcx@x86@asmjit@@3AEBUX86GpReg@2@EB
	lea	rcx, OFFSET FLAT:?regs@?1???$PushArgp@UX86Mem@asmjit@@@AsmHelper64@IronMan@@AEAAXAEBUX86Mem@asmjit@@H_N@Z@4QBUX86GpReg@4@B ; `IronMan::AsmHelper64::PushArgp<asmjit::X86Mem>'::`2'::regs
	call	??0X86GpReg@asmjit@@QEAA@AEBU01@@Z	; asmjit::X86GpReg::X86GpReg
	mov	rdx, QWORD PTR ?rdx@x86@asmjit@@3AEBUX86GpReg@2@EB
	lea	rcx, OFFSET FLAT:?regs@?1???$PushArgp@UX86Mem@asmjit@@@AsmHelper64@IronMan@@AEAAXAEBUX86Mem@asmjit@@H_N@Z@4QBUX86GpReg@4@B+16
	call	??0X86GpReg@asmjit@@QEAA@AEBU01@@Z	; asmjit::X86GpReg::X86GpReg
	mov	rdx, QWORD PTR ?r8@x86@asmjit@@3AEBUX86GpReg@2@EB
	lea	rcx, OFFSET FLAT:?regs@?1???$PushArgp@UX86Mem@asmjit@@@AsmHelper64@IronMan@@AEAAXAEBUX86Mem@asmjit@@H_N@Z@4QBUX86GpReg@4@B+32
	call	??0X86GpReg@asmjit@@QEAA@AEBU01@@Z	; asmjit::X86GpReg::X86GpReg
	mov	rdx, QWORD PTR ?r9@x86@asmjit@@3AEBUX86GpReg@2@EB
	lea	rcx, OFFSET FLAT:?regs@?1???$PushArgp@UX86Mem@asmjit@@@AsmHelper64@IronMan@@AEAAXAEBUX86Mem@asmjit@@H_N@Z@4QBUX86GpReg@4@B+48
	call	??0X86GpReg@asmjit@@QEAA@AEBU01@@Z	; asmjit::X86GpReg::X86GpReg
	npad	1
	lea	rcx, OFFSET FLAT:?$TSS0@?1???$PushArgp@UX86Mem@asmjit@@@AsmHelper64@IronMan@@AEAAXAEBUX86Mem@asmjit@@H_N@Z@4HA ; `IronMan::AsmHelper64::PushArgp<asmjit::X86Mem>'::`2'::$TSS0
	call	_Init_thread_footer
	npad	1
$LN2@PushArgp:

; 234  : 		static const asmjit::XmmReg xregs[] = { asmjit::host::xmm0, asmjit::host::xmm1, asmjit::host::xmm2, asmjit::host::xmm3 };

	mov	eax, OFFSET FLAT:_Init_thread_epoch
	mov	eax, eax
	mov	ecx, DWORD PTR _tls_index
	mov	rdx, QWORD PTR gs:88
	mov	rcx, QWORD PTR [rdx+rcx*8]
	mov	eax, DWORD PTR [rax+rcx]
	cmp	DWORD PTR ?$TSS1@?1???$PushArgp@UX86Mem@asmjit@@@AsmHelper64@IronMan@@AEAAXAEBUX86Mem@asmjit@@H_N@Z@4HA, eax ; `IronMan::AsmHelper64::PushArgp<asmjit::X86Mem>'::`2'::$TSS1
	jle	SHORT $LN3@PushArgp
	lea	rcx, OFFSET FLAT:?$TSS1@?1???$PushArgp@UX86Mem@asmjit@@@AsmHelper64@IronMan@@AEAAXAEBUX86Mem@asmjit@@H_N@Z@4HA ; `IronMan::AsmHelper64::PushArgp<asmjit::X86Mem>'::`2'::$TSS1
	call	_Init_thread_header
	cmp	DWORD PTR ?$TSS1@?1???$PushArgp@UX86Mem@asmjit@@@AsmHelper64@IronMan@@AEAAXAEBUX86Mem@asmjit@@H_N@Z@4HA, -1 ; `IronMan::AsmHelper64::PushArgp<asmjit::X86Mem>'::`2'::$TSS1
	jne	SHORT $LN3@PushArgp
	mov	rdx, QWORD PTR ?xmm0@x86@asmjit@@3AEBUX86XmmReg@2@EB
	lea	rcx, OFFSET FLAT:?xregs@?1???$PushArgp@UX86Mem@asmjit@@@AsmHelper64@IronMan@@AEAAXAEBUX86Mem@asmjit@@H_N@Z@4QBUX86XmmReg@4@B ; `IronMan::AsmHelper64::PushArgp<asmjit::X86Mem>'::`2'::xregs
	call	??0X86XmmReg@asmjit@@QEAA@AEBU01@@Z	; asmjit::X86XmmReg::X86XmmReg
	mov	rdx, QWORD PTR ?xmm1@x86@asmjit@@3AEBUX86XmmReg@2@EB
	lea	rcx, OFFSET FLAT:?xregs@?1???$PushArgp@UX86Mem@asmjit@@@AsmHelper64@IronMan@@AEAAXAEBUX86Mem@asmjit@@H_N@Z@4QBUX86XmmReg@4@B+16
	call	??0X86XmmReg@asmjit@@QEAA@AEBU01@@Z	; asmjit::X86XmmReg::X86XmmReg
	mov	rdx, QWORD PTR ?xmm2@x86@asmjit@@3AEBUX86XmmReg@2@EB
	lea	rcx, OFFSET FLAT:?xregs@?1???$PushArgp@UX86Mem@asmjit@@@AsmHelper64@IronMan@@AEAAXAEBUX86Mem@asmjit@@H_N@Z@4QBUX86XmmReg@4@B+32
	call	??0X86XmmReg@asmjit@@QEAA@AEBU01@@Z	; asmjit::X86XmmReg::X86XmmReg
	mov	rdx, QWORD PTR ?xmm3@x86@asmjit@@3AEBUX86XmmReg@2@EB
	lea	rcx, OFFSET FLAT:?xregs@?1???$PushArgp@UX86Mem@asmjit@@@AsmHelper64@IronMan@@AEAAXAEBUX86Mem@asmjit@@H_N@Z@4QBUX86XmmReg@4@B+48
	call	??0X86XmmReg@asmjit@@QEAA@AEBU01@@Z	; asmjit::X86XmmReg::X86XmmReg
	npad	1
	lea	rcx, OFFSET FLAT:?$TSS1@?1???$PushArgp@UX86Mem@asmjit@@@AsmHelper64@IronMan@@AEAAXAEBUX86Mem@asmjit@@H_N@Z@4HA ; `IronMan::AsmHelper64::PushArgp<asmjit::X86Mem>'::`2'::$TSS1
	call	_Init_thread_footer
	npad	1
$LN3@PushArgp:

; 235  : 
; 236  : 		// Pass via register
; 237  : 		if (index < 4)

	cmp	DWORD PTR index$[rsp], 4
	jge	$LN4@PushArgp

; 238  : 		{
; 239  : 			// Use XMM register
; 240  : 			if (fpu)

	movzx	eax, BYTE PTR fpu$[rsp]
	test	eax, eax
	je	SHORT $LN6@PushArgp

; 241  : 			{
; 242  : 				_assembler.mov(asmjit::host::rax, arg);

	mov	rax, QWORD PTR this$[rsp]
	add	rax, 168				; 000000a8H
	mov	QWORD PTR tv147[rsp], rax
	mov	r8, QWORD PTR arg$[rsp]
	mov	rdx, QWORD PTR ?rax@x86@asmjit@@3AEBUX86GpReg@2@EB
	mov	rcx, QWORD PTR tv147[rsp]
	call	?mov@X86Assembler@asmjit@@QEAAIAEBUX86GpReg@2@AEBUX86Mem@2@@Z ; asmjit::X86Assembler::mov

; 243  : 				_assembler.movq(xregs[index], asmjit::host::rax);

	mov	rax, QWORD PTR this$[rsp]
	add	rax, 168				; 000000a8H
	mov	QWORD PTR tv160[rsp], rax
	movsxd	rax, DWORD PTR index$[rsp]
	imul	rax, rax, 16
	lea	rcx, OFFSET FLAT:?xregs@?1???$PushArgp@UX86Mem@asmjit@@@AsmHelper64@IronMan@@AEAAXAEBUX86Mem@asmjit@@H_N@Z@4QBUX86XmmReg@4@B ; `IronMan::AsmHelper64::PushArgp<asmjit::X86Mem>'::`2'::xregs
	add	rcx, rax
	mov	rax, rcx
	mov	r8, QWORD PTR ?rax@x86@asmjit@@3AEBUX86GpReg@2@EB
	mov	rdx, rax
	mov	rcx, QWORD PTR tv160[rsp]
	call	?movq@X86Assembler@asmjit@@QEAAIAEBUX86XmmReg@2@AEBUX86GpReg@2@@Z ; asmjit::X86Assembler::movq
	npad	1

; 244  : 			}

	jmp	SHORT $LN7@PushArgp
$LN6@PushArgp:

; 245  : 			else
; 246  : 				_assembler.mov(regs[index], arg);

	mov	rax, QWORD PTR this$[rsp]
	add	rax, 168				; 000000a8H
	mov	QWORD PTR tv173[rsp], rax
	movsxd	rax, DWORD PTR index$[rsp]
	imul	rax, rax, 16
	lea	rcx, OFFSET FLAT:?regs@?1???$PushArgp@UX86Mem@asmjit@@@AsmHelper64@IronMan@@AEAAXAEBUX86Mem@asmjit@@H_N@Z@4QBUX86GpReg@4@B ; `IronMan::AsmHelper64::PushArgp<asmjit::X86Mem>'::`2'::regs
	add	rcx, rax
	mov	rax, rcx
	mov	r8, QWORD PTR arg$[rsp]
	mov	rdx, rax
	mov	rcx, QWORD PTR tv173[rsp]
	call	?mov@X86Assembler@asmjit@@QEAAIAEBUX86GpReg@2@AEBUX86Mem@2@@Z ; asmjit::X86Assembler::mov
	npad	1
$LN7@PushArgp:

; 247  : 		}

	jmp	$LN5@PushArgp
$LN4@PushArgp:

; 248  : 		// Pass on stack
; 249  : 		else
; 250  : 		{
; 251  : 			_assembler.mov(asmjit::host::rax, arg);

	mov	rax, QWORD PTR this$[rsp]
	add	rax, 168				; 000000a8H
	mov	QWORD PTR tv183[rsp], rax
	mov	r8, QWORD PTR arg$[rsp]
	mov	rdx, QWORD PTR ?rax@x86@asmjit@@3AEBUX86GpReg@2@EB
	mov	rcx, QWORD PTR tv183[rsp]
	call	?mov@X86Assembler@asmjit@@QEAAIAEBUX86GpReg@2@AEBUX86Mem@2@@Z ; asmjit::X86Assembler::mov
	npad	1

; 252  : 			_assembler.mov(asmjit::host::qword_ptr(asmjit::host::rsp, index * sizeof(uint64_t)), asmjit::host::rax);

	mov	rax, QWORD PTR this$[rsp]
	add	rax, 168				; 000000a8H
	mov	QWORD PTR tv204[rsp], rax
	mov	rax, QWORD PTR ?rax@x86@asmjit@@3AEBUX86GpReg@2@EB
	mov	QWORD PTR tv202[rsp], rax
	movsxd	rax, DWORD PTR index$[rsp]
	shl	rax, 3
	mov	r8d, eax
	mov	rdx, QWORD PTR ?rsp@x86@asmjit@@3AEBUX86GpReg@2@EB
	lea	rcx, QWORD PTR $T1[rsp]
	call	?qword_ptr@x86@asmjit@@YA?AUX86Mem@2@AEBUX86GpReg@2@H@Z ; asmjit::x86::qword_ptr
	mov	QWORD PTR tv200[rsp], rax
	mov	r8, QWORD PTR tv202[rsp]
	mov	rdx, QWORD PTR tv200[rsp]
	mov	rcx, QWORD PTR tv204[rsp]
	call	?mov@X86Assembler@asmjit@@QEAAIAEBUX86Mem@2@AEBUX86GpReg@2@@Z ; asmjit::X86Assembler::mov
	npad	1
$LN5@PushArgp:

; 253  : 		}
; 254  : 	}

	add	rsp, 120				; 00000078H
	ret	0
??$PushArgp@UX86Mem@asmjit@@@AsmHelper64@IronMan@@AEAAXAEBUX86Mem@asmjit@@H_N@Z ENDP ; IronMan::AsmHelper64::PushArgp<asmjit::X86Mem>
_TEXT	ENDS
; Function compile flags: /Odtp
;	COMDAT text$x
text$x	SEGMENT
tv147 = 32
tv160 = 40
tv173 = 48
tv183 = 56
tv202 = 64
tv200 = 72
tv204 = 80
$T1 = 88
this$ = 128
arg$ = 136
index$ = 144
fpu$ = 152
?dtor$0@?0???$PushArgp@UX86Mem@asmjit@@@AsmHelper64@IronMan@@AEAAXAEBUX86Mem@asmjit@@H_N@Z@4HA PROC ; `IronMan::AsmHelper64::PushArgp<asmjit::X86Mem>'::`1'::dtor$0
	push	rbp
	sub	rsp, 32					; 00000020H
	mov	rbp, rdx
	lea	rcx, OFFSET FLAT:?$TSS0@?1???$PushArgp@UX86Mem@asmjit@@@AsmHelper64@IronMan@@AEAAXAEBUX86Mem@asmjit@@H_N@Z@4HA ; `IronMan::AsmHelper64::PushArgp<asmjit::X86Mem>'::`2'::$TSS0
	call	_Init_thread_abort
	add	rsp, 32					; 00000020H
	pop	rbp
	ret	0
?dtor$0@?0???$PushArgp@UX86Mem@asmjit@@@AsmHelper64@IronMan@@AEAAXAEBUX86Mem@asmjit@@H_N@Z@4HA ENDP ; `IronMan::AsmHelper64::PushArgp<asmjit::X86Mem>'::`1'::dtor$0
text$x	ENDS
; Function compile flags: /Odtp
;	COMDAT text$x
text$x	SEGMENT
tv147 = 32
tv160 = 40
tv173 = 48
tv183 = 56
tv202 = 64
tv200 = 72
tv204 = 80
$T1 = 88
this$ = 128
arg$ = 136
index$ = 144
fpu$ = 152
?dtor$1@?0???$PushArgp@UX86Mem@asmjit@@@AsmHelper64@IronMan@@AEAAXAEBUX86Mem@asmjit@@H_N@Z@4HA PROC ; `IronMan::AsmHelper64::PushArgp<asmjit::X86Mem>'::`1'::dtor$1
	push	rbp
	sub	rsp, 32					; 00000020H
	mov	rbp, rdx
	lea	rcx, OFFSET FLAT:?$TSS1@?1???$PushArgp@UX86Mem@asmjit@@@AsmHelper64@IronMan@@AEAAXAEBUX86Mem@asmjit@@H_N@Z@4HA ; `IronMan::AsmHelper64::PushArgp<asmjit::X86Mem>'::`2'::$TSS1
	call	_Init_thread_abort
	add	rsp, 32					; 00000020H
	pop	rbp
	ret	0
?dtor$1@?0???$PushArgp@UX86Mem@asmjit@@@AsmHelper64@IronMan@@AEAAXAEBUX86Mem@asmjit@@H_N@Z@4HA ENDP ; `IronMan::AsmHelper64::PushArgp<asmjit::X86Mem>'::`1'::dtor$1
text$x	ENDS
; Function compile flags: /Odtp
; File D:\c++\paoda\Helper\Asm\AsmHelper64.cpp
;	COMDAT ??$PushArgp@UX86GpReg@asmjit@@@AsmHelper64@IronMan@@AEAAXAEBUX86GpReg@asmjit@@H_N@Z
_TEXT	SEGMENT
tv147 = 32
tv160 = 40
tv173 = 48
tv183 = 56
tv202 = 64
tv200 = 72
tv204 = 80
$T1 = 88
this$ = 128
arg$ = 136
index$ = 144
fpu$ = 152
??$PushArgp@UX86GpReg@asmjit@@@AsmHelper64@IronMan@@AEAAXAEBUX86GpReg@asmjit@@H_N@Z PROC ; IronMan::AsmHelper64::PushArgp<asmjit::X86GpReg>, COMDAT

; 231  : 	{

$LN11:
	mov	BYTE PTR [rsp+32], r9b
	mov	DWORD PTR [rsp+24], r8d
	mov	QWORD PTR [rsp+16], rdx
	mov	QWORD PTR [rsp+8], rcx
	sub	rsp, 120				; 00000078H

; 232  : 
; 233  : 		static const asmjit::GpReg regs[] = { asmjit::host::rcx, asmjit::host::rdx, asmjit::host::r8, asmjit::host::r9 };

	mov	eax, OFFSET FLAT:_Init_thread_epoch
	mov	eax, eax
	mov	ecx, DWORD PTR _tls_index
	mov	rdx, QWORD PTR gs:88
	mov	rcx, QWORD PTR [rdx+rcx*8]
	mov	eax, DWORD PTR [rax+rcx]
	cmp	DWORD PTR ?$TSS0@?1???$PushArgp@UX86GpReg@asmjit@@@AsmHelper64@IronMan@@AEAAXAEBUX86GpReg@asmjit@@H_N@Z@4HA, eax ; `IronMan::AsmHelper64::PushArgp<asmjit::X86GpReg>'::`2'::$TSS0
	jle	SHORT $LN2@PushArgp
	lea	rcx, OFFSET FLAT:?$TSS0@?1???$PushArgp@UX86GpReg@asmjit@@@AsmHelper64@IronMan@@AEAAXAEBUX86GpReg@asmjit@@H_N@Z@4HA ; `IronMan::AsmHelper64::PushArgp<asmjit::X86GpReg>'::`2'::$TSS0
	call	_Init_thread_header
	cmp	DWORD PTR ?$TSS0@?1???$PushArgp@UX86GpReg@asmjit@@@AsmHelper64@IronMan@@AEAAXAEBUX86GpReg@asmjit@@H_N@Z@4HA, -1 ; `IronMan::AsmHelper64::PushArgp<asmjit::X86GpReg>'::`2'::$TSS0
	jne	SHORT $LN2@PushArgp
	mov	rdx, QWORD PTR ?rcx@x86@asmjit@@3AEBUX86GpReg@2@EB
	lea	rcx, OFFSET FLAT:?regs@?1???$PushArgp@UX86GpReg@asmjit@@@AsmHelper64@IronMan@@AEAAXAEBUX86GpReg@asmjit@@H_N@Z@4QBU34@B ; `IronMan::AsmHelper64::PushArgp<asmjit::X86GpReg>'::`2'::regs
	call	??0X86GpReg@asmjit@@QEAA@AEBU01@@Z	; asmjit::X86GpReg::X86GpReg
	mov	rdx, QWORD PTR ?rdx@x86@asmjit@@3AEBUX86GpReg@2@EB
	lea	rcx, OFFSET FLAT:?regs@?1???$PushArgp@UX86GpReg@asmjit@@@AsmHelper64@IronMan@@AEAAXAEBUX86GpReg@asmjit@@H_N@Z@4QBU34@B+16
	call	??0X86GpReg@asmjit@@QEAA@AEBU01@@Z	; asmjit::X86GpReg::X86GpReg
	mov	rdx, QWORD PTR ?r8@x86@asmjit@@3AEBUX86GpReg@2@EB
	lea	rcx, OFFSET FLAT:?regs@?1???$PushArgp@UX86GpReg@asmjit@@@AsmHelper64@IronMan@@AEAAXAEBUX86GpReg@asmjit@@H_N@Z@4QBU34@B+32
	call	??0X86GpReg@asmjit@@QEAA@AEBU01@@Z	; asmjit::X86GpReg::X86GpReg
	mov	rdx, QWORD PTR ?r9@x86@asmjit@@3AEBUX86GpReg@2@EB
	lea	rcx, OFFSET FLAT:?regs@?1???$PushArgp@UX86GpReg@asmjit@@@AsmHelper64@IronMan@@AEAAXAEBUX86GpReg@asmjit@@H_N@Z@4QBU34@B+48
	call	??0X86GpReg@asmjit@@QEAA@AEBU01@@Z	; asmjit::X86GpReg::X86GpReg
	npad	1
	lea	rcx, OFFSET FLAT:?$TSS0@?1???$PushArgp@UX86GpReg@asmjit@@@AsmHelper64@IronMan@@AEAAXAEBUX86GpReg@asmjit@@H_N@Z@4HA ; `IronMan::AsmHelper64::PushArgp<asmjit::X86GpReg>'::`2'::$TSS0
	call	_Init_thread_footer
	npad	1
$LN2@PushArgp:

; 234  : 		static const asmjit::XmmReg xregs[] = { asmjit::host::xmm0, asmjit::host::xmm1, asmjit::host::xmm2, asmjit::host::xmm3 };

	mov	eax, OFFSET FLAT:_Init_thread_epoch
	mov	eax, eax
	mov	ecx, DWORD PTR _tls_index
	mov	rdx, QWORD PTR gs:88
	mov	rcx, QWORD PTR [rdx+rcx*8]
	mov	eax, DWORD PTR [rax+rcx]
	cmp	DWORD PTR ?$TSS1@?1???$PushArgp@UX86GpReg@asmjit@@@AsmHelper64@IronMan@@AEAAXAEBUX86GpReg@asmjit@@H_N@Z@4HA, eax ; `IronMan::AsmHelper64::PushArgp<asmjit::X86GpReg>'::`2'::$TSS1
	jle	SHORT $LN3@PushArgp
	lea	rcx, OFFSET FLAT:?$TSS1@?1???$PushArgp@UX86GpReg@asmjit@@@AsmHelper64@IronMan@@AEAAXAEBUX86GpReg@asmjit@@H_N@Z@4HA ; `IronMan::AsmHelper64::PushArgp<asmjit::X86GpReg>'::`2'::$TSS1
	call	_Init_thread_header
	cmp	DWORD PTR ?$TSS1@?1???$PushArgp@UX86GpReg@asmjit@@@AsmHelper64@IronMan@@AEAAXAEBUX86GpReg@asmjit@@H_N@Z@4HA, -1 ; `IronMan::AsmHelper64::PushArgp<asmjit::X86GpReg>'::`2'::$TSS1
	jne	SHORT $LN3@PushArgp
	mov	rdx, QWORD PTR ?xmm0@x86@asmjit@@3AEBUX86XmmReg@2@EB
	lea	rcx, OFFSET FLAT:?xregs@?1???$PushArgp@UX86GpReg@asmjit@@@AsmHelper64@IronMan@@AEAAXAEBUX86GpReg@asmjit@@H_N@Z@4QBUX86XmmReg@4@B ; `IronMan::AsmHelper64::PushArgp<asmjit::X86GpReg>'::`2'::xregs
	call	??0X86XmmReg@asmjit@@QEAA@AEBU01@@Z	; asmjit::X86XmmReg::X86XmmReg
	mov	rdx, QWORD PTR ?xmm1@x86@asmjit@@3AEBUX86XmmReg@2@EB
	lea	rcx, OFFSET FLAT:?xregs@?1???$PushArgp@UX86GpReg@asmjit@@@AsmHelper64@IronMan@@AEAAXAEBUX86GpReg@asmjit@@H_N@Z@4QBUX86XmmReg@4@B+16
	call	??0X86XmmReg@asmjit@@QEAA@AEBU01@@Z	; asmjit::X86XmmReg::X86XmmReg
	mov	rdx, QWORD PTR ?xmm2@x86@asmjit@@3AEBUX86XmmReg@2@EB
	lea	rcx, OFFSET FLAT:?xregs@?1???$PushArgp@UX86GpReg@asmjit@@@AsmHelper64@IronMan@@AEAAXAEBUX86GpReg@asmjit@@H_N@Z@4QBUX86XmmReg@4@B+32
	call	??0X86XmmReg@asmjit@@QEAA@AEBU01@@Z	; asmjit::X86XmmReg::X86XmmReg
	mov	rdx, QWORD PTR ?xmm3@x86@asmjit@@3AEBUX86XmmReg@2@EB
	lea	rcx, OFFSET FLAT:?xregs@?1???$PushArgp@UX86GpReg@asmjit@@@AsmHelper64@IronMan@@AEAAXAEBUX86GpReg@asmjit@@H_N@Z@4QBUX86XmmReg@4@B+48
	call	??0X86XmmReg@asmjit@@QEAA@AEBU01@@Z	; asmjit::X86XmmReg::X86XmmReg
	npad	1
	lea	rcx, OFFSET FLAT:?$TSS1@?1???$PushArgp@UX86GpReg@asmjit@@@AsmHelper64@IronMan@@AEAAXAEBUX86GpReg@asmjit@@H_N@Z@4HA ; `IronMan::AsmHelper64::PushArgp<asmjit::X86GpReg>'::`2'::$TSS1
	call	_Init_thread_footer
	npad	1
$LN3@PushArgp:

; 235  : 
; 236  : 		// Pass via register
; 237  : 		if (index < 4)

	cmp	DWORD PTR index$[rsp], 4
	jge	$LN4@PushArgp

; 238  : 		{
; 239  : 			// Use XMM register
; 240  : 			if (fpu)

	movzx	eax, BYTE PTR fpu$[rsp]
	test	eax, eax
	je	SHORT $LN6@PushArgp

; 241  : 			{
; 242  : 				_assembler.mov(asmjit::host::rax, arg);

	mov	rax, QWORD PTR this$[rsp]
	add	rax, 168				; 000000a8H
	mov	QWORD PTR tv147[rsp], rax
	mov	r8, QWORD PTR arg$[rsp]
	mov	rdx, QWORD PTR ?rax@x86@asmjit@@3AEBUX86GpReg@2@EB
	mov	rcx, QWORD PTR tv147[rsp]
	call	?mov@X86Assembler@asmjit@@QEAAIAEBUX86GpReg@2@0@Z ; asmjit::X86Assembler::mov

; 243  : 				_assembler.movq(xregs[index], asmjit::host::rax);

	mov	rax, QWORD PTR this$[rsp]
	add	rax, 168				; 000000a8H
	mov	QWORD PTR tv160[rsp], rax
	movsxd	rax, DWORD PTR index$[rsp]
	imul	rax, rax, 16
	lea	rcx, OFFSET FLAT:?xregs@?1???$PushArgp@UX86GpReg@asmjit@@@AsmHelper64@IronMan@@AEAAXAEBUX86GpReg@asmjit@@H_N@Z@4QBUX86XmmReg@4@B ; `IronMan::AsmHelper64::PushArgp<asmjit::X86GpReg>'::`2'::xregs
	add	rcx, rax
	mov	rax, rcx
	mov	r8, QWORD PTR ?rax@x86@asmjit@@3AEBUX86GpReg@2@EB
	mov	rdx, rax
	mov	rcx, QWORD PTR tv160[rsp]
	call	?movq@X86Assembler@asmjit@@QEAAIAEBUX86XmmReg@2@AEBUX86GpReg@2@@Z ; asmjit::X86Assembler::movq
	npad	1

; 244  : 			}

	jmp	SHORT $LN7@PushArgp
$LN6@PushArgp:

; 245  : 			else
; 246  : 				_assembler.mov(regs[index], arg);

	mov	rax, QWORD PTR this$[rsp]
	add	rax, 168				; 000000a8H
	mov	QWORD PTR tv173[rsp], rax
	movsxd	rax, DWORD PTR index$[rsp]
	imul	rax, rax, 16
	lea	rcx, OFFSET FLAT:?regs@?1???$PushArgp@UX86GpReg@asmjit@@@AsmHelper64@IronMan@@AEAAXAEBUX86GpReg@asmjit@@H_N@Z@4QBU34@B ; `IronMan::AsmHelper64::PushArgp<asmjit::X86GpReg>'::`2'::regs
	add	rcx, rax
	mov	rax, rcx
	mov	r8, QWORD PTR arg$[rsp]
	mov	rdx, rax
	mov	rcx, QWORD PTR tv173[rsp]
	call	?mov@X86Assembler@asmjit@@QEAAIAEBUX86GpReg@2@0@Z ; asmjit::X86Assembler::mov
	npad	1
$LN7@PushArgp:

; 247  : 		}

	jmp	$LN5@PushArgp
$LN4@PushArgp:

; 248  : 		// Pass on stack
; 249  : 		else
; 250  : 		{
; 251  : 			_assembler.mov(asmjit::host::rax, arg);

	mov	rax, QWORD PTR this$[rsp]
	add	rax, 168				; 000000a8H
	mov	QWORD PTR tv183[rsp], rax
	mov	r8, QWORD PTR arg$[rsp]
	mov	rdx, QWORD PTR ?rax@x86@asmjit@@3AEBUX86GpReg@2@EB
	mov	rcx, QWORD PTR tv183[rsp]
	call	?mov@X86Assembler@asmjit@@QEAAIAEBUX86GpReg@2@0@Z ; asmjit::X86Assembler::mov
	npad	1

; 252  : 			_assembler.mov(asmjit::host::qword_ptr(asmjit::host::rsp, index * sizeof(uint64_t)), asmjit::host::rax);

	mov	rax, QWORD PTR this$[rsp]
	add	rax, 168				; 000000a8H
	mov	QWORD PTR tv204[rsp], rax
	mov	rax, QWORD PTR ?rax@x86@asmjit@@3AEBUX86GpReg@2@EB
	mov	QWORD PTR tv202[rsp], rax
	movsxd	rax, DWORD PTR index$[rsp]
	shl	rax, 3
	mov	r8d, eax
	mov	rdx, QWORD PTR ?rsp@x86@asmjit@@3AEBUX86GpReg@2@EB
	lea	rcx, QWORD PTR $T1[rsp]
	call	?qword_ptr@x86@asmjit@@YA?AUX86Mem@2@AEBUX86GpReg@2@H@Z ; asmjit::x86::qword_ptr
	mov	QWORD PTR tv200[rsp], rax
	mov	r8, QWORD PTR tv202[rsp]
	mov	rdx, QWORD PTR tv200[rsp]
	mov	rcx, QWORD PTR tv204[rsp]
	call	?mov@X86Assembler@asmjit@@QEAAIAEBUX86Mem@2@AEBUX86GpReg@2@@Z ; asmjit::X86Assembler::mov
	npad	1
$LN5@PushArgp:

; 253  : 		}
; 254  : 	}

	add	rsp, 120				; 00000078H
	ret	0
??$PushArgp@UX86GpReg@asmjit@@@AsmHelper64@IronMan@@AEAAXAEBUX86GpReg@asmjit@@H_N@Z ENDP ; IronMan::AsmHelper64::PushArgp<asmjit::X86GpReg>
_TEXT	ENDS
; Function compile flags: /Odtp
;	COMDAT text$x
text$x	SEGMENT
tv147 = 32
tv160 = 40
tv173 = 48
tv183 = 56
tv202 = 64
tv200 = 72
tv204 = 80
$T1 = 88
this$ = 128
arg$ = 136
index$ = 144
fpu$ = 152
?dtor$0@?0???$PushArgp@UX86GpReg@asmjit@@@AsmHelper64@IronMan@@AEAAXAEBUX86GpReg@asmjit@@H_N@Z@4HA PROC ; `IronMan::AsmHelper64::PushArgp<asmjit::X86GpReg>'::`1'::dtor$0
	push	rbp
	sub	rsp, 32					; 00000020H
	mov	rbp, rdx
	lea	rcx, OFFSET FLAT:?$TSS0@?1???$PushArgp@UX86GpReg@asmjit@@@AsmHelper64@IronMan@@AEAAXAEBUX86GpReg@asmjit@@H_N@Z@4HA ; `IronMan::AsmHelper64::PushArgp<asmjit::X86GpReg>'::`2'::$TSS0
	call	_Init_thread_abort
	add	rsp, 32					; 00000020H
	pop	rbp
	ret	0
?dtor$0@?0???$PushArgp@UX86GpReg@asmjit@@@AsmHelper64@IronMan@@AEAAXAEBUX86GpReg@asmjit@@H_N@Z@4HA ENDP ; `IronMan::AsmHelper64::PushArgp<asmjit::X86GpReg>'::`1'::dtor$0
text$x	ENDS
; Function compile flags: /Odtp
;	COMDAT text$x
text$x	SEGMENT
tv147 = 32
tv160 = 40
tv173 = 48
tv183 = 56
tv202 = 64
tv200 = 72
tv204 = 80
$T1 = 88
this$ = 128
arg$ = 136
index$ = 144
fpu$ = 152
?dtor$1@?0???$PushArgp@UX86GpReg@asmjit@@@AsmHelper64@IronMan@@AEAAXAEBUX86GpReg@asmjit@@H_N@Z@4HA PROC ; `IronMan::AsmHelper64::PushArgp<asmjit::X86GpReg>'::`1'::dtor$1
	push	rbp
	sub	rsp, 32					; 00000020H
	mov	rbp, rdx
	lea	rcx, OFFSET FLAT:?$TSS1@?1???$PushArgp@UX86GpReg@asmjit@@@AsmHelper64@IronMan@@AEAAXAEBUX86GpReg@asmjit@@H_N@Z@4HA ; `IronMan::AsmHelper64::PushArgp<asmjit::X86GpReg>'::`2'::$TSS1
	call	_Init_thread_abort
	add	rsp, 32					; 00000020H
	pop	rbp
	ret	0
?dtor$1@?0???$PushArgp@UX86GpReg@asmjit@@@AsmHelper64@IronMan@@AEAAXAEBUX86GpReg@asmjit@@H_N@Z@4HA ENDP ; `IronMan::AsmHelper64::PushArgp<asmjit::X86GpReg>'::`1'::dtor$1
text$x	ENDS
; Function compile flags: /Odtp
; File D:\c++\paoda\Helper\Asm\AsmHelper64.cpp
;	COMDAT ??$PushArgp@I@AsmHelper64@IronMan@@AEAAXAEBIH_N@Z
_TEXT	SEGMENT
tv147 = 32
tv160 = 40
tv173 = 48
tv183 = 56
tv202 = 64
tv200 = 72
tv204 = 80
$T1 = 88
this$ = 128
arg$ = 136
index$ = 144
fpu$ = 152
??$PushArgp@I@AsmHelper64@IronMan@@AEAAXAEBIH_N@Z PROC	; IronMan::AsmHelper64::PushArgp<unsigned int>, COMDAT

; 231  : 	{

$LN11:
	mov	BYTE PTR [rsp+32], r9b
	mov	DWORD PTR [rsp+24], r8d
	mov	QWORD PTR [rsp+16], rdx
	mov	QWORD PTR [rsp+8], rcx
	sub	rsp, 120				; 00000078H

; 232  : 
; 233  : 		static const asmjit::GpReg regs[] = { asmjit::host::rcx, asmjit::host::rdx, asmjit::host::r8, asmjit::host::r9 };

	mov	eax, OFFSET FLAT:_Init_thread_epoch
	mov	eax, eax
	mov	ecx, DWORD PTR _tls_index
	mov	rdx, QWORD PTR gs:88
	mov	rcx, QWORD PTR [rdx+rcx*8]
	mov	eax, DWORD PTR [rax+rcx]
	cmp	DWORD PTR ?$TSS0@?1???$PushArgp@I@AsmHelper64@IronMan@@AEAAXAEBIH_N@Z@4HA, eax ; `IronMan::AsmHelper64::PushArgp<unsigned int>'::`2'::$TSS0
	jle	SHORT $LN2@PushArgp
	lea	rcx, OFFSET FLAT:?$TSS0@?1???$PushArgp@I@AsmHelper64@IronMan@@AEAAXAEBIH_N@Z@4HA ; `IronMan::AsmHelper64::PushArgp<unsigned int>'::`2'::$TSS0
	call	_Init_thread_header
	cmp	DWORD PTR ?$TSS0@?1???$PushArgp@I@AsmHelper64@IronMan@@AEAAXAEBIH_N@Z@4HA, -1 ; `IronMan::AsmHelper64::PushArgp<unsigned int>'::`2'::$TSS0
	jne	SHORT $LN2@PushArgp
	mov	rdx, QWORD PTR ?rcx@x86@asmjit@@3AEBUX86GpReg@2@EB
	lea	rcx, OFFSET FLAT:?regs@?1???$PushArgp@I@AsmHelper64@IronMan@@AEAAXAEBIH_N@Z@4QBUX86GpReg@asmjit@@B ; `IronMan::AsmHelper64::PushArgp<unsigned int>'::`2'::regs
	call	??0X86GpReg@asmjit@@QEAA@AEBU01@@Z	; asmjit::X86GpReg::X86GpReg
	mov	rdx, QWORD PTR ?rdx@x86@asmjit@@3AEBUX86GpReg@2@EB
	lea	rcx, OFFSET FLAT:?regs@?1???$PushArgp@I@AsmHelper64@IronMan@@AEAAXAEBIH_N@Z@4QBUX86GpReg@asmjit@@B+16
	call	??0X86GpReg@asmjit@@QEAA@AEBU01@@Z	; asmjit::X86GpReg::X86GpReg
	mov	rdx, QWORD PTR ?r8@x86@asmjit@@3AEBUX86GpReg@2@EB
	lea	rcx, OFFSET FLAT:?regs@?1???$PushArgp@I@AsmHelper64@IronMan@@AEAAXAEBIH_N@Z@4QBUX86GpReg@asmjit@@B+32
	call	??0X86GpReg@asmjit@@QEAA@AEBU01@@Z	; asmjit::X86GpReg::X86GpReg
	mov	rdx, QWORD PTR ?r9@x86@asmjit@@3AEBUX86GpReg@2@EB
	lea	rcx, OFFSET FLAT:?regs@?1???$PushArgp@I@AsmHelper64@IronMan@@AEAAXAEBIH_N@Z@4QBUX86GpReg@asmjit@@B+48
	call	??0X86GpReg@asmjit@@QEAA@AEBU01@@Z	; asmjit::X86GpReg::X86GpReg
	npad	1
	lea	rcx, OFFSET FLAT:?$TSS0@?1???$PushArgp@I@AsmHelper64@IronMan@@AEAAXAEBIH_N@Z@4HA ; `IronMan::AsmHelper64::PushArgp<unsigned int>'::`2'::$TSS0
	call	_Init_thread_footer
	npad	1
$LN2@PushArgp:

; 234  : 		static const asmjit::XmmReg xregs[] = { asmjit::host::xmm0, asmjit::host::xmm1, asmjit::host::xmm2, asmjit::host::xmm3 };

	mov	eax, OFFSET FLAT:_Init_thread_epoch
	mov	eax, eax
	mov	ecx, DWORD PTR _tls_index
	mov	rdx, QWORD PTR gs:88
	mov	rcx, QWORD PTR [rdx+rcx*8]
	mov	eax, DWORD PTR [rax+rcx]
	cmp	DWORD PTR ?$TSS1@?1???$PushArgp@I@AsmHelper64@IronMan@@AEAAXAEBIH_N@Z@4HA, eax ; `IronMan::AsmHelper64::PushArgp<unsigned int>'::`2'::$TSS1
	jle	SHORT $LN3@PushArgp
	lea	rcx, OFFSET FLAT:?$TSS1@?1???$PushArgp@I@AsmHelper64@IronMan@@AEAAXAEBIH_N@Z@4HA ; `IronMan::AsmHelper64::PushArgp<unsigned int>'::`2'::$TSS1
	call	_Init_thread_header
	cmp	DWORD PTR ?$TSS1@?1???$PushArgp@I@AsmHelper64@IronMan@@AEAAXAEBIH_N@Z@4HA, -1 ; `IronMan::AsmHelper64::PushArgp<unsigned int>'::`2'::$TSS1
	jne	SHORT $LN3@PushArgp
	mov	rdx, QWORD PTR ?xmm0@x86@asmjit@@3AEBUX86XmmReg@2@EB
	lea	rcx, OFFSET FLAT:?xregs@?1???$PushArgp@I@AsmHelper64@IronMan@@AEAAXAEBIH_N@Z@4QBUX86XmmReg@asmjit@@B ; `IronMan::AsmHelper64::PushArgp<unsigned int>'::`2'::xregs
	call	??0X86XmmReg@asmjit@@QEAA@AEBU01@@Z	; asmjit::X86XmmReg::X86XmmReg
	mov	rdx, QWORD PTR ?xmm1@x86@asmjit@@3AEBUX86XmmReg@2@EB
	lea	rcx, OFFSET FLAT:?xregs@?1???$PushArgp@I@AsmHelper64@IronMan@@AEAAXAEBIH_N@Z@4QBUX86XmmReg@asmjit@@B+16
	call	??0X86XmmReg@asmjit@@QEAA@AEBU01@@Z	; asmjit::X86XmmReg::X86XmmReg
	mov	rdx, QWORD PTR ?xmm2@x86@asmjit@@3AEBUX86XmmReg@2@EB
	lea	rcx, OFFSET FLAT:?xregs@?1???$PushArgp@I@AsmHelper64@IronMan@@AEAAXAEBIH_N@Z@4QBUX86XmmReg@asmjit@@B+32
	call	??0X86XmmReg@asmjit@@QEAA@AEBU01@@Z	; asmjit::X86XmmReg::X86XmmReg
	mov	rdx, QWORD PTR ?xmm3@x86@asmjit@@3AEBUX86XmmReg@2@EB
	lea	rcx, OFFSET FLAT:?xregs@?1???$PushArgp@I@AsmHelper64@IronMan@@AEAAXAEBIH_N@Z@4QBUX86XmmReg@asmjit@@B+48
	call	??0X86XmmReg@asmjit@@QEAA@AEBU01@@Z	; asmjit::X86XmmReg::X86XmmReg
	npad	1
	lea	rcx, OFFSET FLAT:?$TSS1@?1???$PushArgp@I@AsmHelper64@IronMan@@AEAAXAEBIH_N@Z@4HA ; `IronMan::AsmHelper64::PushArgp<unsigned int>'::`2'::$TSS1
	call	_Init_thread_footer
	npad	1
$LN3@PushArgp:

; 235  : 
; 236  : 		// Pass via register
; 237  : 		if (index < 4)

	cmp	DWORD PTR index$[rsp], 4
	jge	$LN4@PushArgp

; 238  : 		{
; 239  : 			// Use XMM register
; 240  : 			if (fpu)

	movzx	eax, BYTE PTR fpu$[rsp]
	test	eax, eax
	je	SHORT $LN6@PushArgp

; 241  : 			{
; 242  : 				_assembler.mov(asmjit::host::rax, arg);

	mov	rax, QWORD PTR this$[rsp]
	add	rax, 168				; 000000a8H
	mov	QWORD PTR tv147[rsp], rax
	mov	rax, QWORD PTR arg$[rsp]
	mov	r8d, DWORD PTR [rax]
	mov	rdx, QWORD PTR ?rax@x86@asmjit@@3AEBUX86GpReg@2@EB
	mov	rcx, QWORD PTR tv147[rsp]
	call	?mov@X86Assembler@asmjit@@QEAAIAEBUX86GpReg@2@I@Z ; asmjit::X86Assembler::mov

; 243  : 				_assembler.movq(xregs[index], asmjit::host::rax);

	mov	rax, QWORD PTR this$[rsp]
	add	rax, 168				; 000000a8H
	mov	QWORD PTR tv160[rsp], rax
	movsxd	rax, DWORD PTR index$[rsp]
	imul	rax, rax, 16
	lea	rcx, OFFSET FLAT:?xregs@?1???$PushArgp@I@AsmHelper64@IronMan@@AEAAXAEBIH_N@Z@4QBUX86XmmReg@asmjit@@B ; `IronMan::AsmHelper64::PushArgp<unsigned int>'::`2'::xregs
	add	rcx, rax
	mov	rax, rcx
	mov	r8, QWORD PTR ?rax@x86@asmjit@@3AEBUX86GpReg@2@EB
	mov	rdx, rax
	mov	rcx, QWORD PTR tv160[rsp]
	call	?movq@X86Assembler@asmjit@@QEAAIAEBUX86XmmReg@2@AEBUX86GpReg@2@@Z ; asmjit::X86Assembler::movq
	npad	1

; 244  : 			}

	jmp	SHORT $LN7@PushArgp
$LN6@PushArgp:

; 245  : 			else
; 246  : 				_assembler.mov(regs[index], arg);

	mov	rax, QWORD PTR this$[rsp]
	add	rax, 168				; 000000a8H
	mov	QWORD PTR tv173[rsp], rax
	movsxd	rax, DWORD PTR index$[rsp]
	imul	rax, rax, 16
	lea	rcx, OFFSET FLAT:?regs@?1???$PushArgp@I@AsmHelper64@IronMan@@AEAAXAEBIH_N@Z@4QBUX86GpReg@asmjit@@B ; `IronMan::AsmHelper64::PushArgp<unsigned int>'::`2'::regs
	add	rcx, rax
	mov	rax, rcx
	mov	rcx, QWORD PTR arg$[rsp]
	mov	r8d, DWORD PTR [rcx]
	mov	rdx, rax
	mov	rcx, QWORD PTR tv173[rsp]
	call	?mov@X86Assembler@asmjit@@QEAAIAEBUX86GpReg@2@I@Z ; asmjit::X86Assembler::mov
	npad	1
$LN7@PushArgp:

; 247  : 		}

	jmp	$LN5@PushArgp
$LN4@PushArgp:

; 248  : 		// Pass on stack
; 249  : 		else
; 250  : 		{
; 251  : 			_assembler.mov(asmjit::host::rax, arg);

	mov	rax, QWORD PTR this$[rsp]
	add	rax, 168				; 000000a8H
	mov	QWORD PTR tv183[rsp], rax
	mov	rax, QWORD PTR arg$[rsp]
	mov	r8d, DWORD PTR [rax]
	mov	rdx, QWORD PTR ?rax@x86@asmjit@@3AEBUX86GpReg@2@EB
	mov	rcx, QWORD PTR tv183[rsp]
	call	?mov@X86Assembler@asmjit@@QEAAIAEBUX86GpReg@2@I@Z ; asmjit::X86Assembler::mov
	npad	1

; 252  : 			_assembler.mov(asmjit::host::qword_ptr(asmjit::host::rsp, index * sizeof(uint64_t)), asmjit::host::rax);

	mov	rax, QWORD PTR this$[rsp]
	add	rax, 168				; 000000a8H
	mov	QWORD PTR tv204[rsp], rax
	mov	rax, QWORD PTR ?rax@x86@asmjit@@3AEBUX86GpReg@2@EB
	mov	QWORD PTR tv202[rsp], rax
	movsxd	rax, DWORD PTR index$[rsp]
	shl	rax, 3
	mov	r8d, eax
	mov	rdx, QWORD PTR ?rsp@x86@asmjit@@3AEBUX86GpReg@2@EB
	lea	rcx, QWORD PTR $T1[rsp]
	call	?qword_ptr@x86@asmjit@@YA?AUX86Mem@2@AEBUX86GpReg@2@H@Z ; asmjit::x86::qword_ptr
	mov	QWORD PTR tv200[rsp], rax
	mov	r8, QWORD PTR tv202[rsp]
	mov	rdx, QWORD PTR tv200[rsp]
	mov	rcx, QWORD PTR tv204[rsp]
	call	?mov@X86Assembler@asmjit@@QEAAIAEBUX86Mem@2@AEBUX86GpReg@2@@Z ; asmjit::X86Assembler::mov
	npad	1
$LN5@PushArgp:

; 253  : 		}
; 254  : 	}

	add	rsp, 120				; 00000078H
	ret	0
??$PushArgp@I@AsmHelper64@IronMan@@AEAAXAEBIH_N@Z ENDP	; IronMan::AsmHelper64::PushArgp<unsigned int>
_TEXT	ENDS
; Function compile flags: /Odtp
;	COMDAT text$x
text$x	SEGMENT
tv147 = 32
tv160 = 40
tv173 = 48
tv183 = 56
tv202 = 64
tv200 = 72
tv204 = 80
$T1 = 88
this$ = 128
arg$ = 136
index$ = 144
fpu$ = 152
?dtor$0@?0???$PushArgp@I@AsmHelper64@IronMan@@AEAAXAEBIH_N@Z@4HA PROC ; `IronMan::AsmHelper64::PushArgp<unsigned int>'::`1'::dtor$0
	push	rbp
	sub	rsp, 32					; 00000020H
	mov	rbp, rdx
	lea	rcx, OFFSET FLAT:?$TSS0@?1???$PushArgp@I@AsmHelper64@IronMan@@AEAAXAEBIH_N@Z@4HA ; `IronMan::AsmHelper64::PushArgp<unsigned int>'::`2'::$TSS0
	call	_Init_thread_abort
	add	rsp, 32					; 00000020H
	pop	rbp
	ret	0
?dtor$0@?0???$PushArgp@I@AsmHelper64@IronMan@@AEAAXAEBIH_N@Z@4HA ENDP ; `IronMan::AsmHelper64::PushArgp<unsigned int>'::`1'::dtor$0
text$x	ENDS
; Function compile flags: /Odtp
;	COMDAT text$x
text$x	SEGMENT
tv147 = 32
tv160 = 40
tv173 = 48
tv183 = 56
tv202 = 64
tv200 = 72
tv204 = 80
$T1 = 88
this$ = 128
arg$ = 136
index$ = 144
fpu$ = 152
?dtor$1@?0???$PushArgp@I@AsmHelper64@IronMan@@AEAAXAEBIH_N@Z@4HA PROC ; `IronMan::AsmHelper64::PushArgp<unsigned int>'::`1'::dtor$1
	push	rbp
	sub	rsp, 32					; 00000020H
	mov	rbp, rdx
	lea	rcx, OFFSET FLAT:?$TSS1@?1???$PushArgp@I@AsmHelper64@IronMan@@AEAAXAEBIH_N@Z@4HA ; `IronMan::AsmHelper64::PushArgp<unsigned int>'::`2'::$TSS1
	call	_Init_thread_abort
	add	rsp, 32					; 00000020H
	pop	rbp
	ret	0
?dtor$1@?0???$PushArgp@I@AsmHelper64@IronMan@@AEAAXAEBIH_N@Z@4HA ENDP ; `IronMan::AsmHelper64::PushArgp<unsigned int>'::`1'::dtor$1
text$x	ENDS
; Function compile flags: /Odtp
; File D:\c++\paoda\Helper\Asm\AsmHelper64.cpp
;	COMDAT ??$PushArgp@_K@AsmHelper64@IronMan@@AEAAXAEB_KH_N@Z
_TEXT	SEGMENT
tv147 = 32
tv160 = 40
tv173 = 48
tv183 = 56
tv202 = 64
tv200 = 72
tv204 = 80
$T1 = 88
this$ = 128
arg$ = 136
index$ = 144
fpu$ = 152
??$PushArgp@_K@AsmHelper64@IronMan@@AEAAXAEB_KH_N@Z PROC ; IronMan::AsmHelper64::PushArgp<unsigned __int64>, COMDAT

; 231  : 	{

$LN11:
	mov	BYTE PTR [rsp+32], r9b
	mov	DWORD PTR [rsp+24], r8d
	mov	QWORD PTR [rsp+16], rdx
	mov	QWORD PTR [rsp+8], rcx
	sub	rsp, 120				; 00000078H

; 232  : 
; 233  : 		static const asmjit::GpReg regs[] = { asmjit::host::rcx, asmjit::host::rdx, asmjit::host::r8, asmjit::host::r9 };

	mov	eax, OFFSET FLAT:_Init_thread_epoch
	mov	eax, eax
	mov	ecx, DWORD PTR _tls_index
	mov	rdx, QWORD PTR gs:88
	mov	rcx, QWORD PTR [rdx+rcx*8]
	mov	eax, DWORD PTR [rax+rcx]
	cmp	DWORD PTR ?$TSS0@?1???$PushArgp@_K@AsmHelper64@IronMan@@AEAAXAEB_KH_N@Z@4HA, eax ; `IronMan::AsmHelper64::PushArgp<unsigned __int64>'::`2'::$TSS0
	jle	SHORT $LN2@PushArgp
	lea	rcx, OFFSET FLAT:?$TSS0@?1???$PushArgp@_K@AsmHelper64@IronMan@@AEAAXAEB_KH_N@Z@4HA ; `IronMan::AsmHelper64::PushArgp<unsigned __int64>'::`2'::$TSS0
	call	_Init_thread_header
	cmp	DWORD PTR ?$TSS0@?1???$PushArgp@_K@AsmHelper64@IronMan@@AEAAXAEB_KH_N@Z@4HA, -1 ; `IronMan::AsmHelper64::PushArgp<unsigned __int64>'::`2'::$TSS0
	jne	SHORT $LN2@PushArgp
	mov	rdx, QWORD PTR ?rcx@x86@asmjit@@3AEBUX86GpReg@2@EB
	lea	rcx, OFFSET FLAT:?regs@?1???$PushArgp@_K@AsmHelper64@IronMan@@AEAAXAEB_KH_N@Z@4QBUX86GpReg@asmjit@@B ; `IronMan::AsmHelper64::PushArgp<unsigned __int64>'::`2'::regs
	call	??0X86GpReg@asmjit@@QEAA@AEBU01@@Z	; asmjit::X86GpReg::X86GpReg
	mov	rdx, QWORD PTR ?rdx@x86@asmjit@@3AEBUX86GpReg@2@EB
	lea	rcx, OFFSET FLAT:?regs@?1???$PushArgp@_K@AsmHelper64@IronMan@@AEAAXAEB_KH_N@Z@4QBUX86GpReg@asmjit@@B+16
	call	??0X86GpReg@asmjit@@QEAA@AEBU01@@Z	; asmjit::X86GpReg::X86GpReg
	mov	rdx, QWORD PTR ?r8@x86@asmjit@@3AEBUX86GpReg@2@EB
	lea	rcx, OFFSET FLAT:?regs@?1???$PushArgp@_K@AsmHelper64@IronMan@@AEAAXAEB_KH_N@Z@4QBUX86GpReg@asmjit@@B+32
	call	??0X86GpReg@asmjit@@QEAA@AEBU01@@Z	; asmjit::X86GpReg::X86GpReg
	mov	rdx, QWORD PTR ?r9@x86@asmjit@@3AEBUX86GpReg@2@EB
	lea	rcx, OFFSET FLAT:?regs@?1???$PushArgp@_K@AsmHelper64@IronMan@@AEAAXAEB_KH_N@Z@4QBUX86GpReg@asmjit@@B+48
	call	??0X86GpReg@asmjit@@QEAA@AEBU01@@Z	; asmjit::X86GpReg::X86GpReg
	npad	1
	lea	rcx, OFFSET FLAT:?$TSS0@?1???$PushArgp@_K@AsmHelper64@IronMan@@AEAAXAEB_KH_N@Z@4HA ; `IronMan::AsmHelper64::PushArgp<unsigned __int64>'::`2'::$TSS0
	call	_Init_thread_footer
	npad	1
$LN2@PushArgp:

; 234  : 		static const asmjit::XmmReg xregs[] = { asmjit::host::xmm0, asmjit::host::xmm1, asmjit::host::xmm2, asmjit::host::xmm3 };

	mov	eax, OFFSET FLAT:_Init_thread_epoch
	mov	eax, eax
	mov	ecx, DWORD PTR _tls_index
	mov	rdx, QWORD PTR gs:88
	mov	rcx, QWORD PTR [rdx+rcx*8]
	mov	eax, DWORD PTR [rax+rcx]
	cmp	DWORD PTR ?$TSS1@?1???$PushArgp@_K@AsmHelper64@IronMan@@AEAAXAEB_KH_N@Z@4HA, eax ; `IronMan::AsmHelper64::PushArgp<unsigned __int64>'::`2'::$TSS1
	jle	SHORT $LN3@PushArgp
	lea	rcx, OFFSET FLAT:?$TSS1@?1???$PushArgp@_K@AsmHelper64@IronMan@@AEAAXAEB_KH_N@Z@4HA ; `IronMan::AsmHelper64::PushArgp<unsigned __int64>'::`2'::$TSS1
	call	_Init_thread_header
	cmp	DWORD PTR ?$TSS1@?1???$PushArgp@_K@AsmHelper64@IronMan@@AEAAXAEB_KH_N@Z@4HA, -1 ; `IronMan::AsmHelper64::PushArgp<unsigned __int64>'::`2'::$TSS1
	jne	SHORT $LN3@PushArgp
	mov	rdx, QWORD PTR ?xmm0@x86@asmjit@@3AEBUX86XmmReg@2@EB
	lea	rcx, OFFSET FLAT:?xregs@?1???$PushArgp@_K@AsmHelper64@IronMan@@AEAAXAEB_KH_N@Z@4QBUX86XmmReg@asmjit@@B ; `IronMan::AsmHelper64::PushArgp<unsigned __int64>'::`2'::xregs
	call	??0X86XmmReg@asmjit@@QEAA@AEBU01@@Z	; asmjit::X86XmmReg::X86XmmReg
	mov	rdx, QWORD PTR ?xmm1@x86@asmjit@@3AEBUX86XmmReg@2@EB
	lea	rcx, OFFSET FLAT:?xregs@?1???$PushArgp@_K@AsmHelper64@IronMan@@AEAAXAEB_KH_N@Z@4QBUX86XmmReg@asmjit@@B+16
	call	??0X86XmmReg@asmjit@@QEAA@AEBU01@@Z	; asmjit::X86XmmReg::X86XmmReg
	mov	rdx, QWORD PTR ?xmm2@x86@asmjit@@3AEBUX86XmmReg@2@EB
	lea	rcx, OFFSET FLAT:?xregs@?1???$PushArgp@_K@AsmHelper64@IronMan@@AEAAXAEB_KH_N@Z@4QBUX86XmmReg@asmjit@@B+32
	call	??0X86XmmReg@asmjit@@QEAA@AEBU01@@Z	; asmjit::X86XmmReg::X86XmmReg
	mov	rdx, QWORD PTR ?xmm3@x86@asmjit@@3AEBUX86XmmReg@2@EB
	lea	rcx, OFFSET FLAT:?xregs@?1???$PushArgp@_K@AsmHelper64@IronMan@@AEAAXAEB_KH_N@Z@4QBUX86XmmReg@asmjit@@B+48
	call	??0X86XmmReg@asmjit@@QEAA@AEBU01@@Z	; asmjit::X86XmmReg::X86XmmReg
	npad	1
	lea	rcx, OFFSET FLAT:?$TSS1@?1???$PushArgp@_K@AsmHelper64@IronMan@@AEAAXAEB_KH_N@Z@4HA ; `IronMan::AsmHelper64::PushArgp<unsigned __int64>'::`2'::$TSS1
	call	_Init_thread_footer
	npad	1
$LN3@PushArgp:

; 235  : 
; 236  : 		// Pass via register
; 237  : 		if (index < 4)

	cmp	DWORD PTR index$[rsp], 4
	jge	$LN4@PushArgp

; 238  : 		{
; 239  : 			// Use XMM register
; 240  : 			if (fpu)

	movzx	eax, BYTE PTR fpu$[rsp]
	test	eax, eax
	je	SHORT $LN6@PushArgp

; 241  : 			{
; 242  : 				_assembler.mov(asmjit::host::rax, arg);

	mov	rax, QWORD PTR this$[rsp]
	add	rax, 168				; 000000a8H
	mov	QWORD PTR tv147[rsp], rax
	mov	rax, QWORD PTR arg$[rsp]
	mov	r8, QWORD PTR [rax]
	mov	rdx, QWORD PTR ?rax@x86@asmjit@@3AEBUX86GpReg@2@EB
	mov	rcx, QWORD PTR tv147[rsp]
	call	?mov@X86Assembler@asmjit@@QEAAIAEBUX86GpReg@2@_K@Z ; asmjit::X86Assembler::mov

; 243  : 				_assembler.movq(xregs[index], asmjit::host::rax);

	mov	rax, QWORD PTR this$[rsp]
	add	rax, 168				; 000000a8H
	mov	QWORD PTR tv160[rsp], rax
	movsxd	rax, DWORD PTR index$[rsp]
	imul	rax, rax, 16
	lea	rcx, OFFSET FLAT:?xregs@?1???$PushArgp@_K@AsmHelper64@IronMan@@AEAAXAEB_KH_N@Z@4QBUX86XmmReg@asmjit@@B ; `IronMan::AsmHelper64::PushArgp<unsigned __int64>'::`2'::xregs
	add	rcx, rax
	mov	rax, rcx
	mov	r8, QWORD PTR ?rax@x86@asmjit@@3AEBUX86GpReg@2@EB
	mov	rdx, rax
	mov	rcx, QWORD PTR tv160[rsp]
	call	?movq@X86Assembler@asmjit@@QEAAIAEBUX86XmmReg@2@AEBUX86GpReg@2@@Z ; asmjit::X86Assembler::movq
	npad	1

; 244  : 			}

	jmp	SHORT $LN7@PushArgp
$LN6@PushArgp:

; 245  : 			else
; 246  : 				_assembler.mov(regs[index], arg);

	mov	rax, QWORD PTR this$[rsp]
	add	rax, 168				; 000000a8H
	mov	QWORD PTR tv173[rsp], rax
	movsxd	rax, DWORD PTR index$[rsp]
	imul	rax, rax, 16
	lea	rcx, OFFSET FLAT:?regs@?1???$PushArgp@_K@AsmHelper64@IronMan@@AEAAXAEB_KH_N@Z@4QBUX86GpReg@asmjit@@B ; `IronMan::AsmHelper64::PushArgp<unsigned __int64>'::`2'::regs
	add	rcx, rax
	mov	rax, rcx
	mov	rcx, QWORD PTR arg$[rsp]
	mov	r8, QWORD PTR [rcx]
	mov	rdx, rax
	mov	rcx, QWORD PTR tv173[rsp]
	call	?mov@X86Assembler@asmjit@@QEAAIAEBUX86GpReg@2@_K@Z ; asmjit::X86Assembler::mov
	npad	1
$LN7@PushArgp:

; 247  : 		}

	jmp	$LN5@PushArgp
$LN4@PushArgp:

; 248  : 		// Pass on stack
; 249  : 		else
; 250  : 		{
; 251  : 			_assembler.mov(asmjit::host::rax, arg);

	mov	rax, QWORD PTR this$[rsp]
	add	rax, 168				; 000000a8H
	mov	QWORD PTR tv183[rsp], rax
	mov	rax, QWORD PTR arg$[rsp]
	mov	r8, QWORD PTR [rax]
	mov	rdx, QWORD PTR ?rax@x86@asmjit@@3AEBUX86GpReg@2@EB
	mov	rcx, QWORD PTR tv183[rsp]
	call	?mov@X86Assembler@asmjit@@QEAAIAEBUX86GpReg@2@_K@Z ; asmjit::X86Assembler::mov
	npad	1

; 252  : 			_assembler.mov(asmjit::host::qword_ptr(asmjit::host::rsp, index * sizeof(uint64_t)), asmjit::host::rax);

	mov	rax, QWORD PTR this$[rsp]
	add	rax, 168				; 000000a8H
	mov	QWORD PTR tv204[rsp], rax
	mov	rax, QWORD PTR ?rax@x86@asmjit@@3AEBUX86GpReg@2@EB
	mov	QWORD PTR tv202[rsp], rax
	movsxd	rax, DWORD PTR index$[rsp]
	shl	rax, 3
	mov	r8d, eax
	mov	rdx, QWORD PTR ?rsp@x86@asmjit@@3AEBUX86GpReg@2@EB
	lea	rcx, QWORD PTR $T1[rsp]
	call	?qword_ptr@x86@asmjit@@YA?AUX86Mem@2@AEBUX86GpReg@2@H@Z ; asmjit::x86::qword_ptr
	mov	QWORD PTR tv200[rsp], rax
	mov	r8, QWORD PTR tv202[rsp]
	mov	rdx, QWORD PTR tv200[rsp]
	mov	rcx, QWORD PTR tv204[rsp]
	call	?mov@X86Assembler@asmjit@@QEAAIAEBUX86Mem@2@AEBUX86GpReg@2@@Z ; asmjit::X86Assembler::mov
	npad	1
$LN5@PushArgp:

; 253  : 		}
; 254  : 	}

	add	rsp, 120				; 00000078H
	ret	0
??$PushArgp@_K@AsmHelper64@IronMan@@AEAAXAEB_KH_N@Z ENDP ; IronMan::AsmHelper64::PushArgp<unsigned __int64>
_TEXT	ENDS
; Function compile flags: /Odtp
;	COMDAT text$x
text$x	SEGMENT
tv147 = 32
tv160 = 40
tv173 = 48
tv183 = 56
tv202 = 64
tv200 = 72
tv204 = 80
$T1 = 88
this$ = 128
arg$ = 136
index$ = 144
fpu$ = 152
?dtor$0@?0???$PushArgp@_K@AsmHelper64@IronMan@@AEAAXAEB_KH_N@Z@4HA PROC ; `IronMan::AsmHelper64::PushArgp<unsigned __int64>'::`1'::dtor$0
	push	rbp
	sub	rsp, 32					; 00000020H
	mov	rbp, rdx
	lea	rcx, OFFSET FLAT:?$TSS0@?1???$PushArgp@_K@AsmHelper64@IronMan@@AEAAXAEB_KH_N@Z@4HA ; `IronMan::AsmHelper64::PushArgp<unsigned __int64>'::`2'::$TSS0
	call	_Init_thread_abort
	add	rsp, 32					; 00000020H
	pop	rbp
	ret	0
?dtor$0@?0???$PushArgp@_K@AsmHelper64@IronMan@@AEAAXAEB_KH_N@Z@4HA ENDP ; `IronMan::AsmHelper64::PushArgp<unsigned __int64>'::`1'::dtor$0
text$x	ENDS
; Function compile flags: /Odtp
;	COMDAT text$x
text$x	SEGMENT
tv147 = 32
tv160 = 40
tv173 = 48
tv183 = 56
tv202 = 64
tv200 = 72
tv204 = 80
$T1 = 88
this$ = 128
arg$ = 136
index$ = 144
fpu$ = 152
?dtor$1@?0???$PushArgp@_K@AsmHelper64@IronMan@@AEAAXAEB_KH_N@Z@4HA PROC ; `IronMan::AsmHelper64::PushArgp<unsigned __int64>'::`1'::dtor$1
	push	rbp
	sub	rsp, 32					; 00000020H
	mov	rbp, rdx
	lea	rcx, OFFSET FLAT:?$TSS1@?1???$PushArgp@_K@AsmHelper64@IronMan@@AEAAXAEB_KH_N@Z@4HA ; `IronMan::AsmHelper64::PushArgp<unsigned __int64>'::`2'::$TSS1
	call	_Init_thread_abort
	add	rsp, 32					; 00000020H
	pop	rbp
	ret	0
?dtor$1@?0???$PushArgp@_K@AsmHelper64@IronMan@@AEAAXAEB_KH_N@Z@4HA ENDP ; `IronMan::AsmHelper64::PushArgp<unsigned __int64>'::`1'::dtor$1
text$x	ENDS
; Function compile flags: /Odtp
; File C:\Program Files\Microsoft Visual Studio\2022\Community\VC\Tools\MSVC\14.43.34808\include\vector
;	COMDAT ??A?$vector@UAsmVariant@IronMan@@V?$allocator@UAsmVariant@IronMan@@@std@@@std@@QEBAAEBUAsmVariant@IronMan@@_K@Z
_TEXT	SEGMENT
_My_data$ = 0
this$ = 32
_Pos$ = 40
??A?$vector@UAsmVariant@IronMan@@V?$allocator@UAsmVariant@IronMan@@@std@@@std@@QEBAAEBUAsmVariant@IronMan@@_K@Z PROC ; std::vector<IronMan::AsmVariant,std::allocator<IronMan::AsmVariant> >::operator[], COMDAT

; 1922 :     _NODISCARD _CONSTEXPR20 const _Ty& operator[](const size_type _Pos) const noexcept /* strengthened */ {

$LN3:
	mov	QWORD PTR [rsp+16], rdx
	mov	QWORD PTR [rsp+8], rcx
	sub	rsp, 24

; 1923 :         auto& _My_data = _Mypair._Myval2;

	mov	rax, QWORD PTR this$[rsp]
	mov	QWORD PTR _My_data$[rsp], rax

; 1924 : #if _CONTAINER_DEBUG_LEVEL > 0
; 1925 :         _STL_VERIFY(
; 1926 :             _Pos < static_cast<size_type>(_My_data._Mylast - _My_data._Myfirst), "vector subscript out of range");
; 1927 : #endif // _CONTAINER_DEBUG_LEVEL > 0
; 1928 : 
; 1929 :         return _My_data._Myfirst[_Pos];

	imul	rax, QWORD PTR _Pos$[rsp], 88		; 00000058H
	mov	rcx, QWORD PTR _My_data$[rsp]
	add	rax, QWORD PTR [rcx]

; 1930 :     }

	add	rsp, 24
	ret	0
??A?$vector@UAsmVariant@IronMan@@V?$allocator@UAsmVariant@IronMan@@@std@@@std@@QEBAAEBUAsmVariant@IronMan@@_K@Z ENDP ; std::vector<IronMan::AsmVariant,std::allocator<IronMan::AsmVariant> >::operator[]
_TEXT	ENDS
; Function compile flags: /Odtp
; File C:\Program Files\Microsoft Visual Studio\2022\Community\VC\Tools\MSVC\14.43.34808\include\vector
;	COMDAT ?size@?$vector@UAsmVariant@IronMan@@V?$allocator@UAsmVariant@IronMan@@@std@@@std@@QEBA_KXZ
_TEXT	SEGMENT
_My_data$ = 0
this$ = 32
?size@?$vector@UAsmVariant@IronMan@@V?$allocator@UAsmVariant@IronMan@@@std@@@std@@QEBA_KXZ PROC ; std::vector<IronMan::AsmVariant,std::allocator<IronMan::AsmVariant> >::size, COMDAT

; 1898 :     _NODISCARD _CONSTEXPR20 size_type size() const noexcept {

$LN3:
	mov	QWORD PTR [rsp+8], rcx
	sub	rsp, 24

; 1899 :         auto& _My_data = _Mypair._Myval2;

	mov	rax, QWORD PTR this$[rsp]
	mov	QWORD PTR _My_data$[rsp], rax

; 1900 :         return static_cast<size_type>(_My_data._Mylast - _My_data._Myfirst);

	mov	rax, QWORD PTR _My_data$[rsp]
	mov	rcx, QWORD PTR _My_data$[rsp]
	mov	rcx, QWORD PTR [rcx]
	mov	rax, QWORD PTR [rax+8]
	sub	rax, rcx
	cdq
	mov	ecx, 88					; 00000058H
	idiv	rcx

; 1901 :     }

	add	rsp, 24
	ret	0
?size@?$vector@UAsmVariant@IronMan@@V?$allocator@UAsmVariant@IronMan@@@std@@@std@@QEBA_KXZ ENDP ; std::vector<IronMan::AsmVariant,std::allocator<IronMan::AsmVariant> >::size
_TEXT	ENDS
; Function compile flags: /Odtp
;	COMDAT ??_GAsmHelper64@IronMan@@UEAAPEAXI@Z
_TEXT	SEGMENT
this$ = 48
__flags$ = 56
??_GAsmHelper64@IronMan@@UEAAPEAXI@Z PROC		; IronMan::AsmHelper64::`scalar deleting destructor', COMDAT
$LN4:
	mov	DWORD PTR [rsp+16], edx
	mov	QWORD PTR [rsp+8], rcx
	sub	rsp, 40					; 00000028H
	mov	rcx, QWORD PTR this$[rsp]
	call	??1AsmHelper64@IronMan@@UEAA@XZ		; IronMan::AsmHelper64::~AsmHelper64
	mov	eax, DWORD PTR __flags$[rsp]
	and	eax, 1
	test	eax, eax
	je	SHORT $LN2@scalar
	mov	edx, 448				; 000001c0H
	mov	rcx, QWORD PTR this$[rsp]
	call	??3@YAXPEAX_K@Z				; operator delete
	npad	1
$LN2@scalar:
	mov	rax, QWORD PTR this$[rsp]
	add	rsp, 40					; 00000028H
	ret	0
??_GAsmHelper64@IronMan@@UEAAPEAXI@Z ENDP		; IronMan::AsmHelper64::`scalar deleting destructor'
_TEXT	ENDS
; Function compile flags: /Odtp
; File D:\c++\paoda\Helper\Asm\AsmHelper64.cpp
_TEXT	SEGMENT
tv65 = 32
tv81 = 36
$T1 = 40
tv78 = 48
$T2 = 56
$T3 = 64
tv137 = 72
this$ = 96
arg$ = 104
index$ = 112
?PushArg@AsmHelper64@IronMan@@AEAAXAEBUAsmVariant@2@H@Z PROC ; IronMan::AsmHelper64::PushArg

; 181  : 	{

$LN18:
	mov	DWORD PTR [rsp+24], r8d
	mov	QWORD PTR [rsp+16], rdx
	mov	QWORD PTR [rsp+8], rcx
	sub	rsp, 88					; 00000058H

; 182  : 		switch (arg.type)

	mov	rax, QWORD PTR arg$[rsp]
	mov	eax, DWORD PTR [rax]
	mov	DWORD PTR tv65[rsp], eax
	mov	eax, DWORD PTR tv65[rsp]
	dec	eax
	mov	DWORD PTR tv65[rsp], eax
	cmp	DWORD PTR tv65[rsp], 8
	ja	$LN13@PushArg
	movsxd	rax, DWORD PTR tv65[rsp]
	lea	rcx, OFFSET FLAT:__ImageBase
	mov	eax, DWORD PTR $LN17@PushArg[rcx+rax*4]
	add	rax, rcx
	jmp	rax
$LN4@PushArg:
$LN5@PushArg:

; 183  : 		{
; 184  : 
; 185  : 		case AsmVariant::imm:
; 186  : 		case AsmVariant::structRet:
; 187  : 			PushArgp(arg.imm_val64, index);

	mov	rax, QWORD PTR arg$[rsp]
	add	rax, 48					; 00000030H
	xor	r9d, r9d
	mov	r8d, DWORD PTR index$[rsp]
	mov	rdx, rax
	mov	rcx, QWORD PTR this$[rsp]
	call	??$PushArgp@_K@AsmHelper64@IronMan@@AEAAXAEB_KH_N@Z ; IronMan::AsmHelper64::PushArgp<unsigned __int64>
	npad	1

; 188  : 			break;

	jmp	$LN2@PushArg
$LN6@PushArg:
$LN7@PushArg:

; 189  : 
; 190  : 		case AsmVariant::dataPtr:
; 191  : 		case AsmVariant::dataStruct:
; 192  : 			// Use new_imm_val when available. It's populated by remote call engine.
; 193  : 			PushArgp(arg.new_imm_val != 0 ? arg.new_imm_val : arg.imm_val64, index);

	mov	eax, DWORD PTR index$[rsp]
	mov	DWORD PTR tv81[rsp], eax
	mov	rax, QWORD PTR arg$[rsp]
	cmp	QWORD PTR [rax+56], 0
	je	SHORT $LN15@PushArg
	mov	rax, QWORD PTR arg$[rsp]
	add	rax, 56					; 00000038H
	mov	QWORD PTR tv78[rsp], rax
	jmp	SHORT $LN16@PushArg
$LN15@PushArg:
	mov	rax, QWORD PTR arg$[rsp]
	add	rax, 48					; 00000030H
	mov	QWORD PTR tv78[rsp], rax
$LN16@PushArg:
	mov	rax, QWORD PTR tv78[rsp]
	mov	QWORD PTR $T2[rsp], rax
	xor	r9d, r9d
	mov	r8d, DWORD PTR tv81[rsp]
	mov	rdx, QWORD PTR $T2[rsp]
	mov	rcx, QWORD PTR this$[rsp]
	call	??$PushArgp@_K@AsmHelper64@IronMan@@AEAAXAEB_KH_N@Z ; IronMan::AsmHelper64::PushArgp<unsigned __int64>
	npad	1

; 194  : 			break;

	jmp	$LN2@PushArg
$LN8@PushArg:

; 195  : 
; 196  : 		case AsmVariant::imm_double:
; 197  : 			PushArgp(arg.getImm_double(), index, true);

	mov	rcx, QWORD PTR arg$[rsp]
	call	?getImm_double@AsmVariant@IronMan@@QEBA_KXZ ; IronMan::AsmVariant::getImm_double
	mov	QWORD PTR $T3[rsp], rax
	mov	r9b, 1
	mov	r8d, DWORD PTR index$[rsp]
	lea	rdx, QWORD PTR $T3[rsp]
	mov	rcx, QWORD PTR this$[rsp]
	call	??$PushArgp@_K@AsmHelper64@IronMan@@AEAAXAEB_KH_N@Z ; IronMan::AsmHelper64::PushArgp<unsigned __int64>
	npad	1

; 198  : 			break;

	jmp	$LN2@PushArg
$LN9@PushArg:

; 199  : 
; 200  : 		case AsmVariant::imm_float:
; 201  : 			PushArgp(arg.getImm_float(), index, true);

	mov	rcx, QWORD PTR arg$[rsp]
	call	?getImm_float@AsmVariant@IronMan@@QEBAIXZ ; IronMan::AsmVariant::getImm_float
	mov	DWORD PTR $T1[rsp], eax
	mov	r9b, 1
	mov	r8d, DWORD PTR index$[rsp]
	lea	rdx, QWORD PTR $T1[rsp]
	mov	rcx, QWORD PTR this$[rsp]
	call	??$PushArgp@I@AsmHelper64@IronMan@@AEAAXAEBIH_N@Z ; IronMan::AsmHelper64::PushArgp<unsigned int>
	npad	1

; 202  : 			break;

	jmp	$LN2@PushArg
$LN10@PushArg:

; 203  : 
; 204  : 		case AsmVariant::mem_ptr:
; 205  : 			_assembler.lea(asmjit::host::rax, arg.mem_val);

	mov	rax, QWORD PTR this$[rsp]
	add	rax, 168				; 000000a8H
	mov	QWORD PTR tv137[rsp], rax
	mov	rax, QWORD PTR arg$[rsp]
	add	rax, 32					; 00000020H
	mov	r8, rax
	mov	rdx, QWORD PTR ?rax@x86@asmjit@@3AEBUX86GpReg@2@EB
	mov	rcx, QWORD PTR tv137[rsp]
	call	?lea@X86Assembler@asmjit@@QEAAIAEBUX86GpReg@2@AEBUX86Mem@2@@Z ; asmjit::X86Assembler::lea

; 206  : 			PushArgp(asmjit::host::rax, index);

	xor	r9d, r9d
	mov	r8d, DWORD PTR index$[rsp]
	mov	rdx, QWORD PTR ?rax@x86@asmjit@@3AEBUX86GpReg@2@EB
	mov	rcx, QWORD PTR this$[rsp]
	call	??$PushArgp@UX86GpReg@asmjit@@@AsmHelper64@IronMan@@AEAAXAEBUX86GpReg@asmjit@@H_N@Z ; IronMan::AsmHelper64::PushArgp<asmjit::X86GpReg>
	npad	1

; 207  : 			break;

	jmp	SHORT $LN2@PushArg
$LN11@PushArg:

; 208  : 
; 209  : 		case AsmVariant::mem:
; 210  : 			PushArgp(arg.mem_val, index);

	mov	rax, QWORD PTR arg$[rsp]
	add	rax, 32					; 00000020H
	xor	r9d, r9d
	mov	r8d, DWORD PTR index$[rsp]
	mov	rdx, rax
	mov	rcx, QWORD PTR this$[rsp]
	call	??$PushArgp@UX86Mem@asmjit@@@AsmHelper64@IronMan@@AEAAXAEBUX86Mem@asmjit@@H_N@Z ; IronMan::AsmHelper64::PushArgp<asmjit::X86Mem>
	npad	1

; 211  : 			break;

	jmp	SHORT $LN2@PushArg
$LN12@PushArg:

; 212  : 
; 213  : 		case AsmVariant::reg:
; 214  : 			PushArgp(arg.reg_val, index);

	mov	rax, QWORD PTR arg$[rsp]
	add	rax, 16
	xor	r9d, r9d
	mov	r8d, DWORD PTR index$[rsp]
	mov	rdx, rax
	mov	rcx, QWORD PTR this$[rsp]
	call	??$PushArgp@UX86GpReg@asmjit@@@AsmHelper64@IronMan@@AEAAXAEBUX86GpReg@asmjit@@H_N@Z ; IronMan::AsmHelper64::PushArgp<asmjit::X86GpReg>
	npad	1
$LN13@PushArg:
$LN2@PushArg:

; 215  : 			break;
; 216  : 
; 217  : 		default:
; 218  : 			assert("Invalid argument type" && false);
; 219  : 			break;
; 220  : 		}
; 221  : 	}

	add	rsp, 88					; 00000058H
	ret	0
	npad	3
$LN17@PushArg:
	DD	$LN12@PushArg
	DD	$LN4@PushArg
	DD	$LN8@PushArg
	DD	$LN9@PushArg
	DD	$LN6@PushArg
	DD	$LN7@PushArg
	DD	$LN5@PushArg
	DD	$LN11@PushArg
	DD	$LN10@PushArg
?PushArg@AsmHelper64@IronMan@@AEAAXAEBUAsmVariant@2@H@Z ENDP ; IronMan::AsmHelper64::PushArg
_TEXT	ENDS
; Function compile flags: /Odtp
; File D:\c++\paoda\Helper\Asm\AsmHelper64.cpp
_TEXT	SEGMENT
this$ = 8
state$ = 16
?EnableX64CallStack@AsmHelper64@IronMan@@UEAAX_N@Z PROC	; IronMan::AsmHelper64::EnableX64CallStack

; 171  : 	{

	mov	BYTE PTR [rsp+16], dl
	mov	QWORD PTR [rsp+8], rcx

; 172  : 		_stackEnabled = state;

	mov	rax, QWORD PTR this$[rsp]
	movzx	ecx, BYTE PTR state$[rsp]
	mov	BYTE PTR [rax+440], cl

; 173  : 	}

	ret	0
?EnableX64CallStack@AsmHelper64@IronMan@@UEAAX_N@Z ENDP	; IronMan::AsmHelper64::EnableX64CallStack
_TEXT	ENDS
; Function compile flags: /Odtp
; File D:\c++\paoda\Helper\Asm\AsmHelper64.cpp
_TEXT	SEGMENT
tv74 = 32
tv92 = 40
tv90 = 48
tv94 = 56
tv141 = 64
tv143 = 72
tv149 = 80
tv147 = 88
tv151 = 96
tv161 = 104
tv177 = 112
tv175 = 120
tv179 = 128
tv189 = 136
tv205 = 144
tv203 = 152
tv207 = 160
tv217 = 168
tv233 = 176
tv231 = 184
tv235 = 192
tv245 = 200
tv255 = 208
tv264 = 216
$T1 = 224
$T2 = 240
$T3 = 256
$T4 = 272
$T5 = 288
this$ = 320
pSetEvent$ = 328
ResultPtr$ = 336
EventPtr$ = 344
lastStatusPtr$ = 352
rtype$ = 360
?SaveRetValAndSignalEvent@AsmHelper64@IronMan@@UEAAX_K000W4eReturnType@2@@Z PROC ; IronMan::AsmHelper64::SaveRetValAndSignalEvent

; 140  : 	{

$LN5:
	mov	QWORD PTR [rsp+32], r9
	mov	QWORD PTR [rsp+24], r8
	mov	QWORD PTR [rsp+16], rdx
	mov	QWORD PTR [rsp+8], rcx
	sub	rsp, 312				; 00000138H

; 141  : 		_assembler.mov(asmjit::host::rcx, ResultPtr);

	mov	rax, QWORD PTR this$[rsp]
	add	rax, 168				; 000000a8H
	mov	QWORD PTR tv74[rsp], rax
	mov	r8, QWORD PTR ResultPtr$[rsp]
	mov	rdx, QWORD PTR ?rcx@x86@asmjit@@3AEBUX86GpReg@2@EB
	mov	rcx, QWORD PTR tv74[rsp]
	call	?mov@X86Assembler@asmjit@@QEAAIAEBUX86GpReg@2@_K@Z ; asmjit::X86Assembler::mov
	npad	1

; 142  : 
; 143  : 		// FPU value has been already saved
; 144  : 		if (rtype == rt_int64 || rtype == rt_int32)

	cmp	DWORD PTR rtype$[rsp], 8
	je	SHORT $LN3@SaveRetVal
	cmp	DWORD PTR rtype$[rsp], 4
	jne	SHORT $LN2@SaveRetVal
$LN3@SaveRetVal:

; 145  : 			_assembler.mov(asmjit::host::dword_ptr(asmjit::host::rcx), asmjit::host::rax);

	mov	rax, QWORD PTR this$[rsp]
	add	rax, 168				; 000000a8H
	mov	QWORD PTR tv94[rsp], rax
	mov	rax, QWORD PTR ?rax@x86@asmjit@@3AEBUX86GpReg@2@EB
	mov	QWORD PTR tv92[rsp], rax
	xor	r8d, r8d
	mov	rdx, QWORD PTR ?rcx@x86@asmjit@@3AEBUX86GpReg@2@EB
	lea	rcx, QWORD PTR $T1[rsp]
	call	?dword_ptr@x86@asmjit@@YA?AUX86Mem@2@AEBUX86GpReg@2@H@Z ; asmjit::x86::dword_ptr
	mov	QWORD PTR tv90[rsp], rax
	mov	r8, QWORD PTR tv92[rsp]
	mov	rdx, QWORD PTR tv90[rsp]
	mov	rcx, QWORD PTR tv94[rsp]
	call	?mov@X86Assembler@asmjit@@QEAAIAEBUX86Mem@2@AEBUX86GpReg@2@@Z ; asmjit::X86Assembler::mov
	npad	1
$LN2@SaveRetVal:

; 146  : 
; 147  : 		// Save last NT status
; 148  : 		_assembler.mov(asmjit::host::rdx, asmjit::host::dword_ptr_abs(0x30).setSegment(asmjit::host::gs));    // TEB ptr

	mov	rax, QWORD PTR this$[rsp]
	add	rax, 168				; 000000a8H
	mov	QWORD PTR tv151[rsp], rax
	xor	r8d, r8d
	mov	edx, 48					; 00000030H
	lea	rcx, QWORD PTR $T2[rsp]
	call	?dword_ptr_abs@x86@asmjit@@YA?AUX86Mem@2@_KH@Z ; asmjit::x86::dword_ptr_abs
	mov	QWORD PTR tv143[rsp], rax
	mov	rax, QWORD PTR ?gs@x86@asmjit@@3AEBUX86SegReg@2@EB
	mov	QWORD PTR tv141[rsp], rax
	mov	rdx, QWORD PTR tv141[rsp]
	mov	rcx, QWORD PTR tv143[rsp]
	call	?setSegment@X86Mem@asmjit@@QEAAAEAU12@AEBUX86SegReg@2@@Z ; asmjit::X86Mem::setSegment
	mov	QWORD PTR tv149[rsp], rax
	mov	rax, QWORD PTR ?rdx@x86@asmjit@@3AEBUX86GpReg@2@EB
	mov	QWORD PTR tv147[rsp], rax
	mov	r8, QWORD PTR tv149[rsp]
	mov	rdx, QWORD PTR tv147[rsp]
	mov	rcx, QWORD PTR tv151[rsp]
	call	?mov@X86Assembler@asmjit@@QEAAIAEBUX86GpReg@2@AEBUX86Mem@2@@Z ; asmjit::X86Assembler::mov
	npad	1

; 149  : 		_assembler.add(asmjit::host::rdx, 0x598 + 0x197 * sizeof(uint64_t));

	mov	rax, QWORD PTR this$[rsp]
	add	rax, 168				; 000000a8H
	mov	QWORD PTR tv161[rsp], rax
	mov	r8d, 4688				; 00001250H
	mov	rdx, QWORD PTR ?rdx@x86@asmjit@@3AEBUX86GpReg@2@EB
	mov	rcx, QWORD PTR tv161[rsp]
	call	?add@X86Assembler@asmjit@@QEAAIAEBUX86GpReg@2@_K@Z ; asmjit::X86Assembler::add
	npad	1

; 150  : 		_assembler.mov(asmjit::host::rdx, asmjit::host::dword_ptr(asmjit::host::rdx));

	mov	rax, QWORD PTR this$[rsp]
	add	rax, 168				; 000000a8H
	mov	QWORD PTR tv179[rsp], rax
	xor	r8d, r8d
	mov	rdx, QWORD PTR ?rdx@x86@asmjit@@3AEBUX86GpReg@2@EB
	lea	rcx, QWORD PTR $T3[rsp]
	call	?dword_ptr@x86@asmjit@@YA?AUX86Mem@2@AEBUX86GpReg@2@H@Z ; asmjit::x86::dword_ptr
	mov	QWORD PTR tv177[rsp], rax
	mov	rax, QWORD PTR ?rdx@x86@asmjit@@3AEBUX86GpReg@2@EB
	mov	QWORD PTR tv175[rsp], rax
	mov	r8, QWORD PTR tv177[rsp]
	mov	rdx, QWORD PTR tv175[rsp]
	mov	rcx, QWORD PTR tv179[rsp]
	call	?mov@X86Assembler@asmjit@@QEAAIAEBUX86GpReg@2@AEBUX86Mem@2@@Z ; asmjit::X86Assembler::mov
	npad	1

; 151  : 		_assembler.mov(asmjit::host::rax, lastStatusPtr);

	mov	rax, QWORD PTR this$[rsp]
	add	rax, 168				; 000000a8H
	mov	QWORD PTR tv189[rsp], rax
	mov	r8, QWORD PTR lastStatusPtr$[rsp]
	mov	rdx, QWORD PTR ?rax@x86@asmjit@@3AEBUX86GpReg@2@EB
	mov	rcx, QWORD PTR tv189[rsp]
	call	?mov@X86Assembler@asmjit@@QEAAIAEBUX86GpReg@2@_K@Z ; asmjit::X86Assembler::mov
	npad	1

; 152  : 		_assembler.mov(asmjit::host::dword_ptr(asmjit::host::rax), asmjit::host::rdx);

	mov	rax, QWORD PTR this$[rsp]
	add	rax, 168				; 000000a8H
	mov	QWORD PTR tv207[rsp], rax
	mov	rax, QWORD PTR ?rdx@x86@asmjit@@3AEBUX86GpReg@2@EB
	mov	QWORD PTR tv205[rsp], rax
	xor	r8d, r8d
	mov	rdx, QWORD PTR ?rax@x86@asmjit@@3AEBUX86GpReg@2@EB
	lea	rcx, QWORD PTR $T4[rsp]
	call	?dword_ptr@x86@asmjit@@YA?AUX86Mem@2@AEBUX86GpReg@2@H@Z ; asmjit::x86::dword_ptr
	mov	QWORD PTR tv203[rsp], rax
	mov	r8, QWORD PTR tv205[rsp]
	mov	rdx, QWORD PTR tv203[rsp]
	mov	rcx, QWORD PTR tv207[rsp]
	call	?mov@X86Assembler@asmjit@@QEAAIAEBUX86Mem@2@AEBUX86GpReg@2@@Z ; asmjit::X86Assembler::mov
	npad	1

; 153  : 
; 154  : 		// NtSetEvent(hEvent, NULL)
; 155  : 		_assembler.mov(asmjit::host::rax, EventPtr);

	mov	rax, QWORD PTR this$[rsp]
	add	rax, 168				; 000000a8H
	mov	QWORD PTR tv217[rsp], rax
	mov	r8, QWORD PTR EventPtr$[rsp]
	mov	rdx, QWORD PTR ?rax@x86@asmjit@@3AEBUX86GpReg@2@EB
	mov	rcx, QWORD PTR tv217[rsp]
	call	?mov@X86Assembler@asmjit@@QEAAIAEBUX86GpReg@2@_K@Z ; asmjit::X86Assembler::mov
	npad	1

; 156  : 		_assembler.mov(asmjit::host::rcx, asmjit::host::dword_ptr(asmjit::host::rax));

	mov	rax, QWORD PTR this$[rsp]
	add	rax, 168				; 000000a8H
	mov	QWORD PTR tv235[rsp], rax
	xor	r8d, r8d
	mov	rdx, QWORD PTR ?rax@x86@asmjit@@3AEBUX86GpReg@2@EB
	lea	rcx, QWORD PTR $T5[rsp]
	call	?dword_ptr@x86@asmjit@@YA?AUX86Mem@2@AEBUX86GpReg@2@H@Z ; asmjit::x86::dword_ptr
	mov	QWORD PTR tv233[rsp], rax
	mov	rax, QWORD PTR ?rcx@x86@asmjit@@3AEBUX86GpReg@2@EB
	mov	QWORD PTR tv231[rsp], rax
	mov	r8, QWORD PTR tv233[rsp]
	mov	rdx, QWORD PTR tv231[rsp]
	mov	rcx, QWORD PTR tv235[rsp]
	call	?mov@X86Assembler@asmjit@@QEAAIAEBUX86GpReg@2@AEBUX86Mem@2@@Z ; asmjit::X86Assembler::mov
	npad	1

; 157  : 		_assembler.mov(asmjit::host::rdx, 0);

	mov	rax, QWORD PTR this$[rsp]
	add	rax, 168				; 000000a8H
	mov	QWORD PTR tv245[rsp], rax
	xor	r8d, r8d
	mov	rdx, QWORD PTR ?rdx@x86@asmjit@@3AEBUX86GpReg@2@EB
	mov	rcx, QWORD PTR tv245[rsp]
	call	?mov@X86Assembler@asmjit@@QEAAIAEBUX86GpReg@2@H@Z ; asmjit::X86Assembler::mov

; 158  : 		_assembler.mov(asmjit::host::rax, pSetEvent);

	mov	rax, QWORD PTR this$[rsp]
	add	rax, 168				; 000000a8H
	mov	QWORD PTR tv255[rsp], rax
	mov	r8, QWORD PTR pSetEvent$[rsp]
	mov	rdx, QWORD PTR ?rax@x86@asmjit@@3AEBUX86GpReg@2@EB
	mov	rcx, QWORD PTR tv255[rsp]
	call	?mov@X86Assembler@asmjit@@QEAAIAEBUX86GpReg@2@_K@Z ; asmjit::X86Assembler::mov

; 159  : 		_assembler.call(asmjit::host::rax);

	mov	rax, QWORD PTR this$[rsp]
	add	rax, 168				; 000000a8H
	mov	QWORD PTR tv264[rsp], rax
	mov	rdx, QWORD PTR ?rax@x86@asmjit@@3AEBUX86GpReg@2@EB
	mov	rcx, QWORD PTR tv264[rsp]
	call	?call@X86Assembler@asmjit@@QEAAIAEBUX86GpReg@2@@Z ; asmjit::X86Assembler::call
	npad	1

; 160  : 	}

	add	rsp, 312				; 00000138H
	ret	0
?SaveRetValAndSignalEvent@AsmHelper64@IronMan@@UEAAX_K000W4eReturnType@2@@Z ENDP ; IronMan::AsmHelper64::SaveRetValAndSignalEvent
_TEXT	ENDS
; Function compile flags: /Odtp
; File D:\c++\paoda\Helper\Asm\AsmHelper64.cpp
_TEXT	SEGMENT
tv75 = 32
tv91 = 40
tv89 = 48
tv93 = 56
tv135 = 64
tv145 = 72
tv155 = 80
tv164 = 88
$T1 = 96
this$ = 128
pExitThread$ = 136
resultPtr$ = 144
?ExitThreadWithStatus@AsmHelper64@IronMan@@UEAAX_K0@Z PROC ; IronMan::AsmHelper64::ExitThreadWithStatus

; 112  : 	{

$LN4:
	mov	QWORD PTR [rsp+24], r8
	mov	QWORD PTR [rsp+16], rdx
	mov	QWORD PTR [rsp+8], rcx
	sub	rsp, 120				; 00000078H

; 113  : 		if (resultPtr != 0)

	cmp	QWORD PTR resultPtr$[rsp], 0
	je	SHORT $LN2@ExitThread

; 114  : 		{
; 115  : 			_assembler.mov(asmjit::host::rdx, resultPtr);

	mov	rax, QWORD PTR this$[rsp]
	add	rax, 168				; 000000a8H
	mov	QWORD PTR tv75[rsp], rax
	mov	r8, QWORD PTR resultPtr$[rsp]
	mov	rdx, QWORD PTR ?rdx@x86@asmjit@@3AEBUX86GpReg@2@EB
	mov	rcx, QWORD PTR tv75[rsp]
	call	?mov@X86Assembler@asmjit@@QEAAIAEBUX86GpReg@2@_K@Z ; asmjit::X86Assembler::mov
	npad	1

; 116  : 			_assembler.mov(asmjit::host::dword_ptr(asmjit::host::rdx), asmjit::host::rax);

	mov	rax, QWORD PTR this$[rsp]
	add	rax, 168				; 000000a8H
	mov	QWORD PTR tv93[rsp], rax
	mov	rax, QWORD PTR ?rax@x86@asmjit@@3AEBUX86GpReg@2@EB
	mov	QWORD PTR tv91[rsp], rax
	xor	r8d, r8d
	mov	rdx, QWORD PTR ?rdx@x86@asmjit@@3AEBUX86GpReg@2@EB
	lea	rcx, QWORD PTR $T1[rsp]
	call	?dword_ptr@x86@asmjit@@YA?AUX86Mem@2@AEBUX86GpReg@2@H@Z ; asmjit::x86::dword_ptr
	mov	QWORD PTR tv89[rsp], rax
	mov	r8, QWORD PTR tv91[rsp]
	mov	rdx, QWORD PTR tv89[rsp]
	mov	rcx, QWORD PTR tv93[rsp]
	call	?mov@X86Assembler@asmjit@@QEAAIAEBUX86Mem@2@AEBUX86GpReg@2@@Z ; asmjit::X86Assembler::mov
	npad	1
$LN2@ExitThread:

; 117  : 		}
; 118  : 
; 119  : 		_assembler.mov(asmjit::host::rdx, asmjit::host::rax);

	mov	rax, QWORD PTR this$[rsp]
	add	rax, 168				; 000000a8H
	mov	QWORD PTR tv135[rsp], rax
	mov	r8, QWORD PTR ?rax@x86@asmjit@@3AEBUX86GpReg@2@EB
	mov	rdx, QWORD PTR ?rdx@x86@asmjit@@3AEBUX86GpReg@2@EB
	mov	rcx, QWORD PTR tv135[rsp]
	call	?mov@X86Assembler@asmjit@@QEAAIAEBUX86GpReg@2@0@Z ; asmjit::X86Assembler::mov

; 120  : 		_assembler.mov(asmjit::host::rcx, 0);

	mov	rax, QWORD PTR this$[rsp]
	add	rax, 168				; 000000a8H
	mov	QWORD PTR tv145[rsp], rax
	xor	r8d, r8d
	mov	rdx, QWORD PTR ?rcx@x86@asmjit@@3AEBUX86GpReg@2@EB
	mov	rcx, QWORD PTR tv145[rsp]
	call	?mov@X86Assembler@asmjit@@QEAAIAEBUX86GpReg@2@H@Z ; asmjit::X86Assembler::mov

; 121  : 		_assembler.mov(asmjit::host::rax, pExitThread);

	mov	rax, QWORD PTR this$[rsp]
	add	rax, 168				; 000000a8H
	mov	QWORD PTR tv155[rsp], rax
	mov	r8, QWORD PTR pExitThread$[rsp]
	mov	rdx, QWORD PTR ?rax@x86@asmjit@@3AEBUX86GpReg@2@EB
	mov	rcx, QWORD PTR tv155[rsp]
	call	?mov@X86Assembler@asmjit@@QEAAIAEBUX86GpReg@2@_K@Z ; asmjit::X86Assembler::mov

; 122  : 		_assembler.call(asmjit::host::rax);

	mov	rax, QWORD PTR this$[rsp]
	add	rax, 168				; 000000a8H
	mov	QWORD PTR tv164[rsp], rax
	mov	rdx, QWORD PTR ?rax@x86@asmjit@@3AEBUX86GpReg@2@EB
	mov	rcx, QWORD PTR tv164[rsp]
	call	?call@X86Assembler@asmjit@@QEAAIAEBUX86GpReg@2@@Z ; asmjit::X86Assembler::call
	npad	1

; 123  : 	}

	add	rsp, 120				; 00000078H
	ret	0
?ExitThreadWithStatus@AsmHelper64@IronMan@@UEAAX_K0@Z ENDP ; IronMan::AsmHelper64::ExitThreadWithStatus
_TEXT	ENDS
; Function compile flags: /Odtp
; File D:\c++\paoda\Helper\Asm\AsmHelper64.cpp
_TEXT	SEGMENT
i$1 = 32
rsp_dif$ = 40
tv70 = 48
tv88 = 56
tv153 = 64
tv162 = 72
tv182 = 80
tv196 = 88
this$ = 112
pFN$ = 120
args$ = 128
__formal$ = 136
?GenCall@AsmHelper64@IronMan@@UEAAXAEBUAsmFunctionPtr@2@AEBV?$vector@UAsmVariant@IronMan@@V?$allocator@UAsmVariant@IronMan@@@std@@@std@@W4eCalligConvention@2@@Z PROC ; IronMan::AsmHelper64::GenCall

; 73   : 	{

$LN14:
	mov	DWORD PTR [rsp+32], r9d
	mov	QWORD PTR [rsp+24], r8
	mov	QWORD PTR [rsp+16], rdx
	mov	QWORD PTR [rsp+8], rcx
	sub	rsp, 104				; 00000068H

; 74   : 		//
; 75   : 		// reserve stack size (0x28 - minimal size for 4 registers and return address)
; 76   : 		// after call, stack must be aligned on 16 bytes boundary
; 77   : 		//
; 78   : 		size_t rsp_dif = (args.size() > 4) ? args.size() * sizeof(uint64_t) : 0x28;

	mov	rcx, QWORD PTR args$[rsp]
	call	?size@?$vector@UAsmVariant@IronMan@@V?$allocator@UAsmVariant@IronMan@@@std@@@std@@QEBA_KXZ ; std::vector<IronMan::AsmVariant,std::allocator<IronMan::AsmVariant> >::size
	cmp	rax, 4
	jbe	SHORT $LN12@GenCall
	mov	rcx, QWORD PTR args$[rsp]
	call	?size@?$vector@UAsmVariant@IronMan@@V?$allocator@UAsmVariant@IronMan@@@std@@@std@@QEBA_KXZ ; std::vector<IronMan::AsmVariant,std::allocator<IronMan::AsmVariant> >::size
	shl	rax, 3
	mov	QWORD PTR tv70[rsp], rax
	jmp	SHORT $LN13@GenCall
$LN12@GenCall:
	mov	QWORD PTR tv70[rsp], 40			; 00000028H
$LN13@GenCall:
	mov	rax, QWORD PTR tv70[rsp]
	mov	QWORD PTR rsp_dif$[rsp], rax

; 79   : 
; 80   : 		// align on (16 bytes - sizeof(return address))
; 81   : 		rsp_dif = Align(rsp_dif, 0x10);

	mov	edx, 16
	mov	rcx, QWORD PTR rsp_dif$[rsp]
	call	?Align@@YA_K_K0@Z			; Align
	mov	QWORD PTR rsp_dif$[rsp], rax

; 82   : 
; 83   : 		if (_stackEnabled)

	mov	rax, QWORD PTR this$[rsp]
	movzx	eax, BYTE PTR [rax+440]
	test	eax, eax
	je	SHORT $LN5@GenCall

; 84   : 			_assembler.sub(asmjit::host::rsp, rsp_dif + 8);

	mov	rax, QWORD PTR this$[rsp]
	add	rax, 168				; 000000a8H
	mov	QWORD PTR tv88[rsp], rax
	mov	rax, QWORD PTR rsp_dif$[rsp]
	add	rax, 8
	mov	r8, rax
	mov	rdx, QWORD PTR ?rsp@x86@asmjit@@3AEBUX86GpReg@2@EB
	mov	rcx, QWORD PTR tv88[rsp]
	call	?sub@X86Assembler@asmjit@@QEAAIAEBUX86GpReg@2@_K@Z ; asmjit::X86Assembler::sub
	npad	1
$LN5@GenCall:

; 85   : 
; 86   : 		// Set args
; 87   : 		for (int32_t i = 0; i < static_cast<int32_t>(args.size()); i++)

	mov	DWORD PTR i$1[rsp], 0
	jmp	SHORT $LN4@GenCall
$LN2@GenCall:
	mov	eax, DWORD PTR i$1[rsp]
	inc	eax
	mov	DWORD PTR i$1[rsp], eax
$LN4@GenCall:
	mov	rcx, QWORD PTR args$[rsp]
	call	?size@?$vector@UAsmVariant@IronMan@@V?$allocator@UAsmVariant@IronMan@@@std@@@std@@QEBA_KXZ ; std::vector<IronMan::AsmVariant,std::allocator<IronMan::AsmVariant> >::size
	cmp	DWORD PTR i$1[rsp], eax
	jge	SHORT $LN3@GenCall

; 88   : 			PushArg(args[i], i);

	movsxd	rax, DWORD PTR i$1[rsp]
	mov	rdx, rax
	mov	rcx, QWORD PTR args$[rsp]
	call	??A?$vector@UAsmVariant@IronMan@@V?$allocator@UAsmVariant@IronMan@@@std@@@std@@QEBAAEBUAsmVariant@IronMan@@_K@Z ; std::vector<IronMan::AsmVariant,std::allocator<IronMan::AsmVariant> >::operator[]
	mov	r8d, DWORD PTR i$1[rsp]
	mov	rdx, rax
	mov	rcx, QWORD PTR this$[rsp]
	call	?PushArg@AsmHelper64@IronMan@@AEAAXAEBUAsmVariant@2@H@Z ; IronMan::AsmHelper64::PushArg
	npad	1
	jmp	SHORT $LN2@GenCall
$LN3@GenCall:

; 89   : 
; 90   : 		if (pFN.type == AsmVariant::imm)

	mov	rax, QWORD PTR pFN$[rsp]
	cmp	DWORD PTR [rax], 2
	jne	SHORT $LN6@GenCall

; 91   : 		{
; 92   : 			_assembler.mov(asmjit::host::rax, pFN.imm_val64);

	mov	rax, QWORD PTR this$[rsp]
	add	rax, 168				; 000000a8H
	mov	QWORD PTR tv153[rsp], rax
	mov	rax, QWORD PTR pFN$[rsp]
	mov	r8, QWORD PTR [rax+48]
	mov	rdx, QWORD PTR ?rax@x86@asmjit@@3AEBUX86GpReg@2@EB
	mov	rcx, QWORD PTR tv153[rsp]
	call	?mov@X86Assembler@asmjit@@QEAAIAEBUX86GpReg@2@_K@Z ; asmjit::X86Assembler::mov

; 93   : 			_assembler.call(asmjit::host::rax);

	mov	rax, QWORD PTR this$[rsp]
	add	rax, 168				; 000000a8H
	mov	QWORD PTR tv162[rsp], rax
	mov	rdx, QWORD PTR ?rax@x86@asmjit@@3AEBUX86GpReg@2@EB
	mov	rcx, QWORD PTR tv162[rsp]
	call	?call@X86Assembler@asmjit@@QEAAIAEBUX86GpReg@2@@Z ; asmjit::X86Assembler::call
	npad	1

; 94   : 		}

	jmp	SHORT $LN7@GenCall
$LN6@GenCall:

; 95   : 		else if (pFN.type == AsmVariant::reg)

	mov	rax, QWORD PTR pFN$[rsp]
	cmp	DWORD PTR [rax], 1
	jne	SHORT $LN8@GenCall

; 96   : 		{
; 97   : 			_assembler.call(pFN.reg_val);

	mov	rax, QWORD PTR this$[rsp]
	add	rax, 168				; 000000a8H
	mov	QWORD PTR tv182[rsp], rax
	mov	rax, QWORD PTR pFN$[rsp]
	add	rax, 16
	mov	rdx, rax
	mov	rcx, QWORD PTR tv182[rsp]
	call	?call@X86Assembler@asmjit@@QEAAIAEBUX86GpReg@2@@Z ; asmjit::X86Assembler::call
	npad	1
$LN8@GenCall:
$LN7@GenCall:

; 98   : 		}
; 99   : 		else
; 100  : 			assert("Invalid function pointer type" && false);
; 101  : 
; 102  : 		if (_stackEnabled)

	mov	rax, QWORD PTR this$[rsp]
	movzx	eax, BYTE PTR [rax+440]
	test	eax, eax
	je	SHORT $LN10@GenCall

; 103  : 			_assembler.add(asmjit::host::rsp, rsp_dif + 8);

	mov	rax, QWORD PTR this$[rsp]
	add	rax, 168				; 000000a8H
	mov	QWORD PTR tv196[rsp], rax
	mov	rax, QWORD PTR rsp_dif$[rsp]
	add	rax, 8
	mov	r8, rax
	mov	rdx, QWORD PTR ?rsp@x86@asmjit@@3AEBUX86GpReg@2@EB
	mov	rcx, QWORD PTR tv196[rsp]
	call	?add@X86Assembler@asmjit@@QEAAIAEBUX86GpReg@2@_K@Z ; asmjit::X86Assembler::add
	npad	1
$LN10@GenCall:

; 104  : 	}

	add	rsp, 104				; 00000068H
	ret	0
?GenCall@AsmHelper64@IronMan@@UEAAXAEBUAsmFunctionPtr@2@AEBV?$vector@UAsmVariant@IronMan@@V?$allocator@UAsmVariant@IronMan@@@std@@@std@@W4eCalligConvention@2@@Z ENDP ; IronMan::AsmHelper64::GenCall
_TEXT	ENDS
; Function compile flags: /Odtp
; File D:\c++\paoda\Helper\Asm\AsmHelper64.cpp
_TEXT	SEGMENT
tv87 = 32
tv85 = 40
tv89 = 48
tv137 = 56
tv135 = 64
tv139 = 72
tv155 = 80
tv153 = 88
tv157 = 96
tv173 = 104
tv171 = 112
tv175 = 120
tv191 = 128
tv189 = 136
tv193 = 144
$T1 = 152
$T2 = 168
$T3 = 184
$T4 = 200
$T5 = 216
this$ = 256
switchMode$ = 264
__formal$ = 272
?GenEpilogue@AsmHelper64@IronMan@@UEAAX_NH@Z PROC	; IronMan::AsmHelper64::GenEpilogue

; 49   : 	{

$LN5:
	mov	DWORD PTR [rsp+24], r8d
	mov	BYTE PTR [rsp+16], dl
	mov	QWORD PTR [rsp+8], rcx
	sub	rsp, 248				; 000000f8H

; 50   : 		if (switchMode)

	movzx	eax, BYTE PTR switchMode$[rsp]
	test	eax, eax
	je	SHORT $LN2@GenEpilogu

; 51   : 		{
; 52   : 			SwitchTo86();

	mov	rcx, QWORD PTR this$[rsp]
	call	?SwitchTo86@IAsmHelper@IronMan@@QEAAXXZ	; IronMan::IAsmHelper::SwitchTo86
	npad	1

; 53   : 		}

	jmp	$LN3@GenEpilogu
$LN2@GenEpilogu:

; 54   : 		else
; 55   : 		{
; 56   : 			_assembler.mov(asmjit::host::rcx, asmjit::host::qword_ptr(asmjit::host::rsp, 1 * sizeof(uint64_t)));

	mov	rax, QWORD PTR this$[rsp]
	add	rax, 168				; 000000a8H
	mov	QWORD PTR tv89[rsp], rax
	mov	r8d, 8
	mov	rdx, QWORD PTR ?rsp@x86@asmjit@@3AEBUX86GpReg@2@EB
	lea	rcx, QWORD PTR $T1[rsp]
	call	?qword_ptr@x86@asmjit@@YA?AUX86Mem@2@AEBUX86GpReg@2@H@Z ; asmjit::x86::qword_ptr
	mov	QWORD PTR tv87[rsp], rax
	mov	rax, QWORD PTR ?rcx@x86@asmjit@@3AEBUX86GpReg@2@EB
	mov	QWORD PTR tv85[rsp], rax
	mov	r8, QWORD PTR tv87[rsp]
	mov	rdx, QWORD PTR tv85[rsp]
	mov	rcx, QWORD PTR tv89[rsp]
	call	?mov@X86Assembler@asmjit@@QEAAIAEBUX86GpReg@2@AEBUX86Mem@2@@Z ; asmjit::X86Assembler::mov
	npad	1

; 57   : 			_assembler.mov(asmjit::host::rdx, asmjit::host::qword_ptr(asmjit::host::rsp, 2 * sizeof(uint64_t)));

	mov	rax, QWORD PTR this$[rsp]
	add	rax, 168				; 000000a8H
	mov	QWORD PTR tv139[rsp], rax
	mov	r8d, 16
	mov	rdx, QWORD PTR ?rsp@x86@asmjit@@3AEBUX86GpReg@2@EB
	lea	rcx, QWORD PTR $T2[rsp]
	call	?qword_ptr@x86@asmjit@@YA?AUX86Mem@2@AEBUX86GpReg@2@H@Z ; asmjit::x86::qword_ptr
	mov	QWORD PTR tv137[rsp], rax
	mov	rax, QWORD PTR ?rdx@x86@asmjit@@3AEBUX86GpReg@2@EB
	mov	QWORD PTR tv135[rsp], rax
	mov	r8, QWORD PTR tv137[rsp]
	mov	rdx, QWORD PTR tv135[rsp]
	mov	rcx, QWORD PTR tv139[rsp]
	call	?mov@X86Assembler@asmjit@@QEAAIAEBUX86GpReg@2@AEBUX86Mem@2@@Z ; asmjit::X86Assembler::mov
	npad	1

; 58   : 			_assembler.mov(asmjit::host::r8, asmjit::host::qword_ptr(asmjit::host::rsp, 3 * sizeof(uint64_t)));

	mov	rax, QWORD PTR this$[rsp]
	add	rax, 168				; 000000a8H
	mov	QWORD PTR tv157[rsp], rax
	mov	r8d, 24
	mov	rdx, QWORD PTR ?rsp@x86@asmjit@@3AEBUX86GpReg@2@EB
	lea	rcx, QWORD PTR $T3[rsp]
	call	?qword_ptr@x86@asmjit@@YA?AUX86Mem@2@AEBUX86GpReg@2@H@Z ; asmjit::x86::qword_ptr
	mov	QWORD PTR tv155[rsp], rax
	mov	rax, QWORD PTR ?r8@x86@asmjit@@3AEBUX86GpReg@2@EB
	mov	QWORD PTR tv153[rsp], rax
	mov	r8, QWORD PTR tv155[rsp]
	mov	rdx, QWORD PTR tv153[rsp]
	mov	rcx, QWORD PTR tv157[rsp]
	call	?mov@X86Assembler@asmjit@@QEAAIAEBUX86GpReg@2@AEBUX86Mem@2@@Z ; asmjit::X86Assembler::mov
	npad	1

; 59   : 			_assembler.mov(asmjit::host::r9, asmjit::host::qword_ptr(asmjit::host::rsp, 4 * sizeof(uint64_t)));

	mov	rax, QWORD PTR this$[rsp]
	add	rax, 168				; 000000a8H
	mov	QWORD PTR tv175[rsp], rax
	mov	r8d, 32					; 00000020H
	mov	rdx, QWORD PTR ?rsp@x86@asmjit@@3AEBUX86GpReg@2@EB
	lea	rcx, QWORD PTR $T4[rsp]
	call	?qword_ptr@x86@asmjit@@YA?AUX86Mem@2@AEBUX86GpReg@2@H@Z ; asmjit::x86::qword_ptr
	mov	QWORD PTR tv173[rsp], rax
	mov	rax, QWORD PTR ?r9@x86@asmjit@@3AEBUX86GpReg@2@EB
	mov	QWORD PTR tv171[rsp], rax
	mov	r8, QWORD PTR tv173[rsp]
	mov	rdx, QWORD PTR tv171[rsp]
	mov	rcx, QWORD PTR tv175[rsp]
	call	?mov@X86Assembler@asmjit@@QEAAIAEBUX86GpReg@2@AEBUX86Mem@2@@Z ; asmjit::X86Assembler::mov
	npad	1

; 60   : 			_assembler.mov(asmjit::host::r15, asmjit::host::qword_ptr(asmjit::host::rsp, 5 * sizeof(uint64_t)));

	mov	rax, QWORD PTR this$[rsp]
	add	rax, 168				; 000000a8H
	mov	QWORD PTR tv193[rsp], rax
	mov	r8d, 40					; 00000028H
	mov	rdx, QWORD PTR ?rsp@x86@asmjit@@3AEBUX86GpReg@2@EB
	lea	rcx, QWORD PTR $T5[rsp]
	call	?qword_ptr@x86@asmjit@@YA?AUX86Mem@2@AEBUX86GpReg@2@H@Z ; asmjit::x86::qword_ptr
	mov	QWORD PTR tv191[rsp], rax
	mov	rax, QWORD PTR ?r15@x86@asmjit@@3AEBUX86GpReg@2@EB
	mov	QWORD PTR tv189[rsp], rax
	mov	r8, QWORD PTR tv191[rsp]
	mov	rdx, QWORD PTR tv189[rsp]
	mov	rcx, QWORD PTR tv193[rsp]
	call	?mov@X86Assembler@asmjit@@QEAAIAEBUX86GpReg@2@AEBUX86Mem@2@@Z ; asmjit::X86Assembler::mov
	npad	1
$LN3@GenEpilogu:

; 61   : 		}
; 62   : 
; 63   : 		_assembler.ret();

	mov	rax, QWORD PTR this$[rsp]
	add	rax, 168				; 000000a8H
	mov	rcx, rax
	call	?ret@X86Assembler@asmjit@@QEAAIXZ	; asmjit::X86Assembler::ret
	npad	1

; 64   : 	}

	add	rsp, 248				; 000000f8H
	ret	0
?GenEpilogue@AsmHelper64@IronMan@@UEAAX_NH@Z ENDP	; IronMan::AsmHelper64::GenEpilogue
_TEXT	ENDS
; Function compile flags: /Odtp
; File D:\c++\paoda\Helper\Asm\AsmHelper64.cpp
_TEXT	SEGMENT
tv87 = 32
tv135 = 40
tv133 = 48
tv137 = 56
tv153 = 64
tv151 = 72
tv155 = 80
tv171 = 88
tv169 = 96
tv173 = 104
tv189 = 112
tv187 = 120
tv191 = 128
tv207 = 136
tv205 = 144
tv209 = 152
$T1 = 160
$T2 = 176
$T3 = 192
$T4 = 208
$T5 = 224
this$ = 256
switchMode$ = 264
?GenPrologue@AsmHelper64@IronMan@@UEAAX_N@Z PROC	; IronMan::AsmHelper64::GenPrologue

; 23   : 	{

$LN5:
	mov	BYTE PTR [rsp+16], dl
	mov	QWORD PTR [rsp+8], rcx
	sub	rsp, 248				; 000000f8H

; 24   : 		// If switch is required, function was called from x86 mode,
; 25   : 		// so arguments can't be saved in x64 way, because there is no shadow space on the stack
; 26   : 		if (switchMode)

	movzx	eax, BYTE PTR switchMode$[rsp]
	test	eax, eax
	je	SHORT $LN2@GenPrologu

; 27   : 		{
; 28   : 			SwitchTo64();

	mov	rcx, QWORD PTR this$[rsp]
	call	?SwitchTo64@IAsmHelper@IronMan@@QEAAXXZ	; IronMan::IAsmHelper::SwitchTo64

; 29   : 
; 30   : 			// Align stack
; 31   : 			_assembler.and_(_assembler.zsp, 0xFFFFFFFFFFFFFFF0);

	mov	rax, QWORD PTR this$[rsp]
	add	rax, 168				; 000000a8H
	mov	QWORD PTR tv87[rsp], rax
	mov	rax, QWORD PTR this$[rsp]
	add	rax, 376				; 00000178H
	mov	r8, -16
	mov	rdx, rax
	mov	rcx, QWORD PTR tv87[rsp]
	call	?and_@X86Assembler@asmjit@@QEAAIAEBUX86GpReg@2@_K@Z ; asmjit::X86Assembler::and_
	npad	1

; 32   : 		}

	jmp	$LN3@GenPrologu
$LN2@GenPrologu:

; 33   : 		else
; 34   : 		{
; 35   : 			_assembler.mov(asmjit::host::qword_ptr(asmjit::host::rsp, 1 * sizeof(uint64_t)), asmjit::host::rcx);

	mov	rax, QWORD PTR this$[rsp]
	add	rax, 168				; 000000a8H
	mov	QWORD PTR tv137[rsp], rax
	mov	rax, QWORD PTR ?rcx@x86@asmjit@@3AEBUX86GpReg@2@EB
	mov	QWORD PTR tv135[rsp], rax
	mov	r8d, 8
	mov	rdx, QWORD PTR ?rsp@x86@asmjit@@3AEBUX86GpReg@2@EB
	lea	rcx, QWORD PTR $T1[rsp]
	call	?qword_ptr@x86@asmjit@@YA?AUX86Mem@2@AEBUX86GpReg@2@H@Z ; asmjit::x86::qword_ptr
	mov	QWORD PTR tv133[rsp], rax
	mov	r8, QWORD PTR tv135[rsp]
	mov	rdx, QWORD PTR tv133[rsp]
	mov	rcx, QWORD PTR tv137[rsp]
	call	?mov@X86Assembler@asmjit@@QEAAIAEBUX86Mem@2@AEBUX86GpReg@2@@Z ; asmjit::X86Assembler::mov
	npad	1

; 36   : 			_assembler.mov(asmjit::host::qword_ptr(asmjit::host::rsp, 2 * sizeof(uint64_t)), asmjit::host::rdx);

	mov	rax, QWORD PTR this$[rsp]
	add	rax, 168				; 000000a8H
	mov	QWORD PTR tv155[rsp], rax
	mov	rax, QWORD PTR ?rdx@x86@asmjit@@3AEBUX86GpReg@2@EB
	mov	QWORD PTR tv153[rsp], rax
	mov	r8d, 16
	mov	rdx, QWORD PTR ?rsp@x86@asmjit@@3AEBUX86GpReg@2@EB
	lea	rcx, QWORD PTR $T2[rsp]
	call	?qword_ptr@x86@asmjit@@YA?AUX86Mem@2@AEBUX86GpReg@2@H@Z ; asmjit::x86::qword_ptr
	mov	QWORD PTR tv151[rsp], rax
	mov	r8, QWORD PTR tv153[rsp]
	mov	rdx, QWORD PTR tv151[rsp]
	mov	rcx, QWORD PTR tv155[rsp]
	call	?mov@X86Assembler@asmjit@@QEAAIAEBUX86Mem@2@AEBUX86GpReg@2@@Z ; asmjit::X86Assembler::mov
	npad	1

; 37   : 			_assembler.mov(asmjit::host::qword_ptr(asmjit::host::rsp, 3 * sizeof(uint64_t)), asmjit::host::r8);

	mov	rax, QWORD PTR this$[rsp]
	add	rax, 168				; 000000a8H
	mov	QWORD PTR tv173[rsp], rax
	mov	rax, QWORD PTR ?r8@x86@asmjit@@3AEBUX86GpReg@2@EB
	mov	QWORD PTR tv171[rsp], rax
	mov	r8d, 24
	mov	rdx, QWORD PTR ?rsp@x86@asmjit@@3AEBUX86GpReg@2@EB
	lea	rcx, QWORD PTR $T3[rsp]
	call	?qword_ptr@x86@asmjit@@YA?AUX86Mem@2@AEBUX86GpReg@2@H@Z ; asmjit::x86::qword_ptr
	mov	QWORD PTR tv169[rsp], rax
	mov	r8, QWORD PTR tv171[rsp]
	mov	rdx, QWORD PTR tv169[rsp]
	mov	rcx, QWORD PTR tv173[rsp]
	call	?mov@X86Assembler@asmjit@@QEAAIAEBUX86Mem@2@AEBUX86GpReg@2@@Z ; asmjit::X86Assembler::mov
	npad	1

; 38   : 			_assembler.mov(asmjit::host::qword_ptr(asmjit::host::rsp, 4 * sizeof(uint64_t)), asmjit::host::r9);

	mov	rax, QWORD PTR this$[rsp]
	add	rax, 168				; 000000a8H
	mov	QWORD PTR tv191[rsp], rax
	mov	rax, QWORD PTR ?r9@x86@asmjit@@3AEBUX86GpReg@2@EB
	mov	QWORD PTR tv189[rsp], rax
	mov	r8d, 32					; 00000020H
	mov	rdx, QWORD PTR ?rsp@x86@asmjit@@3AEBUX86GpReg@2@EB
	lea	rcx, QWORD PTR $T4[rsp]
	call	?qword_ptr@x86@asmjit@@YA?AUX86Mem@2@AEBUX86GpReg@2@H@Z ; asmjit::x86::qword_ptr
	mov	QWORD PTR tv187[rsp], rax
	mov	r8, QWORD PTR tv189[rsp]
	mov	rdx, QWORD PTR tv187[rsp]
	mov	rcx, QWORD PTR tv191[rsp]
	call	?mov@X86Assembler@asmjit@@QEAAIAEBUX86Mem@2@AEBUX86GpReg@2@@Z ; asmjit::X86Assembler::mov
	npad	1

; 39   : 			_assembler.mov(asmjit::host::qword_ptr(asmjit::host::rsp, 5 * sizeof(uint64_t)), asmjit::host::r15);

	mov	rax, QWORD PTR this$[rsp]
	add	rax, 168				; 000000a8H
	mov	QWORD PTR tv209[rsp], rax
	mov	rax, QWORD PTR ?r15@x86@asmjit@@3AEBUX86GpReg@2@EB
	mov	QWORD PTR tv207[rsp], rax
	mov	r8d, 40					; 00000028H
	mov	rdx, QWORD PTR ?rsp@x86@asmjit@@3AEBUX86GpReg@2@EB
	lea	rcx, QWORD PTR $T5[rsp]
	call	?qword_ptr@x86@asmjit@@YA?AUX86Mem@2@AEBUX86GpReg@2@H@Z ; asmjit::x86::qword_ptr
	mov	QWORD PTR tv205[rsp], rax
	mov	r8, QWORD PTR tv207[rsp]
	mov	rdx, QWORD PTR tv205[rsp]
	mov	rcx, QWORD PTR tv209[rsp]
	call	?mov@X86Assembler@asmjit@@QEAAIAEBUX86Mem@2@AEBUX86GpReg@2@@Z ; asmjit::X86Assembler::mov
	npad	1
$LN3@GenPrologu:

; 40   : 		}
; 41   : 	}

	add	rsp, 248				; 000000f8H
	ret	0
?GenPrologue@AsmHelper64@IronMan@@UEAAX_N@Z ENDP	; IronMan::AsmHelper64::GenPrologue
_TEXT	ENDS
; Function compile flags: /Odtp
; File D:\c++\paoda\Helper\Asm\AsmHelper64.cpp
_TEXT	SEGMENT
this$ = 48
??1AsmHelper64@IronMan@@UEAA@XZ PROC			; IronMan::AsmHelper64::~AsmHelper64

; 15   : 	{

$LN4:
	mov	QWORD PTR [rsp+8], rcx
	sub	rsp, 40					; 00000028H
	mov	rax, QWORD PTR this$[rsp]
	lea	rcx, OFFSET FLAT:??_7AsmHelper64@IronMan@@6B@
	mov	QWORD PTR [rax], rcx

; 16   : 	}

	mov	rcx, QWORD PTR this$[rsp]
	call	??1IAsmHelper@IronMan@@UEAA@XZ		; IronMan::IAsmHelper::~IAsmHelper
	npad	1
	add	rsp, 40					; 00000028H
	ret	0
??1AsmHelper64@IronMan@@UEAA@XZ ENDP			; IronMan::AsmHelper64::~AsmHelper64
_TEXT	ENDS
; Function compile flags: /Odtp
text$x	SEGMENT
this$ = 48
?dtor$0@?0???1AsmHelper64@IronMan@@UEAA@XZ@4HA PROC	; `IronMan::AsmHelper64::~AsmHelper64'::`1'::dtor$0
	push	rbp
	sub	rsp, 32					; 00000020H
	mov	rbp, rdx
	mov	rcx, QWORD PTR this$[rbp]
	call	??1IAsmHelper@IronMan@@UEAA@XZ		; IronMan::IAsmHelper::~IAsmHelper
	add	rsp, 32					; 00000020H
	pop	rbp
	ret	0
?dtor$0@?0???1AsmHelper64@IronMan@@UEAA@XZ@4HA ENDP	; `IronMan::AsmHelper64::~AsmHelper64'::`1'::dtor$0
text$x	ENDS
; Function compile flags: /Odtp
; File D:\c++\paoda\Helper\Asm\AsmHelper64.cpp
_TEXT	SEGMENT
this$ = 48
??0AsmHelper64@IronMan@@QEAA@XZ PROC			; IronMan::AsmHelper64::AsmHelper64

; 11   : 	{

$LN4:
	mov	QWORD PTR [rsp+8], rcx
	sub	rsp, 40					; 00000028H

; 9    : 		: IAsmHelper(asmjit::kArchX64)

	mov	edx, 2
	mov	rcx, QWORD PTR this$[rsp]
	call	??0IAsmHelper@IronMan@@QEAA@I@Z		; IronMan::IAsmHelper::IAsmHelper
	npad	1

; 11   : 	{

	mov	rax, QWORD PTR this$[rsp]
	lea	rcx, OFFSET FLAT:??_7AsmHelper64@IronMan@@6B@
	mov	QWORD PTR [rax], rcx

; 10   : 		, _stackEnabled(true)

	mov	rax, QWORD PTR this$[rsp]
	mov	BYTE PTR [rax+440], 1

; 12   : 	}

	mov	rax, QWORD PTR this$[rsp]
	add	rsp, 40					; 00000028H
	ret	0
??0AsmHelper64@IronMan@@QEAA@XZ ENDP			; IronMan::AsmHelper64::AsmHelper64
_TEXT	ENDS
; Function compile flags: /Odtp
text$x	SEGMENT
this$ = 48
?dtor$0@?0???0AsmHelper64@IronMan@@QEAA@XZ@4HA PROC	; `IronMan::AsmHelper64::AsmHelper64'::`1'::dtor$0
	push	rbp
	sub	rsp, 32					; 00000020H
	mov	rbp, rdx
	mov	rcx, QWORD PTR this$[rbp]
	call	??1IAsmHelper@IronMan@@UEAA@XZ		; IronMan::IAsmHelper::~IAsmHelper
	add	rsp, 32					; 00000020H
	pop	rbp
	ret	0
?dtor$0@?0???0AsmHelper64@IronMan@@QEAA@XZ@4HA ENDP	; `IronMan::AsmHelper64::AsmHelper64'::`1'::dtor$0
text$x	ENDS
; Function compile flags: /Odtp
;	COMDAT ??_GIAsmHelper@IronMan@@UEAAPEAXI@Z
_TEXT	SEGMENT
this$ = 48
__flags$ = 56
??_GIAsmHelper@IronMan@@UEAAPEAXI@Z PROC		; IronMan::IAsmHelper::`scalar deleting destructor', COMDAT
$LN4:
	mov	DWORD PTR [rsp+16], edx
	mov	QWORD PTR [rsp+8], rcx
	sub	rsp, 40					; 00000028H
	mov	rcx, QWORD PTR this$[rsp]
	call	??1IAsmHelper@IronMan@@UEAA@XZ		; IronMan::IAsmHelper::~IAsmHelper
	mov	eax, DWORD PTR __flags$[rsp]
	and	eax, 1
	test	eax, eax
	je	SHORT $LN2@scalar
	mov	edx, 440				; 000001b8H
	mov	rcx, QWORD PTR this$[rsp]
	call	??3@YAXPEAX_K@Z				; operator delete
	npad	1
$LN2@scalar:
	mov	rax, QWORD PTR this$[rsp]
	add	rsp, 40					; 00000028H
	ret	0
??_GIAsmHelper@IronMan@@UEAAPEAXI@Z ENDP		; IronMan::IAsmHelper::`scalar deleting destructor'
_TEXT	ENDS
; Function compile flags: /Odtp
; File D:\c++\paoda\Helper\Asm\IAsmHelper.hpp
;	COMDAT ?SwitchTo64@IAsmHelper@IronMan@@QEAAXXZ
_TEXT	SEGMENT
tv73 = 32
tv78 = 40
tv83 = 48
tv95 = 56
tv129 = 64
tv133 = 72
tv138 = 80
l$ = 88
this$ = 128
?SwitchTo64@IAsmHelper@IronMan@@QEAAXXZ PROC		; IronMan::IAsmHelper::SwitchTo64, COMDAT

; 79   : 		{

$LN3:
	mov	QWORD PTR [rsp+8], rcx
	sub	rsp, 120				; 00000078H

; 80   : 			asmjit::Label l = _assembler.newLabel();

	mov	rax, QWORD PTR this$[rsp]
	add	rax, 168				; 000000a8H
	mov	QWORD PTR tv73[rsp], rax
	lea	rdx, QWORD PTR l$[rsp]
	mov	rcx, QWORD PTR tv73[rsp]
	call	?newLabel@Assembler@asmjit@@QEAA?AULabel@2@XZ ; asmjit::Assembler::newLabel

; 81   : 
; 82   : 			_assembler.push(0x33);

	mov	rax, QWORD PTR this$[rsp]
	add	rax, 168				; 000000a8H
	mov	QWORD PTR tv78[rsp], rax
	mov	edx, 51					; 00000033H
	mov	rcx, QWORD PTR tv78[rsp]
	call	?push@X86Assembler@asmjit@@QEAAIH@Z	; asmjit::X86Assembler::push

; 83   : 			_assembler.call(l);  _assembler.bind(l);

	mov	rax, QWORD PTR this$[rsp]
	add	rax, 168				; 000000a8H
	mov	QWORD PTR tv83[rsp], rax
	lea	rdx, QWORD PTR l$[rsp]
	mov	rcx, QWORD PTR tv83[rsp]
	call	?call@X86Assembler@asmjit@@QEAAIAEBULabel@2@@Z ; asmjit::X86Assembler::call
	mov	rax, QWORD PTR this$[rsp]
	add	rax, 168				; 000000a8H
	mov	QWORD PTR tv95[rsp], rax
	mov	rax, QWORD PTR this$[rsp]
	mov	rax, QWORD PTR [rax+168]
	mov	rax, QWORD PTR [rax+16]
	mov	QWORD PTR tv129[rsp], rax
	lea	rdx, QWORD PTR l$[rsp]
	mov	rcx, QWORD PTR tv95[rsp]
	call	QWORD PTR tv129[rsp]

; 84   : 			//_assembler.add( asmjit::host::dword_ptr( asmjit::host::esp ), 5 );
; 85   : 			_assembler.dd('\x83\x04\x24\x05');

	mov	rax, QWORD PTR this$[rsp]
	add	rax, 168				; 000000a8H
	mov	QWORD PTR tv133[rsp], rax
	mov	edx, 86246531				; 05240483H
	mov	rcx, QWORD PTR tv133[rsp]
	call	?dd@X86Assembler@asmjit@@QEAAXI@Z	; asmjit::X86Assembler::dd

; 86   : 			_assembler.db(0xCB);    // retf

	mov	rax, QWORD PTR this$[rsp]
	add	rax, 168				; 000000a8H
	mov	QWORD PTR tv138[rsp], rax
	mov	dl, 203					; 000000cbH
	mov	rcx, QWORD PTR tv138[rsp]
	call	?db@X86Assembler@asmjit@@QEAAXE@Z	; asmjit::X86Assembler::db
	npad	1

; 87   : 		}

	add	rsp, 120				; 00000078H
	ret	0
?SwitchTo64@IAsmHelper@IronMan@@QEAAXXZ ENDP		; IronMan::IAsmHelper::SwitchTo64
_TEXT	ENDS
; Function compile flags: /Odtp
; File D:\c++\paoda\Helper\Asm\IAsmHelper.hpp
;	COMDAT ?SwitchTo86@IAsmHelper@IronMan@@QEAAXXZ
_TEXT	SEGMENT
tv73 = 32
tv78 = 40
tv90 = 48
tv92 = 56
tv134 = 64
tv144 = 72
tv148 = 80
l$ = 88
$T1 = 104
$T2 = 120
this$ = 160
?SwitchTo86@IAsmHelper@IronMan@@QEAAXXZ PROC		; IronMan::IAsmHelper::SwitchTo86, COMDAT

; 66   : 		{

$LN3:
	mov	QWORD PTR [rsp+8], rcx
	sub	rsp, 152				; 00000098H

; 67   : 			asmjit::Label l = _assembler.newLabel();

	mov	rax, QWORD PTR this$[rsp]
	add	rax, 168				; 000000a8H
	mov	QWORD PTR tv73[rsp], rax
	lea	rdx, QWORD PTR l$[rsp]
	mov	rcx, QWORD PTR tv73[rsp]
	call	?newLabel@Assembler@asmjit@@QEAA?AULabel@2@XZ ; asmjit::Assembler::newLabel

; 68   : 
; 69   : 			_assembler.call(l); _assembler.bind(l);

	mov	rax, QWORD PTR this$[rsp]
	add	rax, 168				; 000000a8H
	mov	QWORD PTR tv78[rsp], rax
	lea	rdx, QWORD PTR l$[rsp]
	mov	rcx, QWORD PTR tv78[rsp]
	call	?call@X86Assembler@asmjit@@QEAAIAEBULabel@2@@Z ; asmjit::X86Assembler::call
	mov	rax, QWORD PTR this$[rsp]
	add	rax, 168				; 000000a8H
	mov	QWORD PTR tv90[rsp], rax
	mov	rax, QWORD PTR this$[rsp]
	mov	rax, QWORD PTR [rax+168]
	mov	rax, QWORD PTR [rax+16]
	mov	QWORD PTR tv92[rsp], rax
	lea	rdx, QWORD PTR l$[rsp]
	mov	rcx, QWORD PTR tv90[rsp]
	call	QWORD PTR tv92[rsp]
	npad	1

; 70   : 			_assembler.mov(asmjit::host::dword_ptr(asmjit::host::esp, 4), 0x23);

	mov	rax, QWORD PTR this$[rsp]
	add	rax, 168				; 000000a8H
	mov	QWORD PTR tv134[rsp], rax
	mov	r8d, 4
	mov	rdx, QWORD PTR ?esp@x86@asmjit@@3AEBUX86GpReg@2@EB
	lea	rcx, QWORD PTR $T1[rsp]
	call	?dword_ptr@x86@asmjit@@YA?AUX86Mem@2@AEBUX86GpReg@2@H@Z ; asmjit::x86::dword_ptr
	mov	r8d, 35					; 00000023H
	mov	rdx, rax
	mov	rcx, QWORD PTR tv134[rsp]
	call	?mov@X86Assembler@asmjit@@QEAAIAEBUX86Mem@2@H@Z ; asmjit::X86Assembler::mov
	npad	1

; 71   : 			_assembler.add(asmjit::host::dword_ptr(asmjit::host::esp), 0xD);

	mov	rax, QWORD PTR this$[rsp]
	add	rax, 168				; 000000a8H
	mov	QWORD PTR tv144[rsp], rax
	xor	r8d, r8d
	mov	rdx, QWORD PTR ?esp@x86@asmjit@@3AEBUX86GpReg@2@EB
	lea	rcx, QWORD PTR $T2[rsp]
	call	?dword_ptr@x86@asmjit@@YA?AUX86Mem@2@AEBUX86GpReg@2@H@Z ; asmjit::x86::dword_ptr
	mov	r8d, 13
	mov	rdx, rax
	mov	rcx, QWORD PTR tv144[rsp]
	call	?add@X86Assembler@asmjit@@QEAAIAEBUX86Mem@2@H@Z ; asmjit::X86Assembler::add
	npad	1

; 72   : 			_assembler.db(0xCB);    // retf

	mov	rax, QWORD PTR this$[rsp]
	add	rax, 168				; 000000a8H
	mov	QWORD PTR tv148[rsp], rax
	mov	dl, 203					; 000000cbH
	mov	rcx, QWORD PTR tv148[rsp]
	call	?db@X86Assembler@asmjit@@QEAAXE@Z	; asmjit::X86Assembler::db
	npad	1

; 73   : 		}

	add	rsp, 152				; 00000098H
	ret	0
?SwitchTo86@IAsmHelper@IronMan@@QEAAXXZ ENDP		; IronMan::IAsmHelper::SwitchTo86
_TEXT	ENDS
; Function compile flags: /Odtp
; File D:\c++\paoda\Helper\Asm\IAsmHelper.hpp
;	COMDAT ??1IAsmHelper@IronMan@@UEAA@XZ
_TEXT	SEGMENT
this$ = 48
??1IAsmHelper@IronMan@@UEAA@XZ PROC			; IronMan::IAsmHelper::~IAsmHelper, COMDAT

; 53   : 		virtual ~IAsmHelper() { }

$LN5:
	mov	QWORD PTR [rsp+8], rcx
	sub	rsp, 40					; 00000028H
	mov	rax, QWORD PTR this$[rsp]
	lea	rcx, OFFSET FLAT:??_7IAsmHelper@IronMan@@6B@
	mov	QWORD PTR [rax], rcx
	mov	rax, QWORD PTR this$[rsp]
	add	rax, 168				; 000000a8H
	mov	rcx, rax
	call	??1X86Assembler@asmjit@@UEAA@XZ		; asmjit::X86Assembler::~X86Assembler
	npad	1
	mov	rax, QWORD PTR this$[rsp]
	add	rax, 8
	mov	rcx, rax
	call	??1JitRuntime@asmjit@@UEAA@XZ		; asmjit::JitRuntime::~JitRuntime
	npad	1
	add	rsp, 40					; 00000028H
	ret	0
??1IAsmHelper@IronMan@@UEAA@XZ ENDP			; IronMan::IAsmHelper::~IAsmHelper
_TEXT	ENDS
; Function compile flags: /Odtp
;	COMDAT text$x
text$x	SEGMENT
this$ = 48
?dtor$0@?0???1IAsmHelper@IronMan@@UEAA@XZ@4HA PROC	; `IronMan::IAsmHelper::~IAsmHelper'::`1'::dtor$0
	push	rbp
	sub	rsp, 32					; 00000020H
	mov	rbp, rdx
	mov	rcx, QWORD PTR this$[rbp]
	add	rcx, 8
	call	??1JitRuntime@asmjit@@UEAA@XZ		; asmjit::JitRuntime::~JitRuntime
	add	rsp, 32					; 00000020H
	pop	rbp
	ret	0
?dtor$0@?0???1IAsmHelper@IronMan@@UEAA@XZ@4HA ENDP	; `IronMan::IAsmHelper::~IAsmHelper'::`1'::dtor$0
text$x	ENDS
; Function compile flags: /Odtp
;	COMDAT text$x
text$x	SEGMENT
this$ = 48
?dtor$1@?0???1IAsmHelper@IronMan@@UEAA@XZ@4HA PROC	; `IronMan::IAsmHelper::~IAsmHelper'::`1'::dtor$1
	push	rbp
	sub	rsp, 32					; 00000020H
	mov	rbp, rdx
	mov	rcx, QWORD PTR this$[rbp]
	add	rcx, 168				; 000000a8H
	call	??1X86Assembler@asmjit@@UEAA@XZ		; asmjit::X86Assembler::~X86Assembler
	add	rsp, 32					; 00000020H
	pop	rbp
	ret	0
?dtor$1@?0???1IAsmHelper@IronMan@@UEAA@XZ@4HA ENDP	; `IronMan::IAsmHelper::~IAsmHelper'::`1'::dtor$1
text$x	ENDS
; Function compile flags: /Odtp
; File D:\c++\paoda\Helper\Asm\IAsmHelper.hpp
;	COMDAT ??0IAsmHelper@IronMan@@QEAA@I@Z
_TEXT	SEGMENT
tv81 = 32
this$ = 64
arch$ = 72
??0IAsmHelper@IronMan@@QEAA@I@Z PROC			; IronMan::IAsmHelper::IAsmHelper, COMDAT

; 50   : 		IAsmHelper(uint32_t arch = asmjit::kArchHost)

$LN5:
	mov	DWORD PTR [rsp+16], edx
	mov	QWORD PTR [rsp+8], rcx
	sub	rsp, 56					; 00000038H

; 51   : 			: _assembler(&_runtime, arch) { }

	mov	rax, QWORD PTR this$[rsp]
	lea	rcx, OFFSET FLAT:??_7IAsmHelper@IronMan@@6B@
	mov	QWORD PTR [rax], rcx
	mov	rax, QWORD PTR this$[rsp]
	add	rax, 8
	mov	rcx, rax
	call	??0JitRuntime@asmjit@@QEAA@XZ		; asmjit::JitRuntime::JitRuntime
	npad	1
	mov	rax, QWORD PTR this$[rsp]
	add	rax, 168				; 000000a8H
	mov	QWORD PTR tv81[rsp], rax
	mov	rax, QWORD PTR this$[rsp]
	add	rax, 8
	mov	r8d, DWORD PTR arch$[rsp]
	mov	rdx, rax
	mov	rcx, QWORD PTR tv81[rsp]
	call	??0X86Assembler@asmjit@@QEAA@PEAURuntime@1@I@Z ; asmjit::X86Assembler::X86Assembler
	npad	1
	mov	rax, QWORD PTR this$[rsp]
	add	rsp, 56					; 00000038H
	ret	0
??0IAsmHelper@IronMan@@QEAA@I@Z ENDP			; IronMan::IAsmHelper::IAsmHelper
_TEXT	ENDS
; Function compile flags: /Odtp
;	COMDAT text$x
text$x	SEGMENT
tv81 = 32
this$ = 64
arch$ = 72
?dtor$0@?0???0IAsmHelper@IronMan@@QEAA@I@Z@4HA PROC	; `IronMan::IAsmHelper::IAsmHelper'::`1'::dtor$0
	push	rbp
	sub	rsp, 32					; 00000020H
	mov	rbp, rdx
	mov	rcx, QWORD PTR this$[rbp]
	add	rcx, 8
	call	??1JitRuntime@asmjit@@UEAA@XZ		; asmjit::JitRuntime::~JitRuntime
	add	rsp, 32					; 00000020H
	pop	rbp
	ret	0
?dtor$0@?0???0IAsmHelper@IronMan@@QEAA@I@Z@4HA ENDP	; `IronMan::IAsmHelper::IAsmHelper'::`1'::dtor$0
text$x	ENDS
; Function compile flags: /Odtp
;	COMDAT text$x
text$x	SEGMENT
tv81 = 32
this$ = 64
arch$ = 72
?dtor$1@?0???0IAsmHelper@IronMan@@QEAA@I@Z@4HA PROC	; `IronMan::IAsmHelper::IAsmHelper'::`1'::dtor$1
	push	rbp
	sub	rsp, 32					; 00000020H
	mov	rbp, rdx
	mov	rcx, QWORD PTR this$[rbp]
	add	rcx, 168				; 000000a8H
	call	??1X86Assembler@asmjit@@UEAA@XZ		; asmjit::X86Assembler::~X86Assembler
	add	rsp, 32					; 00000020H
	pop	rbp
	ret	0
?dtor$1@?0???0IAsmHelper@IronMan@@QEAA@I@Z@4HA ENDP	; `IronMan::IAsmHelper::IAsmHelper'::`1'::dtor$1
text$x	ENDS
; Function compile flags: /Odtp
; File D:\c++\paoda\Helper\Asm\AsmVariant.hpp
;	COMDAT ?getImm_double@AsmVariant@IronMan@@QEBA_KXZ
_TEXT	SEGMENT
this$ = 8
?getImm_double@AsmVariant@IronMan@@QEBA_KXZ PROC	; IronMan::AsmVariant::getImm_double, COMDAT

; 150  : 		inline uint64_t getImm_double() const { return *(reinterpret_cast<const uint64_t*>(&imm_double_val)); }

	mov	QWORD PTR [rsp+8], rcx
	mov	rax, QWORD PTR this$[rsp]
	mov	rax, QWORD PTR [rax+48]
	ret	0
?getImm_double@AsmVariant@IronMan@@QEBA_KXZ ENDP	; IronMan::AsmVariant::getImm_double
_TEXT	ENDS
; Function compile flags: /Odtp
; File D:\c++\paoda\Helper\Asm\AsmVariant.hpp
;	COMDAT ?getImm_float@AsmVariant@IronMan@@QEBAIXZ
_TEXT	SEGMENT
this$ = 8
?getImm_float@AsmVariant@IronMan@@QEBAIXZ PROC		; IronMan::AsmVariant::getImm_float, COMDAT

; 149  : 		inline uint32_t getImm_float()  const { return *(reinterpret_cast<const uint32_t*>(&imm_float_val)); }

	mov	QWORD PTR [rsp+8], rcx
	mov	rax, QWORD PTR this$[rsp]
	mov	eax, DWORD PTR [rax+48]
	ret	0
?getImm_float@AsmVariant@IronMan@@QEBAIXZ ENDP		; IronMan::AsmVariant::getImm_float
_TEXT	ENDS
; Function compile flags: /Odtp
; File D:\c++\paoda\ThirdParty\AsmJit\x86\x86assembler.h
;	COMDAT ?movq@X86Assembler@asmjit@@QEAAIAEBUX86XmmReg@2@AEBUX86GpReg@2@@Z
_TEXT	SEGMENT
this$ = 48
o0$ = 56
o1$ = 64
?movq@X86Assembler@asmjit@@QEAAIAEBUX86XmmReg@2@AEBUX86GpReg@2@@Z PROC ; asmjit::X86Assembler::movq, COMDAT

; 2221 :   INST_2x(movq, kX86InstIdMovq, X86XmmReg, X86GpReg)

$LN3:
	mov	QWORD PTR [rsp+24], r8
	mov	QWORD PTR [rsp+16], rdx
	mov	QWORD PTR [rsp+8], rcx
	sub	rsp, 40					; 00000028H
	mov	r9, QWORD PTR o1$[rsp]
	mov	r8, QWORD PTR o0$[rsp]
	mov	edx, 317				; 0000013dH
	mov	rcx, QWORD PTR this$[rsp]
	call	?emit@Assembler@asmjit@@QEAAIIAEBUOperand@2@0@Z ; asmjit::Assembler::emit
	add	rsp, 40					; 00000028H
	ret	0
?movq@X86Assembler@asmjit@@QEAAIAEBUX86XmmReg@2@AEBUX86GpReg@2@@Z ENDP ; asmjit::X86Assembler::movq
_TEXT	ENDS
; Function compile flags: /Odtp
; File D:\c++\paoda\ThirdParty\AsmJit\x86\x86assembler.h
;	COMDAT ?sub@X86Assembler@asmjit@@QEAAIAEBUX86GpReg@2@_K@Z
_TEXT	SEGMENT
this$ = 48
o0$ = 56
o1$ = 64
?sub@X86Assembler@asmjit@@QEAAIAEBUX86GpReg@2@_K@Z PROC	; asmjit::X86Assembler::sub, COMDAT

; 1388 :   INST_2i(sub, kX86InstIdSub, X86GpReg, Imm)

$LN3:
	mov	QWORD PTR [rsp+24], r8
	mov	QWORD PTR [rsp+16], rdx
	mov	QWORD PTR [rsp+8], rcx
	sub	rsp, 40					; 00000028H
	mov	r9, QWORD PTR o1$[rsp]
	mov	r8, QWORD PTR o0$[rsp]
	mov	edx, 609				; 00000261H
	mov	rcx, QWORD PTR this$[rsp]
	call	?emit@Assembler@asmjit@@QEAAIIAEBUOperand@2@_K@Z ; asmjit::Assembler::emit
	add	rsp, 40					; 00000028H
	ret	0
?sub@X86Assembler@asmjit@@QEAAIAEBUX86GpReg@2@_K@Z ENDP	; asmjit::X86Assembler::sub
_TEXT	ENDS
; Function compile flags: /Odtp
; File D:\c++\paoda\ThirdParty\AsmJit\x86\x86assembler.h
;	COMDAT ?ret@X86Assembler@asmjit@@QEAAIXZ
_TEXT	SEGMENT
this$ = 48
?ret@X86Assembler@asmjit@@QEAAIXZ PROC			; asmjit::X86Assembler::ret, COMDAT

; 1249 :   INST_0x(ret, kX86InstIdRet)

$LN3:
	mov	QWORD PTR [rsp+8], rcx
	sub	rsp, 40					; 00000028H
	mov	edx, 540				; 0000021cH
	mov	rcx, QWORD PTR this$[rsp]
	call	?emit@Assembler@asmjit@@QEAAII@Z	; asmjit::Assembler::emit
	add	rsp, 40					; 00000028H
	ret	0
?ret@X86Assembler@asmjit@@QEAAIXZ ENDP			; asmjit::X86Assembler::ret
_TEXT	ENDS
; Function compile flags: /Odtp
; File D:\c++\paoda\ThirdParty\AsmJit\x86\x86assembler.h
;	COMDAT ?push@X86Assembler@asmjit@@QEAAIH@Z
_TEXT	SEGMENT
this$ = 48
o0$ = 56
?push@X86Assembler@asmjit@@QEAAIH@Z PROC		; asmjit::X86Assembler::push, COMDAT

; 1150 :   INST_1i(push, kX86InstIdPush, Imm)

$LN3:
	mov	DWORD PTR [rsp+16], edx
	mov	QWORD PTR [rsp+8], rcx
	sub	rsp, 40					; 00000028H
	mov	r8d, DWORD PTR o0$[rsp]
	mov	edx, 499				; 000001f3H
	mov	rcx, QWORD PTR this$[rsp]
	call	?emit@Assembler@asmjit@@QEAAIIH@Z	; asmjit::Assembler::emit
	add	rsp, 40					; 00000028H
	ret	0
?push@X86Assembler@asmjit@@QEAAIH@Z ENDP		; asmjit::X86Assembler::push
_TEXT	ENDS
; Function compile flags: /Odtp
; File D:\c++\paoda\ThirdParty\AsmJit\x86\x86assembler.h
;	COMDAT ?mov@X86Assembler@asmjit@@QEAAIAEBUX86Mem@2@H@Z
_TEXT	SEGMENT
this$ = 48
o0$ = 56
o1$ = 64
?mov@X86Assembler@asmjit@@QEAAIAEBUX86Mem@2@H@Z PROC	; asmjit::X86Assembler::mov, COMDAT

; 1042 :   INST_2i(mov, kX86InstIdMov, X86Mem, Imm)

$LN3:
	mov	DWORD PTR [rsp+24], r8d
	mov	QWORD PTR [rsp+16], rdx
	mov	QWORD PTR [rsp+8], rcx
	sub	rsp, 40					; 00000028H
	mov	r9d, DWORD PTR o1$[rsp]
	mov	r8, QWORD PTR o0$[rsp]
	mov	edx, 291				; 00000123H
	mov	rcx, QWORD PTR this$[rsp]
	call	?emit@Assembler@asmjit@@QEAAIIAEBUOperand@2@H@Z ; asmjit::Assembler::emit
	add	rsp, 40					; 00000028H
	ret	0
?mov@X86Assembler@asmjit@@QEAAIAEBUX86Mem@2@H@Z ENDP	; asmjit::X86Assembler::mov
_TEXT	ENDS
; Function compile flags: /Odtp
; File D:\c++\paoda\ThirdParty\AsmJit\x86\x86assembler.h
;	COMDAT ?mov@X86Assembler@asmjit@@QEAAIAEBUX86Mem@2@AEBUX86GpReg@2@@Z
_TEXT	SEGMENT
this$ = 48
o0$ = 56
o1$ = 64
?mov@X86Assembler@asmjit@@QEAAIAEBUX86Mem@2@AEBUX86GpReg@2@@Z PROC ; asmjit::X86Assembler::mov, COMDAT

; 1040 :   INST_2x(mov, kX86InstIdMov, X86Mem, X86GpReg)

$LN3:
	mov	QWORD PTR [rsp+24], r8
	mov	QWORD PTR [rsp+16], rdx
	mov	QWORD PTR [rsp+8], rcx
	sub	rsp, 40					; 00000028H
	mov	r9, QWORD PTR o1$[rsp]
	mov	r8, QWORD PTR o0$[rsp]
	mov	edx, 291				; 00000123H
	mov	rcx, QWORD PTR this$[rsp]
	call	?emit@Assembler@asmjit@@QEAAIIAEBUOperand@2@0@Z ; asmjit::Assembler::emit
	add	rsp, 40					; 00000028H
	ret	0
?mov@X86Assembler@asmjit@@QEAAIAEBUX86Mem@2@AEBUX86GpReg@2@@Z ENDP ; asmjit::X86Assembler::mov
_TEXT	ENDS
; Function compile flags: /Odtp
; File D:\c++\paoda\ThirdParty\AsmJit\x86\x86assembler.h
;	COMDAT ?mov@X86Assembler@asmjit@@QEAAIAEBUX86GpReg@2@_K@Z
_TEXT	SEGMENT
this$ = 48
o0$ = 56
o1$ = 64
?mov@X86Assembler@asmjit@@QEAAIAEBUX86GpReg@2@_K@Z PROC	; asmjit::X86Assembler::mov, COMDAT

; 1038 :   INST_2i(mov, kX86InstIdMov, X86GpReg, Imm)

$LN3:
	mov	QWORD PTR [rsp+24], r8
	mov	QWORD PTR [rsp+16], rdx
	mov	QWORD PTR [rsp+8], rcx
	sub	rsp, 40					; 00000028H
	mov	r9, QWORD PTR o1$[rsp]
	mov	r8, QWORD PTR o0$[rsp]
	mov	edx, 291				; 00000123H
	mov	rcx, QWORD PTR this$[rsp]
	call	?emit@Assembler@asmjit@@QEAAIIAEBUOperand@2@_K@Z ; asmjit::Assembler::emit
	add	rsp, 40					; 00000028H
	ret	0
?mov@X86Assembler@asmjit@@QEAAIAEBUX86GpReg@2@_K@Z ENDP	; asmjit::X86Assembler::mov
_TEXT	ENDS
; Function compile flags: /Odtp
; File D:\c++\paoda\ThirdParty\AsmJit\x86\x86assembler.h
;	COMDAT ?mov@X86Assembler@asmjit@@QEAAIAEBUX86GpReg@2@I@Z
_TEXT	SEGMENT
this$ = 48
o0$ = 56
o1$ = 64
?mov@X86Assembler@asmjit@@QEAAIAEBUX86GpReg@2@I@Z PROC	; asmjit::X86Assembler::mov, COMDAT

; 1038 :   INST_2i(mov, kX86InstIdMov, X86GpReg, Imm)

$LN3:
	mov	DWORD PTR [rsp+24], r8d
	mov	QWORD PTR [rsp+16], rdx
	mov	QWORD PTR [rsp+8], rcx
	sub	rsp, 40					; 00000028H
	mov	eax, DWORD PTR o1$[rsp]
	mov	r9d, eax
	mov	r8, QWORD PTR o0$[rsp]
	mov	edx, 291				; 00000123H
	mov	rcx, QWORD PTR this$[rsp]
	call	?emit@Assembler@asmjit@@QEAAIIAEBUOperand@2@_K@Z ; asmjit::Assembler::emit
	add	rsp, 40					; 00000028H
	ret	0
?mov@X86Assembler@asmjit@@QEAAIAEBUX86GpReg@2@I@Z ENDP	; asmjit::X86Assembler::mov
_TEXT	ENDS
; Function compile flags: /Odtp
; File D:\c++\paoda\ThirdParty\AsmJit\x86\x86assembler.h
;	COMDAT ?mov@X86Assembler@asmjit@@QEAAIAEBUX86GpReg@2@H@Z
_TEXT	SEGMENT
this$ = 48
o0$ = 56
o1$ = 64
?mov@X86Assembler@asmjit@@QEAAIAEBUX86GpReg@2@H@Z PROC	; asmjit::X86Assembler::mov, COMDAT

; 1038 :   INST_2i(mov, kX86InstIdMov, X86GpReg, Imm)

$LN3:
	mov	DWORD PTR [rsp+24], r8d
	mov	QWORD PTR [rsp+16], rdx
	mov	QWORD PTR [rsp+8], rcx
	sub	rsp, 40					; 00000028H
	mov	r9d, DWORD PTR o1$[rsp]
	mov	r8, QWORD PTR o0$[rsp]
	mov	edx, 291				; 00000123H
	mov	rcx, QWORD PTR this$[rsp]
	call	?emit@Assembler@asmjit@@QEAAIIAEBUOperand@2@H@Z ; asmjit::Assembler::emit
	add	rsp, 40					; 00000028H
	ret	0
?mov@X86Assembler@asmjit@@QEAAIAEBUX86GpReg@2@H@Z ENDP	; asmjit::X86Assembler::mov
_TEXT	ENDS
; Function compile flags: /Odtp
; File D:\c++\paoda\ThirdParty\AsmJit\x86\x86assembler.h
;	COMDAT ?mov@X86Assembler@asmjit@@QEAAIAEBUX86GpReg@2@AEBUX86Mem@2@@Z
_TEXT	SEGMENT
this$ = 48
o0$ = 56
o1$ = 64
?mov@X86Assembler@asmjit@@QEAAIAEBUX86GpReg@2@AEBUX86Mem@2@@Z PROC ; asmjit::X86Assembler::mov, COMDAT

; 1036 :   INST_2x(mov, kX86InstIdMov, X86GpReg, X86Mem)

$LN3:
	mov	QWORD PTR [rsp+24], r8
	mov	QWORD PTR [rsp+16], rdx
	mov	QWORD PTR [rsp+8], rcx
	sub	rsp, 40					; 00000028H
	mov	r9, QWORD PTR o1$[rsp]
	mov	r8, QWORD PTR o0$[rsp]
	mov	edx, 291				; 00000123H
	mov	rcx, QWORD PTR this$[rsp]
	call	?emit@Assembler@asmjit@@QEAAIIAEBUOperand@2@0@Z ; asmjit::Assembler::emit
	add	rsp, 40					; 00000028H
	ret	0
?mov@X86Assembler@asmjit@@QEAAIAEBUX86GpReg@2@AEBUX86Mem@2@@Z ENDP ; asmjit::X86Assembler::mov
_TEXT	ENDS
; Function compile flags: /Odtp
; File D:\c++\paoda\ThirdParty\AsmJit\x86\x86assembler.h
;	COMDAT ?mov@X86Assembler@asmjit@@QEAAIAEBUX86GpReg@2@0@Z
_TEXT	SEGMENT
this$ = 48
o0$ = 56
o1$ = 64
?mov@X86Assembler@asmjit@@QEAAIAEBUX86GpReg@2@0@Z PROC	; asmjit::X86Assembler::mov, COMDAT

; 1034 :   INST_2x(mov, kX86InstIdMov, X86GpReg, X86GpReg)

$LN3:
	mov	QWORD PTR [rsp+24], r8
	mov	QWORD PTR [rsp+16], rdx
	mov	QWORD PTR [rsp+8], rcx
	sub	rsp, 40					; 00000028H
	mov	r9, QWORD PTR o1$[rsp]
	mov	r8, QWORD PTR o0$[rsp]
	mov	edx, 291				; 00000123H
	mov	rcx, QWORD PTR this$[rsp]
	call	?emit@Assembler@asmjit@@QEAAIIAEBUOperand@2@0@Z ; asmjit::Assembler::emit
	add	rsp, 40					; 00000028H
	ret	0
?mov@X86Assembler@asmjit@@QEAAIAEBUX86GpReg@2@0@Z ENDP	; asmjit::X86Assembler::mov
_TEXT	ENDS
; Function compile flags: /Odtp
; File D:\c++\paoda\ThirdParty\AsmJit\x86\x86assembler.h
;	COMDAT ?lea@X86Assembler@asmjit@@QEAAIAEBUX86GpReg@2@AEBUX86Mem@2@@Z
_TEXT	SEGMENT
this$ = 48
o0$ = 56
o1$ = 64
?lea@X86Assembler@asmjit@@QEAAIAEBUX86GpReg@2@AEBUX86Mem@2@@Z PROC ; asmjit::X86Assembler::lea, COMDAT

; 1019 :   INST_2x(lea, kX86InstIdLea, X86GpReg, X86Mem)

$LN3:
	mov	QWORD PTR [rsp+24], r8
	mov	QWORD PTR [rsp+16], rdx
	mov	QWORD PTR [rsp+8], rcx
	sub	rsp, 40					; 00000028H
	mov	r9, QWORD PTR o1$[rsp]
	mov	r8, QWORD PTR o0$[rsp]
	mov	edx, 271				; 0000010fH
	mov	rcx, QWORD PTR this$[rsp]
	call	?emit@Assembler@asmjit@@QEAAIIAEBUOperand@2@0@Z ; asmjit::Assembler::emit
	add	rsp, 40					; 00000028H
	ret	0
?lea@X86Assembler@asmjit@@QEAAIAEBUX86GpReg@2@AEBUX86Mem@2@@Z ENDP ; asmjit::X86Assembler::lea
_TEXT	ENDS
; Function compile flags: /Odtp
; File D:\c++\paoda\ThirdParty\AsmJit\x86\x86assembler.h
;	COMDAT ?call@X86Assembler@asmjit@@QEAAIAEBULabel@2@@Z
_TEXT	SEGMENT
this$ = 48
o0$ = 56
?call@X86Assembler@asmjit@@QEAAIAEBULabel@2@@Z PROC	; asmjit::X86Assembler::call, COMDAT

; 884  :   INST_1x(call, kX86InstIdCall, Label)

$LN3:
	mov	QWORD PTR [rsp+16], rdx
	mov	QWORD PTR [rsp+8], rcx
	sub	rsp, 40					; 00000028H
	mov	r8, QWORD PTR o0$[rsp]
	mov	edx, 37					; 00000025H
	mov	rcx, QWORD PTR this$[rsp]
	call	?emit@Assembler@asmjit@@QEAAIIAEBUOperand@2@@Z ; asmjit::Assembler::emit
	add	rsp, 40					; 00000028H
	ret	0
?call@X86Assembler@asmjit@@QEAAIAEBULabel@2@@Z ENDP	; asmjit::X86Assembler::call
_TEXT	ENDS
; Function compile flags: /Odtp
; File D:\c++\paoda\ThirdParty\AsmJit\x86\x86assembler.h
;	COMDAT ?call@X86Assembler@asmjit@@QEAAIAEBUX86GpReg@2@@Z
_TEXT	SEGMENT
this$ = 48
o0$ = 56
?call@X86Assembler@asmjit@@QEAAIAEBUX86GpReg@2@@Z PROC	; asmjit::X86Assembler::call, COMDAT

; 880  :   INST_1x(call, kX86InstIdCall, X86GpReg)

$LN3:
	mov	QWORD PTR [rsp+16], rdx
	mov	QWORD PTR [rsp+8], rcx
	sub	rsp, 40					; 00000028H
	mov	r8, QWORD PTR o0$[rsp]
	mov	edx, 37					; 00000025H
	mov	rcx, QWORD PTR this$[rsp]
	call	?emit@Assembler@asmjit@@QEAAIIAEBUOperand@2@@Z ; asmjit::Assembler::emit
	add	rsp, 40					; 00000028H
	ret	0
?call@X86Assembler@asmjit@@QEAAIAEBUX86GpReg@2@@Z ENDP	; asmjit::X86Assembler::call
_TEXT	ENDS
; Function compile flags: /Odtp
; File D:\c++\paoda\ThirdParty\AsmJit\x86\x86assembler.h
;	COMDAT ?and_@X86Assembler@asmjit@@QEAAIAEBUX86GpReg@2@_K@Z
_TEXT	SEGMENT
this$ = 48
o0$ = 56
o1$ = 64
?and_@X86Assembler@asmjit@@QEAAIAEBUX86GpReg@2@_K@Z PROC ; asmjit::X86Assembler::and_, COMDAT

; 824  :   INST_2i(and_, kX86InstIdAnd, X86GpReg, Imm)

$LN3:
	mov	QWORD PTR [rsp+24], r8
	mov	QWORD PTR [rsp+16], rdx
	mov	QWORD PTR [rsp+8], rcx
	sub	rsp, 40					; 00000028H
	mov	r9, QWORD PTR o1$[rsp]
	mov	r8, QWORD PTR o0$[rsp]
	mov	edx, 15
	mov	rcx, QWORD PTR this$[rsp]
	call	?emit@Assembler@asmjit@@QEAAIIAEBUOperand@2@_K@Z ; asmjit::Assembler::emit
	add	rsp, 40					; 00000028H
	ret	0
?and_@X86Assembler@asmjit@@QEAAIAEBUX86GpReg@2@_K@Z ENDP ; asmjit::X86Assembler::and_
_TEXT	ENDS
; Function compile flags: /Odtp
; File D:\c++\paoda\ThirdParty\AsmJit\x86\x86assembler.h
;	COMDAT ?add@X86Assembler@asmjit@@QEAAIAEBUX86Mem@2@H@Z
_TEXT	SEGMENT
this$ = 48
o0$ = 56
o1$ = 64
?add@X86Assembler@asmjit@@QEAAIAEBUX86Mem@2@H@Z PROC	; asmjit::X86Assembler::add, COMDAT

; 817  :   INST_2i(add, kX86InstIdAdd, X86Mem, Imm)

$LN3:
	mov	DWORD PTR [rsp+24], r8d
	mov	QWORD PTR [rsp+16], rdx
	mov	QWORD PTR [rsp+8], rcx
	sub	rsp, 40					; 00000028H
	mov	r9d, DWORD PTR o1$[rsp]
	mov	r8, QWORD PTR o0$[rsp]
	mov	edx, 2
	mov	rcx, QWORD PTR this$[rsp]
	call	?emit@Assembler@asmjit@@QEAAIIAEBUOperand@2@H@Z ; asmjit::Assembler::emit
	add	rsp, 40					; 00000028H
	ret	0
?add@X86Assembler@asmjit@@QEAAIAEBUX86Mem@2@H@Z ENDP	; asmjit::X86Assembler::add
_TEXT	ENDS
; Function compile flags: /Odtp
; File D:\c++\paoda\ThirdParty\AsmJit\x86\x86assembler.h
;	COMDAT ?add@X86Assembler@asmjit@@QEAAIAEBUX86GpReg@2@_K@Z
_TEXT	SEGMENT
this$ = 48
o0$ = 56
o1$ = 64
?add@X86Assembler@asmjit@@QEAAIAEBUX86GpReg@2@_K@Z PROC	; asmjit::X86Assembler::add, COMDAT

; 813  :   INST_2i(add, kX86InstIdAdd, X86GpReg, Imm)

$LN3:
	mov	QWORD PTR [rsp+24], r8
	mov	QWORD PTR [rsp+16], rdx
	mov	QWORD PTR [rsp+8], rcx
	sub	rsp, 40					; 00000028H
	mov	r9, QWORD PTR o1$[rsp]
	mov	r8, QWORD PTR o0$[rsp]
	mov	edx, 2
	mov	rcx, QWORD PTR this$[rsp]
	call	?emit@Assembler@asmjit@@QEAAIIAEBUOperand@2@_K@Z ; asmjit::Assembler::emit
	add	rsp, 40					; 00000028H
	ret	0
?add@X86Assembler@asmjit@@QEAAIAEBUX86GpReg@2@_K@Z ENDP	; asmjit::X86Assembler::add
_TEXT	ENDS
; Function compile flags: /Odtp
; File D:\c++\paoda\ThirdParty\AsmJit\x86\x86assembler.h
;	COMDAT ?dd@X86Assembler@asmjit@@QEAAXI@Z
_TEXT	SEGMENT
tv75 = 32
this$ = 64
x$ = 72
?dd@X86Assembler@asmjit@@QEAAXI@Z PROC			; asmjit::X86Assembler::dd, COMDAT

; 444  :   ASMJIT_INLINE void dd(uint32_t x) { embed(&x, 4); }

$LN3:
	mov	DWORD PTR [rsp+16], edx
	mov	QWORD PTR [rsp+8], rcx
	sub	rsp, 56					; 00000038H
	mov	rax, QWORD PTR this$[rsp]
	mov	rax, QWORD PTR [rax]
	mov	rax, QWORD PTR [rax+24]
	mov	QWORD PTR tv75[rsp], rax
	mov	r8d, 4
	lea	rdx, QWORD PTR x$[rsp]
	mov	rcx, QWORD PTR this$[rsp]
	call	QWORD PTR tv75[rsp]
	npad	1
	add	rsp, 56					; 00000038H
	ret	0
?dd@X86Assembler@asmjit@@QEAAXI@Z ENDP			; asmjit::X86Assembler::dd
_TEXT	ENDS
; Function compile flags: /Odtp
; File D:\c++\paoda\ThirdParty\AsmJit\x86\x86assembler.h
;	COMDAT ?db@X86Assembler@asmjit@@QEAAXE@Z
_TEXT	SEGMENT
tv75 = 32
this$ = 64
x$ = 72
?db@X86Assembler@asmjit@@QEAAXE@Z PROC			; asmjit::X86Assembler::db, COMDAT

; 440  :   ASMJIT_INLINE void db(uint8_t x) { embed(&x, 1); }

$LN3:
	mov	BYTE PTR [rsp+16], dl
	mov	QWORD PTR [rsp+8], rcx
	sub	rsp, 56					; 00000038H
	mov	rax, QWORD PTR this$[rsp]
	mov	rax, QWORD PTR [rax]
	mov	rax, QWORD PTR [rax+24]
	mov	QWORD PTR tv75[rsp], rax
	mov	r8d, 1
	lea	rdx, QWORD PTR x$[rsp]
	mov	rcx, QWORD PTR this$[rsp]
	call	QWORD PTR tv75[rsp]
	npad	1
	add	rsp, 56					; 00000038H
	ret	0
?db@X86Assembler@asmjit@@QEAAXE@Z ENDP			; asmjit::X86Assembler::db
_TEXT	ENDS
; Function compile flags: /Odtp
; File D:\c++\paoda\ThirdParty\AsmJit\x86\x86operand.h
_TEXT	SEGMENT
__$ReturnUdt$ = 48
base$ = 56
disp$ = 64
?qword_ptr@x86@asmjit@@YA?AUX86Mem@2@AEBUX86GpReg@2@H@Z PROC ; asmjit::x86::qword_ptr

; 1877 : ASMJIT_EXPAND_PTR_REG(qword, 8)

	mov	DWORD PTR [rsp+24], r8d
	mov	QWORD PTR [rsp+16], rdx
	mov	QWORD PTR [rsp+8], rcx
	sub	rsp, 40					; 00000028H
	mov	r9d, 8
	mov	r8d, DWORD PTR disp$[rsp]
	mov	rdx, QWORD PTR base$[rsp]
	mov	rcx, QWORD PTR __$ReturnUdt$[rsp]
	call	??0X86Mem@asmjit@@QEAA@AEBUX86GpReg@1@HI@Z ; asmjit::X86Mem::X86Mem
	mov	rax, QWORD PTR __$ReturnUdt$[rsp]
	add	rsp, 40					; 00000028H
	ret	0
?qword_ptr@x86@asmjit@@YA?AUX86Mem@2@AEBUX86GpReg@2@H@Z ENDP ; asmjit::x86::qword_ptr
_TEXT	ENDS
; Function compile flags: /Odtp
; File D:\c++\paoda\ThirdParty\AsmJit\x86\x86operand.h
_TEXT	SEGMENT
__$ReturnUdt$ = 48
pAbs$ = 56
disp$ = 64
?dword_ptr_abs@x86@asmjit@@YA?AUX86Mem@2@_KH@Z PROC	; asmjit::x86::dword_ptr_abs

; 1876 : ASMJIT_EXPAND_PTR_REG(dword, 4)

	mov	DWORD PTR [rsp+24], r8d
	mov	QWORD PTR [rsp+16], rdx
	mov	QWORD PTR [rsp+8], rcx
	sub	rsp, 40					; 00000028H
	mov	r9d, 4
	mov	r8d, DWORD PTR disp$[rsp]
	mov	rdx, QWORD PTR pAbs$[rsp]
	mov	rcx, QWORD PTR __$ReturnUdt$[rsp]
	call	?ptr_abs@x86@asmjit@@YA?AUX86Mem@2@_KHI@Z ; asmjit::x86::ptr_abs
	mov	rax, QWORD PTR __$ReturnUdt$[rsp]
	add	rsp, 40					; 00000028H
	ret	0
?dword_ptr_abs@x86@asmjit@@YA?AUX86Mem@2@_KH@Z ENDP	; asmjit::x86::dword_ptr_abs
_TEXT	ENDS
; Function compile flags: /Odtp
; File D:\c++\paoda\ThirdParty\AsmJit\x86\x86operand.h
_TEXT	SEGMENT
__$ReturnUdt$ = 48
base$ = 56
disp$ = 64
?dword_ptr@x86@asmjit@@YA?AUX86Mem@2@AEBUX86GpReg@2@H@Z PROC ; asmjit::x86::dword_ptr

; 1876 : ASMJIT_EXPAND_PTR_REG(dword, 4)

	mov	DWORD PTR [rsp+24], r8d
	mov	QWORD PTR [rsp+16], rdx
	mov	QWORD PTR [rsp+8], rcx
	sub	rsp, 40					; 00000028H
	mov	r9d, 4
	mov	r8d, DWORD PTR disp$[rsp]
	mov	rdx, QWORD PTR base$[rsp]
	mov	rcx, QWORD PTR __$ReturnUdt$[rsp]
	call	??0X86Mem@asmjit@@QEAA@AEBUX86GpReg@1@HI@Z ; asmjit::X86Mem::X86Mem
	mov	rax, QWORD PTR __$ReturnUdt$[rsp]
	add	rsp, 40					; 00000028H
	ret	0
?dword_ptr@x86@asmjit@@YA?AUX86Mem@2@AEBUX86GpReg@2@H@Z ENDP ; asmjit::x86::dword_ptr
_TEXT	ENDS
; Function compile flags: /Odtp
; File D:\c++\paoda\ThirdParty\AsmJit\x86\x86operand.h
;	COMDAT ?_getGpdFlags@X86Mem@asmjit@@SAIAEBUOperand@2@@Z
_TEXT	SEGMENT
base$ = 8
?_getGpdFlags@X86Mem@asmjit@@SAIAEBUOperand@2@@Z PROC	; asmjit::X86Mem::_getGpdFlags, COMDAT

; 1514 :   static ASMJIT_INLINE uint32_t _getGpdFlags(const Operand& base) {

	mov	QWORD PTR [rsp+8], rcx

; 1515 :     return (base._vreg.size & 0x4) << (kX86MemGpdIndex - 2);

	mov	rax, QWORD PTR base$[rsp]
	movzx	eax, BYTE PTR [rax+1]
	and	eax, 4
	shl	eax, 1

; 1516 :   }

	ret	0
?_getGpdFlags@X86Mem@asmjit@@SAIAEBUOperand@2@@Z ENDP	; asmjit::X86Mem::_getGpdFlags
_TEXT	ENDS
; Function compile flags: /Odtp
; File D:\c++\paoda\ThirdParty\AsmJit\x86\x86operand.h
;	COMDAT ?setSegment@X86Mem@asmjit@@QEAAAEAU12@AEBUX86SegReg@2@@Z
_TEXT	SEGMENT
this$ = 48
seg$ = 56
?setSegment@X86Mem@asmjit@@QEAAAEAU12@AEBUX86SegReg@2@@Z PROC ; asmjit::X86Mem::setSegment, COMDAT

; 1251 :   ASMJIT_INLINE X86Mem& setSegment(const X86SegReg& seg) {

$LN3:
	mov	QWORD PTR [rsp+16], rdx
	mov	QWORD PTR [rsp+8], rcx
	sub	rsp, 40					; 00000028H

; 1252 :     return setSegment(seg.getRegIndex());

	mov	rcx, QWORD PTR seg$[rsp]
	call	?getRegIndex@Reg@asmjit@@QEBAIXZ	; asmjit::Reg::getRegIndex
	mov	edx, eax
	mov	rcx, QWORD PTR this$[rsp]
	call	?setSegment@X86Mem@asmjit@@QEAAAEAU12@I@Z ; asmjit::X86Mem::setSegment

; 1253 :   }

	add	rsp, 40					; 00000028H
	ret	0
?setSegment@X86Mem@asmjit@@QEAAAEAU12@AEBUX86SegReg@2@@Z ENDP ; asmjit::X86Mem::setSegment
_TEXT	ENDS
; Function compile flags: /Odtp
; File D:\c++\paoda\ThirdParty\AsmJit\x86\x86operand.h
;	COMDAT ?setSegment@X86Mem@asmjit@@QEAAAEAU12@I@Z
_TEXT	SEGMENT
this$ = 8
segIndex$ = 16
?setSegment@X86Mem@asmjit@@QEAAAEAU12@I@Z PROC		; asmjit::X86Mem::setSegment, COMDAT

; 1244 :   ASMJIT_INLINE X86Mem& setSegment(uint32_t segIndex) {

	mov	DWORD PTR [rsp+16], edx
	mov	QWORD PTR [rsp+8], rcx

; 1245 :     _vmem.flags = static_cast<uint8_t>(

	mov	rax, QWORD PTR this$[rsp]
	movzx	eax, BYTE PTR [rax+3]
	and	eax, 7
	add	eax, DWORD PTR segIndex$[rsp]
	mov	rcx, QWORD PTR this$[rsp]
	mov	BYTE PTR [rcx+3], al

; 1246 :       (static_cast<uint32_t>(_vmem.flags) & kX86MemSegMask) + (segIndex << kX86MemSegIndex));
; 1247 :     return *this;

	mov	rax, QWORD PTR this$[rsp]

; 1248 :   }

	ret	0
?setSegment@X86Mem@asmjit@@QEAAAEAU12@I@Z ENDP		; asmjit::X86Mem::setSegment
_TEXT	ENDS
; Function compile flags: /Odtp
; File D:\c++\paoda\ThirdParty\AsmJit\x86\x86operand.h
;	COMDAT ??0X86Mem@asmjit@@QEAA@AEBUX86GpReg@1@HI@Z
_TEXT	SEGMENT
tv95 = 48
tv93 = 52
this$ = 80
base$ = 88
disp$ = 96
size$ = 104
??0X86Mem@asmjit@@QEAA@AEBUX86GpReg@1@HI@Z PROC		; asmjit::X86Mem::X86Mem, COMDAT

; 1092 :   ASMJIT_INLINE X86Mem(const X86GpReg& base, int32_t disp, uint32_t size = 0) : BaseMem(NoInit) {

$LN3:
	mov	DWORD PTR [rsp+32], r9d
	mov	DWORD PTR [rsp+24], r8d
	mov	QWORD PTR [rsp+16], rdx
	mov	QWORD PTR [rsp+8], rcx
	sub	rsp, 72					; 00000048H
	lea	rdx, OFFSET FLAT:?NoInit@asmjit@@3U_NoInit@1@B
	mov	rcx, QWORD PTR this$[rsp]
	call	??0BaseMem@asmjit@@QEAA@AEBU_NoInit@1@@Z ; asmjit::BaseMem::BaseMem

; 1093 :     _init_packed_op_sz_b0_b1_id(kOperandTypeMem, size, kMemTypeBaseIndex,

	mov	rcx, QWORD PTR base$[rsp]
	call	?getRegIndex@Reg@asmjit@@QEBAIXZ	; asmjit::Reg::getRegIndex
	mov	DWORD PTR tv95[rsp], eax
	mov	rcx, QWORD PTR base$[rsp]
	call	?_getGpdFlags@X86Mem@asmjit@@SAIAEBUOperand@2@@Z ; asmjit::X86Mem::_getGpdFlags
	mov	DWORD PTR tv93[rsp], eax
	mov	eax, DWORD PTR tv95[rsp]
	mov	DWORD PTR [rsp+40], eax
	mov	eax, DWORD PTR tv93[rsp]
	mov	DWORD PTR [rsp+32], eax
	xor	r9d, r9d
	mov	r8d, DWORD PTR size$[rsp]
	mov	edx, 3
	mov	rcx, QWORD PTR this$[rsp]
	call	?_init_packed_op_sz_b0_b1_id@Operand@asmjit@@QEAAXIIIII@Z ; asmjit::Operand::_init_packed_op_sz_b0_b1_id

; 1094 :       _getGpdFlags(base)
; 1095 :         + (kX86MemVSibGpz << kX86MemVSibIndex),
; 1096 :       base.getRegIndex());
; 1097 :     _init_packed_d2_d3(kInvalidValue, disp);

	mov	r8d, DWORD PTR disp$[rsp]
	mov	edx, -1					; ffffffffH
	mov	rcx, QWORD PTR this$[rsp]
	call	?_init_packed_d2_d3@Operand@asmjit@@QEAAXII@Z ; asmjit::Operand::_init_packed_d2_d3
	npad	1

; 1098 :   }

	mov	rax, QWORD PTR this$[rsp]
	add	rsp, 72					; 00000048H
	ret	0
??0X86Mem@asmjit@@QEAA@AEBUX86GpReg@1@HI@Z ENDP		; asmjit::X86Mem::X86Mem
_TEXT	ENDS
; Function compile flags: /Odtp
; File D:\c++\paoda\ThirdParty\AsmJit\x86\x86operand.h
;	COMDAT ??0X86XmmReg@asmjit@@QEAA@AEBU01@@Z
_TEXT	SEGMENT
this$ = 48
other$ = 56
??0X86XmmReg@asmjit@@QEAA@AEBU01@@Z PROC		; asmjit::X86XmmReg::X86XmmReg, COMDAT

; 969  :   ASMJIT_INLINE X86XmmReg(const X86XmmReg& other) : X86Reg(other) {}

$LN3:
	mov	QWORD PTR [rsp+16], rdx
	mov	QWORD PTR [rsp+8], rcx
	sub	rsp, 40					; 00000028H
	mov	rdx, QWORD PTR other$[rsp]
	mov	rcx, QWORD PTR this$[rsp]
	call	??0X86Reg@asmjit@@QEAA@AEBU01@@Z	; asmjit::X86Reg::X86Reg
	npad	1
	mov	rax, QWORD PTR this$[rsp]
	add	rsp, 40					; 00000028H
	ret	0
??0X86XmmReg@asmjit@@QEAA@AEBU01@@Z ENDP		; asmjit::X86XmmReg::X86XmmReg
_TEXT	ENDS
; Function compile flags: /Odtp
; File D:\c++\paoda\ThirdParty\AsmJit\x86\x86operand.h
;	COMDAT ??0X86GpReg@asmjit@@QEAA@AEBU01@@Z
_TEXT	SEGMENT
this$ = 48
other$ = 56
??0X86GpReg@asmjit@@QEAA@AEBU01@@Z PROC			; asmjit::X86GpReg::X86GpReg, COMDAT

; 779  :   ASMJIT_INLINE X86GpReg(const X86GpReg& other) : X86Reg(other) {}

$LN3:
	mov	QWORD PTR [rsp+16], rdx
	mov	QWORD PTR [rsp+8], rcx
	sub	rsp, 40					; 00000028H
	mov	rdx, QWORD PTR other$[rsp]
	mov	rcx, QWORD PTR this$[rsp]
	call	??0X86Reg@asmjit@@QEAA@AEBU01@@Z	; asmjit::X86Reg::X86Reg
	npad	1
	mov	rax, QWORD PTR this$[rsp]
	add	rsp, 40					; 00000028H
	ret	0
??0X86GpReg@asmjit@@QEAA@AEBU01@@Z ENDP			; asmjit::X86GpReg::X86GpReg
_TEXT	ENDS
; Function compile flags: /Odtp
; File D:\c++\paoda\ThirdParty\AsmJit\x86\x86operand.h
;	COMDAT ??0X86Reg@asmjit@@QEAA@AEBU01@@Z
_TEXT	SEGMENT
this$ = 48
other$ = 56
??0X86Reg@asmjit@@QEAA@AEBU01@@Z PROC			; asmjit::X86Reg::X86Reg, COMDAT

; 652  :   ASMJIT_INLINE X86Reg(const X86Reg& other) : Reg(other) {}

$LN3:
	mov	QWORD PTR [rsp+16], rdx
	mov	QWORD PTR [rsp+8], rcx
	sub	rsp, 40					; 00000028H
	mov	rdx, QWORD PTR other$[rsp]
	mov	rcx, QWORD PTR this$[rsp]
	call	??0Reg@asmjit@@QEAA@AEBU01@@Z		; asmjit::Reg::Reg
	npad	1
	mov	rax, QWORD PTR this$[rsp]
	add	rsp, 40					; 00000028H
	ret	0
??0X86Reg@asmjit@@QEAA@AEBU01@@Z ENDP			; asmjit::X86Reg::X86Reg
_TEXT	ENDS
; Function compile flags: /Odtp
; File D:\c++\paoda\ThirdParty\AsmJit\base\assembler.h
;	COMDAT ?newLabel@Assembler@asmjit@@QEAA?AULabel@2@XZ
_TEXT	SEGMENT
result$ = 32
this$ = 64
__$ReturnUdt$ = 72
?newLabel@Assembler@asmjit@@QEAA?AULabel@2@XZ PROC	; asmjit::Assembler::newLabel, COMDAT

; 396  :   ASMJIT_INLINE Label newLabel() {

$LN3:
	mov	QWORD PTR [rsp+16], rdx
	mov	QWORD PTR [rsp+8], rcx
	sub	rsp, 56					; 00000038H

; 397  :     Label result(NoInit);

	lea	rdx, OFFSET FLAT:?NoInit@asmjit@@3U_NoInit@1@B
	lea	rcx, QWORD PTR result$[rsp]
	call	??0Label@asmjit@@QEAA@AEBU_NoInit@1@@Z	; asmjit::Label::Label

; 398  :     _newLabel(&result);

	lea	rdx, QWORD PTR result$[rsp]
	mov	rcx, QWORD PTR this$[rsp]
	call	?_newLabel@Assembler@asmjit@@QEAAIPEAULabel@2@@Z ; asmjit::Assembler::_newLabel

; 399  :     return result;

	lea	rdx, QWORD PTR result$[rsp]
	mov	rcx, QWORD PTR __$ReturnUdt$[rsp]
	call	??0Label@asmjit@@QEAA@AEBU01@@Z		; asmjit::Label::Label
	mov	rax, QWORD PTR __$ReturnUdt$[rsp]

; 400  :   }

	add	rsp, 56					; 00000038H
	ret	0
?newLabel@Assembler@asmjit@@QEAA?AULabel@2@XZ ENDP	; asmjit::Assembler::newLabel
_TEXT	ENDS
; Function compile flags: /Odtp
; File D:\c++\paoda\ThirdParty\AsmJit\base\operand.h
;	COMDAT ??0Label@asmjit@@QEAA@AEBU_NoInit@1@@Z
_TEXT	SEGMENT
this$ = 48
__formal$ = 56
??0Label@asmjit@@QEAA@AEBU_NoInit@1@@Z PROC		; asmjit::Label::Label, COMDAT

; 1029 :   explicit ASMJIT_INLINE Label(const _NoInit&) : Operand(NoInit) {}

$LN3:
	mov	QWORD PTR [rsp+16], rdx
	mov	QWORD PTR [rsp+8], rcx
	sub	rsp, 40					; 00000028H
	lea	rdx, OFFSET FLAT:?NoInit@asmjit@@3U_NoInit@1@B
	mov	rcx, QWORD PTR this$[rsp]
	call	??0Operand@asmjit@@QEAA@AEBU_NoInit@1@@Z ; asmjit::Operand::Operand
	npad	1
	mov	rax, QWORD PTR this$[rsp]
	add	rsp, 40					; 00000028H
	ret	0
??0Label@asmjit@@QEAA@AEBU_NoInit@1@@Z ENDP		; asmjit::Label::Label
_TEXT	ENDS
; Function compile flags: /Odtp
; File D:\c++\paoda\ThirdParty\AsmJit\base\operand.h
;	COMDAT ??0Label@asmjit@@QEAA@AEBU01@@Z
_TEXT	SEGMENT
this$ = 48
other$ = 56
??0Label@asmjit@@QEAA@AEBU01@@Z PROC			; asmjit::Label::Label, COMDAT

; 1027 :   ASMJIT_INLINE Label(const Label& other) : Operand(other) {}

$LN3:
	mov	QWORD PTR [rsp+16], rdx
	mov	QWORD PTR [rsp+8], rcx
	sub	rsp, 40					; 00000028H
	mov	rdx, QWORD PTR other$[rsp]
	mov	rcx, QWORD PTR this$[rsp]
	call	??0Operand@asmjit@@QEAA@AEBU01@@Z	; asmjit::Operand::Operand
	npad	1
	mov	rax, QWORD PTR this$[rsp]
	add	rsp, 40					; 00000028H
	ret	0
??0Label@asmjit@@QEAA@AEBU01@@Z ENDP			; asmjit::Label::Label
_TEXT	ENDS
; Function compile flags: /Odtp
; File D:\c++\paoda\ThirdParty\AsmJit\base\operand.h
;	COMDAT ??0BaseMem@asmjit@@QEAA@AEBU_NoInit@1@@Z
_TEXT	SEGMENT
this$ = 48
__formal$ = 56
??0BaseMem@asmjit@@QEAA@AEBU_NoInit@1@@Z PROC		; asmjit::BaseMem::BaseMem, COMDAT

; 645  :   explicit ASMJIT_INLINE BaseMem(const _NoInit&) : Operand(NoInit) {}

$LN3:
	mov	QWORD PTR [rsp+16], rdx
	mov	QWORD PTR [rsp+8], rcx
	sub	rsp, 40					; 00000028H
	lea	rdx, OFFSET FLAT:?NoInit@asmjit@@3U_NoInit@1@B
	mov	rcx, QWORD PTR this$[rsp]
	call	??0Operand@asmjit@@QEAA@AEBU_NoInit@1@@Z ; asmjit::Operand::Operand
	npad	1
	mov	rax, QWORD PTR this$[rsp]
	add	rsp, 40					; 00000028H
	ret	0
??0BaseMem@asmjit@@QEAA@AEBU_NoInit@1@@Z ENDP		; asmjit::BaseMem::BaseMem
_TEXT	ENDS
; Function compile flags: /Odtp
; File D:\c++\paoda\ThirdParty\AsmJit\base\operand.h
;	COMDAT ?getRegIndex@Reg@asmjit@@QEBAIXZ
_TEXT	SEGMENT
this$ = 8
?getRegIndex@Reg@asmjit@@QEBAIXZ PROC			; asmjit::Reg::getRegIndex, COMDAT

; 584  :   ASMJIT_INLINE uint32_t getRegIndex() const {

	mov	QWORD PTR [rsp+8], rcx

; 585  :     return _vreg.index;

	mov	rax, QWORD PTR this$[rsp]
	movzx	eax, BYTE PTR [rax+2]

; 586  :   }

	ret	0
?getRegIndex@Reg@asmjit@@QEBAIXZ ENDP			; asmjit::Reg::getRegIndex
_TEXT	ENDS
; Function compile flags: /Odtp
; File D:\c++\paoda\ThirdParty\AsmJit\base\operand.h
;	COMDAT ??0Reg@asmjit@@QEAA@AEBU01@@Z
_TEXT	SEGMENT
this$ = 48
other$ = 56
??0Reg@asmjit@@QEAA@AEBU01@@Z PROC			; asmjit::Reg::Reg, COMDAT

; 540  :   ASMJIT_INLINE Reg(const Reg& other) : Operand(other) {}

$LN3:
	mov	QWORD PTR [rsp+16], rdx
	mov	QWORD PTR [rsp+8], rcx
	sub	rsp, 40					; 00000028H
	mov	rdx, QWORD PTR other$[rsp]
	mov	rcx, QWORD PTR this$[rsp]
	call	??0Operand@asmjit@@QEAA@AEBU01@@Z	; asmjit::Operand::Operand
	npad	1
	mov	rax, QWORD PTR this$[rsp]
	add	rsp, 40					; 00000028H
	ret	0
??0Reg@asmjit@@QEAA@AEBU01@@Z ENDP			; asmjit::Reg::Reg
_TEXT	ENDS
; Function compile flags: /Odtp
; File D:\c++\paoda\ThirdParty\AsmJit\base\operand.h
;	COMDAT ?_init_packed_d2_d3@Operand@asmjit@@QEAAXII@Z
_TEXT	SEGMENT
tv72 = 32
this$ = 64
u2$ = 72
u3$ = 80
?_init_packed_d2_d3@Operand@asmjit@@QEAAXII@Z PROC	; asmjit::Operand::_init_packed_d2_d3, COMDAT

; 352  :   ASMJIT_INLINE void _init_packed_d2_d3(uint32_t u2, uint32_t u3) {

$LN3:
	mov	DWORD PTR [rsp+24], r8d
	mov	DWORD PTR [rsp+16], edx
	mov	QWORD PTR [rsp+8], rcx
	sub	rsp, 56					; 00000038H

; 353  :     _packed[1].setPacked_2x32(u2, u3);

	mov	eax, 8
	imul	rax, rax, 1
	mov	rcx, QWORD PTR this$[rsp]
	add	rcx, rax
	mov	rax, rcx
	mov	QWORD PTR tv72[rsp], rax
	mov	r8d, DWORD PTR u3$[rsp]
	mov	edx, DWORD PTR u2$[rsp]
	mov	rcx, QWORD PTR tv72[rsp]
	call	?setPacked_2x32@UInt64@asmjit@@QEAAAEAT12@II@Z ; asmjit::UInt64::setPacked_2x32
	npad	1

; 354  :   }

	add	rsp, 56					; 00000038H
	ret	0
?_init_packed_d2_d3@Operand@asmjit@@QEAAXII@Z ENDP	; asmjit::Operand::_init_packed_d2_d3
_TEXT	ENDS
; Function compile flags: /Odtp
; File D:\c++\paoda\ThirdParty\AsmJit\base\operand.h
;	COMDAT ?_init_packed_op_sz_b0_b1_id@Operand@asmjit@@QEAAXIIIII@Z
_TEXT	SEGMENT
tv77 = 32
this$ = 64
op$ = 72
sz$ = 80
r0$ = 88
r1$ = 96
id$ = 104
?_init_packed_op_sz_b0_b1_id@Operand@asmjit@@QEAAXIIIII@Z PROC ; asmjit::Operand::_init_packed_op_sz_b0_b1_id, COMDAT

; 334  :   ASMJIT_INLINE void _init_packed_op_sz_b0_b1_id(uint32_t op, uint32_t sz, uint32_t r0, uint32_t r1, uint32_t id) {

$LN3:
	mov	DWORD PTR [rsp+32], r9d
	mov	DWORD PTR [rsp+24], r8d
	mov	DWORD PTR [rsp+16], edx
	mov	QWORD PTR [rsp+8], rcx
	sub	rsp, 56					; 00000038H

; 335  :     // This hack is not for performance, but to decrease the size of the binary
; 336  :     // generated when constructing AsmJit operands (mostly for third parties).
; 337  :     // Some compilers are not able to join four BYTE writes to a single DWORD
; 338  :     // write. Because the 'a', 'b', 'c' and 'd' variables are usually compile
; 339  :     // time constants the compiler can do a really nice job if they are joined
; 340  :     // by using bitwise operations.
; 341  :     _packed[0].setPacked_2x32(IntUtil::pack32_4x8(op, sz, r0, r1), id);

	mov	eax, 8
	imul	rax, rax, 0
	mov	rcx, QWORD PTR this$[rsp]
	add	rcx, rax
	mov	rax, rcx
	mov	QWORD PTR tv77[rsp], rax
	mov	r9d, DWORD PTR r1$[rsp]
	mov	r8d, DWORD PTR r0$[rsp]
	mov	edx, DWORD PTR sz$[rsp]
	mov	ecx, DWORD PTR op$[rsp]
	call	?pack32_4x8@IntUtil@asmjit@@SAIIIII@Z	; asmjit::IntUtil::pack32_4x8
	mov	r8d, DWORD PTR id$[rsp]
	mov	edx, eax
	mov	rcx, QWORD PTR tv77[rsp]
	call	?setPacked_2x32@UInt64@asmjit@@QEAAAEAT12@II@Z ; asmjit::UInt64::setPacked_2x32
	npad	1

; 342  :   }

	add	rsp, 56					; 00000038H
	ret	0
?_init_packed_op_sz_b0_b1_id@Operand@asmjit@@QEAAXIIIII@Z ENDP ; asmjit::Operand::_init_packed_op_sz_b0_b1_id
_TEXT	ENDS
; Function compile flags: /Odtp
; File D:\c++\paoda\ThirdParty\AsmJit\base\operand.h
;	COMDAT ?_init@Operand@asmjit@@QEAAXAEBU12@@Z
_TEXT	SEGMENT
this$ = 48
other$ = 56
?_init@Operand@asmjit@@QEAAXAEBU12@@Z PROC		; asmjit::Operand::_init, COMDAT

; 330  :   ASMJIT_INLINE void _init(const Operand& other) {

$LN3:
	mov	QWORD PTR [rsp+16], rdx
	mov	QWORD PTR [rsp+8], rcx
	sub	rsp, 40					; 00000028H

; 331  :     ::memcpy(this, &other, sizeof(Operand));

	mov	r8d, 16
	mov	rdx, QWORD PTR other$[rsp]
	mov	rcx, QWORD PTR this$[rsp]
	call	memcpy
	npad	1

; 332  :   }

	add	rsp, 40					; 00000028H
	ret	0
?_init@Operand@asmjit@@QEAAXAEBU12@@Z ENDP		; asmjit::Operand::_init
_TEXT	ENDS
; Function compile flags: /Odtp
; File D:\c++\paoda\ThirdParty\AsmJit\base\operand.h
;	COMDAT ??0Operand@asmjit@@QEAA@AEBU_NoInit@1@@Z
_TEXT	SEGMENT
this$ = 8
__formal$ = 16
??0Operand@asmjit@@QEAA@AEBU_NoInit@1@@Z PROC		; asmjit::Operand::Operand, COMDAT

; 312  :   explicit ASMJIT_INLINE Operand(const _NoInit&) {}

	mov	QWORD PTR [rsp+16], rdx
	mov	QWORD PTR [rsp+8], rcx
	mov	rax, QWORD PTR this$[rsp]
	ret	0
??0Operand@asmjit@@QEAA@AEBU_NoInit@1@@Z ENDP		; asmjit::Operand::Operand
_TEXT	ENDS
; Function compile flags: /Odtp
; File D:\c++\paoda\ThirdParty\AsmJit\base\operand.h
;	COMDAT ??0Operand@asmjit@@QEAA@AEBU01@@Z
_TEXT	SEGMENT
this$ = 48
other$ = 56
??0Operand@asmjit@@QEAA@AEBU01@@Z PROC			; asmjit::Operand::Operand, COMDAT

; 308  :   ASMJIT_INLINE Operand(const Operand& other) {

$LN3:
	mov	QWORD PTR [rsp+16], rdx
	mov	QWORD PTR [rsp+8], rcx
	sub	rsp, 40					; 00000028H

; 309  :     _init(other);

	mov	rdx, QWORD PTR other$[rsp]
	mov	rcx, QWORD PTR this$[rsp]
	call	?_init@Operand@asmjit@@QEAAXAEBU12@@Z	; asmjit::Operand::_init
	npad	1

; 310  :   }

	mov	rax, QWORD PTR this$[rsp]
	add	rsp, 40					; 00000028H
	ret	0
??0Operand@asmjit@@QEAA@AEBU01@@Z ENDP			; asmjit::Operand::Operand
_TEXT	ENDS
; Function compile flags: /Odtp
; File D:\c++\paoda\ThirdParty\AsmJit\base\intutil.h
;	COMDAT ?setPacked_2x32@UInt64@asmjit@@QEAAAEAT12@II@Z
_TEXT	SEGMENT
this$ = 48
u0$ = 56
u1$ = 64
?setPacked_2x32@UInt64@asmjit@@QEAAAEAT12@II@Z PROC	; asmjit::UInt64::setPacked_2x32, COMDAT

; 498  :   ASMJIT_INLINE UInt64& setPacked_2x32(uint32_t u0, uint32_t u1) {

$LN5:
	mov	DWORD PTR [rsp+24], r8d
	mov	DWORD PTR [rsp+16], edx
	mov	QWORD PTR [rsp+8], rcx
	sub	rsp, 40					; 00000028H

; 499  :     if (kArchHost64Bit) {

	xor	eax, eax
	cmp	eax, 1
	je	SHORT $LN2@setPacked_

; 500  :       u64 = IntUtil::pack64_2x32(u0, u1);

	mov	edx, DWORD PTR u1$[rsp]
	mov	ecx, DWORD PTR u0$[rsp]
	call	?pack64_2x32@IntUtil@asmjit@@SA_KII@Z	; asmjit::IntUtil::pack64_2x32
	mov	rcx, QWORD PTR this$[rsp]
	mov	QWORD PTR [rcx], rax

; 501  :     }

	jmp	SHORT $LN3@setPacked_
$LN2@setPacked_:

; 502  :     else {
; 503  :       u32[0] = u0;

	mov	eax, 4
	imul	rax, rax, 0
	mov	rcx, QWORD PTR this$[rsp]
	mov	edx, DWORD PTR u0$[rsp]
	mov	DWORD PTR [rcx+rax], edx

; 504  :       u32[1] = u1;

	mov	eax, 4
	imul	rax, rax, 1
	mov	rcx, QWORD PTR this$[rsp]
	mov	edx, DWORD PTR u1$[rsp]
	mov	DWORD PTR [rcx+rax], edx
$LN3@setPacked_:

; 505  :     }
; 506  :     return *this;

	mov	rax, QWORD PTR this$[rsp]

; 507  :   }

	add	rsp, 40					; 00000028H
	ret	0
?setPacked_2x32@UInt64@asmjit@@QEAAAEAT12@II@Z ENDP	; asmjit::UInt64::setPacked_2x32
_TEXT	ENDS
; Function compile flags: /Odtp
; File D:\c++\paoda\ThirdParty\AsmJit\base\intutil.h
;	COMDAT ?pack64_2x32@IntUtil@asmjit@@SA_KII@Z
_TEXT	SEGMENT
u0$ = 8
u1$ = 16
?pack64_2x32@IntUtil@asmjit@@SA_KII@Z PROC		; asmjit::IntUtil::pack64_2x32, COMDAT

; 102  :   static ASMJIT_INLINE uint64_t pack64_2x32(uint32_t u0, uint32_t u1) {

	mov	DWORD PTR [rsp+16], edx
	mov	DWORD PTR [rsp+8], ecx

; 103  : #if defined(ASMJIT_HOST_LE)
; 104  :     return (static_cast<uint64_t>(u1) << 32) + u0;

	mov	eax, DWORD PTR u1$[rsp]
	shl	rax, 32					; 00000020H
	mov	ecx, DWORD PTR u0$[rsp]
	add	rax, rcx

; 105  : #else
; 106  :     return (static_cast<uint64_t>(u0) << 32) + u1;
; 107  : #endif // ASMJIT_HOST
; 108  :   }

	ret	0
?pack64_2x32@IntUtil@asmjit@@SA_KII@Z ENDP		; asmjit::IntUtil::pack64_2x32
_TEXT	ENDS
; Function compile flags: /Odtp
; File D:\c++\paoda\ThirdParty\AsmJit\base\intutil.h
;	COMDAT ?pack32_4x8@IntUtil@asmjit@@SAIIIII@Z
_TEXT	SEGMENT
u0$ = 8
u1$ = 16
u2$ = 24
u3$ = 32
?pack32_4x8@IntUtil@asmjit@@SAIIIII@Z PROC		; asmjit::IntUtil::pack32_4x8, COMDAT

; 93   :   static ASMJIT_INLINE uint32_t pack32_4x8(uint32_t u0, uint32_t u1, uint32_t u2, uint32_t u3) {

	mov	DWORD PTR [rsp+32], r9d
	mov	DWORD PTR [rsp+24], r8d
	mov	DWORD PTR [rsp+16], edx
	mov	DWORD PTR [rsp+8], ecx

; 94   : #if defined(ASMJIT_HOST_LE)
; 95   :     return u0 + (u1 << 8) + (u2 << 16) + (u3 << 24);

	mov	eax, DWORD PTR u1$[rsp]
	shl	eax, 8
	mov	ecx, DWORD PTR u0$[rsp]
	add	ecx, eax
	mov	eax, ecx
	mov	ecx, DWORD PTR u2$[rsp]
	shl	ecx, 16
	add	eax, ecx
	mov	ecx, DWORD PTR u3$[rsp]
	shl	ecx, 24
	add	eax, ecx

; 96   : #else
; 97   :     return (u0 << 24) + (u1 << 16) + (u2 << 8) + u3;
; 98   : #endif // ASMJIT_HOST
; 99   :   }

	ret	0
?pack32_4x8@IntUtil@asmjit@@SAIIIII@Z ENDP		; asmjit::IntUtil::pack32_4x8
_TEXT	ENDS
; Function compile flags: /Odtp
; File D:\c++\paoda\Helper\HttpLib\httplib.h
;	COMDAT ??__Esslinit_@detail@httplib@@YAXXZ
text$di	SEGMENT
??__Esslinit_@detail@httplib@@YAXXZ PROC		; httplib::detail::`dynamic initializer for 'sslinit_'', COMDAT

; 8802 :         static SSLInit sslinit_;

	sub	rsp, 40					; 00000028H
	lea	rcx, OFFSET FLAT:?sslinit_@detail@httplib@@3VSSLInit@12@A
	call	??0SSLInit@detail@httplib@@QEAA@XZ	; httplib::detail::SSLInit::SSLInit
	npad	1
	add	rsp, 40					; 00000028H
	ret	0
??__Esslinit_@detail@httplib@@YAXXZ ENDP		; httplib::detail::`dynamic initializer for 'sslinit_''
text$di	ENDS
; Function compile flags: /Odtp
; File D:\c++\paoda\Helper\HttpLib\httplib.h
;	COMDAT ??0SSLInit@detail@httplib@@QEAA@XZ
_TEXT	SEGMENT
this$ = 48
??0SSLInit@detail@httplib@@QEAA@XZ PROC			; httplib::detail::SSLInit::SSLInit, COMDAT

; 8693 :             SSLInit() {

$LN3:
	mov	QWORD PTR [rsp+8], rcx
	sub	rsp, 40					; 00000028H

; 8694 :                 OPENSSL_init_ssl(

	xor	edx, edx
	mov	ecx, 2097154				; 00200002H
	call	OPENSSL_init_ssl
	npad	1

; 8695 :                     OPENSSL_INIT_LOAD_SSL_STRINGS | OPENSSL_INIT_LOAD_CRYPTO_STRINGS, NULL);
; 8696 :             }

	mov	rax, QWORD PTR this$[rsp]
	add	rsp, 40					; 00000028H
	ret	0
??0SSLInit@detail@httplib@@QEAA@XZ ENDP			; httplib::detail::SSLInit::SSLInit
_TEXT	ENDS
; Function compile flags: /Odtp
;	COMDAT ??__Fwsinit_@detail@httplib@@YAXXZ
text$yd	SEGMENT
??__Fwsinit_@detail@httplib@@YAXXZ PROC			; httplib::detail::`dynamic atexit destructor for 'wsinit_'', COMDAT
	sub	rsp, 40					; 00000028H
	lea	rcx, OFFSET FLAT:?wsinit_@detail@httplib@@3VWSInit@12@A
	call	??1WSInit@detail@httplib@@QEAA@XZ	; httplib::detail::WSInit::~WSInit
	npad	1
	add	rsp, 40					; 00000028H
	ret	0
??__Fwsinit_@detail@httplib@@YAXXZ ENDP			; httplib::detail::`dynamic atexit destructor for 'wsinit_''
text$yd	ENDS
; Function compile flags: /Odtp
; File D:\c++\paoda\Helper\HttpLib\httplib.h
;	COMDAT ??__Ewsinit_@detail@httplib@@YAXXZ
text$di	SEGMENT
??__Ewsinit_@detail@httplib@@YAXXZ PROC			; httplib::detail::`dynamic initializer for 'wsinit_'', COMDAT

; 5291 :         static WSInit wsinit_;

	sub	rsp, 40					; 00000028H
	lea	rcx, OFFSET FLAT:?wsinit_@detail@httplib@@3VWSInit@12@A
	call	??0WSInit@detail@httplib@@QEAA@XZ	; httplib::detail::WSInit::WSInit
	lea	rcx, OFFSET FLAT:??__Fwsinit_@detail@httplib@@YAXXZ ; httplib::detail::`dynamic atexit destructor for 'wsinit_''
	call	atexit
	npad	1
	add	rsp, 40					; 00000028H
	ret	0
??__Ewsinit_@detail@httplib@@YAXXZ ENDP			; httplib::detail::`dynamic initializer for 'wsinit_''
text$di	ENDS
; Function compile flags: /Odtp
; File D:\c++\paoda\Helper\HttpLib\httplib.h
;	COMDAT ??1WSInit@detail@httplib@@QEAA@XZ
_TEXT	SEGMENT
this$ = 48
??1WSInit@detail@httplib@@QEAA@XZ PROC			; httplib::detail::WSInit::~WSInit, COMDAT

; 5284 :             ~WSInit() {

$LN4:
	mov	QWORD PTR [rsp+8], rcx
	sub	rsp, 40					; 00000028H

; 5285 :                 if (is_valid_) WSACleanup();

	mov	rax, QWORD PTR this$[rsp]
	movzx	eax, BYTE PTR [rax]
	test	eax, eax
	je	SHORT $LN2@WSInit
	call	QWORD PTR __imp_WSACleanup
	npad	1
$LN2@WSInit:

; 5286 :             }

	add	rsp, 40					; 00000028H
	ret	0
??1WSInit@detail@httplib@@QEAA@XZ ENDP			; httplib::detail::WSInit::~WSInit
_TEXT	ENDS
; Function compile flags: /Odtp
; File D:\c++\paoda\Helper\HttpLib\httplib.h
;	COMDAT ??0WSInit@detail@httplib@@QEAA@XZ
_TEXT	SEGMENT
wsaData$ = 32
__$ArrayPad$ = 448
this$ = 480
??0WSInit@detail@httplib@@QEAA@XZ PROC			; httplib::detail::WSInit::WSInit, COMDAT

; 5279 :             WSInit() {

$LN4:
	mov	QWORD PTR [rsp+8], rcx
	sub	rsp, 472				; 000001d8H
	mov	rax, QWORD PTR __security_cookie
	xor	rax, rsp
	mov	QWORD PTR __$ArrayPad$[rsp], rax

; 5283 : 
; 5284 :             ~WSInit() {
; 5285 :                 if (is_valid_) WSACleanup();
; 5286 :             }
; 5287 : 
; 5288 :             bool is_valid_ = false;

	mov	rax, QWORD PTR this$[rsp]
	mov	BYTE PTR [rax], 0

; 5280 :                 WSADATA wsaData;
; 5281 :                 if (WSAStartup(0x0002, &wsaData) == 0) is_valid_ = true;

	lea	rdx, QWORD PTR wsaData$[rsp]
	mov	cx, 2
	call	QWORD PTR __imp_WSAStartup
	test	eax, eax
	jne	SHORT $LN2@WSInit
	mov	rax, QWORD PTR this$[rsp]
	mov	BYTE PTR [rax], 1
$LN2@WSInit:

; 5282 :             }

	mov	rax, QWORD PTR this$[rsp]
	mov	rcx, QWORD PTR __$ArrayPad$[rsp]
	xor	rcx, rsp
	call	__security_check_cookie
	add	rsp, 472				; 000001d8H
	ret	0
??0WSInit@detail@httplib@@QEAA@XZ ENDP			; httplib::detail::WSInit::WSInit
_TEXT	ENDS
; Function compile flags: /Odtp
; File D:\c++\paoda\Include\Macro.hpp
;	COMDAT ?Align@@YA_K_K0@Z
_TEXT	SEGMENT
tv69 = 0
val$ = 32
alignment$ = 40
?Align@@YA_K_K0@Z PROC					; Align, COMDAT

; 151  : {

$LN5:
	mov	QWORD PTR [rsp+16], rdx
	mov	QWORD PTR [rsp+8], rcx
	sub	rsp, 24

; 152  : 	return (val % alignment == 0) ? val : (val / alignment + 1) * alignment;

	xor	edx, edx
	mov	rax, QWORD PTR val$[rsp]
	div	QWORD PTR alignment$[rsp]
	mov	rax, rdx
	test	rax, rax
	jne	SHORT $LN3@Align
	mov	rax, QWORD PTR val$[rsp]
	mov	QWORD PTR tv69[rsp], rax
	jmp	SHORT $LN4@Align
$LN3@Align:
	xor	edx, edx
	mov	rax, QWORD PTR val$[rsp]
	div	QWORD PTR alignment$[rsp]
	inc	rax
	imul	rax, QWORD PTR alignment$[rsp]
	mov	QWORD PTR tv69[rsp], rax
$LN4@Align:
	mov	rax, QWORD PTR tv69[rsp]

; 153  : }

	add	rsp, 24
	ret	0
?Align@@YA_K_K0@Z ENDP					; Align
_TEXT	ENDS
; Function compile flags: /Odtp
;	COMDAT ??_H@YAXPEAX_K1P6APEAX0@Z@Z
_TEXT	SEGMENT
tv66 = 32
tv70 = 40
__t$ = 64
__s$ = 72
__n$ = 80
__f$ = 88
??_H@YAXPEAX_K1P6APEAX0@Z@Z PROC			; `vector constructor iterator', COMDAT
$LN5:
	mov	QWORD PTR [rsp+32], r9
	mov	QWORD PTR [rsp+24], r8
	mov	QWORD PTR [rsp+16], rdx
	mov	QWORD PTR [rsp+8], rcx
	sub	rsp, 56					; 00000038H
$LN2@vector:
	mov	rax, QWORD PTR __n$[rsp]
	mov	QWORD PTR tv66[rsp], rax
	mov	rax, QWORD PTR __n$[rsp]
	dec	rax
	mov	QWORD PTR __n$[rsp], rax
	cmp	QWORD PTR tv66[rsp], 0
	jbe	SHORT $LN3@vector
	mov	rax, QWORD PTR __f$[rsp]
	mov	QWORD PTR tv70[rsp], rax
	mov	rcx, QWORD PTR __t$[rsp]
	call	QWORD PTR tv70[rsp]
	mov	rax, QWORD PTR __s$[rsp]
	mov	rcx, QWORD PTR __t$[rsp]
	add	rcx, rax
	mov	rax, rcx
	mov	QWORD PTR __t$[rsp], rax
	jmp	SHORT $LN2@vector
$LN3@vector:
	add	rsp, 56					; 00000038H
	ret	0
??_H@YAXPEAX_K1P6APEAX0@Z@Z ENDP			; `vector constructor iterator'
_TEXT	ENDS
END
