; Listing generated by Microsoft (R) Optimizing Compiler Version 19.43.34810.0 

include listing.inc

INCLUDELIB LIBCMT
INCLUDELIB OLDNAMES

PUBLIC	?getBaseAddress@Runtime@asmjit@@QEBA_KXZ	; asmjit::Runtime::getBaseAddress
PUBLIC	??0CodeGen@asmjit@@QEAA@PEAURuntime@1@@Z	; asmjit::CodeGen::CodeGen
PUBLIC	??1CodeGen@asmjit@@UEAA@XZ			; asmjit::CodeGen::~CodeGen
PUBLIC	?setError@CodeGen@asmjit@@QEAAIIPEBD@Z		; asmjit::CodeGen::setError
PUBLIC	?setErrorHandler@CodeGen@asmjit@@QEAAIPEAUErrorHandler@2@@Z ; asmjit::CodeGen::setErrorHandler
PUBLIC	??_GCodeGen@asmjit@@UEAAPEAXI@Z			; asmjit::CodeGen::`scalar deleting destructor'
PUBLIC	?mask@IntUtil@asmjit@@SAII@Z			; asmjit::IntUtil::mask
PUBLIC	??_7CodeGen@asmjit@@6B@				; asmjit::CodeGen::`vftable'
PUBLIC	??_R4CodeGen@asmjit@@6B@			; asmjit::CodeGen::`RTTI Complete Object Locator'
PUBLIC	??_R0?AUCodeGen@asmjit@@@8			; asmjit::CodeGen `RTTI Type Descriptor'
PUBLIC	??_R3CodeGen@asmjit@@8				; asmjit::CodeGen::`RTTI Class Hierarchy Descriptor'
PUBLIC	??_R2CodeGen@asmjit@@8				; asmjit::CodeGen::`RTTI Base Class Array'
PUBLIC	??_R1A@?0A@EA@CodeGen@asmjit@@8			; asmjit::CodeGen::`RTTI Base Class Descriptor at (0,-1,0,64)'
EXTRN	_purecall:PROC
EXTRN	??3@YAXPEAX_K@Z:PROC				; operator delete
EXTRN	??0Zone@asmjit@@QEAA@_K@Z:PROC			; asmjit::Zone::Zone
EXTRN	??1Zone@asmjit@@QEAA@XZ:PROC			; asmjit::Zone::~Zone
EXTRN	??_ECodeGen@asmjit@@UEAAPEAXI@Z:PROC		; asmjit::CodeGen::`vector deleting destructor'
EXTRN	__CxxFrameHandler4:PROC
EXTRN	??_7type_info@@6B@:BYTE				; type_info::`vftable'
pdata	SEGMENT
$pdata$??0CodeGen@asmjit@@QEAA@PEAURuntime@1@@Z DD imagerel $LN4
	DD	imagerel $LN4+196
	DD	imagerel $unwind$??0CodeGen@asmjit@@QEAA@PEAURuntime@1@@Z
pdata	ENDS
pdata	SEGMENT
$pdata$?dtor$0@?0???0CodeGen@asmjit@@QEAA@PEAURuntime@1@@Z@4HA DD imagerel ?dtor$0@?0???0CodeGen@asmjit@@QEAA@PEAURuntime@1@@Z@4HA
	DD	imagerel ?dtor$0@?0???0CodeGen@asmjit@@QEAA@PEAURuntime@1@@Z@4HA+28
	DD	imagerel $unwind$?dtor$0@?0???0CodeGen@asmjit@@QEAA@PEAURuntime@1@@Z@4HA
pdata	ENDS
pdata	SEGMENT
$pdata$??1CodeGen@asmjit@@UEAA@XZ DD imagerel $LN5
	DD	imagerel $LN5+84
	DD	imagerel $unwind$??1CodeGen@asmjit@@UEAA@XZ
pdata	ENDS
pdata	SEGMENT
$pdata$?dtor$0@?0???1CodeGen@asmjit@@UEAA@XZ@4HA DD imagerel ?dtor$0@?0???1CodeGen@asmjit@@UEAA@XZ@4HA
	DD	imagerel ?dtor$0@?0???1CodeGen@asmjit@@UEAA@XZ@4HA+28
	DD	imagerel $unwind$?dtor$0@?0???1CodeGen@asmjit@@UEAA@XZ@4HA
pdata	ENDS
pdata	SEGMENT
$pdata$?setError@CodeGen@asmjit@@QEAAIIPEBD@Z DD imagerel $LN6
	DD	imagerel $LN6+152
	DD	imagerel $unwind$?setError@CodeGen@asmjit@@QEAAIIPEBD@Z
$pdata$?setErrorHandler@CodeGen@asmjit@@QEAAIPEAUErrorHandler@2@@Z DD imagerel $LN5
	DD	imagerel $LN5+103
	DD	imagerel $unwind$?setErrorHandler@CodeGen@asmjit@@QEAAIPEAUErrorHandler@2@@Z
pdata	ENDS
;	COMDAT pdata
pdata	SEGMENT
$pdata$??_GCodeGen@asmjit@@UEAAPEAXI@Z DD imagerel $LN4
	DD	imagerel $LN4+60
	DD	imagerel $unwind$??_GCodeGen@asmjit@@UEAAPEAXI@Z
pdata	ENDS
;	COMDAT pdata
pdata	SEGMENT
$pdata$?mask@IntUtil@asmjit@@SAII@Z DD imagerel $LN3
	DD	imagerel $LN3+33
	DD	imagerel $unwind$?mask@IntUtil@asmjit@@SAII@Z
pdata	ENDS
;	COMDAT ??_R1A@?0A@EA@CodeGen@asmjit@@8
rdata$r	SEGMENT
??_R1A@?0A@EA@CodeGen@asmjit@@8 DD imagerel ??_R0?AUCodeGen@asmjit@@@8 ; asmjit::CodeGen::`RTTI Base Class Descriptor at (0,-1,0,64)'
	DD	00H
	DD	00H
	DD	0ffffffffH
	DD	00H
	DD	040H
	DD	imagerel ??_R3CodeGen@asmjit@@8
rdata$r	ENDS
;	COMDAT ??_R2CodeGen@asmjit@@8
rdata$r	SEGMENT
??_R2CodeGen@asmjit@@8 DD imagerel ??_R1A@?0A@EA@CodeGen@asmjit@@8 ; asmjit::CodeGen::`RTTI Base Class Array'
	ORG $+3
rdata$r	ENDS
;	COMDAT ??_R3CodeGen@asmjit@@8
rdata$r	SEGMENT
??_R3CodeGen@asmjit@@8 DD 00H				; asmjit::CodeGen::`RTTI Class Hierarchy Descriptor'
	DD	00H
	DD	01H
	DD	imagerel ??_R2CodeGen@asmjit@@8
rdata$r	ENDS
;	COMDAT ??_R0?AUCodeGen@asmjit@@@8
data$rs	SEGMENT
??_R0?AUCodeGen@asmjit@@@8 DQ FLAT:??_7type_info@@6B@	; asmjit::CodeGen `RTTI Type Descriptor'
	DQ	0000000000000000H
	DB	'.?AUCodeGen@asmjit@@', 00H
data$rs	ENDS
;	COMDAT ??_R4CodeGen@asmjit@@6B@
rdata$r	SEGMENT
??_R4CodeGen@asmjit@@6B@ DD 01H				; asmjit::CodeGen::`RTTI Complete Object Locator'
	DD	00H
	DD	00H
	DD	imagerel ??_R0?AUCodeGen@asmjit@@@8
	DD	imagerel ??_R3CodeGen@asmjit@@8
	DD	imagerel ??_R4CodeGen@asmjit@@6B@
rdata$r	ENDS
;	COMDAT ?noMessage@?7??setError@CodeGen@asmjit@@QEAAIIPEBD@Z@4QBDB
CONST	SEGMENT
?noMessage@?7??setError@CodeGen@asmjit@@QEAAIIPEBD@Z@4QBDB DB 00H ; `asmjit::CodeGen::setError'::`8'::noMessage
CONST	ENDS
;	COMDAT ??_7CodeGen@asmjit@@6B@
CONST	SEGMENT
??_7CodeGen@asmjit@@6B@ DQ FLAT:??_R4CodeGen@asmjit@@6B@ ; asmjit::CodeGen::`vftable'
	DQ	FLAT:??_ECodeGen@asmjit@@UEAAPEAXI@Z
	DQ	FLAT:_purecall
CONST	ENDS
;	COMDAT xdata
xdata	SEGMENT
$unwind$?mask@IntUtil@asmjit@@SAII@Z DD 010801H
	DD	02208H
xdata	ENDS
;	COMDAT xdata
xdata	SEGMENT
$unwind$??_GCodeGen@asmjit@@UEAAPEAXI@Z DD 010d01H
	DD	0420dH
xdata	ENDS
xdata	SEGMENT
$unwind$??0CodeGen@asmjit@@QEAA@PEAURuntime@1@@Z DD 010e11H
	DD	0620eH
	DD	imagerel __CxxFrameHandler4
	DD	imagerel $cppxdata$??0CodeGen@asmjit@@QEAA@PEAURuntime@1@@Z
$cppxdata$??0CodeGen@asmjit@@QEAA@PEAURuntime@1@@Z DB 08H
	DD	imagerel $stateUnwindMap$??0CodeGen@asmjit@@QEAA@PEAURuntime@1@@Z
	DD	imagerel $ip2state$??0CodeGen@asmjit@@QEAA@PEAURuntime@1@@Z
$stateUnwindMap$??0CodeGen@asmjit@@QEAA@PEAURuntime@1@@Z DB 02H
	DB	0eH
	DD	imagerel ?dtor$0@?0???0CodeGen@asmjit@@QEAA@PEAURuntime@1@@Z@4HA
$ip2state$??0CodeGen@asmjit@@QEAA@PEAURuntime@1@@Z DB 02H
	DB	00H
	DB	00H
	ORG $+2
$unwind$?dtor$0@?0???0CodeGen@asmjit@@QEAA@PEAURuntime@1@@Z@4HA DD 020601H
	DD	050023206H
$unwind$??1CodeGen@asmjit@@UEAA@XZ DD 010919H
	DD	04209H
	DD	imagerel __CxxFrameHandler4
	DD	imagerel $cppxdata$??1CodeGen@asmjit@@UEAA@XZ
$cppxdata$??1CodeGen@asmjit@@UEAA@XZ DB 048H
	DD	imagerel $stateUnwindMap$??1CodeGen@asmjit@@UEAA@XZ
	DD	imagerel $ip2state$??1CodeGen@asmjit@@UEAA@XZ
$stateUnwindMap$??1CodeGen@asmjit@@UEAA@XZ DB 02H
	DB	0eH
	DD	imagerel ?dtor$0@?0???1CodeGen@asmjit@@UEAA@XZ@4HA
$ip2state$??1CodeGen@asmjit@@UEAA@XZ DB 06H
	DB	00H
	DB	00H
	DB	'0'
	DB	02H
	DB	'J'
	DB	00H
	ORG $+2
$unwind$?dtor$0@?0???1CodeGen@asmjit@@UEAA@XZ@4HA DD 020601H
	DD	050023206H
$unwind$?setError@CodeGen@asmjit@@QEAAIIPEBD@Z DD 011201H
	DD	06212H
$unwind$?setErrorHandler@CodeGen@asmjit@@QEAAIPEAUErrorHandler@2@@Z DD 010e01H
	DD	0620eH
xdata	ENDS
; Function compile flags: /Odtp
; File D:\c++\paoda\ThirdParty\AsmJit\base\intutil.h
;	COMDAT ?mask@IntUtil@asmjit@@SAII@Z
_TEXT	SEGMENT
tv67 = 0
x$ = 32
?mask@IntUtil@asmjit@@SAII@Z PROC			; asmjit::IntUtil::mask, COMDAT

; 216  :   static ASMJIT_INLINE uint32_t mask(uint32_t x) {

$LN3:
	mov	DWORD PTR [rsp+8], ecx
	sub	rsp, 24

; 217  :     ASMJIT_ASSERT(x < 32);
; 218  :     return (1U << x);

	mov	eax, DWORD PTR x$[rsp]
	mov	ecx, 1
	mov	DWORD PTR tv67[rsp], ecx
	movzx	ecx, al
	mov	eax, DWORD PTR tv67[rsp]
	shl	eax, cl

; 219  :   }

	add	rsp, 24
	ret	0
?mask@IntUtil@asmjit@@SAII@Z ENDP			; asmjit::IntUtil::mask
_TEXT	ENDS
; Function compile flags: /Odtp
;	COMDAT ??_GCodeGen@asmjit@@UEAAPEAXI@Z
_TEXT	SEGMENT
this$ = 48
__flags$ = 56
??_GCodeGen@asmjit@@UEAAPEAXI@Z PROC			; asmjit::CodeGen::`scalar deleting destructor', COMDAT
$LN4:
	mov	DWORD PTR [rsp+16], edx
	mov	QWORD PTR [rsp+8], rcx
	sub	rsp, 40					; 00000028H
	mov	rcx, QWORD PTR this$[rsp]
	call	??1CodeGen@asmjit@@UEAA@XZ		; asmjit::CodeGen::~CodeGen
	mov	eax, DWORD PTR __flags$[rsp]
	and	eax, 1
	test	eax, eax
	je	SHORT $LN2@scalar
	mov	edx, 72					; 00000048H
	mov	rcx, QWORD PTR this$[rsp]
	call	??3@YAXPEAX_K@Z				; operator delete
	npad	1
$LN2@scalar:
	mov	rax, QWORD PTR this$[rsp]
	add	rsp, 40					; 00000028H
	ret	0
??_GCodeGen@asmjit@@UEAAPEAXI@Z ENDP			; asmjit::CodeGen::`scalar deleting destructor'
_TEXT	ENDS
; Function compile flags: /Odtp
; File D:\c++\paoda\ThirdParty\AsmJit\base\codegen.cpp
_TEXT	SEGMENT
oldHandler$ = 32
this$ = 64
handler$ = 72
?setErrorHandler@CodeGen@asmjit@@QEAAIPEAUErrorHandler@2@@Z PROC ; asmjit::CodeGen::setErrorHandler

; 95   : Error CodeGen::setErrorHandler(ErrorHandler* handler) {

$LN5:
	mov	QWORD PTR [rsp+16], rdx
	mov	QWORD PTR [rsp+8], rcx
	sub	rsp, 56					; 00000038H

; 96   :   ErrorHandler* oldHandler = _errorHandler;

	mov	rax, QWORD PTR this$[rsp]
	mov	rax, QWORD PTR [rax+24]
	mov	QWORD PTR oldHandler$[rsp], rax

; 97   : 
; 98   :   if (oldHandler != NULL)

	cmp	QWORD PTR oldHandler$[rsp], 0
	je	SHORT $LN2@setErrorHa

; 99   :     oldHandler->release();

	mov	rax, QWORD PTR oldHandler$[rsp]
	mov	rax, QWORD PTR [rax]
	mov	rcx, QWORD PTR oldHandler$[rsp]
	call	QWORD PTR [rax+16]
	npad	1
$LN2@setErrorHa:

; 100  : 
; 101  :   if (handler != NULL)

	cmp	QWORD PTR handler$[rsp], 0
	je	SHORT $LN3@setErrorHa

; 102  :     handler = handler->addRef();

	mov	rax, QWORD PTR handler$[rsp]
	mov	rax, QWORD PTR [rax]
	mov	rcx, QWORD PTR handler$[rsp]
	call	QWORD PTR [rax+8]
	mov	QWORD PTR handler$[rsp], rax
$LN3@setErrorHa:

; 103  : 
; 104  :   _errorHandler = handler;

	mov	rax, QWORD PTR this$[rsp]
	mov	rcx, QWORD PTR handler$[rsp]
	mov	QWORD PTR [rax+24], rcx

; 105  :   return kErrorOk;

	xor	eax, eax

; 106  : }

	add	rsp, 56					; 00000038H
	ret	0
?setErrorHandler@CodeGen@asmjit@@QEAAIPEAUErrorHandler@2@@Z ENDP ; asmjit::CodeGen::setErrorHandler
_TEXT	ENDS
; Function compile flags: /Odtp
; File D:\c++\paoda\ThirdParty\AsmJit\base\codegen.cpp
_TEXT	SEGMENT
handler$ = 32
tv76 = 40
this$ = 64
error$ = 72
message$ = 80
?setError@CodeGen@asmjit@@QEAAIIPEBD@Z PROC		; asmjit::CodeGen::setError

; 56   : Error CodeGen::setError(Error error, const char* message) {

$LN6:
	mov	QWORD PTR [rsp+24], r8
	mov	DWORD PTR [rsp+16], edx
	mov	QWORD PTR [rsp+8], rcx
	sub	rsp, 56					; 00000038H

; 57   :   if (error == kErrorOk)  {

	cmp	DWORD PTR error$[rsp], 0
	jne	SHORT $LN2@setError

; 58   :     _error = kErrorOk;

	mov	rax, QWORD PTR this$[rsp]
	mov	DWORD PTR [rax+52], 0

; 59   :     return kErrorOk;

	xor	eax, eax
	jmp	SHORT $LN1@setError
$LN2@setError:

; 60   :   }
; 61   : 
; 62   :   if (message == NULL) {

	cmp	QWORD PTR message$[rsp], 0
	jne	SHORT $LN3@setError

; 63   : #if !defined(ASMJIT_DISABLE_NAMES)
; 64   :     message = ErrorUtil::asString(error);
; 65   : #else
; 66   :     static const char noMessage[] = "";
; 67   :     message = noMessage;

	lea	rax, OFFSET FLAT:?noMessage@?7??setError@CodeGen@asmjit@@QEAAIIPEBD@Z@4QBDB
	mov	QWORD PTR message$[rsp], rax
$LN3@setError:

; 68   : #endif // ASMJIT_DISABLE_NAMES
; 69   :   }
; 70   : 
; 71   :   // Error handler is called before logger so logging can be skipped if error
; 72   :   // has been handled.
; 73   :   ErrorHandler* handler = _errorHandler;

	mov	rax, QWORD PTR this$[rsp]
	mov	rax, QWORD PTR [rax+24]
	mov	QWORD PTR handler$[rsp], rax

; 74   :   ASMJIT_TLOG("[ERROR] %s %s\n", message, !handler ? "(Possibly unhandled?)" : "");
; 75   : 
; 76   :   if (handler != NULL && handler->handleError(error, message))

	cmp	QWORD PTR handler$[rsp], 0
	je	SHORT $LN4@setError
	mov	rax, QWORD PTR handler$[rsp]
	mov	rax, QWORD PTR [rax]
	mov	rax, QWORD PTR [rax+24]
	mov	QWORD PTR tv76[rsp], rax
	mov	r8, QWORD PTR message$[rsp]
	mov	edx, DWORD PTR error$[rsp]
	mov	rcx, QWORD PTR handler$[rsp]
	call	QWORD PTR tv76[rsp]
	movzx	eax, al
	test	eax, eax
	je	SHORT $LN4@setError

; 77   :     return error;

	mov	eax, DWORD PTR error$[rsp]
	jmp	SHORT $LN1@setError
$LN4@setError:

; 78   : 
; 79   : #if !defined(ASMJIT_DISABLE_LOGGER)
; 80   :   Logger* logger = _logger;
; 81   :   if (logger != NULL) {
; 82   :     logger->logFormat(kLoggerStyleComment,
; 83   :       "*** ERROR: %s (%u).\n", message, static_cast<unsigned int>(error));
; 84   :   }
; 85   : #endif // !ASMJIT_DISABLE_LOGGER
; 86   : 
; 87   :   // The handler->handleError() function may throw an exception or longjmp()
; 88   :   // to terminate the execution of setError(). This is the reason why we have
; 89   :   // delayed changing the _error member until now.
; 90   :   _error = error;

	mov	rax, QWORD PTR this$[rsp]
	mov	ecx, DWORD PTR error$[rsp]
	mov	DWORD PTR [rax+52], ecx

; 91   : 
; 92   :   return error;

	mov	eax, DWORD PTR error$[rsp]
$LN1@setError:

; 93   : }

	add	rsp, 56					; 00000038H
	ret	0
?setError@CodeGen@asmjit@@QEAAIIPEBD@Z ENDP		; asmjit::CodeGen::setError
_TEXT	ENDS
; Function compile flags: /Odtp
; File D:\c++\paoda\ThirdParty\AsmJit\base\codegen.cpp
_TEXT	SEGMENT
this$ = 48
??1CodeGen@asmjit@@UEAA@XZ PROC				; asmjit::CodeGen::~CodeGen

; 36   : CodeGen::~CodeGen() {

$LN5:
	mov	QWORD PTR [rsp+8], rcx
	sub	rsp, 40					; 00000028H
	mov	rax, QWORD PTR this$[rsp]
	lea	rcx, OFFSET FLAT:??_7CodeGen@asmjit@@6B@
	mov	QWORD PTR [rax], rcx

; 37   :   if (_errorHandler != NULL)

	mov	rax, QWORD PTR this$[rsp]
	cmp	QWORD PTR [rax+24], 0
	je	SHORT $LN2@CodeGen

; 38   :     _errorHandler->release();

	mov	rax, QWORD PTR this$[rsp]
	mov	rax, QWORD PTR [rax+24]
	mov	rcx, QWORD PTR this$[rsp]
	mov	rcx, QWORD PTR [rcx+24]
	mov	rax, QWORD PTR [rax]
	call	QWORD PTR [rax+16]
	npad	1
$LN2@CodeGen:

; 39   : }

	mov	rax, QWORD PTR this$[rsp]
	add	rax, 56					; 00000038H
	mov	rcx, rax
	call	??1Zone@asmjit@@QEAA@XZ			; asmjit::Zone::~Zone
	npad	1
	add	rsp, 40					; 00000028H
	ret	0
??1CodeGen@asmjit@@UEAA@XZ ENDP				; asmjit::CodeGen::~CodeGen
_TEXT	ENDS
; Function compile flags: /Odtp
text$x	SEGMENT
this$ = 48
?dtor$0@?0???1CodeGen@asmjit@@UEAA@XZ@4HA PROC		; `asmjit::CodeGen::~CodeGen'::`1'::dtor$0
	push	rbp
	sub	rsp, 32					; 00000020H
	mov	rbp, rdx
	mov	rcx, QWORD PTR this$[rbp]
	add	rcx, 56					; 00000038H
	call	??1Zone@asmjit@@QEAA@XZ			; asmjit::Zone::~Zone
	add	rsp, 32					; 00000020H
	pop	rbp
	ret	0
?dtor$0@?0???1CodeGen@asmjit@@UEAA@XZ@4HA ENDP		; `asmjit::CodeGen::~CodeGen'::`1'::dtor$0
text$x	ENDS
; Function compile flags: /Odtp
; File D:\c++\paoda\ThirdParty\AsmJit\base\codegen.cpp
_TEXT	SEGMENT
tv84 = 32
this$ = 64
runtime$ = 72
??0CodeGen@asmjit@@QEAA@PEAURuntime@1@@Z PROC		; asmjit::CodeGen::CodeGen

; 34   :   _baseZone(16384 - kZoneOverhead) {}

$LN4:
	mov	QWORD PTR [rsp+16], rdx
	mov	QWORD PTR [rsp+8], rcx
	sub	rsp, 56					; 00000038H
	mov	rax, QWORD PTR this$[rsp]
	lea	rcx, OFFSET FLAT:??_7CodeGen@asmjit@@6B@
	mov	QWORD PTR [rax], rcx

; 24   :   _runtime(runtime),

	mov	rax, QWORD PTR this$[rsp]
	mov	rcx, QWORD PTR runtime$[rsp]
	mov	QWORD PTR [rax+8], rcx

; 25   :   _logger(NULL),

	mov	rax, QWORD PTR this$[rsp]
	mov	QWORD PTR [rax+16], 0

; 26   :   _errorHandler(NULL),

	mov	rax, QWORD PTR this$[rsp]
	mov	QWORD PTR [rax+24], 0

; 27   :   _baseAddress(runtime->getBaseAddress()),

	mov	rcx, QWORD PTR runtime$[rsp]
	call	?getBaseAddress@Runtime@asmjit@@QEBA_KXZ ; asmjit::Runtime::getBaseAddress
	mov	rcx, QWORD PTR this$[rsp]
	mov	QWORD PTR [rcx+32], rax

; 28   :   _arch(kArchNone),

	mov	rax, QWORD PTR this$[rsp]
	mov	BYTE PTR [rax+40], 0

; 29   :   _regSize(0),

	mov	rax, QWORD PTR this$[rsp]
	mov	BYTE PTR [rax+41], 0

; 30   :   _reserved(0),

	xor	eax, eax
	mov	rcx, QWORD PTR this$[rsp]
	mov	WORD PTR [rcx+42], ax

; 31   :   _features(IntUtil::mask(kCodeGenOptimizedAlign)),

	xor	ecx, ecx
	call	?mask@IntUtil@asmjit@@SAII@Z		; asmjit::IntUtil::mask
	mov	rcx, QWORD PTR this$[rsp]
	mov	DWORD PTR [rcx+44], eax

; 32   :   _instOptions(0),

	mov	rax, QWORD PTR this$[rsp]
	mov	DWORD PTR [rax+48], 0

; 33   :   _error(kErrorOk),

	mov	rax, QWORD PTR this$[rsp]
	mov	DWORD PTR [rax+52], 0

; 34   :   _baseZone(16384 - kZoneOverhead) {}

	mov	rax, QWORD PTR this$[rsp]
	add	rax, 56					; 00000038H
	mov	QWORD PTR tv84[rsp], rax
	mov	edx, 16320				; 00003fc0H
	mov	rcx, QWORD PTR tv84[rsp]
	call	??0Zone@asmjit@@QEAA@_K@Z		; asmjit::Zone::Zone
	npad	1
	mov	rax, QWORD PTR this$[rsp]
	add	rsp, 56					; 00000038H
	ret	0
??0CodeGen@asmjit@@QEAA@PEAURuntime@1@@Z ENDP		; asmjit::CodeGen::CodeGen
_TEXT	ENDS
; Function compile flags: /Odtp
text$x	SEGMENT
tv84 = 32
this$ = 64
runtime$ = 72
?dtor$0@?0???0CodeGen@asmjit@@QEAA@PEAURuntime@1@@Z@4HA PROC ; `asmjit::CodeGen::CodeGen'::`1'::dtor$0
	push	rbp
	sub	rsp, 32					; 00000020H
	mov	rbp, rdx
	mov	rcx, QWORD PTR this$[rbp]
	add	rcx, 56					; 00000038H
	call	??1Zone@asmjit@@QEAA@XZ			; asmjit::Zone::~Zone
	add	rsp, 32					; 00000020H
	pop	rbp
	ret	0
?dtor$0@?0???0CodeGen@asmjit@@QEAA@PEAURuntime@1@@Z@4HA ENDP ; `asmjit::CodeGen::CodeGen'::`1'::dtor$0
text$x	ENDS
; Function compile flags: /Odtp
; File D:\c++\paoda\ThirdParty\AsmJit\base\runtime.h
;	COMDAT ?getBaseAddress@Runtime@asmjit@@QEBA_KXZ
_TEXT	SEGMENT
this$ = 8
?getBaseAddress@Runtime@asmjit@@QEBA_KXZ PROC		; asmjit::Runtime::getBaseAddress, COMDAT

; 75   :   ASMJIT_INLINE Ptr getBaseAddress() const {

	mov	QWORD PTR [rsp+8], rcx

; 76   :     return _baseAddress;

	mov	rax, QWORD PTR this$[rsp]
	mov	rax, QWORD PTR [rax+16]

; 77   :   }

	ret	0
?getBaseAddress@Runtime@asmjit@@QEBA_KXZ ENDP		; asmjit::Runtime::getBaseAddress
_TEXT	ENDS
END
