; Listing generated by Microsoft (R) Optimizing Compiler Version 19.43.34810.0 

include listing.inc

INCLUDELIB LIBCMT
INCLUDELIB OLDNAMES

PUBLIC	??_C@_06GLKGGCJO@LcOpen@			; `string'
PUBLIC	??_C@_06GJPHNGFG@LcRead@			; `string'
PUBLIC	??_C@_0O@CBBNAKKC@LcReadScatter@		; `string'
PUBLIC	??_C@_07MBHEMNEL@LcWrite@			; `string'
PUBLIC	??_C@_0P@DAJMPOFM@LcWriteScatter@		; `string'
PUBLIC	??_C@_0M@HBBFEIGD@LcGetOption@			; `string'
PUBLIC	??_C@_0M@FPFAGJPB@LcSetOption@			; `string'
PUBLIC	??_C@_09DCHLEDFD@LcCommand@			; `string'
PUBLIC	??_C@_03HPADHAHE@N?1A@				; `string'
PUBLIC	??_C@_03HDGGCCPD@X86@				; `string'
PUBLIC	??_C@_06IDLKBMKC@X86PAE@			; `string'
PUBLIC	??_C@_03ELMOGNHL@X64@				; `string'
PUBLIC	??_C@_05DKFIPBAL@ARM64@				; `string'
PUBLIC	??_C@_04PCJGBDOP@Zero@				; `string'
PUBLIC	??_C@_04HJMOFLDF@Free@				; `string'
PUBLIC	??_C@_07LNBDIIPN@Standby@			; `string'
PUBLIC	??_C@_07PFEKAJBJ@Modifiy@			; `string'
PUBLIC	??_C@_07DGKCKENG@ModNoWr@			; `string'
PUBLIC	??_C@_03KHCCLPOB@Bad@				; `string'
PUBLIC	??_C@_06MAFFGDO@Active@				; `string'
PUBLIC	??_C@_07KADDEKFE@Transit@			; `string'
PUBLIC	??_C@_01JOAMLHOP@?9@				; `string'
PUBLIC	??_C@_06CGLFEPBO@Unused@			; `string'
PUBLIC	??_C@_08LBAJPEDB@ProcPriv@			; `string'
PUBLIC	??_C@_09BGPMMIPE@PageTable@			; `string'
PUBLIC	??_C@_09MFCNICMF@LargePage@			; `string'
PUBLIC	??_C@_0L@DHBAIELD@DriverLock@			; `string'
PUBLIC	??_C@_09PKFILKGD@Shareable@			; `string'
PUBLIC	??_C@_04PBAHLACE@File@				; `string'
PUBLIC	_Avx2WmemEnabledWeakValue
PUBLIC	?Config@Core@IronMan@@3PEAVCConfig@12@EA	; IronMan::Core::Config
PUBLIC	?ThreadSaveHandle@Core@IronMan@@3PEAXEA		; IronMan::Core::ThreadSaveHandle
;	COMDAT _Avx2WmemEnabledWeakValue
_BSS	SEGMENT
_Avx2WmemEnabledWeakValue DD 01H DUP (?)
_BSS	ENDS
_BSS	SEGMENT
?Config@Core@IronMan@@3PEAVCConfig@12@EA DQ 01H DUP (?)	; IronMan::Core::Config
?ThreadSaveHandle@Core@IronMan@@3PEAXEA DQ 01H DUP (?)	; IronMan::Core::ThreadSaveHandle
_BSS	ENDS
;	COMDAT ??_C@_04PBAHLACE@File@
CONST	SEGMENT
??_C@_04PBAHLACE@File@ DB 'File', 00H			; `string'
CONST	ENDS
;	COMDAT ??_C@_09PKFILKGD@Shareable@
CONST	SEGMENT
??_C@_09PKFILKGD@Shareable@ DB 'Shareable', 00H		; `string'
CONST	ENDS
;	COMDAT ??_C@_0L@DHBAIELD@DriverLock@
CONST	SEGMENT
??_C@_0L@DHBAIELD@DriverLock@ DB 'DriverLock', 00H	; `string'
CONST	ENDS
;	COMDAT ??_C@_09MFCNICMF@LargePage@
CONST	SEGMENT
??_C@_09MFCNICMF@LargePage@ DB 'LargePage', 00H		; `string'
CONST	ENDS
;	COMDAT ??_C@_09BGPMMIPE@PageTable@
CONST	SEGMENT
??_C@_09BGPMMIPE@PageTable@ DB 'PageTable', 00H		; `string'
CONST	ENDS
;	COMDAT ??_C@_08LBAJPEDB@ProcPriv@
CONST	SEGMENT
??_C@_08LBAJPEDB@ProcPriv@ DB 'ProcPriv', 00H		; `string'
CONST	ENDS
;	COMDAT ??_C@_06CGLFEPBO@Unused@
CONST	SEGMENT
??_C@_06CGLFEPBO@Unused@ DB 'Unused', 00H		; `string'
CONST	ENDS
;	COMDAT ??_C@_01JOAMLHOP@?9@
CONST	SEGMENT
??_C@_01JOAMLHOP@?9@ DB '-', 00H			; `string'
CONST	ENDS
;	COMDAT ??_C@_07KADDEKFE@Transit@
CONST	SEGMENT
??_C@_07KADDEKFE@Transit@ DB 'Transit', 00H		; `string'
CONST	ENDS
;	COMDAT ??_C@_06MAFFGDO@Active@
CONST	SEGMENT
??_C@_06MAFFGDO@Active@ DB 'Active', 00H		; `string'
CONST	ENDS
;	COMDAT ??_C@_03KHCCLPOB@Bad@
CONST	SEGMENT
??_C@_03KHCCLPOB@Bad@ DB 'Bad', 00H			; `string'
CONST	ENDS
;	COMDAT ??_C@_07DGKCKENG@ModNoWr@
CONST	SEGMENT
??_C@_07DGKCKENG@ModNoWr@ DB 'ModNoWr', 00H		; `string'
CONST	ENDS
;	COMDAT ??_C@_07PFEKAJBJ@Modifiy@
CONST	SEGMENT
??_C@_07PFEKAJBJ@Modifiy@ DB 'Modifiy', 00H		; `string'
CONST	ENDS
;	COMDAT ??_C@_07LNBDIIPN@Standby@
CONST	SEGMENT
??_C@_07LNBDIIPN@Standby@ DB 'Standby', 00H		; `string'
CONST	ENDS
;	COMDAT ??_C@_04HJMOFLDF@Free@
CONST	SEGMENT
??_C@_04HJMOFLDF@Free@ DB 'Free', 00H			; `string'
CONST	ENDS
;	COMDAT ??_C@_04PCJGBDOP@Zero@
CONST	SEGMENT
??_C@_04PCJGBDOP@Zero@ DB 'Zero', 00H			; `string'
CONST	ENDS
;	COMDAT ??_C@_05DKFIPBAL@ARM64@
CONST	SEGMENT
??_C@_05DKFIPBAL@ARM64@ DB 'ARM64', 00H			; `string'
CONST	ENDS
;	COMDAT ??_C@_03ELMOGNHL@X64@
CONST	SEGMENT
??_C@_03ELMOGNHL@X64@ DB 'X64', 00H			; `string'
CONST	ENDS
;	COMDAT ??_C@_06IDLKBMKC@X86PAE@
CONST	SEGMENT
??_C@_06IDLKBMKC@X86PAE@ DB 'X86PAE', 00H		; `string'
CONST	ENDS
;	COMDAT ??_C@_03HDGGCCPD@X86@
CONST	SEGMENT
??_C@_03HDGGCCPD@X86@ DB 'X86', 00H			; `string'
CONST	ENDS
;	COMDAT ??_C@_03HPADHAHE@N?1A@
CONST	SEGMENT
??_C@_03HPADHAHE@N?1A@ DB 'N/A', 00H			; `string'
CONST	ENDS
;	COMDAT ??_C@_09DCHLEDFD@LcCommand@
CONST	SEGMENT
??_C@_09DCHLEDFD@LcCommand@ DB 'LcCommand', 00H		; `string'
CONST	ENDS
;	COMDAT ??_C@_0M@FPFAGJPB@LcSetOption@
CONST	SEGMENT
??_C@_0M@FPFAGJPB@LcSetOption@ DB 'LcSetOption', 00H	; `string'
CONST	ENDS
;	COMDAT ??_C@_0M@HBBFEIGD@LcGetOption@
CONST	SEGMENT
??_C@_0M@HBBFEIGD@LcGetOption@ DB 'LcGetOption', 00H	; `string'
CONST	ENDS
;	COMDAT ??_C@_0P@DAJMPOFM@LcWriteScatter@
CONST	SEGMENT
??_C@_0P@DAJMPOFM@LcWriteScatter@ DB 'LcWriteScatter', 00H ; `string'
CONST	ENDS
;	COMDAT ??_C@_07MBHEMNEL@LcWrite@
CONST	SEGMENT
??_C@_07MBHEMNEL@LcWrite@ DB 'LcWrite', 00H		; `string'
CONST	ENDS
;	COMDAT ??_C@_0O@CBBNAKKC@LcReadScatter@
CONST	SEGMENT
??_C@_0O@CBBNAKKC@LcReadScatter@ DB 'LcReadScatter', 00H ; `string'
CONST	ENDS
;	COMDAT ??_C@_06GJPHNGFG@LcRead@
CONST	SEGMENT
??_C@_06GJPHNGFG@LcRead@ DB 'LcRead', 00H		; `string'
CONST	ENDS
;	COMDAT ??_C@_06GLKGGCJO@LcOpen@
CONST	SEGMENT
??_C@_06GLKGGCJO@LcOpen@ DB 'LcOpen', 00H		; `string'
CONST	ENDS
PUBLIC	??_H@YAXPEAX_K1P6APEAX0@Z@Z			; `vector constructor iterator'
PUBLIC	??2@YAPEAX_KPEAX@Z				; operator new
PUBLIC	__local_stdio_printf_options
PUBLIC	_vsprintf_s_l
PUBLIC	_vscprintf_l
PUBLIC	sprintf_s
PUBLIC	_scprintf
PUBLIC	?copy@?$_Char_traits@DH@std@@SAPEADQEADQEBD_K@Z	; std::_Char_traits<char,int>::copy
PUBLIC	?move@?$_Char_traits@DH@std@@SAPEADQEADQEBD_K@Z	; std::_Char_traits<char,int>::move
PUBLIC	?length@?$_Narrow_char_traits@DH@std@@SA_KQEBD@Z ; std::_Narrow_char_traits<char,int>::length
PUBLIC	?assign@?$_Narrow_char_traits@DH@std@@SAPEADQEAD_KD@Z ; std::_Narrow_char_traits<char,int>::assign
PUBLIC	?assign@?$_Narrow_char_traits@DH@std@@SAXAEADAEBD@Z ; std::_Narrow_char_traits<char,int>::assign
PUBLIC	??0exception@std@@QEAA@QEBDH@Z			; std::exception::exception
PUBLIC	??0exception@std@@QEAA@AEBV01@@Z		; std::exception::exception
PUBLIC	??1exception@std@@UEAA@XZ			; std::exception::~exception
PUBLIC	?what@exception@std@@UEBAPEBDXZ			; std::exception::what
PUBLIC	??_Gexception@std@@UEAAPEAXI@Z			; std::exception::`scalar deleting destructor'
PUBLIC	??0bad_alloc@std@@AEAA@QEBD@Z			; std::bad_alloc::bad_alloc
PUBLIC	??1bad_alloc@std@@UEAA@XZ			; std::bad_alloc::~bad_alloc
PUBLIC	??0bad_alloc@std@@QEAA@AEBV01@@Z		; std::bad_alloc::bad_alloc
PUBLIC	??_Gbad_alloc@std@@UEAAPEAXI@Z			; std::bad_alloc::`scalar deleting destructor'
PUBLIC	??0bad_array_new_length@std@@QEAA@XZ		; std::bad_array_new_length::bad_array_new_length
PUBLIC	??1bad_array_new_length@std@@UEAA@XZ		; std::bad_array_new_length::~bad_array_new_length
PUBLIC	??0bad_array_new_length@std@@QEAA@AEBV01@@Z	; std::bad_array_new_length::bad_array_new_length
PUBLIC	??_Gbad_array_new_length@std@@UEAAPEAXI@Z	; std::bad_array_new_length::`scalar deleting destructor'
PUBLIC	?_Throw_bad_array_new_length@std@@YAXXZ		; std::_Throw_bad_array_new_length
PUBLIC	?_Allocate@_Default_allocate_traits@std@@SAPEAX_K@Z ; std::_Default_allocate_traits::_Allocate
PUBLIC	?_Adjust_manually_vector_aligned@std@@YAXAEAPEAXAEA_K@Z ; std::_Adjust_manually_vector_aligned
PUBLIC	?_Orphan_all@_Container_base0@std@@QEAAXXZ	; std::_Container_base0::_Orphan_all
PUBLIC	?_Swap_proxy_and_iterators@_Container_base0@std@@QEAAXAEAU12@@Z ; std::_Container_base0::_Swap_proxy_and_iterators
PUBLIC	?_Alloc_proxy@_Container_base0@std@@QEAAXAEBU_Fake_allocator@2@@Z ; std::_Container_base0::_Alloc_proxy
PUBLIC	??0_Fake_proxy_ptr_impl@std@@QEAA@AEBU_Fake_allocator@1@AEBU_Container_base0@1@@Z ; std::_Fake_proxy_ptr_impl::_Fake_proxy_ptr_impl
PUBLIC	?_Release@_Fake_proxy_ptr_impl@std@@QEAAXXZ	; std::_Fake_proxy_ptr_impl::_Release
PUBLIC	?_Xlen_string@std@@YAXXZ			; std::_Xlen_string
PUBLIC	??0?$allocator@D@std@@QEAA@XZ			; std::allocator<char>::allocator<char>
PUBLIC	?deallocate@?$allocator@D@std@@QEAAXQEAD_K@Z	; std::allocator<char>::deallocate
PUBLIC	?allocate@?$allocator@D@std@@QEAAPEAD_K@Z	; std::allocator<char>::allocate
PUBLIC	?max_size@?$_Default_allocator_traits@V?$allocator@D@std@@@std@@SA_KAEBV?$allocator@D@2@@Z ; std::_Default_allocator_traits<std::allocator<char> >::max_size
PUBLIC	?select_on_container_copy_construction@?$_Default_allocator_traits@V?$allocator@D@std@@@std@@SA?AV?$allocator@D@2@AEBV32@@Z ; std::_Default_allocator_traits<std::allocator<char> >::select_on_container_copy_construction
PUBLIC	??0?$_String_val@U?$_Simple_types@D@std@@@std@@QEAA@XZ ; std::_String_val<std::_Simple_types<char> >::_String_val<std::_Simple_types<char> >
PUBLIC	?_Myptr@?$_String_val@U?$_Simple_types@D@std@@@std@@QEAAPEADXZ ; std::_String_val<std::_Simple_types<char> >::_Myptr
PUBLIC	?_Myptr@?$_String_val@U?$_Simple_types@D@std@@@std@@QEBAPEBDXZ ; std::_String_val<std::_Simple_types<char> >::_Myptr
PUBLIC	?_Large_mode_engaged@?$_String_val@U?$_Simple_types@D@std@@@std@@QEBA_NXZ ; std::_String_val<std::_Simple_types<char> >::_Large_mode_engaged
PUBLIC	?_Activate_SSO_buffer@?$_String_val@U?$_Simple_types@D@std@@@std@@QEAAXXZ ; std::_String_val<std::_Simple_types<char> >::_Activate_SSO_buffer
PUBLIC	??0_Bxty@?$_String_val@U?$_Simple_types@D@std@@@std@@QEAA@XZ ; std::_String_val<std::_Simple_types<char> >::_Bxty::_Bxty
PUBLIC	??1_Bxty@?$_String_val@U?$_Simple_types@D@std@@@std@@QEAA@XZ ; std::_String_val<std::_Simple_types<char> >::_Bxty::~_Bxty
PUBLIC	?_Switch_to_buf@_Bxty@?$_String_val@U?$_Simple_types@D@std@@@std@@QEAAXXZ ; std::_String_val<std::_Simple_types<char> >::_Bxty::_Switch_to_buf
PUBLIC	??1?$_String_val@U?$_Simple_types@D@std@@@std@@QEAA@XZ ; std::_String_val<std::_Simple_types<char> >::~_String_val<std::_Simple_types<char> >
PUBLIC	??0?$basic_string@DU?$char_traits@D@std@@V?$allocator@D@2@@std@@QEAA@XZ ; std::basic_string<char,std::char_traits<char>,std::allocator<char> >::basic_string<char,std::char_traits<char>,std::allocator<char> >
PUBLIC	??0?$basic_string@DU?$char_traits@D@std@@V?$allocator@D@2@@std@@QEAA@AEBV01@@Z ; std::basic_string<char,std::char_traits<char>,std::allocator<char> >::basic_string<char,std::char_traits<char>,std::allocator<char> >
PUBLIC	??0?$basic_string@DU?$char_traits@D@std@@V?$allocator@D@2@@std@@QEAA@QEBD@Z ; std::basic_string<char,std::char_traits<char>,std::allocator<char> >::basic_string<char,std::char_traits<char>,std::allocator<char> >
PUBLIC	??0?$basic_string@DU?$char_traits@D@std@@V?$allocator@D@2@@std@@QEAA@_KD@Z ; std::basic_string<char,std::char_traits<char>,std::allocator<char> >::basic_string<char,std::char_traits<char>,std::allocator<char> >
PUBLIC	?_Deallocate_for_capacity@?$basic_string@DU?$char_traits@D@std@@V?$allocator@D@2@@std@@CAXAEAV?$allocator@D@2@QEAD_K@Z ; std::basic_string<char,std::char_traits<char>,std::allocator<char> >::_Deallocate_for_capacity
PUBLIC	?_Construct_empty@?$basic_string@DU?$char_traits@D@std@@V?$allocator@D@2@@std@@AEAAXXZ ; std::basic_string<char,std::char_traits<char>,std::allocator<char> >::_Construct_empty
PUBLIC	??0?$basic_string@DU?$char_traits@D@std@@V?$allocator@D@2@@std@@QEAA@$$QEAV01@@Z ; std::basic_string<char,std::char_traits<char>,std::allocator<char> >::basic_string<char,std::char_traits<char>,std::allocator<char> >
PUBLIC	?_Take_contents@?$basic_string@DU?$char_traits@D@std@@V?$allocator@D@2@@std@@AEAAXAEAV12@@Z ; std::basic_string<char,std::char_traits<char>,std::allocator<char> >::_Take_contents
PUBLIC	??1?$basic_string@DU?$char_traits@D@std@@V?$allocator@D@2@@std@@QEAA@XZ ; std::basic_string<char,std::char_traits<char>,std::allocator<char> >::~basic_string<char,std::char_traits<char>,std::allocator<char> >
PUBLIC	??4?$basic_string@DU?$char_traits@D@std@@V?$allocator@D@2@@std@@QEAAAEAV01@AEBV01@@Z ; std::basic_string<char,std::char_traits<char>,std::allocator<char> >::operator=
PUBLIC	??Y?$basic_string@DU?$char_traits@D@std@@V?$allocator@D@2@@std@@QEAAAEAV01@AEBV01@@Z ; std::basic_string<char,std::char_traits<char>,std::allocator<char> >::operator+=
PUBLIC	?append@?$basic_string@DU?$char_traits@D@std@@V?$allocator@D@2@@std@@QEAAAEAV12@AEBV12@@Z ; std::basic_string<char,std::char_traits<char>,std::allocator<char> >::append
PUBLIC	?append@?$basic_string@DU?$char_traits@D@std@@V?$allocator@D@2@@std@@QEAAAEAV12@QEBD_K@Z ; std::basic_string<char,std::char_traits<char>,std::allocator<char> >::append
PUBLIC	?append@?$basic_string@DU?$char_traits@D@std@@V?$allocator@D@2@@std@@QEAAAEAV12@QEBD@Z ; std::basic_string<char,std::char_traits<char>,std::allocator<char> >::append
PUBLIC	?assign@?$basic_string@DU?$char_traits@D@std@@V?$allocator@D@2@@std@@QEAAAEAV12@QEBD_K@Z ; std::basic_string<char,std::char_traits<char>,std::allocator<char> >::assign
PUBLIC	??A?$basic_string@DU?$char_traits@D@std@@V?$allocator@D@2@@std@@QEAAAEAD_K@Z ; std::basic_string<char,std::char_traits<char>,std::allocator<char> >::operator[]
PUBLIC	?c_str@?$basic_string@DU?$char_traits@D@std@@V?$allocator@D@2@@std@@QEBAPEBDXZ ; std::basic_string<char,std::char_traits<char>,std::allocator<char> >::c_str
PUBLIC	?max_size@?$basic_string@DU?$char_traits@D@std@@V?$allocator@D@2@@std@@QEBA_KXZ ; std::basic_string<char,std::char_traits<char>,std::allocator<char> >::max_size
PUBLIC	?_Calculate_growth@?$basic_string@DU?$char_traits@D@std@@V?$allocator@D@2@@std@@CA_K_K00@Z ; std::basic_string<char,std::char_traits<char>,std::allocator<char> >::_Calculate_growth
PUBLIC	?_Calculate_growth@?$basic_string@DU?$char_traits@D@std@@V?$allocator@D@2@@std@@AEBA_K_K@Z ; std::basic_string<char,std::char_traits<char>,std::allocator<char> >::_Calculate_growth
PUBLIC	?_Tidy_deallocate@?$basic_string@DU?$char_traits@D@std@@V?$allocator@D@2@@std@@AEAAXXZ ; std::basic_string<char,std::char_traits<char>,std::allocator<char> >::_Tidy_deallocate
PUBLIC	?_Swap_proxy_and_iterators@?$basic_string@DU?$char_traits@D@std@@V?$allocator@D@2@@std@@AEAAXAEAV12@@Z ; std::basic_string<char,std::char_traits<char>,std::allocator<char> >::_Swap_proxy_and_iterators
PUBLIC	?_Getal@?$basic_string@DU?$char_traits@D@std@@V?$allocator@D@2@@std@@AEAAAEAV?$allocator@D@2@XZ ; std::basic_string<char,std::char_traits<char>,std::allocator<char> >::_Getal
PUBLIC	?_Getal@?$basic_string@DU?$char_traits@D@std@@V?$allocator@D@2@@std@@AEBAAEBV?$allocator@D@2@XZ ; std::basic_string<char,std::char_traits<char>,std::allocator<char> >::_Getal
PUBLIC	?_Get_first@?$_Compressed_pair@V?$allocator@D@std@@V?$_String_val@U?$_Simple_types@D@std@@@2@$00@std@@QEAAAEAV?$allocator@D@2@XZ ; std::_Compressed_pair<std::allocator<char>,std::_String_val<std::_Simple_types<char> >,1>::_Get_first
PUBLIC	?_Get_first@?$_Compressed_pair@V?$allocator@D@std@@V?$_String_val@U?$_Simple_types@D@std@@@2@$00@std@@QEBAAEBV?$allocator@D@2@XZ ; std::_Compressed_pair<std::allocator<char>,std::_String_val<std::_Simple_types<char> >,1>::_Get_first
PUBLIC	??1?$_Compressed_pair@V?$allocator@D@std@@V?$_String_val@U?$_Simple_types@D@std@@@2@$00@std@@QEAA@XZ ; std::_Compressed_pair<std::allocator<char>,std::_String_val<std::_Simple_types<char> >,1>::~_Compressed_pair<std::allocator<char>,std::_String_val<std::_Simple_types<char> >,1>
PUBLIC	??_G?$basic_string@DU?$char_traits@D@std@@V?$allocator@D@2@@std@@QEAAPEAXI@Z ; std::basic_string<char,std::char_traits<char>,std::allocator<char> >::`scalar deleting destructor'
PUBLIC	?to_string@std@@YA?AV?$basic_string@DU?$char_traits@D@std@@V?$allocator@D@2@@1@H@Z ; std::to_string
PUBLIC	??$_Integral_to_string@DH@std@@YA?AV?$basic_string@DU?$char_traits@D@std@@V?$allocator@D@2@@0@H@Z ; std::_Integral_to_string<char,int>
PUBLIC	?to_string@std@@YA?AV?$basic_string@DU?$char_traits@D@std@@V?$allocator@D@2@@1@_K@Z ; std::to_string
PUBLIC	??$_UIntegral_to_string@D_K@std@@YA?AV?$basic_string@DU?$char_traits@D@std@@V?$allocator@D@2@@0@_K@Z ; std::_UIntegral_to_string<char,unsigned __int64>
PUBLIC	?to_string@std@@YA?AV?$basic_string@DU?$char_traits@D@std@@V?$allocator@D@2@@1@N@Z ; std::to_string
PUBLIC	?to_string@std@@YA?AV?$basic_string@DU?$char_traits@D@std@@V?$allocator@D@2@@1@M@Z ; std::to_string
PUBLIC	??$_Adl_verify_range@PEADPEAD@std@@YAXAEBQEAD0@Z ; std::_Adl_verify_range<char *,char *>
PUBLIC	?deallocate@?$allocator@V?$basic_string@DU?$char_traits@D@std@@V?$allocator@D@2@@std@@@std@@QEAAXQEAV?$basic_string@DU?$char_traits@D@std@@V?$allocator@D@2@@2@_K@Z ; std::allocator<std::basic_string<char,std::char_traits<char>,std::allocator<char> > >::deallocate
PUBLIC	??1?$vector@V?$basic_string@DU?$char_traits@D@std@@V?$allocator@D@2@@std@@V?$allocator@V?$basic_string@DU?$char_traits@D@std@@V?$allocator@D@2@@std@@@2@@std@@QEAA@XZ ; std::vector<std::basic_string<char,std::char_traits<char>,std::allocator<char> >,std::allocator<std::basic_string<char,std::char_traits<char>,std::allocator<char> > > >::~vector<std::basic_string<char,std::char_traits<char>,std::allocator<char> >,std::allocator<std::basic_string<char,std::char_traits<char>,std::allocator<char> > > >
PUBLIC	?size@?$vector@V?$basic_string@DU?$char_traits@D@std@@V?$allocator@D@2@@std@@V?$allocator@V?$basic_string@DU?$char_traits@D@std@@V?$allocator@D@2@@std@@@2@@std@@QEBA_KXZ ; std::vector<std::basic_string<char,std::char_traits<char>,std::allocator<char> >,std::allocator<std::basic_string<char,std::char_traits<char>,std::allocator<char> > > >::size
PUBLIC	??A?$vector@V?$basic_string@DU?$char_traits@D@std@@V?$allocator@D@2@@std@@V?$allocator@V?$basic_string@DU?$char_traits@D@std@@V?$allocator@D@2@@std@@@2@@std@@QEAAAEAV?$basic_string@DU?$char_traits@D@std@@V?$allocator@D@2@@1@_K@Z ; std::vector<std::basic_string<char,std::char_traits<char>,std::allocator<char> >,std::allocator<std::basic_string<char,std::char_traits<char>,std::allocator<char> > > >::operator[]
PUBLIC	?_Tidy@?$vector@V?$basic_string@DU?$char_traits@D@std@@V?$allocator@D@2@@std@@V?$allocator@V?$basic_string@DU?$char_traits@D@std@@V?$allocator@D@2@@std@@@2@@std@@AEAAXXZ ; std::vector<std::basic_string<char,std::char_traits<char>,std::allocator<char> >,std::allocator<std::basic_string<char,std::char_traits<char>,std::allocator<char> > > >::_Tidy
PUBLIC	?_Getal@?$vector@V?$basic_string@DU?$char_traits@D@std@@V?$allocator@D@2@@std@@V?$allocator@V?$basic_string@DU?$char_traits@D@std@@V?$allocator@D@2@@std@@@2@@std@@AEAAAEAV?$allocator@V?$basic_string@DU?$char_traits@D@std@@V?$allocator@D@2@@std@@@2@XZ ; std::vector<std::basic_string<char,std::char_traits<char>,std::allocator<char> >,std::allocator<std::basic_string<char,std::char_traits<char>,std::allocator<char> > > >::_Getal
PUBLIC	?_Get_first@?$_Compressed_pair@V?$allocator@V?$basic_string@DU?$char_traits@D@std@@V?$allocator@D@2@@std@@@std@@V?$_Vector_val@U?$_Simple_types@V?$basic_string@DU?$char_traits@D@std@@V?$allocator@D@2@@std@@@std@@@2@$00@std@@QEAAAEAV?$allocator@V?$basic_string@DU?$char_traits@D@std@@V?$allocator@D@2@@std@@@2@XZ ; std::_Compressed_pair<std::allocator<std::basic_string<char,std::char_traits<char>,std::allocator<char> > >,std::_Vector_val<std::_Simple_types<std::basic_string<char,std::char_traits<char>,std::allocator<char> > > >,1>::_Get_first
PUBLIC	??$min@_K@std@@YAAEB_KAEB_K0@Z			; std::min<unsigned __int64>
PUBLIC	??$move@AEAV?$basic_string@DU?$char_traits@D@std@@V?$allocator@D@2@@std@@@std@@YA$$QEAV?$basic_string@DU?$char_traits@D@std@@V?$allocator@D@2@@0@AEAV10@@Z ; std::move<std::basic_string<char,std::char_traits<char>,std::allocator<char> > &>
PUBLIC	??$?HDU?$char_traits@D@std@@V?$allocator@D@1@@std@@YA?AV?$basic_string@DU?$char_traits@D@std@@V?$allocator@D@2@@0@$$QEAV10@QEBD@Z ; std::operator+<char,std::char_traits<char>,std::allocator<char> >
PUBLIC	??0WSInit@detail@httplib@@QEAA@XZ		; httplib::detail::WSInit::WSInit
PUBLIC	??1WSInit@detail@httplib@@QEAA@XZ		; httplib::detail::WSInit::~WSInit
PUBLIC	??0SSLInit@detail@httplib@@QEAA@XZ		; httplib::detail::SSLInit::SSLInit
PUBLIC	??0Variables@Core@IronMan@@QEAA@XZ		; IronMan::Core::Variables::Variables
PUBLIC	??1Variables@Core@IronMan@@QEAA@XZ		; IronMan::Core::Variables::~Variables
PUBLIC	??0sEspItem@Variables@Core@IronMan@@QEAA@XZ	; IronMan::Core::Variables::sEspItem::sEspItem
PUBLIC	?deallocate@?$allocator@PEAV?$ConfigValue@H@Core@IronMan@@@std@@QEAAXQEAPEAV?$ConfigValue@H@Core@IronMan@@_K@Z ; std::allocator<IronMan::Core::ConfigValue<int> *>::deallocate
PUBLIC	?allocate@?$allocator@PEAV?$ConfigValue@H@Core@IronMan@@@std@@QEAAPEAPEAV?$ConfigValue@H@Core@IronMan@@_K@Z ; std::allocator<IronMan::Core::ConfigValue<int> *>::allocate
PUBLIC	?max_size@?$_Default_allocator_traits@V?$allocator@PEAV?$ConfigValue@H@Core@IronMan@@@std@@@std@@SA_KAEBV?$allocator@PEAV?$ConfigValue@H@Core@IronMan@@@2@@Z ; std::_Default_allocator_traits<std::allocator<IronMan::Core::ConfigValue<int> *> >::max_size
PUBLIC	?push_back@?$vector@PEAV?$ConfigValue@H@Core@IronMan@@V?$allocator@PEAV?$ConfigValue@H@Core@IronMan@@@std@@@std@@QEAAX$$QEAPEAV?$ConfigValue@H@Core@IronMan@@@Z ; std::vector<IronMan::Core::ConfigValue<int> *,std::allocator<IronMan::Core::ConfigValue<int> *> >::push_back
PUBLIC	?clear@?$vector@PEAV?$ConfigValue@H@Core@IronMan@@V?$allocator@PEAV?$ConfigValue@H@Core@IronMan@@@std@@@std@@QEAAXXZ ; std::vector<IronMan::Core::ConfigValue<int> *,std::allocator<IronMan::Core::ConfigValue<int> *> >::clear
PUBLIC	?_Unchecked_begin@?$vector@PEAV?$ConfigValue@H@Core@IronMan@@V?$allocator@PEAV?$ConfigValue@H@Core@IronMan@@@std@@@std@@QEAAPEAPEAV?$ConfigValue@H@Core@IronMan@@XZ ; std::vector<IronMan::Core::ConfigValue<int> *,std::allocator<IronMan::Core::ConfigValue<int> *> >::_Unchecked_begin
PUBLIC	?_Unchecked_end@?$vector@PEAV?$ConfigValue@H@Core@IronMan@@V?$allocator@PEAV?$ConfigValue@H@Core@IronMan@@@std@@@std@@QEAAPEAPEAV?$ConfigValue@H@Core@IronMan@@XZ ; std::vector<IronMan::Core::ConfigValue<int> *,std::allocator<IronMan::Core::ConfigValue<int> *> >::_Unchecked_end
PUBLIC	?max_size@?$vector@PEAV?$ConfigValue@H@Core@IronMan@@V?$allocator@PEAV?$ConfigValue@H@Core@IronMan@@@std@@@std@@QEBA_KXZ ; std::vector<IronMan::Core::ConfigValue<int> *,std::allocator<IronMan::Core::ConfigValue<int> *> >::max_size
PUBLIC	?capacity@?$vector@PEAV?$ConfigValue@H@Core@IronMan@@V?$allocator@PEAV?$ConfigValue@H@Core@IronMan@@@std@@@std@@QEBA_KXZ ; std::vector<IronMan::Core::ConfigValue<int> *,std::allocator<IronMan::Core::ConfigValue<int> *> >::capacity
PUBLIC	?_Calculate_growth@?$vector@PEAV?$ConfigValue@H@Core@IronMan@@V?$allocator@PEAV?$ConfigValue@H@Core@IronMan@@@std@@@std@@AEBA_K_K@Z ; std::vector<IronMan::Core::ConfigValue<int> *,std::allocator<IronMan::Core::ConfigValue<int> *> >::_Calculate_growth
PUBLIC	?_Change_array@?$vector@PEAV?$ConfigValue@H@Core@IronMan@@V?$allocator@PEAV?$ConfigValue@H@Core@IronMan@@@std@@@std@@AEAAXQEAPEAV?$ConfigValue@H@Core@IronMan@@_K1@Z ; std::vector<IronMan::Core::ConfigValue<int> *,std::allocator<IronMan::Core::ConfigValue<int> *> >::_Change_array
PUBLIC	?_Xlength@?$vector@PEAV?$ConfigValue@H@Core@IronMan@@V?$allocator@PEAV?$ConfigValue@H@Core@IronMan@@@std@@@std@@CAXXZ ; std::vector<IronMan::Core::ConfigValue<int> *,std::allocator<IronMan::Core::ConfigValue<int> *> >::_Xlength
PUBLIC	?_Orphan_range@?$vector@PEAV?$ConfigValue@H@Core@IronMan@@V?$allocator@PEAV?$ConfigValue@H@Core@IronMan@@@std@@@std@@AEBAXPEAPEAV?$ConfigValue@H@Core@IronMan@@0@Z ; std::vector<IronMan::Core::ConfigValue<int> *,std::allocator<IronMan::Core::ConfigValue<int> *> >::_Orphan_range
PUBLIC	?_Getal@?$vector@PEAV?$ConfigValue@H@Core@IronMan@@V?$allocator@PEAV?$ConfigValue@H@Core@IronMan@@@std@@@std@@AEAAAEAV?$allocator@PEAV?$ConfigValue@H@Core@IronMan@@@2@XZ ; std::vector<IronMan::Core::ConfigValue<int> *,std::allocator<IronMan::Core::ConfigValue<int> *> >::_Getal
PUBLIC	?_Getal@?$vector@PEAV?$ConfigValue@H@Core@IronMan@@V?$allocator@PEAV?$ConfigValue@H@Core@IronMan@@@std@@@std@@AEBAAEBV?$allocator@PEAV?$ConfigValue@H@Core@IronMan@@@2@XZ ; std::vector<IronMan::Core::ConfigValue<int> *,std::allocator<IronMan::Core::ConfigValue<int> *> >::_Getal
PUBLIC	?_Get_first@?$_Compressed_pair@V?$allocator@PEAV?$ConfigValue@H@Core@IronMan@@@std@@V?$_Vector_val@U?$_Simple_types@PEAV?$ConfigValue@H@Core@IronMan@@@std@@@2@$00@std@@QEAAAEAV?$allocator@PEAV?$ConfigValue@H@Core@IronMan@@@2@XZ ; std::_Compressed_pair<std::allocator<IronMan::Core::ConfigValue<int> *>,std::_Vector_val<std::_Simple_types<IronMan::Core::ConfigValue<int> *> >,1>::_Get_first
PUBLIC	?_Get_first@?$_Compressed_pair@V?$allocator@PEAV?$ConfigValue@H@Core@IronMan@@@std@@V?$_Vector_val@U?$_Simple_types@PEAV?$ConfigValue@H@Core@IronMan@@@std@@@2@$00@std@@QEBAAEBV?$allocator@PEAV?$ConfigValue@H@Core@IronMan@@@2@XZ ; std::_Compressed_pair<std::allocator<IronMan::Core::ConfigValue<int> *>,std::_Vector_val<std::_Simple_types<IronMan::Core::ConfigValue<int> *> >,1>::_Get_first
PUBLIC	?deallocate@?$allocator@PEAV?$ConfigValue@_N@Core@IronMan@@@std@@QEAAXQEAPEAV?$ConfigValue@_N@Core@IronMan@@_K@Z ; std::allocator<IronMan::Core::ConfigValue<bool> *>::deallocate
PUBLIC	?allocate@?$allocator@PEAV?$ConfigValue@_N@Core@IronMan@@@std@@QEAAPEAPEAV?$ConfigValue@_N@Core@IronMan@@_K@Z ; std::allocator<IronMan::Core::ConfigValue<bool> *>::allocate
PUBLIC	?max_size@?$_Default_allocator_traits@V?$allocator@PEAV?$ConfigValue@_N@Core@IronMan@@@std@@@std@@SA_KAEBV?$allocator@PEAV?$ConfigValue@_N@Core@IronMan@@@2@@Z ; std::_Default_allocator_traits<std::allocator<IronMan::Core::ConfigValue<bool> *> >::max_size
PUBLIC	?push_back@?$vector@PEAV?$ConfigValue@_N@Core@IronMan@@V?$allocator@PEAV?$ConfigValue@_N@Core@IronMan@@@std@@@std@@QEAAX$$QEAPEAV?$ConfigValue@_N@Core@IronMan@@@Z ; std::vector<IronMan::Core::ConfigValue<bool> *,std::allocator<IronMan::Core::ConfigValue<bool> *> >::push_back
PUBLIC	?clear@?$vector@PEAV?$ConfigValue@_N@Core@IronMan@@V?$allocator@PEAV?$ConfigValue@_N@Core@IronMan@@@std@@@std@@QEAAXXZ ; std::vector<IronMan::Core::ConfigValue<bool> *,std::allocator<IronMan::Core::ConfigValue<bool> *> >::clear
PUBLIC	?_Unchecked_begin@?$vector@PEAV?$ConfigValue@_N@Core@IronMan@@V?$allocator@PEAV?$ConfigValue@_N@Core@IronMan@@@std@@@std@@QEAAPEAPEAV?$ConfigValue@_N@Core@IronMan@@XZ ; std::vector<IronMan::Core::ConfigValue<bool> *,std::allocator<IronMan::Core::ConfigValue<bool> *> >::_Unchecked_begin
PUBLIC	?_Unchecked_end@?$vector@PEAV?$ConfigValue@_N@Core@IronMan@@V?$allocator@PEAV?$ConfigValue@_N@Core@IronMan@@@std@@@std@@QEAAPEAPEAV?$ConfigValue@_N@Core@IronMan@@XZ ; std::vector<IronMan::Core::ConfigValue<bool> *,std::allocator<IronMan::Core::ConfigValue<bool> *> >::_Unchecked_end
PUBLIC	?max_size@?$vector@PEAV?$ConfigValue@_N@Core@IronMan@@V?$allocator@PEAV?$ConfigValue@_N@Core@IronMan@@@std@@@std@@QEBA_KXZ ; std::vector<IronMan::Core::ConfigValue<bool> *,std::allocator<IronMan::Core::ConfigValue<bool> *> >::max_size
PUBLIC	?capacity@?$vector@PEAV?$ConfigValue@_N@Core@IronMan@@V?$allocator@PEAV?$ConfigValue@_N@Core@IronMan@@@std@@@std@@QEBA_KXZ ; std::vector<IronMan::Core::ConfigValue<bool> *,std::allocator<IronMan::Core::ConfigValue<bool> *> >::capacity
PUBLIC	?_Calculate_growth@?$vector@PEAV?$ConfigValue@_N@Core@IronMan@@V?$allocator@PEAV?$ConfigValue@_N@Core@IronMan@@@std@@@std@@AEBA_K_K@Z ; std::vector<IronMan::Core::ConfigValue<bool> *,std::allocator<IronMan::Core::ConfigValue<bool> *> >::_Calculate_growth
PUBLIC	?_Change_array@?$vector@PEAV?$ConfigValue@_N@Core@IronMan@@V?$allocator@PEAV?$ConfigValue@_N@Core@IronMan@@@std@@@std@@AEAAXQEAPEAV?$ConfigValue@_N@Core@IronMan@@_K1@Z ; std::vector<IronMan::Core::ConfigValue<bool> *,std::allocator<IronMan::Core::ConfigValue<bool> *> >::_Change_array
PUBLIC	?_Xlength@?$vector@PEAV?$ConfigValue@_N@Core@IronMan@@V?$allocator@PEAV?$ConfigValue@_N@Core@IronMan@@@std@@@std@@CAXXZ ; std::vector<IronMan::Core::ConfigValue<bool> *,std::allocator<IronMan::Core::ConfigValue<bool> *> >::_Xlength
PUBLIC	?_Orphan_range@?$vector@PEAV?$ConfigValue@_N@Core@IronMan@@V?$allocator@PEAV?$ConfigValue@_N@Core@IronMan@@@std@@@std@@AEBAXPEAPEAV?$ConfigValue@_N@Core@IronMan@@0@Z ; std::vector<IronMan::Core::ConfigValue<bool> *,std::allocator<IronMan::Core::ConfigValue<bool> *> >::_Orphan_range
PUBLIC	?_Getal@?$vector@PEAV?$ConfigValue@_N@Core@IronMan@@V?$allocator@PEAV?$ConfigValue@_N@Core@IronMan@@@std@@@std@@AEAAAEAV?$allocator@PEAV?$ConfigValue@_N@Core@IronMan@@@2@XZ ; std::vector<IronMan::Core::ConfigValue<bool> *,std::allocator<IronMan::Core::ConfigValue<bool> *> >::_Getal
PUBLIC	?_Getal@?$vector@PEAV?$ConfigValue@_N@Core@IronMan@@V?$allocator@PEAV?$ConfigValue@_N@Core@IronMan@@@std@@@std@@AEBAAEBV?$allocator@PEAV?$ConfigValue@_N@Core@IronMan@@@2@XZ ; std::vector<IronMan::Core::ConfigValue<bool> *,std::allocator<IronMan::Core::ConfigValue<bool> *> >::_Getal
PUBLIC	?_Get_first@?$_Compressed_pair@V?$allocator@PEAV?$ConfigValue@_N@Core@IronMan@@@std@@V?$_Vector_val@U?$_Simple_types@PEAV?$ConfigValue@_N@Core@IronMan@@@std@@@2@$00@std@@QEAAAEAV?$allocator@PEAV?$ConfigValue@_N@Core@IronMan@@@2@XZ ; std::_Compressed_pair<std::allocator<IronMan::Core::ConfigValue<bool> *>,std::_Vector_val<std::_Simple_types<IronMan::Core::ConfigValue<bool> *> >,1>::_Get_first
PUBLIC	?_Get_first@?$_Compressed_pair@V?$allocator@PEAV?$ConfigValue@_N@Core@IronMan@@@std@@V?$_Vector_val@U?$_Simple_types@PEAV?$ConfigValue@_N@Core@IronMan@@@std@@@2@$00@std@@QEBAAEBV?$allocator@PEAV?$ConfigValue@_N@Core@IronMan@@@2@XZ ; std::_Compressed_pair<std::allocator<IronMan::Core::ConfigValue<bool> *>,std::_Vector_val<std::_Simple_types<IronMan::Core::ConfigValue<bool> *> >,1>::_Get_first
PUBLIC	?deallocate@?$allocator@PEAV?$ConfigValue@M@Core@IronMan@@@std@@QEAAXQEAPEAV?$ConfigValue@M@Core@IronMan@@_K@Z ; std::allocator<IronMan::Core::ConfigValue<float> *>::deallocate
PUBLIC	?allocate@?$allocator@PEAV?$ConfigValue@M@Core@IronMan@@@std@@QEAAPEAPEAV?$ConfigValue@M@Core@IronMan@@_K@Z ; std::allocator<IronMan::Core::ConfigValue<float> *>::allocate
PUBLIC	?max_size@?$_Default_allocator_traits@V?$allocator@PEAV?$ConfigValue@M@Core@IronMan@@@std@@@std@@SA_KAEBV?$allocator@PEAV?$ConfigValue@M@Core@IronMan@@@2@@Z ; std::_Default_allocator_traits<std::allocator<IronMan::Core::ConfigValue<float> *> >::max_size
PUBLIC	?push_back@?$vector@PEAV?$ConfigValue@M@Core@IronMan@@V?$allocator@PEAV?$ConfigValue@M@Core@IronMan@@@std@@@std@@QEAAX$$QEAPEAV?$ConfigValue@M@Core@IronMan@@@Z ; std::vector<IronMan::Core::ConfigValue<float> *,std::allocator<IronMan::Core::ConfigValue<float> *> >::push_back
PUBLIC	?clear@?$vector@PEAV?$ConfigValue@M@Core@IronMan@@V?$allocator@PEAV?$ConfigValue@M@Core@IronMan@@@std@@@std@@QEAAXXZ ; std::vector<IronMan::Core::ConfigValue<float> *,std::allocator<IronMan::Core::ConfigValue<float> *> >::clear
PUBLIC	?_Unchecked_begin@?$vector@PEAV?$ConfigValue@M@Core@IronMan@@V?$allocator@PEAV?$ConfigValue@M@Core@IronMan@@@std@@@std@@QEAAPEAPEAV?$ConfigValue@M@Core@IronMan@@XZ ; std::vector<IronMan::Core::ConfigValue<float> *,std::allocator<IronMan::Core::ConfigValue<float> *> >::_Unchecked_begin
PUBLIC	?_Unchecked_end@?$vector@PEAV?$ConfigValue@M@Core@IronMan@@V?$allocator@PEAV?$ConfigValue@M@Core@IronMan@@@std@@@std@@QEAAPEAPEAV?$ConfigValue@M@Core@IronMan@@XZ ; std::vector<IronMan::Core::ConfigValue<float> *,std::allocator<IronMan::Core::ConfigValue<float> *> >::_Unchecked_end
PUBLIC	?max_size@?$vector@PEAV?$ConfigValue@M@Core@IronMan@@V?$allocator@PEAV?$ConfigValue@M@Core@IronMan@@@std@@@std@@QEBA_KXZ ; std::vector<IronMan::Core::ConfigValue<float> *,std::allocator<IronMan::Core::ConfigValue<float> *> >::max_size
PUBLIC	?capacity@?$vector@PEAV?$ConfigValue@M@Core@IronMan@@V?$allocator@PEAV?$ConfigValue@M@Core@IronMan@@@std@@@std@@QEBA_KXZ ; std::vector<IronMan::Core::ConfigValue<float> *,std::allocator<IronMan::Core::ConfigValue<float> *> >::capacity
PUBLIC	?_Calculate_growth@?$vector@PEAV?$ConfigValue@M@Core@IronMan@@V?$allocator@PEAV?$ConfigValue@M@Core@IronMan@@@std@@@std@@AEBA_K_K@Z ; std::vector<IronMan::Core::ConfigValue<float> *,std::allocator<IronMan::Core::ConfigValue<float> *> >::_Calculate_growth
PUBLIC	?_Change_array@?$vector@PEAV?$ConfigValue@M@Core@IronMan@@V?$allocator@PEAV?$ConfigValue@M@Core@IronMan@@@std@@@std@@AEAAXQEAPEAV?$ConfigValue@M@Core@IronMan@@_K1@Z ; std::vector<IronMan::Core::ConfigValue<float> *,std::allocator<IronMan::Core::ConfigValue<float> *> >::_Change_array
PUBLIC	?_Xlength@?$vector@PEAV?$ConfigValue@M@Core@IronMan@@V?$allocator@PEAV?$ConfigValue@M@Core@IronMan@@@std@@@std@@CAXXZ ; std::vector<IronMan::Core::ConfigValue<float> *,std::allocator<IronMan::Core::ConfigValue<float> *> >::_Xlength
PUBLIC	?_Orphan_range@?$vector@PEAV?$ConfigValue@M@Core@IronMan@@V?$allocator@PEAV?$ConfigValue@M@Core@IronMan@@@std@@@std@@AEBAXPEAPEAV?$ConfigValue@M@Core@IronMan@@0@Z ; std::vector<IronMan::Core::ConfigValue<float> *,std::allocator<IronMan::Core::ConfigValue<float> *> >::_Orphan_range
PUBLIC	?_Getal@?$vector@PEAV?$ConfigValue@M@Core@IronMan@@V?$allocator@PEAV?$ConfigValue@M@Core@IronMan@@@std@@@std@@AEAAAEAV?$allocator@PEAV?$ConfigValue@M@Core@IronMan@@@2@XZ ; std::vector<IronMan::Core::ConfigValue<float> *,std::allocator<IronMan::Core::ConfigValue<float> *> >::_Getal
PUBLIC	?_Getal@?$vector@PEAV?$ConfigValue@M@Core@IronMan@@V?$allocator@PEAV?$ConfigValue@M@Core@IronMan@@@std@@@std@@AEBAAEBV?$allocator@PEAV?$ConfigValue@M@Core@IronMan@@@2@XZ ; std::vector<IronMan::Core::ConfigValue<float> *,std::allocator<IronMan::Core::ConfigValue<float> *> >::_Getal
PUBLIC	?_Get_first@?$_Compressed_pair@V?$allocator@PEAV?$ConfigValue@M@Core@IronMan@@@std@@V?$_Vector_val@U?$_Simple_types@PEAV?$ConfigValue@M@Core@IronMan@@@std@@@2@$00@std@@QEAAAEAV?$allocator@PEAV?$ConfigValue@M@Core@IronMan@@@2@XZ ; std::_Compressed_pair<std::allocator<IronMan::Core::ConfigValue<float> *>,std::_Vector_val<std::_Simple_types<IronMan::Core::ConfigValue<float> *> >,1>::_Get_first
PUBLIC	?_Get_first@?$_Compressed_pair@V?$allocator@PEAV?$ConfigValue@M@Core@IronMan@@@std@@V?$_Vector_val@U?$_Simple_types@PEAV?$ConfigValue@M@Core@IronMan@@@std@@@2@$00@std@@QEBAAEBV?$allocator@PEAV?$ConfigValue@M@Core@IronMan@@@2@XZ ; std::_Compressed_pair<std::allocator<IronMan::Core::ConfigValue<float> *>,std::_Vector_val<std::_Simple_types<IronMan::Core::ConfigValue<float> *> >,1>::_Get_first
PUBLIC	?deallocate@?$allocator@PEAV?$ConfigValue@PEAD@Core@IronMan@@@std@@QEAAXQEAPEAV?$ConfigValue@PEAD@Core@IronMan@@_K@Z ; std::allocator<IronMan::Core::ConfigValue<char *> *>::deallocate
PUBLIC	?allocate@?$allocator@PEAV?$ConfigValue@PEAD@Core@IronMan@@@std@@QEAAPEAPEAV?$ConfigValue@PEAD@Core@IronMan@@_K@Z ; std::allocator<IronMan::Core::ConfigValue<char *> *>::allocate
PUBLIC	?max_size@?$_Default_allocator_traits@V?$allocator@PEAV?$ConfigValue@PEAD@Core@IronMan@@@std@@@std@@SA_KAEBV?$allocator@PEAV?$ConfigValue@PEAD@Core@IronMan@@@2@@Z ; std::_Default_allocator_traits<std::allocator<IronMan::Core::ConfigValue<char *> *> >::max_size
PUBLIC	?push_back@?$vector@PEAV?$ConfigValue@PEAD@Core@IronMan@@V?$allocator@PEAV?$ConfigValue@PEAD@Core@IronMan@@@std@@@std@@QEAAX$$QEAPEAV?$ConfigValue@PEAD@Core@IronMan@@@Z ; std::vector<IronMan::Core::ConfigValue<char *> *,std::allocator<IronMan::Core::ConfigValue<char *> *> >::push_back
PUBLIC	?_Unchecked_begin@?$vector@PEAV?$ConfigValue@PEAD@Core@IronMan@@V?$allocator@PEAV?$ConfigValue@PEAD@Core@IronMan@@@std@@@std@@QEAAPEAPEAV?$ConfigValue@PEAD@Core@IronMan@@XZ ; std::vector<IronMan::Core::ConfigValue<char *> *,std::allocator<IronMan::Core::ConfigValue<char *> *> >::_Unchecked_begin
PUBLIC	?_Unchecked_end@?$vector@PEAV?$ConfigValue@PEAD@Core@IronMan@@V?$allocator@PEAV?$ConfigValue@PEAD@Core@IronMan@@@std@@@std@@QEAAPEAPEAV?$ConfigValue@PEAD@Core@IronMan@@XZ ; std::vector<IronMan::Core::ConfigValue<char *> *,std::allocator<IronMan::Core::ConfigValue<char *> *> >::_Unchecked_end
PUBLIC	?max_size@?$vector@PEAV?$ConfigValue@PEAD@Core@IronMan@@V?$allocator@PEAV?$ConfigValue@PEAD@Core@IronMan@@@std@@@std@@QEBA_KXZ ; std::vector<IronMan::Core::ConfigValue<char *> *,std::allocator<IronMan::Core::ConfigValue<char *> *> >::max_size
PUBLIC	?capacity@?$vector@PEAV?$ConfigValue@PEAD@Core@IronMan@@V?$allocator@PEAV?$ConfigValue@PEAD@Core@IronMan@@@std@@@std@@QEBA_KXZ ; std::vector<IronMan::Core::ConfigValue<char *> *,std::allocator<IronMan::Core::ConfigValue<char *> *> >::capacity
PUBLIC	?_Calculate_growth@?$vector@PEAV?$ConfigValue@PEAD@Core@IronMan@@V?$allocator@PEAV?$ConfigValue@PEAD@Core@IronMan@@@std@@@std@@AEBA_K_K@Z ; std::vector<IronMan::Core::ConfigValue<char *> *,std::allocator<IronMan::Core::ConfigValue<char *> *> >::_Calculate_growth
PUBLIC	?_Change_array@?$vector@PEAV?$ConfigValue@PEAD@Core@IronMan@@V?$allocator@PEAV?$ConfigValue@PEAD@Core@IronMan@@@std@@@std@@AEAAXQEAPEAV?$ConfigValue@PEAD@Core@IronMan@@_K1@Z ; std::vector<IronMan::Core::ConfigValue<char *> *,std::allocator<IronMan::Core::ConfigValue<char *> *> >::_Change_array
PUBLIC	?_Xlength@?$vector@PEAV?$ConfigValue@PEAD@Core@IronMan@@V?$allocator@PEAV?$ConfigValue@PEAD@Core@IronMan@@@std@@@std@@CAXXZ ; std::vector<IronMan::Core::ConfigValue<char *> *,std::allocator<IronMan::Core::ConfigValue<char *> *> >::_Xlength
PUBLIC	?_Orphan_range@?$vector@PEAV?$ConfigValue@PEAD@Core@IronMan@@V?$allocator@PEAV?$ConfigValue@PEAD@Core@IronMan@@@std@@@std@@AEBAXPEAPEAV?$ConfigValue@PEAD@Core@IronMan@@0@Z ; std::vector<IronMan::Core::ConfigValue<char *> *,std::allocator<IronMan::Core::ConfigValue<char *> *> >::_Orphan_range
PUBLIC	?_Getal@?$vector@PEAV?$ConfigValue@PEAD@Core@IronMan@@V?$allocator@PEAV?$ConfigValue@PEAD@Core@IronMan@@@std@@@std@@AEAAAEAV?$allocator@PEAV?$ConfigValue@PEAD@Core@IronMan@@@2@XZ ; std::vector<IronMan::Core::ConfigValue<char *> *,std::allocator<IronMan::Core::ConfigValue<char *> *> >::_Getal
PUBLIC	?_Getal@?$vector@PEAV?$ConfigValue@PEAD@Core@IronMan@@V?$allocator@PEAV?$ConfigValue@PEAD@Core@IronMan@@@std@@@std@@AEBAAEBV?$allocator@PEAV?$ConfigValue@PEAD@Core@IronMan@@@2@XZ ; std::vector<IronMan::Core::ConfigValue<char *> *,std::allocator<IronMan::Core::ConfigValue<char *> *> >::_Getal
PUBLIC	?_Get_first@?$_Compressed_pair@V?$allocator@PEAV?$ConfigValue@PEAD@Core@IronMan@@@std@@V?$_Vector_val@U?$_Simple_types@PEAV?$ConfigValue@PEAD@Core@IronMan@@@std@@@2@$00@std@@QEAAAEAV?$allocator@PEAV?$ConfigValue@PEAD@Core@IronMan@@@2@XZ ; std::_Compressed_pair<std::allocator<IronMan::Core::ConfigValue<char *> *>,std::_Vector_val<std::_Simple_types<IronMan::Core::ConfigValue<char *> *> >,1>::_Get_first
PUBLIC	?_Get_first@?$_Compressed_pair@V?$allocator@PEAV?$ConfigValue@PEAD@Core@IronMan@@@std@@V?$_Vector_val@U?$_Simple_types@PEAV?$ConfigValue@PEAD@Core@IronMan@@@std@@@2@$00@std@@QEBAAEBV?$allocator@PEAV?$ConfigValue@PEAD@Core@IronMan@@@2@XZ ; std::_Compressed_pair<std::allocator<IronMan::Core::ConfigValue<char *> *>,std::_Vector_val<std::_Simple_types<IronMan::Core::ConfigValue<char *> *> >,1>::_Get_first
PUBLIC	?deallocate@?$allocator@PEAV?$ConfigValue@E@Core@IronMan@@@std@@QEAAXQEAPEAV?$ConfigValue@E@Core@IronMan@@_K@Z ; std::allocator<IronMan::Core::ConfigValue<unsigned char> *>::deallocate
PUBLIC	?allocate@?$allocator@PEAV?$ConfigValue@E@Core@IronMan@@@std@@QEAAPEAPEAV?$ConfigValue@E@Core@IronMan@@_K@Z ; std::allocator<IronMan::Core::ConfigValue<unsigned char> *>::allocate
PUBLIC	?max_size@?$_Default_allocator_traits@V?$allocator@PEAV?$ConfigValue@E@Core@IronMan@@@std@@@std@@SA_KAEBV?$allocator@PEAV?$ConfigValue@E@Core@IronMan@@@2@@Z ; std::_Default_allocator_traits<std::allocator<IronMan::Core::ConfigValue<unsigned char> *> >::max_size
PUBLIC	?push_back@?$vector@PEAV?$ConfigValue@E@Core@IronMan@@V?$allocator@PEAV?$ConfigValue@E@Core@IronMan@@@std@@@std@@QEAAX$$QEAPEAV?$ConfigValue@E@Core@IronMan@@@Z ; std::vector<IronMan::Core::ConfigValue<unsigned char> *,std::allocator<IronMan::Core::ConfigValue<unsigned char> *> >::push_back
PUBLIC	?clear@?$vector@PEAV?$ConfigValue@E@Core@IronMan@@V?$allocator@PEAV?$ConfigValue@E@Core@IronMan@@@std@@@std@@QEAAXXZ ; std::vector<IronMan::Core::ConfigValue<unsigned char> *,std::allocator<IronMan::Core::ConfigValue<unsigned char> *> >::clear
PUBLIC	?_Unchecked_begin@?$vector@PEAV?$ConfigValue@E@Core@IronMan@@V?$allocator@PEAV?$ConfigValue@E@Core@IronMan@@@std@@@std@@QEAAPEAPEAV?$ConfigValue@E@Core@IronMan@@XZ ; std::vector<IronMan::Core::ConfigValue<unsigned char> *,std::allocator<IronMan::Core::ConfigValue<unsigned char> *> >::_Unchecked_begin
PUBLIC	?_Unchecked_end@?$vector@PEAV?$ConfigValue@E@Core@IronMan@@V?$allocator@PEAV?$ConfigValue@E@Core@IronMan@@@std@@@std@@QEAAPEAPEAV?$ConfigValue@E@Core@IronMan@@XZ ; std::vector<IronMan::Core::ConfigValue<unsigned char> *,std::allocator<IronMan::Core::ConfigValue<unsigned char> *> >::_Unchecked_end
PUBLIC	?max_size@?$vector@PEAV?$ConfigValue@E@Core@IronMan@@V?$allocator@PEAV?$ConfigValue@E@Core@IronMan@@@std@@@std@@QEBA_KXZ ; std::vector<IronMan::Core::ConfigValue<unsigned char> *,std::allocator<IronMan::Core::ConfigValue<unsigned char> *> >::max_size
PUBLIC	?capacity@?$vector@PEAV?$ConfigValue@E@Core@IronMan@@V?$allocator@PEAV?$ConfigValue@E@Core@IronMan@@@std@@@std@@QEBA_KXZ ; std::vector<IronMan::Core::ConfigValue<unsigned char> *,std::allocator<IronMan::Core::ConfigValue<unsigned char> *> >::capacity
PUBLIC	?_Calculate_growth@?$vector@PEAV?$ConfigValue@E@Core@IronMan@@V?$allocator@PEAV?$ConfigValue@E@Core@IronMan@@@std@@@std@@AEBA_K_K@Z ; std::vector<IronMan::Core::ConfigValue<unsigned char> *,std::allocator<IronMan::Core::ConfigValue<unsigned char> *> >::_Calculate_growth
PUBLIC	?_Change_array@?$vector@PEAV?$ConfigValue@E@Core@IronMan@@V?$allocator@PEAV?$ConfigValue@E@Core@IronMan@@@std@@@std@@AEAAXQEAPEAV?$ConfigValue@E@Core@IronMan@@_K1@Z ; std::vector<IronMan::Core::ConfigValue<unsigned char> *,std::allocator<IronMan::Core::ConfigValue<unsigned char> *> >::_Change_array
PUBLIC	?_Xlength@?$vector@PEAV?$ConfigValue@E@Core@IronMan@@V?$allocator@PEAV?$ConfigValue@E@Core@IronMan@@@std@@@std@@CAXXZ ; std::vector<IronMan::Core::ConfigValue<unsigned char> *,std::allocator<IronMan::Core::ConfigValue<unsigned char> *> >::_Xlength
PUBLIC	?_Orphan_range@?$vector@PEAV?$ConfigValue@E@Core@IronMan@@V?$allocator@PEAV?$ConfigValue@E@Core@IronMan@@@std@@@std@@AEBAXPEAPEAV?$ConfigValue@E@Core@IronMan@@0@Z ; std::vector<IronMan::Core::ConfigValue<unsigned char> *,std::allocator<IronMan::Core::ConfigValue<unsigned char> *> >::_Orphan_range
PUBLIC	?_Getal@?$vector@PEAV?$ConfigValue@E@Core@IronMan@@V?$allocator@PEAV?$ConfigValue@E@Core@IronMan@@@std@@@std@@AEAAAEAV?$allocator@PEAV?$ConfigValue@E@Core@IronMan@@@2@XZ ; std::vector<IronMan::Core::ConfigValue<unsigned char> *,std::allocator<IronMan::Core::ConfigValue<unsigned char> *> >::_Getal
PUBLIC	?_Getal@?$vector@PEAV?$ConfigValue@E@Core@IronMan@@V?$allocator@PEAV?$ConfigValue@E@Core@IronMan@@@std@@@std@@AEBAAEBV?$allocator@PEAV?$ConfigValue@E@Core@IronMan@@@2@XZ ; std::vector<IronMan::Core::ConfigValue<unsigned char> *,std::allocator<IronMan::Core::ConfigValue<unsigned char> *> >::_Getal
PUBLIC	?_Get_first@?$_Compressed_pair@V?$allocator@PEAV?$ConfigValue@E@Core@IronMan@@@std@@V?$_Vector_val@U?$_Simple_types@PEAV?$ConfigValue@E@Core@IronMan@@@std@@@2@$00@std@@QEAAAEAV?$allocator@PEAV?$ConfigValue@E@Core@IronMan@@@2@XZ ; std::_Compressed_pair<std::allocator<IronMan::Core::ConfigValue<unsigned char> *>,std::_Vector_val<std::_Simple_types<IronMan::Core::ConfigValue<unsigned char> *> >,1>::_Get_first
PUBLIC	?_Get_first@?$_Compressed_pair@V?$allocator@PEAV?$ConfigValue@E@Core@IronMan@@@std@@V?$_Vector_val@U?$_Simple_types@PEAV?$ConfigValue@E@Core@IronMan@@@std@@@2@$00@std@@QEBAAEBV?$allocator@PEAV?$ConfigValue@E@Core@IronMan@@@2@XZ ; std::_Compressed_pair<std::allocator<IronMan::Core::ConfigValue<unsigned char> *>,std::_Vector_val<std::_Simple_types<IronMan::Core::ConfigValue<unsigned char> *> >,1>::_Get_first
PUBLIC	?SetupValue@CConfig@Core@IronMan@@AEAAXAEAHH_K1@Z ; IronMan::Core::CConfig::SetupValue
PUBLIC	?SetupValue@CConfig@Core@IronMan@@AEAAXAEA_N_N_K2@Z ; IronMan::Core::CConfig::SetupValue
PUBLIC	?SetupValue@CConfig@Core@IronMan@@AEAAXAEAMM_K1@Z ; IronMan::Core::CConfig::SetupValue
PUBLIC	?SetupValue@CConfig@Core@IronMan@@AEAAXPEAMV?$vector@MV?$allocator@M@std@@@std@@_K2@Z ; IronMan::Core::CConfig::SetupValue
PUBLIC	?SetupValue@CConfig@Core@IronMan@@AEAAXAEAPEADPEAX_K2@Z ; IronMan::Core::CConfig::SetupValue
PUBLIC	?SetupValue@CConfig@Core@IronMan@@AEAAXPEAEV?$vector@EV?$allocator@E@std@@@std@@_K2@Z ; IronMan::Core::CConfig::SetupValue
PUBLIC	?Setup@CConfig@Core@IronMan@@QEAAXXZ		; IronMan::Core::CConfig::Setup
PUBLIC	?Save@CConfig@Core@IronMan@@QEAAXV?$basic_string@DU?$char_traits@D@std@@V?$allocator@D@2@@std@@@Z ; IronMan::Core::CConfig::Save
PUBLIC	?Save2@CConfig@Core@IronMan@@QEAAXV?$basic_string@DU?$char_traits@D@std@@V?$allocator@D@2@@std@@@Z ; IronMan::Core::CConfig::Save2
PUBLIC	?Load@CConfig@Core@IronMan@@QEAAXV?$basic_string@DU?$char_traits@D@std@@V?$allocator@D@2@@std@@@Z ; IronMan::Core::CConfig::Load
PUBLIC	?SaveThread@CConfig@Core@IronMan@@QEAAXV?$basic_string@DU?$char_traits@D@std@@V?$allocator@D@2@@std@@@Z ; IronMan::Core::CConfig::SaveThread
PUBLIC	?ThreadSave@CConfig@Core@IronMan@@QEAA_NV?$basic_string@DU?$char_traits@D@std@@V?$allocator@D@2@@std@@@Z ; IronMan::Core::CConfig::ThreadSave
PUBLIC	?MakeVectorRegister@Math@Core@IronMan@@YA?AT__m128@@IIII@Z ; IronMan::Core::Math::MakeVectorRegister
PUBLIC	?MakeVectorRegister@Math@Core@IronMan@@YA?AT__m128@@MMMM@Z ; IronMan::Core::Math::MakeVectorRegister
PUBLIC	??0ThreadParams@Core@IronMan@@QEAA@XZ		; IronMan::Core::ThreadParams::ThreadParams
PUBLIC	??1ThreadParams@Core@IronMan@@QEAA@XZ		; IronMan::Core::ThreadParams::~ThreadParams
PUBLIC	??_GThreadParams@Core@IronMan@@QEAAPEAXI@Z	; IronMan::Core::ThreadParams::`scalar deleting destructor'
PUBLIC	??$constHash@$0?BHMHMJDCEOJCGKPA@@@YA_KXZ	; constHash<-1713559401141529328>
PUBLIC	??$constHash@$0DMMCFONDFBDHFNDO@@@YA_KXZ	; constHash<4378166049451236670>
PUBLIC	??$constHash@$0?CNCMJFBBDLJMEDCC@@@YA_KXZ	; constHash<-3255140531929105186>
PUBLIC	??$constHash@$0?COHHCJBEPBFDCICF@@@YA_KXZ	; constHash<-3348190017898096677>
PUBLIC	??0?$allocator@M@std@@QEAA@XZ			; std::allocator<float>::allocator<float>
PUBLIC	?deallocate@?$allocator@M@std@@QEAAXQEAM_K@Z	; std::allocator<float>::deallocate
PUBLIC	?allocate@?$allocator@M@std@@QEAAPEAM_K@Z	; std::allocator<float>::allocate
PUBLIC	?max_size@?$_Default_allocator_traits@V?$allocator@M@std@@@std@@SA_KAEBV?$allocator@M@2@@Z ; std::_Default_allocator_traits<std::allocator<float> >::max_size
PUBLIC	??0?$vector@MV?$allocator@M@std@@@std@@QEAA@V?$initializer_list@M@1@AEBV?$allocator@M@1@@Z ; std::vector<float,std::allocator<float> >::vector<float,std::allocator<float> >
PUBLIC	??1?$vector@MV?$allocator@M@std@@@std@@QEAA@XZ	; std::vector<float,std::allocator<float> >::~vector<float,std::allocator<float> >
PUBLIC	?size@?$vector@MV?$allocator@M@std@@@std@@QEBA_KXZ ; std::vector<float,std::allocator<float> >::size
PUBLIC	?max_size@?$vector@MV?$allocator@M@std@@@std@@QEBA_KXZ ; std::vector<float,std::allocator<float> >::max_size
PUBLIC	??A?$vector@MV?$allocator@M@std@@@std@@QEAAAEAM_K@Z ; std::vector<float,std::allocator<float> >::operator[]
PUBLIC	?_Buy_raw@?$vector@MV?$allocator@M@std@@@std@@AEAAX_K@Z ; std::vector<float,std::allocator<float> >::_Buy_raw
PUBLIC	?_Buy_nonzero@?$vector@MV?$allocator@M@std@@@std@@AEAAX_K@Z ; std::vector<float,std::allocator<float> >::_Buy_nonzero
PUBLIC	?_Tidy@?$vector@MV?$allocator@M@std@@@std@@AEAAXXZ ; std::vector<float,std::allocator<float> >::_Tidy
PUBLIC	?_Xlength@?$vector@MV?$allocator@M@std@@@std@@CAXXZ ; std::vector<float,std::allocator<float> >::_Xlength
PUBLIC	?_Getal@?$vector@MV?$allocator@M@std@@@std@@AEAAAEAV?$allocator@M@2@XZ ; std::vector<float,std::allocator<float> >::_Getal
PUBLIC	?_Getal@?$vector@MV?$allocator@M@std@@@std@@AEBAAEBV?$allocator@M@2@XZ ; std::vector<float,std::allocator<float> >::_Getal
PUBLIC	??0?$_Vector_val@U?$_Simple_types@M@std@@@std@@QEAA@XZ ; std::_Vector_val<std::_Simple_types<float> >::_Vector_val<std::_Simple_types<float> >
PUBLIC	?_Get_first@?$_Compressed_pair@V?$allocator@M@std@@V?$_Vector_val@U?$_Simple_types@M@std@@@2@$00@std@@QEAAAEAV?$allocator@M@2@XZ ; std::_Compressed_pair<std::allocator<float>,std::_Vector_val<std::_Simple_types<float> >,1>::_Get_first
PUBLIC	?_Get_first@?$_Compressed_pair@V?$allocator@M@std@@V?$_Vector_val@U?$_Simple_types@M@std@@@2@$00@std@@QEBAAEBV?$allocator@M@2@XZ ; std::_Compressed_pair<std::allocator<float>,std::_Vector_val<std::_Simple_types<float> >,1>::_Get_first
PUBLIC	??0?$initializer_list@M@std@@QEAA@PEBM0@Z	; std::initializer_list<float>::initializer_list<float>
PUBLIC	?begin@?$initializer_list@M@std@@QEBAPEBMXZ	; std::initializer_list<float>::begin
PUBLIC	?end@?$initializer_list@M@std@@QEBAPEBMXZ	; std::initializer_list<float>::end
PUBLIC	?size@?$initializer_list@M@std@@QEBA_KXZ	; std::initializer_list<float>::size
PUBLIC	??$constHash@$0EPEPHOPHLJNKCFJM@@@YA_KXZ	; constHash<5714926054596552092>
PUBLIC	??$constHash@$0HCGCFEEJGDGHJBFA@@@YA_KXZ	; constHash<8242242942218506576>
PUBLIC	??$constHash@$0DJEPNFJOCLFBDLGF@@@YA_KXZ	; constHash<4129754258630327141>
PUBLIC	??$constHash@$0GCMEDBNAGIAOLBOC@@@YA_KXZ	; constHash<7116868082320978402>
PUBLIC	??$constHash@$0?CKCGHDICMAOCJGMM@@@YA_KXZ	; constHash<-3037242004126996172>
PUBLIC	??$constHash@$0EDGOPCAHBBNMMFHK@@@YA_KXZ	; constHash<4859087160157717882>
PUBLIC	??$constHash@$0?HLOMCEJKLKDHEAN@@@YA_KXZ	; constHash<-558097025508537357>
PUBLIC	??$constHash@$0BBNNOLLBIHINCMPC@@@YA_KXZ	; constHash<1287444216213744882>
PUBLIC	??$constHash@$0?GLHMLDPJGMBCNFM@@@YA_KXZ	; constHash<-484078958938238300>
PUBLIC	??$constHash@$0?FMCLBMHDMJFPKOPF@@@YA_KXZ	; constHash<-6641433359113236213>
PUBLIC	??$constHash@$0?FFDCOAFIPMGMFAKA@@@YA_KXZ	; constHash<-6139215914856108192>
PUBLIC	??$constHash@$0?DAACHCFEEHOEGNIJ@@@YA_KXZ	; constHash<-3459453170082934153>
PUBLIC	??$constHash@$0FAMCCFDBEEGPIKFJ@@@YA_KXZ	; constHash<5819254562047887961>
PUBLIC	??$constHash@$0DBFCNJLNPGLACCLC@@@YA_KXZ	; constHash<3554142465859527346>
PUBLIC	??$constHash@$0IGDDDPNBAPHFDEF@@@YA_KXZ		; constHash<604383937002165061>
PUBLIC	??$constHash@$0?EBFHLHCBEIEOAMDH@@@YA_KXZ	; constHash<-4708433289014021175>
PUBLIC	??$constHash@$0?FJKBDOBBKDCGMCBH@@@YA_KXZ	; constHash<-6458511586098594327>
PUBLIC	??$constHash@$0?DPCMCFMNKFANLHLE@@@YA_KXZ	; constHash<-4552054888532391860>
PUBLIC	??$constHash@$0DPCJNDPEEDFJLODA@@@YA_KXZ	; constHash<4551401944490032688>
PUBLIC	??$constHash@$0BGLIGMKECDHDHEIH@@@YA_KXZ	; constHash<1637177916774380679>
PUBLIC	??$constHash@$0?BNNBFNLNFANJNBEG@@@YA_KXZ	; constHash<-2148601564919091526>
PUBLIC	??$constHash@$0FPOMHMDAFODNIGCP@@@YA_KXZ	; constHash<6912036075288233519>
PUBLIC	??$constHash@$0BHJAJCGLHAKFKGNO@@@YA_KXZ	; constHash<1698018049667737310>
PUBLIC	??$constHash@$0?GNGOJINADPGBOGED@@@YA_KXZ	; constHash<-7885408017756317251>
PUBLIC	??$constHash@$0?DJEKOPNJIGINNIAH@@@YA_KXZ	; constHash<-4128375725982865415>
PUBLIC	??$constHash@$0?CDKFGDHGDDJOJEN@@@YA_KXZ	; constHash<-160535532613003597>
PUBLIC	??$constHash@$0EJEJNACDENDKOLMK@@@YA_KXZ	; constHash<5280980888106757066>
PUBLIC	??$constHash@$0?EPGIAAFJBMGKNHFB@@@YA_KXZ	; constHash<-5721823709303068497>
PUBLIC	??$constHash@$0?EBKODMCACMAEDNAE@@@YA_KXZ	; constHash<-4732786367288065284>
PUBLIC	??$constHash@$0HDEOHGPEMHHCJNKP@@@YA_KXZ	; constHash<8308709156235419055>
PUBLIC	??$constHash@$0?EKBMPPEKGMNMGEFE@@@YA_KXZ	; constHash<-5340423953273611348>
PUBLIC	??$constHash@$0?CMLHMHELMOOCFBFA@@@YA_KXZ	; constHash<-3222263186814292304>
PUBLIC	??$constHash@$0?HOJEHHHJELKEBIKH@@@YA_KXZ	; constHash<-9121046508175890599>
PUBLIC	??$constHash@$0BFMFLIBDBCKEHCKP@@@YA_KXZ	; constHash<1568862437265142447>
PUBLIC	??$constHash@$0CKDKABEKAGAMOHHG@@@YA_KXZ	; constHash<3042745915682908022>
PUBLIC	??$constHash@$0CLKAECBDOBBMHHJN@@@YA_KXZ	; constHash<3143585193053157277>
PUBLIC	??$constHash@$0CGELDBLPIAADLHKF@@@YA_KXZ	; constHash<2759353895250802597>
PUBLIC	??$constHash@$0?HHPGIIKJKDJLJEIN@@@YA_KXZ	; constHash<-8644246796959978637>
PUBLIC	??$constHash@$0FJPGHLFICHMONMHN@@@YA_KXZ	; constHash<6482504332201614461>
PUBLIC	??$constHash@$0FDOGFPDNJGLIDCMD@@@YA_KXZ	; constHash<6045624267917767363>
PUBLIC	??$constHash@$0GMHLCKFIBOEICPAJ@@@YA_KXZ	; constHash<7816888136185163529>
PUBLIC	??$constHash@$0CHIKBEKNNAJDOPIN@@@YA_KXZ	; constHash<2849112451026513805>
PUBLIC	??$constHash@$0FBFMJDMENECHKENI@@@YA_KXZ	; constHash<5862723288511784152>
PUBLIC	??$constHash@$0?GHLIIBDIADPJHLLP@@@YA_KXZ	; constHash<-7473865659206171583>
PUBLIC	??$constHash@$0EDPFGJNPKLKGKFGE@@@YA_KXZ	; constHash<4896936579213731172>
PUBLIC	??$constHash@$0?BLIPMBMCJDINMFOD@@@YA_KXZ	; constHash<-1986019002137036259>
PUBLIC	??$constHash@$0EJBCJPNAFJJGGJEI@@@YA_KXZ	; constHash<5265446631554574664>
PUBLIC	??$constHash@$0GKMLKODCDPCMJMKI@@@YA_KXZ	; constHash<7695435919124110504>
PUBLIC	??$constHash@$0FLANCHDOBEONGHFJ@@@YA_KXZ	; constHash<6560943379741239129>
PUBLIC	??$constHash@$0?LHJBANHLJLHLNLH@@@YA_KXZ	; constHash<-826710525319036343>
PUBLIC	??$constHash@$0?BDIKCJNIOAGCFIOA@@@YA_KXZ	; constHash<-1407983844960917728>
PUBLIC	??$constHash@$0FMBAMDIPJNIBAPI@@@YA_KXZ		; constHash<414626079544185080>
PUBLIC	??$constHash@$0?EDBPMDCPPGEGABDA@@@YA_KXZ	; constHash<-4836799135581864240>
PUBLIC	??$constHash@$0EIODIJNAFJGONDCE@@@YA_KXZ	; constHash<5252193118390768420>
PUBLIC	??$constHash@$0?CGEOFOAKIDKBGGCI@@@YA_KXZ	; constHash<-2760247020875769384>
PUBLIC	??$constHash@$0?CEPOHHNHMIAKICFF@@@YA_KXZ	; constHash<-2665699798107718229>
PUBLIC	??$constHash@$0BICGNADMNPAEJKOC@@@YA_KXZ	; constHash<1740307265883511522>
PUBLIC	??$constHash@$0EONANGJONKHBLDBA@@@YA_KXZ	; constHash<5679275107872256784>
PUBLIC	??$constHash@$0?BMBPPFDINBAOJGMF@@@YA_KXZ	; constHash<-2026607981714380485>
PUBLIC	??$constHash@$0?CLJCNMBIFCIHDGOB@@@YA_KXZ	; constHash<-3139813887252575969>
PUBLIC	??$constHash@$0?EKFABLCPPJONKICJ@@@YA_KXZ	; constHash<-5354809849814034473>
PUBLIC	??$constHash@$0?EDBPLECPPGEFOHLD@@@YA_KXZ	; constHash<-4836782642907441075>
PUBLIC	??$constHash@$0?DBKLGJCPOMFKCGII@@@YA_KXZ	; constHash<-3579069983425701512>
PUBLIC	??$constHash@$0?DBLMGICPOMGIJIAI@@@YA_KXZ	; constHash<-3583853958519101448>
PUBLIC	??$constHash@$0?CHPBDONJHMLIDBEC@@@YA_KXZ	; constHash<-2878150740687728962>
PUBLIC	??$constHash@$0?CHPBDMNJHMLICNNM@@@YA_KXZ	; constHash<-2878148541664472540>
PUBLIC	??$constHash@$0LAMLPLCEIDGHKKP@@@YA_KXZ		; constHash<796222006574348975>
PUBLIC	??$constHash@$0FOFBMOGPCJPNIKFF@@@YA_KXZ	; constHash<6796440289519962709>
PUBLIC	??$constHash@$0KNGJHAMCEDFFNNH@@@YA_KXZ		; constHash<780977663798238679>
PUBLIC	??$constHash@$0GKMAJONAGMGDOCOO@@@YA_KXZ	; constHash<7692322781557678830>
PUBLIC	??$constHash@$0EIOJNPNAFJHDNAPE@@@YA_KXZ	; constHash<5253976526251348212>
PUBLIC	??$constHash@$0HENICKIBAKACNOAM@@@YA_KXZ	; constHash<8419526237076250124>
PUBLIC	??$constHash@$0?DHFNJKJEHDDOGINH@@@YA_KXZ	; constHash<-3989514807299434711>
PUBLIC	??$constHash@$0HKELKDELEBKFBBNI@@@YA_KXZ	; constHash<8812316639499719128>
PUBLIC	??$constHash@$0HFCOJJBONJJBHOOO@@@YA_KXZ	; constHash<8443854709144518382>
PUBLIC	??$constHash@$0HHABPJHGMGELOOMK@@@YA_KXZ	; constHash<8575409454018457290>
PUBLIC	??$constHash@$0FKGACDIPJMBDIEC@@@YA_KXZ		; constHash<407015260055222338>
PUBLIC	??$constHash@$0CGLBBJKCPIFPOJEN@@@YA_KXZ	; constHash<2788037832061479245>
PUBLIC	??$constHash@$0LGFKGDMALLFOHHH@@@YA_KXZ		; constHash<821245283889702775>
PUBLIC	??$constHash@$0?DHHACHLJPOHFMNBH@@@YA_KXZ	; constHash<-3994736549269196055>
PUBLIC	??$constHash@$0?BPLMOOMJGNFPAIED@@@YA_KXZ	; constHash<-2286965259688151107>
PUBLIC	??$constHash@$0HGLHDNEPOBOJFBMP@@@YA_KXZ	; constHash<8554373430515421647>
PUBLIC	??$constHash@$0GGPINELEEPJFCLHI@@@YA_KXZ	; constHash<7419914256987270008>
PUBLIC	??$constHash@$0HMOJPENAHGOKDOEN@@@YA_KXZ	; constHash<9000994506462084685>
PUBLIC	??$constHash@$0CPCAEKNAEKOGPBGA@@@YA_KXZ	; constHash<3395796377507656032>
PUBLIC	??$constHash@$0?GKEBHMGNEKDPGHDC@@@YA_KXZ	; constHash<-7656537650345502514>
PUBLIC	??$constHash@$0?GBENLIGNEFBILEAC@@@YA_KXZ	; constHash<-7011462974335923202>
PUBLIC	??$constHash@$0?CENAAOLFFMBFMOPF@@@YA_KXZ	; constHash<-2652636352618024693>
PUBLIC	??$constHash@$0FKMDDGEDDPKCPMIB@@@YA_KXZ	; constHash<6540130746330446977>
PUBLIC	??$constHash@$0?DJIMAACPPAJHCEDK@@@YA_KXZ	; constHash<-4146689562801284154>
PUBLIC	??$constHash@$0GKENAPNAGMABLCGD@@@YA_KXZ	; constHash<7659795929066746467>
PUBLIC	??$constHash@$0?FNDDDANIHIPLKABM@@@YA_KXZ	; constHash<-6715765175640367132>
PUBLIC	??$constHash@$0CDJDLBIDFHDOABC@@@YA_KXZ		; constHash<160224236910403602>
PUBLIC	??$constHash@$0?GMCNNBLOBICEIIHO@@@YA_KXZ	; constHash<-7795117144427235454>
PUBLIC	??$constHash@$0BIMHKCIHJFDKLLKL@@@YA_KXZ	; constHash<1785574480483629995>
PUBLIC	??$constHash@$0FKCJCLBCFFLKGDNB@@@YA_KXZ	; constHash<6496771295206335441>
PUBLIC	??$constHash@$0EOEGMGEHDAELGENB@@@YA_KXZ	; constHash<5640413592383349969>
PUBLIC	??$constHash@$0?FJANENCPHBKDKKCH@@@YA_KXZ	; constHash<-6416869910238177831>
PUBLIC	??$constHash@$0?GBOEGLMBKBMBOBKD@@@YA_KXZ	; constHash<-7053881395755737507>
PUBLIC	??$constHash@$0?CHLLCJCPOGFMBGHO@@@YA_KXZ	; constHash<-2862927273829078654>
PUBLIC	??$constHash@$0?DJIMACCPPAJHCHKA@@@YA_KXZ	; constHash<-4146691761824540576>
PUBLIC	??$constHash@$0?BLEEGEHFKKAFKMJB@@@YA_KXZ	; constHash<-1964805793966828689>
PUBLIC	??$constHash@$0?FCHADIOPOCOKIHMF@@@YA_KXZ	; constHash<-5940310511457044421>
PUBLIC	??$constHash@$0?COCEPGIPIKEGHBJC@@@YA_KXZ	; constHash<-3325053521266897298>
PUBLIC	??$constHash@$0?OLOBFPDNPJMJEOB@@@YA_KXZ	; constHash<-1062310699278832865>
PUBLIC	??$constHash@$0CAILGHLNDMNJEHKI@@@YA_KXZ	; constHash<2345082093443827624>
PUBLIC	??$constHash@$0CMCOBAHCMPFGGMHF@@@YA_KXZ	; constHash<3183500071888383093>
PUBLIC	??$constHash@$0?IJAIIPCFIANIJPP@@@YA_KXZ	; constHash<-617143723390503423>
PUBLIC	??$constHash@$0?CFNJLNMHGMNABAMH@@@YA_KXZ	; constHash<-2727419713571262663>
PUBLIC	??$constHash@$0CKFNJKKCNBJKINPH@@@YA_KXZ	; constHash<3052766146519010807>
PUBLIC	??$constHash@$0?HFBNNLPOFECJCODE@@@YA_KXZ	; constHash<-8439143162142338612>
PUBLIC	??$constHash@$0HHAEANADLMBJGJEM@@@YA_KXZ	; constHash<8575993900112111948>
PUBLIC	??$constHash@$0?DIGAKGCPOPJIJAGE@@@YA_KXZ	; constHash<-4062429588701614180>
PUBLIC	??$constHash@$0?CFLKHFCKCPMJMBIF@@@YA_KXZ	; constHash<-2718614149122343301>
PUBLIC	??$constHash@$0CGHAFLAKONAHMAPG@@@YA_KXZ	; constHash<2769813873317363958>
PUBLIC	??$constHash@$0BINPLKNCNHFLIGAP@@@YA_KXZ	; constHash<1792356591435744783>
PUBLIC	??$constHash@$0?HMBOLCGONOFKKAGN@@@YA_KXZ	; constHash<-8943782099251011693>
PUBLIC	??$constHash@$0HBCCELPGINKMKINO@@@YA_KXZ	; constHash<8152161797804959966>
PUBLIC	??$constHash@$0?BKCMKCHENOEPANFC@@@YA_KXZ	; constHash<-1886060966791023954>
PUBLIC	??$constHash@$0?BPFCKGPKNICPMBGJ@@@YA_KXZ	; constHash<-2257049959565082985>
PUBLIC	??$constHash@$0GBKAOMBCFHELHAAA@@@YA_KXZ	; constHash<7034882181470842880>
PUBLIC	??$constHash@$0?EPIAANNNEJLJGHME@@@YA_KXZ	; constHash<-5728593970091091908>
PUBLIC	??$constHash@$0COFPFNPHOCKLOGID@@@YA_KXZ	; constHash<3341492767773419139>
PUBLIC	??$constHash@$0?FLNEOLLPDAPLEDPC@@@YA_KXZ	; constHash<-6617172958907155442>
PUBLIC	??$constHash@$0GKCOKBNAGLOHPJOK@@@YA_KXZ	; constHash<7651230733484685802>
PUBLIC	??$constHash@$0?DGMPEMNHNCEFIMKL@@@YA_KXZ	; constHash<-3949459888056667307>
PUBLIC	??$constHash@$0?GHIAKEBAFPMDIOGF@@@YA_KXZ	; constHash<-7458141373158624869>
PUBLIC	??$constHash@$0BFLCFIJAIPKNFHHA@@@YA_KXZ	; constHash<1563409398560020336>
PUBLIC	??$constHash@$0CDMHJGAAODPNIMCB@@@YA_KXZ	; constHash<2578194242262109217>
PUBLIC	??$constHash@$0GEALHHIPBHCBFLPD@@@YA_KXZ	; constHash<7208987084988701683>
PUBLIC	??$constHash@$0GKNBJHNAGMHCEKDM@@@YA_KXZ	; constHash<7697100159581309500>
PUBLIC	??$constHash@$0?BAAHCMPEEOAHCMN@@@YA_KXZ	; constHash<-72183828577284813>
PUBLIC	??$constHash@$0GPIHODMIEKDGBCMM@@@YA_KXZ	; constHash<8036642509443961548>
PUBLIC	??$constHash@$0FMHHMIPACNIIOOHI@@@YA_KXZ	; constHash<6663015107599593080>
PUBLIC	??$constHash@$0DCDFHHOAJDFDIKLP@@@YA_KXZ	; constHash<3617929682090166975>
PUBLIC	??$constHash@$0CPOPFNPDJKAANDBM@@@YA_KXZ	; constHash<3454082740058641180>
PUBLIC	??$constHash@$0EHLINHJJIKAJKFJJ@@@YA_KXZ	; constHash<5168117626853500313>
PUBLIC	??$constHash@$0?FNHEGOGKNLFHOPGP@@@YA_KXZ	; constHash<-6734128748051296111>
PUBLIC	??$constHash@$0?EGLCDHFMCIGFLGEN@@@YA_KXZ	; constHash<-5094194997463725645>
PUBLIC	??$constHash@$0ELFGKKLOGCNMKDJG@@@YA_KXZ	; constHash<5428714135520846742>
PUBLIC	??$constHash@$0CEELPNIGCPCBCCEI@@@YA_KXZ	; constHash<2615462761376850504>
PUBLIC	??$constHash@$0?GDAPDKCBFIPANNKG@@@YA_KXZ	; constHash<-7137987849306037670>
PUBLIC	??$constHash@$0CPOPFOPDJKAANEMP@@@YA_KXZ	; constHash<3454083839570269391>
PUBLIC	??$constHash@$0EHLINGJJIKAJKDOG@@@YA_KXZ	; constHash<5168116527341872102>
PUBLIC	??$constHash@$0?FNHEGPGKNLFHPBCC@@@YA_KXZ	; constHash<-6734129847562924322>
PUBLIC	??$constHash@$0ENCOEPIENHLCPIHB@@@YA_KXZ	; constHash<5561470021822249073>
PUBLIC	??$constHash@$0GPHPDOJJPCNMBJH@@@YA_KXZ		; constHash<502138068198605207>
PUBLIC	??$constHash@$0CLLBOLHJLNNMAPDN@@@YA_KXZ	; constHash<3148556522617573181>
PUBLIC	??$constHash@$0?PPCDINLPAIAKMLA@@@YA_KXZ	; constHash<-1149043372216855728>
PUBLIC	??$constHash@$0CLIPNPHJLNLPBEHD@@@YA_KXZ	; constHash<3138973179267978355>
PUBLIC	??$constHash@$0INBMGKDLFCFEOLE@@@YA_KXZ		; constHash<635507428857040564>
PUBLIC	??$constHash@$0BEAOBNNIOBGLLGL@@@YA_KXZ		; constHash<90320334235286379>
PUBLIC	??$constHash@$0CLKDODHJLNMPMEEJ@@@YA_KXZ	; constHash<3144607076849796169>
PUBLIC	??$constHash@$0FJAIJMKGOPNEHNDI@@@YA_KXZ	; constHash<6415549909991456056>
PUBLIC	??$constHash@$0CLKANNHJLNMNIEEA@@@YA_KXZ	; constHash<3143756054849750080>
PUBLIC	??$constHash@$0CLLIOHHJLNOCCHBP@@@YA_KXZ	; constHash<3150522449408435999>
PUBLIC	??$constHash@$0?DHAGEAJIOLLDKELC@@@YA_KXZ	; constHash<-3964927547479925938>
PUBLIC	??$constHash@$0?NFICBOBDDGFIGCO@@@YA_KXZ	; constHash<-961555771557250606>
PUBLIC	??$constHash@$0GFJEGNONOEELJCOB@@@YA_KXZ	; constHash<7319596162888733409>
PUBLIC	??$constHash@$0EOOPHHBBBBEHAGLO@@@YA_KXZ	; constHash<5687895769580242622>
PUBLIC	??$constHash@$0CMECBNMAEPCCKOAG@@@YA_KXZ	; constHash<3189144197930331654>
PUBLIC	??$constHash@$0?CCOHPMMAIJKEKFIM@@@YA_KXZ	; constHash<-2515256820782900620>
PUBLIC	??$constHash@$0?HFCHCPAGIJFJFIKF@@@YA_KXZ	; constHash<-8441767731649927333>
PUBLIC	??$constHash@$0?GJGMOKMMOLFGAPGN@@@YA_KXZ	; constHash<-7596704837309697901>
PUBLIC	??$constHash@$0?FGHEIEJOGDNPJENC@@@YA_KXZ	; constHash<-6229750000375534802>
PUBLIC	??$constHash@$0BBEJJFDOHMDOBPDE@@@YA_KXZ	; constHash<1245690867549609780>
PUBLIC	??$constHash@$0ECOLNLGHPMOGEPNM@@@YA_KXZ	; constHash<4822189065701314524>
PUBLIC	??$constHash@$0?EMEDJJPOOBGEKIGP@@@YA_KXZ	; constHash<-5495405290304350319>
PUBLIC	??$constHash@$0CKPIJINELLMJKJGA@@@YA_KXZ	; constHash<3096392783268260192>
PUBLIC	??$constHash@$0?CPGJIKEMBIHIHINB@@@YA_KXZ	; constHash<-3416413851769927889>
PUBLIC	??$constHash@$0FMOLHFMMEKLDBAJI@@@YA_KXZ	; constHash<6695574791303401624>
PUBLIC	??$constHash@$0?MIOHCEFJKPOBNPK@@@YA_KXZ	; constHash<-904786218426703354>
PUBLIC	??$constHash@$0DHAGBPPOMGJKFHHI@@@YA_KXZ	; constHash<3964891701060458360>
PUBLIC	??$constHash@$0EDCPCOLOGEEAJBID@@@YA_KXZ	; constHash<4841139519707189635>
PUBLIC	??$constHash@$0EACBLDLCGOFKFAIO@@@YA_KXZ	; constHash<4621172271595802766>
PUBLIC	??$constHash@$0BJLCCAFJNIPKEDHN@@@YA_KXZ	; constHash<1851577967067153277>
PUBLIC	??$constHash@$0?FMDOMPMEEDDHNNFN@@@YA_KXZ	; constHash<-6646978541893705053>
PUBLIC	??$constHash@$0?HCCLPGHJLJCJHAEN@@@YA_KXZ	; constHash<-8226940146980319309>
PUBLIC	??$constHash@$0?LBIKMCEFCMOEBAI@@@YA_KXZ	; constHash<-799578205866311944>
PUBLIC	??$constHash@$0?IPIOCNDLDLFODJB@@@YA_KXZ	; constHash<-646515945408684945>
PUBLIC	??$constHash@$0BBMDFLCGCIIDJKP@@@YA_KXZ		; constHash<79997933659371951>
PUBLIC	??$constHash@$0HADNFGJMLGBOBHEK@@@YA_KXZ	; constHash<8087715736897591114>
PUBLIC	??$constHash@$0CAPEHOKGCKHFOFNH@@@YA_KXZ	; constHash<2374662155673134551>
PUBLIC	??$constHash@$0?DCKJDILOGLKHCGHP@@@YA_KXZ	; constHash<-3650511363461555839>
PUBLIC	??$constHash@$0?HFFNEDGENFCILJPL@@@YA_KXZ	; constHash<-8456989775623666171>
PUBLIC	??$constHash@$0?HOIDCKHPFAEFOECB@@@YA_KXZ	; constHash<-9116176797023986721>
PUBLIC	??$constHash@$0EHNHONGPKABNFMEE@@@YA_KXZ	; constHash<5176867360369105988>
PUBLIC	??$constHash@$0BLGPIJENIENGNJCA@@@YA_KXZ	; constHash<1976949727473096992>
PUBLIC	??$constHash@$0ELCDOGKMPFCIALAP@@@YA_KXZ	; constHash<5414424807551273743>
PUBLIC	??$constHash@$0DJIEHHBMBNBLGCFA@@@YA_KXZ	; constHash<4144568519718822480>
PUBLIC	??$constHash@$0BHFIFIBOHGLIJIGD@@@YA_KXZ	; constHash<1682191348686952547>
PUBLIC	??$constHash@$0HNDECHNFHALABJGL@@@YA_KXZ	; constHash<9021879751202052459>
PUBLIC	??$constHash@$0EPBBNAPCJDKDMDBB@@@YA_KXZ	; constHash<5697564743878034193>
PUBLIC	??$constHash@$0?EOOOLPLJKDPOEJBK@@@YA_KXZ	; constHash<-5687694183456721178>
PUBLIC	??$constHash@$0BKCHHFMLCMNIMLHI@@@YA_KXZ	; constHash<1884604484569058168>
PUBLIC	??$constHash@$0DJCCMNKGGEPOIPKN@@@YA_KXZ	; constHash<4117079123912724397>
PUBLIC	??$constHash@$0CGDAFBNKCBKBDACJ@@@YA_KXZ	; constHash<2751789369632305193>
PUBLIC	??$constHash@$0?COHIMEIJEKGEOHDG@@@YA_KXZ	; constHash<-3348642416887654198>
PUBLIC	??$constHash@$0EFJLCNHMFGJELJHK@@@YA_KXZ	; constHash<5015652622058961274>
PUBLIC	??$constHash@$0FODMIMGOGLKOJKMA@@@YA_KXZ	; constHash<6790456744048761536>
PUBLIC	??$constHash@$0EIFDOPIECGHBBMHM@@@YA_KXZ	; constHash<5211772544657464444>
PUBLIC	??$constHash@$0HKBENCPNCGOEFBK@@@YA_KXZ		; constHash<549805497305154842>
PUBLIC	??$constHash@$0BGNDAAOMJLOLIPCA@@@YA_KXZ	; constHash<1644659305148550944>
PUBLIC	??$constHash@$0?BBHPCLCFHFICJNF@@@YA_KXZ	; constHash<-78798366285769173>
PUBLIC	??$constHash@$0?GEDEFKKKMDEIFGBB@@@YA_KXZ	; constHash<-7220495792048985617>
PUBLIC	??$constHash@$0CADDLNDEMOJKHLIJ@@@YA_KXZ	; constHash<2320406267528117129>
PUBLIC	??$constHash@$0DIBAGFCKHIFOAKBC@@@YA_KXZ	; constHash<4039840098833795602>
PUBLIC	??$constHash@$0?FFLLIAFINNBIFFGP@@@YA_KXZ	; constHash<-6177672433023604079>
PUBLIC	??$constHash@$0GFHKDMMFJPOMLHPH@@@YA_KXZ	; constHash<7312223764478736375>
PUBLIC	??$constHash@$0FJGOKBCNLDFGPFLG@@@YA_KXZ	; constHash<6444265334468179382>
PUBLIC	??$constHash@$0DLEIJLCKHHPAHBBO@@@YA_KXZ	; constHash<4271834853264093470>
PUBLIC	??$constHash@$0?DABDJAHNOMDAHNOG@@@YA_KXZ	; constHash<-3464271408885956070>
PUBLIC	??$constHash@$0?GAGHJLBOKBEAIECP@@@YA_KXZ	; constHash<-6946691506098963503>
PUBLIC	??$constHash@$0?BJHJLJCIDBBIGAJM@@@YA_KXZ	; constHash<-1835701905403699356>
PUBLIC	??$constHash@$0DBNJAJBHPGBBNGMO@@@YA_KXZ	; constHash<3591912176321943246>
PUBLIC	??$constHash@$0?CBKGPPJLJFEKAGPC@@@YA_KXZ	; constHash<-2424906493075261170>
PUBLIC	??$constHash@$0?IENLCHCKJGAHCDE@@@YA_KXZ	; constHash<-598330531047830068>
PUBLIC	??$constHash@$0?GCILFPGBFFPBKPIC@@@YA_KXZ	; constHash<-7100874109138087810>
PUBLIC	??$constHash@$0?GDHPLKINFHJDEEFP@@@YA_KXZ	; constHash<-7169654248019543135>
PUBLIC	??$constHash@$0?BJDILGMNIBIDMBDJ@@@YA_KXZ	; constHash<-1817403443401441593>
PUBLIC	??$constHash@$0?GFNOKJOLJOFONLAK@@@YA_KXZ	; constHash<-7340491272099912458>
PUBLIC	??$constHash@$0?HIHNHFPINEOLHILJ@@@YA_KXZ	; constHash<-8682225368224725177>
PUBLIC	??$constHash@$0HPOAHJPECPGNCPBJ@@@YA_KXZ	; constHash<9214498927274700569>
PUBLIC	??$constHash@$0IHPBFOHJGGHPGNP@@@YA_KXZ		; constHash<612232158750701279>
PUBLIC	??$constHash@$0?HAFBPILFMBKMLBDC@@@YA_KXZ	; constHash<-8093523464883581234>
PUBLIC	??$constHash@$0?BJIDFFFMHCPHDDKH@@@YA_KXZ	; constHash<-1838406928451449767>
PUBLIC	??$constHash@$0DPLAEDIEAKMNAIDI@@@YA_KXZ	; constHash<4589242254686488632>
PUBLIC	??$constHash@$0?FIMLFLIKOLMFDOAP@@@YA_KXZ	; constHash<-6398308347829108239>
PUBLIC	??$constHash@$0FMBECDIPJNIGMLK@@@YA_KXZ		; constHash<414685453172108474>
PUBLIC	??$constHash@$0?CHGPOAGDHGAIGDGJ@@@YA_KXZ	; constHash<-2841736607680717673>
PUBLIC	??$constHash@$0?DMBGNJNOLBPEGKAK@@@YA_KXZ	; constHash<-4329887642254862858>
PUBLIC	??$constHash@$0?GNBNDNJGKGDLIFO@@@YA_KXZ	; constHash<-491406765106378846>
PUBLIC	??$constHash@$0?BIGIKGJHNKNBLBAE@@@YA_KXZ	; constHash<-1758838825629626628>
PUBLIC	??$constHash@$0?FEMLFCJOOBPNGPE@@@YA_KXZ	; constHash<-381879260113000180>
PUBLIC	??$constHash@$0BLHLEIOMKAACEOPH@@@YA_KXZ	; constHash<1980256642293452535>
PUBLIC	??$constHash@$0?CGOEHNHKJOLAEHEB@@@YA_KXZ	; constHash<-2802502833733125953>
PUBLIC	??$constHash@$0?IJMAEPEEKCNODLL@@@YA_KXZ	; constHash<-620376295933338555>
PUBLIC	??$constHash@$0HINPGFHLGPHBJCIK@@@YA_KXZ	; constHash<8709791785182925450>
PUBLIC	??$constHash@$0?DOMGOPGGHIPJLMFO@@@YA_KXZ	; constHash<-4523566099135577182>
PUBLIC	??$constHash@$0DHOFEDKFHBBAMCHC@@@YA_KXZ	; constHash<4027699819598365298>
PUBLIC	??$constHash@$0?FPCAFOFHOEPFDELC@@@YA_KXZ	; constHash<-6854582364454335666>
PUBLIC	??$constHash@$0?BCOEEEKLJODNIHCN@@@YA_KXZ	; constHash<-1361288491257661229>
PUBLIC	??$constHash@$0HPBHFPMEHJBHPKAJ@@@YA_KXZ	; constHash<9157893664731036169>
PUBLIC	??$constHash@$0BNGOKNFEJHHPAKFH@@@YA_KXZ	; constHash<2120823053368625751>
PUBLIC	??$constHash@$0DJMFCBKDJAHMFAIP@@@YA_KXZ	; constHash<4162770416961343631>
PUBLIC	??$constHash@$0?GAIMCBFBAMACKDOA@@@YA_KXZ	; constHash<-6956972156358140896>
PUBLIC	??$constHash@$0?GGGNAIGEJJNLBKPO@@@YA_KXZ	; constHash<-7380564592501136126>
PUBLIC	??$constHash@$0?CCCHJGOFJMIDKIFG@@@YA_KXZ	; constHash<-2461101634298816598>
PUBLIC	??$constHash@$0?BAOGOFNMGEFCIPOD@@@YA_KXZ	; constHash<-1217913483988996067>
PUBLIC	??$constHash@$0?BPFFEIJLFODDHNNL@@@YA_KXZ	; constHash<-2257790620333735387>
PUBLIC	??$constHash@$0?EPDBNGJFDGFDPEGN@@@YA_KXZ	; constHash<-5706578139205071981>
PUBLIC	??$constHash@$0?GPHHFHKMANKPAEAN@@@YA_KXZ	; constHash<-8031984856914134029>
PUBLIC	??$constHash@$0CNMPODCLGDHEHMPC@@@YA_KXZ	; constHash<3301106827377540338>
PUBLIC	??$constHash@$0GJLDHDMJOFKFDGBC@@@YA_KXZ	; constHash<7616558705792071186>
PUBLIC	??$constHash@$0GDDODABMGAGILNHG@@@YA_KXZ	; constHash<7151206156745620854>
PUBLIC	??$constHash@$0BPJKKCOINGNGHMNA@@@YA_KXZ	; constHash<2277311682509700304>
PUBLIC	??$constHash@$0BPJHDOOINGNDJNAN@@@YA_KXZ	; constHash<2276357306416602381>
PUBLIC	??$constHash@$0CGIMMBPJKNIIBCOI@@@YA_KXZ	; constHash<2777808348283146984>
PUBLIC	??$constHash@$0CGIJDNPJKNIEPMMF@@@YA_KXZ	; constHash<2776818787817946309>
PUBLIC	??$constHash@$0BPJKKFOINGNGIBOJ@@@YA_KXZ	; constHash<2277314981044584937>
PUBLIC	??$constHash@$0BPJHDLOINGNDJHPE@@@YA_KXZ	; constHash<2276354007881717748>
PUBLIC	??$constHash@$0CGIMMEPJKNIIBIAB@@@YA_KXZ	; constHash<2777811646818031617>
PUBLIC	??$constHash@$0CGIJDKPJKNIEPHKM@@@YA_KXZ	; constHash<2776815489283061676>
PUBLIC	??$constHash@$0?CMPDMNKBACMEBJEE@@@YA_KXZ	; constHash<-3239158648429353284>
PUBLIC	??$constHash@$0?CLJPEKHHBIPOMOMH@@@YA_KXZ	; constHash<-3143312940308811463>
PUBLIC	??$constHash@$0?HHIDBLEOKCOKBGCM@@@YA_KXZ	; constHash<-8611756937017169452>
PUBLIC	??$constHash@$0DJOIDGBKJHGLGPDG@@@YA_KXZ	; constHash<4172644542596214582>
PUBLIC	??$constHash@$0GFBDPAOOGBMEGIJO@@@YA_KXZ	; constHash<7283429929021368478>
PUBLIC	??$constHash@$0FLDPBPAOIJBHPPPM@@@YA_KXZ	; constHash<6575008128274268156>
PUBLIC	??$constHash@$0FLDPCCAOIJBIAFBF@@@YA_KXZ	; constHash<6575011426809152789>
PUBLIC	??$constHash@$0EAJPKEAJKOLOCFDO@@@YA_KXZ	; constHash<4656620901217740094>
PUBLIC	??$constHash@$0EAJPKDAJKOLOCDIL@@@YA_KXZ	; constHash<4656619801706111883>
PUBLIC	??$constHash@$0HAHAJEKHOADJKGJG@@@YA_KXZ	; constHash<8102139178381846166>
PUBLIC	??$constHash@$0HAHAJDKHOADJKEOD@@@YA_KXZ	; constHash<8102138078870217955>
PUBLIC	??$constHash@$0CGPKDDMAPDECJAEB@@@YA_KXZ	; constHash<2808614221426888769>
PUBLIC	??$constHash@$0?DIJFJOCLIAKEAOCN@@@YA_KXZ	; constHash<-4077338947332869677>
PUBLIC	??$constHash@$0?DDHBPFJCBGOGOGBO@@@YA_KXZ	; constHash<-3707013976100890142>
PUBLIC	??$constHash@$0?HOKKHNIHHBFIBKJC@@@YA_KXZ	; constHash<-9127245615495387794>
PUBLIC	??$constHash@$0GMMGHLGJLAHCENGF@@@YA_KXZ	; constHash<7838087895346990437>
PUBLIC	??$constHash@$0GMMGHIGJLAHCEIEM@@@YA_KXZ	; constHash<7838084596812105804>
PUBLIC	??$constHash@$0FFBIAGPBGAOHJJNF@@@YA_KXZ	; constHash<6131658526447606229>
PUBLIC	??$constHash@$0HDLKDBJHPDPIPFO@@@YA_KXZ		; constHash<521189511795806046>
PUBLIC	??$constHash@$0?HKBIMMOPFLOGFJDA@@@YA_KXZ	; constHash<-8798007200479336752>
PUBLIC	??$constHash@$0FNIKNAEAMFDOIDPC@@@YA_KXZ	; constHash<6740428768919061490>
PUBLIC	??$constHash@$0?CJEOBHDKOKJMMBNG@@@YA_KXZ	; constHash<-2976341945550160342>
PUBLIC	??$constHash@$0?CLAOFELMBKHMBOBD@@@YA_KXZ	; constHash<-3102510360179777043>
PUBLIC	??$constHash@$0?FPOJLFJAGGFAKPJF@@@YA_KXZ	; constHash<-6911254734973218709>
PUBLIC	??$constHash@$0HCLNMAAMDLHPCMBM@@@YA_KXZ	; constHash<8267975649692429340>
PUBLIC	??$constHash@$0OOGADMLBGIHHDOK@@@YA_KXZ		; constHash<1073549731965662186>
PUBLIC	??$constHash@$0OOCHPMLBGIEFNMH@@@YA_KXZ		; constHash<1072560171500461511>
PUBLIC	??$constHash@$0FNIFKAMJKGMINMLC@@@YA_KXZ	; constHash<6738969205376867506>
PUBLIC	??$constHash@$0?EMLDNDHPEMILGNDG@@@YA_KXZ	; constHash<-5526993711412243766>
PUBLIC	??$constHash@$0DGGOCFEKEBPJKHKL@@@YA_KXZ	; constHash<3922113326350968747>
PUBLIC	??$constHash@$0HCLNMDAMDLHPDBDF@@@YA_KXZ	; constHash<8267978948227313973>
PUBLIC	??$constHash@$0OOGACMLBGIHHCDH@@@YA_KXZ		; constHash<1073548632454033975>
PUBLIC	??$constHash@$0OOCIAMLBGIEFPHK@@@YA_KXZ		; constHash<1072561271012089722>
PUBLIC	??$constHash@$0FNIFJPMJKGMINKPP@@@YA_KXZ	; constHash<6738968105865239295>
PUBLIC	??$constHash@$0?EMLDNEHPEMILGOOJ@@@YA_KXZ	; constHash<-5526994810923871977>
PUBLIC	??$constHash@$0DGGOCGEKEBPJKJFO@@@YA_KXZ	; constHash<3922114425862596958>
PUBLIC	??$constHash@$0BHEJFJNAEOHDHCNC@@@YA_KXZ	; constHash<1677971087376478930>
PUBLIC	??$constHash@$0?EICMBIBEIMGHNGEM@@@YA_KXZ	; constHash<-5200558146240108108>
PUBLIC	??$constHash@$0?CDBCIOLKENDNPOMI@@@YA_KXZ	; constHash<-2527239271719239368>
PUBLIC	??$constHash@$0?DABMHAFHOOIFFKFA@@@YA_KXZ	; constHash<-3466769336134621776>
PUBLIC	??$constHash@$0?HJCKIGEHNBFCJBMI@@@YA_KXZ	; constHash<-8730938470623777224>
PUBLIC	??$constHash@$0BHEJFINAEOHDHBBP@@@YA_KXZ	; constHash<1677969987864850719>
PUBLIC	??$constHash@$0?EICMBFBEIMGHNBDD@@@YA_KXZ	; constHash<-5200554847705223475>
PUBLIC	??$constHash@$0?CDBCILLKENDNPJKP@@@YA_KXZ	; constHash<-2527235973184354735>
PUBLIC	??$constHash@$0?DABMGNFHOOIFFFDH@@@YA_KXZ	; constHash<-3466766037599737143>
PUBLIC	??$constHash@$0?HJCKIDEHNBFCIMKP@@@YA_KXZ	; constHash<-8730935172088892591>
PUBLIC	??$constHash@$0?FCNDEHBBBKANGKLM@@@YA_KXZ	; constHash<-5968192069973142204>
PUBLIC	??$constHash@$0HPPBGNLHIDMDHNLC@@@YA_KXZ	; constHash<9219270547161185714>
PUBLIC	??$constHash@$0?CPPJBJOCLHDLKBIG@@@YA_KXZ	; constHash<-3456822650511008134>
PUBLIC	??$constHash@$0GJHGCHJEJLHNAEC@@@YA_KXZ		; constHash<474956558778224706>
PUBLIC	??$constHash@$0?GMIKPKDOOECAIKJN@@@YA_KXZ	; constHash<-7821338850904541853>
PUBLIC	??$constHash@$0?FCNDEEBBBKANGFKD@@@YA_KXZ	; constHash<-5968188771438257571>
PUBLIC	??$constHash@$0HPPBGMLHIDMDHLPP@@@YA_KXZ	; constHash<9219269447649557503>
PUBLIC	??$constHash@$0?CPPJBKOCLHDLKDDJ@@@YA_KXZ	; constHash<-3456823750022636345>
PUBLIC	??$constHash@$0GJHGBHJEJLHMOIP@@@YA_KXZ		; constHash<474955459266596495>
PUBLIC	??$constHash@$0GKNENDBEAKFLFBOJ@@@YA_KXZ	; constHash<7698009746109583849>
PUBLIC	??$constHash@$0?DKMGFJLOGBDMNOJN@@@YA_KXZ	; constHash<-4235171173798567581>
PUBLIC	??$constHash@$0?CMHPENFHDOBLLMCN@@@YA_KXZ	; constHash<-3206366496810581037>
PUBLIC	??$constHash@$0?CHABAJCIDIEAMEFF@@@YA_KXZ	; constHash<-2810537710803010645>
PUBLIC	??$constHash@$0?FMIGGNLPOGLAAIDF@@@YA_KXZ	; constHash<-6667136969345075253>
PUBLIC	??$constHash@$0?GBOGOHLFCHHMKDLC@@@YA_KXZ	; constHash<-7054580631560037298>
PUBLIC	??$constHash@$0?BLCKDEBADEPMFEJB@@@YA_KXZ	; constHash<-1957434232258974865>
PUBLIC	??$constHash@$0?GBOKGLLFCHHPLJNF@@@YA_KXZ	; constHash<-7055570192025237973>
PUBLIC	??$constHash@$0?BLCGLABADEPJDOGO@@@YA_KXZ	; constHash<-1956444671793774190>
PUBLIC	??$constHash@$0?ELECCDIAAFIELKFK@@@YA_KXZ	; constHash<-5422935934062869082>
PUBLIC	??$constHash@$0?GIIOCEDFHGJMMPIF@@@YA_KXZ	; constHash<-7533999038679273349>
PUBLIC	??$constHash@$0?NHPAFMKDOAGOCOF@@@YA_KXZ	; constHash<-972502410717487845>
PUBLIC	??$constHash@$0?CPFKCHDNDHEHLNMB@@@YA_KXZ	; constHash<-3412082811560508865>
PUBLIC	??$constHash@$0?CNBCMJDLBJBAAMPE@@@YA_KXZ	; constHash<-3247879536948284660>
PUBLIC	??$constHash@$0?DEJJMAGKNOLGGNHC@@@YA_KXZ	; constHash<-3790272126644546930>
PUBLIC	??$constHash@$0?DIHKHNBIJOPIIGHJ@@@YA_KXZ	; constHash<-4069702757982439033>
PUBLIC	??$constHash@$0HEGIBDGBBHNKDAMH@@@YA_KXZ	; constHash<8387975613710479559>
PUBLIC	??$constHash@$0HNFGNGNNOMOFHLMB@@@YA_KXZ	; constHash<9031642351388687297>
PUBLIC	??$constHash@$0BBKAODKAFJNHPJNL@@@YA_KXZ	; constHash<1270265372760078811>
PUBLIC	??$constHash@$0?HBAHCDGKIFPDDIN@@@YA_KXZ	; constHash<-509032336971477901>
PUBLIC	??$constHash@$0?GFKMDBMBBDGJHFLD@@@YA_KXZ	; constHash<-7326285399149082035>
PUBLIC	??$constHash@$0?BGILNOKDAJOMIFPC@@@YA_KXZ	; constHash<-1624636882424727026>
PUBLIC	??$constHash@$0?GFEOCPNMBIFABFNA@@@YA_KXZ	; constHash<-7299824668361364944>
PUBLIC	??$constHash@$0EOKJBDMKKIHLPILE@@@YA_KXZ	; constHash<5668083367153498292>
PUBLIC	??$constHash@$0CMLEENMPKMMFEBHE@@@YA_KXZ	; constHash<3221285187828924788>
PUBLIC	??$constHash@$0HOBFEMMBHMAFANGK@@@YA_KXZ	; constHash<9085252217182948714>
PUBLIC	??$constHash@$0?GPBOFMAKDEEMFIOK@@@YA_KXZ	; constHash<-8006938386408167658>
PUBLIC	??$constHash@$0HJOEDGHDMDHCHMCI@@@YA_KXZ	; constHash<8783205044107508776>
PUBLIC	??$constHash@$0?BJIMFNBDOBGCANJL@@@YA_KXZ	; constHash<-1840948687654751643>
PUBLIC	??$constHash@$0?HIIODNFFKGKMCJGK@@@YA_KXZ	; constHash<-8686948169322080618>
PUBLIC	??$constHash@$0?DGCFCHOHIIKPEBNG@@@YA_KXZ	; constHash<-3901568527570518486>
PUBLIC	??$constHash@$0?BJKCPOEKNGALCBMD@@@YA_KXZ	; constHash<-1847318394547413443>
PUBLIC	??$constHash@$0?EIBBHEFONKKHJHIE@@@YA_KXZ	; constHash<-5193059796079056772>
PUBLIC	??$constHash@$0?DCNOOINGIIDMGCOM@@@YA_KXZ	; constHash<-3665623154832466668>
PUBLIC	??$constHash@$0HKLOJKHMBCMHLEAC@@@YA_KXZ	; constHash<8844676575883932674>
PUBLIC	??$constHash@$0?HNKLPDOMHJMNCBHN@@@YA_KXZ	; constHash<-9055599672739832189>
PUBLIC	??0?$allocator@E@std@@QEAA@XZ			; std::allocator<unsigned char>::allocator<unsigned char>
PUBLIC	?deallocate@?$allocator@E@std@@QEAAXQEAE_K@Z	; std::allocator<unsigned char>::deallocate
PUBLIC	?allocate@?$allocator@E@std@@QEAAPEAE_K@Z	; std::allocator<unsigned char>::allocate
PUBLIC	?max_size@?$_Default_allocator_traits@V?$allocator@E@std@@@std@@SA_KAEBV?$allocator@E@2@@Z ; std::_Default_allocator_traits<std::allocator<unsigned char> >::max_size
PUBLIC	??0?$vector@EV?$allocator@E@std@@@std@@QEAA@V?$initializer_list@E@1@AEBV?$allocator@E@1@@Z ; std::vector<unsigned char,std::allocator<unsigned char> >::vector<unsigned char,std::allocator<unsigned char> >
PUBLIC	??1?$vector@EV?$allocator@E@std@@@std@@QEAA@XZ	; std::vector<unsigned char,std::allocator<unsigned char> >::~vector<unsigned char,std::allocator<unsigned char> >
PUBLIC	?size@?$vector@EV?$allocator@E@std@@@std@@QEBA_KXZ ; std::vector<unsigned char,std::allocator<unsigned char> >::size
PUBLIC	?max_size@?$vector@EV?$allocator@E@std@@@std@@QEBA_KXZ ; std::vector<unsigned char,std::allocator<unsigned char> >::max_size
PUBLIC	??A?$vector@EV?$allocator@E@std@@@std@@QEAAAEAE_K@Z ; std::vector<unsigned char,std::allocator<unsigned char> >::operator[]
PUBLIC	?_Buy_raw@?$vector@EV?$allocator@E@std@@@std@@AEAAX_K@Z ; std::vector<unsigned char,std::allocator<unsigned char> >::_Buy_raw
PUBLIC	?_Buy_nonzero@?$vector@EV?$allocator@E@std@@@std@@AEAAX_K@Z ; std::vector<unsigned char,std::allocator<unsigned char> >::_Buy_nonzero
PUBLIC	?_Tidy@?$vector@EV?$allocator@E@std@@@std@@AEAAXXZ ; std::vector<unsigned char,std::allocator<unsigned char> >::_Tidy
PUBLIC	?_Xlength@?$vector@EV?$allocator@E@std@@@std@@CAXXZ ; std::vector<unsigned char,std::allocator<unsigned char> >::_Xlength
PUBLIC	?_Getal@?$vector@EV?$allocator@E@std@@@std@@AEAAAEAV?$allocator@E@2@XZ ; std::vector<unsigned char,std::allocator<unsigned char> >::_Getal
PUBLIC	?_Getal@?$vector@EV?$allocator@E@std@@@std@@AEBAAEBV?$allocator@E@2@XZ ; std::vector<unsigned char,std::allocator<unsigned char> >::_Getal
PUBLIC	??0?$_Vector_val@U?$_Simple_types@E@std@@@std@@QEAA@XZ ; std::_Vector_val<std::_Simple_types<unsigned char> >::_Vector_val<std::_Simple_types<unsigned char> >
PUBLIC	?_Get_first@?$_Compressed_pair@V?$allocator@E@std@@V?$_Vector_val@U?$_Simple_types@E@std@@@2@$00@std@@QEAAAEAV?$allocator@E@2@XZ ; std::_Compressed_pair<std::allocator<unsigned char>,std::_Vector_val<std::_Simple_types<unsigned char> >,1>::_Get_first
PUBLIC	?_Get_first@?$_Compressed_pair@V?$allocator@E@std@@V?$_Vector_val@U?$_Simple_types@E@std@@@2@$00@std@@QEBAAEBV?$allocator@E@2@XZ ; std::_Compressed_pair<std::allocator<unsigned char>,std::_Vector_val<std::_Simple_types<unsigned char> >,1>::_Get_first
PUBLIC	??0?$initializer_list@E@std@@QEAA@PEBE0@Z	; std::initializer_list<unsigned char>::initializer_list<unsigned char>
PUBLIC	?begin@?$initializer_list@E@std@@QEBAPEBEXZ	; std::initializer_list<unsigned char>::begin
PUBLIC	?end@?$initializer_list@E@std@@QEBAPEBEXZ	; std::initializer_list<unsigned char>::end
PUBLIC	?size@?$initializer_list@E@std@@QEBA_KXZ	; std::initializer_list<unsigned char>::size
PUBLIC	??$constHash@$0GABDJIIOFGINACIE@@@YA_KXZ	; constHash<6923044789303444100>
PUBLIC	??$constHash@$0CKPDJJPOIPEIJMOL@@@YA_KXZ	; constHash<3094986687538306283>
PUBLIC	??$constHash@$0?CAPKDBANIAEJLCAM@@@YA_KXZ	; constHash<-2376265687448007180>
PUBLIC	??$constHash@$0?FKPEDEGEJHJKMBFH@@@YA_KXZ	; constHash<-6553920964375789911>
PUBLIC	??$constHash@$0?GKGLGODAEOPPFJJG@@@YA_KXZ	; constHash<-7668343944291244438>
PUBLIC	??$constHash@$0HCBFJMJGGEOMLNDP@@@YA_KXZ	; constHash<8220648864586972479>
PUBLIC	??$constHash@$0?CLPNFJPKPCMFIAGJ@@@YA_KXZ	; constHash<-3169788647088423017>
PUBLIC	??$constHash@$0BEPLBPODCNHLHADA@@@YA_KXZ	; constHash<1511837160494034992>
PUBLIC	??$constHash@$0CDILFLKNPEKCEBFP@@@YA_KXZ	; constHash<2561241615782003039>
PUBLIC	??$constHash@$0DENALPFIILODBPCC@@@YA_KXZ	; constHash<3805752072153014050>
PUBLIC	??$constHash@$0DFIFJBOOCFENPGAB@@@YA_KXZ	; constHash<3856649107926808065>
PUBLIC	??$constHash@$0HBLJIDJBAACBMIFH@@@YA_KXZ	; constHash<8194725655773038679>
PUBLIC	??$constHash@$0FOBFHOKGOHPNNGFJ@@@YA_KXZ	; constHash<6779464069397993049>
PUBLIC	??$constHash@$0?GOOLFPBNDAHDFGFB@@@YA_KXZ	; constHash<-7992586542670632529>
PUBLIC	??$constHash@$0DFHPKDMDJNFCPLMN@@@YA_KXZ	; constHash<3854979866605845453>
PUBLIC	??$constHash@$0HPMFDKCDBDIIBNDM@@@YA_KXZ	; constHash<9206828935554800956>
PUBLIC	??$constHash@$0FBELCIMBGFGCDMBJ@@@YA_KXZ	; constHash<5857820551420197913>
PUBLIC	??$constHash@$0ENABFEDNAAGPEAM@@@YA_KXZ		; constHash<346800552304636940>
PUBLIC	??$constHash@$0CBEACJHLBPBFKOMA@@@YA_KXZ	; constHash<2395960610540334784>
PUBLIC	??$constHash@$0EHNIGKHEAHBEGEB@@@YA_KXZ		; constHash<323562801139369537>
PUBLIC	??$constHash@$0?DAGOLOAHCFHMBLML@@@YA_KXZ	; constHash<-3489935699161652171>
PUBLIC	??$constHash@$0CGEBLIAFJFAIJMME@@@YA_KXZ	; constHash<2756686781042171076>
PUBLIC	??$constHash@$0?CHLFLODDIDDPDMKH@@@YA_KXZ	; constHash<-2861402266718387367>
PUBLIC	??$constHash@$0FJCEBJJMDJIJPCNH@@@YA_KXZ	; constHash<6423287127308104407>
PUBLIC	??$constHash@$0?FMMMJNFAKKMJKNLI@@@YA_KXZ	; constHash<-6686892516526632376>
PUBLIC	??$constHash@$0ECIFAFFFLABMDLCA@@@YA_KXZ	; constHash<4793243243990760224>
PUBLIC	??$constHash@$0CFLHJNMOMFNMBEME@@@YA_KXZ	; constHash<2717814411549742276>
PUBLIC	??$constHash@$0?BMGDKGBOGHNEEKBE@@@YA_KXZ	; constHash<-2045661305277532692>
PUBLIC	??$constHash@$0?CCPJKBLFALCALKE@@@YA_KXZ	; constHash<-157513954089896868>
PUBLIC	??$constHash@$0?CMDFABGOEFAFKCPE@@@YA_KXZ	; constHash<-3185453884550521588>
PUBLIC	??$constHash@$0?BFNMMKLOMJNCEAOJ@@@YA_KXZ	; constHash<-1575356890451427561>
PUBLIC	??$constHash@$0FIFKLGCNJGKEJFMB@@@YA_KXZ	; constHash<6366601330158769601>
PUBLIC	??$constHash@$0BEIMGMMMHNHHKIJP@@@YA_KXZ	; constHash<1480678003032172703>
PUBLIC	??$constHash@$0GBCDDLKEMOJCBIAC@@@YA_KXZ	; constHash<6999503824890238978>
PUBLIC	??$constHash@$0?CBNJPPOODHHNHNED@@@YA_KXZ	; constHash<-2439262071796104515>
PUBLIC	??$constHash@$0EHNCGIFEDGDFLGOE@@@YA_KXZ	; constHash<5175313632698152676>
PUBLIC	??$constHash@$0FFGCHCDEEBINGKFI@@@YA_KXZ	; constHash<6152605609705171544>
PUBLIC	??$constHash@$0?BMHLJAOCAIFNMOLI@@@YA_KXZ	; constHash<-2052393355674767032>
PUBLIC	??$constHash@$0?HCBMOLLEGGNEKKFH@@@YA_KXZ	; constHash<-8222706179723536983>
PUBLIC	??$constHash@$0HOFAHAIBECKKKNHH@@@YA_KXZ	; constHash<9101898547387346295>
PUBLIC	??$constHash@$0EMHPKPGBNNDOMGIO@@@YA_KXZ	; constHash<5512317303783343758>
PUBLIC	??$constHash@$0CCDNNPGAEONAILMC@@@YA_KXZ	; constHash<2467373775601044418>
PUBLIC	??$constHash@$0?FEAHNPNCLPHHADLF@@@YA_KXZ	; constHash<-6055054320271295413>
PUBLIC	??$constHash@$0?GBEHDNHAJNADJFOH@@@YA_KXZ	; constHash<-7009638898905355751>
PUBLIC	??$constHash@$0GAFIHDEKPBMJJNEM@@@YA_KXZ	; constHash<6942425591312915788>
PUBLIC	??$constHash@$0EGLNOLPEFMHMJFDA@@@YA_KXZ	; constHash<5097489788009485616>
PUBLIC	??$constHash@$0BEFOECONEFBPHAFD@@@YA_KXZ	; constHash<1467684115403731027>
PUBLIC	??$constHash@$0?KDEOHIOPLHNOOFE@@@YA_KXZ	; constHash<-735467240458939988>
PUBLIC	??$constHash@$0?MCEKMJDGKKLLNNF@@@YA_KXZ	; constHash<-875013976766528981>
PUBLIC	??$constHash@$0BGDFEEJEFOEGLJEH@@@YA_KXZ	; constHash<1600260646627621191>
PUBLIC	??$constHash@$0?HGMKNPHJFGAAIEKK@@@YA_KXZ	; constHash<-8559899753997960362>
PUBLIC	??$constHash@$0CIGPJHCHHFGLAGLJ@@@YA_KXZ	; constHash<2913713679661467321>
PUBLIC	??$constHash@$0NKDMCBBPECJJBIA@@@YA_KXZ		; constHash<982842526063497600>
PUBLIC	??$constHash@$0?GPHDNPDJLMPKIBAI@@@YA_KXZ	; constHash<-8031007999608389896>
PUBLIC	??$constHash@$0EHLKLOONIJHNHCD@@@YA_KXZ		; constHash<323040840611518243>
PUBLIC	??$constHash@$0DOMAJCIFJJDCCOFL@@@YA_KXZ	; constHash<4521775128378486363>
PUBLIC	??$constHash@$0EOAJDMCENKLPJFDL@@@YA_KXZ	; constHash<5623091738735252795>
PUBLIC	??$constHash@$0BDEPGJLDMODGFCNO@@@YA_KXZ	; constHash<1391447030860501726>
PUBLIC	??$constHash@$0BIINAEKLOFMAHLHB@@@YA_KXZ	; constHash<1769075364966988657>
PUBLIC	??$constHash@$0?FKGBODEOPHHOFOGN@@@YA_KXZ	; constHash<-6512736464453656173>
PUBLIC	??$constHash@$0BAFFDNLMHEHAMPOE@@@YA_KXZ	; constHash<1176914757243949028>
PUBLIC	??$constHash@$0IIHMMJOEGAJLIIL@@@YA_KXZ		; constHash<614684854311303307>
PUBLIC	??$constHash@$0GCJBKDKNOANBENBB@@@YA_KXZ	; constHash<7102638054536465681>
PUBLIC	??$constHash@$0?FJEIBFOPGLJAIMNM@@@YA_KXZ	; constHash<-6433416185744755932>
PUBLIC	??$constHash@$0BFBCPNCIECPJCIBE@@@YA_KXZ	; constHash<1518554373741422612>
PUBLIC	??$constHash@$0?EOLGOPPNIIIMCDFM@@@YA_KXZ	; constHash<-5671984652916368220>
PUBLIC	??$constHash@$0BHIGOPCHDLAANJPI@@@YA_KXZ	; constHash<1695305261524244984>
PUBLIC	??$constHash@$0GEBPAAOKAGEAMPNC@@@YA_KXZ	; constHash<7214486133198082002>
PUBLIC	??$constHash@$0?KEBDLCPAJLJEDDG@@@YA_KXZ	; constHash<-738936887078110006>
PUBLIC	??$constHash@$0?EDNNEABIPHMAAILF@@@YA_KXZ	; constHash<-4890135246374176949>
PUBLIC	??$constHash@$0?MMIPCMKJJMANOIL@@@YA_KXZ	; constHash<-921253075774135947>
PUBLIC	??$constHash@$0?FBDDAKIBFOBLPGLP@@@YA_KXZ	; constHash<-5851031891630356159>
PUBLIC	??$constHash@$0?FMHDINPMFAPPBOLF@@@YA_KXZ	; constHash<-6661824388641267381>
PUBLIC	??$constHash@$0EICLOACHIJMNJGHO@@@YA_KXZ	; constHash<5200496655149667966>
PUBLIC	??$constHash@$0?DCKNDGLEJFHGPPPJ@@@YA_KXZ	; constHash<-3651635022096957433>
PUBLIC	??$constHash@$0?GDMHOMAPEGMIEHEM@@@YA_KXZ	; constHash<-7189974880476481356>
PUBLIC	??$constHash@$0OADOEHIPDCGIAPJ@@@YA_KXZ		; constHash<1009901949587718393>
PUBLIC	??$constHash@$0CNKNLIJGLOLDMJGO@@@YA_KXZ	; constHash<3291489860261759342>
PUBLIC	??$constHash@$0DNNGNBIENGOMAAOL@@@YA_KXZ	; constHash<4455979249801363691>
PUBLIC	??$constHash@$0?BBEODKPPPCHCFAIB@@@YA_KXZ	; constHash<-1246999017786855553>
PUBLIC	??$constHash@$0?FCKJNDEAKGKLJOPI@@@YA_KXZ	; constHash<-5956524256801824504>
PUBLIC	??$constHash@$0EDAMAJCEOPPPDHDN@@@YA_KXZ	; constHash<4831246554511652669>
PUBLIC	??$constHash@$0NCJJPNCMBAPPBKL@@@YA_KXZ		; constHash<948464924069196203>
PUBLIC	??$constHash@$0GGEHHMMLDAPNKCJE@@@YA_KXZ	; constHash<7369996527357239956>
PUBLIC	??$constHash@$0?CIBAHHLBIKBPJDEH@@@YA_KXZ	; constHash<-2886938965554729799>
PUBLIC	??$constHash@$0?ELCJAJFJOPEGOIAL@@@YA_KXZ	; constHash<-5415870308760872971>
PUBLIC	??$constHash@$0CPMICCCGLFEIECOK@@@YA_KXZ	; constHash<3443039464770257642>
PUBLIC	??$constHash@$0?EIBLBDMFBLDBKACK@@@YA_KXZ	; constHash<-5195768332387721258>
PUBLIC	??$constHash@$0?DDIICLDGIPFJCCHM@@@YA_KXZ	; constHash<-3713265406100185724>
PUBLIC	??$constHash@$0?FGJPPJJDPKOIHMMG@@@YA_KXZ	; constHash<-6241982022523845830>
PUBLIC	??$constHash@$0COJIKGIAHMJDCCCJ@@@YA_KXZ	; constHash<3357616592980746793>
PUBLIC	??$constHash@$0?CHCNPIHHHJNDIKKL@@@YA_KXZ	; constHash<-2823185733459872427>
PUBLIC	??$constHash@$0HMPLKIMPFKFNCDDH@@@YA_KXZ	; constHash<9005977488385188663>
PUBLIC	??$constHash@$0?CAKLDLPDDILLNEHF@@@YA_KXZ	; constHash<-2354041146046141557>
PUBLIC	??$constHash@$0?EHINEEDAOANBANME@@@YA_KXZ	; constHash<-5155852125130001860>
PUBLIC	??$constHash@$0?GDMANCCIOHMOKJNC@@@YA_KXZ	; constHash<-7187976078412917202>
PUBLIC	??$constHash@$0?HODMFEGEAMHNNPPO@@@YA_KXZ	; constHash<-9096238136064598014>
PUBLIC	??$constHash@$0?HAAHKCLIBJGCPJIH@@@YA_KXZ	; constHash<-8072599768668502407>
PUBLIC	??$constHash@$0CONHGHALPOFDOCOH@@@YA_KXZ	; constHash<3375279746946687719>
PUBLIC	??$constHash@$0HPBDOOOFPANJAAJF@@@YA_KXZ	; constHash<9156925138730025109>
PUBLIC	??$constHash@$0GFGDHLODDEJGNGBH@@@YA_KXZ	; constHash<7305819236295169559>
PUBLIC	??$constHash@$0?EKCMCGJJNPBAHFNA@@@YA_KXZ	; constHash<-5344689300096185808>
PUBLIC	??0?$ConfigValue@H@Core@IronMan@@QEAA@_K0PEAH@Z	; IronMan::Core::ConfigValue<int>::ConfigValue<int>
PUBLIC	??0?$ConfigValue@M@Core@IronMan@@QEAA@_K0PEAM@Z	; IronMan::Core::ConfigValue<float>::ConfigValue<float>
PUBLIC	??0?$ConfigValue@E@Core@IronMan@@QEAA@_K0PEAE@Z	; IronMan::Core::ConfigValue<unsigned char>::ConfigValue<unsigned char>
PUBLIC	??0?$ConfigValue@PEAD@Core@IronMan@@QEAA@_K0PEAPEAD@Z ; IronMan::Core::ConfigValue<char *>::ConfigValue<char *>
PUBLIC	??0?$ConfigValue@_N@Core@IronMan@@QEAA@_K0PEA_N@Z ; IronMan::Core::ConfigValue<bool>::ConfigValue<bool>
PUBLIC	??$?0AEBV?$allocator@E@std@@$$V@?$_Compressed_pair@V?$allocator@E@std@@V?$_Vector_val@U?$_Simple_types@E@std@@@2@$00@std@@QEAA@U_One_then_variadic_args_t@1@AEBV?$allocator@E@1@@Z ; std::_Compressed_pair<std::allocator<unsigned char>,std::_Vector_val<std::_Simple_types<unsigned char> >,1>::_Compressed_pair<std::allocator<unsigned char>,std::_Vector_val<std::_Simple_types<unsigned char> >,1><std::allocator<unsigned char> const &>
PUBLIC	??$_Convert_size@_K_K@std@@YA_K_K@Z		; std::_Convert_size<unsigned __int64,unsigned __int64>
PUBLIC	??$_Construct_n@PEBEPEBE@?$vector@EV?$allocator@E@std@@@std@@AEAAX_K$$QEAPEBE1@Z ; std::vector<unsigned char,std::allocator<unsigned char> >::_Construct_n<unsigned char const *,unsigned char const *>
PUBLIC	??$?0AEBV?$allocator@M@std@@$$V@?$_Compressed_pair@V?$allocator@M@std@@V?$_Vector_val@U?$_Simple_types@M@std@@@2@$00@std@@QEAA@U_One_then_variadic_args_t@1@AEBV?$allocator@M@1@@Z ; std::_Compressed_pair<std::allocator<float>,std::_Vector_val<std::_Simple_types<float> >,1>::_Compressed_pair<std::allocator<float>,std::_Vector_val<std::_Simple_types<float> >,1><std::allocator<float> const &>
PUBLIC	??$_Construct_n@PEBMPEBM@?$vector@MV?$allocator@M@std@@@std@@AEAAX_K$$QEAPEBM1@Z ; std::vector<float,std::allocator<float> >::_Construct_n<float const *,float const *>
PUBLIC	??$_Unfancy_maybe_null@PEAV?$ConfigValue@E@Core@IronMan@@@std@@YAPEAPEAV?$ConfigValue@E@Core@IronMan@@PEAPEAV123@@Z ; std::_Unfancy_maybe_null<IronMan::Core::ConfigValue<unsigned char> *>
PUBLIC	??$_Destroy_range@V?$allocator@PEAV?$ConfigValue@E@Core@IronMan@@@std@@@std@@YAXPEAPEAV?$ConfigValue@E@Core@IronMan@@QEAPEAV123@AEAV?$allocator@PEAV?$ConfigValue@E@Core@IronMan@@@0@@Z ; std::_Destroy_range<std::allocator<IronMan::Core::ConfigValue<unsigned char> *> >
PUBLIC	??$move@AEAPEAV?$ConfigValue@E@Core@IronMan@@@std@@YA$$QEAPEAV?$ConfigValue@E@Core@IronMan@@AEAPEAV123@@Z ; std::move<IronMan::Core::ConfigValue<unsigned char> * &>
PUBLIC	??$_Emplace_one_at_back@PEAV?$ConfigValue@E@Core@IronMan@@@?$vector@PEAV?$ConfigValue@E@Core@IronMan@@V?$allocator@PEAV?$ConfigValue@E@Core@IronMan@@@std@@@std@@AEAAAEAPEAV?$ConfigValue@E@Core@IronMan@@$$QEAPEAV234@@Z ; std::vector<IronMan::Core::ConfigValue<unsigned char> *,std::allocator<IronMan::Core::ConfigValue<unsigned char> *> >::_Emplace_one_at_back<IronMan::Core::ConfigValue<unsigned char> *>
PUBLIC	??$_Unfancy_maybe_null@PEAV?$ConfigValue@PEAD@Core@IronMan@@@std@@YAPEAPEAV?$ConfigValue@PEAD@Core@IronMan@@PEAPEAV123@@Z ; std::_Unfancy_maybe_null<IronMan::Core::ConfigValue<char *> *>
PUBLIC	??$move@AEAPEAV?$ConfigValue@PEAD@Core@IronMan@@@std@@YA$$QEAPEAV?$ConfigValue@PEAD@Core@IronMan@@AEAPEAV123@@Z ; std::move<IronMan::Core::ConfigValue<char *> * &>
PUBLIC	??$_Emplace_one_at_back@PEAV?$ConfigValue@PEAD@Core@IronMan@@@?$vector@PEAV?$ConfigValue@PEAD@Core@IronMan@@V?$allocator@PEAV?$ConfigValue@PEAD@Core@IronMan@@@std@@@std@@AEAAAEAPEAV?$ConfigValue@PEAD@Core@IronMan@@$$QEAPEAV234@@Z ; std::vector<IronMan::Core::ConfigValue<char *> *,std::allocator<IronMan::Core::ConfigValue<char *> *> >::_Emplace_one_at_back<IronMan::Core::ConfigValue<char *> *>
PUBLIC	??$_Unfancy_maybe_null@PEAV?$ConfigValue@M@Core@IronMan@@@std@@YAPEAPEAV?$ConfigValue@M@Core@IronMan@@PEAPEAV123@@Z ; std::_Unfancy_maybe_null<IronMan::Core::ConfigValue<float> *>
PUBLIC	??$_Destroy_range@V?$allocator@PEAV?$ConfigValue@M@Core@IronMan@@@std@@@std@@YAXPEAPEAV?$ConfigValue@M@Core@IronMan@@QEAPEAV123@AEAV?$allocator@PEAV?$ConfigValue@M@Core@IronMan@@@0@@Z ; std::_Destroy_range<std::allocator<IronMan::Core::ConfigValue<float> *> >
PUBLIC	??$move@AEAPEAV?$ConfigValue@M@Core@IronMan@@@std@@YA$$QEAPEAV?$ConfigValue@M@Core@IronMan@@AEAPEAV123@@Z ; std::move<IronMan::Core::ConfigValue<float> * &>
PUBLIC	??$_Emplace_one_at_back@PEAV?$ConfigValue@M@Core@IronMan@@@?$vector@PEAV?$ConfigValue@M@Core@IronMan@@V?$allocator@PEAV?$ConfigValue@M@Core@IronMan@@@std@@@std@@AEAAAEAPEAV?$ConfigValue@M@Core@IronMan@@$$QEAPEAV234@@Z ; std::vector<IronMan::Core::ConfigValue<float> *,std::allocator<IronMan::Core::ConfigValue<float> *> >::_Emplace_one_at_back<IronMan::Core::ConfigValue<float> *>
PUBLIC	??$_Unfancy_maybe_null@PEAV?$ConfigValue@_N@Core@IronMan@@@std@@YAPEAPEAV?$ConfigValue@_N@Core@IronMan@@PEAPEAV123@@Z ; std::_Unfancy_maybe_null<IronMan::Core::ConfigValue<bool> *>
PUBLIC	??$_Destroy_range@V?$allocator@PEAV?$ConfigValue@_N@Core@IronMan@@@std@@@std@@YAXPEAPEAV?$ConfigValue@_N@Core@IronMan@@QEAPEAV123@AEAV?$allocator@PEAV?$ConfigValue@_N@Core@IronMan@@@0@@Z ; std::_Destroy_range<std::allocator<IronMan::Core::ConfigValue<bool> *> >
PUBLIC	??$move@AEAPEAV?$ConfigValue@_N@Core@IronMan@@@std@@YA$$QEAPEAV?$ConfigValue@_N@Core@IronMan@@AEAPEAV123@@Z ; std::move<IronMan::Core::ConfigValue<bool> * &>
PUBLIC	??$_Emplace_one_at_back@PEAV?$ConfigValue@_N@Core@IronMan@@@?$vector@PEAV?$ConfigValue@_N@Core@IronMan@@V?$allocator@PEAV?$ConfigValue@_N@Core@IronMan@@@std@@@std@@AEAAAEAPEAV?$ConfigValue@_N@Core@IronMan@@$$QEAPEAV234@@Z ; std::vector<IronMan::Core::ConfigValue<bool> *,std::allocator<IronMan::Core::ConfigValue<bool> *> >::_Emplace_one_at_back<IronMan::Core::ConfigValue<bool> *>
PUBLIC	??$_Unfancy_maybe_null@PEAV?$ConfigValue@H@Core@IronMan@@@std@@YAPEAPEAV?$ConfigValue@H@Core@IronMan@@PEAPEAV123@@Z ; std::_Unfancy_maybe_null<IronMan::Core::ConfigValue<int> *>
PUBLIC	??$_Destroy_range@V?$allocator@PEAV?$ConfigValue@H@Core@IronMan@@@std@@@std@@YAXPEAPEAV?$ConfigValue@H@Core@IronMan@@QEAPEAV123@AEAV?$allocator@PEAV?$ConfigValue@H@Core@IronMan@@@0@@Z ; std::_Destroy_range<std::allocator<IronMan::Core::ConfigValue<int> *> >
PUBLIC	??$move@AEAPEAV?$ConfigValue@H@Core@IronMan@@@std@@YA$$QEAPEAV?$ConfigValue@H@Core@IronMan@@AEAPEAV123@@Z ; std::move<IronMan::Core::ConfigValue<int> * &>
PUBLIC	??$_Emplace_one_at_back@PEAV?$ConfigValue@H@Core@IronMan@@@?$vector@PEAV?$ConfigValue@H@Core@IronMan@@V?$allocator@PEAV?$ConfigValue@H@Core@IronMan@@@std@@@std@@AEAAAEAPEAV?$ConfigValue@H@Core@IronMan@@$$QEAPEAV234@@Z ; std::vector<IronMan::Core::ConfigValue<int> *,std::allocator<IronMan::Core::ConfigValue<int> *> >::_Emplace_one_at_back<IronMan::Core::ConfigValue<int> *>
PUBLIC	??$_Allocate_at_least_helper@V?$allocator@D@std@@@std@@YAPEADAEAV?$allocator@D@0@AEA_K@Z ; std::_Allocate_at_least_helper<std::allocator<char> >
PUBLIC	??$_Unfancy@D@std@@YAPEADPEAD@Z			; std::_Unfancy<char>
PUBLIC	??$max@_K@std@@YAAEB_KAEB_K0@Z			; std::max<unsigned __int64>
PUBLIC	??$_Max_limit@_J@std@@YA_JXZ			; std::_Max_limit<__int64>
PUBLIC	??$addressof@V?$_String_val@U?$_Simple_types@D@std@@@std@@@std@@YAPEAV?$_String_val@U?$_Simple_types@D@std@@@0@AEAV10@@Z ; std::addressof<std::_String_val<std::_Simple_types<char> > >
PUBLIC	??R<lambda_66f57f934f28d61049862f64df852ff0>@@QEBA@QEAD_KQEBD@Z ; <lambda_66f57f934f28d61049862f64df852ff0>::operator()
PUBLIC	??$_Reallocate_for@V<lambda_66f57f934f28d61049862f64df852ff0>@@PEBD@?$basic_string@DU?$char_traits@D@std@@V?$allocator@D@2@@std@@AEAAAEAV01@_KV<lambda_66f57f934f28d61049862f64df852ff0>@@PEBD@Z ; std::basic_string<char,std::char_traits<char>,std::allocator<char> >::_Reallocate_for<<lambda_66f57f934f28d61049862f64df852ff0>,char const *>
PUBLIC	??R<lambda_65e615be2a453ca0576c979606f46740>@@QEBA@QEADQEBD_K12@Z ; <lambda_65e615be2a453ca0576c979606f46740>::operator()
PUBLIC	??$_Reallocate_grow_by@V<lambda_65e615be2a453ca0576c979606f46740>@@PEBD_K@?$basic_string@DU?$char_traits@D@std@@V?$allocator@D@2@@std@@AEAAAEAV01@_KV<lambda_65e615be2a453ca0576c979606f46740>@@PEBD_K@Z ; std::basic_string<char,std::char_traits<char>,std::allocator<char> >::_Reallocate_grow_by<<lambda_65e615be2a453ca0576c979606f46740>,char const *,unsigned __int64>
PUBLIC	??$addressof@$$CBV?$basic_string@DU?$char_traits@D@std@@V?$allocator@D@2@@std@@@std@@YAPEBV?$basic_string@DU?$char_traits@D@std@@V?$allocator@D@2@@0@AEBV10@@Z ; std::addressof<std::basic_string<char,std::char_traits<char>,std::allocator<char> > const >
PUBLIC	??$_Pocca@V?$allocator@D@std@@@std@@YAXAEAV?$allocator@D@0@AEBV10@@Z ; std::_Pocca<std::allocator<char> >
PUBLIC	??$move@AEAV?$allocator@D@std@@@std@@YA$$QEAV?$allocator@D@0@AEAV10@@Z ; std::move<std::allocator<char> &>
PUBLIC	??$?0V?$allocator@D@std@@$$V@?$_Compressed_pair@V?$allocator@D@std@@V?$_String_val@U?$_Simple_types@D@std@@@2@$00@std@@QEAA@U_One_then_variadic_args_t@1@$$QEAV?$allocator@D@1@@Z ; std::_Compressed_pair<std::allocator<char>,std::_String_val<std::_Simple_types<char> >,1>::_Compressed_pair<std::allocator<char>,std::_String_val<std::_Simple_types<char> >,1><std::allocator<char> >
PUBLIC	??$?0$$V@?$_Compressed_pair@V?$allocator@D@std@@V?$_String_val@U?$_Simple_types@D@std@@@2@$00@std@@QEAA@U_Zero_then_variadic_args_t@1@@Z ; std::_Compressed_pair<std::allocator<char>,std::_String_val<std::_Simple_types<char> >,1>::_Compressed_pair<std::allocator<char>,std::_String_val<std::_Simple_types<char> >,1><>
PUBLIC	??$_Construct@$0A@D@?$basic_string@DU?$char_traits@D@std@@V?$allocator@D@2@@std@@AEAAXD_K@Z ; std::basic_string<char,std::char_traits<char>,std::allocator<char> >::_Construct<0,char>
PUBLIC	??$_Construct@$00PEBD@?$basic_string@DU?$char_traits@D@std@@V?$allocator@D@2@@std@@AEAAXQEBD_K@Z ; std::basic_string<char,std::char_traits<char>,std::allocator<char> >::_Construct<1,char const *>
PUBLIC	??$_Construct@$01PEBD@?$basic_string@DU?$char_traits@D@std@@V?$allocator@D@2@@std@@AEAAXQEBD_K@Z ; std::basic_string<char,std::char_traits<char>,std::allocator<char> >::_Construct<2,char const *>
PUBLIC	??$_Destroy_range@V?$allocator@E@std@@@std@@YAXPEAEQEAEAEAV?$allocator@E@0@@Z ; std::_Destroy_range<std::allocator<unsigned char> >
PUBLIC	??$_Destroy_range@V?$allocator@M@std@@@std@@YAXPEAMQEAMAEAV?$allocator@M@0@@Z ; std::_Destroy_range<std::allocator<float> >
PUBLIC	??$_Destroy_range@V?$allocator@PEAV?$ConfigValue@PEAD@Core@IronMan@@@std@@@std@@YAXPEAPEAV?$ConfigValue@PEAD@Core@IronMan@@QEAPEAV123@AEAV?$allocator@PEAV?$ConfigValue@PEAD@Core@IronMan@@@0@@Z ; std::_Destroy_range<std::allocator<IronMan::Core::ConfigValue<char *> *> >
PUBLIC	??$_Destroy_range@V?$allocator@V?$basic_string@DU?$char_traits@D@std@@V?$allocator@D@2@@std@@@std@@@std@@YAXPEAV?$basic_string@DU?$char_traits@D@std@@V?$allocator@D@2@@0@QEAV10@AEAV?$allocator@V?$basic_string@DU?$char_traits@D@std@@V?$allocator@D@2@@std@@@0@@Z ; std::_Destroy_range<std::allocator<std::basic_string<char,std::char_traits<char>,std::allocator<char> > > >
PUBLIC	??$_Construct_in_place@PEADAEAPEAD@std@@YAXAEAPEAD0@Z ; std::_Construct_in_place<char *,char * &>
PUBLIC	??$?0AEBV?$allocator@D@std@@$$V@?$_Compressed_pair@V?$allocator@D@std@@V?$_String_val@U?$_Simple_types@D@std@@@2@$00@std@@QEAA@U_One_then_variadic_args_t@1@AEBV?$allocator@D@1@@Z ; std::_Compressed_pair<std::allocator<char>,std::_String_val<std::_Simple_types<char> >,1>::_Compressed_pair<std::allocator<char>,std::_String_val<std::_Simple_types<char> >,1><std::allocator<char> const &>
PUBLIC	??$_Deallocate@$0BA@@std@@YAXPEAX_K@Z		; std::_Deallocate<16>
PUBLIC	??$_Allocate@$0BA@U_Default_allocate_traits@std@@@std@@YAPEAX_K@Z ; std::_Allocate<16,std::_Default_allocate_traits>
PUBLIC	??$_Construct_in_place@PEADAEBQEAD@std@@YAXAEAPEADAEBQEAD@Z ; std::_Construct_in_place<char *,char * const &>
PUBLIC	??$_Destroy_in_place@PEAD@std@@YAXAEAPEAD@Z	; std::_Destroy_in_place<char *>
PUBLIC	??$_Get_size_of_n@$07@std@@YA_K_K@Z		; std::_Get_size_of_n<8>
PUBLIC	??$end@D$0BF@@std@@YAPEADAEAY0BF@D@Z		; std::end<char,21>
PUBLIC	??$_UIntegral_to_buff@DI@std@@YAPEADPEADI@Z	; std::_UIntegral_to_buff<char,unsigned int>
PUBLIC	??$?0PEAD$0A@@?$basic_string@DU?$char_traits@D@std@@V?$allocator@D@2@@std@@QEAA@PEAD0AEBV?$allocator@D@1@@Z ; std::basic_string<char,std::char_traits<char>,std::allocator<char> >::basic_string<char,std::char_traits<char>,std::allocator<char> ><char *,0>
PUBLIC	??$_UIntegral_to_buff@D_K@std@@YAPEADPEAD_K@Z	; std::_UIntegral_to_buff<char,unsigned __int64>
PUBLIC	??$forward@AEBV?$allocator@E@std@@@std@@YAAEBV?$allocator@E@0@AEBV10@@Z ; std::forward<std::allocator<unsigned char> const &>
PUBLIC	??1?$_Tidy_guard@V?$vector@EV?$allocator@E@std@@@std@@@std@@QEAA@XZ ; std::_Tidy_guard<std::vector<unsigned char,std::allocator<unsigned char> > >::~_Tidy_guard<std::vector<unsigned char,std::allocator<unsigned char> > >
PUBLIC	??$forward@PEBE@std@@YA$$QEAPEBEAEAPEBE@Z	; std::forward<unsigned char const *>
PUBLIC	??$_Uninitialized_copy@PEBEPEBEV?$allocator@E@std@@@std@@YAPEAEPEBE0PEAEAEAV?$allocator@E@0@@Z ; std::_Uninitialized_copy<unsigned char const *,unsigned char const *,std::allocator<unsigned char> >
PUBLIC	??$forward@AEBV?$allocator@M@std@@@std@@YAAEBV?$allocator@M@0@AEBV10@@Z ; std::forward<std::allocator<float> const &>
PUBLIC	??1?$_Tidy_guard@V?$vector@MV?$allocator@M@std@@@std@@@std@@QEAA@XZ ; std::_Tidy_guard<std::vector<float,std::allocator<float> > >::~_Tidy_guard<std::vector<float,std::allocator<float> > >
PUBLIC	??$forward@PEBM@std@@YA$$QEAPEBMAEAPEBM@Z	; std::forward<float const *>
PUBLIC	??$_Uninitialized_copy@PEBMPEBMV?$allocator@M@std@@@std@@YAPEAMPEBM0PEAMAEAV?$allocator@M@0@@Z ; std::_Uninitialized_copy<float const *,float const *,std::allocator<float> >
PUBLIC	??$forward@PEAV?$ConfigValue@E@Core@IronMan@@@std@@YA$$QEAPEAV?$ConfigValue@E@Core@IronMan@@AEAPEAV123@@Z ; std::forward<IronMan::Core::ConfigValue<unsigned char> *>
PUBLIC	??$_Emplace_back_with_unused_capacity@PEAV?$ConfigValue@E@Core@IronMan@@@?$vector@PEAV?$ConfigValue@E@Core@IronMan@@V?$allocator@PEAV?$ConfigValue@E@Core@IronMan@@@std@@@std@@AEAAAEAPEAV?$ConfigValue@E@Core@IronMan@@$$QEAPEAV234@@Z ; std::vector<IronMan::Core::ConfigValue<unsigned char> *,std::allocator<IronMan::Core::ConfigValue<unsigned char> *> >::_Emplace_back_with_unused_capacity<IronMan::Core::ConfigValue<unsigned char> *>
PUBLIC	??$_Emplace_reallocate@PEAV?$ConfigValue@E@Core@IronMan@@@?$vector@PEAV?$ConfigValue@E@Core@IronMan@@V?$allocator@PEAV?$ConfigValue@E@Core@IronMan@@@std@@@std@@AEAAPEAPEAV?$ConfigValue@E@Core@IronMan@@QEAPEAV234@$$QEAPEAV234@@Z ; std::vector<IronMan::Core::ConfigValue<unsigned char> *,std::allocator<IronMan::Core::ConfigValue<unsigned char> *> >::_Emplace_reallocate<IronMan::Core::ConfigValue<unsigned char> *>
PUBLIC	??$forward@PEAV?$ConfigValue@PEAD@Core@IronMan@@@std@@YA$$QEAPEAV?$ConfigValue@PEAD@Core@IronMan@@AEAPEAV123@@Z ; std::forward<IronMan::Core::ConfigValue<char *> *>
PUBLIC	??$_Emplace_back_with_unused_capacity@PEAV?$ConfigValue@PEAD@Core@IronMan@@@?$vector@PEAV?$ConfigValue@PEAD@Core@IronMan@@V?$allocator@PEAV?$ConfigValue@PEAD@Core@IronMan@@@std@@@std@@AEAAAEAPEAV?$ConfigValue@PEAD@Core@IronMan@@$$QEAPEAV234@@Z ; std::vector<IronMan::Core::ConfigValue<char *> *,std::allocator<IronMan::Core::ConfigValue<char *> *> >::_Emplace_back_with_unused_capacity<IronMan::Core::ConfigValue<char *> *>
PUBLIC	??$_Emplace_reallocate@PEAV?$ConfigValue@PEAD@Core@IronMan@@@?$vector@PEAV?$ConfigValue@PEAD@Core@IronMan@@V?$allocator@PEAV?$ConfigValue@PEAD@Core@IronMan@@@std@@@std@@AEAAPEAPEAV?$ConfigValue@PEAD@Core@IronMan@@QEAPEAV234@$$QEAPEAV234@@Z ; std::vector<IronMan::Core::ConfigValue<char *> *,std::allocator<IronMan::Core::ConfigValue<char *> *> >::_Emplace_reallocate<IronMan::Core::ConfigValue<char *> *>
PUBLIC	??$forward@PEAV?$ConfigValue@M@Core@IronMan@@@std@@YA$$QEAPEAV?$ConfigValue@M@Core@IronMan@@AEAPEAV123@@Z ; std::forward<IronMan::Core::ConfigValue<float> *>
PUBLIC	??$_Emplace_back_with_unused_capacity@PEAV?$ConfigValue@M@Core@IronMan@@@?$vector@PEAV?$ConfigValue@M@Core@IronMan@@V?$allocator@PEAV?$ConfigValue@M@Core@IronMan@@@std@@@std@@AEAAAEAPEAV?$ConfigValue@M@Core@IronMan@@$$QEAPEAV234@@Z ; std::vector<IronMan::Core::ConfigValue<float> *,std::allocator<IronMan::Core::ConfigValue<float> *> >::_Emplace_back_with_unused_capacity<IronMan::Core::ConfigValue<float> *>
PUBLIC	??$_Emplace_reallocate@PEAV?$ConfigValue@M@Core@IronMan@@@?$vector@PEAV?$ConfigValue@M@Core@IronMan@@V?$allocator@PEAV?$ConfigValue@M@Core@IronMan@@@std@@@std@@AEAAPEAPEAV?$ConfigValue@M@Core@IronMan@@QEAPEAV234@$$QEAPEAV234@@Z ; std::vector<IronMan::Core::ConfigValue<float> *,std::allocator<IronMan::Core::ConfigValue<float> *> >::_Emplace_reallocate<IronMan::Core::ConfigValue<float> *>
PUBLIC	??$forward@PEAV?$ConfigValue@_N@Core@IronMan@@@std@@YA$$QEAPEAV?$ConfigValue@_N@Core@IronMan@@AEAPEAV123@@Z ; std::forward<IronMan::Core::ConfigValue<bool> *>
PUBLIC	??$_Emplace_back_with_unused_capacity@PEAV?$ConfigValue@_N@Core@IronMan@@@?$vector@PEAV?$ConfigValue@_N@Core@IronMan@@V?$allocator@PEAV?$ConfigValue@_N@Core@IronMan@@@std@@@std@@AEAAAEAPEAV?$ConfigValue@_N@Core@IronMan@@$$QEAPEAV234@@Z ; std::vector<IronMan::Core::ConfigValue<bool> *,std::allocator<IronMan::Core::ConfigValue<bool> *> >::_Emplace_back_with_unused_capacity<IronMan::Core::ConfigValue<bool> *>
PUBLIC	??$_Emplace_reallocate@PEAV?$ConfigValue@_N@Core@IronMan@@@?$vector@PEAV?$ConfigValue@_N@Core@IronMan@@V?$allocator@PEAV?$ConfigValue@_N@Core@IronMan@@@std@@@std@@AEAAPEAPEAV?$ConfigValue@_N@Core@IronMan@@QEAPEAV234@$$QEAPEAV234@@Z ; std::vector<IronMan::Core::ConfigValue<bool> *,std::allocator<IronMan::Core::ConfigValue<bool> *> >::_Emplace_reallocate<IronMan::Core::ConfigValue<bool> *>
PUBLIC	??$forward@PEAV?$ConfigValue@H@Core@IronMan@@@std@@YA$$QEAPEAV?$ConfigValue@H@Core@IronMan@@AEAPEAV123@@Z ; std::forward<IronMan::Core::ConfigValue<int> *>
PUBLIC	??$_Emplace_back_with_unused_capacity@PEAV?$ConfigValue@H@Core@IronMan@@@?$vector@PEAV?$ConfigValue@H@Core@IronMan@@V?$allocator@PEAV?$ConfigValue@H@Core@IronMan@@@std@@@std@@AEAAAEAPEAV?$ConfigValue@H@Core@IronMan@@$$QEAPEAV234@@Z ; std::vector<IronMan::Core::ConfigValue<int> *,std::allocator<IronMan::Core::ConfigValue<int> *> >::_Emplace_back_with_unused_capacity<IronMan::Core::ConfigValue<int> *>
PUBLIC	??$_Emplace_reallocate@PEAV?$ConfigValue@H@Core@IronMan@@@?$vector@PEAV?$ConfigValue@H@Core@IronMan@@V?$allocator@PEAV?$ConfigValue@H@Core@IronMan@@@std@@@std@@AEAAPEAPEAV?$ConfigValue@H@Core@IronMan@@QEAPEAV234@$$QEAPEAV234@@Z ; std::vector<IronMan::Core::ConfigValue<int> *,std::allocator<IronMan::Core::ConfigValue<int> *> >::_Emplace_reallocate<IronMan::Core::ConfigValue<int> *>
PUBLIC	??$_Allocate_for_capacity@$0A@@?$basic_string@DU?$char_traits@D@std@@V?$allocator@D@2@@std@@CAPEADAEAV?$allocator@D@1@AEA_K@Z ; std::basic_string<char,std::char_traits<char>,std::allocator<char> >::_Allocate_for_capacity<0>
PUBLIC	??$forward@V?$allocator@D@std@@@std@@YA$$QEAV?$allocator@D@0@AEAV10@@Z ; std::forward<std::allocator<char> >
PUBLIC	??$_Unfancy@V?$basic_string@DU?$char_traits@D@std@@V?$allocator@D@2@@std@@@std@@YAPEAV?$basic_string@DU?$char_traits@D@std@@V?$allocator@D@2@@0@PEAV10@@Z ; std::_Unfancy<std::basic_string<char,std::char_traits<char>,std::allocator<char> > >
PUBLIC	??$destroy@V?$basic_string@DU?$char_traits@D@std@@V?$allocator@D@2@@std@@@?$_Default_allocator_traits@V?$allocator@V?$basic_string@DU?$char_traits@D@std@@V?$allocator@D@2@@std@@@std@@@std@@SAXAEAV?$allocator@V?$basic_string@DU?$char_traits@D@std@@V?$allocator@D@2@@std@@@1@QEAV?$basic_string@DU?$char_traits@D@std@@V?$allocator@D@2@@1@@Z ; std::_Default_allocator_traits<std::allocator<std::basic_string<char,std::char_traits<char>,std::allocator<char> > > >::destroy<std::basic_string<char,std::char_traits<char>,std::allocator<char> > >
PUBLIC	??$addressof@PEAD@std@@YAPEAPEADAEAPEAD@Z	; std::addressof<char *>
PUBLIC	??$forward@AEAPEAD@std@@YAAEAPEADAEAPEAD@Z	; std::forward<char * &>
PUBLIC	??$forward@AEBV?$allocator@D@std@@@std@@YAAEBV?$allocator@D@0@AEBV10@@Z ; std::forward<std::allocator<char> const &>
PUBLIC	??$_Allocate_manually_vector_aligned@U_Default_allocate_traits@std@@@std@@YAPEAX_K@Z ; std::_Allocate_manually_vector_aligned<std::_Default_allocate_traits>
PUBLIC	??$forward@AEBQEAD@std@@YAAEBQEADAEBQEAD@Z	; std::forward<char * const &>
PUBLIC	??$_Get_size_of_n@$00@std@@YA_K_K@Z		; std::_Get_size_of_n<1>
PUBLIC	??$_Allocate_at_least_helper@V?$allocator@E@std@@@std@@YAPEAEAEAV?$allocator@E@0@AEA_K@Z ; std::_Allocate_at_least_helper<std::allocator<unsigned char> >
PUBLIC	??$_Allocate_at_least_helper@V?$allocator@M@std@@@std@@YAPEAMAEAV?$allocator@M@0@AEA_K@Z ; std::_Allocate_at_least_helper<std::allocator<float> >
PUBLIC	??$?0$0A@@id@locale@std@@QEAA@XZ		; std::locale::id::id<0>
PUBLIC	??$_Get_unwrapped@AEAPEAD@std@@YA?A_TAEAPEAD@Z	; std::_Get_unwrapped<char * &>
PUBLIC	??$_Construct@$00PEAD@?$basic_string@DU?$char_traits@D@std@@V?$allocator@D@2@@std@@AEAAXQEAD_K@Z ; std::basic_string<char,std::char_traits<char>,std::allocator<char> >::_Construct<1,char *>
PUBLIC	??$move@AEAPEBE@std@@YA$$QEAPEBEAEAPEBE@Z	; std::move<unsigned char const * &>
PUBLIC	??$_Get_unwrapped@PEBE@std@@YA?A_T$$QEAPEBE@Z	; std::_Get_unwrapped<unsigned char const *>
PUBLIC	??$_To_address@PEBE@std@@YA?A_PAEBQEBE@Z	; std::_To_address<unsigned char const *>
PUBLIC	??$_Unfancy@E@std@@YAPEAEPEAE@Z			; std::_Unfancy<unsigned char>
PUBLIC	??$_Copy_memmove@PEBEPEAE@std@@YAPEAEPEBE0PEAE@Z ; std::_Copy_memmove<unsigned char const *,unsigned char *>
PUBLIC	??0?$_Uninitialized_backout_al@V?$allocator@E@std@@@std@@QEAA@PEAEAEAV?$allocator@E@1@@Z ; std::_Uninitialized_backout_al<std::allocator<unsigned char> >::_Uninitialized_backout_al<std::allocator<unsigned char> >
PUBLIC	??1?$_Uninitialized_backout_al@V?$allocator@E@std@@@std@@QEAA@XZ ; std::_Uninitialized_backout_al<std::allocator<unsigned char> >::~_Uninitialized_backout_al<std::allocator<unsigned char> >
PUBLIC	?_Release@?$_Uninitialized_backout_al@V?$allocator@E@std@@@std@@QEAAPEAEXZ ; std::_Uninitialized_backout_al<std::allocator<unsigned char> >::_Release
PUBLIC	??$_Emplace_back@AEBE@?$_Uninitialized_backout_al@V?$allocator@E@std@@@std@@QEAAXAEBE@Z ; std::_Uninitialized_backout_al<std::allocator<unsigned char> >::_Emplace_back<unsigned char const &>
PUBLIC	??$move@AEAPEBM@std@@YA$$QEAPEBMAEAPEBM@Z	; std::move<float const * &>
PUBLIC	??$_Get_unwrapped@PEBM@std@@YA?A_T$$QEAPEBM@Z	; std::_Get_unwrapped<float const *>
PUBLIC	??$_To_address@PEBM@std@@YA?A_PAEBQEBM@Z	; std::_To_address<float const *>
PUBLIC	??$_Unfancy@M@std@@YAPEAMPEAM@Z			; std::_Unfancy<float>
PUBLIC	??$_Copy_memmove@PEBMPEAM@std@@YAPEAMPEBM0PEAM@Z ; std::_Copy_memmove<float const *,float *>
PUBLIC	??0?$_Uninitialized_backout_al@V?$allocator@M@std@@@std@@QEAA@PEAMAEAV?$allocator@M@1@@Z ; std::_Uninitialized_backout_al<std::allocator<float> >::_Uninitialized_backout_al<std::allocator<float> >
PUBLIC	??1?$_Uninitialized_backout_al@V?$allocator@M@std@@@std@@QEAA@XZ ; std::_Uninitialized_backout_al<std::allocator<float> >::~_Uninitialized_backout_al<std::allocator<float> >
PUBLIC	?_Release@?$_Uninitialized_backout_al@V?$allocator@M@std@@@std@@QEAAPEAMXZ ; std::_Uninitialized_backout_al<std::allocator<float> >::_Release
PUBLIC	??$_Emplace_back@AEBM@?$_Uninitialized_backout_al@V?$allocator@M@std@@@std@@QEAAXAEBM@Z ; std::_Uninitialized_backout_al<std::allocator<float> >::_Emplace_back<float const &>
PUBLIC	??$_Construct_in_place@PEAV?$ConfigValue@E@Core@IronMan@@PEAV123@@std@@YAXAEAPEAV?$ConfigValue@E@Core@IronMan@@$$QEAPEAV123@@Z ; std::_Construct_in_place<IronMan::Core::ConfigValue<unsigned char> *,IronMan::Core::ConfigValue<unsigned char> *>
PUBLIC	??$_Allocate_at_least_helper@V?$allocator@PEAV?$ConfigValue@E@Core@IronMan@@@std@@@std@@YAPEAPEAV?$ConfigValue@E@Core@IronMan@@AEAV?$allocator@PEAV?$ConfigValue@E@Core@IronMan@@@0@AEA_K@Z ; std::_Allocate_at_least_helper<std::allocator<IronMan::Core::ConfigValue<unsigned char> *> >
PUBLIC	??1_Reallocation_guard@?$vector@PEAV?$ConfigValue@E@Core@IronMan@@V?$allocator@PEAV?$ConfigValue@E@Core@IronMan@@@std@@@std@@QEAA@XZ ; std::vector<IronMan::Core::ConfigValue<unsigned char> *,std::allocator<IronMan::Core::ConfigValue<unsigned char> *> >::_Reallocation_guard::~_Reallocation_guard
PUBLIC	??$_Unfancy@PEAV?$ConfigValue@E@Core@IronMan@@@std@@YAPEAPEAV?$ConfigValue@E@Core@IronMan@@PEAPEAV123@@Z ; std::_Unfancy<IronMan::Core::ConfigValue<unsigned char> *>
PUBLIC	??$construct@PEAV?$ConfigValue@E@Core@IronMan@@PEAV123@@?$_Default_allocator_traits@V?$allocator@PEAV?$ConfigValue@E@Core@IronMan@@@std@@@std@@SAXAEAV?$allocator@PEAV?$ConfigValue@E@Core@IronMan@@@1@QEAPEAV?$ConfigValue@E@Core@IronMan@@$$QEAPEAV345@@Z ; std::_Default_allocator_traits<std::allocator<IronMan::Core::ConfigValue<unsigned char> *> >::construct<IronMan::Core::ConfigValue<unsigned char> *,IronMan::Core::ConfigValue<unsigned char> *>
PUBLIC	??$_Uninitialized_move@PEAPEAV?$ConfigValue@E@Core@IronMan@@V?$allocator@PEAV?$ConfigValue@E@Core@IronMan@@@std@@@std@@YAPEAPEAV?$ConfigValue@E@Core@IronMan@@QEAPEAV123@0PEAPEAV123@AEAV?$allocator@PEAV?$ConfigValue@E@Core@IronMan@@@0@@Z ; std::_Uninitialized_move<IronMan::Core::ConfigValue<unsigned char> * *,std::allocator<IronMan::Core::ConfigValue<unsigned char> *> >
PUBLIC	??$_Construct_in_place@PEAV?$ConfigValue@PEAD@Core@IronMan@@PEAV123@@std@@YAXAEAPEAV?$ConfigValue@PEAD@Core@IronMan@@$$QEAPEAV123@@Z ; std::_Construct_in_place<IronMan::Core::ConfigValue<char *> *,IronMan::Core::ConfigValue<char *> *>
PUBLIC	??$_Allocate_at_least_helper@V?$allocator@PEAV?$ConfigValue@PEAD@Core@IronMan@@@std@@@std@@YAPEAPEAV?$ConfigValue@PEAD@Core@IronMan@@AEAV?$allocator@PEAV?$ConfigValue@PEAD@Core@IronMan@@@0@AEA_K@Z ; std::_Allocate_at_least_helper<std::allocator<IronMan::Core::ConfigValue<char *> *> >
PUBLIC	??1_Reallocation_guard@?$vector@PEAV?$ConfigValue@PEAD@Core@IronMan@@V?$allocator@PEAV?$ConfigValue@PEAD@Core@IronMan@@@std@@@std@@QEAA@XZ ; std::vector<IronMan::Core::ConfigValue<char *> *,std::allocator<IronMan::Core::ConfigValue<char *> *> >::_Reallocation_guard::~_Reallocation_guard
PUBLIC	??$_Unfancy@PEAV?$ConfigValue@PEAD@Core@IronMan@@@std@@YAPEAPEAV?$ConfigValue@PEAD@Core@IronMan@@PEAPEAV123@@Z ; std::_Unfancy<IronMan::Core::ConfigValue<char *> *>
PUBLIC	??$construct@PEAV?$ConfigValue@PEAD@Core@IronMan@@PEAV123@@?$_Default_allocator_traits@V?$allocator@PEAV?$ConfigValue@PEAD@Core@IronMan@@@std@@@std@@SAXAEAV?$allocator@PEAV?$ConfigValue@PEAD@Core@IronMan@@@1@QEAPEAV?$ConfigValue@PEAD@Core@IronMan@@$$QEAPEAV345@@Z ; std::_Default_allocator_traits<std::allocator<IronMan::Core::ConfigValue<char *> *> >::construct<IronMan::Core::ConfigValue<char *> *,IronMan::Core::ConfigValue<char *> *>
PUBLIC	??$_Uninitialized_move@PEAPEAV?$ConfigValue@PEAD@Core@IronMan@@V?$allocator@PEAV?$ConfigValue@PEAD@Core@IronMan@@@std@@@std@@YAPEAPEAV?$ConfigValue@PEAD@Core@IronMan@@QEAPEAV123@0PEAPEAV123@AEAV?$allocator@PEAV?$ConfigValue@PEAD@Core@IronMan@@@0@@Z ; std::_Uninitialized_move<IronMan::Core::ConfigValue<char *> * *,std::allocator<IronMan::Core::ConfigValue<char *> *> >
PUBLIC	??$_Construct_in_place@PEAV?$ConfigValue@M@Core@IronMan@@PEAV123@@std@@YAXAEAPEAV?$ConfigValue@M@Core@IronMan@@$$QEAPEAV123@@Z ; std::_Construct_in_place<IronMan::Core::ConfigValue<float> *,IronMan::Core::ConfigValue<float> *>
PUBLIC	??$_Allocate_at_least_helper@V?$allocator@PEAV?$ConfigValue@M@Core@IronMan@@@std@@@std@@YAPEAPEAV?$ConfigValue@M@Core@IronMan@@AEAV?$allocator@PEAV?$ConfigValue@M@Core@IronMan@@@0@AEA_K@Z ; std::_Allocate_at_least_helper<std::allocator<IronMan::Core::ConfigValue<float> *> >
PUBLIC	??1_Reallocation_guard@?$vector@PEAV?$ConfigValue@M@Core@IronMan@@V?$allocator@PEAV?$ConfigValue@M@Core@IronMan@@@std@@@std@@QEAA@XZ ; std::vector<IronMan::Core::ConfigValue<float> *,std::allocator<IronMan::Core::ConfigValue<float> *> >::_Reallocation_guard::~_Reallocation_guard
PUBLIC	??$_Unfancy@PEAV?$ConfigValue@M@Core@IronMan@@@std@@YAPEAPEAV?$ConfigValue@M@Core@IronMan@@PEAPEAV123@@Z ; std::_Unfancy<IronMan::Core::ConfigValue<float> *>
PUBLIC	??$construct@PEAV?$ConfigValue@M@Core@IronMan@@PEAV123@@?$_Default_allocator_traits@V?$allocator@PEAV?$ConfigValue@M@Core@IronMan@@@std@@@std@@SAXAEAV?$allocator@PEAV?$ConfigValue@M@Core@IronMan@@@1@QEAPEAV?$ConfigValue@M@Core@IronMan@@$$QEAPEAV345@@Z ; std::_Default_allocator_traits<std::allocator<IronMan::Core::ConfigValue<float> *> >::construct<IronMan::Core::ConfigValue<float> *,IronMan::Core::ConfigValue<float> *>
PUBLIC	??$_Uninitialized_move@PEAPEAV?$ConfigValue@M@Core@IronMan@@V?$allocator@PEAV?$ConfigValue@M@Core@IronMan@@@std@@@std@@YAPEAPEAV?$ConfigValue@M@Core@IronMan@@QEAPEAV123@0PEAPEAV123@AEAV?$allocator@PEAV?$ConfigValue@M@Core@IronMan@@@0@@Z ; std::_Uninitialized_move<IronMan::Core::ConfigValue<float> * *,std::allocator<IronMan::Core::ConfigValue<float> *> >
PUBLIC	??$_Construct_in_place@PEAV?$ConfigValue@_N@Core@IronMan@@PEAV123@@std@@YAXAEAPEAV?$ConfigValue@_N@Core@IronMan@@$$QEAPEAV123@@Z ; std::_Construct_in_place<IronMan::Core::ConfigValue<bool> *,IronMan::Core::ConfigValue<bool> *>
PUBLIC	??$_Allocate_at_least_helper@V?$allocator@PEAV?$ConfigValue@_N@Core@IronMan@@@std@@@std@@YAPEAPEAV?$ConfigValue@_N@Core@IronMan@@AEAV?$allocator@PEAV?$ConfigValue@_N@Core@IronMan@@@0@AEA_K@Z ; std::_Allocate_at_least_helper<std::allocator<IronMan::Core::ConfigValue<bool> *> >
PUBLIC	??1_Reallocation_guard@?$vector@PEAV?$ConfigValue@_N@Core@IronMan@@V?$allocator@PEAV?$ConfigValue@_N@Core@IronMan@@@std@@@std@@QEAA@XZ ; std::vector<IronMan::Core::ConfigValue<bool> *,std::allocator<IronMan::Core::ConfigValue<bool> *> >::_Reallocation_guard::~_Reallocation_guard
PUBLIC	??$_Unfancy@PEAV?$ConfigValue@_N@Core@IronMan@@@std@@YAPEAPEAV?$ConfigValue@_N@Core@IronMan@@PEAPEAV123@@Z ; std::_Unfancy<IronMan::Core::ConfigValue<bool> *>
PUBLIC	??$construct@PEAV?$ConfigValue@_N@Core@IronMan@@PEAV123@@?$_Default_allocator_traits@V?$allocator@PEAV?$ConfigValue@_N@Core@IronMan@@@std@@@std@@SAXAEAV?$allocator@PEAV?$ConfigValue@_N@Core@IronMan@@@1@QEAPEAV?$ConfigValue@_N@Core@IronMan@@$$QEAPEAV345@@Z ; std::_Default_allocator_traits<std::allocator<IronMan::Core::ConfigValue<bool> *> >::construct<IronMan::Core::ConfigValue<bool> *,IronMan::Core::ConfigValue<bool> *>
PUBLIC	??$_Uninitialized_move@PEAPEAV?$ConfigValue@_N@Core@IronMan@@V?$allocator@PEAV?$ConfigValue@_N@Core@IronMan@@@std@@@std@@YAPEAPEAV?$ConfigValue@_N@Core@IronMan@@QEAPEAV123@0PEAPEAV123@AEAV?$allocator@PEAV?$ConfigValue@_N@Core@IronMan@@@0@@Z ; std::_Uninitialized_move<IronMan::Core::ConfigValue<bool> * *,std::allocator<IronMan::Core::ConfigValue<bool> *> >
PUBLIC	??$_Construct_in_place@PEAV?$ConfigValue@H@Core@IronMan@@PEAV123@@std@@YAXAEAPEAV?$ConfigValue@H@Core@IronMan@@$$QEAPEAV123@@Z ; std::_Construct_in_place<IronMan::Core::ConfigValue<int> *,IronMan::Core::ConfigValue<int> *>
PUBLIC	??$_Allocate_at_least_helper@V?$allocator@PEAV?$ConfigValue@H@Core@IronMan@@@std@@@std@@YAPEAPEAV?$ConfigValue@H@Core@IronMan@@AEAV?$allocator@PEAV?$ConfigValue@H@Core@IronMan@@@0@AEA_K@Z ; std::_Allocate_at_least_helper<std::allocator<IronMan::Core::ConfigValue<int> *> >
PUBLIC	??1_Reallocation_guard@?$vector@PEAV?$ConfigValue@H@Core@IronMan@@V?$allocator@PEAV?$ConfigValue@H@Core@IronMan@@@std@@@std@@QEAA@XZ ; std::vector<IronMan::Core::ConfigValue<int> *,std::allocator<IronMan::Core::ConfigValue<int> *> >::_Reallocation_guard::~_Reallocation_guard
PUBLIC	??$_Unfancy@PEAV?$ConfigValue@H@Core@IronMan@@@std@@YAPEAPEAV?$ConfigValue@H@Core@IronMan@@PEAPEAV123@@Z ; std::_Unfancy<IronMan::Core::ConfigValue<int> *>
PUBLIC	??$construct@PEAV?$ConfigValue@H@Core@IronMan@@PEAV123@@?$_Default_allocator_traits@V?$allocator@PEAV?$ConfigValue@H@Core@IronMan@@@std@@@std@@SAXAEAV?$allocator@PEAV?$ConfigValue@H@Core@IronMan@@@1@QEAPEAV?$ConfigValue@H@Core@IronMan@@$$QEAPEAV345@@Z ; std::_Default_allocator_traits<std::allocator<IronMan::Core::ConfigValue<int> *> >::construct<IronMan::Core::ConfigValue<int> *,IronMan::Core::ConfigValue<int> *>
PUBLIC	??$_Uninitialized_move@PEAPEAV?$ConfigValue@H@Core@IronMan@@V?$allocator@PEAV?$ConfigValue@H@Core@IronMan@@@std@@@std@@YAPEAPEAV?$ConfigValue@H@Core@IronMan@@QEAPEAV123@0PEAPEAV123@AEAV?$allocator@PEAV?$ConfigValue@H@Core@IronMan@@@0@@Z ; std::_Uninitialized_move<IronMan::Core::ConfigValue<int> * *,std::allocator<IronMan::Core::ConfigValue<int> *> >
PUBLIC	??$_Get_size_of_n@$03@std@@YA_K_K@Z		; std::_Get_size_of_n<4>
PUBLIC	??$move@AEAPEAE@std@@YA$$QEAPEAEAEAPEAE@Z	; std::move<unsigned char * &>
PUBLIC	??$_Copy_memmove_tail@PEAE@std@@YAPEAEQEBDQEAE_K2@Z ; std::_Copy_memmove_tail<unsigned char *>
PUBLIC	??$forward@AEBE@std@@YAAEBEAEBE@Z		; std::forward<unsigned char const &>
PUBLIC	??$construct@EAEBE@?$_Default_allocator_traits@V?$allocator@E@std@@@std@@SAXAEAV?$allocator@E@1@QEAEAEBE@Z ; std::_Default_allocator_traits<std::allocator<unsigned char> >::construct<unsigned char,unsigned char const &>
PUBLIC	??$move@AEAPEAM@std@@YA$$QEAPEAMAEAPEAM@Z	; std::move<float * &>
PUBLIC	??$_Copy_memmove_tail@PEAM@std@@YAPEAMQEBDQEAM_K2@Z ; std::_Copy_memmove_tail<float *>
PUBLIC	??$forward@AEBM@std@@YAAEBMAEBM@Z		; std::forward<float const &>
PUBLIC	??$construct@MAEBM@?$_Default_allocator_traits@V?$allocator@M@std@@@std@@SAXAEAV?$allocator@M@1@QEAMAEBM@Z ; std::_Default_allocator_traits<std::allocator<float> >::construct<float,float const &>
PUBLIC	??$addressof@PEAV?$ConfigValue@E@Core@IronMan@@@std@@YAPEAPEAV?$ConfigValue@E@Core@IronMan@@AEAPEAV123@@Z ; std::addressof<IronMan::Core::ConfigValue<unsigned char> *>
PUBLIC	??$_Get_unwrapped@AEBQEAPEAV?$ConfigValue@E@Core@IronMan@@@std@@YA?A_TAEBQEAPEAV?$ConfigValue@E@Core@IronMan@@@Z ; std::_Get_unwrapped<IronMan::Core::ConfigValue<unsigned char> * * const &>
PUBLIC	??$_Copy_memmove@PEAPEAV?$ConfigValue@E@Core@IronMan@@PEAPEAV123@@std@@YAPEAPEAV?$ConfigValue@E@Core@IronMan@@PEAPEAV123@00@Z ; std::_Copy_memmove<IronMan::Core::ConfigValue<unsigned char> * *,IronMan::Core::ConfigValue<unsigned char> * *>
PUBLIC	??0?$_Uninitialized_backout_al@V?$allocator@PEAV?$ConfigValue@E@Core@IronMan@@@std@@@std@@QEAA@PEAPEAV?$ConfigValue@E@Core@IronMan@@AEAV?$allocator@PEAV?$ConfigValue@E@Core@IronMan@@@1@@Z ; std::_Uninitialized_backout_al<std::allocator<IronMan::Core::ConfigValue<unsigned char> *> >::_Uninitialized_backout_al<std::allocator<IronMan::Core::ConfigValue<unsigned char> *> >
PUBLIC	??1?$_Uninitialized_backout_al@V?$allocator@PEAV?$ConfigValue@E@Core@IronMan@@@std@@@std@@QEAA@XZ ; std::_Uninitialized_backout_al<std::allocator<IronMan::Core::ConfigValue<unsigned char> *> >::~_Uninitialized_backout_al<std::allocator<IronMan::Core::ConfigValue<unsigned char> *> >
PUBLIC	?_Release@?$_Uninitialized_backout_al@V?$allocator@PEAV?$ConfigValue@E@Core@IronMan@@@std@@@std@@QEAAPEAPEAV?$ConfigValue@E@Core@IronMan@@XZ ; std::_Uninitialized_backout_al<std::allocator<IronMan::Core::ConfigValue<unsigned char> *> >::_Release
PUBLIC	??$_Emplace_back@PEAV?$ConfigValue@E@Core@IronMan@@@?$_Uninitialized_backout_al@V?$allocator@PEAV?$ConfigValue@E@Core@IronMan@@@std@@@std@@QEAAX$$QEAPEAV?$ConfigValue@E@Core@IronMan@@@Z ; std::_Uninitialized_backout_al<std::allocator<IronMan::Core::ConfigValue<unsigned char> *> >::_Emplace_back<IronMan::Core::ConfigValue<unsigned char> *>
PUBLIC	??$addressof@PEAV?$ConfigValue@PEAD@Core@IronMan@@@std@@YAPEAPEAV?$ConfigValue@PEAD@Core@IronMan@@AEAPEAV123@@Z ; std::addressof<IronMan::Core::ConfigValue<char *> *>
PUBLIC	??$_Get_unwrapped@AEBQEAPEAV?$ConfigValue@PEAD@Core@IronMan@@@std@@YA?A_TAEBQEAPEAV?$ConfigValue@PEAD@Core@IronMan@@@Z ; std::_Get_unwrapped<IronMan::Core::ConfigValue<char *> * * const &>
PUBLIC	??$_Copy_memmove@PEAPEAV?$ConfigValue@PEAD@Core@IronMan@@PEAPEAV123@@std@@YAPEAPEAV?$ConfigValue@PEAD@Core@IronMan@@PEAPEAV123@00@Z ; std::_Copy_memmove<IronMan::Core::ConfigValue<char *> * *,IronMan::Core::ConfigValue<char *> * *>
PUBLIC	??0?$_Uninitialized_backout_al@V?$allocator@PEAV?$ConfigValue@PEAD@Core@IronMan@@@std@@@std@@QEAA@PEAPEAV?$ConfigValue@PEAD@Core@IronMan@@AEAV?$allocator@PEAV?$ConfigValue@PEAD@Core@IronMan@@@1@@Z ; std::_Uninitialized_backout_al<std::allocator<IronMan::Core::ConfigValue<char *> *> >::_Uninitialized_backout_al<std::allocator<IronMan::Core::ConfigValue<char *> *> >
PUBLIC	??1?$_Uninitialized_backout_al@V?$allocator@PEAV?$ConfigValue@PEAD@Core@IronMan@@@std@@@std@@QEAA@XZ ; std::_Uninitialized_backout_al<std::allocator<IronMan::Core::ConfigValue<char *> *> >::~_Uninitialized_backout_al<std::allocator<IronMan::Core::ConfigValue<char *> *> >
PUBLIC	?_Release@?$_Uninitialized_backout_al@V?$allocator@PEAV?$ConfigValue@PEAD@Core@IronMan@@@std@@@std@@QEAAPEAPEAV?$ConfigValue@PEAD@Core@IronMan@@XZ ; std::_Uninitialized_backout_al<std::allocator<IronMan::Core::ConfigValue<char *> *> >::_Release
PUBLIC	??$_Emplace_back@PEAV?$ConfigValue@PEAD@Core@IronMan@@@?$_Uninitialized_backout_al@V?$allocator@PEAV?$ConfigValue@PEAD@Core@IronMan@@@std@@@std@@QEAAX$$QEAPEAV?$ConfigValue@PEAD@Core@IronMan@@@Z ; std::_Uninitialized_backout_al<std::allocator<IronMan::Core::ConfigValue<char *> *> >::_Emplace_back<IronMan::Core::ConfigValue<char *> *>
PUBLIC	??$addressof@PEAV?$ConfigValue@M@Core@IronMan@@@std@@YAPEAPEAV?$ConfigValue@M@Core@IronMan@@AEAPEAV123@@Z ; std::addressof<IronMan::Core::ConfigValue<float> *>
PUBLIC	??$_Get_unwrapped@AEBQEAPEAV?$ConfigValue@M@Core@IronMan@@@std@@YA?A_TAEBQEAPEAV?$ConfigValue@M@Core@IronMan@@@Z ; std::_Get_unwrapped<IronMan::Core::ConfigValue<float> * * const &>
PUBLIC	??$_Copy_memmove@PEAPEAV?$ConfigValue@M@Core@IronMan@@PEAPEAV123@@std@@YAPEAPEAV?$ConfigValue@M@Core@IronMan@@PEAPEAV123@00@Z ; std::_Copy_memmove<IronMan::Core::ConfigValue<float> * *,IronMan::Core::ConfigValue<float> * *>
PUBLIC	??0?$_Uninitialized_backout_al@V?$allocator@PEAV?$ConfigValue@M@Core@IronMan@@@std@@@std@@QEAA@PEAPEAV?$ConfigValue@M@Core@IronMan@@AEAV?$allocator@PEAV?$ConfigValue@M@Core@IronMan@@@1@@Z ; std::_Uninitialized_backout_al<std::allocator<IronMan::Core::ConfigValue<float> *> >::_Uninitialized_backout_al<std::allocator<IronMan::Core::ConfigValue<float> *> >
PUBLIC	??1?$_Uninitialized_backout_al@V?$allocator@PEAV?$ConfigValue@M@Core@IronMan@@@std@@@std@@QEAA@XZ ; std::_Uninitialized_backout_al<std::allocator<IronMan::Core::ConfigValue<float> *> >::~_Uninitialized_backout_al<std::allocator<IronMan::Core::ConfigValue<float> *> >
PUBLIC	?_Release@?$_Uninitialized_backout_al@V?$allocator@PEAV?$ConfigValue@M@Core@IronMan@@@std@@@std@@QEAAPEAPEAV?$ConfigValue@M@Core@IronMan@@XZ ; std::_Uninitialized_backout_al<std::allocator<IronMan::Core::ConfigValue<float> *> >::_Release
PUBLIC	??$_Emplace_back@PEAV?$ConfigValue@M@Core@IronMan@@@?$_Uninitialized_backout_al@V?$allocator@PEAV?$ConfigValue@M@Core@IronMan@@@std@@@std@@QEAAX$$QEAPEAV?$ConfigValue@M@Core@IronMan@@@Z ; std::_Uninitialized_backout_al<std::allocator<IronMan::Core::ConfigValue<float> *> >::_Emplace_back<IronMan::Core::ConfigValue<float> *>
PUBLIC	??$addressof@PEAV?$ConfigValue@_N@Core@IronMan@@@std@@YAPEAPEAV?$ConfigValue@_N@Core@IronMan@@AEAPEAV123@@Z ; std::addressof<IronMan::Core::ConfigValue<bool> *>
PUBLIC	??$_Get_unwrapped@AEBQEAPEAV?$ConfigValue@_N@Core@IronMan@@@std@@YA?A_TAEBQEAPEAV?$ConfigValue@_N@Core@IronMan@@@Z ; std::_Get_unwrapped<IronMan::Core::ConfigValue<bool> * * const &>
PUBLIC	??$_Copy_memmove@PEAPEAV?$ConfigValue@_N@Core@IronMan@@PEAPEAV123@@std@@YAPEAPEAV?$ConfigValue@_N@Core@IronMan@@PEAPEAV123@00@Z ; std::_Copy_memmove<IronMan::Core::ConfigValue<bool> * *,IronMan::Core::ConfigValue<bool> * *>
PUBLIC	??0?$_Uninitialized_backout_al@V?$allocator@PEAV?$ConfigValue@_N@Core@IronMan@@@std@@@std@@QEAA@PEAPEAV?$ConfigValue@_N@Core@IronMan@@AEAV?$allocator@PEAV?$ConfigValue@_N@Core@IronMan@@@1@@Z ; std::_Uninitialized_backout_al<std::allocator<IronMan::Core::ConfigValue<bool> *> >::_Uninitialized_backout_al<std::allocator<IronMan::Core::ConfigValue<bool> *> >
PUBLIC	??1?$_Uninitialized_backout_al@V?$allocator@PEAV?$ConfigValue@_N@Core@IronMan@@@std@@@std@@QEAA@XZ ; std::_Uninitialized_backout_al<std::allocator<IronMan::Core::ConfigValue<bool> *> >::~_Uninitialized_backout_al<std::allocator<IronMan::Core::ConfigValue<bool> *> >
PUBLIC	?_Release@?$_Uninitialized_backout_al@V?$allocator@PEAV?$ConfigValue@_N@Core@IronMan@@@std@@@std@@QEAAPEAPEAV?$ConfigValue@_N@Core@IronMan@@XZ ; std::_Uninitialized_backout_al<std::allocator<IronMan::Core::ConfigValue<bool> *> >::_Release
PUBLIC	??$_Emplace_back@PEAV?$ConfigValue@_N@Core@IronMan@@@?$_Uninitialized_backout_al@V?$allocator@PEAV?$ConfigValue@_N@Core@IronMan@@@std@@@std@@QEAAX$$QEAPEAV?$ConfigValue@_N@Core@IronMan@@@Z ; std::_Uninitialized_backout_al<std::allocator<IronMan::Core::ConfigValue<bool> *> >::_Emplace_back<IronMan::Core::ConfigValue<bool> *>
PUBLIC	??$addressof@PEAV?$ConfigValue@H@Core@IronMan@@@std@@YAPEAPEAV?$ConfigValue@H@Core@IronMan@@AEAPEAV123@@Z ; std::addressof<IronMan::Core::ConfigValue<int> *>
PUBLIC	??$_Get_unwrapped@AEBQEAPEAV?$ConfigValue@H@Core@IronMan@@@std@@YA?A_TAEBQEAPEAV?$ConfigValue@H@Core@IronMan@@@Z ; std::_Get_unwrapped<IronMan::Core::ConfigValue<int> * * const &>
PUBLIC	??$_Copy_memmove@PEAPEAV?$ConfigValue@H@Core@IronMan@@PEAPEAV123@@std@@YAPEAPEAV?$ConfigValue@H@Core@IronMan@@PEAPEAV123@00@Z ; std::_Copy_memmove<IronMan::Core::ConfigValue<int> * *,IronMan::Core::ConfigValue<int> * *>
PUBLIC	??0?$_Uninitialized_backout_al@V?$allocator@PEAV?$ConfigValue@H@Core@IronMan@@@std@@@std@@QEAA@PEAPEAV?$ConfigValue@H@Core@IronMan@@AEAV?$allocator@PEAV?$ConfigValue@H@Core@IronMan@@@1@@Z ; std::_Uninitialized_backout_al<std::allocator<IronMan::Core::ConfigValue<int> *> >::_Uninitialized_backout_al<std::allocator<IronMan::Core::ConfigValue<int> *> >
PUBLIC	??1?$_Uninitialized_backout_al@V?$allocator@PEAV?$ConfigValue@H@Core@IronMan@@@std@@@std@@QEAA@XZ ; std::_Uninitialized_backout_al<std::allocator<IronMan::Core::ConfigValue<int> *> >::~_Uninitialized_backout_al<std::allocator<IronMan::Core::ConfigValue<int> *> >
PUBLIC	?_Release@?$_Uninitialized_backout_al@V?$allocator@PEAV?$ConfigValue@H@Core@IronMan@@@std@@@std@@QEAAPEAPEAV?$ConfigValue@H@Core@IronMan@@XZ ; std::_Uninitialized_backout_al<std::allocator<IronMan::Core::ConfigValue<int> *> >::_Release
PUBLIC	??$_Emplace_back@PEAV?$ConfigValue@H@Core@IronMan@@@?$_Uninitialized_backout_al@V?$allocator@PEAV?$ConfigValue@H@Core@IronMan@@@std@@@std@@QEAAX$$QEAPEAV?$ConfigValue@H@Core@IronMan@@@Z ; std::_Uninitialized_backout_al<std::allocator<IronMan::Core::ConfigValue<int> *> >::_Emplace_back<IronMan::Core::ConfigValue<int> *>
PUBLIC	??$_To_address@PEAE@std@@YA?A_PAEBQEAE@Z	; std::_To_address<unsigned char *>
PUBLIC	??$_To_address@PEAM@std@@YA?A_PAEBQEAM@Z	; std::_To_address<float *>
PUBLIC	??$_To_address@PEAPEAV?$ConfigValue@E@Core@IronMan@@@std@@YA?A_PAEBQEAPEAV?$ConfigValue@E@Core@IronMan@@@Z ; std::_To_address<IronMan::Core::ConfigValue<unsigned char> * *>
PUBLIC	??$move@AEAPEAPEAV?$ConfigValue@E@Core@IronMan@@@std@@YA$$QEAPEAPEAV?$ConfigValue@E@Core@IronMan@@AEAPEAPEAV123@@Z ; std::move<IronMan::Core::ConfigValue<unsigned char> * * &>
PUBLIC	??$_Copy_memmove_tail@PEAPEAV?$ConfigValue@E@Core@IronMan@@@std@@YAPEAPEAV?$ConfigValue@E@Core@IronMan@@QEBDQEAPEAV123@_K2@Z ; std::_Copy_memmove_tail<IronMan::Core::ConfigValue<unsigned char> * *>
PUBLIC	??$_To_address@PEAPEAV?$ConfigValue@PEAD@Core@IronMan@@@std@@YA?A_PAEBQEAPEAV?$ConfigValue@PEAD@Core@IronMan@@@Z ; std::_To_address<IronMan::Core::ConfigValue<char *> * *>
PUBLIC	??$move@AEAPEAPEAV?$ConfigValue@PEAD@Core@IronMan@@@std@@YA$$QEAPEAPEAV?$ConfigValue@PEAD@Core@IronMan@@AEAPEAPEAV123@@Z ; std::move<IronMan::Core::ConfigValue<char *> * * &>
PUBLIC	??$_Copy_memmove_tail@PEAPEAV?$ConfigValue@PEAD@Core@IronMan@@@std@@YAPEAPEAV?$ConfigValue@PEAD@Core@IronMan@@QEBDQEAPEAV123@_K2@Z ; std::_Copy_memmove_tail<IronMan::Core::ConfigValue<char *> * *>
PUBLIC	??$_To_address@PEAPEAV?$ConfigValue@M@Core@IronMan@@@std@@YA?A_PAEBQEAPEAV?$ConfigValue@M@Core@IronMan@@@Z ; std::_To_address<IronMan::Core::ConfigValue<float> * *>
PUBLIC	??$move@AEAPEAPEAV?$ConfigValue@M@Core@IronMan@@@std@@YA$$QEAPEAPEAV?$ConfigValue@M@Core@IronMan@@AEAPEAPEAV123@@Z ; std::move<IronMan::Core::ConfigValue<float> * * &>
PUBLIC	??$_Copy_memmove_tail@PEAPEAV?$ConfigValue@M@Core@IronMan@@@std@@YAPEAPEAV?$ConfigValue@M@Core@IronMan@@QEBDQEAPEAV123@_K2@Z ; std::_Copy_memmove_tail<IronMan::Core::ConfigValue<float> * *>
PUBLIC	??$_To_address@PEAPEAV?$ConfigValue@_N@Core@IronMan@@@std@@YA?A_PAEBQEAPEAV?$ConfigValue@_N@Core@IronMan@@@Z ; std::_To_address<IronMan::Core::ConfigValue<bool> * *>
PUBLIC	??$move@AEAPEAPEAV?$ConfigValue@_N@Core@IronMan@@@std@@YA$$QEAPEAPEAV?$ConfigValue@_N@Core@IronMan@@AEAPEAPEAV123@@Z ; std::move<IronMan::Core::ConfigValue<bool> * * &>
PUBLIC	??$_Copy_memmove_tail@PEAPEAV?$ConfigValue@_N@Core@IronMan@@@std@@YAPEAPEAV?$ConfigValue@_N@Core@IronMan@@QEBDQEAPEAV123@_K2@Z ; std::_Copy_memmove_tail<IronMan::Core::ConfigValue<bool> * *>
PUBLIC	??$_To_address@PEAPEAV?$ConfigValue@H@Core@IronMan@@@std@@YA?A_PAEBQEAPEAV?$ConfigValue@H@Core@IronMan@@@Z ; std::_To_address<IronMan::Core::ConfigValue<int> * *>
PUBLIC	??$move@AEAPEAPEAV?$ConfigValue@H@Core@IronMan@@@std@@YA$$QEAPEAPEAV?$ConfigValue@H@Core@IronMan@@AEAPEAPEAV123@@Z ; std::move<IronMan::Core::ConfigValue<int> * * &>
PUBLIC	??$_Copy_memmove_tail@PEAPEAV?$ConfigValue@H@Core@IronMan@@@std@@YAPEAPEAV?$ConfigValue@H@Core@IronMan@@QEBDQEAPEAV123@_K2@Z ; std::_Copy_memmove_tail<IronMan::Core::ConfigValue<int> * *>
PUBLIC	?_OptionsStorage@?1??__local_stdio_printf_options@@9@4_KA ; `__local_stdio_printf_options'::`2'::_OptionsStorage
PUBLIC	??_7exception@std@@6B@				; std::exception::`vftable'
PUBLIC	??_C@_0BC@EOODALEL@Unknown?5exception@		; `string'
PUBLIC	??_7bad_alloc@std@@6B@				; std::bad_alloc::`vftable'
PUBLIC	??_7bad_array_new_length@std@@6B@		; std::bad_array_new_length::`vftable'
PUBLIC	??_C@_0BF@KINCDENJ@bad?5array?5new?5length@	; `string'
PUBLIC	??_R0?AVexception@std@@@8			; std::exception `RTTI Type Descriptor'
PUBLIC	_CT??_R0?AVexception@std@@@8??0exception@std@@QEAA@AEBV01@@Z24
PUBLIC	_TI3?AVbad_array_new_length@std@@
PUBLIC	_CTA3?AVbad_array_new_length@std@@
PUBLIC	??_R0?AVbad_array_new_length@std@@@8		; std::bad_array_new_length `RTTI Type Descriptor'
PUBLIC	_CT??_R0?AVbad_array_new_length@std@@@8??0bad_array_new_length@std@@QEAA@AEBV01@@Z24
PUBLIC	??_R0?AVbad_alloc@std@@@8			; std::bad_alloc `RTTI Type Descriptor'
PUBLIC	_CT??_R0?AVbad_alloc@std@@@8??0bad_alloc@std@@QEAA@AEBV01@@Z24
PUBLIC	?_Fake_alloc@std@@3U_Fake_allocator@1@B		; std::_Fake_alloc
PUBLIC	??_C@_0BA@JFNIOLAK@string?5too?5long@		; `string'
PUBLIC	??_C@_02NJPGOMH@?$CFf@				; `string'
PUBLIC	??_C@_00CNPNBAHC@@				; `string'
PUBLIC	??_C@_01GBGANLPD@0@				; `string'
PUBLIC	?Vars@Core@IronMan@@3UVariables@12@A		; IronMan::Core::Vars
PUBLIC	??_C@_0O@EIHCOADB@C?3?2PaodCache?2@		; `string'
PUBLIC	??_C@_06GLGPIONA@115200@			; `string'
PUBLIC	??_C@_05CHOGNIMK@57600@				; `string'
PUBLIC	??_C@_06IDAPPONL@460800@			; `string'
PUBLIC	??_C@_0BC@JFHBNDPF@http?3?1?1127?40?40?41?1@	; `string'
PUBLIC	??_C@_01HIHLOKLC@1@				; `string'
PUBLIC	??_C@_01IHBHIGKO@?0@				; `string'
PUBLIC	??_C@_0N@DPMCJHEP@Save?5Success@		; `string'
PUBLIC	??_C@_0BC@ECCJIJFO@?$FL?h?$LO?$JD?e?$IH?$LK?d?$LP?$KB?f?$IB?$KP?$FN?5?$CFs@ ; `string'
PUBLIC	??_C@_0BL@NDEGAECG@SaveThreadStatic?5?$LD?v?$KMF?$KO?$JA?$LD?$KD?$CB@ ; `string'
PUBLIC	??_C@_0BF@OFIILLEI@ThreadSave?5?$LD?v?$KMF?$KO?$JA?$LD?$KD?$CB@ ; `string'
PUBLIC	??_C@_03BHEEIFFN@def@				; `string'
PUBLIC	?id@?$num_put@DV?$ostreambuf_iterator@DU?$char_traits@D@std@@@std@@@std@@2V0locale@2@A ; std::num_put<char,std::ostreambuf_iterator<char,std::char_traits<char> > >::id
PUBLIC	?id@?$codecvt@DDU_Mbstatet@@@std@@2V0locale@2@A	; std::codecvt<char,char,_Mbstatet>::id
PUBLIC	?id@?$numpunct@D@std@@2V0locale@2@A		; std::numpunct<char>::id
PUBLIC	?id@?$collate@D@std@@2V0locale@2@A		; std::collate<char>::id
PUBLIC	??_C@_0BA@FOIKENOD@vector?5too?5long@		; `string'
PUBLIC	??_R4exception@std@@6B@				; std::exception::`RTTI Complete Object Locator'
PUBLIC	??_R3exception@std@@8				; std::exception::`RTTI Class Hierarchy Descriptor'
PUBLIC	??_R2exception@std@@8				; std::exception::`RTTI Base Class Array'
PUBLIC	??_R1A@?0A@EA@exception@std@@8			; std::exception::`RTTI Base Class Descriptor at (0,-1,0,64)'
PUBLIC	??_R4bad_array_new_length@std@@6B@		; std::bad_array_new_length::`RTTI Complete Object Locator'
PUBLIC	??_R3bad_array_new_length@std@@8		; std::bad_array_new_length::`RTTI Class Hierarchy Descriptor'
PUBLIC	??_R2bad_array_new_length@std@@8		; std::bad_array_new_length::`RTTI Base Class Array'
PUBLIC	??_R1A@?0A@EA@bad_array_new_length@std@@8	; std::bad_array_new_length::`RTTI Base Class Descriptor at (0,-1,0,64)'
PUBLIC	??_R1A@?0A@EA@bad_alloc@std@@8			; std::bad_alloc::`RTTI Base Class Descriptor at (0,-1,0,64)'
PUBLIC	??_R3bad_alloc@std@@8				; std::bad_alloc::`RTTI Class Hierarchy Descriptor'
PUBLIC	??_R2bad_alloc@std@@8				; std::bad_alloc::`RTTI Base Class Array'
PUBLIC	??_R4bad_alloc@std@@6B@				; std::bad_alloc::`RTTI Complete Object Locator'
PUBLIC	__real@3ca3d70a
PUBLIC	__real@3d0f5c29
PUBLIC	__real@3d1fbe77
PUBLIC	__real@3d4ccccd
PUBLIC	__real@3d872b02
PUBLIC	__real@3d9fbe77
PUBLIC	__real@3dcccccd
PUBLIC	__real@3df5c28f
PUBLIC	__real@3e3020c5
PUBLIC	__real@3e4ccccd
PUBLIC	__real@3e6c8b44
PUBLIC	__real@3e800000
PUBLIC	__real@3e8c49ba
PUBLIC	__real@3e96872b
PUBLIC	__real@3eb33333
PUBLIC	__real@3eb851ec
PUBLIC	__real@3ecccccd
PUBLIC	__real@3eec8b44
PUBLIC	__real@3ef3b646
PUBLIC	__real@3efbe76d
PUBLIC	__real@3efced91
PUBLIC	__real@3f000000
PUBLIC	__real@3f0353f8
PUBLIC	__real@3f076c8b
PUBLIC	__real@3f0e5604
PUBLIC	__real@3f0f5c29
PUBLIC	__real@3f126e98
PUBLIC	__real@3f16872b
PUBLIC	__real@3f178d50
PUBLIC	__real@3f189375
PUBLIC	__real@3f1e76c9
PUBLIC	__real@3f276c8b
PUBLIC	__real@3f2872b0
PUBLIC	__real@3f28f5c3
PUBLIC	__real@3f2b851f
PUBLIC	__real@3f31a9fc
PUBLIC	__real@3f32b021
PUBLIC	__real@3f400000
PUBLIC	__real@3f46a7f0
PUBLIC	__real@3f47ae14
PUBLIC	__real@3f48b439
PUBLIC	__real@3f4ccccd
PUBLIC	__real@3f50a3d7
PUBLIC	__real@3f51a9fc
PUBLIC	__real@3f5a9fbe
PUBLIC	__real@3f5eb852
PUBLIC	__real@3f60c49c
PUBLIC	__real@3f666666
PUBLIC	__real@3f75c28f
PUBLIC	__real@3f78f8f9
PUBLIC	__real@3f7d70a4
PUBLIC	__real@3f800000
PUBLIC	__real@3fc00000
PUBLIC	__real@400ccccd
PUBLIC	__real@40200000
PUBLIC	__real@40533333
PUBLIC	__real@40a00000
PUBLIC	__real@40c00000
PUBLIC	__real@41000000
PUBLIC	__real@41200000
PUBLIC	__real@41600000
PUBLIC	__real@41700000
PUBLIC	__real@41800000
PUBLIC	__real@41c80000
PUBLIC	__real@41f00000
PUBLIC	__real@420c0000
PUBLIC	__real@42340000
PUBLIC	__real@42480000
PUBLIC	__real@42c80000
PUBLIC	__real@43960000
PUBLIC	__real@43e10000
PUBLIC	__real@43fa0000
PUBLIC	__real@44160000
PUBLIC	__real@44480000
PUBLIC	__real@447a0000
PUBLIC	__real@bf800000
EXTRN	??2@YAPEAX_K@Z:PROC				; operator new
EXTRN	??3@YAXPEAX_K@Z:PROC				; operator delete
EXTRN	atexit:PROC
EXTRN	_invalid_parameter_noinfo_noreturn:PROC
EXTRN	__stdio_common_vsprintf:PROC
EXTRN	__stdio_common_vsprintf_s:PROC
EXTRN	memcpy:PROC
EXTRN	memmove:PROC
EXTRN	memset:PROC
EXTRN	strcat:PROC
EXTRN	strcmp:PROC
EXTRN	malloc:PROC
EXTRN	atof:PROC
EXTRN	rand:PROC
EXTRN	atoi:PROC
EXTRN	?_Xlength_error@std@@YAXPEBD@Z:PROC		; std::_Xlength_error
EXTRN	__std_exception_copy:PROC
EXTRN	__std_exception_destroy:PROC
EXTRN	??_Eexception@std@@UEAAPEAXI@Z:PROC		; std::exception::`vector deleting destructor'
EXTRN	??_Ebad_alloc@std@@UEAAPEAXI@Z:PROC		; std::bad_alloc::`vector deleting destructor'
EXTRN	??_Ebad_array_new_length@std@@UEAAPEAXI@Z:PROC	; std::bad_array_new_length::`vector deleting destructor'
EXTRN	__imp_GetStdHandle:PROC
EXTRN	__imp_DeleteFileA:PROC
EXTRN	__imp_CreateThread:PROC
EXTRN	__imp_GetPrivateProfileStringA:PROC
EXTRN	__imp_WritePrivateProfileStringA:PROC
EXTRN	__imp_SetConsoleTextAttribute:PROC
EXTRN	?Print@Console@IronMan@@YA_NPEBDZZ:PROC		; IronMan::Console::Print
EXTRN	?FormatString@Utils@IronMan@@YA?AV?$basic_string@DU?$char_traits@D@std@@V?$allocator@D@2@@std@@PEBDZZ:PROC ; IronMan::Utils::FormatString
EXTRN	?SplitString@Utils@IronMan@@YA?AV?$vector@V?$basic_string@DU?$char_traits@D@std@@V?$allocator@D@2@@std@@V?$allocator@V?$basic_string@DU?$char_traits@D@std@@V?$allocator@D@2@@std@@@2@@std@@V?$basic_string@DU?$char_traits@D@std@@V?$allocator@D@2@@4@0@Z:PROC ; IronMan::Utils::SplitString
EXTRN	__imp_WSAStartup:PROC
EXTRN	__imp_WSACleanup:PROC
EXTRN	OPENSSL_init_ssl:PROC
EXTRN	_CxxThrowException:PROC
EXTRN	__CxxFrameHandler4:PROC
EXTRN	__GSHandlerCheck:PROC
EXTRN	__GSHandlerCheck_EH4:PROC
EXTRN	__chkstk:PROC
EXTRN	__security_check_cookie:PROC
EXTRN	??_7type_info@@6B@:BYTE				; type_info::`vftable'
EXTRN	__security_cookie:QWORD
EXTRN	_fltused:DWORD
;	COMDAT ?_OptionsStorage@?1??__local_stdio_printf_options@@9@4_KA
_BSS	SEGMENT
?_OptionsStorage@?1??__local_stdio_printf_options@@9@4_KA DQ 01H DUP (?) ; `__local_stdio_printf_options'::`2'::_OptionsStorage
_BSS	ENDS
_BSS	SEGMENT
?wsinit_@detail@httplib@@3VWSInit@12@A DB 01H DUP (?)	; httplib::detail::wsinit_
	ALIGN	4

?sslinit_@detail@httplib@@3VSSLInit@12@A DB 01H DUP (?)	; httplib::detail::sslinit_
	ALIGN	4

?Vars@Core@IronMan@@3UVariables@12@A DB 09b0H DUP (?)	; IronMan::Core::Vars
?XYZMask@Math@Core@IronMan@@3T__m128@@B DB 010H DUP (?)	; IronMan::Core::Math::XYZMask
?QINV_SIGN_MASK@Math@Core@IronMan@@3T__m128@@B DB 010H DUP (?) ; IronMan::Core::Math::QINV_SIGN_MASK
_BSS	ENDS
;	COMDAT ?id@?$num_put@DV?$ostreambuf_iterator@DU?$char_traits@D@std@@@std@@@std@@2V0locale@2@A
_BSS	SEGMENT
?id@?$num_put@DV?$ostreambuf_iterator@DU?$char_traits@D@std@@@std@@@std@@2V0locale@2@A DQ 01H DUP (?) ; std::num_put<char,std::ostreambuf_iterator<char,std::char_traits<char> > >::id
_BSS	ENDS
;	COMDAT ?id@?$codecvt@DDU_Mbstatet@@@std@@2V0locale@2@A
_BSS	SEGMENT
?id@?$codecvt@DDU_Mbstatet@@@std@@2V0locale@2@A DQ 01H DUP (?) ; std::codecvt<char,char,_Mbstatet>::id
_BSS	ENDS
;	COMDAT ?id@?$numpunct@D@std@@2V0locale@2@A
_BSS	SEGMENT
?id@?$numpunct@D@std@@2V0locale@2@A DQ 01H DUP (?)	; std::numpunct<char>::id
_BSS	ENDS
;	COMDAT ?id@?$collate@D@std@@2V0locale@2@A
_BSS	SEGMENT
?id@?$collate@D@std@@2V0locale@2@A DQ 01H DUP (?)	; std::collate<char>::id
_BSS	ENDS
;	COMDAT pdata
pdata	SEGMENT
$pdata$??_H@YAXPEAX_K1P6APEAX0@Z@Z DD imagerel $LN5
	DD	imagerel $LN5+102
	DD	imagerel $unwind$??_H@YAXPEAX_K1P6APEAX0@Z@Z
pdata	ENDS
;	COMDAT pdata
pdata	SEGMENT
$pdata$_vsprintf_s_l DD imagerel $LN5
	DD	imagerel $LN5+110
	DD	imagerel $unwind$_vsprintf_s_l
pdata	ENDS
;	COMDAT pdata
pdata	SEGMENT
$pdata$_vscprintf_l DD imagerel $LN5
	DD	imagerel $LN5+107
	DD	imagerel $unwind$_vscprintf_l
pdata	ENDS
;	COMDAT pdata
pdata	SEGMENT
$pdata$sprintf_s DD imagerel $LN3
	DD	imagerel $LN3+89
	DD	imagerel $unwind$sprintf_s
pdata	ENDS
;	COMDAT pdata
pdata	SEGMENT
$pdata$_scprintf DD imagerel $LN3
	DD	imagerel $LN3+73
	DD	imagerel $unwind$_scprintf
pdata	ENDS
;	COMDAT pdata
pdata	SEGMENT
$pdata$?copy@?$_Char_traits@DH@std@@SAPEADQEADQEBD_K@Z DD imagerel $LN3
	DD	imagerel $LN3+49
	DD	imagerel $unwind$?copy@?$_Char_traits@DH@std@@SAPEADQEADQEBD_K@Z
pdata	ENDS
;	COMDAT pdata
pdata	SEGMENT
$pdata$?move@?$_Char_traits@DH@std@@SAPEADQEADQEBD_K@Z DD imagerel $LN3
	DD	imagerel $LN3+49
	DD	imagerel $unwind$?move@?$_Char_traits@DH@std@@SAPEADQEADQEBD_K@Z
pdata	ENDS
;	COMDAT pdata
pdata	SEGMENT
$pdata$?length@?$_Narrow_char_traits@DH@std@@SA_KQEBD@Z DD imagerel $LN4
	DD	imagerel $LN4+55
	DD	imagerel $unwind$?length@?$_Narrow_char_traits@DH@std@@SA_KQEBD@Z
pdata	ENDS
;	COMDAT pdata
pdata	SEGMENT
$pdata$?assign@?$_Narrow_char_traits@DH@std@@SAPEADQEAD_KD@Z DD imagerel $LN3
	DD	imagerel $LN3+47
	DD	imagerel $unwind$?assign@?$_Narrow_char_traits@DH@std@@SAPEADQEAD_KD@Z
pdata	ENDS
;	COMDAT pdata
pdata	SEGMENT
$pdata$??0exception@std@@QEAA@QEBDH@Z DD imagerel $LN3
	DD	imagerel $LN3+73
	DD	imagerel $unwind$??0exception@std@@QEAA@QEBDH@Z
pdata	ENDS
;	COMDAT pdata
pdata	SEGMENT
$pdata$??0exception@std@@QEAA@AEBV01@@Z DD imagerel $LN3
	DD	imagerel $LN3+89
	DD	imagerel $unwind$??0exception@std@@QEAA@AEBV01@@Z
pdata	ENDS
;	COMDAT pdata
pdata	SEGMENT
$pdata$??1exception@std@@UEAA@XZ DD imagerel $LN3
	DD	imagerel $LN3+47
	DD	imagerel $unwind$??1exception@std@@UEAA@XZ
pdata	ENDS
;	COMDAT pdata
pdata	SEGMENT
$pdata$?what@exception@std@@UEBAPEBDXZ DD imagerel $LN5
	DD	imagerel $LN5+56
	DD	imagerel $unwind$?what@exception@std@@UEBAPEBDXZ
pdata	ENDS
;	COMDAT pdata
pdata	SEGMENT
$pdata$??_Gexception@std@@UEAAPEAXI@Z DD imagerel $LN4
	DD	imagerel $LN4+60
	DD	imagerel $unwind$??_Gexception@std@@UEAAPEAXI@Z
pdata	ENDS
;	COMDAT pdata
pdata	SEGMENT
$pdata$??0bad_alloc@std@@AEAA@QEBD@Z DD imagerel $LN4
	DD	imagerel $LN4+61
	DD	imagerel $unwind$??0bad_alloc@std@@AEAA@QEBD@Z
pdata	ENDS
;	COMDAT pdata
pdata	SEGMENT
$pdata$?dtor$0@?0???0bad_alloc@std@@AEAA@QEBD@Z@4HA DD imagerel ?dtor$0@?0???0bad_alloc@std@@AEAA@QEBD@Z@4HA
	DD	imagerel ?dtor$0@?0???0bad_alloc@std@@AEAA@QEBD@Z@4HA+24
	DD	imagerel $unwind$?dtor$0@?0???0bad_alloc@std@@AEAA@QEBD@Z@4HA
pdata	ENDS
;	COMDAT pdata
pdata	SEGMENT
$pdata$??1bad_alloc@std@@UEAA@XZ DD imagerel $LN4
	DD	imagerel $LN4+25
	DD	imagerel $unwind$??1bad_alloc@std@@UEAA@XZ
pdata	ENDS
;	COMDAT pdata
pdata	SEGMENT
$pdata$?dtor$0@?0???1bad_alloc@std@@UEAA@XZ@4HA DD imagerel ?dtor$0@?0???1bad_alloc@std@@UEAA@XZ@4HA
	DD	imagerel ?dtor$0@?0???1bad_alloc@std@@UEAA@XZ@4HA+24
	DD	imagerel $unwind$?dtor$0@?0???1bad_alloc@std@@UEAA@XZ@4HA
pdata	ENDS
;	COMDAT pdata
pdata	SEGMENT
$pdata$??0bad_alloc@std@@QEAA@AEBV01@@Z DD imagerel $LN4
	DD	imagerel $LN4+55
	DD	imagerel $unwind$??0bad_alloc@std@@QEAA@AEBV01@@Z
pdata	ENDS
;	COMDAT pdata
pdata	SEGMENT
$pdata$?dtor$0@?0???0bad_alloc@std@@QEAA@AEBV01@@Z@4HA DD imagerel ?dtor$0@?0???0bad_alloc@std@@QEAA@AEBV01@@Z@4HA
	DD	imagerel ?dtor$0@?0???0bad_alloc@std@@QEAA@AEBV01@@Z@4HA+24
	DD	imagerel $unwind$?dtor$0@?0???0bad_alloc@std@@QEAA@AEBV01@@Z@4HA
pdata	ENDS
;	COMDAT pdata
pdata	SEGMENT
$pdata$??_Gbad_alloc@std@@UEAAPEAXI@Z DD imagerel $LN4
	DD	imagerel $LN4+60
	DD	imagerel $unwind$??_Gbad_alloc@std@@UEAAPEAXI@Z
pdata	ENDS
;	COMDAT pdata
pdata	SEGMENT
$pdata$??0bad_array_new_length@std@@QEAA@XZ DD imagerel $LN4
	DD	imagerel $LN4+52
	DD	imagerel $unwind$??0bad_array_new_length@std@@QEAA@XZ
pdata	ENDS
;	COMDAT pdata
pdata	SEGMENT
$pdata$?dtor$0@?0???0bad_array_new_length@std@@QEAA@XZ@4HA DD imagerel ?dtor$0@?0???0bad_array_new_length@std@@QEAA@XZ@4HA
	DD	imagerel ?dtor$0@?0???0bad_array_new_length@std@@QEAA@XZ@4HA+24
	DD	imagerel $unwind$?dtor$0@?0???0bad_array_new_length@std@@QEAA@XZ@4HA
pdata	ENDS
;	COMDAT pdata
pdata	SEGMENT
$pdata$??1bad_array_new_length@std@@UEAA@XZ DD imagerel $LN4
	DD	imagerel $LN4+25
	DD	imagerel $unwind$??1bad_array_new_length@std@@UEAA@XZ
pdata	ENDS
;	COMDAT pdata
pdata	SEGMENT
$pdata$?dtor$0@?0???1bad_array_new_length@std@@UEAA@XZ@4HA DD imagerel ?dtor$0@?0???1bad_array_new_length@std@@UEAA@XZ@4HA
	DD	imagerel ?dtor$0@?0???1bad_array_new_length@std@@UEAA@XZ@4HA+24
	DD	imagerel $unwind$?dtor$0@?0???1bad_array_new_length@std@@UEAA@XZ@4HA
pdata	ENDS
;	COMDAT pdata
pdata	SEGMENT
$pdata$??0bad_array_new_length@std@@QEAA@AEBV01@@Z DD imagerel $LN4
	DD	imagerel $LN4+55
	DD	imagerel $unwind$??0bad_array_new_length@std@@QEAA@AEBV01@@Z
pdata	ENDS
;	COMDAT pdata
pdata	SEGMENT
$pdata$?dtor$0@?0???0bad_array_new_length@std@@QEAA@AEBV01@@Z@4HA DD imagerel ?dtor$0@?0???0bad_array_new_length@std@@QEAA@AEBV01@@Z@4HA
	DD	imagerel ?dtor$0@?0???0bad_array_new_length@std@@QEAA@AEBV01@@Z@4HA+24
	DD	imagerel $unwind$?dtor$0@?0???0bad_array_new_length@std@@QEAA@AEBV01@@Z@4HA
pdata	ENDS
;	COMDAT pdata
pdata	SEGMENT
$pdata$??_Gbad_array_new_length@std@@UEAAPEAXI@Z DD imagerel $LN4
	DD	imagerel $LN4+60
	DD	imagerel $unwind$??_Gbad_array_new_length@std@@UEAAPEAXI@Z
pdata	ENDS
;	COMDAT pdata
pdata	SEGMENT
$pdata$?_Throw_bad_array_new_length@std@@YAXXZ DD imagerel $LN3
	DD	imagerel $LN3+37
	DD	imagerel $unwind$?_Throw_bad_array_new_length@std@@YAXXZ
pdata	ENDS
;	COMDAT pdata
pdata	SEGMENT
$pdata$?_Allocate@_Default_allocate_traits@std@@SAPEAX_K@Z DD imagerel $LN3
	DD	imagerel $LN3+24
	DD	imagerel $unwind$?_Allocate@_Default_allocate_traits@std@@SAPEAX_K@Z
pdata	ENDS
;	COMDAT pdata
pdata	SEGMENT
$pdata$?_Adjust_manually_vector_aligned@std@@YAXAEAPEAXAEA_K@Z DD imagerel $LN11
	DD	imagerel $LN11+154
	DD	imagerel $unwind$?_Adjust_manually_vector_aligned@std@@YAXAEAPEAXAEA_K@Z
pdata	ENDS
;	COMDAT pdata
pdata	SEGMENT
$pdata$?_Xlen_string@std@@YAXXZ DD imagerel $LN3
	DD	imagerel $LN3+22
	DD	imagerel $unwind$?_Xlen_string@std@@YAXXZ
pdata	ENDS
;	COMDAT pdata
pdata	SEGMENT
$pdata$?deallocate@?$allocator@D@std@@QEAAXQEAD_K@Z DD imagerel $LN3
	DD	imagerel $LN3+40
	DD	imagerel $unwind$?deallocate@?$allocator@D@std@@QEAAXQEAD_K@Z
pdata	ENDS
;	COMDAT pdata
pdata	SEGMENT
$pdata$?allocate@?$allocator@D@std@@QEAAPEAD_K@Z DD imagerel $LN3
	DD	imagerel $LN3+37
	DD	imagerel $unwind$?allocate@?$allocator@D@std@@QEAAPEAD_K@Z
pdata	ENDS
;	COMDAT pdata
pdata	SEGMENT
$pdata$??0?$_String_val@U?$_Simple_types@D@std@@@std@@QEAA@XZ DD imagerel $LN4
	DD	imagerel $LN4+59
	DD	imagerel $unwind$??0?$_String_val@U?$_Simple_types@D@std@@@std@@QEAA@XZ
pdata	ENDS
;	COMDAT pdata
pdata	SEGMENT
$pdata$?dtor$0@?0???0?$_String_val@U?$_Simple_types@D@std@@@std@@QEAA@XZ@4HA DD imagerel ?dtor$0@?0???0?$_String_val@U?$_Simple_types@D@std@@@std@@QEAA@XZ@4HA
	DD	imagerel ?dtor$0@?0???0?$_String_val@U?$_Simple_types@D@std@@@std@@QEAA@XZ@4HA+24
	DD	imagerel $unwind$?dtor$0@?0???0?$_String_val@U?$_Simple_types@D@std@@@std@@QEAA@XZ@4HA
pdata	ENDS
;	COMDAT pdata
pdata	SEGMENT
$pdata$?_Myptr@?$_String_val@U?$_Simple_types@D@std@@@std@@QEAAPEADXZ DD imagerel $LN4
	DD	imagerel $LN4+64
	DD	imagerel $unwind$?_Myptr@?$_String_val@U?$_Simple_types@D@std@@@std@@QEAAPEADXZ
pdata	ENDS
;	COMDAT pdata
pdata	SEGMENT
$pdata$?_Myptr@?$_String_val@U?$_Simple_types@D@std@@@std@@QEBAPEBDXZ DD imagerel $LN4
	DD	imagerel $LN4+64
	DD	imagerel $unwind$?_Myptr@?$_String_val@U?$_Simple_types@D@std@@@std@@QEBAPEBDXZ
pdata	ENDS
;	COMDAT pdata
pdata	SEGMENT
$pdata$?_Large_mode_engaged@?$_String_val@U?$_Simple_types@D@std@@@std@@QEBA_NXZ DD imagerel $LN5
	DD	imagerel $LN5+46
	DD	imagerel $unwind$?_Large_mode_engaged@?$_String_val@U?$_Simple_types@D@std@@@std@@QEBA_NXZ
pdata	ENDS
;	COMDAT pdata
pdata	SEGMENT
$pdata$??0_Bxty@?$_String_val@U?$_Simple_types@D@std@@@std@@QEAA@XZ DD imagerel $LN3
	DD	imagerel $LN3+32
	DD	imagerel $unwind$??0_Bxty@?$_String_val@U?$_Simple_types@D@std@@@std@@QEAA@XZ
pdata	ENDS
;	COMDAT pdata
pdata	SEGMENT
$pdata$?_Switch_to_buf@_Bxty@?$_String_val@U?$_Simple_types@D@std@@@std@@QEAAXXZ DD imagerel $LN3
	DD	imagerel $LN3+28
	DD	imagerel $unwind$?_Switch_to_buf@_Bxty@?$_String_val@U?$_Simple_types@D@std@@@std@@QEAAXXZ
pdata	ENDS
;	COMDAT pdata
pdata	SEGMENT
$pdata$??1?$_String_val@U?$_Simple_types@D@std@@@std@@QEAA@XZ DD imagerel $LN4
	DD	imagerel $LN4+28
	DD	imagerel $unwind$??1?$_String_val@U?$_Simple_types@D@std@@@std@@QEAA@XZ
pdata	ENDS
;	COMDAT pdata
pdata	SEGMENT
$pdata$?dtor$0@?0???1?$_String_val@U?$_Simple_types@D@std@@@std@@QEAA@XZ@4HA DD imagerel ?dtor$0@?0???1?$_String_val@U?$_Simple_types@D@std@@@std@@QEAA@XZ@4HA
	DD	imagerel ?dtor$0@?0???1?$_String_val@U?$_Simple_types@D@std@@@std@@QEAA@XZ@4HA+24
	DD	imagerel $unwind$?dtor$0@?0???1?$_String_val@U?$_Simple_types@D@std@@@std@@QEAA@XZ@4HA
pdata	ENDS
;	COMDAT pdata
pdata	SEGMENT
$pdata$??0?$basic_string@DU?$char_traits@D@std@@V?$allocator@D@2@@std@@QEAA@XZ DD imagerel $LN4
	DD	imagerel $LN4+56
	DD	imagerel $unwind$??0?$basic_string@DU?$char_traits@D@std@@V?$allocator@D@2@@std@@QEAA@XZ
pdata	ENDS
;	COMDAT pdata
pdata	SEGMENT
$pdata$?dtor$0@?0???0?$basic_string@DU?$char_traits@D@std@@V?$allocator@D@2@@std@@QEAA@XZ@4HA DD imagerel ?dtor$0@?0???0?$basic_string@DU?$char_traits@D@std@@V?$allocator@D@2@@std@@QEAA@XZ@4HA
	DD	imagerel ?dtor$0@?0???0?$basic_string@DU?$char_traits@D@std@@V?$allocator@D@2@@std@@QEAA@XZ@4HA+24
	DD	imagerel $unwind$?dtor$0@?0???0?$basic_string@DU?$char_traits@D@std@@V?$allocator@D@2@@std@@QEAA@XZ@4HA
pdata	ENDS
;	COMDAT pdata
pdata	SEGMENT
$pdata$??0?$basic_string@DU?$char_traits@D@std@@V?$allocator@D@2@@std@@QEAA@AEBV01@@Z DD imagerel $LN4
	DD	imagerel $LN4+145
	DD	imagerel $unwind$??0?$basic_string@DU?$char_traits@D@std@@V?$allocator@D@2@@std@@QEAA@AEBV01@@Z
pdata	ENDS
;	COMDAT pdata
pdata	SEGMENT
$pdata$?dtor$0@?0???0?$basic_string@DU?$char_traits@D@std@@V?$allocator@D@2@@std@@QEAA@AEBV01@@Z@4HA DD imagerel ?dtor$0@?0???0?$basic_string@DU?$char_traits@D@std@@V?$allocator@D@2@@std@@QEAA@AEBV01@@Z@4HA
	DD	imagerel ?dtor$0@?0???0?$basic_string@DU?$char_traits@D@std@@V?$allocator@D@2@@std@@QEAA@AEBV01@@Z@4HA+24
	DD	imagerel $unwind$?dtor$0@?0???0?$basic_string@DU?$char_traits@D@std@@V?$allocator@D@2@@std@@QEAA@AEBV01@@Z@4HA
pdata	ENDS
;	COMDAT pdata
pdata	SEGMENT
$pdata$??0?$basic_string@DU?$char_traits@D@std@@V?$allocator@D@2@@std@@QEAA@QEBD@Z DD imagerel $LN4
	DD	imagerel $LN4+87
	DD	imagerel $unwind$??0?$basic_string@DU?$char_traits@D@std@@V?$allocator@D@2@@std@@QEAA@QEBD@Z
pdata	ENDS
;	COMDAT pdata
pdata	SEGMENT
$pdata$?dtor$0@?0???0?$basic_string@DU?$char_traits@D@std@@V?$allocator@D@2@@std@@QEAA@QEBD@Z@4HA DD imagerel ?dtor$0@?0???0?$basic_string@DU?$char_traits@D@std@@V?$allocator@D@2@@std@@QEAA@QEBD@Z@4HA
	DD	imagerel ?dtor$0@?0???0?$basic_string@DU?$char_traits@D@std@@V?$allocator@D@2@@std@@QEAA@QEBD@Z@4HA+24
	DD	imagerel $unwind$?dtor$0@?0???0?$basic_string@DU?$char_traits@D@std@@V?$allocator@D@2@@std@@QEAA@QEBD@Z@4HA
pdata	ENDS
;	COMDAT pdata
pdata	SEGMENT
$pdata$??0?$basic_string@DU?$char_traits@D@std@@V?$allocator@D@2@@std@@QEAA@_KD@Z DD imagerel $LN4
	DD	imagerel $LN4+76
	DD	imagerel $unwind$??0?$basic_string@DU?$char_traits@D@std@@V?$allocator@D@2@@std@@QEAA@_KD@Z
pdata	ENDS
;	COMDAT pdata
pdata	SEGMENT
$pdata$?dtor$0@?0???0?$basic_string@DU?$char_traits@D@std@@V?$allocator@D@2@@std@@QEAA@_KD@Z@4HA DD imagerel ?dtor$0@?0???0?$basic_string@DU?$char_traits@D@std@@V?$allocator@D@2@@std@@QEAA@_KD@Z@4HA
	DD	imagerel ?dtor$0@?0???0?$basic_string@DU?$char_traits@D@std@@V?$allocator@D@2@@std@@QEAA@_KD@Z@4HA+24
	DD	imagerel $unwind$?dtor$0@?0???0?$basic_string@DU?$char_traits@D@std@@V?$allocator@D@2@@std@@QEAA@_KD@Z@4HA
pdata	ENDS
;	COMDAT pdata
pdata	SEGMENT
$pdata$?_Deallocate_for_capacity@?$basic_string@DU?$char_traits@D@std@@V?$allocator@D@2@@std@@CAXAEAV?$allocator@D@2@QEAD_K@Z DD imagerel $LN3
	DD	imagerel $LN3+51
	DD	imagerel $unwind$?_Deallocate_for_capacity@?$basic_string@DU?$char_traits@D@std@@V?$allocator@D@2@@std@@CAXAEAV?$allocator@D@2@QEAD_K@Z
pdata	ENDS
;	COMDAT pdata
pdata	SEGMENT
$pdata$?_Construct_empty@?$basic_string@DU?$char_traits@D@std@@V?$allocator@D@2@@std@@AEAAXXZ DD imagerel $LN3
	DD	imagerel $LN3+117
	DD	imagerel $unwind$?_Construct_empty@?$basic_string@DU?$char_traits@D@std@@V?$allocator@D@2@@std@@AEAAXXZ
pdata	ENDS
;	COMDAT pdata
pdata	SEGMENT
$pdata$??0?$basic_string@DU?$char_traits@D@std@@V?$allocator@D@2@@std@@QEAA@$$QEAV01@@Z DD imagerel $LN4
	DD	imagerel $LN4+130
	DD	imagerel $unwind$??0?$basic_string@DU?$char_traits@D@std@@V?$allocator@D@2@@std@@QEAA@$$QEAV01@@Z
pdata	ENDS
;	COMDAT pdata
pdata	SEGMENT
$pdata$?dtor$0@?0???0?$basic_string@DU?$char_traits@D@std@@V?$allocator@D@2@@std@@QEAA@$$QEAV01@@Z@4HA DD imagerel ?dtor$0@?0???0?$basic_string@DU?$char_traits@D@std@@V?$allocator@D@2@@std@@QEAA@$$QEAV01@@Z@4HA
	DD	imagerel ?dtor$0@?0???0?$basic_string@DU?$char_traits@D@std@@V?$allocator@D@2@@std@@QEAA@$$QEAV01@@Z@4HA+24
	DD	imagerel $unwind$?dtor$0@?0???0?$basic_string@DU?$char_traits@D@std@@V?$allocator@D@2@@std@@QEAA@$$QEAV01@@Z@4HA
pdata	ENDS
;	COMDAT pdata
pdata	SEGMENT
$pdata$?_Take_contents@?$basic_string@DU?$char_traits@D@std@@V?$allocator@D@2@@std@@AEAAXAEAV12@@Z DD imagerel $LN5
	DD	imagerel $LN5+411
	DD	imagerel $unwind$?_Take_contents@?$basic_string@DU?$char_traits@D@std@@V?$allocator@D@2@@std@@AEAAXAEAV12@@Z
pdata	ENDS
;	COMDAT pdata
pdata	SEGMENT
$pdata$??1?$basic_string@DU?$char_traits@D@std@@V?$allocator@D@2@@std@@QEAA@XZ DD imagerel $LN4
	DD	imagerel $LN4+39
	DD	imagerel $unwind$??1?$basic_string@DU?$char_traits@D@std@@V?$allocator@D@2@@std@@QEAA@XZ
pdata	ENDS
;	COMDAT pdata
pdata	SEGMENT
$pdata$?dtor$0@?0???1?$basic_string@DU?$char_traits@D@std@@V?$allocator@D@2@@std@@QEAA@XZ@4HA DD imagerel ?dtor$0@?0???1?$basic_string@DU?$char_traits@D@std@@V?$allocator@D@2@@std@@QEAA@XZ@4HA
	DD	imagerel ?dtor$0@?0???1?$basic_string@DU?$char_traits@D@std@@V?$allocator@D@2@@std@@QEAA@XZ@4HA+24
	DD	imagerel $unwind$?dtor$0@?0???1?$basic_string@DU?$char_traits@D@std@@V?$allocator@D@2@@std@@QEAA@XZ@4HA
pdata	ENDS
;	COMDAT pdata
pdata	SEGMENT
$pdata$??4?$basic_string@DU?$char_traits@D@std@@V?$allocator@D@2@@std@@QEAAAEAV01@AEBV01@@Z DD imagerel $LN4
	DD	imagerel $LN4+145
	DD	imagerel $unwind$??4?$basic_string@DU?$char_traits@D@std@@V?$allocator@D@2@@std@@QEAAAEAV01@AEBV01@@Z
pdata	ENDS
;	COMDAT pdata
pdata	SEGMENT
$pdata$??Y?$basic_string@DU?$char_traits@D@std@@V?$allocator@D@2@@std@@QEAAAEAV01@AEBV01@@Z DD imagerel $LN3
	DD	imagerel $LN3+34
	DD	imagerel $unwind$??Y?$basic_string@DU?$char_traits@D@std@@V?$allocator@D@2@@std@@QEAAAEAV01@AEBV01@@Z
pdata	ENDS
;	COMDAT pdata
pdata	SEGMENT
$pdata$?append@?$basic_string@DU?$char_traits@D@std@@V?$allocator@D@2@@std@@QEAAAEAV12@AEBV12@@Z DD imagerel $LN3
	DD	imagerel $LN3+71
	DD	imagerel $unwind$?append@?$basic_string@DU?$char_traits@D@std@@V?$allocator@D@2@@std@@QEAAAEAV12@AEBV12@@Z
pdata	ENDS
;	COMDAT pdata
pdata	SEGMENT
$pdata$?append@?$basic_string@DU?$char_traits@D@std@@V?$allocator@D@2@@std@@QEAAAEAV12@QEBD_K@Z DD imagerel $LN4
	DD	imagerel $LN4+252
	DD	imagerel $unwind$?append@?$basic_string@DU?$char_traits@D@std@@V?$allocator@D@2@@std@@QEAAAEAV12@QEBD_K@Z
pdata	ENDS
;	COMDAT pdata
pdata	SEGMENT
$pdata$?append@?$basic_string@DU?$char_traits@D@std@@V?$allocator@D@2@@std@@QEAAAEAV12@QEBD@Z DD imagerel $LN3
	DD	imagerel $LN3+55
	DD	imagerel $unwind$?append@?$basic_string@DU?$char_traits@D@std@@V?$allocator@D@2@@std@@QEAAAEAV12@QEBD@Z
pdata	ENDS
;	COMDAT pdata
pdata	SEGMENT
$pdata$?assign@?$basic_string@DU?$char_traits@D@std@@V?$allocator@D@2@@std@@QEAAAEAV12@QEBD_K@Z DD imagerel $LN4
	DD	imagerel $LN4+180
	DD	imagerel $unwind$?assign@?$basic_string@DU?$char_traits@D@std@@V?$allocator@D@2@@std@@QEAAAEAV12@QEBD_K@Z
pdata	ENDS
;	COMDAT pdata
pdata	SEGMENT
$pdata$??A?$basic_string@DU?$char_traits@D@std@@V?$allocator@D@2@@std@@QEAAAEAD_K@Z DD imagerel $LN3
	DD	imagerel $LN3+37
	DD	imagerel $unwind$??A?$basic_string@DU?$char_traits@D@std@@V?$allocator@D@2@@std@@QEAAAEAD_K@Z
pdata	ENDS
;	COMDAT pdata
pdata	SEGMENT
$pdata$?c_str@?$basic_string@DU?$char_traits@D@std@@V?$allocator@D@2@@std@@QEBAPEBDXZ DD imagerel $LN3
	DD	imagerel $LN3+27
	DD	imagerel $unwind$?c_str@?$basic_string@DU?$char_traits@D@std@@V?$allocator@D@2@@std@@QEBAPEBDXZ
pdata	ENDS
;	COMDAT pdata
pdata	SEGMENT
$pdata$?max_size@?$basic_string@DU?$char_traits@D@std@@V?$allocator@D@2@@std@@QEBA_KXZ DD imagerel $LN3
	DD	imagerel $LN3+110
	DD	imagerel $unwind$?max_size@?$basic_string@DU?$char_traits@D@std@@V?$allocator@D@2@@std@@QEBA_KXZ
pdata	ENDS
;	COMDAT pdata
pdata	SEGMENT
$pdata$?_Calculate_growth@?$basic_string@DU?$char_traits@D@std@@V?$allocator@D@2@@std@@CA_K_K00@Z DD imagerel $LN5
	DD	imagerel $LN5+146
	DD	imagerel $unwind$?_Calculate_growth@?$basic_string@DU?$char_traits@D@std@@V?$allocator@D@2@@std@@CA_K_K00@Z
pdata	ENDS
;	COMDAT pdata
pdata	SEGMENT
$pdata$?_Calculate_growth@?$basic_string@DU?$char_traits@D@std@@V?$allocator@D@2@@std@@AEBA_K_K@Z DD imagerel $LN3
	DD	imagerel $LN3+68
	DD	imagerel $unwind$?_Calculate_growth@?$basic_string@DU?$char_traits@D@std@@V?$allocator@D@2@@std@@AEBA_K_K@Z
pdata	ENDS
;	COMDAT pdata
pdata	SEGMENT
$pdata$?_Tidy_deallocate@?$basic_string@DU?$char_traits@D@std@@V?$allocator@D@2@@std@@AEAAXXZ DD imagerel $LN4
	DD	imagerel $LN4+173
	DD	imagerel $unwind$?_Tidy_deallocate@?$basic_string@DU?$char_traits@D@std@@V?$allocator@D@2@@std@@AEAAXXZ
pdata	ENDS
;	COMDAT pdata
pdata	SEGMENT
$pdata$?_Swap_proxy_and_iterators@?$basic_string@DU?$char_traits@D@std@@V?$allocator@D@2@@std@@AEAAXAEAV12@@Z DD imagerel $LN3
	DD	imagerel $LN3+48
	DD	imagerel $unwind$?_Swap_proxy_and_iterators@?$basic_string@DU?$char_traits@D@std@@V?$allocator@D@2@@std@@AEAAXAEAV12@@Z
pdata	ENDS
;	COMDAT pdata
pdata	SEGMENT
$pdata$?_Getal@?$basic_string@DU?$char_traits@D@std@@V?$allocator@D@2@@std@@AEAAAEAV?$allocator@D@2@XZ DD imagerel $LN3
	DD	imagerel $LN3+27
	DD	imagerel $unwind$?_Getal@?$basic_string@DU?$char_traits@D@std@@V?$allocator@D@2@@std@@AEAAAEAV?$allocator@D@2@XZ
pdata	ENDS
;	COMDAT pdata
pdata	SEGMENT
$pdata$?_Getal@?$basic_string@DU?$char_traits@D@std@@V?$allocator@D@2@@std@@AEBAAEBV?$allocator@D@2@XZ DD imagerel $LN3
	DD	imagerel $LN3+27
	DD	imagerel $unwind$?_Getal@?$basic_string@DU?$char_traits@D@std@@V?$allocator@D@2@@std@@AEBAAEBV?$allocator@D@2@XZ
pdata	ENDS
;	COMDAT pdata
pdata	SEGMENT
$pdata$??1?$_Compressed_pair@V?$allocator@D@std@@V?$_String_val@U?$_Simple_types@D@std@@@2@$00@std@@QEAA@XZ DD imagerel $LN4
	DD	imagerel $LN4+28
	DD	imagerel $unwind$??1?$_Compressed_pair@V?$allocator@D@std@@V?$_String_val@U?$_Simple_types@D@std@@@2@$00@std@@QEAA@XZ
pdata	ENDS
;	COMDAT pdata
pdata	SEGMENT
$pdata$?dtor$0@?0???1?$_Compressed_pair@V?$allocator@D@std@@V?$_String_val@U?$_Simple_types@D@std@@@2@$00@std@@QEAA@XZ@4HA DD imagerel ?dtor$0@?0???1?$_Compressed_pair@V?$allocator@D@std@@V?$_String_val@U?$_Simple_types@D@std@@@2@$00@std@@QEAA@XZ@4HA
	DD	imagerel ?dtor$0@?0???1?$_Compressed_pair@V?$allocator@D@std@@V?$_String_val@U?$_Simple_types@D@std@@@2@$00@std@@QEAA@XZ@4HA+24
	DD	imagerel $unwind$?dtor$0@?0???1?$_Compressed_pair@V?$allocator@D@std@@V?$_String_val@U?$_Simple_types@D@std@@@2@$00@std@@QEAA@XZ@4HA
pdata	ENDS
;	COMDAT pdata
pdata	SEGMENT
$pdata$??_G?$basic_string@DU?$char_traits@D@std@@V?$allocator@D@2@@std@@QEAAPEAXI@Z DD imagerel $LN4
	DD	imagerel $LN4+60
	DD	imagerel $unwind$??_G?$basic_string@DU?$char_traits@D@std@@V?$allocator@D@2@@std@@QEAAPEAXI@Z
pdata	ENDS
;	COMDAT pdata
pdata	SEGMENT
$pdata$?to_string@std@@YA?AV?$basic_string@DU?$char_traits@D@std@@V?$allocator@D@2@@1@H@Z DD imagerel $LN5
	DD	imagerel $LN5+58
	DD	imagerel $unwind$?to_string@std@@YA?AV?$basic_string@DU?$char_traits@D@std@@V?$allocator@D@2@@1@H@Z
pdata	ENDS
;	COMDAT pdata
pdata	SEGMENT
$pdata$?dtor$0@?0??to_string@std@@YA?AV?$basic_string@DU?$char_traits@D@std@@V?$allocator@D@2@@1@H@Z@4HA DD imagerel ?dtor$0@?0??to_string@std@@YA?AV?$basic_string@DU?$char_traits@D@std@@V?$allocator@D@2@@1@H@Z@4HA
	DD	imagerel ?dtor$0@?0??to_string@std@@YA?AV?$basic_string@DU?$char_traits@D@std@@V?$allocator@D@2@@1@H@Z@4HA+38
	DD	imagerel $unwind$?dtor$0@?0??to_string@std@@YA?AV?$basic_string@DU?$char_traits@D@std@@V?$allocator@D@2@@1@H@Z@4HA
pdata	ENDS
;	COMDAT pdata
pdata	SEGMENT
$pdata$??$_Integral_to_string@DH@std@@YA?AV?$basic_string@DU?$char_traits@D@std@@V?$allocator@D@2@@0@H@Z DD imagerel $LN7
	DD	imagerel $LN7+210
	DD	imagerel $unwind$??$_Integral_to_string@DH@std@@YA?AV?$basic_string@DU?$char_traits@D@std@@V?$allocator@D@2@@0@H@Z
pdata	ENDS
;	COMDAT pdata
pdata	SEGMENT
$pdata$?dtor$0@?0???$_Integral_to_string@DH@std@@YA?AV?$basic_string@DU?$char_traits@D@std@@V?$allocator@D@2@@0@H@Z@4HA DD imagerel ?dtor$0@?0???$_Integral_to_string@DH@std@@YA?AV?$basic_string@DU?$char_traits@D@std@@V?$allocator@D@2@@0@H@Z@4HA
	DD	imagerel ?dtor$0@?0???$_Integral_to_string@DH@std@@YA?AV?$basic_string@DU?$char_traits@D@std@@V?$allocator@D@2@@0@H@Z@4HA+38
	DD	imagerel $unwind$?dtor$0@?0???$_Integral_to_string@DH@std@@YA?AV?$basic_string@DU?$char_traits@D@std@@V?$allocator@D@2@@0@H@Z@4HA
pdata	ENDS
;	COMDAT pdata
pdata	SEGMENT
$pdata$?to_string@std@@YA?AV?$basic_string@DU?$char_traits@D@std@@V?$allocator@D@2@@1@_K@Z DD imagerel $LN5
	DD	imagerel $LN5+60
	DD	imagerel $unwind$?to_string@std@@YA?AV?$basic_string@DU?$char_traits@D@std@@V?$allocator@D@2@@1@_K@Z
pdata	ENDS
;	COMDAT pdata
pdata	SEGMENT
$pdata$?dtor$0@?0??to_string@std@@YA?AV?$basic_string@DU?$char_traits@D@std@@V?$allocator@D@2@@1@_K@Z@4HA DD imagerel ?dtor$0@?0??to_string@std@@YA?AV?$basic_string@DU?$char_traits@D@std@@V?$allocator@D@2@@1@_K@Z@4HA
	DD	imagerel ?dtor$0@?0??to_string@std@@YA?AV?$basic_string@DU?$char_traits@D@std@@V?$allocator@D@2@@1@_K@Z@4HA+38
	DD	imagerel $unwind$?dtor$0@?0??to_string@std@@YA?AV?$basic_string@DU?$char_traits@D@std@@V?$allocator@D@2@@1@_K@Z@4HA
pdata	ENDS
;	COMDAT pdata
pdata	SEGMENT
$pdata$??$_UIntegral_to_string@D_K@std@@YA?AV?$basic_string@DU?$char_traits@D@std@@V?$allocator@D@2@@0@_K@Z DD imagerel $LN5
	DD	imagerel $LN5+141
	DD	imagerel $unwind$??$_UIntegral_to_string@D_K@std@@YA?AV?$basic_string@DU?$char_traits@D@std@@V?$allocator@D@2@@0@_K@Z
pdata	ENDS
;	COMDAT pdata
pdata	SEGMENT
$pdata$?dtor$0@?0???$_UIntegral_to_string@D_K@std@@YA?AV?$basic_string@DU?$char_traits@D@std@@V?$allocator@D@2@@0@_K@Z@4HA DD imagerel ?dtor$0@?0???$_UIntegral_to_string@D_K@std@@YA?AV?$basic_string@DU?$char_traits@D@std@@V?$allocator@D@2@@0@_K@Z@4HA
	DD	imagerel ?dtor$0@?0???$_UIntegral_to_string@D_K@std@@YA?AV?$basic_string@DU?$char_traits@D@std@@V?$allocator@D@2@@0@_K@Z@4HA+38
	DD	imagerel $unwind$?dtor$0@?0???$_UIntegral_to_string@D_K@std@@YA?AV?$basic_string@DU?$char_traits@D@std@@V?$allocator@D@2@@0@_K@Z@4HA
pdata	ENDS
;	COMDAT pdata
pdata	SEGMENT
$pdata$?to_string@std@@YA?AV?$basic_string@DU?$char_traits@D@std@@V?$allocator@D@2@@1@N@Z DD imagerel $LN6
	DD	imagerel $LN6+206
	DD	imagerel $unwind$?to_string@std@@YA?AV?$basic_string@DU?$char_traits@D@std@@V?$allocator@D@2@@1@N@Z
pdata	ENDS
;	COMDAT pdata
pdata	SEGMENT
$pdata$?dtor$0@?0??to_string@std@@YA?AV?$basic_string@DU?$char_traits@D@std@@V?$allocator@D@2@@1@N@Z@4HA DD imagerel ?dtor$0@?0??to_string@std@@YA?AV?$basic_string@DU?$char_traits@D@std@@V?$allocator@D@2@@1@N@Z@4HA
	DD	imagerel ?dtor$0@?0??to_string@std@@YA?AV?$basic_string@DU?$char_traits@D@std@@V?$allocator@D@2@@1@N@Z@4HA+24
	DD	imagerel $unwind$?dtor$0@?0??to_string@std@@YA?AV?$basic_string@DU?$char_traits@D@std@@V?$allocator@D@2@@1@N@Z@4HA
pdata	ENDS
;	COMDAT pdata
pdata	SEGMENT
$pdata$?dtor$1@?0??to_string@std@@YA?AV?$basic_string@DU?$char_traits@D@std@@V?$allocator@D@2@@1@N@Z@4HA DD imagerel ?dtor$1@?0??to_string@std@@YA?AV?$basic_string@DU?$char_traits@D@std@@V?$allocator@D@2@@1@N@Z@4HA
	DD	imagerel ?dtor$1@?0??to_string@std@@YA?AV?$basic_string@DU?$char_traits@D@std@@V?$allocator@D@2@@1@N@Z@4HA+38
	DD	imagerel $unwind$?dtor$1@?0??to_string@std@@YA?AV?$basic_string@DU?$char_traits@D@std@@V?$allocator@D@2@@1@N@Z@4HA
pdata	ENDS
;	COMDAT pdata
pdata	SEGMENT
$pdata$?to_string@std@@YA?AV?$basic_string@DU?$char_traits@D@std@@V?$allocator@D@2@@1@M@Z DD imagerel $LN5
	DD	imagerel $LN5+65
	DD	imagerel $unwind$?to_string@std@@YA?AV?$basic_string@DU?$char_traits@D@std@@V?$allocator@D@2@@1@M@Z
pdata	ENDS
;	COMDAT pdata
pdata	SEGMENT
$pdata$?dtor$0@?0??to_string@std@@YA?AV?$basic_string@DU?$char_traits@D@std@@V?$allocator@D@2@@1@M@Z@4HA DD imagerel ?dtor$0@?0??to_string@std@@YA?AV?$basic_string@DU?$char_traits@D@std@@V?$allocator@D@2@@1@M@Z@4HA
	DD	imagerel ?dtor$0@?0??to_string@std@@YA?AV?$basic_string@DU?$char_traits@D@std@@V?$allocator@D@2@@1@M@Z@4HA+38
	DD	imagerel $unwind$?dtor$0@?0??to_string@std@@YA?AV?$basic_string@DU?$char_traits@D@std@@V?$allocator@D@2@@1@M@Z@4HA
pdata	ENDS
;	COMDAT pdata
pdata	SEGMENT
$pdata$?deallocate@?$allocator@V?$basic_string@DU?$char_traits@D@std@@V?$allocator@D@2@@std@@@std@@QEAAXQEAV?$basic_string@DU?$char_traits@D@std@@V?$allocator@D@2@@2@_K@Z DD imagerel $LN3
	DD	imagerel $LN3+44
	DD	imagerel $unwind$?deallocate@?$allocator@V?$basic_string@DU?$char_traits@D@std@@V?$allocator@D@2@@std@@@std@@QEAAXQEAV?$basic_string@DU?$char_traits@D@std@@V?$allocator@D@2@@2@_K@Z
pdata	ENDS
;	COMDAT pdata
pdata	SEGMENT
$pdata$??1?$vector@V?$basic_string@DU?$char_traits@D@std@@V?$allocator@D@2@@std@@V?$allocator@V?$basic_string@DU?$char_traits@D@std@@V?$allocator@D@2@@std@@@2@@std@@QEAA@XZ DD imagerel $LN3
	DD	imagerel $LN3+25
	DD	imagerel $unwind$??1?$vector@V?$basic_string@DU?$char_traits@D@std@@V?$allocator@D@2@@std@@V?$allocator@V?$basic_string@DU?$char_traits@D@std@@V?$allocator@D@2@@std@@@2@@std@@QEAA@XZ
pdata	ENDS
;	COMDAT pdata
pdata	SEGMENT
$pdata$?size@?$vector@V?$basic_string@DU?$char_traits@D@std@@V?$allocator@D@2@@std@@V?$allocator@V?$basic_string@DU?$char_traits@D@std@@V?$allocator@D@2@@std@@@2@@std@@QEBA_KXZ DD imagerel $LN3
	DD	imagerel $LN3+45
	DD	imagerel $unwind$?size@?$vector@V?$basic_string@DU?$char_traits@D@std@@V?$allocator@D@2@@std@@V?$allocator@V?$basic_string@DU?$char_traits@D@std@@V?$allocator@D@2@@std@@@2@@std@@QEBA_KXZ
pdata	ENDS
;	COMDAT pdata
pdata	SEGMENT
$pdata$??A?$vector@V?$basic_string@DU?$char_traits@D@std@@V?$allocator@D@2@@std@@V?$allocator@V?$basic_string@DU?$char_traits@D@std@@V?$allocator@D@2@@std@@@2@@std@@QEAAAEAV?$basic_string@DU?$char_traits@D@std@@V?$allocator@D@2@@1@_K@Z DD imagerel $LN3
	DD	imagerel $LN3+41
	DD	imagerel $unwind$??A?$vector@V?$basic_string@DU?$char_traits@D@std@@V?$allocator@D@2@@std@@V?$allocator@V?$basic_string@DU?$char_traits@D@std@@V?$allocator@D@2@@std@@@2@@std@@QEAAAEAV?$basic_string@DU?$char_traits@D@std@@V?$allocator@D@2@@1@_K@Z
pdata	ENDS
;	COMDAT pdata
pdata	SEGMENT
$pdata$?_Tidy@?$vector@V?$basic_string@DU?$char_traits@D@std@@V?$allocator@D@2@@std@@V?$allocator@V?$basic_string@DU?$char_traits@D@std@@V?$allocator@D@2@@std@@@2@@std@@AEAAXXZ DD imagerel $LN4
	DD	imagerel $LN4+205
	DD	imagerel $unwind$?_Tidy@?$vector@V?$basic_string@DU?$char_traits@D@std@@V?$allocator@D@2@@std@@V?$allocator@V?$basic_string@DU?$char_traits@D@std@@V?$allocator@D@2@@std@@@2@@std@@AEAAXXZ
pdata	ENDS
;	COMDAT pdata
pdata	SEGMENT
$pdata$?_Getal@?$vector@V?$basic_string@DU?$char_traits@D@std@@V?$allocator@D@2@@std@@V?$allocator@V?$basic_string@DU?$char_traits@D@std@@V?$allocator@D@2@@std@@@2@@std@@AEAAAEAV?$allocator@V?$basic_string@DU?$char_traits@D@std@@V?$allocator@D@2@@std@@@2@XZ DD imagerel $LN3
	DD	imagerel $LN3+27
	DD	imagerel $unwind$?_Getal@?$vector@V?$basic_string@DU?$char_traits@D@std@@V?$allocator@D@2@@std@@V?$allocator@V?$basic_string@DU?$char_traits@D@std@@V?$allocator@D@2@@std@@@2@@std@@AEAAAEAV?$allocator@V?$basic_string@DU?$char_traits@D@std@@V?$allocator@D@2@@std@@@2@XZ
pdata	ENDS
;	COMDAT pdata
pdata	SEGMENT
$pdata$??$min@_K@std@@YAAEB_KAEB_K0@Z DD imagerel $LN5
	DD	imagerel $LN5+71
	DD	imagerel $unwind$??$min@_K@std@@YAAEB_KAEB_K0@Z
pdata	ENDS
;	COMDAT pdata
pdata	SEGMENT
$pdata$??$?HDU?$char_traits@D@std@@V?$allocator@D@1@@std@@YA?AV?$basic_string@DU?$char_traits@D@std@@V?$allocator@D@2@@0@$$QEAV10@QEBD@Z DD imagerel $LN5
	DD	imagerel $LN5+86
	DD	imagerel $unwind$??$?HDU?$char_traits@D@std@@V?$allocator@D@1@@std@@YA?AV?$basic_string@DU?$char_traits@D@std@@V?$allocator@D@2@@0@$$QEAV10@QEBD@Z
pdata	ENDS
;	COMDAT pdata
pdata	SEGMENT
$pdata$?dtor$0@?0???$?HDU?$char_traits@D@std@@V?$allocator@D@1@@std@@YA?AV?$basic_string@DU?$char_traits@D@std@@V?$allocator@D@2@@0@$$QEAV10@QEBD@Z@4HA DD imagerel ?dtor$0@?0???$?HDU?$char_traits@D@std@@V?$allocator@D@1@@std@@YA?AV?$basic_string@DU?$char_traits@D@std@@V?$allocator@D@2@@0@$$QEAV10@QEBD@Z@4HA
	DD	imagerel ?dtor$0@?0???$?HDU?$char_traits@D@std@@V?$allocator@D@1@@std@@YA?AV?$basic_string@DU?$char_traits@D@std@@V?$allocator@D@2@@0@$$QEAV10@QEBD@Z@4HA+38
	DD	imagerel $unwind$?dtor$0@?0???$?HDU?$char_traits@D@std@@V?$allocator@D@1@@std@@YA?AV?$basic_string@DU?$char_traits@D@std@@V?$allocator@D@2@@0@$$QEAV10@QEBD@Z@4HA
pdata	ENDS
;	COMDAT pdata
pdata	SEGMENT
$pdata$??0WSInit@detail@httplib@@QEAA@XZ DD imagerel $LN4
	DD	imagerel $LN4+103
	DD	imagerel $unwind$??0WSInit@detail@httplib@@QEAA@XZ
pdata	ENDS
;	COMDAT pdata
pdata	SEGMENT
$pdata$??1WSInit@detail@httplib@@QEAA@XZ DD imagerel $LN4
	DD	imagerel $LN4+33
	DD	imagerel $unwind$??1WSInit@detail@httplib@@QEAA@XZ
pdata	ENDS
;	COMDAT pdata
pdata	SEGMENT
$pdata$??__Ewsinit_@detail@httplib@@YAXXZ DD imagerel ??__Ewsinit_@detail@httplib@@YAXXZ
	DD	imagerel ??__Ewsinit_@detail@httplib@@YAXXZ+34
	DD	imagerel $unwind$??__Ewsinit_@detail@httplib@@YAXXZ
pdata	ENDS
;	COMDAT pdata
pdata	SEGMENT
$pdata$??__Fwsinit_@detail@httplib@@YAXXZ DD imagerel ??__Fwsinit_@detail@httplib@@YAXXZ
	DD	imagerel ??__Fwsinit_@detail@httplib@@YAXXZ+22
	DD	imagerel $unwind$??__Fwsinit_@detail@httplib@@YAXXZ
pdata	ENDS
;	COMDAT pdata
pdata	SEGMENT
$pdata$??0SSLInit@detail@httplib@@QEAA@XZ DD imagerel $LN3
	DD	imagerel $LN3+32
	DD	imagerel $unwind$??0SSLInit@detail@httplib@@QEAA@XZ
pdata	ENDS
;	COMDAT pdata
pdata	SEGMENT
$pdata$??__Esslinit_@detail@httplib@@YAXXZ DD imagerel ??__Esslinit_@detail@httplib@@YAXXZ
	DD	imagerel ??__Esslinit_@detail@httplib@@YAXXZ+22
	DD	imagerel $unwind$??__Esslinit_@detail@httplib@@YAXXZ
pdata	ENDS
;	COMDAT pdata
pdata	SEGMENT
$pdata$??0Variables@Core@IronMan@@QEAA@XZ DD imagerel $LN3
	DD	imagerel $LN3+72
	DD	imagerel $unwind$??0Variables@Core@IronMan@@QEAA@XZ
pdata	ENDS
;	COMDAT pdata
pdata	SEGMENT
$pdata$?deallocate@?$allocator@PEAV?$ConfigValue@H@Core@IronMan@@@std@@QEAAXQEAPEAV?$ConfigValue@H@Core@IronMan@@_K@Z DD imagerel $LN3
	DD	imagerel $LN3+47
	DD	imagerel $unwind$?deallocate@?$allocator@PEAV?$ConfigValue@H@Core@IronMan@@@std@@QEAAXQEAPEAV?$ConfigValue@H@Core@IronMan@@_K@Z
pdata	ENDS
;	COMDAT pdata
pdata	SEGMENT
$pdata$?allocate@?$allocator@PEAV?$ConfigValue@H@Core@IronMan@@@std@@QEAAPEAPEAV?$ConfigValue@H@Core@IronMan@@_K@Z DD imagerel $LN3
	DD	imagerel $LN3+37
	DD	imagerel $unwind$?allocate@?$allocator@PEAV?$ConfigValue@H@Core@IronMan@@@std@@QEAAPEAPEAV?$ConfigValue@H@Core@IronMan@@_K@Z
pdata	ENDS
;	COMDAT pdata
pdata	SEGMENT
$pdata$?push_back@?$vector@PEAV?$ConfigValue@H@Core@IronMan@@V?$allocator@PEAV?$ConfigValue@H@Core@IronMan@@@std@@@std@@QEAAX$$QEAPEAV?$ConfigValue@H@Core@IronMan@@@Z DD imagerel $LN3
	DD	imagerel $LN3+43
	DD	imagerel $unwind$?push_back@?$vector@PEAV?$ConfigValue@H@Core@IronMan@@V?$allocator@PEAV?$ConfigValue@H@Core@IronMan@@@std@@@std@@QEAAX$$QEAPEAV?$ConfigValue@H@Core@IronMan@@@Z
pdata	ENDS
;	COMDAT pdata
pdata	SEGMENT
$pdata$?clear@?$vector@PEAV?$ConfigValue@H@Core@IronMan@@V?$allocator@PEAV?$ConfigValue@H@Core@IronMan@@@std@@@std@@QEAAXXZ DD imagerel $LN4
	DD	imagerel $LN4+155
	DD	imagerel $unwind$?clear@?$vector@PEAV?$ConfigValue@H@Core@IronMan@@V?$allocator@PEAV?$ConfigValue@H@Core@IronMan@@@std@@@std@@QEAAXXZ
pdata	ENDS
;	COMDAT pdata
pdata	SEGMENT
$pdata$?_Unchecked_begin@?$vector@PEAV?$ConfigValue@H@Core@IronMan@@V?$allocator@PEAV?$ConfigValue@H@Core@IronMan@@@std@@@std@@QEAAPEAPEAV?$ConfigValue@H@Core@IronMan@@XZ DD imagerel $LN3
	DD	imagerel $LN3+27
	DD	imagerel $unwind$?_Unchecked_begin@?$vector@PEAV?$ConfigValue@H@Core@IronMan@@V?$allocator@PEAV?$ConfigValue@H@Core@IronMan@@@std@@@std@@QEAAPEAPEAV?$ConfigValue@H@Core@IronMan@@XZ
pdata	ENDS
;	COMDAT pdata
pdata	SEGMENT
$pdata$?_Unchecked_end@?$vector@PEAV?$ConfigValue@H@Core@IronMan@@V?$allocator@PEAV?$ConfigValue@H@Core@IronMan@@@std@@@std@@QEAAPEAPEAV?$ConfigValue@H@Core@IronMan@@XZ DD imagerel $LN3
	DD	imagerel $LN3+28
	DD	imagerel $unwind$?_Unchecked_end@?$vector@PEAV?$ConfigValue@H@Core@IronMan@@V?$allocator@PEAV?$ConfigValue@H@Core@IronMan@@@std@@@std@@QEAAPEAPEAV?$ConfigValue@H@Core@IronMan@@XZ
pdata	ENDS
;	COMDAT pdata
pdata	SEGMENT
$pdata$?max_size@?$vector@PEAV?$ConfigValue@H@Core@IronMan@@V?$allocator@PEAV?$ConfigValue@H@Core@IronMan@@@std@@@std@@QEBA_KXZ DD imagerel $LN3
	DD	imagerel $LN3+65
	DD	imagerel $unwind$?max_size@?$vector@PEAV?$ConfigValue@H@Core@IronMan@@V?$allocator@PEAV?$ConfigValue@H@Core@IronMan@@@std@@@std@@QEBA_KXZ
pdata	ENDS
;	COMDAT pdata
pdata	SEGMENT
$pdata$?capacity@?$vector@PEAV?$ConfigValue@H@Core@IronMan@@V?$allocator@PEAV?$ConfigValue@H@Core@IronMan@@@std@@@std@@QEBA_KXZ DD imagerel $LN3
	DD	imagerel $LN3+45
	DD	imagerel $unwind$?capacity@?$vector@PEAV?$ConfigValue@H@Core@IronMan@@V?$allocator@PEAV?$ConfigValue@H@Core@IronMan@@@std@@@std@@QEBA_KXZ
pdata	ENDS
;	COMDAT pdata
pdata	SEGMENT
$pdata$?_Calculate_growth@?$vector@PEAV?$ConfigValue@H@Core@IronMan@@V?$allocator@PEAV?$ConfigValue@H@Core@IronMan@@@std@@@std@@AEBA_K_K@Z DD imagerel $LN5
	DD	imagerel $LN5+144
	DD	imagerel $unwind$?_Calculate_growth@?$vector@PEAV?$ConfigValue@H@Core@IronMan@@V?$allocator@PEAV?$ConfigValue@H@Core@IronMan@@@std@@@std@@AEBA_K_K@Z
pdata	ENDS
;	COMDAT pdata
pdata	SEGMENT
$pdata$?_Change_array@?$vector@PEAV?$ConfigValue@H@Core@IronMan@@V?$allocator@PEAV?$ConfigValue@H@Core@IronMan@@@std@@@std@@AEAAXQEAPEAV?$ConfigValue@H@Core@IronMan@@_K1@Z DD imagerel $LN4
	DD	imagerel $LN4+242
	DD	imagerel $unwind$?_Change_array@?$vector@PEAV?$ConfigValue@H@Core@IronMan@@V?$allocator@PEAV?$ConfigValue@H@Core@IronMan@@@std@@@std@@AEAAXQEAPEAV?$ConfigValue@H@Core@IronMan@@_K1@Z
pdata	ENDS
;	COMDAT pdata
pdata	SEGMENT
$pdata$?_Xlength@?$vector@PEAV?$ConfigValue@H@Core@IronMan@@V?$allocator@PEAV?$ConfigValue@H@Core@IronMan@@@std@@@std@@CAXXZ DD imagerel $LN3
	DD	imagerel $LN3+22
	DD	imagerel $unwind$?_Xlength@?$vector@PEAV?$ConfigValue@H@Core@IronMan@@V?$allocator@PEAV?$ConfigValue@H@Core@IronMan@@@std@@@std@@CAXXZ
pdata	ENDS
;	COMDAT pdata
pdata	SEGMENT
$pdata$?_Getal@?$vector@PEAV?$ConfigValue@H@Core@IronMan@@V?$allocator@PEAV?$ConfigValue@H@Core@IronMan@@@std@@@std@@AEAAAEAV?$allocator@PEAV?$ConfigValue@H@Core@IronMan@@@2@XZ DD imagerel $LN3
	DD	imagerel $LN3+27
	DD	imagerel $unwind$?_Getal@?$vector@PEAV?$ConfigValue@H@Core@IronMan@@V?$allocator@PEAV?$ConfigValue@H@Core@IronMan@@@std@@@std@@AEAAAEAV?$allocator@PEAV?$ConfigValue@H@Core@IronMan@@@2@XZ
pdata	ENDS
;	COMDAT pdata
pdata	SEGMENT
$pdata$?_Getal@?$vector@PEAV?$ConfigValue@H@Core@IronMan@@V?$allocator@PEAV?$ConfigValue@H@Core@IronMan@@@std@@@std@@AEBAAEBV?$allocator@PEAV?$ConfigValue@H@Core@IronMan@@@2@XZ DD imagerel $LN3
	DD	imagerel $LN3+27
	DD	imagerel $unwind$?_Getal@?$vector@PEAV?$ConfigValue@H@Core@IronMan@@V?$allocator@PEAV?$ConfigValue@H@Core@IronMan@@@std@@@std@@AEBAAEBV?$allocator@PEAV?$ConfigValue@H@Core@IronMan@@@2@XZ
pdata	ENDS
;	COMDAT pdata
pdata	SEGMENT
$pdata$?deallocate@?$allocator@PEAV?$ConfigValue@_N@Core@IronMan@@@std@@QEAAXQEAPEAV?$ConfigValue@_N@Core@IronMan@@_K@Z DD imagerel $LN3
	DD	imagerel $LN3+47
	DD	imagerel $unwind$?deallocate@?$allocator@PEAV?$ConfigValue@_N@Core@IronMan@@@std@@QEAAXQEAPEAV?$ConfigValue@_N@Core@IronMan@@_K@Z
pdata	ENDS
;	COMDAT pdata
pdata	SEGMENT
$pdata$?allocate@?$allocator@PEAV?$ConfigValue@_N@Core@IronMan@@@std@@QEAAPEAPEAV?$ConfigValue@_N@Core@IronMan@@_K@Z DD imagerel $LN3
	DD	imagerel $LN3+37
	DD	imagerel $unwind$?allocate@?$allocator@PEAV?$ConfigValue@_N@Core@IronMan@@@std@@QEAAPEAPEAV?$ConfigValue@_N@Core@IronMan@@_K@Z
pdata	ENDS
;	COMDAT pdata
pdata	SEGMENT
$pdata$?push_back@?$vector@PEAV?$ConfigValue@_N@Core@IronMan@@V?$allocator@PEAV?$ConfigValue@_N@Core@IronMan@@@std@@@std@@QEAAX$$QEAPEAV?$ConfigValue@_N@Core@IronMan@@@Z DD imagerel $LN3
	DD	imagerel $LN3+43
	DD	imagerel $unwind$?push_back@?$vector@PEAV?$ConfigValue@_N@Core@IronMan@@V?$allocator@PEAV?$ConfigValue@_N@Core@IronMan@@@std@@@std@@QEAAX$$QEAPEAV?$ConfigValue@_N@Core@IronMan@@@Z
pdata	ENDS
;	COMDAT pdata
pdata	SEGMENT
$pdata$?clear@?$vector@PEAV?$ConfigValue@_N@Core@IronMan@@V?$allocator@PEAV?$ConfigValue@_N@Core@IronMan@@@std@@@std@@QEAAXXZ DD imagerel $LN4
	DD	imagerel $LN4+155
	DD	imagerel $unwind$?clear@?$vector@PEAV?$ConfigValue@_N@Core@IronMan@@V?$allocator@PEAV?$ConfigValue@_N@Core@IronMan@@@std@@@std@@QEAAXXZ
pdata	ENDS
;	COMDAT pdata
pdata	SEGMENT
$pdata$?_Unchecked_begin@?$vector@PEAV?$ConfigValue@_N@Core@IronMan@@V?$allocator@PEAV?$ConfigValue@_N@Core@IronMan@@@std@@@std@@QEAAPEAPEAV?$ConfigValue@_N@Core@IronMan@@XZ DD imagerel $LN3
	DD	imagerel $LN3+27
	DD	imagerel $unwind$?_Unchecked_begin@?$vector@PEAV?$ConfigValue@_N@Core@IronMan@@V?$allocator@PEAV?$ConfigValue@_N@Core@IronMan@@@std@@@std@@QEAAPEAPEAV?$ConfigValue@_N@Core@IronMan@@XZ
pdata	ENDS
;	COMDAT pdata
pdata	SEGMENT
$pdata$?_Unchecked_end@?$vector@PEAV?$ConfigValue@_N@Core@IronMan@@V?$allocator@PEAV?$ConfigValue@_N@Core@IronMan@@@std@@@std@@QEAAPEAPEAV?$ConfigValue@_N@Core@IronMan@@XZ DD imagerel $LN3
	DD	imagerel $LN3+28
	DD	imagerel $unwind$?_Unchecked_end@?$vector@PEAV?$ConfigValue@_N@Core@IronMan@@V?$allocator@PEAV?$ConfigValue@_N@Core@IronMan@@@std@@@std@@QEAAPEAPEAV?$ConfigValue@_N@Core@IronMan@@XZ
pdata	ENDS
;	COMDAT pdata
pdata	SEGMENT
$pdata$?max_size@?$vector@PEAV?$ConfigValue@_N@Core@IronMan@@V?$allocator@PEAV?$ConfigValue@_N@Core@IronMan@@@std@@@std@@QEBA_KXZ DD imagerel $LN3
	DD	imagerel $LN3+65
	DD	imagerel $unwind$?max_size@?$vector@PEAV?$ConfigValue@_N@Core@IronMan@@V?$allocator@PEAV?$ConfigValue@_N@Core@IronMan@@@std@@@std@@QEBA_KXZ
pdata	ENDS
;	COMDAT pdata
pdata	SEGMENT
$pdata$?capacity@?$vector@PEAV?$ConfigValue@_N@Core@IronMan@@V?$allocator@PEAV?$ConfigValue@_N@Core@IronMan@@@std@@@std@@QEBA_KXZ DD imagerel $LN3
	DD	imagerel $LN3+45
	DD	imagerel $unwind$?capacity@?$vector@PEAV?$ConfigValue@_N@Core@IronMan@@V?$allocator@PEAV?$ConfigValue@_N@Core@IronMan@@@std@@@std@@QEBA_KXZ
pdata	ENDS
;	COMDAT pdata
pdata	SEGMENT
$pdata$?_Calculate_growth@?$vector@PEAV?$ConfigValue@_N@Core@IronMan@@V?$allocator@PEAV?$ConfigValue@_N@Core@IronMan@@@std@@@std@@AEBA_K_K@Z DD imagerel $LN5
	DD	imagerel $LN5+144
	DD	imagerel $unwind$?_Calculate_growth@?$vector@PEAV?$ConfigValue@_N@Core@IronMan@@V?$allocator@PEAV?$ConfigValue@_N@Core@IronMan@@@std@@@std@@AEBA_K_K@Z
pdata	ENDS
;	COMDAT pdata
pdata	SEGMENT
$pdata$?_Change_array@?$vector@PEAV?$ConfigValue@_N@Core@IronMan@@V?$allocator@PEAV?$ConfigValue@_N@Core@IronMan@@@std@@@std@@AEAAXQEAPEAV?$ConfigValue@_N@Core@IronMan@@_K1@Z DD imagerel $LN4
	DD	imagerel $LN4+242
	DD	imagerel $unwind$?_Change_array@?$vector@PEAV?$ConfigValue@_N@Core@IronMan@@V?$allocator@PEAV?$ConfigValue@_N@Core@IronMan@@@std@@@std@@AEAAXQEAPEAV?$ConfigValue@_N@Core@IronMan@@_K1@Z
pdata	ENDS
;	COMDAT pdata
pdata	SEGMENT
$pdata$?_Xlength@?$vector@PEAV?$ConfigValue@_N@Core@IronMan@@V?$allocator@PEAV?$ConfigValue@_N@Core@IronMan@@@std@@@std@@CAXXZ DD imagerel $LN3
	DD	imagerel $LN3+22
	DD	imagerel $unwind$?_Xlength@?$vector@PEAV?$ConfigValue@_N@Core@IronMan@@V?$allocator@PEAV?$ConfigValue@_N@Core@IronMan@@@std@@@std@@CAXXZ
pdata	ENDS
;	COMDAT pdata
pdata	SEGMENT
$pdata$?_Getal@?$vector@PEAV?$ConfigValue@_N@Core@IronMan@@V?$allocator@PEAV?$ConfigValue@_N@Core@IronMan@@@std@@@std@@AEAAAEAV?$allocator@PEAV?$ConfigValue@_N@Core@IronMan@@@2@XZ DD imagerel $LN3
	DD	imagerel $LN3+27
	DD	imagerel $unwind$?_Getal@?$vector@PEAV?$ConfigValue@_N@Core@IronMan@@V?$allocator@PEAV?$ConfigValue@_N@Core@IronMan@@@std@@@std@@AEAAAEAV?$allocator@PEAV?$ConfigValue@_N@Core@IronMan@@@2@XZ
pdata	ENDS
;	COMDAT pdata
pdata	SEGMENT
$pdata$?_Getal@?$vector@PEAV?$ConfigValue@_N@Core@IronMan@@V?$allocator@PEAV?$ConfigValue@_N@Core@IronMan@@@std@@@std@@AEBAAEBV?$allocator@PEAV?$ConfigValue@_N@Core@IronMan@@@2@XZ DD imagerel $LN3
	DD	imagerel $LN3+27
	DD	imagerel $unwind$?_Getal@?$vector@PEAV?$ConfigValue@_N@Core@IronMan@@V?$allocator@PEAV?$ConfigValue@_N@Core@IronMan@@@std@@@std@@AEBAAEBV?$allocator@PEAV?$ConfigValue@_N@Core@IronMan@@@2@XZ
pdata	ENDS
;	COMDAT pdata
pdata	SEGMENT
$pdata$?deallocate@?$allocator@PEAV?$ConfigValue@M@Core@IronMan@@@std@@QEAAXQEAPEAV?$ConfigValue@M@Core@IronMan@@_K@Z DD imagerel $LN3
	DD	imagerel $LN3+47
	DD	imagerel $unwind$?deallocate@?$allocator@PEAV?$ConfigValue@M@Core@IronMan@@@std@@QEAAXQEAPEAV?$ConfigValue@M@Core@IronMan@@_K@Z
pdata	ENDS
;	COMDAT pdata
pdata	SEGMENT
$pdata$?allocate@?$allocator@PEAV?$ConfigValue@M@Core@IronMan@@@std@@QEAAPEAPEAV?$ConfigValue@M@Core@IronMan@@_K@Z DD imagerel $LN3
	DD	imagerel $LN3+37
	DD	imagerel $unwind$?allocate@?$allocator@PEAV?$ConfigValue@M@Core@IronMan@@@std@@QEAAPEAPEAV?$ConfigValue@M@Core@IronMan@@_K@Z
pdata	ENDS
;	COMDAT pdata
pdata	SEGMENT
$pdata$?push_back@?$vector@PEAV?$ConfigValue@M@Core@IronMan@@V?$allocator@PEAV?$ConfigValue@M@Core@IronMan@@@std@@@std@@QEAAX$$QEAPEAV?$ConfigValue@M@Core@IronMan@@@Z DD imagerel $LN3
	DD	imagerel $LN3+43
	DD	imagerel $unwind$?push_back@?$vector@PEAV?$ConfigValue@M@Core@IronMan@@V?$allocator@PEAV?$ConfigValue@M@Core@IronMan@@@std@@@std@@QEAAX$$QEAPEAV?$ConfigValue@M@Core@IronMan@@@Z
pdata	ENDS
;	COMDAT pdata
pdata	SEGMENT
$pdata$?clear@?$vector@PEAV?$ConfigValue@M@Core@IronMan@@V?$allocator@PEAV?$ConfigValue@M@Core@IronMan@@@std@@@std@@QEAAXXZ DD imagerel $LN4
	DD	imagerel $LN4+155
	DD	imagerel $unwind$?clear@?$vector@PEAV?$ConfigValue@M@Core@IronMan@@V?$allocator@PEAV?$ConfigValue@M@Core@IronMan@@@std@@@std@@QEAAXXZ
pdata	ENDS
;	COMDAT pdata
pdata	SEGMENT
$pdata$?_Unchecked_begin@?$vector@PEAV?$ConfigValue@M@Core@IronMan@@V?$allocator@PEAV?$ConfigValue@M@Core@IronMan@@@std@@@std@@QEAAPEAPEAV?$ConfigValue@M@Core@IronMan@@XZ DD imagerel $LN3
	DD	imagerel $LN3+27
	DD	imagerel $unwind$?_Unchecked_begin@?$vector@PEAV?$ConfigValue@M@Core@IronMan@@V?$allocator@PEAV?$ConfigValue@M@Core@IronMan@@@std@@@std@@QEAAPEAPEAV?$ConfigValue@M@Core@IronMan@@XZ
pdata	ENDS
;	COMDAT pdata
pdata	SEGMENT
$pdata$?_Unchecked_end@?$vector@PEAV?$ConfigValue@M@Core@IronMan@@V?$allocator@PEAV?$ConfigValue@M@Core@IronMan@@@std@@@std@@QEAAPEAPEAV?$ConfigValue@M@Core@IronMan@@XZ DD imagerel $LN3
	DD	imagerel $LN3+28
	DD	imagerel $unwind$?_Unchecked_end@?$vector@PEAV?$ConfigValue@M@Core@IronMan@@V?$allocator@PEAV?$ConfigValue@M@Core@IronMan@@@std@@@std@@QEAAPEAPEAV?$ConfigValue@M@Core@IronMan@@XZ
pdata	ENDS
;	COMDAT pdata
pdata	SEGMENT
$pdata$?max_size@?$vector@PEAV?$ConfigValue@M@Core@IronMan@@V?$allocator@PEAV?$ConfigValue@M@Core@IronMan@@@std@@@std@@QEBA_KXZ DD imagerel $LN3
	DD	imagerel $LN3+65
	DD	imagerel $unwind$?max_size@?$vector@PEAV?$ConfigValue@M@Core@IronMan@@V?$allocator@PEAV?$ConfigValue@M@Core@IronMan@@@std@@@std@@QEBA_KXZ
pdata	ENDS
;	COMDAT pdata
pdata	SEGMENT
$pdata$?capacity@?$vector@PEAV?$ConfigValue@M@Core@IronMan@@V?$allocator@PEAV?$ConfigValue@M@Core@IronMan@@@std@@@std@@QEBA_KXZ DD imagerel $LN3
	DD	imagerel $LN3+45
	DD	imagerel $unwind$?capacity@?$vector@PEAV?$ConfigValue@M@Core@IronMan@@V?$allocator@PEAV?$ConfigValue@M@Core@IronMan@@@std@@@std@@QEBA_KXZ
pdata	ENDS
;	COMDAT pdata
pdata	SEGMENT
$pdata$?_Calculate_growth@?$vector@PEAV?$ConfigValue@M@Core@IronMan@@V?$allocator@PEAV?$ConfigValue@M@Core@IronMan@@@std@@@std@@AEBA_K_K@Z DD imagerel $LN5
	DD	imagerel $LN5+144
	DD	imagerel $unwind$?_Calculate_growth@?$vector@PEAV?$ConfigValue@M@Core@IronMan@@V?$allocator@PEAV?$ConfigValue@M@Core@IronMan@@@std@@@std@@AEBA_K_K@Z
pdata	ENDS
;	COMDAT pdata
pdata	SEGMENT
$pdata$?_Change_array@?$vector@PEAV?$ConfigValue@M@Core@IronMan@@V?$allocator@PEAV?$ConfigValue@M@Core@IronMan@@@std@@@std@@AEAAXQEAPEAV?$ConfigValue@M@Core@IronMan@@_K1@Z DD imagerel $LN4
	DD	imagerel $LN4+242
	DD	imagerel $unwind$?_Change_array@?$vector@PEAV?$ConfigValue@M@Core@IronMan@@V?$allocator@PEAV?$ConfigValue@M@Core@IronMan@@@std@@@std@@AEAAXQEAPEAV?$ConfigValue@M@Core@IronMan@@_K1@Z
pdata	ENDS
;	COMDAT pdata
pdata	SEGMENT
$pdata$?_Xlength@?$vector@PEAV?$ConfigValue@M@Core@IronMan@@V?$allocator@PEAV?$ConfigValue@M@Core@IronMan@@@std@@@std@@CAXXZ DD imagerel $LN3
	DD	imagerel $LN3+22
	DD	imagerel $unwind$?_Xlength@?$vector@PEAV?$ConfigValue@M@Core@IronMan@@V?$allocator@PEAV?$ConfigValue@M@Core@IronMan@@@std@@@std@@CAXXZ
pdata	ENDS
;	COMDAT pdata
pdata	SEGMENT
$pdata$?_Getal@?$vector@PEAV?$ConfigValue@M@Core@IronMan@@V?$allocator@PEAV?$ConfigValue@M@Core@IronMan@@@std@@@std@@AEAAAEAV?$allocator@PEAV?$ConfigValue@M@Core@IronMan@@@2@XZ DD imagerel $LN3
	DD	imagerel $LN3+27
	DD	imagerel $unwind$?_Getal@?$vector@PEAV?$ConfigValue@M@Core@IronMan@@V?$allocator@PEAV?$ConfigValue@M@Core@IronMan@@@std@@@std@@AEAAAEAV?$allocator@PEAV?$ConfigValue@M@Core@IronMan@@@2@XZ
pdata	ENDS
;	COMDAT pdata
pdata	SEGMENT
$pdata$?_Getal@?$vector@PEAV?$ConfigValue@M@Core@IronMan@@V?$allocator@PEAV?$ConfigValue@M@Core@IronMan@@@std@@@std@@AEBAAEBV?$allocator@PEAV?$ConfigValue@M@Core@IronMan@@@2@XZ DD imagerel $LN3
	DD	imagerel $LN3+27
	DD	imagerel $unwind$?_Getal@?$vector@PEAV?$ConfigValue@M@Core@IronMan@@V?$allocator@PEAV?$ConfigValue@M@Core@IronMan@@@std@@@std@@AEBAAEBV?$allocator@PEAV?$ConfigValue@M@Core@IronMan@@@2@XZ
pdata	ENDS
;	COMDAT pdata
pdata	SEGMENT
$pdata$?deallocate@?$allocator@PEAV?$ConfigValue@PEAD@Core@IronMan@@@std@@QEAAXQEAPEAV?$ConfigValue@PEAD@Core@IronMan@@_K@Z DD imagerel $LN3
	DD	imagerel $LN3+47
	DD	imagerel $unwind$?deallocate@?$allocator@PEAV?$ConfigValue@PEAD@Core@IronMan@@@std@@QEAAXQEAPEAV?$ConfigValue@PEAD@Core@IronMan@@_K@Z
pdata	ENDS
;	COMDAT pdata
pdata	SEGMENT
$pdata$?allocate@?$allocator@PEAV?$ConfigValue@PEAD@Core@IronMan@@@std@@QEAAPEAPEAV?$ConfigValue@PEAD@Core@IronMan@@_K@Z DD imagerel $LN3
	DD	imagerel $LN3+37
	DD	imagerel $unwind$?allocate@?$allocator@PEAV?$ConfigValue@PEAD@Core@IronMan@@@std@@QEAAPEAPEAV?$ConfigValue@PEAD@Core@IronMan@@_K@Z
pdata	ENDS
;	COMDAT pdata
pdata	SEGMENT
$pdata$?push_back@?$vector@PEAV?$ConfigValue@PEAD@Core@IronMan@@V?$allocator@PEAV?$ConfigValue@PEAD@Core@IronMan@@@std@@@std@@QEAAX$$QEAPEAV?$ConfigValue@PEAD@Core@IronMan@@@Z DD imagerel $LN3
	DD	imagerel $LN3+43
	DD	imagerel $unwind$?push_back@?$vector@PEAV?$ConfigValue@PEAD@Core@IronMan@@V?$allocator@PEAV?$ConfigValue@PEAD@Core@IronMan@@@std@@@std@@QEAAX$$QEAPEAV?$ConfigValue@PEAD@Core@IronMan@@@Z
pdata	ENDS
;	COMDAT pdata
pdata	SEGMENT
$pdata$?_Unchecked_begin@?$vector@PEAV?$ConfigValue@PEAD@Core@IronMan@@V?$allocator@PEAV?$ConfigValue@PEAD@Core@IronMan@@@std@@@std@@QEAAPEAPEAV?$ConfigValue@PEAD@Core@IronMan@@XZ DD imagerel $LN3
	DD	imagerel $LN3+27
	DD	imagerel $unwind$?_Unchecked_begin@?$vector@PEAV?$ConfigValue@PEAD@Core@IronMan@@V?$allocator@PEAV?$ConfigValue@PEAD@Core@IronMan@@@std@@@std@@QEAAPEAPEAV?$ConfigValue@PEAD@Core@IronMan@@XZ
pdata	ENDS
;	COMDAT pdata
pdata	SEGMENT
$pdata$?_Unchecked_end@?$vector@PEAV?$ConfigValue@PEAD@Core@IronMan@@V?$allocator@PEAV?$ConfigValue@PEAD@Core@IronMan@@@std@@@std@@QEAAPEAPEAV?$ConfigValue@PEAD@Core@IronMan@@XZ DD imagerel $LN3
	DD	imagerel $LN3+28
	DD	imagerel $unwind$?_Unchecked_end@?$vector@PEAV?$ConfigValue@PEAD@Core@IronMan@@V?$allocator@PEAV?$ConfigValue@PEAD@Core@IronMan@@@std@@@std@@QEAAPEAPEAV?$ConfigValue@PEAD@Core@IronMan@@XZ
pdata	ENDS
;	COMDAT pdata
pdata	SEGMENT
$pdata$?max_size@?$vector@PEAV?$ConfigValue@PEAD@Core@IronMan@@V?$allocator@PEAV?$ConfigValue@PEAD@Core@IronMan@@@std@@@std@@QEBA_KXZ DD imagerel $LN3
	DD	imagerel $LN3+65
	DD	imagerel $unwind$?max_size@?$vector@PEAV?$ConfigValue@PEAD@Core@IronMan@@V?$allocator@PEAV?$ConfigValue@PEAD@Core@IronMan@@@std@@@std@@QEBA_KXZ
pdata	ENDS
;	COMDAT pdata
pdata	SEGMENT
$pdata$?capacity@?$vector@PEAV?$ConfigValue@PEAD@Core@IronMan@@V?$allocator@PEAV?$ConfigValue@PEAD@Core@IronMan@@@std@@@std@@QEBA_KXZ DD imagerel $LN3
	DD	imagerel $LN3+45
	DD	imagerel $unwind$?capacity@?$vector@PEAV?$ConfigValue@PEAD@Core@IronMan@@V?$allocator@PEAV?$ConfigValue@PEAD@Core@IronMan@@@std@@@std@@QEBA_KXZ
pdata	ENDS
;	COMDAT pdata
pdata	SEGMENT
$pdata$?_Calculate_growth@?$vector@PEAV?$ConfigValue@PEAD@Core@IronMan@@V?$allocator@PEAV?$ConfigValue@PEAD@Core@IronMan@@@std@@@std@@AEBA_K_K@Z DD imagerel $LN5
	DD	imagerel $LN5+144
	DD	imagerel $unwind$?_Calculate_growth@?$vector@PEAV?$ConfigValue@PEAD@Core@IronMan@@V?$allocator@PEAV?$ConfigValue@PEAD@Core@IronMan@@@std@@@std@@AEBA_K_K@Z
pdata	ENDS
;	COMDAT pdata
pdata	SEGMENT
$pdata$?_Change_array@?$vector@PEAV?$ConfigValue@PEAD@Core@IronMan@@V?$allocator@PEAV?$ConfigValue@PEAD@Core@IronMan@@@std@@@std@@AEAAXQEAPEAV?$ConfigValue@PEAD@Core@IronMan@@_K1@Z DD imagerel $LN4
	DD	imagerel $LN4+242
	DD	imagerel $unwind$?_Change_array@?$vector@PEAV?$ConfigValue@PEAD@Core@IronMan@@V?$allocator@PEAV?$ConfigValue@PEAD@Core@IronMan@@@std@@@std@@AEAAXQEAPEAV?$ConfigValue@PEAD@Core@IronMan@@_K1@Z
pdata	ENDS
;	COMDAT pdata
pdata	SEGMENT
$pdata$?_Xlength@?$vector@PEAV?$ConfigValue@PEAD@Core@IronMan@@V?$allocator@PEAV?$ConfigValue@PEAD@Core@IronMan@@@std@@@std@@CAXXZ DD imagerel $LN3
	DD	imagerel $LN3+22
	DD	imagerel $unwind$?_Xlength@?$vector@PEAV?$ConfigValue@PEAD@Core@IronMan@@V?$allocator@PEAV?$ConfigValue@PEAD@Core@IronMan@@@std@@@std@@CAXXZ
pdata	ENDS
;	COMDAT pdata
pdata	SEGMENT
$pdata$?_Getal@?$vector@PEAV?$ConfigValue@PEAD@Core@IronMan@@V?$allocator@PEAV?$ConfigValue@PEAD@Core@IronMan@@@std@@@std@@AEAAAEAV?$allocator@PEAV?$ConfigValue@PEAD@Core@IronMan@@@2@XZ DD imagerel $LN3
	DD	imagerel $LN3+27
	DD	imagerel $unwind$?_Getal@?$vector@PEAV?$ConfigValue@PEAD@Core@IronMan@@V?$allocator@PEAV?$ConfigValue@PEAD@Core@IronMan@@@std@@@std@@AEAAAEAV?$allocator@PEAV?$ConfigValue@PEAD@Core@IronMan@@@2@XZ
pdata	ENDS
;	COMDAT pdata
pdata	SEGMENT
$pdata$?_Getal@?$vector@PEAV?$ConfigValue@PEAD@Core@IronMan@@V?$allocator@PEAV?$ConfigValue@PEAD@Core@IronMan@@@std@@@std@@AEBAAEBV?$allocator@PEAV?$ConfigValue@PEAD@Core@IronMan@@@2@XZ DD imagerel $LN3
	DD	imagerel $LN3+27
	DD	imagerel $unwind$?_Getal@?$vector@PEAV?$ConfigValue@PEAD@Core@IronMan@@V?$allocator@PEAV?$ConfigValue@PEAD@Core@IronMan@@@std@@@std@@AEBAAEBV?$allocator@PEAV?$ConfigValue@PEAD@Core@IronMan@@@2@XZ
pdata	ENDS
;	COMDAT pdata
pdata	SEGMENT
$pdata$?deallocate@?$allocator@PEAV?$ConfigValue@E@Core@IronMan@@@std@@QEAAXQEAPEAV?$ConfigValue@E@Core@IronMan@@_K@Z DD imagerel $LN3
	DD	imagerel $LN3+47
	DD	imagerel $unwind$?deallocate@?$allocator@PEAV?$ConfigValue@E@Core@IronMan@@@std@@QEAAXQEAPEAV?$ConfigValue@E@Core@IronMan@@_K@Z
pdata	ENDS
;	COMDAT pdata
pdata	SEGMENT
$pdata$?allocate@?$allocator@PEAV?$ConfigValue@E@Core@IronMan@@@std@@QEAAPEAPEAV?$ConfigValue@E@Core@IronMan@@_K@Z DD imagerel $LN3
	DD	imagerel $LN3+37
	DD	imagerel $unwind$?allocate@?$allocator@PEAV?$ConfigValue@E@Core@IronMan@@@std@@QEAAPEAPEAV?$ConfigValue@E@Core@IronMan@@_K@Z
pdata	ENDS
;	COMDAT pdata
pdata	SEGMENT
$pdata$?push_back@?$vector@PEAV?$ConfigValue@E@Core@IronMan@@V?$allocator@PEAV?$ConfigValue@E@Core@IronMan@@@std@@@std@@QEAAX$$QEAPEAV?$ConfigValue@E@Core@IronMan@@@Z DD imagerel $LN3
	DD	imagerel $LN3+43
	DD	imagerel $unwind$?push_back@?$vector@PEAV?$ConfigValue@E@Core@IronMan@@V?$allocator@PEAV?$ConfigValue@E@Core@IronMan@@@std@@@std@@QEAAX$$QEAPEAV?$ConfigValue@E@Core@IronMan@@@Z
pdata	ENDS
;	COMDAT pdata
pdata	SEGMENT
$pdata$?clear@?$vector@PEAV?$ConfigValue@E@Core@IronMan@@V?$allocator@PEAV?$ConfigValue@E@Core@IronMan@@@std@@@std@@QEAAXXZ DD imagerel $LN4
	DD	imagerel $LN4+155
	DD	imagerel $unwind$?clear@?$vector@PEAV?$ConfigValue@E@Core@IronMan@@V?$allocator@PEAV?$ConfigValue@E@Core@IronMan@@@std@@@std@@QEAAXXZ
pdata	ENDS
;	COMDAT pdata
pdata	SEGMENT
$pdata$?_Unchecked_begin@?$vector@PEAV?$ConfigValue@E@Core@IronMan@@V?$allocator@PEAV?$ConfigValue@E@Core@IronMan@@@std@@@std@@QEAAPEAPEAV?$ConfigValue@E@Core@IronMan@@XZ DD imagerel $LN3
	DD	imagerel $LN3+27
	DD	imagerel $unwind$?_Unchecked_begin@?$vector@PEAV?$ConfigValue@E@Core@IronMan@@V?$allocator@PEAV?$ConfigValue@E@Core@IronMan@@@std@@@std@@QEAAPEAPEAV?$ConfigValue@E@Core@IronMan@@XZ
pdata	ENDS
;	COMDAT pdata
pdata	SEGMENT
$pdata$?_Unchecked_end@?$vector@PEAV?$ConfigValue@E@Core@IronMan@@V?$allocator@PEAV?$ConfigValue@E@Core@IronMan@@@std@@@std@@QEAAPEAPEAV?$ConfigValue@E@Core@IronMan@@XZ DD imagerel $LN3
	DD	imagerel $LN3+28
	DD	imagerel $unwind$?_Unchecked_end@?$vector@PEAV?$ConfigValue@E@Core@IronMan@@V?$allocator@PEAV?$ConfigValue@E@Core@IronMan@@@std@@@std@@QEAAPEAPEAV?$ConfigValue@E@Core@IronMan@@XZ
pdata	ENDS
;	COMDAT pdata
pdata	SEGMENT
$pdata$?max_size@?$vector@PEAV?$ConfigValue@E@Core@IronMan@@V?$allocator@PEAV?$ConfigValue@E@Core@IronMan@@@std@@@std@@QEBA_KXZ DD imagerel $LN3
	DD	imagerel $LN3+65
	DD	imagerel $unwind$?max_size@?$vector@PEAV?$ConfigValue@E@Core@IronMan@@V?$allocator@PEAV?$ConfigValue@E@Core@IronMan@@@std@@@std@@QEBA_KXZ
pdata	ENDS
;	COMDAT pdata
pdata	SEGMENT
$pdata$?capacity@?$vector@PEAV?$ConfigValue@E@Core@IronMan@@V?$allocator@PEAV?$ConfigValue@E@Core@IronMan@@@std@@@std@@QEBA_KXZ DD imagerel $LN3
	DD	imagerel $LN3+45
	DD	imagerel $unwind$?capacity@?$vector@PEAV?$ConfigValue@E@Core@IronMan@@V?$allocator@PEAV?$ConfigValue@E@Core@IronMan@@@std@@@std@@QEBA_KXZ
pdata	ENDS
;	COMDAT pdata
pdata	SEGMENT
$pdata$?_Calculate_growth@?$vector@PEAV?$ConfigValue@E@Core@IronMan@@V?$allocator@PEAV?$ConfigValue@E@Core@IronMan@@@std@@@std@@AEBA_K_K@Z DD imagerel $LN5
	DD	imagerel $LN5+144
	DD	imagerel $unwind$?_Calculate_growth@?$vector@PEAV?$ConfigValue@E@Core@IronMan@@V?$allocator@PEAV?$ConfigValue@E@Core@IronMan@@@std@@@std@@AEBA_K_K@Z
pdata	ENDS
;	COMDAT pdata
pdata	SEGMENT
$pdata$?_Change_array@?$vector@PEAV?$ConfigValue@E@Core@IronMan@@V?$allocator@PEAV?$ConfigValue@E@Core@IronMan@@@std@@@std@@AEAAXQEAPEAV?$ConfigValue@E@Core@IronMan@@_K1@Z DD imagerel $LN4
	DD	imagerel $LN4+242
	DD	imagerel $unwind$?_Change_array@?$vector@PEAV?$ConfigValue@E@Core@IronMan@@V?$allocator@PEAV?$ConfigValue@E@Core@IronMan@@@std@@@std@@AEAAXQEAPEAV?$ConfigValue@E@Core@IronMan@@_K1@Z
pdata	ENDS
;	COMDAT pdata
pdata	SEGMENT
$pdata$?_Xlength@?$vector@PEAV?$ConfigValue@E@Core@IronMan@@V?$allocator@PEAV?$ConfigValue@E@Core@IronMan@@@std@@@std@@CAXXZ DD imagerel $LN3
	DD	imagerel $LN3+22
	DD	imagerel $unwind$?_Xlength@?$vector@PEAV?$ConfigValue@E@Core@IronMan@@V?$allocator@PEAV?$ConfigValue@E@Core@IronMan@@@std@@@std@@CAXXZ
pdata	ENDS
;	COMDAT pdata
pdata	SEGMENT
$pdata$?_Getal@?$vector@PEAV?$ConfigValue@E@Core@IronMan@@V?$allocator@PEAV?$ConfigValue@E@Core@IronMan@@@std@@@std@@AEAAAEAV?$allocator@PEAV?$ConfigValue@E@Core@IronMan@@@2@XZ DD imagerel $LN3
	DD	imagerel $LN3+27
	DD	imagerel $unwind$?_Getal@?$vector@PEAV?$ConfigValue@E@Core@IronMan@@V?$allocator@PEAV?$ConfigValue@E@Core@IronMan@@@std@@@std@@AEAAAEAV?$allocator@PEAV?$ConfigValue@E@Core@IronMan@@@2@XZ
pdata	ENDS
;	COMDAT pdata
pdata	SEGMENT
$pdata$?_Getal@?$vector@PEAV?$ConfigValue@E@Core@IronMan@@V?$allocator@PEAV?$ConfigValue@E@Core@IronMan@@@std@@@std@@AEBAAEBV?$allocator@PEAV?$ConfigValue@E@Core@IronMan@@@2@XZ DD imagerel $LN3
	DD	imagerel $LN3+27
	DD	imagerel $unwind$?_Getal@?$vector@PEAV?$ConfigValue@E@Core@IronMan@@V?$allocator@PEAV?$ConfigValue@E@Core@IronMan@@@std@@@std@@AEBAAEBV?$allocator@PEAV?$ConfigValue@E@Core@IronMan@@@2@XZ
pdata	ENDS
pdata	SEGMENT
$pdata$?SetupValue@CConfig@Core@IronMan@@AEAAXAEAHH_K1@Z DD imagerel $LN6
	DD	imagerel $LN6+153
	DD	imagerel $unwind$?SetupValue@CConfig@Core@IronMan@@AEAAXAEAHH_K1@Z
pdata	ENDS
pdata	SEGMENT
$pdata$?dtor$0@?0??SetupValue@CConfig@Core@IronMan@@AEAAXAEAHH_K1@Z@4HA DD imagerel ?dtor$0@?0??SetupValue@CConfig@Core@IronMan@@AEAAXAEAHH_K1@Z@4HA
	DD	imagerel ?dtor$0@?0??SetupValue@CConfig@Core@IronMan@@AEAAXAEAHH_K1@Z@4HA+29
	DD	imagerel $unwind$?dtor$0@?0??SetupValue@CConfig@Core@IronMan@@AEAAXAEAHH_K1@Z@4HA
pdata	ENDS
pdata	SEGMENT
$pdata$?SetupValue@CConfig@Core@IronMan@@AEAAXAEA_N_N_K2@Z DD imagerel $LN6
	DD	imagerel $LN6+158
	DD	imagerel $unwind$?SetupValue@CConfig@Core@IronMan@@AEAAXAEA_N_N_K2@Z
pdata	ENDS
pdata	SEGMENT
$pdata$?dtor$0@?0??SetupValue@CConfig@Core@IronMan@@AEAAXAEA_N_N_K2@Z@4HA DD imagerel ?dtor$0@?0??SetupValue@CConfig@Core@IronMan@@AEAAXAEA_N_N_K2@Z@4HA
	DD	imagerel ?dtor$0@?0??SetupValue@CConfig@Core@IronMan@@AEAAXAEA_N_N_K2@Z@4HA+29
	DD	imagerel $unwind$?dtor$0@?0??SetupValue@CConfig@Core@IronMan@@AEAAXAEA_N_N_K2@Z@4HA
pdata	ENDS
pdata	SEGMENT
$pdata$?SetupValue@CConfig@Core@IronMan@@AEAAXAEAMM_K1@Z DD imagerel $LN6
	DD	imagerel $LN6+162
	DD	imagerel $unwind$?SetupValue@CConfig@Core@IronMan@@AEAAXAEAMM_K1@Z
pdata	ENDS
pdata	SEGMENT
$pdata$?dtor$0@?0??SetupValue@CConfig@Core@IronMan@@AEAAXAEAMM_K1@Z@4HA DD imagerel ?dtor$0@?0??SetupValue@CConfig@Core@IronMan@@AEAAXAEAMM_K1@Z@4HA
	DD	imagerel ?dtor$0@?0??SetupValue@CConfig@Core@IronMan@@AEAAXAEAMM_K1@Z@4HA+29
	DD	imagerel $unwind$?dtor$0@?0??SetupValue@CConfig@Core@IronMan@@AEAAXAEAMM_K1@Z@4HA
pdata	ENDS
pdata	SEGMENT
$pdata$?SetupValue@CConfig@Core@IronMan@@AEAAXPEAMV?$vector@MV?$allocator@M@std@@@std@@_K2@Z DD imagerel $LN9
	DD	imagerel $LN9+346
	DD	imagerel $unwind$?SetupValue@CConfig@Core@IronMan@@AEAAXPEAMV?$vector@MV?$allocator@M@std@@@std@@_K2@Z
pdata	ENDS
pdata	SEGMENT
$pdata$?dtor$0@?0??SetupValue@CConfig@Core@IronMan@@AEAAXPEAMV?$vector@MV?$allocator@M@std@@@std@@_K2@Z@4HA DD imagerel ?dtor$0@?0??SetupValue@CConfig@Core@IronMan@@AEAAXPEAMV?$vector@MV?$allocator@M@std@@@std@@_K2@Z@4HA
	DD	imagerel ?dtor$0@?0??SetupValue@CConfig@Core@IronMan@@AEAAXPEAMV?$vector@MV?$allocator@M@std@@@std@@_K2@Z@4HA+24
	DD	imagerel $unwind$?dtor$0@?0??SetupValue@CConfig@Core@IronMan@@AEAAXPEAMV?$vector@MV?$allocator@M@std@@@std@@_K2@Z@4HA
$pdata$?dtor$1@?0??SetupValue@CConfig@Core@IronMan@@AEAAXPEAMV?$vector@MV?$allocator@M@std@@@std@@_K2@Z@4HA DD imagerel ?dtor$1@?0??SetupValue@CConfig@Core@IronMan@@AEAAXPEAMV?$vector@MV?$allocator@M@std@@@std@@_K2@Z@4HA
	DD	imagerel ?dtor$1@?0??SetupValue@CConfig@Core@IronMan@@AEAAXPEAMV?$vector@MV?$allocator@M@std@@@std@@_K2@Z@4HA+29
	DD	imagerel $unwind$?dtor$1@?0??SetupValue@CConfig@Core@IronMan@@AEAAXPEAMV?$vector@MV?$allocator@M@std@@@std@@_K2@Z@4HA
pdata	ENDS
pdata	SEGMENT
$pdata$?SetupValue@CConfig@Core@IronMan@@AEAAXAEAPEADPEAX_K2@Z DD imagerel $LN6
	DD	imagerel $LN6+165
	DD	imagerel $unwind$?SetupValue@CConfig@Core@IronMan@@AEAAXAEAPEADPEAX_K2@Z
pdata	ENDS
pdata	SEGMENT
$pdata$?dtor$0@?0??SetupValue@CConfig@Core@IronMan@@AEAAXAEAPEADPEAX_K2@Z@4HA DD imagerel ?dtor$0@?0??SetupValue@CConfig@Core@IronMan@@AEAAXAEAPEADPEAX_K2@Z@4HA
	DD	imagerel ?dtor$0@?0??SetupValue@CConfig@Core@IronMan@@AEAAXAEAPEADPEAX_K2@Z@4HA+29
	DD	imagerel $unwind$?dtor$0@?0??SetupValue@CConfig@Core@IronMan@@AEAAXAEAPEADPEAX_K2@Z@4HA
pdata	ENDS
pdata	SEGMENT
$pdata$?SetupValue@CConfig@Core@IronMan@@AEAAXPEAEV?$vector@EV?$allocator@E@std@@@std@@_K2@Z DD imagerel $LN12
	DD	imagerel $LN12+300
	DD	imagerel $unwind$?SetupValue@CConfig@Core@IronMan@@AEAAXPEAEV?$vector@EV?$allocator@E@std@@@std@@_K2@Z
pdata	ENDS
pdata	SEGMENT
$pdata$?dtor$0@?0??SetupValue@CConfig@Core@IronMan@@AEAAXPEAEV?$vector@EV?$allocator@E@std@@@std@@_K2@Z@4HA DD imagerel ?dtor$0@?0??SetupValue@CConfig@Core@IronMan@@AEAAXPEAEV?$vector@EV?$allocator@E@std@@@std@@_K2@Z@4HA
	DD	imagerel ?dtor$0@?0??SetupValue@CConfig@Core@IronMan@@AEAAXPEAEV?$vector@EV?$allocator@E@std@@@std@@_K2@Z@4HA+27
	DD	imagerel $unwind$?dtor$0@?0??SetupValue@CConfig@Core@IronMan@@AEAAXPEAEV?$vector@EV?$allocator@E@std@@@std@@_K2@Z@4HA
$pdata$?dtor$1@?0??SetupValue@CConfig@Core@IronMan@@AEAAXPEAEV?$vector@EV?$allocator@E@std@@@std@@_K2@Z@4HA DD imagerel ?dtor$1@?0??SetupValue@CConfig@Core@IronMan@@AEAAXPEAEV?$vector@EV?$allocator@E@std@@@std@@_K2@Z@4HA
	DD	imagerel ?dtor$1@?0??SetupValue@CConfig@Core@IronMan@@AEAAXPEAEV?$vector@EV?$allocator@E@std@@@std@@_K2@Z@4HA+29
	DD	imagerel $unwind$?dtor$1@?0??SetupValue@CConfig@Core@IronMan@@AEAAXPEAEV?$vector@EV?$allocator@E@std@@@std@@_K2@Z@4HA
pdata	ENDS
pdata	SEGMENT
$pdata$?Setup@CConfig@Core@IronMan@@QEAAXXZ DD imagerel $LN46
	DD	imagerel $LN46+44800
	DD	imagerel $unwind$?Setup@CConfig@Core@IronMan@@QEAAXXZ
pdata	ENDS
pdata	SEGMENT
$pdata$?dtor$0@?0??Setup@CConfig@Core@IronMan@@QEAAXXZ@4HA DD imagerel ?dtor$0@?0??Setup@CConfig@Core@IronMan@@QEAAXXZ@4HA
	DD	imagerel ?dtor$0@?0??Setup@CConfig@Core@IronMan@@QEAAXXZ@4HA+27
	DD	imagerel $unwind$?dtor$0@?0??Setup@CConfig@Core@IronMan@@QEAAXXZ@4HA
$pdata$?dtor$1@?0??Setup@CConfig@Core@IronMan@@QEAAXXZ@4HA DD imagerel ?dtor$1@?0??Setup@CConfig@Core@IronMan@@QEAAXXZ@4HA
	DD	imagerel ?dtor$1@?0??Setup@CConfig@Core@IronMan@@QEAAXXZ@4HA+27
	DD	imagerel $unwind$?dtor$1@?0??Setup@CConfig@Core@IronMan@@QEAAXXZ@4HA
$pdata$?dtor$2@?0??Setup@CConfig@Core@IronMan@@QEAAXXZ@4HA DD imagerel ?dtor$2@?0??Setup@CConfig@Core@IronMan@@QEAAXXZ@4HA
	DD	imagerel ?dtor$2@?0??Setup@CConfig@Core@IronMan@@QEAAXXZ@4HA+27
	DD	imagerel $unwind$?dtor$2@?0??Setup@CConfig@Core@IronMan@@QEAAXXZ@4HA
$pdata$?dtor$3@?0??Setup@CConfig@Core@IronMan@@QEAAXXZ@4HA DD imagerel ?dtor$3@?0??Setup@CConfig@Core@IronMan@@QEAAXXZ@4HA
	DD	imagerel ?dtor$3@?0??Setup@CConfig@Core@IronMan@@QEAAXXZ@4HA+27
	DD	imagerel $unwind$?dtor$3@?0??Setup@CConfig@Core@IronMan@@QEAAXXZ@4HA
$pdata$?dtor$4@?0??Setup@CConfig@Core@IronMan@@QEAAXXZ@4HA DD imagerel ?dtor$4@?0??Setup@CConfig@Core@IronMan@@QEAAXXZ@4HA
	DD	imagerel ?dtor$4@?0??Setup@CConfig@Core@IronMan@@QEAAXXZ@4HA+27
	DD	imagerel $unwind$?dtor$4@?0??Setup@CConfig@Core@IronMan@@QEAAXXZ@4HA
$pdata$?dtor$5@?0??Setup@CConfig@Core@IronMan@@QEAAXXZ@4HA DD imagerel ?dtor$5@?0??Setup@CConfig@Core@IronMan@@QEAAXXZ@4HA
	DD	imagerel ?dtor$5@?0??Setup@CConfig@Core@IronMan@@QEAAXXZ@4HA+27
	DD	imagerel $unwind$?dtor$5@?0??Setup@CConfig@Core@IronMan@@QEAAXXZ@4HA
$pdata$?dtor$6@?0??Setup@CConfig@Core@IronMan@@QEAAXXZ@4HA DD imagerel ?dtor$6@?0??Setup@CConfig@Core@IronMan@@QEAAXXZ@4HA
	DD	imagerel ?dtor$6@?0??Setup@CConfig@Core@IronMan@@QEAAXXZ@4HA+27
	DD	imagerel $unwind$?dtor$6@?0??Setup@CConfig@Core@IronMan@@QEAAXXZ@4HA
$pdata$?dtor$7@?0??Setup@CConfig@Core@IronMan@@QEAAXXZ@4HA DD imagerel ?dtor$7@?0??Setup@CConfig@Core@IronMan@@QEAAXXZ@4HA
	DD	imagerel ?dtor$7@?0??Setup@CConfig@Core@IronMan@@QEAAXXZ@4HA+27
	DD	imagerel $unwind$?dtor$7@?0??Setup@CConfig@Core@IronMan@@QEAAXXZ@4HA
$pdata$?dtor$8@?0??Setup@CConfig@Core@IronMan@@QEAAXXZ@4HA DD imagerel ?dtor$8@?0??Setup@CConfig@Core@IronMan@@QEAAXXZ@4HA
	DD	imagerel ?dtor$8@?0??Setup@CConfig@Core@IronMan@@QEAAXXZ@4HA+27
	DD	imagerel $unwind$?dtor$8@?0??Setup@CConfig@Core@IronMan@@QEAAXXZ@4HA
$pdata$?dtor$9@?0??Setup@CConfig@Core@IronMan@@QEAAXXZ@4HA DD imagerel ?dtor$9@?0??Setup@CConfig@Core@IronMan@@QEAAXXZ@4HA
	DD	imagerel ?dtor$9@?0??Setup@CConfig@Core@IronMan@@QEAAXXZ@4HA+27
	DD	imagerel $unwind$?dtor$9@?0??Setup@CConfig@Core@IronMan@@QEAAXXZ@4HA
$pdata$?dtor$10@?0??Setup@CConfig@Core@IronMan@@QEAAXXZ@4HA DD imagerel ?dtor$10@?0??Setup@CConfig@Core@IronMan@@QEAAXXZ@4HA
	DD	imagerel ?dtor$10@?0??Setup@CConfig@Core@IronMan@@QEAAXXZ@4HA+27
	DD	imagerel $unwind$?dtor$10@?0??Setup@CConfig@Core@IronMan@@QEAAXXZ@4HA
$pdata$?dtor$11@?0??Setup@CConfig@Core@IronMan@@QEAAXXZ@4HA DD imagerel ?dtor$11@?0??Setup@CConfig@Core@IronMan@@QEAAXXZ@4HA
	DD	imagerel ?dtor$11@?0??Setup@CConfig@Core@IronMan@@QEAAXXZ@4HA+27
	DD	imagerel $unwind$?dtor$11@?0??Setup@CConfig@Core@IronMan@@QEAAXXZ@4HA
$pdata$?dtor$12@?0??Setup@CConfig@Core@IronMan@@QEAAXXZ@4HA DD imagerel ?dtor$12@?0??Setup@CConfig@Core@IronMan@@QEAAXXZ@4HA
	DD	imagerel ?dtor$12@?0??Setup@CConfig@Core@IronMan@@QEAAXXZ@4HA+27
	DD	imagerel $unwind$?dtor$12@?0??Setup@CConfig@Core@IronMan@@QEAAXXZ@4HA
$pdata$?dtor$13@?0??Setup@CConfig@Core@IronMan@@QEAAXXZ@4HA DD imagerel ?dtor$13@?0??Setup@CConfig@Core@IronMan@@QEAAXXZ@4HA
	DD	imagerel ?dtor$13@?0??Setup@CConfig@Core@IronMan@@QEAAXXZ@4HA+27
	DD	imagerel $unwind$?dtor$13@?0??Setup@CConfig@Core@IronMan@@QEAAXXZ@4HA
$pdata$?dtor$14@?0??Setup@CConfig@Core@IronMan@@QEAAXXZ@4HA DD imagerel ?dtor$14@?0??Setup@CConfig@Core@IronMan@@QEAAXXZ@4HA
	DD	imagerel ?dtor$14@?0??Setup@CConfig@Core@IronMan@@QEAAXXZ@4HA+27
	DD	imagerel $unwind$?dtor$14@?0??Setup@CConfig@Core@IronMan@@QEAAXXZ@4HA
$pdata$?dtor$15@?0??Setup@CConfig@Core@IronMan@@QEAAXXZ@4HA DD imagerel ?dtor$15@?0??Setup@CConfig@Core@IronMan@@QEAAXXZ@4HA
	DD	imagerel ?dtor$15@?0??Setup@CConfig@Core@IronMan@@QEAAXXZ@4HA+27
	DD	imagerel $unwind$?dtor$15@?0??Setup@CConfig@Core@IronMan@@QEAAXXZ@4HA
$pdata$?dtor$16@?0??Setup@CConfig@Core@IronMan@@QEAAXXZ@4HA DD imagerel ?dtor$16@?0??Setup@CConfig@Core@IronMan@@QEAAXXZ@4HA
	DD	imagerel ?dtor$16@?0??Setup@CConfig@Core@IronMan@@QEAAXXZ@4HA+27
	DD	imagerel $unwind$?dtor$16@?0??Setup@CConfig@Core@IronMan@@QEAAXXZ@4HA
$pdata$?dtor$17@?0??Setup@CConfig@Core@IronMan@@QEAAXXZ@4HA DD imagerel ?dtor$17@?0??Setup@CConfig@Core@IronMan@@QEAAXXZ@4HA
	DD	imagerel ?dtor$17@?0??Setup@CConfig@Core@IronMan@@QEAAXXZ@4HA+27
	DD	imagerel $unwind$?dtor$17@?0??Setup@CConfig@Core@IronMan@@QEAAXXZ@4HA
$pdata$?dtor$18@?0??Setup@CConfig@Core@IronMan@@QEAAXXZ@4HA DD imagerel ?dtor$18@?0??Setup@CConfig@Core@IronMan@@QEAAXXZ@4HA
	DD	imagerel ?dtor$18@?0??Setup@CConfig@Core@IronMan@@QEAAXXZ@4HA+27
	DD	imagerel $unwind$?dtor$18@?0??Setup@CConfig@Core@IronMan@@QEAAXXZ@4HA
$pdata$?dtor$19@?0??Setup@CConfig@Core@IronMan@@QEAAXXZ@4HA DD imagerel ?dtor$19@?0??Setup@CConfig@Core@IronMan@@QEAAXXZ@4HA
	DD	imagerel ?dtor$19@?0??Setup@CConfig@Core@IronMan@@QEAAXXZ@4HA+27
	DD	imagerel $unwind$?dtor$19@?0??Setup@CConfig@Core@IronMan@@QEAAXXZ@4HA
$pdata$?dtor$20@?0??Setup@CConfig@Core@IronMan@@QEAAXXZ@4HA DD imagerel ?dtor$20@?0??Setup@CConfig@Core@IronMan@@QEAAXXZ@4HA
	DD	imagerel ?dtor$20@?0??Setup@CConfig@Core@IronMan@@QEAAXXZ@4HA+27
	DD	imagerel $unwind$?dtor$20@?0??Setup@CConfig@Core@IronMan@@QEAAXXZ@4HA
$pdata$?dtor$21@?0??Setup@CConfig@Core@IronMan@@QEAAXXZ@4HA DD imagerel ?dtor$21@?0??Setup@CConfig@Core@IronMan@@QEAAXXZ@4HA
	DD	imagerel ?dtor$21@?0??Setup@CConfig@Core@IronMan@@QEAAXXZ@4HA+27
	DD	imagerel $unwind$?dtor$21@?0??Setup@CConfig@Core@IronMan@@QEAAXXZ@4HA
$pdata$?dtor$22@?0??Setup@CConfig@Core@IronMan@@QEAAXXZ@4HA DD imagerel ?dtor$22@?0??Setup@CConfig@Core@IronMan@@QEAAXXZ@4HA
	DD	imagerel ?dtor$22@?0??Setup@CConfig@Core@IronMan@@QEAAXXZ@4HA+27
	DD	imagerel $unwind$?dtor$22@?0??Setup@CConfig@Core@IronMan@@QEAAXXZ@4HA
$pdata$?dtor$23@?0??Setup@CConfig@Core@IronMan@@QEAAXXZ@4HA DD imagerel ?dtor$23@?0??Setup@CConfig@Core@IronMan@@QEAAXXZ@4HA
	DD	imagerel ?dtor$23@?0??Setup@CConfig@Core@IronMan@@QEAAXXZ@4HA+27
	DD	imagerel $unwind$?dtor$23@?0??Setup@CConfig@Core@IronMan@@QEAAXXZ@4HA
$pdata$?dtor$24@?0??Setup@CConfig@Core@IronMan@@QEAAXXZ@4HA DD imagerel ?dtor$24@?0??Setup@CConfig@Core@IronMan@@QEAAXXZ@4HA
	DD	imagerel ?dtor$24@?0??Setup@CConfig@Core@IronMan@@QEAAXXZ@4HA+27
	DD	imagerel $unwind$?dtor$24@?0??Setup@CConfig@Core@IronMan@@QEAAXXZ@4HA
$pdata$?dtor$25@?0??Setup@CConfig@Core@IronMan@@QEAAXXZ@4HA DD imagerel ?dtor$25@?0??Setup@CConfig@Core@IronMan@@QEAAXXZ@4HA
	DD	imagerel ?dtor$25@?0??Setup@CConfig@Core@IronMan@@QEAAXXZ@4HA+27
	DD	imagerel $unwind$?dtor$25@?0??Setup@CConfig@Core@IronMan@@QEAAXXZ@4HA
$pdata$?dtor$26@?0??Setup@CConfig@Core@IronMan@@QEAAXXZ@4HA DD imagerel ?dtor$26@?0??Setup@CConfig@Core@IronMan@@QEAAXXZ@4HA
	DD	imagerel ?dtor$26@?0??Setup@CConfig@Core@IronMan@@QEAAXXZ@4HA+27
	DD	imagerel $unwind$?dtor$26@?0??Setup@CConfig@Core@IronMan@@QEAAXXZ@4HA
$pdata$?dtor$27@?0??Setup@CConfig@Core@IronMan@@QEAAXXZ@4HA DD imagerel ?dtor$27@?0??Setup@CConfig@Core@IronMan@@QEAAXXZ@4HA
	DD	imagerel ?dtor$27@?0??Setup@CConfig@Core@IronMan@@QEAAXXZ@4HA+27
	DD	imagerel $unwind$?dtor$27@?0??Setup@CConfig@Core@IronMan@@QEAAXXZ@4HA
$pdata$?dtor$28@?0??Setup@CConfig@Core@IronMan@@QEAAXXZ@4HA DD imagerel ?dtor$28@?0??Setup@CConfig@Core@IronMan@@QEAAXXZ@4HA
	DD	imagerel ?dtor$28@?0??Setup@CConfig@Core@IronMan@@QEAAXXZ@4HA+27
	DD	imagerel $unwind$?dtor$28@?0??Setup@CConfig@Core@IronMan@@QEAAXXZ@4HA
$pdata$?dtor$29@?0??Setup@CConfig@Core@IronMan@@QEAAXXZ@4HA DD imagerel ?dtor$29@?0??Setup@CConfig@Core@IronMan@@QEAAXXZ@4HA
	DD	imagerel ?dtor$29@?0??Setup@CConfig@Core@IronMan@@QEAAXXZ@4HA+27
	DD	imagerel $unwind$?dtor$29@?0??Setup@CConfig@Core@IronMan@@QEAAXXZ@4HA
$pdata$?dtor$30@?0??Setup@CConfig@Core@IronMan@@QEAAXXZ@4HA DD imagerel ?dtor$30@?0??Setup@CConfig@Core@IronMan@@QEAAXXZ@4HA
	DD	imagerel ?dtor$30@?0??Setup@CConfig@Core@IronMan@@QEAAXXZ@4HA+27
	DD	imagerel $unwind$?dtor$30@?0??Setup@CConfig@Core@IronMan@@QEAAXXZ@4HA
$pdata$?dtor$31@?0??Setup@CConfig@Core@IronMan@@QEAAXXZ@4HA DD imagerel ?dtor$31@?0??Setup@CConfig@Core@IronMan@@QEAAXXZ@4HA
	DD	imagerel ?dtor$31@?0??Setup@CConfig@Core@IronMan@@QEAAXXZ@4HA+27
	DD	imagerel $unwind$?dtor$31@?0??Setup@CConfig@Core@IronMan@@QEAAXXZ@4HA
$pdata$?dtor$32@?0??Setup@CConfig@Core@IronMan@@QEAAXXZ@4HA DD imagerel ?dtor$32@?0??Setup@CConfig@Core@IronMan@@QEAAXXZ@4HA
	DD	imagerel ?dtor$32@?0??Setup@CConfig@Core@IronMan@@QEAAXXZ@4HA+27
	DD	imagerel $unwind$?dtor$32@?0??Setup@CConfig@Core@IronMan@@QEAAXXZ@4HA
$pdata$?dtor$33@?0??Setup@CConfig@Core@IronMan@@QEAAXXZ@4HA DD imagerel ?dtor$33@?0??Setup@CConfig@Core@IronMan@@QEAAXXZ@4HA
	DD	imagerel ?dtor$33@?0??Setup@CConfig@Core@IronMan@@QEAAXXZ@4HA+27
	DD	imagerel $unwind$?dtor$33@?0??Setup@CConfig@Core@IronMan@@QEAAXXZ@4HA
$pdata$?dtor$34@?0??Setup@CConfig@Core@IronMan@@QEAAXXZ@4HA DD imagerel ?dtor$34@?0??Setup@CConfig@Core@IronMan@@QEAAXXZ@4HA
	DD	imagerel ?dtor$34@?0??Setup@CConfig@Core@IronMan@@QEAAXXZ@4HA+27
	DD	imagerel $unwind$?dtor$34@?0??Setup@CConfig@Core@IronMan@@QEAAXXZ@4HA
$pdata$?dtor$35@?0??Setup@CConfig@Core@IronMan@@QEAAXXZ@4HA DD imagerel ?dtor$35@?0??Setup@CConfig@Core@IronMan@@QEAAXXZ@4HA
	DD	imagerel ?dtor$35@?0??Setup@CConfig@Core@IronMan@@QEAAXXZ@4HA+27
	DD	imagerel $unwind$?dtor$35@?0??Setup@CConfig@Core@IronMan@@QEAAXXZ@4HA
$pdata$?dtor$36@?0??Setup@CConfig@Core@IronMan@@QEAAXXZ@4HA DD imagerel ?dtor$36@?0??Setup@CConfig@Core@IronMan@@QEAAXXZ@4HA
	DD	imagerel ?dtor$36@?0??Setup@CConfig@Core@IronMan@@QEAAXXZ@4HA+27
	DD	imagerel $unwind$?dtor$36@?0??Setup@CConfig@Core@IronMan@@QEAAXXZ@4HA
$pdata$?dtor$37@?0??Setup@CConfig@Core@IronMan@@QEAAXXZ@4HA DD imagerel ?dtor$37@?0??Setup@CConfig@Core@IronMan@@QEAAXXZ@4HA
	DD	imagerel ?dtor$37@?0??Setup@CConfig@Core@IronMan@@QEAAXXZ@4HA+27
	DD	imagerel $unwind$?dtor$37@?0??Setup@CConfig@Core@IronMan@@QEAAXXZ@4HA
$pdata$?dtor$38@?0??Setup@CConfig@Core@IronMan@@QEAAXXZ@4HA DD imagerel ?dtor$38@?0??Setup@CConfig@Core@IronMan@@QEAAXXZ@4HA
	DD	imagerel ?dtor$38@?0??Setup@CConfig@Core@IronMan@@QEAAXXZ@4HA+27
	DD	imagerel $unwind$?dtor$38@?0??Setup@CConfig@Core@IronMan@@QEAAXXZ@4HA
$pdata$?dtor$39@?0??Setup@CConfig@Core@IronMan@@QEAAXXZ@4HA DD imagerel ?dtor$39@?0??Setup@CConfig@Core@IronMan@@QEAAXXZ@4HA
	DD	imagerel ?dtor$39@?0??Setup@CConfig@Core@IronMan@@QEAAXXZ@4HA+27
	DD	imagerel $unwind$?dtor$39@?0??Setup@CConfig@Core@IronMan@@QEAAXXZ@4HA
$pdata$?dtor$40@?0??Setup@CConfig@Core@IronMan@@QEAAXXZ@4HA DD imagerel ?dtor$40@?0??Setup@CConfig@Core@IronMan@@QEAAXXZ@4HA
	DD	imagerel ?dtor$40@?0??Setup@CConfig@Core@IronMan@@QEAAXXZ@4HA+27
	DD	imagerel $unwind$?dtor$40@?0??Setup@CConfig@Core@IronMan@@QEAAXXZ@4HA
$pdata$?dtor$41@?0??Setup@CConfig@Core@IronMan@@QEAAXXZ@4HA DD imagerel ?dtor$41@?0??Setup@CConfig@Core@IronMan@@QEAAXXZ@4HA
	DD	imagerel ?dtor$41@?0??Setup@CConfig@Core@IronMan@@QEAAXXZ@4HA+27
	DD	imagerel $unwind$?dtor$41@?0??Setup@CConfig@Core@IronMan@@QEAAXXZ@4HA
$pdata$?dtor$42@?0??Setup@CConfig@Core@IronMan@@QEAAXXZ@4HA DD imagerel ?dtor$42@?0??Setup@CConfig@Core@IronMan@@QEAAXXZ@4HA
	DD	imagerel ?dtor$42@?0??Setup@CConfig@Core@IronMan@@QEAAXXZ@4HA+27
	DD	imagerel $unwind$?dtor$42@?0??Setup@CConfig@Core@IronMan@@QEAAXXZ@4HA
pdata	ENDS
pdata	SEGMENT
$pdata$?Save@CConfig@Core@IronMan@@QEAAXV?$basic_string@DU?$char_traits@D@std@@V?$allocator@D@2@@std@@@Z DD imagerel $LN57
	DD	imagerel $LN57+3124
	DD	imagerel $unwind$?Save@CConfig@Core@IronMan@@QEAAXV?$basic_string@DU?$char_traits@D@std@@V?$allocator@D@2@@std@@@Z
pdata	ENDS
pdata	SEGMENT
$pdata$?dtor$0@?0??Save@CConfig@Core@IronMan@@QEAAXV?$basic_string@DU?$char_traits@D@std@@V?$allocator@D@2@@std@@@Z@4HA DD imagerel ?dtor$0@?0??Save@CConfig@Core@IronMan@@QEAAXV?$basic_string@DU?$char_traits@D@std@@V?$allocator@D@2@@std@@@Z@4HA
	DD	imagerel ?dtor$0@?0??Save@CConfig@Core@IronMan@@QEAAXV?$basic_string@DU?$char_traits@D@std@@V?$allocator@D@2@@std@@@Z@4HA+27
	DD	imagerel $unwind$?dtor$0@?0??Save@CConfig@Core@IronMan@@QEAAXV?$basic_string@DU?$char_traits@D@std@@V?$allocator@D@2@@std@@@Z@4HA
$pdata$?dtor$1@?0??Save@CConfig@Core@IronMan@@QEAAXV?$basic_string@DU?$char_traits@D@std@@V?$allocator@D@2@@std@@@Z@4HA DD imagerel ?dtor$1@?0??Save@CConfig@Core@IronMan@@QEAAXV?$basic_string@DU?$char_traits@D@std@@V?$allocator@D@2@@std@@@Z@4HA
	DD	imagerel ?dtor$1@?0??Save@CConfig@Core@IronMan@@QEAAXV?$basic_string@DU?$char_traits@D@std@@V?$allocator@D@2@@std@@@Z@4HA+27
	DD	imagerel $unwind$?dtor$1@?0??Save@CConfig@Core@IronMan@@QEAAXV?$basic_string@DU?$char_traits@D@std@@V?$allocator@D@2@@std@@@Z@4HA
$pdata$?dtor$2@?0??Save@CConfig@Core@IronMan@@QEAAXV?$basic_string@DU?$char_traits@D@std@@V?$allocator@D@2@@std@@@Z@4HA DD imagerel ?dtor$2@?0??Save@CConfig@Core@IronMan@@QEAAXV?$basic_string@DU?$char_traits@D@std@@V?$allocator@D@2@@std@@@Z@4HA
	DD	imagerel ?dtor$2@?0??Save@CConfig@Core@IronMan@@QEAAXV?$basic_string@DU?$char_traits@D@std@@V?$allocator@D@2@@std@@@Z@4HA+27
	DD	imagerel $unwind$?dtor$2@?0??Save@CConfig@Core@IronMan@@QEAAXV?$basic_string@DU?$char_traits@D@std@@V?$allocator@D@2@@std@@@Z@4HA
$pdata$?dtor$3@?0??Save@CConfig@Core@IronMan@@QEAAXV?$basic_string@DU?$char_traits@D@std@@V?$allocator@D@2@@std@@@Z@4HA DD imagerel ?dtor$3@?0??Save@CConfig@Core@IronMan@@QEAAXV?$basic_string@DU?$char_traits@D@std@@V?$allocator@D@2@@std@@@Z@4HA
	DD	imagerel ?dtor$3@?0??Save@CConfig@Core@IronMan@@QEAAXV?$basic_string@DU?$char_traits@D@std@@V?$allocator@D@2@@std@@@Z@4HA+27
	DD	imagerel $unwind$?dtor$3@?0??Save@CConfig@Core@IronMan@@QEAAXV?$basic_string@DU?$char_traits@D@std@@V?$allocator@D@2@@std@@@Z@4HA
$pdata$?dtor$4@?0??Save@CConfig@Core@IronMan@@QEAAXV?$basic_string@DU?$char_traits@D@std@@V?$allocator@D@2@@std@@@Z@4HA DD imagerel ?dtor$4@?0??Save@CConfig@Core@IronMan@@QEAAXV?$basic_string@DU?$char_traits@D@std@@V?$allocator@D@2@@std@@@Z@4HA
	DD	imagerel ?dtor$4@?0??Save@CConfig@Core@IronMan@@QEAAXV?$basic_string@DU?$char_traits@D@std@@V?$allocator@D@2@@std@@@Z@4HA+27
	DD	imagerel $unwind$?dtor$4@?0??Save@CConfig@Core@IronMan@@QEAAXV?$basic_string@DU?$char_traits@D@std@@V?$allocator@D@2@@std@@@Z@4HA
$pdata$?dtor$5@?0??Save@CConfig@Core@IronMan@@QEAAXV?$basic_string@DU?$char_traits@D@std@@V?$allocator@D@2@@std@@@Z@4HA DD imagerel ?dtor$5@?0??Save@CConfig@Core@IronMan@@QEAAXV?$basic_string@DU?$char_traits@D@std@@V?$allocator@D@2@@std@@@Z@4HA
	DD	imagerel ?dtor$5@?0??Save@CConfig@Core@IronMan@@QEAAXV?$basic_string@DU?$char_traits@D@std@@V?$allocator@D@2@@std@@@Z@4HA+27
	DD	imagerel $unwind$?dtor$5@?0??Save@CConfig@Core@IronMan@@QEAAXV?$basic_string@DU?$char_traits@D@std@@V?$allocator@D@2@@std@@@Z@4HA
$pdata$?dtor$6@?0??Save@CConfig@Core@IronMan@@QEAAXV?$basic_string@DU?$char_traits@D@std@@V?$allocator@D@2@@std@@@Z@4HA DD imagerel ?dtor$6@?0??Save@CConfig@Core@IronMan@@QEAAXV?$basic_string@DU?$char_traits@D@std@@V?$allocator@D@2@@std@@@Z@4HA
	DD	imagerel ?dtor$6@?0??Save@CConfig@Core@IronMan@@QEAAXV?$basic_string@DU?$char_traits@D@std@@V?$allocator@D@2@@std@@@Z@4HA+27
	DD	imagerel $unwind$?dtor$6@?0??Save@CConfig@Core@IronMan@@QEAAXV?$basic_string@DU?$char_traits@D@std@@V?$allocator@D@2@@std@@@Z@4HA
$pdata$?dtor$7@?0??Save@CConfig@Core@IronMan@@QEAAXV?$basic_string@DU?$char_traits@D@std@@V?$allocator@D@2@@std@@@Z@4HA DD imagerel ?dtor$7@?0??Save@CConfig@Core@IronMan@@QEAAXV?$basic_string@DU?$char_traits@D@std@@V?$allocator@D@2@@std@@@Z@4HA
	DD	imagerel ?dtor$7@?0??Save@CConfig@Core@IronMan@@QEAAXV?$basic_string@DU?$char_traits@D@std@@V?$allocator@D@2@@std@@@Z@4HA+27
	DD	imagerel $unwind$?dtor$7@?0??Save@CConfig@Core@IronMan@@QEAAXV?$basic_string@DU?$char_traits@D@std@@V?$allocator@D@2@@std@@@Z@4HA
$pdata$?dtor$8@?0??Save@CConfig@Core@IronMan@@QEAAXV?$basic_string@DU?$char_traits@D@std@@V?$allocator@D@2@@std@@@Z@4HA DD imagerel ?dtor$8@?0??Save@CConfig@Core@IronMan@@QEAAXV?$basic_string@DU?$char_traits@D@std@@V?$allocator@D@2@@std@@@Z@4HA
	DD	imagerel ?dtor$8@?0??Save@CConfig@Core@IronMan@@QEAAXV?$basic_string@DU?$char_traits@D@std@@V?$allocator@D@2@@std@@@Z@4HA+27
	DD	imagerel $unwind$?dtor$8@?0??Save@CConfig@Core@IronMan@@QEAAXV?$basic_string@DU?$char_traits@D@std@@V?$allocator@D@2@@std@@@Z@4HA
$pdata$?dtor$9@?0??Save@CConfig@Core@IronMan@@QEAAXV?$basic_string@DU?$char_traits@D@std@@V?$allocator@D@2@@std@@@Z@4HA DD imagerel ?dtor$9@?0??Save@CConfig@Core@IronMan@@QEAAXV?$basic_string@DU?$char_traits@D@std@@V?$allocator@D@2@@std@@@Z@4HA
	DD	imagerel ?dtor$9@?0??Save@CConfig@Core@IronMan@@QEAAXV?$basic_string@DU?$char_traits@D@std@@V?$allocator@D@2@@std@@@Z@4HA+27
	DD	imagerel $unwind$?dtor$9@?0??Save@CConfig@Core@IronMan@@QEAAXV?$basic_string@DU?$char_traits@D@std@@V?$allocator@D@2@@std@@@Z@4HA
$pdata$?dtor$10@?0??Save@CConfig@Core@IronMan@@QEAAXV?$basic_string@DU?$char_traits@D@std@@V?$allocator@D@2@@std@@@Z@4HA DD imagerel ?dtor$10@?0??Save@CConfig@Core@IronMan@@QEAAXV?$basic_string@DU?$char_traits@D@std@@V?$allocator@D@2@@std@@@Z@4HA
	DD	imagerel ?dtor$10@?0??Save@CConfig@Core@IronMan@@QEAAXV?$basic_string@DU?$char_traits@D@std@@V?$allocator@D@2@@std@@@Z@4HA+27
	DD	imagerel $unwind$?dtor$10@?0??Save@CConfig@Core@IronMan@@QEAAXV?$basic_string@DU?$char_traits@D@std@@V?$allocator@D@2@@std@@@Z@4HA
$pdata$?dtor$11@?0??Save@CConfig@Core@IronMan@@QEAAXV?$basic_string@DU?$char_traits@D@std@@V?$allocator@D@2@@std@@@Z@4HA DD imagerel ?dtor$11@?0??Save@CConfig@Core@IronMan@@QEAAXV?$basic_string@DU?$char_traits@D@std@@V?$allocator@D@2@@std@@@Z@4HA
	DD	imagerel ?dtor$11@?0??Save@CConfig@Core@IronMan@@QEAAXV?$basic_string@DU?$char_traits@D@std@@V?$allocator@D@2@@std@@@Z@4HA+27
	DD	imagerel $unwind$?dtor$11@?0??Save@CConfig@Core@IronMan@@QEAAXV?$basic_string@DU?$char_traits@D@std@@V?$allocator@D@2@@std@@@Z@4HA
$pdata$?dtor$12@?0??Save@CConfig@Core@IronMan@@QEAAXV?$basic_string@DU?$char_traits@D@std@@V?$allocator@D@2@@std@@@Z@4HA DD imagerel ?dtor$12@?0??Save@CConfig@Core@IronMan@@QEAAXV?$basic_string@DU?$char_traits@D@std@@V?$allocator@D@2@@std@@@Z@4HA
	DD	imagerel ?dtor$12@?0??Save@CConfig@Core@IronMan@@QEAAXV?$basic_string@DU?$char_traits@D@std@@V?$allocator@D@2@@std@@@Z@4HA+27
	DD	imagerel $unwind$?dtor$12@?0??Save@CConfig@Core@IronMan@@QEAAXV?$basic_string@DU?$char_traits@D@std@@V?$allocator@D@2@@std@@@Z@4HA
$pdata$?dtor$13@?0??Save@CConfig@Core@IronMan@@QEAAXV?$basic_string@DU?$char_traits@D@std@@V?$allocator@D@2@@std@@@Z@4HA DD imagerel ?dtor$13@?0??Save@CConfig@Core@IronMan@@QEAAXV?$basic_string@DU?$char_traits@D@std@@V?$allocator@D@2@@std@@@Z@4HA
	DD	imagerel ?dtor$13@?0??Save@CConfig@Core@IronMan@@QEAAXV?$basic_string@DU?$char_traits@D@std@@V?$allocator@D@2@@std@@@Z@4HA+27
	DD	imagerel $unwind$?dtor$13@?0??Save@CConfig@Core@IronMan@@QEAAXV?$basic_string@DU?$char_traits@D@std@@V?$allocator@D@2@@std@@@Z@4HA
$pdata$?dtor$14@?0??Save@CConfig@Core@IronMan@@QEAAXV?$basic_string@DU?$char_traits@D@std@@V?$allocator@D@2@@std@@@Z@4HA DD imagerel ?dtor$14@?0??Save@CConfig@Core@IronMan@@QEAAXV?$basic_string@DU?$char_traits@D@std@@V?$allocator@D@2@@std@@@Z@4HA
	DD	imagerel ?dtor$14@?0??Save@CConfig@Core@IronMan@@QEAAXV?$basic_string@DU?$char_traits@D@std@@V?$allocator@D@2@@std@@@Z@4HA+27
	DD	imagerel $unwind$?dtor$14@?0??Save@CConfig@Core@IronMan@@QEAAXV?$basic_string@DU?$char_traits@D@std@@V?$allocator@D@2@@std@@@Z@4HA
$pdata$?dtor$15@?0??Save@CConfig@Core@IronMan@@QEAAXV?$basic_string@DU?$char_traits@D@std@@V?$allocator@D@2@@std@@@Z@4HA DD imagerel ?dtor$15@?0??Save@CConfig@Core@IronMan@@QEAAXV?$basic_string@DU?$char_traits@D@std@@V?$allocator@D@2@@std@@@Z@4HA
	DD	imagerel ?dtor$15@?0??Save@CConfig@Core@IronMan@@QEAAXV?$basic_string@DU?$char_traits@D@std@@V?$allocator@D@2@@std@@@Z@4HA+27
	DD	imagerel $unwind$?dtor$15@?0??Save@CConfig@Core@IronMan@@QEAAXV?$basic_string@DU?$char_traits@D@std@@V?$allocator@D@2@@std@@@Z@4HA
$pdata$?dtor$16@?0??Save@CConfig@Core@IronMan@@QEAAXV?$basic_string@DU?$char_traits@D@std@@V?$allocator@D@2@@std@@@Z@4HA DD imagerel ?dtor$16@?0??Save@CConfig@Core@IronMan@@QEAAXV?$basic_string@DU?$char_traits@D@std@@V?$allocator@D@2@@std@@@Z@4HA
	DD	imagerel ?dtor$16@?0??Save@CConfig@Core@IronMan@@QEAAXV?$basic_string@DU?$char_traits@D@std@@V?$allocator@D@2@@std@@@Z@4HA+27
	DD	imagerel $unwind$?dtor$16@?0??Save@CConfig@Core@IronMan@@QEAAXV?$basic_string@DU?$char_traits@D@std@@V?$allocator@D@2@@std@@@Z@4HA
$pdata$?dtor$17@?0??Save@CConfig@Core@IronMan@@QEAAXV?$basic_string@DU?$char_traits@D@std@@V?$allocator@D@2@@std@@@Z@4HA DD imagerel ?dtor$17@?0??Save@CConfig@Core@IronMan@@QEAAXV?$basic_string@DU?$char_traits@D@std@@V?$allocator@D@2@@std@@@Z@4HA
	DD	imagerel ?dtor$17@?0??Save@CConfig@Core@IronMan@@QEAAXV?$basic_string@DU?$char_traits@D@std@@V?$allocator@D@2@@std@@@Z@4HA+27
	DD	imagerel $unwind$?dtor$17@?0??Save@CConfig@Core@IronMan@@QEAAXV?$basic_string@DU?$char_traits@D@std@@V?$allocator@D@2@@std@@@Z@4HA
$pdata$?dtor$18@?0??Save@CConfig@Core@IronMan@@QEAAXV?$basic_string@DU?$char_traits@D@std@@V?$allocator@D@2@@std@@@Z@4HA DD imagerel ?dtor$18@?0??Save@CConfig@Core@IronMan@@QEAAXV?$basic_string@DU?$char_traits@D@std@@V?$allocator@D@2@@std@@@Z@4HA
	DD	imagerel ?dtor$18@?0??Save@CConfig@Core@IronMan@@QEAAXV?$basic_string@DU?$char_traits@D@std@@V?$allocator@D@2@@std@@@Z@4HA+27
	DD	imagerel $unwind$?dtor$18@?0??Save@CConfig@Core@IronMan@@QEAAXV?$basic_string@DU?$char_traits@D@std@@V?$allocator@D@2@@std@@@Z@4HA
$pdata$?dtor$19@?0??Save@CConfig@Core@IronMan@@QEAAXV?$basic_string@DU?$char_traits@D@std@@V?$allocator@D@2@@std@@@Z@4HA DD imagerel ?dtor$19@?0??Save@CConfig@Core@IronMan@@QEAAXV?$basic_string@DU?$char_traits@D@std@@V?$allocator@D@2@@std@@@Z@4HA
	DD	imagerel ?dtor$19@?0??Save@CConfig@Core@IronMan@@QEAAXV?$basic_string@DU?$char_traits@D@std@@V?$allocator@D@2@@std@@@Z@4HA+27
	DD	imagerel $unwind$?dtor$19@?0??Save@CConfig@Core@IronMan@@QEAAXV?$basic_string@DU?$char_traits@D@std@@V?$allocator@D@2@@std@@@Z@4HA
$pdata$?dtor$20@?0??Save@CConfig@Core@IronMan@@QEAAXV?$basic_string@DU?$char_traits@D@std@@V?$allocator@D@2@@std@@@Z@4HA DD imagerel ?dtor$20@?0??Save@CConfig@Core@IronMan@@QEAAXV?$basic_string@DU?$char_traits@D@std@@V?$allocator@D@2@@std@@@Z@4HA
	DD	imagerel ?dtor$20@?0??Save@CConfig@Core@IronMan@@QEAAXV?$basic_string@DU?$char_traits@D@std@@V?$allocator@D@2@@std@@@Z@4HA+27
	DD	imagerel $unwind$?dtor$20@?0??Save@CConfig@Core@IronMan@@QEAAXV?$basic_string@DU?$char_traits@D@std@@V?$allocator@D@2@@std@@@Z@4HA
$pdata$?dtor$21@?0??Save@CConfig@Core@IronMan@@QEAAXV?$basic_string@DU?$char_traits@D@std@@V?$allocator@D@2@@std@@@Z@4HA DD imagerel ?dtor$21@?0??Save@CConfig@Core@IronMan@@QEAAXV?$basic_string@DU?$char_traits@D@std@@V?$allocator@D@2@@std@@@Z@4HA
	DD	imagerel ?dtor$21@?0??Save@CConfig@Core@IronMan@@QEAAXV?$basic_string@DU?$char_traits@D@std@@V?$allocator@D@2@@std@@@Z@4HA+27
	DD	imagerel $unwind$?dtor$21@?0??Save@CConfig@Core@IronMan@@QEAAXV?$basic_string@DU?$char_traits@D@std@@V?$allocator@D@2@@std@@@Z@4HA
pdata	ENDS
pdata	SEGMENT
$pdata$?Save2@CConfig@Core@IronMan@@QEAAXV?$basic_string@DU?$char_traits@D@std@@V?$allocator@D@2@@std@@@Z DD imagerel $LN54
	DD	imagerel $LN54+2882
	DD	imagerel $unwind$?Save2@CConfig@Core@IronMan@@QEAAXV?$basic_string@DU?$char_traits@D@std@@V?$allocator@D@2@@std@@@Z
pdata	ENDS
pdata	SEGMENT
$pdata$?dtor$0@?0??Save2@CConfig@Core@IronMan@@QEAAXV?$basic_string@DU?$char_traits@D@std@@V?$allocator@D@2@@std@@@Z@4HA DD imagerel ?dtor$0@?0??Save2@CConfig@Core@IronMan@@QEAAXV?$basic_string@DU?$char_traits@D@std@@V?$allocator@D@2@@std@@@Z@4HA
	DD	imagerel ?dtor$0@?0??Save2@CConfig@Core@IronMan@@QEAAXV?$basic_string@DU?$char_traits@D@std@@V?$allocator@D@2@@std@@@Z@4HA+27
	DD	imagerel $unwind$?dtor$0@?0??Save2@CConfig@Core@IronMan@@QEAAXV?$basic_string@DU?$char_traits@D@std@@V?$allocator@D@2@@std@@@Z@4HA
$pdata$?dtor$1@?0??Save2@CConfig@Core@IronMan@@QEAAXV?$basic_string@DU?$char_traits@D@std@@V?$allocator@D@2@@std@@@Z@4HA DD imagerel ?dtor$1@?0??Save2@CConfig@Core@IronMan@@QEAAXV?$basic_string@DU?$char_traits@D@std@@V?$allocator@D@2@@std@@@Z@4HA
	DD	imagerel ?dtor$1@?0??Save2@CConfig@Core@IronMan@@QEAAXV?$basic_string@DU?$char_traits@D@std@@V?$allocator@D@2@@std@@@Z@4HA+27
	DD	imagerel $unwind$?dtor$1@?0??Save2@CConfig@Core@IronMan@@QEAAXV?$basic_string@DU?$char_traits@D@std@@V?$allocator@D@2@@std@@@Z@4HA
$pdata$?dtor$2@?0??Save2@CConfig@Core@IronMan@@QEAAXV?$basic_string@DU?$char_traits@D@std@@V?$allocator@D@2@@std@@@Z@4HA DD imagerel ?dtor$2@?0??Save2@CConfig@Core@IronMan@@QEAAXV?$basic_string@DU?$char_traits@D@std@@V?$allocator@D@2@@std@@@Z@4HA
	DD	imagerel ?dtor$2@?0??Save2@CConfig@Core@IronMan@@QEAAXV?$basic_string@DU?$char_traits@D@std@@V?$allocator@D@2@@std@@@Z@4HA+27
	DD	imagerel $unwind$?dtor$2@?0??Save2@CConfig@Core@IronMan@@QEAAXV?$basic_string@DU?$char_traits@D@std@@V?$allocator@D@2@@std@@@Z@4HA
$pdata$?dtor$3@?0??Save2@CConfig@Core@IronMan@@QEAAXV?$basic_string@DU?$char_traits@D@std@@V?$allocator@D@2@@std@@@Z@4HA DD imagerel ?dtor$3@?0??Save2@CConfig@Core@IronMan@@QEAAXV?$basic_string@DU?$char_traits@D@std@@V?$allocator@D@2@@std@@@Z@4HA
	DD	imagerel ?dtor$3@?0??Save2@CConfig@Core@IronMan@@QEAAXV?$basic_string@DU?$char_traits@D@std@@V?$allocator@D@2@@std@@@Z@4HA+27
	DD	imagerel $unwind$?dtor$3@?0??Save2@CConfig@Core@IronMan@@QEAAXV?$basic_string@DU?$char_traits@D@std@@V?$allocator@D@2@@std@@@Z@4HA
$pdata$?dtor$4@?0??Save2@CConfig@Core@IronMan@@QEAAXV?$basic_string@DU?$char_traits@D@std@@V?$allocator@D@2@@std@@@Z@4HA DD imagerel ?dtor$4@?0??Save2@CConfig@Core@IronMan@@QEAAXV?$basic_string@DU?$char_traits@D@std@@V?$allocator@D@2@@std@@@Z@4HA
	DD	imagerel ?dtor$4@?0??Save2@CConfig@Core@IronMan@@QEAAXV?$basic_string@DU?$char_traits@D@std@@V?$allocator@D@2@@std@@@Z@4HA+27
	DD	imagerel $unwind$?dtor$4@?0??Save2@CConfig@Core@IronMan@@QEAAXV?$basic_string@DU?$char_traits@D@std@@V?$allocator@D@2@@std@@@Z@4HA
$pdata$?dtor$5@?0??Save2@CConfig@Core@IronMan@@QEAAXV?$basic_string@DU?$char_traits@D@std@@V?$allocator@D@2@@std@@@Z@4HA DD imagerel ?dtor$5@?0??Save2@CConfig@Core@IronMan@@QEAAXV?$basic_string@DU?$char_traits@D@std@@V?$allocator@D@2@@std@@@Z@4HA
	DD	imagerel ?dtor$5@?0??Save2@CConfig@Core@IronMan@@QEAAXV?$basic_string@DU?$char_traits@D@std@@V?$allocator@D@2@@std@@@Z@4HA+27
	DD	imagerel $unwind$?dtor$5@?0??Save2@CConfig@Core@IronMan@@QEAAXV?$basic_string@DU?$char_traits@D@std@@V?$allocator@D@2@@std@@@Z@4HA
$pdata$?dtor$6@?0??Save2@CConfig@Core@IronMan@@QEAAXV?$basic_string@DU?$char_traits@D@std@@V?$allocator@D@2@@std@@@Z@4HA DD imagerel ?dtor$6@?0??Save2@CConfig@Core@IronMan@@QEAAXV?$basic_string@DU?$char_traits@D@std@@V?$allocator@D@2@@std@@@Z@4HA
	DD	imagerel ?dtor$6@?0??Save2@CConfig@Core@IronMan@@QEAAXV?$basic_string@DU?$char_traits@D@std@@V?$allocator@D@2@@std@@@Z@4HA+27
	DD	imagerel $unwind$?dtor$6@?0??Save2@CConfig@Core@IronMan@@QEAAXV?$basic_string@DU?$char_traits@D@std@@V?$allocator@D@2@@std@@@Z@4HA
$pdata$?dtor$7@?0??Save2@CConfig@Core@IronMan@@QEAAXV?$basic_string@DU?$char_traits@D@std@@V?$allocator@D@2@@std@@@Z@4HA DD imagerel ?dtor$7@?0??Save2@CConfig@Core@IronMan@@QEAAXV?$basic_string@DU?$char_traits@D@std@@V?$allocator@D@2@@std@@@Z@4HA
	DD	imagerel ?dtor$7@?0??Save2@CConfig@Core@IronMan@@QEAAXV?$basic_string@DU?$char_traits@D@std@@V?$allocator@D@2@@std@@@Z@4HA+27
	DD	imagerel $unwind$?dtor$7@?0??Save2@CConfig@Core@IronMan@@QEAAXV?$basic_string@DU?$char_traits@D@std@@V?$allocator@D@2@@std@@@Z@4HA
$pdata$?dtor$8@?0??Save2@CConfig@Core@IronMan@@QEAAXV?$basic_string@DU?$char_traits@D@std@@V?$allocator@D@2@@std@@@Z@4HA DD imagerel ?dtor$8@?0??Save2@CConfig@Core@IronMan@@QEAAXV?$basic_string@DU?$char_traits@D@std@@V?$allocator@D@2@@std@@@Z@4HA
	DD	imagerel ?dtor$8@?0??Save2@CConfig@Core@IronMan@@QEAAXV?$basic_string@DU?$char_traits@D@std@@V?$allocator@D@2@@std@@@Z@4HA+27
	DD	imagerel $unwind$?dtor$8@?0??Save2@CConfig@Core@IronMan@@QEAAXV?$basic_string@DU?$char_traits@D@std@@V?$allocator@D@2@@std@@@Z@4HA
$pdata$?dtor$9@?0??Save2@CConfig@Core@IronMan@@QEAAXV?$basic_string@DU?$char_traits@D@std@@V?$allocator@D@2@@std@@@Z@4HA DD imagerel ?dtor$9@?0??Save2@CConfig@Core@IronMan@@QEAAXV?$basic_string@DU?$char_traits@D@std@@V?$allocator@D@2@@std@@@Z@4HA
	DD	imagerel ?dtor$9@?0??Save2@CConfig@Core@IronMan@@QEAAXV?$basic_string@DU?$char_traits@D@std@@V?$allocator@D@2@@std@@@Z@4HA+27
	DD	imagerel $unwind$?dtor$9@?0??Save2@CConfig@Core@IronMan@@QEAAXV?$basic_string@DU?$char_traits@D@std@@V?$allocator@D@2@@std@@@Z@4HA
$pdata$?dtor$10@?0??Save2@CConfig@Core@IronMan@@QEAAXV?$basic_string@DU?$char_traits@D@std@@V?$allocator@D@2@@std@@@Z@4HA DD imagerel ?dtor$10@?0??Save2@CConfig@Core@IronMan@@QEAAXV?$basic_string@DU?$char_traits@D@std@@V?$allocator@D@2@@std@@@Z@4HA
	DD	imagerel ?dtor$10@?0??Save2@CConfig@Core@IronMan@@QEAAXV?$basic_string@DU?$char_traits@D@std@@V?$allocator@D@2@@std@@@Z@4HA+27
	DD	imagerel $unwind$?dtor$10@?0??Save2@CConfig@Core@IronMan@@QEAAXV?$basic_string@DU?$char_traits@D@std@@V?$allocator@D@2@@std@@@Z@4HA
$pdata$?dtor$11@?0??Save2@CConfig@Core@IronMan@@QEAAXV?$basic_string@DU?$char_traits@D@std@@V?$allocator@D@2@@std@@@Z@4HA DD imagerel ?dtor$11@?0??Save2@CConfig@Core@IronMan@@QEAAXV?$basic_string@DU?$char_traits@D@std@@V?$allocator@D@2@@std@@@Z@4HA
	DD	imagerel ?dtor$11@?0??Save2@CConfig@Core@IronMan@@QEAAXV?$basic_string@DU?$char_traits@D@std@@V?$allocator@D@2@@std@@@Z@4HA+27
	DD	imagerel $unwind$?dtor$11@?0??Save2@CConfig@Core@IronMan@@QEAAXV?$basic_string@DU?$char_traits@D@std@@V?$allocator@D@2@@std@@@Z@4HA
$pdata$?dtor$12@?0??Save2@CConfig@Core@IronMan@@QEAAXV?$basic_string@DU?$char_traits@D@std@@V?$allocator@D@2@@std@@@Z@4HA DD imagerel ?dtor$12@?0??Save2@CConfig@Core@IronMan@@QEAAXV?$basic_string@DU?$char_traits@D@std@@V?$allocator@D@2@@std@@@Z@4HA
	DD	imagerel ?dtor$12@?0??Save2@CConfig@Core@IronMan@@QEAAXV?$basic_string@DU?$char_traits@D@std@@V?$allocator@D@2@@std@@@Z@4HA+27
	DD	imagerel $unwind$?dtor$12@?0??Save2@CConfig@Core@IronMan@@QEAAXV?$basic_string@DU?$char_traits@D@std@@V?$allocator@D@2@@std@@@Z@4HA
$pdata$?dtor$13@?0??Save2@CConfig@Core@IronMan@@QEAAXV?$basic_string@DU?$char_traits@D@std@@V?$allocator@D@2@@std@@@Z@4HA DD imagerel ?dtor$13@?0??Save2@CConfig@Core@IronMan@@QEAAXV?$basic_string@DU?$char_traits@D@std@@V?$allocator@D@2@@std@@@Z@4HA
	DD	imagerel ?dtor$13@?0??Save2@CConfig@Core@IronMan@@QEAAXV?$basic_string@DU?$char_traits@D@std@@V?$allocator@D@2@@std@@@Z@4HA+27
	DD	imagerel $unwind$?dtor$13@?0??Save2@CConfig@Core@IronMan@@QEAAXV?$basic_string@DU?$char_traits@D@std@@V?$allocator@D@2@@std@@@Z@4HA
$pdata$?dtor$14@?0??Save2@CConfig@Core@IronMan@@QEAAXV?$basic_string@DU?$char_traits@D@std@@V?$allocator@D@2@@std@@@Z@4HA DD imagerel ?dtor$14@?0??Save2@CConfig@Core@IronMan@@QEAAXV?$basic_string@DU?$char_traits@D@std@@V?$allocator@D@2@@std@@@Z@4HA
	DD	imagerel ?dtor$14@?0??Save2@CConfig@Core@IronMan@@QEAAXV?$basic_string@DU?$char_traits@D@std@@V?$allocator@D@2@@std@@@Z@4HA+27
	DD	imagerel $unwind$?dtor$14@?0??Save2@CConfig@Core@IronMan@@QEAAXV?$basic_string@DU?$char_traits@D@std@@V?$allocator@D@2@@std@@@Z@4HA
$pdata$?dtor$15@?0??Save2@CConfig@Core@IronMan@@QEAAXV?$basic_string@DU?$char_traits@D@std@@V?$allocator@D@2@@std@@@Z@4HA DD imagerel ?dtor$15@?0??Save2@CConfig@Core@IronMan@@QEAAXV?$basic_string@DU?$char_traits@D@std@@V?$allocator@D@2@@std@@@Z@4HA
	DD	imagerel ?dtor$15@?0??Save2@CConfig@Core@IronMan@@QEAAXV?$basic_string@DU?$char_traits@D@std@@V?$allocator@D@2@@std@@@Z@4HA+27
	DD	imagerel $unwind$?dtor$15@?0??Save2@CConfig@Core@IronMan@@QEAAXV?$basic_string@DU?$char_traits@D@std@@V?$allocator@D@2@@std@@@Z@4HA
$pdata$?dtor$16@?0??Save2@CConfig@Core@IronMan@@QEAAXV?$basic_string@DU?$char_traits@D@std@@V?$allocator@D@2@@std@@@Z@4HA DD imagerel ?dtor$16@?0??Save2@CConfig@Core@IronMan@@QEAAXV?$basic_string@DU?$char_traits@D@std@@V?$allocator@D@2@@std@@@Z@4HA
	DD	imagerel ?dtor$16@?0??Save2@CConfig@Core@IronMan@@QEAAXV?$basic_string@DU?$char_traits@D@std@@V?$allocator@D@2@@std@@@Z@4HA+27
	DD	imagerel $unwind$?dtor$16@?0??Save2@CConfig@Core@IronMan@@QEAAXV?$basic_string@DU?$char_traits@D@std@@V?$allocator@D@2@@std@@@Z@4HA
$pdata$?dtor$17@?0??Save2@CConfig@Core@IronMan@@QEAAXV?$basic_string@DU?$char_traits@D@std@@V?$allocator@D@2@@std@@@Z@4HA DD imagerel ?dtor$17@?0??Save2@CConfig@Core@IronMan@@QEAAXV?$basic_string@DU?$char_traits@D@std@@V?$allocator@D@2@@std@@@Z@4HA
	DD	imagerel ?dtor$17@?0??Save2@CConfig@Core@IronMan@@QEAAXV?$basic_string@DU?$char_traits@D@std@@V?$allocator@D@2@@std@@@Z@4HA+27
	DD	imagerel $unwind$?dtor$17@?0??Save2@CConfig@Core@IronMan@@QEAAXV?$basic_string@DU?$char_traits@D@std@@V?$allocator@D@2@@std@@@Z@4HA
$pdata$?dtor$18@?0??Save2@CConfig@Core@IronMan@@QEAAXV?$basic_string@DU?$char_traits@D@std@@V?$allocator@D@2@@std@@@Z@4HA DD imagerel ?dtor$18@?0??Save2@CConfig@Core@IronMan@@QEAAXV?$basic_string@DU?$char_traits@D@std@@V?$allocator@D@2@@std@@@Z@4HA
	DD	imagerel ?dtor$18@?0??Save2@CConfig@Core@IronMan@@QEAAXV?$basic_string@DU?$char_traits@D@std@@V?$allocator@D@2@@std@@@Z@4HA+27
	DD	imagerel $unwind$?dtor$18@?0??Save2@CConfig@Core@IronMan@@QEAAXV?$basic_string@DU?$char_traits@D@std@@V?$allocator@D@2@@std@@@Z@4HA
$pdata$?dtor$19@?0??Save2@CConfig@Core@IronMan@@QEAAXV?$basic_string@DU?$char_traits@D@std@@V?$allocator@D@2@@std@@@Z@4HA DD imagerel ?dtor$19@?0??Save2@CConfig@Core@IronMan@@QEAAXV?$basic_string@DU?$char_traits@D@std@@V?$allocator@D@2@@std@@@Z@4HA
	DD	imagerel ?dtor$19@?0??Save2@CConfig@Core@IronMan@@QEAAXV?$basic_string@DU?$char_traits@D@std@@V?$allocator@D@2@@std@@@Z@4HA+27
	DD	imagerel $unwind$?dtor$19@?0??Save2@CConfig@Core@IronMan@@QEAAXV?$basic_string@DU?$char_traits@D@std@@V?$allocator@D@2@@std@@@Z@4HA
$pdata$?dtor$20@?0??Save2@CConfig@Core@IronMan@@QEAAXV?$basic_string@DU?$char_traits@D@std@@V?$allocator@D@2@@std@@@Z@4HA DD imagerel ?dtor$20@?0??Save2@CConfig@Core@IronMan@@QEAAXV?$basic_string@DU?$char_traits@D@std@@V?$allocator@D@2@@std@@@Z@4HA
	DD	imagerel ?dtor$20@?0??Save2@CConfig@Core@IronMan@@QEAAXV?$basic_string@DU?$char_traits@D@std@@V?$allocator@D@2@@std@@@Z@4HA+27
	DD	imagerel $unwind$?dtor$20@?0??Save2@CConfig@Core@IronMan@@QEAAXV?$basic_string@DU?$char_traits@D@std@@V?$allocator@D@2@@std@@@Z@4HA
pdata	ENDS
pdata	SEGMENT
$pdata$?Load@CConfig@Core@IronMan@@QEAAXV?$basic_string@DU?$char_traits@D@std@@V?$allocator@D@2@@std@@@Z DD imagerel $LN93
	DD	imagerel $LN93+4910
	DD	imagerel $unwind$?Load@CConfig@Core@IronMan@@QEAAXV?$basic_string@DU?$char_traits@D@std@@V?$allocator@D@2@@std@@@Z
pdata	ENDS
pdata	SEGMENT
$pdata$?dtor$0@?0??Load@CConfig@Core@IronMan@@QEAAXV?$basic_string@DU?$char_traits@D@std@@V?$allocator@D@2@@std@@@Z@4HA DD imagerel ?dtor$0@?0??Load@CConfig@Core@IronMan@@QEAAXV?$basic_string@DU?$char_traits@D@std@@V?$allocator@D@2@@std@@@Z@4HA
	DD	imagerel ?dtor$0@?0??Load@CConfig@Core@IronMan@@QEAAXV?$basic_string@DU?$char_traits@D@std@@V?$allocator@D@2@@std@@@Z@4HA+27
	DD	imagerel $unwind$?dtor$0@?0??Load@CConfig@Core@IronMan@@QEAAXV?$basic_string@DU?$char_traits@D@std@@V?$allocator@D@2@@std@@@Z@4HA
$pdata$?dtor$1@?0??Load@CConfig@Core@IronMan@@QEAAXV?$basic_string@DU?$char_traits@D@std@@V?$allocator@D@2@@std@@@Z@4HA DD imagerel ?dtor$1@?0??Load@CConfig@Core@IronMan@@QEAAXV?$basic_string@DU?$char_traits@D@std@@V?$allocator@D@2@@std@@@Z@4HA
	DD	imagerel ?dtor$1@?0??Load@CConfig@Core@IronMan@@QEAAXV?$basic_string@DU?$char_traits@D@std@@V?$allocator@D@2@@std@@@Z@4HA+27
	DD	imagerel $unwind$?dtor$1@?0??Load@CConfig@Core@IronMan@@QEAAXV?$basic_string@DU?$char_traits@D@std@@V?$allocator@D@2@@std@@@Z@4HA
$pdata$?dtor$2@?0??Load@CConfig@Core@IronMan@@QEAAXV?$basic_string@DU?$char_traits@D@std@@V?$allocator@D@2@@std@@@Z@4HA DD imagerel ?dtor$2@?0??Load@CConfig@Core@IronMan@@QEAAXV?$basic_string@DU?$char_traits@D@std@@V?$allocator@D@2@@std@@@Z@4HA
	DD	imagerel ?dtor$2@?0??Load@CConfig@Core@IronMan@@QEAAXV?$basic_string@DU?$char_traits@D@std@@V?$allocator@D@2@@std@@@Z@4HA+27
	DD	imagerel $unwind$?dtor$2@?0??Load@CConfig@Core@IronMan@@QEAAXV?$basic_string@DU?$char_traits@D@std@@V?$allocator@D@2@@std@@@Z@4HA
$pdata$?dtor$3@?0??Load@CConfig@Core@IronMan@@QEAAXV?$basic_string@DU?$char_traits@D@std@@V?$allocator@D@2@@std@@@Z@4HA DD imagerel ?dtor$3@?0??Load@CConfig@Core@IronMan@@QEAAXV?$basic_string@DU?$char_traits@D@std@@V?$allocator@D@2@@std@@@Z@4HA
	DD	imagerel ?dtor$3@?0??Load@CConfig@Core@IronMan@@QEAAXV?$basic_string@DU?$char_traits@D@std@@V?$allocator@D@2@@std@@@Z@4HA+27
	DD	imagerel $unwind$?dtor$3@?0??Load@CConfig@Core@IronMan@@QEAAXV?$basic_string@DU?$char_traits@D@std@@V?$allocator@D@2@@std@@@Z@4HA
$pdata$?dtor$4@?0??Load@CConfig@Core@IronMan@@QEAAXV?$basic_string@DU?$char_traits@D@std@@V?$allocator@D@2@@std@@@Z@4HA DD imagerel ?dtor$4@?0??Load@CConfig@Core@IronMan@@QEAAXV?$basic_string@DU?$char_traits@D@std@@V?$allocator@D@2@@std@@@Z@4HA
	DD	imagerel ?dtor$4@?0??Load@CConfig@Core@IronMan@@QEAAXV?$basic_string@DU?$char_traits@D@std@@V?$allocator@D@2@@std@@@Z@4HA+27
	DD	imagerel $unwind$?dtor$4@?0??Load@CConfig@Core@IronMan@@QEAAXV?$basic_string@DU?$char_traits@D@std@@V?$allocator@D@2@@std@@@Z@4HA
$pdata$?dtor$5@?0??Load@CConfig@Core@IronMan@@QEAAXV?$basic_string@DU?$char_traits@D@std@@V?$allocator@D@2@@std@@@Z@4HA DD imagerel ?dtor$5@?0??Load@CConfig@Core@IronMan@@QEAAXV?$basic_string@DU?$char_traits@D@std@@V?$allocator@D@2@@std@@@Z@4HA
	DD	imagerel ?dtor$5@?0??Load@CConfig@Core@IronMan@@QEAAXV?$basic_string@DU?$char_traits@D@std@@V?$allocator@D@2@@std@@@Z@4HA+27
	DD	imagerel $unwind$?dtor$5@?0??Load@CConfig@Core@IronMan@@QEAAXV?$basic_string@DU?$char_traits@D@std@@V?$allocator@D@2@@std@@@Z@4HA
$pdata$?dtor$6@?0??Load@CConfig@Core@IronMan@@QEAAXV?$basic_string@DU?$char_traits@D@std@@V?$allocator@D@2@@std@@@Z@4HA DD imagerel ?dtor$6@?0??Load@CConfig@Core@IronMan@@QEAAXV?$basic_string@DU?$char_traits@D@std@@V?$allocator@D@2@@std@@@Z@4HA
	DD	imagerel ?dtor$6@?0??Load@CConfig@Core@IronMan@@QEAAXV?$basic_string@DU?$char_traits@D@std@@V?$allocator@D@2@@std@@@Z@4HA+27
	DD	imagerel $unwind$?dtor$6@?0??Load@CConfig@Core@IronMan@@QEAAXV?$basic_string@DU?$char_traits@D@std@@V?$allocator@D@2@@std@@@Z@4HA
$pdata$?dtor$7@?0??Load@CConfig@Core@IronMan@@QEAAXV?$basic_string@DU?$char_traits@D@std@@V?$allocator@D@2@@std@@@Z@4HA DD imagerel ?dtor$7@?0??Load@CConfig@Core@IronMan@@QEAAXV?$basic_string@DU?$char_traits@D@std@@V?$allocator@D@2@@std@@@Z@4HA
	DD	imagerel ?dtor$7@?0??Load@CConfig@Core@IronMan@@QEAAXV?$basic_string@DU?$char_traits@D@std@@V?$allocator@D@2@@std@@@Z@4HA+27
	DD	imagerel $unwind$?dtor$7@?0??Load@CConfig@Core@IronMan@@QEAAXV?$basic_string@DU?$char_traits@D@std@@V?$allocator@D@2@@std@@@Z@4HA
$pdata$?dtor$8@?0??Load@CConfig@Core@IronMan@@QEAAXV?$basic_string@DU?$char_traits@D@std@@V?$allocator@D@2@@std@@@Z@4HA DD imagerel ?dtor$8@?0??Load@CConfig@Core@IronMan@@QEAAXV?$basic_string@DU?$char_traits@D@std@@V?$allocator@D@2@@std@@@Z@4HA
	DD	imagerel ?dtor$8@?0??Load@CConfig@Core@IronMan@@QEAAXV?$basic_string@DU?$char_traits@D@std@@V?$allocator@D@2@@std@@@Z@4HA+27
	DD	imagerel $unwind$?dtor$8@?0??Load@CConfig@Core@IronMan@@QEAAXV?$basic_string@DU?$char_traits@D@std@@V?$allocator@D@2@@std@@@Z@4HA
$pdata$?dtor$9@?0??Load@CConfig@Core@IronMan@@QEAAXV?$basic_string@DU?$char_traits@D@std@@V?$allocator@D@2@@std@@@Z@4HA DD imagerel ?dtor$9@?0??Load@CConfig@Core@IronMan@@QEAAXV?$basic_string@DU?$char_traits@D@std@@V?$allocator@D@2@@std@@@Z@4HA
	DD	imagerel ?dtor$9@?0??Load@CConfig@Core@IronMan@@QEAAXV?$basic_string@DU?$char_traits@D@std@@V?$allocator@D@2@@std@@@Z@4HA+27
	DD	imagerel $unwind$?dtor$9@?0??Load@CConfig@Core@IronMan@@QEAAXV?$basic_string@DU?$char_traits@D@std@@V?$allocator@D@2@@std@@@Z@4HA
$pdata$?dtor$10@?0??Load@CConfig@Core@IronMan@@QEAAXV?$basic_string@DU?$char_traits@D@std@@V?$allocator@D@2@@std@@@Z@4HA DD imagerel ?dtor$10@?0??Load@CConfig@Core@IronMan@@QEAAXV?$basic_string@DU?$char_traits@D@std@@V?$allocator@D@2@@std@@@Z@4HA
	DD	imagerel ?dtor$10@?0??Load@CConfig@Core@IronMan@@QEAAXV?$basic_string@DU?$char_traits@D@std@@V?$allocator@D@2@@std@@@Z@4HA+27
	DD	imagerel $unwind$?dtor$10@?0??Load@CConfig@Core@IronMan@@QEAAXV?$basic_string@DU?$char_traits@D@std@@V?$allocator@D@2@@std@@@Z@4HA
$pdata$?dtor$11@?0??Load@CConfig@Core@IronMan@@QEAAXV?$basic_string@DU?$char_traits@D@std@@V?$allocator@D@2@@std@@@Z@4HA DD imagerel ?dtor$11@?0??Load@CConfig@Core@IronMan@@QEAAXV?$basic_string@DU?$char_traits@D@std@@V?$allocator@D@2@@std@@@Z@4HA
	DD	imagerel ?dtor$11@?0??Load@CConfig@Core@IronMan@@QEAAXV?$basic_string@DU?$char_traits@D@std@@V?$allocator@D@2@@std@@@Z@4HA+27
	DD	imagerel $unwind$?dtor$11@?0??Load@CConfig@Core@IronMan@@QEAAXV?$basic_string@DU?$char_traits@D@std@@V?$allocator@D@2@@std@@@Z@4HA
$pdata$?dtor$12@?0??Load@CConfig@Core@IronMan@@QEAAXV?$basic_string@DU?$char_traits@D@std@@V?$allocator@D@2@@std@@@Z@4HA DD imagerel ?dtor$12@?0??Load@CConfig@Core@IronMan@@QEAAXV?$basic_string@DU?$char_traits@D@std@@V?$allocator@D@2@@std@@@Z@4HA
	DD	imagerel ?dtor$12@?0??Load@CConfig@Core@IronMan@@QEAAXV?$basic_string@DU?$char_traits@D@std@@V?$allocator@D@2@@std@@@Z@4HA+27
	DD	imagerel $unwind$?dtor$12@?0??Load@CConfig@Core@IronMan@@QEAAXV?$basic_string@DU?$char_traits@D@std@@V?$allocator@D@2@@std@@@Z@4HA
$pdata$?dtor$13@?0??Load@CConfig@Core@IronMan@@QEAAXV?$basic_string@DU?$char_traits@D@std@@V?$allocator@D@2@@std@@@Z@4HA DD imagerel ?dtor$13@?0??Load@CConfig@Core@IronMan@@QEAAXV?$basic_string@DU?$char_traits@D@std@@V?$allocator@D@2@@std@@@Z@4HA
	DD	imagerel ?dtor$13@?0??Load@CConfig@Core@IronMan@@QEAAXV?$basic_string@DU?$char_traits@D@std@@V?$allocator@D@2@@std@@@Z@4HA+27
	DD	imagerel $unwind$?dtor$13@?0??Load@CConfig@Core@IronMan@@QEAAXV?$basic_string@DU?$char_traits@D@std@@V?$allocator@D@2@@std@@@Z@4HA
$pdata$?dtor$14@?0??Load@CConfig@Core@IronMan@@QEAAXV?$basic_string@DU?$char_traits@D@std@@V?$allocator@D@2@@std@@@Z@4HA DD imagerel ?dtor$14@?0??Load@CConfig@Core@IronMan@@QEAAXV?$basic_string@DU?$char_traits@D@std@@V?$allocator@D@2@@std@@@Z@4HA
	DD	imagerel ?dtor$14@?0??Load@CConfig@Core@IronMan@@QEAAXV?$basic_string@DU?$char_traits@D@std@@V?$allocator@D@2@@std@@@Z@4HA+27
	DD	imagerel $unwind$?dtor$14@?0??Load@CConfig@Core@IronMan@@QEAAXV?$basic_string@DU?$char_traits@D@std@@V?$allocator@D@2@@std@@@Z@4HA
$pdata$?dtor$15@?0??Load@CConfig@Core@IronMan@@QEAAXV?$basic_string@DU?$char_traits@D@std@@V?$allocator@D@2@@std@@@Z@4HA DD imagerel ?dtor$15@?0??Load@CConfig@Core@IronMan@@QEAAXV?$basic_string@DU?$char_traits@D@std@@V?$allocator@D@2@@std@@@Z@4HA
	DD	imagerel ?dtor$15@?0??Load@CConfig@Core@IronMan@@QEAAXV?$basic_string@DU?$char_traits@D@std@@V?$allocator@D@2@@std@@@Z@4HA+27
	DD	imagerel $unwind$?dtor$15@?0??Load@CConfig@Core@IronMan@@QEAAXV?$basic_string@DU?$char_traits@D@std@@V?$allocator@D@2@@std@@@Z@4HA
$pdata$?dtor$16@?0??Load@CConfig@Core@IronMan@@QEAAXV?$basic_string@DU?$char_traits@D@std@@V?$allocator@D@2@@std@@@Z@4HA DD imagerel ?dtor$16@?0??Load@CConfig@Core@IronMan@@QEAAXV?$basic_string@DU?$char_traits@D@std@@V?$allocator@D@2@@std@@@Z@4HA
	DD	imagerel ?dtor$16@?0??Load@CConfig@Core@IronMan@@QEAAXV?$basic_string@DU?$char_traits@D@std@@V?$allocator@D@2@@std@@@Z@4HA+27
	DD	imagerel $unwind$?dtor$16@?0??Load@CConfig@Core@IronMan@@QEAAXV?$basic_string@DU?$char_traits@D@std@@V?$allocator@D@2@@std@@@Z@4HA
$pdata$?dtor$17@?0??Load@CConfig@Core@IronMan@@QEAAXV?$basic_string@DU?$char_traits@D@std@@V?$allocator@D@2@@std@@@Z@4HA DD imagerel ?dtor$17@?0??Load@CConfig@Core@IronMan@@QEAAXV?$basic_string@DU?$char_traits@D@std@@V?$allocator@D@2@@std@@@Z@4HA
	DD	imagerel ?dtor$17@?0??Load@CConfig@Core@IronMan@@QEAAXV?$basic_string@DU?$char_traits@D@std@@V?$allocator@D@2@@std@@@Z@4HA+27
	DD	imagerel $unwind$?dtor$17@?0??Load@CConfig@Core@IronMan@@QEAAXV?$basic_string@DU?$char_traits@D@std@@V?$allocator@D@2@@std@@@Z@4HA
$pdata$?dtor$18@?0??Load@CConfig@Core@IronMan@@QEAAXV?$basic_string@DU?$char_traits@D@std@@V?$allocator@D@2@@std@@@Z@4HA DD imagerel ?dtor$18@?0??Load@CConfig@Core@IronMan@@QEAAXV?$basic_string@DU?$char_traits@D@std@@V?$allocator@D@2@@std@@@Z@4HA
	DD	imagerel ?dtor$18@?0??Load@CConfig@Core@IronMan@@QEAAXV?$basic_string@DU?$char_traits@D@std@@V?$allocator@D@2@@std@@@Z@4HA+24
	DD	imagerel $unwind$?dtor$18@?0??Load@CConfig@Core@IronMan@@QEAAXV?$basic_string@DU?$char_traits@D@std@@V?$allocator@D@2@@std@@@Z@4HA
pdata	ENDS
pdata	SEGMENT
$pdata$?SaveThread@CConfig@Core@IronMan@@QEAAXV?$basic_string@DU?$char_traits@D@std@@V?$allocator@D@2@@std@@@Z DD imagerel $LN5
	DD	imagerel $LN5+99
	DD	imagerel $unwind$?SaveThread@CConfig@Core@IronMan@@QEAAXV?$basic_string@DU?$char_traits@D@std@@V?$allocator@D@2@@std@@@Z
pdata	ENDS
pdata	SEGMENT
$pdata$?dtor$0@?0??SaveThread@CConfig@Core@IronMan@@QEAAXV?$basic_string@DU?$char_traits@D@std@@V?$allocator@D@2@@std@@@Z@4HA DD imagerel ?dtor$0@?0??SaveThread@CConfig@Core@IronMan@@QEAAXV?$basic_string@DU?$char_traits@D@std@@V?$allocator@D@2@@std@@@Z@4HA
	DD	imagerel ?dtor$0@?0??SaveThread@CConfig@Core@IronMan@@QEAAXV?$basic_string@DU?$char_traits@D@std@@V?$allocator@D@2@@std@@@Z@4HA+24
	DD	imagerel $unwind$?dtor$0@?0??SaveThread@CConfig@Core@IronMan@@QEAAXV?$basic_string@DU?$char_traits@D@std@@V?$allocator@D@2@@std@@@Z@4HA
$pdata$?dtor$1@?0??SaveThread@CConfig@Core@IronMan@@QEAAXV?$basic_string@DU?$char_traits@D@std@@V?$allocator@D@2@@std@@@Z@4HA DD imagerel ?dtor$1@?0??SaveThread@CConfig@Core@IronMan@@QEAAXV?$basic_string@DU?$char_traits@D@std@@V?$allocator@D@2@@std@@@Z@4HA
	DD	imagerel ?dtor$1@?0??SaveThread@CConfig@Core@IronMan@@QEAAXV?$basic_string@DU?$char_traits@D@std@@V?$allocator@D@2@@std@@@Z@4HA+24
	DD	imagerel $unwind$?dtor$1@?0??SaveThread@CConfig@Core@IronMan@@QEAAXV?$basic_string@DU?$char_traits@D@std@@V?$allocator@D@2@@std@@@Z@4HA
pdata	ENDS
pdata	SEGMENT
$pdata$?ThreadSave@CConfig@Core@IronMan@@QEAA_NV?$basic_string@DU?$char_traits@D@std@@V?$allocator@D@2@@std@@@Z DD imagerel $LN17
	DD	imagerel $LN17+301
	DD	imagerel $unwind$?ThreadSave@CConfig@Core@IronMan@@QEAA_NV?$basic_string@DU?$char_traits@D@std@@V?$allocator@D@2@@std@@@Z
pdata	ENDS
pdata	SEGMENT
$pdata$?dtor$0@?0??ThreadSave@CConfig@Core@IronMan@@QEAA_NV?$basic_string@DU?$char_traits@D@std@@V?$allocator@D@2@@std@@@Z@4HA DD imagerel ?dtor$0@?0??ThreadSave@CConfig@Core@IronMan@@QEAA_NV?$basic_string@DU?$char_traits@D@std@@V?$allocator@D@2@@std@@@Z@4HA
	DD	imagerel ?dtor$0@?0??ThreadSave@CConfig@Core@IronMan@@QEAA_NV?$basic_string@DU?$char_traits@D@std@@V?$allocator@D@2@@std@@@Z@4HA+27
	DD	imagerel $unwind$?dtor$0@?0??ThreadSave@CConfig@Core@IronMan@@QEAA_NV?$basic_string@DU?$char_traits@D@std@@V?$allocator@D@2@@std@@@Z@4HA
