; Listing generated by Microsoft (R) Optimizing Compiler Version 19.43.34810.0 

include listing.inc

INCLUDELIB LIBCMT
INCLUDELIB OLDNAMES

PUBLIC	??_C@_06GLKGGCJO@LcOpen@			; `string'
PUBLIC	??_C@_06GJPHNGFG@LcRead@			; `string'
PUBLIC	??_C@_0O@CBBNAKKC@LcReadScatter@		; `string'
PUBLIC	??_C@_07MBHEMNEL@LcWrite@			; `string'
PUBLIC	??_C@_0P@DAJMPOFM@LcWriteScatter@		; `string'
PUBLIC	??_C@_0M@HBBFEIGD@LcGetOption@			; `string'
PUBLIC	??_C@_0M@FPFAGJPB@LcSetOption@			; `string'
PUBLIC	??_C@_09DCHLEDFD@LcCommand@			; `string'
PUBLIC	??_C@_03HPADHAHE@N?1A@				; `string'
PUBLIC	??_C@_03HDGGCCPD@X86@				; `string'
PUBLIC	??_C@_06IDLKBMKC@X86PAE@			; `string'
PUBLIC	??_C@_03ELMOGNHL@X64@				; `string'
PUBLIC	??_C@_05DKFIPBAL@ARM64@				; `string'
PUBLIC	??_C@_04PCJGBDOP@Zero@				; `string'
PUBLIC	??_C@_04HJMOFLDF@Free@				; `string'
PUBLIC	??_C@_07LNBDIIPN@Standby@			; `string'
PUBLIC	??_C@_07PFEKAJBJ@Modifiy@			; `string'
PUBLIC	??_C@_07DGKCKENG@ModNoWr@			; `string'
PUBLIC	??_C@_03KHCCLPOB@Bad@				; `string'
PUBLIC	??_C@_06MAFFGDO@Active@				; `string'
PUBLIC	??_C@_07KADDEKFE@Transit@			; `string'
PUBLIC	??_C@_01JOAMLHOP@?9@				; `string'
PUBLIC	??_C@_06CGLFEPBO@Unused@			; `string'
PUBLIC	??_C@_08LBAJPEDB@ProcPriv@			; `string'
PUBLIC	??_C@_09BGPMMIPE@PageTable@			; `string'
PUBLIC	??_C@_09MFCNICMF@LargePage@			; `string'
PUBLIC	??_C@_0L@DHBAIELD@DriverLock@			; `string'
PUBLIC	??_C@_09PKFILKGD@Shareable@			; `string'
PUBLIC	??_C@_04PBAHLACE@File@				; `string'
PUBLIC	_Avx2WmemEnabledWeakValue
;	COMDAT _Avx2WmemEnabledWeakValue
_BSS	SEGMENT
_Avx2WmemEnabledWeakValue DD 01H DUP (?)
_BSS	ENDS
;	COMDAT ??_C@_04PBAHLACE@File@
CONST	SEGMENT
??_C@_04PBAHLACE@File@ DB 'File', 00H			; `string'
CONST	ENDS
;	COMDAT ??_C@_09PKFILKGD@Shareable@
CONST	SEGMENT
??_C@_09PKFILKGD@Shareable@ DB 'Shareable', 00H		; `string'
CONST	ENDS
;	COMDAT ??_C@_0L@DHBAIELD@DriverLock@
CONST	SEGMENT
??_C@_0L@DHBAIELD@DriverLock@ DB 'DriverLock', 00H	; `string'
CONST	ENDS
;	COMDAT ??_C@_09MFCNICMF@LargePage@
CONST	SEGMENT
??_C@_09MFCNICMF@LargePage@ DB 'LargePage', 00H		; `string'
CONST	ENDS
;	COMDAT ??_C@_09BGPMMIPE@PageTable@
CONST	SEGMENT
??_C@_09BGPMMIPE@PageTable@ DB 'PageTable', 00H		; `string'
CONST	ENDS
;	COMDAT ??_C@_08LBAJPEDB@ProcPriv@
CONST	SEGMENT
??_C@_08LBAJPEDB@ProcPriv@ DB 'ProcPriv', 00H		; `string'
CONST	ENDS
;	COMDAT ??_C@_06CGLFEPBO@Unused@
CONST	SEGMENT
??_C@_06CGLFEPBO@Unused@ DB 'Unused', 00H		; `string'
CONST	ENDS
;	COMDAT ??_C@_01JOAMLHOP@?9@
CONST	SEGMENT
??_C@_01JOAMLHOP@?9@ DB '-', 00H			; `string'
CONST	ENDS
;	COMDAT ??_C@_07KADDEKFE@Transit@
CONST	SEGMENT
??_C@_07KADDEKFE@Transit@ DB 'Transit', 00H		; `string'
CONST	ENDS
;	COMDAT ??_C@_06MAFFGDO@Active@
CONST	SEGMENT
??_C@_06MAFFGDO@Active@ DB 'Active', 00H		; `string'
CONST	ENDS
;	COMDAT ??_C@_03KHCCLPOB@Bad@
CONST	SEGMENT
??_C@_03KHCCLPOB@Bad@ DB 'Bad', 00H			; `string'
CONST	ENDS
;	COMDAT ??_C@_07DGKCKENG@ModNoWr@
CONST	SEGMENT
??_C@_07DGKCKENG@ModNoWr@ DB 'ModNoWr', 00H		; `string'
CONST	ENDS
;	COMDAT ??_C@_07PFEKAJBJ@Modifiy@
CONST	SEGMENT
??_C@_07PFEKAJBJ@Modifiy@ DB 'Modifiy', 00H		; `string'
CONST	ENDS
;	COMDAT ??_C@_07LNBDIIPN@Standby@
CONST	SEGMENT
??_C@_07LNBDIIPN@Standby@ DB 'Standby', 00H		; `string'
CONST	ENDS
;	COMDAT ??_C@_04HJMOFLDF@Free@
CONST	SEGMENT
??_C@_04HJMOFLDF@Free@ DB 'Free', 00H			; `string'
CONST	ENDS
;	COMDAT ??_C@_04PCJGBDOP@Zero@
CONST	SEGMENT
??_C@_04PCJGBDOP@Zero@ DB 'Zero', 00H			; `string'
CONST	ENDS
;	COMDAT ??_C@_05DKFIPBAL@ARM64@
CONST	SEGMENT
??_C@_05DKFIPBAL@ARM64@ DB 'ARM64', 00H			; `string'
CONST	ENDS
;	COMDAT ??_C@_03ELMOGNHL@X64@
CONST	SEGMENT
??_C@_03ELMOGNHL@X64@ DB 'X64', 00H			; `string'
CONST	ENDS
;	COMDAT ??_C@_06IDLKBMKC@X86PAE@
CONST	SEGMENT
??_C@_06IDLKBMKC@X86PAE@ DB 'X86PAE', 00H		; `string'
CONST	ENDS
;	COMDAT ??_C@_03HDGGCCPD@X86@
CONST	SEGMENT
??_C@_03HDGGCCPD@X86@ DB 'X86', 00H			; `string'
CONST	ENDS
;	COMDAT ??_C@_03HPADHAHE@N?1A@
CONST	SEGMENT
??_C@_03HPADHAHE@N?1A@ DB 'N/A', 00H			; `string'
CONST	ENDS
;	COMDAT ??_C@_09DCHLEDFD@LcCommand@
CONST	SEGMENT
??_C@_09DCHLEDFD@LcCommand@ DB 'LcCommand', 00H		; `string'
CONST	ENDS
;	COMDAT ??_C@_0M@FPFAGJPB@LcSetOption@
CONST	SEGMENT
??_C@_0M@FPFAGJPB@LcSetOption@ DB 'LcSetOption', 00H	; `string'
CONST	ENDS
;	COMDAT ??_C@_0M@HBBFEIGD@LcGetOption@
CONST	SEGMENT
??_C@_0M@HBBFEIGD@LcGetOption@ DB 'LcGetOption', 00H	; `string'
CONST	ENDS
;	COMDAT ??_C@_0P@DAJMPOFM@LcWriteScatter@
CONST	SEGMENT
??_C@_0P@DAJMPOFM@LcWriteScatter@ DB 'LcWriteScatter', 00H ; `string'
CONST	ENDS
;	COMDAT ??_C@_07MBHEMNEL@LcWrite@
CONST	SEGMENT
??_C@_07MBHEMNEL@LcWrite@ DB 'LcWrite', 00H		; `string'
CONST	ENDS
;	COMDAT ??_C@_0O@CBBNAKKC@LcReadScatter@
CONST	SEGMENT
??_C@_0O@CBBNAKKC@LcReadScatter@ DB 'LcReadScatter', 00H ; `string'
CONST	ENDS
;	COMDAT ??_C@_06GJPHNGFG@LcRead@
CONST	SEGMENT
??_C@_06GJPHNGFG@LcRead@ DB 'LcRead', 00H		; `string'
CONST	ENDS
;	COMDAT ??_C@_06GLKGGCJO@LcOpen@
CONST	SEGMENT
??_C@_06GLKGGCJO@LcOpen@ DB 'LcOpen', 00H		; `string'
CONST	ENDS
PUBLIC	??_H@YAXPEAX_K1P6APEAX0@Z@Z			; `vector constructor iterator'
PUBLIC	__local_stdio_printf_options
PUBLIC	_vsprintf_s_l
PUBLIC	vsprintf_s
PUBLIC	_vsnprintf_s_l
PUBLIC	_vsnprintf_s
PUBLIC	?assign@?$_Narrow_char_traits@DH@std@@SAXAEADAEBD@Z ; std::_Narrow_char_traits<char,int>::assign
PUBLIC	?_Adjust_manually_vector_aligned@std@@YAXAEAPEAXAEA_K@Z ; std::_Adjust_manually_vector_aligned
PUBLIC	?_Orphan_all@_Container_base0@std@@QEAAXXZ	; std::_Container_base0::_Orphan_all
PUBLIC	?deallocate@?$allocator@D@std@@QEAAXQEAD_K@Z	; std::allocator<char>::deallocate
PUBLIC	?_Myptr@?$_String_val@U?$_Simple_types@D@std@@@std@@QEAAPEADXZ ; std::_String_val<std::_Simple_types<char> >::_Myptr
PUBLIC	?_Large_mode_engaged@?$_String_val@U?$_Simple_types@D@std@@@std@@QEBA_NXZ ; std::_String_val<std::_Simple_types<char> >::_Large_mode_engaged
PUBLIC	??1_Bxty@?$_String_val@U?$_Simple_types@D@std@@@std@@QEAA@XZ ; std::_String_val<std::_Simple_types<char> >::_Bxty::~_Bxty
PUBLIC	?_Switch_to_buf@_Bxty@?$_String_val@U?$_Simple_types@D@std@@@std@@QEAAXXZ ; std::_String_val<std::_Simple_types<char> >::_Bxty::_Switch_to_buf
PUBLIC	??1?$_String_val@U?$_Simple_types@D@std@@@std@@QEAA@XZ ; std::_String_val<std::_Simple_types<char> >::~_String_val<std::_Simple_types<char> >
PUBLIC	?_Deallocate_for_capacity@?$basic_string@DU?$char_traits@D@std@@V?$allocator@D@2@@std@@CAXAEAV?$allocator@D@2@QEAD_K@Z ; std::basic_string<char,std::char_traits<char>,std::allocator<char> >::_Deallocate_for_capacity
PUBLIC	??1?$basic_string@DU?$char_traits@D@std@@V?$allocator@D@2@@std@@QEAA@XZ ; std::basic_string<char,std::char_traits<char>,std::allocator<char> >::~basic_string<char,std::char_traits<char>,std::allocator<char> >
PUBLIC	?data@?$basic_string@DU?$char_traits@D@std@@V?$allocator@D@2@@std@@QEAAPEADXZ ; std::basic_string<char,std::char_traits<char>,std::allocator<char> >::data
PUBLIC	?length@?$basic_string@DU?$char_traits@D@std@@V?$allocator@D@2@@std@@QEBA_KXZ ; std::basic_string<char,std::char_traits<char>,std::allocator<char> >::length
PUBLIC	?_Tidy_deallocate@?$basic_string@DU?$char_traits@D@std@@V?$allocator@D@2@@std@@AEAAXXZ ; std::basic_string<char,std::char_traits<char>,std::allocator<char> >::_Tidy_deallocate
PUBLIC	?_Getal@?$basic_string@DU?$char_traits@D@std@@V?$allocator@D@2@@std@@AEAAAEAV?$allocator@D@2@XZ ; std::basic_string<char,std::char_traits<char>,std::allocator<char> >::_Getal
PUBLIC	?_Get_first@?$_Compressed_pair@V?$allocator@D@std@@V?$_String_val@U?$_Simple_types@D@std@@@2@$00@std@@QEAAAEAV?$allocator@D@2@XZ ; std::_Compressed_pair<std::allocator<char>,std::_String_val<std::_Simple_types<char> >,1>::_Get_first
PUBLIC	??1?$_Compressed_pair@V?$allocator@D@std@@V?$_String_val@U?$_Simple_types@D@std@@@2@$00@std@@QEAA@XZ ; std::_Compressed_pair<std::allocator<char>,std::_String_val<std::_Simple_types<char> >,1>::~_Compressed_pair<std::allocator<char>,std::_String_val<std::_Simple_types<char> >,1>
PUBLIC	?Attach@Console@IronMan@@YAXXZ			; IronMan::Console::Attach
PUBLIC	?Detach@Console@IronMan@@YAXXZ			; IronMan::Console::Detach
PUBLIC	?Print@Console@IronMan@@YA_NPEBDZZ		; IronMan::Console::Print
PUBLIC	?ReadKey@Console@IronMan@@YADXZ			; IronMan::Console::ReadKey
PUBLIC	?Show@Console@IronMan@@YAXXZ			; IronMan::Console::Show
PUBLIC	?Hide@Console@IronMan@@YAXXZ			; IronMan::Console::Hide
PUBLIC	??0WSInit@detail@httplib@@QEAA@XZ		; httplib::detail::WSInit::WSInit
PUBLIC	??1WSInit@detail@httplib@@QEAA@XZ		; httplib::detail::WSInit::~WSInit
PUBLIC	??0SSLInit@detail@httplib@@QEAA@XZ		; httplib::detail::SSLInit::SSLInit
PUBLIC	??$sprintf_s@$0DI@@@YAHAEAY0DI@DPEBDZZ		; sprintf_s<56>
PUBLIC	??$_vsnprintf_s@$0IAA@@@YAHAEAY0IAA@D_KPEBDPEAD@Z ; _vsnprintf_s<2048>
PUBLIC	??$_Unfancy@D@std@@YAPEADPEAD@Z			; std::_Unfancy<char>
PUBLIC	??$_Deallocate@$0BA@@std@@YAXPEAX_K@Z		; std::_Deallocate<16>
PUBLIC	??$_Destroy_in_place@PEAD@std@@YAXAEAPEAD@Z	; std::_Destroy_in_place<char *>
PUBLIC	??$?0$0A@@id@locale@std@@QEAA@XZ		; std::locale::id::id<0>
PUBLIC	?_OptionsStorage@?1??__local_stdio_printf_options@@9@4_KA ; `__local_stdio_printf_options'::`2'::_OptionsStorage
PUBLIC	??_C@_0BE@KGFNNONC@Paod?5Console?5Window@	; `string'
PUBLIC	??_C@_02DKCKIIND@?$CFs@				; `string'
PUBLIC	??_C@_08EMLABKOD@?$FL?9?$FN?5?$CFs?$AN?6@	; `string'
PUBLIC	?id@?$num_put@DV?$ostreambuf_iterator@DU?$char_traits@D@std@@@std@@@std@@2V0locale@2@A ; std::num_put<char,std::ostreambuf_iterator<char,std::char_traits<char> > >::id
PUBLIC	?id@?$codecvt@DDU_Mbstatet@@@std@@2V0locale@2@A	; std::codecvt<char,char,_Mbstatet>::id
PUBLIC	?id@?$numpunct@D@std@@2V0locale@2@A		; std::numpunct<char>::id
PUBLIC	?id@?$collate@D@std@@2V0locale@2@A		; std::collate<char>::id
EXTRN	??3@YAXPEAX_K@Z:PROC				; operator delete
EXTRN	atexit:PROC
EXTRN	_invalid_parameter_noinfo_noreturn:PROC
EXTRN	__stdio_common_vsprintf_s:PROC
EXTRN	__stdio_common_vsnprintf_s:PROC
EXTRN	__imp_GetStdHandle:PROC
EXTRN	__imp_SetStdHandle:PROC
EXTRN	__imp_ShowWindow:PROC
EXTRN	__imp_SetWindowPos:PROC
EXTRN	__imp_SetForegroundWindow:PROC
EXTRN	__imp_AllocConsole:PROC
EXTRN	__imp_FreeConsole:PROC
EXTRN	__imp_AttachConsole:PROC
EXTRN	__imp_GetConsoleMode:PROC
EXTRN	__imp_SetConsoleMode:PROC
EXTRN	__imp_ReadConsoleA:PROC
EXTRN	__imp_WriteConsoleA:PROC
EXTRN	__imp_SetConsoleOutputCP:PROC
EXTRN	__imp_SetConsoleScreenBufferSize:PROC
EXTRN	__imp_SetConsoleTitleA:PROC
EXTRN	__imp_GetConsoleWindow:PROC
EXTRN	?FormatString@Utils@IronMan@@YA?AV?$basic_string@DU?$char_traits@D@std@@V?$allocator@D@2@@std@@PEBDZZ:PROC ; IronMan::Utils::FormatString
EXTRN	__imp_WSAStartup:PROC
EXTRN	__imp_WSACleanup:PROC
EXTRN	OPENSSL_init_ssl:PROC
EXTRN	__CxxFrameHandler4:PROC
EXTRN	__GSHandlerCheck:PROC
EXTRN	__GSHandlerCheck_EH4:PROC
EXTRN	__security_check_cookie:PROC
EXTRN	__security_cookie:QWORD
;	COMDAT ?_OptionsStorage@?1??__local_stdio_printf_options@@9@4_KA
_BSS	SEGMENT
?_OptionsStorage@?1??__local_stdio_printf_options@@9@4_KA DQ 01H DUP (?) ; `__local_stdio_printf_options'::`2'::_OptionsStorage
_BSS	ENDS
_BSS	SEGMENT
?wsinit_@detail@httplib@@3VWSInit@12@A DB 01H DUP (?)	; httplib::detail::wsinit_
	ALIGN	4

?sslinit_@detail@httplib@@3VSSLInit@12@A DB 01H DUP (?)	; httplib::detail::sslinit_
	ALIGN	8

?_hConsole@Console@IronMan@@3PEAUHWND__@@EA DQ 01H DUP (?) ; IronMan::Console::_hConsole
?_hOut@Console@IronMan@@3PEAXEA DQ 01H DUP (?)		; IronMan::Console::_hOut
?_hOld_out@Console@IronMan@@3PEAXEA DQ 01H DUP (?)	; IronMan::Console::_hOld_out
?_hErr@Console@IronMan@@3PEAXEA DQ 01H DUP (?)		; IronMan::Console::_hErr
?_hOld_err@Console@IronMan@@3PEAXEA DQ 01H DUP (?)	; IronMan::Console::_hOld_err
?_hIn@Console@IronMan@@3PEAXEA DQ 01H DUP (?)		; IronMan::Console::_hIn
?_hOld_in@Console@IronMan@@3PEAXEA DQ 01H DUP (?)	; IronMan::Console::_hOld_in
_BSS	ENDS
;	COMDAT ?id@?$num_put@DV?$ostreambuf_iterator@DU?$char_traits@D@std@@@std@@@std@@2V0locale@2@A
_BSS	SEGMENT
?id@?$num_put@DV?$ostreambuf_iterator@DU?$char_traits@D@std@@@std@@@std@@2V0locale@2@A DQ 01H DUP (?) ; std::num_put<char,std::ostreambuf_iterator<char,std::char_traits<char> > >::id
_BSS	ENDS
;	COMDAT ?id@?$codecvt@DDU_Mbstatet@@@std@@2V0locale@2@A
_BSS	SEGMENT
?id@?$codecvt@DDU_Mbstatet@@@std@@2V0locale@2@A DQ 01H DUP (?) ; std::codecvt<char,char,_Mbstatet>::id
_BSS	ENDS
;	COMDAT ?id@?$numpunct@D@std@@2V0locale@2@A
_BSS	SEGMENT
?id@?$numpunct@D@std@@2V0locale@2@A DQ 01H DUP (?)	; std::numpunct<char>::id
_BSS	ENDS
;	COMDAT ?id@?$collate@D@std@@2V0locale@2@A
_BSS	SEGMENT
?id@?$collate@D@std@@2V0locale@2@A DQ 01H DUP (?)	; std::collate<char>::id
_BSS	ENDS
;	COMDAT pdata
pdata	SEGMENT
$pdata$??_H@YAXPEAX_K1P6APEAX0@Z@Z DD imagerel $LN5
	DD	imagerel $LN5+102
	DD	imagerel $unwind$??_H@YAXPEAX_K1P6APEAX0@Z@Z
pdata	ENDS
;	COMDAT pdata
pdata	SEGMENT
$pdata$_vsprintf_s_l DD imagerel $LN5
	DD	imagerel $LN5+110
	DD	imagerel $unwind$_vsprintf_s_l
pdata	ENDS
;	COMDAT pdata
pdata	SEGMENT
$pdata$vsprintf_s DD imagerel $LN3
	DD	imagerel $LN3+62
	DD	imagerel $unwind$vsprintf_s
pdata	ENDS
;	COMDAT pdata
pdata	SEGMENT
$pdata$_vsnprintf_s_l DD imagerel $LN5
	DD	imagerel $LN5+126
	DD	imagerel $unwind$_vsnprintf_s_l
pdata	ENDS
;	COMDAT pdata
pdata	SEGMENT
$pdata$_vsnprintf_s DD imagerel $LN3
	DD	imagerel $LN3+73
	DD	imagerel $unwind$_vsnprintf_s
pdata	ENDS
;	COMDAT pdata
pdata	SEGMENT
$pdata$?_Adjust_manually_vector_aligned@std@@YAXAEAPEAXAEA_K@Z DD imagerel $LN11
	DD	imagerel $LN11+154
	DD	imagerel $unwind$?_Adjust_manually_vector_aligned@std@@YAXAEAPEAXAEA_K@Z
pdata	ENDS
;	COMDAT pdata
pdata	SEGMENT
$pdata$?deallocate@?$allocator@D@std@@QEAAXQEAD_K@Z DD imagerel $LN3
	DD	imagerel $LN3+40
	DD	imagerel $unwind$?deallocate@?$allocator@D@std@@QEAAXQEAD_K@Z
pdata	ENDS
;	COMDAT pdata
pdata	SEGMENT
$pdata$?_Myptr@?$_String_val@U?$_Simple_types@D@std@@@std@@QEAAPEADXZ DD imagerel $LN4
	DD	imagerel $LN4+64
	DD	imagerel $unwind$?_Myptr@?$_String_val@U?$_Simple_types@D@std@@@std@@QEAAPEADXZ
pdata	ENDS
;	COMDAT pdata
pdata	SEGMENT
$pdata$?_Large_mode_engaged@?$_String_val@U?$_Simple_types@D@std@@@std@@QEBA_NXZ DD imagerel $LN5
	DD	imagerel $LN5+46
	DD	imagerel $unwind$?_Large_mode_engaged@?$_String_val@U?$_Simple_types@D@std@@@std@@QEBA_NXZ
pdata	ENDS
;	COMDAT pdata
pdata	SEGMENT
$pdata$?_Switch_to_buf@_Bxty@?$_String_val@U?$_Simple_types@D@std@@@std@@QEAAXXZ DD imagerel $LN3
	DD	imagerel $LN3+28
	DD	imagerel $unwind$?_Switch_to_buf@_Bxty@?$_String_val@U?$_Simple_types@D@std@@@std@@QEAAXXZ
pdata	ENDS
;	COMDAT pdata
pdata	SEGMENT
$pdata$??1?$_String_val@U?$_Simple_types@D@std@@@std@@QEAA@XZ DD imagerel $LN4
	DD	imagerel $LN4+28
	DD	imagerel $unwind$??1?$_String_val@U?$_Simple_types@D@std@@@std@@QEAA@XZ
pdata	ENDS
;	COMDAT pdata
pdata	SEGMENT
$pdata$?dtor$0@?0???1?$_String_val@U?$_Simple_types@D@std@@@std@@QEAA@XZ@4HA DD imagerel ?dtor$0@?0???1?$_String_val@U?$_Simple_types@D@std@@@std@@QEAA@XZ@4HA
	DD	imagerel ?dtor$0@?0???1?$_String_val@U?$_Simple_types@D@std@@@std@@QEAA@XZ@4HA+24
	DD	imagerel $unwind$?dtor$0@?0???1?$_String_val@U?$_Simple_types@D@std@@@std@@QEAA@XZ@4HA
pdata	ENDS
;	COMDAT pdata
pdata	SEGMENT
$pdata$?_Deallocate_for_capacity@?$basic_string@DU?$char_traits@D@std@@V?$allocator@D@2@@std@@CAXAEAV?$allocator@D@2@QEAD_K@Z DD imagerel $LN3
	DD	imagerel $LN3+51
	DD	imagerel $unwind$?_Deallocate_for_capacity@?$basic_string@DU?$char_traits@D@std@@V?$allocator@D@2@@std@@CAXAEAV?$allocator@D@2@QEAD_K@Z
pdata	ENDS
;	COMDAT pdata
pdata	SEGMENT
$pdata$??1?$basic_string@DU?$char_traits@D@std@@V?$allocator@D@2@@std@@QEAA@XZ DD imagerel $LN4
	DD	imagerel $LN4+39
	DD	imagerel $unwind$??1?$basic_string@DU?$char_traits@D@std@@V?$allocator@D@2@@std@@QEAA@XZ
pdata	ENDS
;	COMDAT pdata
pdata	SEGMENT
$pdata$?dtor$0@?0???1?$basic_string@DU?$char_traits@D@std@@V?$allocator@D@2@@std@@QEAA@XZ@4HA DD imagerel ?dtor$0@?0???1?$basic_string@DU?$char_traits@D@std@@V?$allocator@D@2@@std@@QEAA@XZ@4HA
	DD	imagerel ?dtor$0@?0???1?$basic_string@DU?$char_traits@D@std@@V?$allocator@D@2@@std@@QEAA@XZ@4HA+24
	DD	imagerel $unwind$?dtor$0@?0???1?$basic_string@DU?$char_traits@D@std@@V?$allocator@D@2@@std@@QEAA@XZ@4HA
pdata	ENDS
;	COMDAT pdata
pdata	SEGMENT
$pdata$?data@?$basic_string@DU?$char_traits@D@std@@V?$allocator@D@2@@std@@QEAAPEADXZ DD imagerel $LN3
	DD	imagerel $LN3+27
	DD	imagerel $unwind$?data@?$basic_string@DU?$char_traits@D@std@@V?$allocator@D@2@@std@@QEAAPEADXZ
pdata	ENDS
;	COMDAT pdata
pdata	SEGMENT
$pdata$?_Tidy_deallocate@?$basic_string@DU?$char_traits@D@std@@V?$allocator@D@2@@std@@AEAAXXZ DD imagerel $LN4
	DD	imagerel $LN4+173
	DD	imagerel $unwind$?_Tidy_deallocate@?$basic_string@DU?$char_traits@D@std@@V?$allocator@D@2@@std@@AEAAXXZ
pdata	ENDS
;	COMDAT pdata
pdata	SEGMENT
$pdata$?_Getal@?$basic_string@DU?$char_traits@D@std@@V?$allocator@D@2@@std@@AEAAAEAV?$allocator@D@2@XZ DD imagerel $LN3
	DD	imagerel $LN3+27
	DD	imagerel $unwind$?_Getal@?$basic_string@DU?$char_traits@D@std@@V?$allocator@D@2@@std@@AEAAAEAV?$allocator@D@2@XZ
pdata	ENDS
;	COMDAT pdata
pdata	SEGMENT
$pdata$??1?$_Compressed_pair@V?$allocator@D@std@@V?$_String_val@U?$_Simple_types@D@std@@@2@$00@std@@QEAA@XZ DD imagerel $LN4
	DD	imagerel $LN4+28
	DD	imagerel $unwind$??1?$_Compressed_pair@V?$allocator@D@std@@V?$_String_val@U?$_Simple_types@D@std@@@2@$00@std@@QEAA@XZ
pdata	ENDS
;	COMDAT pdata
pdata	SEGMENT
$pdata$?dtor$0@?0???1?$_Compressed_pair@V?$allocator@D@std@@V?$_String_val@U?$_Simple_types@D@std@@@2@$00@std@@QEAA@XZ@4HA DD imagerel ?dtor$0@?0???1?$_Compressed_pair@V?$allocator@D@std@@V?$_String_val@U?$_Simple_types@D@std@@@2@$00@std@@QEAA@XZ@4HA
	DD	imagerel ?dtor$0@?0???1?$_Compressed_pair@V?$allocator@D@std@@V?$_String_val@U?$_Simple_types@D@std@@@2@$00@std@@QEAA@XZ@4HA+24
	DD	imagerel $unwind$?dtor$0@?0???1?$_Compressed_pair@V?$allocator@D@std@@V?$_String_val@U?$_Simple_types@D@std@@@2@$00@std@@QEAA@XZ@4HA
pdata	ENDS
pdata	SEGMENT
$pdata$?Attach@Console@IronMan@@YAXXZ DD imagerel $LN6
	DD	imagerel $LN6+468
	DD	imagerel $unwind$?Attach@Console@IronMan@@YAXXZ
$pdata$?Detach@Console@IronMan@@YAXXZ DD imagerel $LN7
	DD	imagerel $LN7+133
	DD	imagerel $unwind$?Detach@Console@IronMan@@YAXXZ
$pdata$?Print@Console@IronMan@@YA_NPEBDZZ DD imagerel $LN7
	DD	imagerel $LN7+304
	DD	imagerel $unwind$?Print@Console@IronMan@@YA_NPEBDZZ
pdata	ENDS
pdata	SEGMENT
$pdata$?dtor$0@?0??Print@Console@IronMan@@YA_NPEBDZZ@4HA DD imagerel ?dtor$0@?0??Print@Console@IronMan@@YA_NPEBDZZ@4HA
	DD	imagerel ?dtor$0@?0??Print@Console@IronMan@@YA_NPEBDZZ@4HA+24
	DD	imagerel $unwind$?dtor$0@?0??Print@Console@IronMan@@YA_NPEBDZZ@4HA
pdata	ENDS
pdata	SEGMENT
$pdata$?ReadKey@Console@IronMan@@YADXZ DD imagerel $LN4
	DD	imagerel $LN4+79
	DD	imagerel $unwind$?ReadKey@Console@IronMan@@YADXZ
$pdata$?Show@Console@IronMan@@YAXXZ DD imagerel $LN4
	DD	imagerel $LN4+51
	DD	imagerel $unwind$?Show@Console@IronMan@@YAXXZ
$pdata$?Hide@Console@IronMan@@YAXXZ DD imagerel $LN4
	DD	imagerel $LN4+35
	DD	imagerel $unwind$?Hide@Console@IronMan@@YAXXZ
pdata	ENDS
;	COMDAT pdata
pdata	SEGMENT
$pdata$??0WSInit@detail@httplib@@QEAA@XZ DD imagerel $LN4
	DD	imagerel $LN4+103
	DD	imagerel $unwind$??0WSInit@detail@httplib@@QEAA@XZ
pdata	ENDS
;	COMDAT pdata
pdata	SEGMENT
$pdata$??1WSInit@detail@httplib@@QEAA@XZ DD imagerel $LN4
	DD	imagerel $LN4+33
	DD	imagerel $unwind$??1WSInit@detail@httplib@@QEAA@XZ
pdata	ENDS
;	COMDAT pdata
pdata	SEGMENT
$pdata$??__Ewsinit_@detail@httplib@@YAXXZ DD imagerel ??__Ewsinit_@detail@httplib@@YAXXZ
	DD	imagerel ??__Ewsinit_@detail@httplib@@YAXXZ+34
	DD	imagerel $unwind$??__Ewsinit_@detail@httplib@@YAXXZ
pdata	ENDS
;	COMDAT pdata
pdata	SEGMENT
$pdata$??__Fwsinit_@detail@httplib@@YAXXZ DD imagerel ??__Fwsinit_@detail@httplib@@YAXXZ
	DD	imagerel ??__Fwsinit_@detail@httplib@@YAXXZ+22
	DD	imagerel $unwind$??__Fwsinit_@detail@httplib@@YAXXZ
pdata	ENDS
;	COMDAT pdata
pdata	SEGMENT
$pdata$??0SSLInit@detail@httplib@@QEAA@XZ DD imagerel $LN3
	DD	imagerel $LN3+32
	DD	imagerel $unwind$??0SSLInit@detail@httplib@@QEAA@XZ
pdata	ENDS
;	COMDAT pdata
pdata	SEGMENT
$pdata$??__Esslinit_@detail@httplib@@YAXXZ DD imagerel ??__Esslinit_@detail@httplib@@YAXXZ
	DD	imagerel ??__Esslinit_@detail@httplib@@YAXXZ+22
	DD	imagerel $unwind$??__Esslinit_@detail@httplib@@YAXXZ
pdata	ENDS
;	COMDAT pdata
pdata	SEGMENT
$pdata$??$sprintf_s@$0DI@@@YAHAEAY0DI@DPEBDZZ DD imagerel $LN3
	DD	imagerel $LN3+65
	DD	imagerel $unwind$??$sprintf_s@$0DI@@@YAHAEAY0DI@DPEBDZZ
pdata	ENDS
;	COMDAT pdata
pdata	SEGMENT
$pdata$??$_vsnprintf_s@$0IAA@@@YAHAEAY0IAA@D_KPEBDPEAD@Z DD imagerel $LN3
	DD	imagerel $LN3+65
	DD	imagerel $unwind$??$_vsnprintf_s@$0IAA@@@YAHAEAY0IAA@D_KPEBDPEAD@Z
pdata	ENDS
;	COMDAT pdata
pdata	SEGMENT
$pdata$??$_Deallocate@$0BA@@std@@YAXPEAX_K@Z DD imagerel $LN4
	DD	imagerel $LN4+62
	DD	imagerel $unwind$??$_Deallocate@$0BA@@std@@YAXPEAX_K@Z
pdata	ENDS
;	COMDAT pdata
pdata	SEGMENT
$pdata$??__E?id@?$codecvt@DDU_Mbstatet@@@std@@2V0locale@2@A@@YAXXZ DD imagerel ??__E?id@?$codecvt@DDU_Mbstatet@@@std@@2V0locale@2@A@@YAXXZ
	DD	imagerel ??__E?id@?$codecvt@DDU_Mbstatet@@@std@@2V0locale@2@A@@YAXXZ+22
	DD	imagerel $unwind$??__E?id@?$codecvt@DDU_Mbstatet@@@std@@2V0locale@2@A@@YAXXZ
pdata	ENDS
;	COMDAT pdata
pdata	SEGMENT
$pdata$??__E?id@?$num_put@DV?$ostreambuf_iterator@DU?$char_traits@D@std@@@std@@@std@@2V0locale@2@A@@YAXXZ DD imagerel ??__E?id@?$num_put@DV?$ostreambuf_iterator@DU?$char_traits@D@std@@@std@@@std@@2V0locale@2@A@@YAXXZ
	DD	imagerel ??__E?id@?$num_put@DV?$ostreambuf_iterator@DU?$char_traits@D@std@@@std@@@std@@2V0locale@2@A@@YAXXZ+22
	DD	imagerel $unwind$??__E?id@?$num_put@DV?$ostreambuf_iterator@DU?$char_traits@D@std@@@std@@@std@@2V0locale@2@A@@YAXXZ
pdata	ENDS
;	COMDAT pdata
pdata	SEGMENT
$pdata$??__E?id@?$collate@D@std@@2V0locale@2@A@@YAXXZ DD imagerel ??__E?id@?$collate@D@std@@2V0locale@2@A@@YAXXZ
	DD	imagerel ??__E?id@?$collate@D@std@@2V0locale@2@A@@YAXXZ+22
	DD	imagerel $unwind$??__E?id@?$collate@D@std@@2V0locale@2@A@@YAXXZ
pdata	ENDS
;	COMDAT pdata
pdata	SEGMENT
$pdata$??__E?id@?$numpunct@D@std@@2V0locale@2@A@@YAXXZ DD imagerel ??__E?id@?$numpunct@D@std@@2V0locale@2@A@@YAXXZ
	DD	imagerel ??__E?id@?$numpunct@D@std@@2V0locale@2@A@@YAXXZ+22
	DD	imagerel $unwind$??__E?id@?$numpunct@D@std@@2V0locale@2@A@@YAXXZ
pdata	ENDS
CRT$XCU	SEGMENT
?wsinit_$initializer$@detail@httplib@@3P6AXXZEA DQ FLAT:??__Ewsinit_@detail@httplib@@YAXXZ ; httplib::detail::wsinit_$initializer$
CRT$XCU	ENDS
;	COMDAT ??_C@_08EMLABKOD@?$FL?9?$FN?5?$CFs?$AN?6@
CONST	SEGMENT
??_C@_08EMLABKOD@?$FL?9?$FN?5?$CFs?$AN?6@ DB '[-] %s', 0dH, 0aH, 00H ; `string'
CONST	ENDS
;	COMDAT ??_C@_02DKCKIIND@?$CFs@
CONST	SEGMENT
??_C@_02DKCKIIND@?$CFs@ DB '%s', 00H			; `string'
CONST	ENDS
;	COMDAT ??_C@_0BE@KGFNNONC@Paod?5Console?5Window@
CONST	SEGMENT
??_C@_0BE@KGFNNONC@Paod?5Console?5Window@ DB 'Paod Console Window', 00H ; `string'
CONST	ENDS
;	COMDAT xdata
xdata	SEGMENT
$unwind$??__E?id@?$numpunct@D@std@@2V0locale@2@A@@YAXXZ DD 010401H
	DD	04204H
xdata	ENDS
;	COMDAT xdata
xdata	SEGMENT
$unwind$??__E?id@?$collate@D@std@@2V0locale@2@A@@YAXXZ DD 010401H
	DD	04204H
xdata	ENDS
;	COMDAT xdata
xdata	SEGMENT
$unwind$??__E?id@?$num_put@DV?$ostreambuf_iterator@DU?$char_traits@D@std@@@std@@@std@@2V0locale@2@A@@YAXXZ DD 010401H
	DD	04204H
xdata	ENDS
;	COMDAT xdata
xdata	SEGMENT
$unwind$??__E?id@?$codecvt@DDU_Mbstatet@@@std@@2V0locale@2@A@@YAXXZ DD 010401H
	DD	04204H
xdata	ENDS
;	COMDAT xdata
xdata	SEGMENT
$ip2state$??$_Deallocate@$0BA@@std@@YAXPEAX_K@Z DB 02H
	DB	00H
	DB	00H
xdata	ENDS
;	COMDAT xdata
xdata	SEGMENT
$cppxdata$??$_Deallocate@$0BA@@std@@YAXPEAX_K@Z DB 040H
	DD	imagerel $ip2state$??$_Deallocate@$0BA@@std@@YAXPEAX_K@Z
xdata	ENDS
;	COMDAT xdata
xdata	SEGMENT
$unwind$??$_Deallocate@$0BA@@std@@YAXPEAX_K@Z DD 010e19H
	DD	0420eH
	DD	imagerel __CxxFrameHandler4
	DD	imagerel $cppxdata$??$_Deallocate@$0BA@@std@@YAXPEAX_K@Z
xdata	ENDS
;	COMDAT xdata
xdata	SEGMENT
$ip2state$??$_vsnprintf_s@$0IAA@@@YAHAEAY0IAA@D_KPEBDPEAD@Z DB 02H
	DB	00H
	DB	00H
xdata	ENDS
;	COMDAT xdata
xdata	SEGMENT
$cppxdata$??$_vsnprintf_s@$0IAA@@@YAHAEAY0IAA@D_KPEBDPEAD@Z DB 040H
	DD	imagerel $ip2state$??$_vsnprintf_s@$0IAA@@@YAHAEAY0IAA@D_KPEBDPEAD@Z
xdata	ENDS
;	COMDAT xdata
xdata	SEGMENT
$unwind$??$_vsnprintf_s@$0IAA@@@YAHAEAY0IAA@D_KPEBDPEAD@Z DD 011819H
	DD	06218H
	DD	imagerel __CxxFrameHandler4
	DD	imagerel $cppxdata$??$_vsnprintf_s@$0IAA@@@YAHAEAY0IAA@D_KPEBDPEAD@Z
xdata	ENDS
;	COMDAT xdata
xdata	SEGMENT
$ip2state$??$sprintf_s@$0DI@@@YAHAEAY0DI@DPEBDZZ DB 02H
	DB	00H
	DB	00H
xdata	ENDS
;	COMDAT xdata
xdata	SEGMENT
$cppxdata$??$sprintf_s@$0DI@@@YAHAEAY0DI@DPEBDZZ DB 040H
	DD	imagerel $ip2state$??$sprintf_s@$0DI@@@YAHAEAY0DI@DPEBDZZ
xdata	ENDS
;	COMDAT xdata
xdata	SEGMENT
$unwind$??$sprintf_s@$0DI@@@YAHAEAY0DI@DPEBDZZ DD 011819H
	DD	06218H
	DD	imagerel __CxxFrameHandler4
	DD	imagerel $cppxdata$??$sprintf_s@$0DI@@@YAHAEAY0DI@DPEBDZZ
xdata	ENDS
;	COMDAT xdata
xdata	SEGMENT
$unwind$??__Esslinit_@detail@httplib@@YAXXZ DD 010401H
	DD	04204H
xdata	ENDS
;	COMDAT xdata
xdata	SEGMENT
$unwind$??0SSLInit@detail@httplib@@QEAA@XZ DD 010901H
	DD	04209H
xdata	ENDS
;	COMDAT xdata
xdata	SEGMENT
$unwind$??__Fwsinit_@detail@httplib@@YAXXZ DD 010401H
	DD	04204H
xdata	ENDS
;	COMDAT xdata
xdata	SEGMENT
$unwind$??__Ewsinit_@detail@httplib@@YAXXZ DD 010401H
	DD	04204H
xdata	ENDS
;	COMDAT xdata
xdata	SEGMENT
$ip2state$??1WSInit@detail@httplib@@QEAA@XZ DB 02H
	DB	00H
	DB	00H
xdata	ENDS
;	COMDAT xdata
xdata	SEGMENT
$cppxdata$??1WSInit@detail@httplib@@QEAA@XZ DB 040H
	DD	imagerel $ip2state$??1WSInit@detail@httplib@@QEAA@XZ
xdata	ENDS
;	COMDAT xdata
xdata	SEGMENT
$unwind$??1WSInit@detail@httplib@@QEAA@XZ DD 010919H
	DD	04209H
	DD	imagerel __CxxFrameHandler4
	DD	imagerel $cppxdata$??1WSInit@detail@httplib@@QEAA@XZ
xdata	ENDS
;	COMDAT voltbl
voltbl	SEGMENT
_volmd	DB	016H
	DB	04fH
voltbl	ENDS
;	COMDAT xdata
xdata	SEGMENT
$unwind$??0WSInit@detail@httplib@@QEAA@XZ DD 021e19H
	DD	03b010cH
	DD	imagerel __GSHandlerCheck
	DD	01c0H
xdata	ENDS
voltbl	SEGMENT
_volmd	DD	0ffffffffH
	DDSymXIndex: 	FLAT:?Print@Console@IronMan@@YA_NPEBDZZ
	DD	025H
	DD	0118H
_volmd	DD	0ffffffffH
	DDSymXIndex: 	FLAT:?Attach@Console@IronMan@@YAXXZ
	DD	011H
	DD	01bcH
voltbl	ENDS
xdata	SEGMENT
$unwind$?Attach@Console@IronMan@@YAXXZ DD 021919H
	DD	0130107H
	DD	imagerel __GSHandlerCheck
	DD	080H
$unwind$?Detach@Console@IronMan@@YAXXZ DD 010401H
	DD	04204H
$unwind$?Print@Console@IronMan@@YA_NPEBDZZ DD 022d19H
	DD	0113011bH
	DD	imagerel __GSHandlerCheck_EH4
	DD	imagerel $cppxdata$?Print@Console@IronMan@@YA_NPEBDZZ
	DD	0882H
$cppxdata$?Print@Console@IronMan@@YA_NPEBDZZ DB 08H
	DD	imagerel $stateUnwindMap$?Print@Console@IronMan@@YA_NPEBDZZ
	DD	imagerel $ip2state$?Print@Console@IronMan@@YA_NPEBDZZ
$stateUnwindMap$?Print@Console@IronMan@@YA_NPEBDZZ DB 02H
	DB	0eH
	DD	imagerel ?dtor$0@?0??Print@Console@IronMan@@YA_NPEBDZZ@4HA
$ip2state$?Print@Console@IronMan@@YA_NPEBDZZ DB 06H
	DB	00H
	DB	00H
	DB	'5', 02H
	DB	02H
	DB	0f8H
	DB	00H
	ORG $+1
$unwind$?dtor$0@?0??Print@Console@IronMan@@YA_NPEBDZZ@4HA DD 020601H
	DD	050023206H
$unwind$?ReadKey@Console@IronMan@@YADXZ DD 010401H
	DD	08204H
$unwind$?Show@Console@IronMan@@YAXXZ DD 010401H
	DD	04204H
$unwind$?Hide@Console@IronMan@@YAXXZ DD 010401H
	DD	04204H
xdata	ENDS
;	COMDAT xdata
xdata	SEGMENT
$unwind$?dtor$0@?0???1?$_Compressed_pair@V?$allocator@D@std@@V?$_String_val@U?$_Simple_types@D@std@@@2@$00@std@@QEAA@XZ@4HA DD 020601H
	DD	050023206H
xdata	ENDS
;	COMDAT xdata
xdata	SEGMENT
$ip2state$??1?$_Compressed_pair@V?$allocator@D@std@@V?$_String_val@U?$_Simple_types@D@std@@@2@$00@std@@QEAA@XZ DB 02H
	DB	00H
	DB	00H
xdata	ENDS
;	COMDAT xdata
xdata	SEGMENT
$stateUnwindMap$??1?$_Compressed_pair@V?$allocator@D@std@@V?$_String_val@U?$_Simple_types@D@std@@@2@$00@std@@QEAA@XZ DB 02H
	DB	0eH
	DD	imagerel ?dtor$0@?0???1?$_Compressed_pair@V?$allocator@D@std@@V?$_String_val@U?$_Simple_types@D@std@@@2@$00@std@@QEAA@XZ@4HA
xdata	ENDS
;	COMDAT xdata
xdata	SEGMENT
$cppxdata$??1?$_Compressed_pair@V?$allocator@D@std@@V?$_String_val@U?$_Simple_types@D@std@@@2@$00@std@@QEAA@XZ DB 048H
	DD	imagerel $stateUnwindMap$??1?$_Compressed_pair@V?$allocator@D@std@@V?$_String_val@U?$_Simple_types@D@std@@@2@$00@std@@QEAA@XZ
	DD	imagerel $ip2state$??1?$_Compressed_pair@V?$allocator@D@std@@V?$_String_val@U?$_Simple_types@D@std@@@2@$00@std@@QEAA@XZ
xdata	ENDS
;	COMDAT xdata
xdata	SEGMENT
$unwind$??1?$_Compressed_pair@V?$allocator@D@std@@V?$_String_val@U?$_Simple_types@D@std@@@2@$00@std@@QEAA@XZ DD 010911H
	DD	04209H
	DD	imagerel __CxxFrameHandler4
	DD	imagerel $cppxdata$??1?$_Compressed_pair@V?$allocator@D@std@@V?$_String_val@U?$_Simple_types@D@std@@@2@$00@std@@QEAA@XZ
xdata	ENDS
;	COMDAT xdata
xdata	SEGMENT
$unwind$?_Getal@?$basic_string@DU?$char_traits@D@std@@V?$allocator@D@2@@std@@AEAAAEAV?$allocator@D@2@XZ DD 010901H
	DD	04209H
xdata	ENDS
;	COMDAT xdata
xdata	SEGMENT
$unwind$?_Tidy_deallocate@?$basic_string@DU?$char_traits@D@std@@V?$allocator@D@2@@std@@AEAAXXZ DD 010901H
	DD	08209H
xdata	ENDS
;	COMDAT xdata
xdata	SEGMENT
$unwind$?data@?$basic_string@DU?$char_traits@D@std@@V?$allocator@D@2@@std@@QEAAPEADXZ DD 010901H
	DD	04209H
xdata	ENDS
;	COMDAT xdata
xdata	SEGMENT
$unwind$?dtor$0@?0???1?$basic_string@DU?$char_traits@D@std@@V?$allocator@D@2@@std@@QEAA@XZ@4HA DD 020601H
	DD	050023206H
xdata	ENDS
;	COMDAT xdata
xdata	SEGMENT
$ip2state$??1?$basic_string@DU?$char_traits@D@std@@V?$allocator@D@2@@std@@QEAA@XZ DB 06H
	DB	00H
	DB	00H
	DB	012H
	DB	02H
	DB	016H
	DB	00H
xdata	ENDS
;	COMDAT xdata
xdata	SEGMENT
$stateUnwindMap$??1?$basic_string@DU?$char_traits@D@std@@V?$allocator@D@2@@std@@QEAA@XZ DB 02H
	DB	0eH
	DD	imagerel ?dtor$0@?0???1?$basic_string@DU?$char_traits@D@std@@V?$allocator@D@2@@std@@QEAA@XZ@4HA
xdata	ENDS
;	COMDAT xdata
xdata	SEGMENT
$cppxdata$??1?$basic_string@DU?$char_traits@D@std@@V?$allocator@D@2@@std@@QEAA@XZ DB 048H
	DD	imagerel $stateUnwindMap$??1?$basic_string@DU?$char_traits@D@std@@V?$allocator@D@2@@std@@QEAA@XZ
	DD	imagerel $ip2state$??1?$basic_string@DU?$char_traits@D@std@@V?$allocator@D@2@@std@@QEAA@XZ
xdata	ENDS
;	COMDAT xdata
xdata	SEGMENT
$unwind$??1?$basic_string@DU?$char_traits@D@std@@V?$allocator@D@2@@std@@QEAA@XZ DD 010911H
	DD	04209H
	DD	imagerel __CxxFrameHandler4
	DD	imagerel $cppxdata$??1?$basic_string@DU?$char_traits@D@std@@V?$allocator@D@2@@std@@QEAA@XZ
xdata	ENDS
;	COMDAT xdata
xdata	SEGMENT
$unwind$?_Deallocate_for_capacity@?$basic_string@DU?$char_traits@D@std@@V?$allocator@D@2@@std@@CAXAEAV?$allocator@D@2@QEAD_K@Z DD 011301H
	DD	04213H
xdata	ENDS
;	COMDAT xdata
xdata	SEGMENT
$unwind$?dtor$0@?0???1?$_String_val@U?$_Simple_types@D@std@@@std@@QEAA@XZ@4HA DD 020601H
	DD	050023206H
xdata	ENDS
;	COMDAT xdata
xdata	SEGMENT
$ip2state$??1?$_String_val@U?$_Simple_types@D@std@@@std@@QEAA@XZ DB 02H
	DB	00H
	DB	00H
xdata	ENDS
;	COMDAT xdata
xdata	SEGMENT
$stateUnwindMap$??1?$_String_val@U?$_Simple_types@D@std@@@std@@QEAA@XZ DB 02H
	DB	0eH
	DD	imagerel ?dtor$0@?0???1?$_String_val@U?$_Simple_types@D@std@@@std@@QEAA@XZ@4HA
xdata	ENDS
;	COMDAT xdata
xdata	SEGMENT
$cppxdata$??1?$_String_val@U?$_Simple_types@D@std@@@std@@QEAA@XZ DB 048H
	DD	imagerel $stateUnwindMap$??1?$_String_val@U?$_Simple_types@D@std@@@std@@QEAA@XZ
	DD	imagerel $ip2state$??1?$_String_val@U?$_Simple_types@D@std@@@std@@QEAA@XZ
xdata	ENDS
;	COMDAT xdata
xdata	SEGMENT
$unwind$??1?$_String_val@U?$_Simple_types@D@std@@@std@@QEAA@XZ DD 010911H
	DD	04209H
	DD	imagerel __CxxFrameHandler4
	DD	imagerel $cppxdata$??1?$_String_val@U?$_Simple_types@D@std@@@std@@QEAA@XZ
xdata	ENDS
;	COMDAT xdata
xdata	SEGMENT
$unwind$?_Switch_to_buf@_Bxty@?$_String_val@U?$_Simple_types@D@std@@@std@@QEAAXXZ DD 010901H
	DD	04209H
xdata	ENDS
;	COMDAT xdata
xdata	SEGMENT
$unwind$?_Large_mode_engaged@?$_String_val@U?$_Simple_types@D@std@@@std@@QEBA_NXZ DD 010901H
	DD	02209H
xdata	ENDS
;	COMDAT xdata
xdata	SEGMENT
$unwind$?_Myptr@?$_String_val@U?$_Simple_types@D@std@@@std@@QEAAPEADXZ DD 010901H
	DD	06209H
xdata	ENDS
;	COMDAT xdata
xdata	SEGMENT
$unwind$?deallocate@?$allocator@D@std@@QEAAXQEAD_K@Z DD 011301H
	DD	04213H
xdata	ENDS
;	COMDAT xdata
xdata	SEGMENT
$unwind$?_Adjust_manually_vector_aligned@std@@YAXAEAPEAXAEA_K@Z DD 010e01H
	DD	0820eH
xdata	ENDS
;	COMDAT xdata
xdata	SEGMENT
$unwind$_vsnprintf_s DD 011801H
	DD	06218H
xdata	ENDS
;	COMDAT xdata
xdata	SEGMENT
$unwind$_vsnprintf_s_l DD 011801H
	DD	0a218H
xdata	ENDS
;	COMDAT xdata
xdata	SEGMENT
$unwind$vsprintf_s DD 011801H
	DD	06218H
xdata	ENDS
;	COMDAT xdata
xdata	SEGMENT
$unwind$_vsprintf_s_l DD 011801H
	DD	08218H
xdata	ENDS
;	COMDAT xdata
xdata	SEGMENT
$unwind$??_H@YAXPEAX_K1P6APEAX0@Z@Z DD 011801H
	DD	06218H
xdata	ENDS
CRT$XCU	SEGMENT
?sslinit_$initializer$@detail@httplib@@3P6AXXZEA DQ FLAT:??__Esslinit_@detail@httplib@@YAXXZ ; httplib::detail::sslinit_$initializer$
CRT$XCU	ENDS
;	COMDAT CRT$XCU
CRT$XCU	SEGMENT
??id$initializer$@?$codecvt@DDU_Mbstatet@@@std@@2P6AXXZEA@@3P6AXXZEA DQ FLAT:??__E?id@?$codecvt@DDU_Mbstatet@@@std@@2V0locale@2@A@@YAXXZ ; ??id$initializer$@?$codecvt@DDU_Mbstatet@@@std@@2P6AXXZEA@@3P6AXXZEA
CRT$XCU	ENDS
;	COMDAT CRT$XCU
CRT$XCU	SEGMENT
??id$initializer$@?$num_put@DV?$ostreambuf_iterator@DU?$char_traits@D@std@@@std@@@std@@2P6AXXZEA@@3P6AXXZEA DQ FLAT:??__E?id@?$num_put@DV?$ostreambuf_iterator@DU?$char_traits@D@std@@@std@@@std@@2V0locale@2@A@@YAXXZ ; ??id$initializer$@?$num_put@DV?$ostreambuf_iterator@DU?$char_traits@D@std@@@std@@@std@@2P6AXXZEA@@3P6AXXZEA
CRT$XCU	ENDS
;	COMDAT CRT$XCU
CRT$XCU	SEGMENT
??id$initializer$@?$collate@D@std@@2P6AXXZEA@@3P6AXXZEA DQ FLAT:??__E?id@?$collate@D@std@@2V0locale@2@A@@YAXXZ ; ??id$initializer$@?$collate@D@std@@2P6AXXZEA@@3P6AXXZEA
CRT$XCU	ENDS
;	COMDAT CRT$XCU
CRT$XCU	SEGMENT
??id$initializer$@?$numpunct@D@std@@2P6AXXZEA@@3P6AXXZEA DQ FLAT:??__E?id@?$numpunct@D@std@@2V0locale@2@A@@YAXXZ ; ??id$initializer$@?$numpunct@D@std@@2P6AXXZEA@@3P6AXXZEA
CRT$XCU	ENDS
; Function compile flags: /Odtp
; File C:\Program Files\Microsoft Visual Studio\2022\Community\VC\Tools\MSVC\14.43.34808\include\xlocnum
;	COMDAT ??__E?id@?$numpunct@D@std@@2V0locale@2@A@@YAXXZ
text$di	SEGMENT
??__E?id@?$numpunct@D@std@@2V0locale@2@A@@YAXXZ PROC	; `dynamic initializer for 'std::numpunct<char>::id'', COMDAT

; 236  : __PURE_APPDOMAIN_GLOBAL locale::id numpunct<_Elem>::id;

	sub	rsp, 40					; 00000028H
	lea	rcx, OFFSET FLAT:?id@?$numpunct@D@std@@2V0locale@2@A ; std::numpunct<char>::id
	call	??$?0$0A@@id@locale@std@@QEAA@XZ	; std::locale::id::id<0>
	npad	1
	add	rsp, 40					; 00000028H
	ret	0
??__E?id@?$numpunct@D@std@@2V0locale@2@A@@YAXXZ ENDP	; `dynamic initializer for 'std::numpunct<char>::id''
text$di	ENDS
; Function compile flags: /Odtp
; File C:\Program Files\Microsoft Visual Studio\2022\Community\VC\Tools\MSVC\14.43.34808\include\locale
;	COMDAT ??__E?id@?$collate@D@std@@2V0locale@2@A@@YAXXZ
text$di	SEGMENT
??__E?id@?$collate@D@std@@2V0locale@2@A@@YAXXZ PROC	; `dynamic initializer for 'std::collate<char>::id'', COMDAT

; 124  : __PURE_APPDOMAIN_GLOBAL locale::id collate<_Elem>::id;

	sub	rsp, 40					; 00000028H
	lea	rcx, OFFSET FLAT:?id@?$collate@D@std@@2V0locale@2@A ; std::collate<char>::id
	call	??$?0$0A@@id@locale@std@@QEAA@XZ	; std::locale::id::id<0>
	npad	1
	add	rsp, 40					; 00000028H
	ret	0
??__E?id@?$collate@D@std@@2V0locale@2@A@@YAXXZ ENDP	; `dynamic initializer for 'std::collate<char>::id''
text$di	ENDS
; Function compile flags: /Odtp
; File C:\Program Files\Microsoft Visual Studio\2022\Community\VC\Tools\MSVC\14.43.34808\include\xlocnum
;	COMDAT ??__E?id@?$num_put@DV?$ostreambuf_iterator@DU?$char_traits@D@std@@@std@@@std@@2V0locale@2@A@@YAXXZ
text$di	SEGMENT
??__E?id@?$num_put@DV?$ostreambuf_iterator@DU?$char_traits@D@std@@@std@@@std@@2V0locale@2@A@@YAXXZ PROC ; `dynamic initializer for 'std::num_put<char,std::ostreambuf_iterator<char,std::char_traits<char> > >::id'', COMDAT

; 1646 : __PURE_APPDOMAIN_GLOBAL locale::id num_put<_Elem, _OutIt>::id;

	sub	rsp, 40					; 00000028H
	lea	rcx, OFFSET FLAT:?id@?$num_put@DV?$ostreambuf_iterator@DU?$char_traits@D@std@@@std@@@std@@2V0locale@2@A ; std::num_put<char,std::ostreambuf_iterator<char,std::char_traits<char> > >::id
	call	??$?0$0A@@id@locale@std@@QEAA@XZ	; std::locale::id::id<0>
	npad	1
	add	rsp, 40					; 00000028H
	ret	0
??__E?id@?$num_put@DV?$ostreambuf_iterator@DU?$char_traits@D@std@@@std@@@std@@2V0locale@2@A@@YAXXZ ENDP ; `dynamic initializer for 'std::num_put<char,std::ostreambuf_iterator<char,std::char_traits<char> > >::id''
text$di	ENDS
; Function compile flags: /Odtp
; File C:\Program Files\Microsoft Visual Studio\2022\Community\VC\Tools\MSVC\14.43.34808\include\xlocale
;	COMDAT ??__E?id@?$codecvt@DDU_Mbstatet@@@std@@2V0locale@2@A@@YAXXZ
text$di	SEGMENT
??__E?id@?$codecvt@DDU_Mbstatet@@@std@@2V0locale@2@A@@YAXXZ PROC ; `dynamic initializer for 'std::codecvt<char,char,_Mbstatet>::id'', COMDAT

; 809  : __PURE_APPDOMAIN_GLOBAL locale::id codecvt<_Elem, _Byte, _Statype>::id;

	sub	rsp, 40					; 00000028H
	lea	rcx, OFFSET FLAT:?id@?$codecvt@DDU_Mbstatet@@@std@@2V0locale@2@A ; std::codecvt<char,char,_Mbstatet>::id
	call	??$?0$0A@@id@locale@std@@QEAA@XZ	; std::locale::id::id<0>
	npad	1
	add	rsp, 40					; 00000028H
	ret	0
??__E?id@?$codecvt@DDU_Mbstatet@@@std@@2V0locale@2@A@@YAXXZ ENDP ; `dynamic initializer for 'std::codecvt<char,char,_Mbstatet>::id''
text$di	ENDS
; Function compile flags: /Odtp
; File C:\Program Files\Microsoft Visual Studio\2022\Community\VC\Tools\MSVC\14.43.34808\include\xlocale
;	COMDAT ??$?0$0A@@id@locale@std@@QEAA@XZ
_TEXT	SEGMENT
this$ = 8
??$?0$0A@@id@locale@std@@QEAA@XZ PROC			; std::locale::id::id<0>, COMDAT

; 81   :         id() noexcept /* strengthened */ {}

	mov	QWORD PTR [rsp+8], rcx

; 82   : #endif // ^^^ !defined(_CRTBLD) ^^^
; 83   : 
; 84   :         id(const id&)            = delete;
; 85   :         id& operator=(const id&) = delete;
; 86   : 
; 87   :         template <int = 0> // TRANSITION, ABI
; 88   :         size_t _Get_index() { // get stamp, with lazy allocation
; 89   :             if (_Id == 0) { // still zero, allocate stamp
; 90   :                 _BEGIN_LOCK(_LOCK_LOCALE)
; 91   :                 if (_Id == 0) {
; 92   :                     _Id = static_cast<size_t>(++_Id_cnt);
; 93   :                 }
; 94   :                 _END_LOCK()
; 95   :             }
; 96   :             return _Id;
; 97   :         }
; 98   : 
; 99   : #ifdef _CRTBLD // TRANSITION, ABI: preserved for binary compatibility
; 100  :         __CLR_OR_THIS_CALL operator size_t() {
; 101  :             return _Get_index();
; 102  :         }
; 103  : #endif // defined(_CRTBLD)
; 104  : 
; 105  :     private:
; 106  :         size_t _Id = 0; // the identifier stamp

	mov	rax, QWORD PTR this$[rsp]
	mov	QWORD PTR [rax], 0

; 81   :         id() noexcept /* strengthened */ {}

	mov	rax, QWORD PTR this$[rsp]
	ret	0
??$?0$0A@@id@locale@std@@QEAA@XZ ENDP			; std::locale::id::id<0>
_TEXT	ENDS
; Function compile flags: /Odtp
; File C:\Program Files\Microsoft Visual Studio\2022\Community\VC\Tools\MSVC\14.43.34808\include\xmemory
;	COMDAT ??$_Destroy_in_place@PEAD@std@@YAXAEAPEAD@Z
_TEXT	SEGMENT
_Obj$ = 8
??$_Destroy_in_place@PEAD@std@@YAXAEAPEAD@Z PROC	; std::_Destroy_in_place<char *>, COMDAT

; 320  : _CONSTEXPR20 void _Destroy_in_place(_Ty& _Obj) noexcept {

	mov	QWORD PTR [rsp+8], rcx

; 321  :     if constexpr (is_array_v<_Ty>) {
; 322  :         _STD _Destroy_range(_Obj, _Obj + extent_v<_Ty>);
; 323  :     } else {
; 324  :         _Obj.~_Ty();
; 325  :     }
; 326  : }

	ret	0
??$_Destroy_in_place@PEAD@std@@YAXAEAPEAD@Z ENDP	; std::_Destroy_in_place<char *>
_TEXT	ENDS
; Function compile flags: /Odtp
; File C:\Program Files\Microsoft Visual Studio\2022\Community\VC\Tools\MSVC\14.43.34808\include\xmemory
;	COMDAT ??$_Deallocate@$0BA@@std@@YAXPEAX_K@Z
_TEXT	SEGMENT
_Ptr$ = 48
_Bytes$ = 56
??$_Deallocate@$0BA@@std@@YAXPEAX_K@Z PROC		; std::_Deallocate<16>, COMDAT

; 261  : _CONSTEXPR20 void _Deallocate(void* _Ptr, size_t _Bytes) noexcept {

$LN4:
	mov	QWORD PTR [rsp+16], rdx
	mov	QWORD PTR [rsp+8], rcx
	sub	rsp, 40					; 00000028H

; 262  :     // deallocate storage allocated by _Allocate
; 263  : #if _HAS_CXX20 // TRANSITION, GH-1532
; 264  :     if (_STD is_constant_evaluated()) {
; 265  :         ::operator delete(_Ptr);
; 266  :         return;
; 267  :     }
; 268  : #endif // _HAS_CXX20
; 269  : 
; 270  : #ifdef __cpp_aligned_new
; 271  :     if constexpr (_Align > __STDCPP_DEFAULT_NEW_ALIGNMENT__) {
; 272  :         size_t _Passed_align = _Align;
; 273  : #if defined(_M_IX86) || defined(_M_X64)
; 274  :         if (_Bytes >= _Big_allocation_threshold) {
; 275  :             // boost the alignment of big allocations to help autovectorization
; 276  :             _Passed_align = (_STD max)(_Align, _Big_allocation_alignment);
; 277  :         }
; 278  : #endif // defined(_M_IX86) || defined(_M_X64)
; 279  :         ::operator delete(_Ptr, _Bytes, align_val_t{_Passed_align});
; 280  :     } else
; 281  : #endif // defined(__cpp_aligned_new)
; 282  :     {
; 283  : #if defined(_M_IX86) || defined(_M_X64)
; 284  :         if (_Bytes >= _Big_allocation_threshold) {

	cmp	QWORD PTR _Bytes$[rsp], 4096		; 00001000H
	jb	SHORT $LN2@Deallocate

; 285  :             // boost the alignment of big allocations to help autovectorization
; 286  :             _Adjust_manually_vector_aligned(_Ptr, _Bytes);

	lea	rdx, QWORD PTR _Bytes$[rsp]
	lea	rcx, QWORD PTR _Ptr$[rsp]
	call	?_Adjust_manually_vector_aligned@std@@YAXAEAPEAXAEA_K@Z ; std::_Adjust_manually_vector_aligned
	npad	1
$LN2@Deallocate:

; 287  :         }
; 288  : #endif // defined(_M_IX86) || defined(_M_X64)
; 289  :         ::operator delete(_Ptr, _Bytes);

	mov	rdx, QWORD PTR _Bytes$[rsp]
	mov	rcx, QWORD PTR _Ptr$[rsp]
	call	??3@YAXPEAX_K@Z				; operator delete
	npad	1

; 290  :     }
; 291  : }

	add	rsp, 40					; 00000028H
	ret	0
??$_Deallocate@$0BA@@std@@YAXPEAX_K@Z ENDP		; std::_Deallocate<16>
_TEXT	ENDS
; Function compile flags: /Odtp
; File C:\Program Files\Microsoft Visual Studio\2022\Community\VC\Tools\MSVC\14.43.34808\include\xmemory
;	COMDAT ??$_Unfancy@D@std@@YAPEADPEAD@Z
_TEXT	SEGMENT
_Ptr$ = 8
??$_Unfancy@D@std@@YAPEADPEAD@Z PROC			; std::_Unfancy<char>, COMDAT

; 68   : _NODISCARD constexpr _Ty* _Unfancy(_Ty* _Ptr) noexcept { // do nothing for plain pointers

	mov	QWORD PTR [rsp+8], rcx

; 69   :     return _Ptr;

	mov	rax, QWORD PTR _Ptr$[rsp]

; 70   : }

	ret	0
??$_Unfancy@D@std@@YAPEADPEAD@Z ENDP			; std::_Unfancy<char>
_TEXT	ENDS
; Function compile flags: /Odtp
; File C:\Program Files (x86)\Windows Kits\10\Include\10.0.26100.0\ucrt\stdio.h
;	COMDAT ??$_vsnprintf_s@$0IAA@@@YAHAEAY0IAA@D_KPEBDPEAD@Z
_TEXT	SEGMENT
_Buffer$ = 64
_BufferCount$ = 72
_Format$ = 80
_ArgList$ = 88
??$_vsnprintf_s@$0IAA@@@YAHAEAY0IAA@D_KPEBDPEAD@Z PROC	; _vsnprintf_s<2048>, COMDAT

; 1610 :         )

$LN3:
	mov	QWORD PTR [rsp+32], r9
	mov	QWORD PTR [rsp+24], r8
	mov	QWORD PTR [rsp+16], rdx
	mov	QWORD PTR [rsp+8], rcx
	sub	rsp, 56					; 00000038H

; 1603 :     __DEFINE_CPP_OVERLOAD_SECURE_FUNC_0_3(

	mov	rax, QWORD PTR _ArgList$[rsp]
	mov	QWORD PTR [rsp+32], rax
	mov	r9, QWORD PTR _Format$[rsp]
	mov	r8, QWORD PTR _BufferCount$[rsp]
	mov	edx, 2048				; 00000800H
	mov	rcx, QWORD PTR _Buffer$[rsp]
	call	_vsnprintf_s
	npad	1
	add	rsp, 56					; 00000038H
	ret	0
??$_vsnprintf_s@$0IAA@@@YAHAEAY0IAA@D_KPEBDPEAD@Z ENDP	; _vsnprintf_s<2048>
_TEXT	ENDS
; Function compile flags: /Odtp
; File C:\Program Files (x86)\Windows Kits\10\Include\10.0.26100.0\ucrt\stdio.h
;	COMDAT ??$sprintf_s@$0DI@@@YAHAEAY0DI@DPEBDZZ
_TEXT	SEGMENT
_ArgList$ = 32
_Buffer$ = 64
_Format$ = 72
??$sprintf_s@$0DI@@@YAHAEAY0DI@DPEBDZZ PROC		; sprintf_s<56>, COMDAT

; 1840 :         )

$LN3:
	mov	QWORD PTR [rsp+16], rdx
	mov	QWORD PTR [rsp+8], rcx
	mov	QWORD PTR [rsp+24], r8
	mov	QWORD PTR [rsp+32], r9
	sub	rsp, 56					; 00000038H

; 1835 :     __DEFINE_CPP_OVERLOAD_SECURE_FUNC_0_1_ARGLIST(

	lea	rax, QWORD PTR _Format$[rsp+8]
	mov	QWORD PTR _ArgList$[rsp], rax
	mov	r9, QWORD PTR _ArgList$[rsp]
	mov	r8, QWORD PTR _Format$[rsp]
	mov	edx, 56					; 00000038H
	mov	rcx, QWORD PTR _Buffer$[rsp]
	call	vsprintf_s
	npad	1
	add	rsp, 56					; 00000038H
	ret	0
??$sprintf_s@$0DI@@@YAHAEAY0DI@DPEBDZZ ENDP		; sprintf_s<56>
_TEXT	ENDS
; Function compile flags: /Odtp
; File D:\c++\paoda\Helper\HttpLib\httplib.h
;	COMDAT ??__Esslinit_@detail@httplib@@YAXXZ
text$di	SEGMENT
??__Esslinit_@detail@httplib@@YAXXZ PROC		; httplib::detail::`dynamic initializer for 'sslinit_'', COMDAT

; 8802 :         static SSLInit sslinit_;

	sub	rsp, 40					; 00000028H
	lea	rcx, OFFSET FLAT:?sslinit_@detail@httplib@@3VSSLInit@12@A
	call	??0SSLInit@detail@httplib@@QEAA@XZ	; httplib::detail::SSLInit::SSLInit
	npad	1
	add	rsp, 40					; 00000028H
	ret	0
??__Esslinit_@detail@httplib@@YAXXZ ENDP		; httplib::detail::`dynamic initializer for 'sslinit_''
text$di	ENDS
; Function compile flags: /Odtp
; File D:\c++\paoda\Helper\HttpLib\httplib.h
;	COMDAT ??0SSLInit@detail@httplib@@QEAA@XZ
_TEXT	SEGMENT
this$ = 48
??0SSLInit@detail@httplib@@QEAA@XZ PROC			; httplib::detail::SSLInit::SSLInit, COMDAT

; 8693 :             SSLInit() {

$LN3:
	mov	QWORD PTR [rsp+8], rcx
	sub	rsp, 40					; 00000028H

; 8694 :                 OPENSSL_init_ssl(

	xor	edx, edx
	mov	ecx, 2097154				; 00200002H
	call	OPENSSL_init_ssl
	npad	1

; 8695 :                     OPENSSL_INIT_LOAD_SSL_STRINGS | OPENSSL_INIT_LOAD_CRYPTO_STRINGS, NULL);
; 8696 :             }

	mov	rax, QWORD PTR this$[rsp]
	add	rsp, 40					; 00000028H
	ret	0
??0SSLInit@detail@httplib@@QEAA@XZ ENDP			; httplib::detail::SSLInit::SSLInit
_TEXT	ENDS
; Function compile flags: /Odtp
;	COMDAT ??__Fwsinit_@detail@httplib@@YAXXZ
text$yd	SEGMENT
??__Fwsinit_@detail@httplib@@YAXXZ PROC			; httplib::detail::`dynamic atexit destructor for 'wsinit_'', COMDAT
	sub	rsp, 40					; 00000028H
	lea	rcx, OFFSET FLAT:?wsinit_@detail@httplib@@3VWSInit@12@A
	call	??1WSInit@detail@httplib@@QEAA@XZ	; httplib::detail::WSInit::~WSInit
	npad	1
	add	rsp, 40					; 00000028H
	ret	0
??__Fwsinit_@detail@httplib@@YAXXZ ENDP			; httplib::detail::`dynamic atexit destructor for 'wsinit_''
text$yd	ENDS
; Function compile flags: /Odtp
; File D:\c++\paoda\Helper\HttpLib\httplib.h
;	COMDAT ??__Ewsinit_@detail@httplib@@YAXXZ
text$di	SEGMENT
??__Ewsinit_@detail@httplib@@YAXXZ PROC			; httplib::detail::`dynamic initializer for 'wsinit_'', COMDAT

; 5291 :         static WSInit wsinit_;

	sub	rsp, 40					; 00000028H
	lea	rcx, OFFSET FLAT:?wsinit_@detail@httplib@@3VWSInit@12@A
	call	??0WSInit@detail@httplib@@QEAA@XZ	; httplib::detail::WSInit::WSInit
	lea	rcx, OFFSET FLAT:??__Fwsinit_@detail@httplib@@YAXXZ ; httplib::detail::`dynamic atexit destructor for 'wsinit_''
	call	atexit
	npad	1
	add	rsp, 40					; 00000028H
	ret	0
??__Ewsinit_@detail@httplib@@YAXXZ ENDP			; httplib::detail::`dynamic initializer for 'wsinit_''
text$di	ENDS
; Function compile flags: /Odtp
; File D:\c++\paoda\Helper\HttpLib\httplib.h
;	COMDAT ??1WSInit@detail@httplib@@QEAA@XZ
_TEXT	SEGMENT
this$ = 48
??1WSInit@detail@httplib@@QEAA@XZ PROC			; httplib::detail::WSInit::~WSInit, COMDAT

; 5284 :             ~WSInit() {

$LN4:
	mov	QWORD PTR [rsp+8], rcx
	sub	rsp, 40					; 00000028H

; 5285 :                 if (is_valid_) WSACleanup();

	mov	rax, QWORD PTR this$[rsp]
	movzx	eax, BYTE PTR [rax]
	test	eax, eax
	je	SHORT $LN2@WSInit
	call	QWORD PTR __imp_WSACleanup
	npad	1
$LN2@WSInit:

; 5286 :             }

	add	rsp, 40					; 00000028H
	ret	0
??1WSInit@detail@httplib@@QEAA@XZ ENDP			; httplib::detail::WSInit::~WSInit
_TEXT	ENDS
; Function compile flags: /Odtp
; File D:\c++\paoda\Helper\HttpLib\httplib.h
;	COMDAT ??0WSInit@detail@httplib@@QEAA@XZ
_TEXT	SEGMENT
wsaData$ = 32
__$ArrayPad$ = 448
this$ = 480
??0WSInit@detail@httplib@@QEAA@XZ PROC			; httplib::detail::WSInit::WSInit, COMDAT

; 5279 :             WSInit() {

$LN4:
	mov	QWORD PTR [rsp+8], rcx
	sub	rsp, 472				; 000001d8H
	mov	rax, QWORD PTR __security_cookie
	xor	rax, rsp
	mov	QWORD PTR __$ArrayPad$[rsp], rax

; 5283 : 
; 5284 :             ~WSInit() {
; 5285 :                 if (is_valid_) WSACleanup();
; 5286 :             }
; 5287 : 
; 5288 :             bool is_valid_ = false;

	mov	rax, QWORD PTR this$[rsp]
	mov	BYTE PTR [rax], 0

; 5280 :                 WSADATA wsaData;
; 5281 :                 if (WSAStartup(0x0002, &wsaData) == 0) is_valid_ = true;

	lea	rdx, QWORD PTR wsaData$[rsp]
	mov	cx, 2
	call	QWORD PTR __imp_WSAStartup
	test	eax, eax
	jne	SHORT $LN2@WSInit
	mov	rax, QWORD PTR this$[rsp]
	mov	BYTE PTR [rax], 1
$LN2@WSInit:

; 5282 :             }

	mov	rax, QWORD PTR this$[rsp]
	mov	rcx, QWORD PTR __$ArrayPad$[rsp]
	xor	rcx, rsp
	call	__security_check_cookie
	add	rsp, 472				; 000001d8H
	ret	0
??0WSInit@detail@httplib@@QEAA@XZ ENDP			; httplib::detail::WSInit::WSInit
_TEXT	ENDS
; Function compile flags: /Odtp
; File D:\c++\paoda\Helper\Misc\Console.cpp
_TEXT	SEGMENT
?Hide@Console@IronMan@@YAXXZ PROC			; IronMan::Console::Hide

; 115  : 	{

$LN4:
	sub	rsp, 40					; 00000028H

; 116  : 		if (_hConsole != nullptr)

	cmp	QWORD PTR ?_hConsole@Console@IronMan@@3PEAUHWND__@@EA, 0
	je	SHORT $LN2@Hide

; 117  : 		{
; 118  : 			ShowWindow(_hConsole, SW_HIDE);

	xor	edx, edx
	mov	rcx, QWORD PTR ?_hConsole@Console@IronMan@@3PEAUHWND__@@EA
	call	QWORD PTR __imp_ShowWindow
	npad	1
$LN2@Hide:

; 119  : 		}
; 120  : 	}

	add	rsp, 40					; 00000028H
	ret	0
?Hide@Console@IronMan@@YAXXZ ENDP			; IronMan::Console::Hide
_TEXT	ENDS
; Function compile flags: /Odtp
; File D:\c++\paoda\Helper\Misc\Console.cpp
_TEXT	SEGMENT
?Show@Console@IronMan@@YAXXZ PROC			; IronMan::Console::Show

; 106  : 	{

$LN4:
	sub	rsp, 40					; 00000028H

; 107  : 		if (_hConsole != nullptr)

	cmp	QWORD PTR ?_hConsole@Console@IronMan@@3PEAUHWND__@@EA, 0
	je	SHORT $LN2@Show

; 108  : 		{
; 109  : 			ShowWindow(_hConsole, SW_SHOW);

	mov	edx, 5
	mov	rcx, QWORD PTR ?_hConsole@Console@IronMan@@3PEAUHWND__@@EA
	call	QWORD PTR __imp_ShowWindow

; 110  : 			SetForegroundWindow(_hConsole);

	mov	rcx, QWORD PTR ?_hConsole@Console@IronMan@@3PEAUHWND__@@EA
	call	QWORD PTR __imp_SetForegroundWindow
	npad	1
$LN2@Show:

; 111  : 		}
; 112  : 	}

	add	rsp, 40					; 00000028H
	ret	0
?Show@Console@IronMan@@YAXXZ ENDP			; IronMan::Console::Show
_TEXT	ENDS
; Function compile flags: /Odtp
; File D:\c++\paoda\Helper\Misc\Console.cpp
_TEXT	SEGMENT
key$ = 48
keysread$ = 52
?ReadKey@Console@IronMan@@YADXZ PROC			; IronMan::Console::ReadKey

; 93   : 	{

$LN4:
	sub	rsp, 72					; 00000048H

; 94   : 		if (!_hIn)

	cmp	QWORD PTR ?_hIn@Console@IronMan@@3PEAXEA, 0
	jne	SHORT $LN2@ReadKey

; 95   : 			return false;

	xor	al, al
	jmp	SHORT $LN1@ReadKey
$LN2@ReadKey:

; 96   : 
; 97   : 		auto key = char{ 0 };

	mov	BYTE PTR key$[rsp], 0

; 98   : 		auto keysread = DWORD{ 0 };

	mov	DWORD PTR keysread$[rsp], 0

; 99   : 
; 100  : 		ReadConsoleA(_hIn, &key, 1, &keysread, nullptr);

	mov	QWORD PTR [rsp+32], 0
	lea	r9, QWORD PTR keysread$[rsp]
	mov	r8d, 1
	lea	rdx, QWORD PTR key$[rsp]
	mov	rcx, QWORD PTR ?_hIn@Console@IronMan@@3PEAXEA
	call	QWORD PTR __imp_ReadConsoleA

; 101  : 
; 102  : 		return key;

	movzx	eax, BYTE PTR key$[rsp]
$LN1@ReadKey:

; 103  : 	}

	add	rsp, 72					; 00000048H
	ret	0
?ReadKey@Console@IronMan@@YADXZ ENDP			; IronMan::Console::ReadKey
_TEXT	ENDS
; Function compile flags: /Odtp
; File D:\c++\paoda\Helper\Misc\Console.cpp
_TEXT	SEGMENT
$T1 = 48
tv129 = 52
tv95 = 56
va_args$ = 64
tv93 = 72
tv91 = 80
outStr$ = 88
buf$ = 128
__$ArrayPad$ = 2176
fmt$ = 2208
?Print@Console@IronMan@@YA_NPEBDZZ PROC			; IronMan::Console::Print

; 74   : 	{

$LN7:
	mov	QWORD PTR [rsp+8], rcx
	mov	QWORD PTR [rsp+16], rdx
	mov	QWORD PTR [rsp+24], r8
	mov	QWORD PTR [rsp+32], r9
	sub	rsp, 2200				; 00000898H
	mov	rax, QWORD PTR __security_cookie
	xor	rax, rsp
	mov	QWORD PTR __$ArrayPad$[rsp], rax

; 75   : 		if (!_hOut)

	cmp	QWORD PTR ?_hOut@Console@IronMan@@3PEAXEA, 0
	jne	SHORT $LN2@Print

; 76   : 			return false;

	xor	al, al
	jmp	$LN1@Print
$LN2@Print:

; 77   : 
; 78   : 		char buf[2048];
; 79   : 		va_list va_args;
; 80   : 		va_start(va_args, fmt);

	lea	rax, QWORD PTR fmt$[rsp+8]
	mov	QWORD PTR va_args$[rsp], rax

; 81   : 		_vsnprintf_s(buf, 2048, fmt, va_args);

	mov	r9, QWORD PTR va_args$[rsp]
	mov	r8, QWORD PTR fmt$[rsp]
	mov	edx, 2048				; 00000800H
	lea	rcx, QWORD PTR buf$[rsp]
	call	??$_vsnprintf_s@$0IAA@@@YAHAEAY0IAA@D_KPEBDPEAD@Z ; _vsnprintf_s<2048>

; 82   : 		va_end(va_args);

	mov	QWORD PTR va_args$[rsp], 0

; 83   : 		auto outStr = Utils::FormatString(("[-] %s\r\n"), buf);

	lea	r8, QWORD PTR buf$[rsp]
	lea	rdx, OFFSET FLAT:??_C@_08EMLABKOD@?$FL?9?$FN?5?$CFs?$AN?6@
	lea	rcx, QWORD PTR outStr$[rsp]
	call	?FormatString@Utils@IronMan@@YA?AV?$basic_string@DU?$char_traits@D@std@@V?$allocator@D@2@@std@@PEBDZZ ; IronMan::Utils::FormatString
	npad	1

; 84   : 
; 85   : 		SetConsoleMode(_hOut,

	mov	edx, 3
	mov	rcx, QWORD PTR ?_hOut@Console@IronMan@@3PEAXEA
	call	QWORD PTR __imp_SetConsoleMode
	npad	1

; 86   : 			ENABLE_PROCESSED_OUTPUT | ENABLE_WRAP_AT_EOL_OUTPUT);
; 87   : 		//FILE* out;
; 88   : 		//freopen_s(&out, ("CONOUT$"), "w", stdout);
; 89   : 		return !!WriteConsoleA(_hOut, outStr.data(), static_cast<DWORD>(outStr.length()), nullptr, nullptr);

	lea	rcx, QWORD PTR outStr$[rsp]
	call	?length@?$basic_string@DU?$char_traits@D@std@@V?$allocator@D@2@@std@@QEBA_KXZ ; std::basic_string<char,std::char_traits<char>,std::allocator<char> >::length
	mov	DWORD PTR tv95[rsp], eax
	lea	rcx, QWORD PTR outStr$[rsp]
	call	?data@?$basic_string@DU?$char_traits@D@std@@V?$allocator@D@2@@std@@QEAAPEADXZ ; std::basic_string<char,std::char_traits<char>,std::allocator<char> >::data
	mov	QWORD PTR tv93[rsp], rax
	mov	rax, QWORD PTR ?_hOut@Console@IronMan@@3PEAXEA
	mov	QWORD PTR tv91[rsp], rax
	mov	QWORD PTR [rsp+32], 0
	xor	r9d, r9d
	mov	r8d, DWORD PTR tv95[rsp]
	mov	rdx, QWORD PTR tv93[rsp]
	mov	rcx, QWORD PTR tv91[rsp]
	call	QWORD PTR __imp_WriteConsoleA
	test	eax, eax
	je	SHORT $LN4@Print
	mov	DWORD PTR tv129[rsp], 1
	jmp	SHORT $LN5@Print
$LN4@Print:
	mov	DWORD PTR tv129[rsp], 0
$LN5@Print:
	movzx	eax, BYTE PTR tv129[rsp]
	mov	BYTE PTR $T1[rsp], al
	lea	rcx, QWORD PTR outStr$[rsp]
	call	??1?$basic_string@DU?$char_traits@D@std@@V?$allocator@D@2@@std@@QEAA@XZ ; std::basic_string<char,std::char_traits<char>,std::allocator<char> >::~basic_string<char,std::char_traits<char>,std::allocator<char> >
	movzx	eax, BYTE PTR $T1[rsp]
$LN1@Print:

; 90   : 	}

	mov	rcx, QWORD PTR __$ArrayPad$[rsp]
	xor	rcx, rsp
	call	__security_check_cookie
	add	rsp, 2200				; 00000898H
	ret	0
?Print@Console@IronMan@@YA_NPEBDZZ ENDP			; IronMan::Console::Print
_TEXT	ENDS
; Function compile flags: /Odtp
text$x	SEGMENT
$T1 = 48
tv129 = 52
tv95 = 56
va_args$ = 64
tv93 = 72
tv91 = 80
outStr$ = 88
buf$ = 128
__$ArrayPad$ = 2176
fmt$ = 2208
?dtor$0@?0??Print@Console@IronMan@@YA_NPEBDZZ@4HA PROC	; `IronMan::Console::Print'::`1'::dtor$0
	push	rbp
	sub	rsp, 32					; 00000020H
	mov	rbp, rdx
	lea	rcx, QWORD PTR outStr$[rbp]
	call	??1?$basic_string@DU?$char_traits@D@std@@V?$allocator@D@2@@std@@QEAA@XZ ; std::basic_string<char,std::char_traits<char>,std::allocator<char> >::~basic_string<char,std::char_traits<char>,std::allocator<char> >
	add	rsp, 32					; 00000020H
	pop	rbp
	ret	0
?dtor$0@?0??Print@Console@IronMan@@YA_NPEBDZZ@4HA ENDP	; `IronMan::Console::Print'::`1'::dtor$0
text$x	ENDS
; Function compile flags: /Odtp
; File D:\c++\paoda\Helper\Misc\Console.cpp
_TEXT	SEGMENT
?Detach@Console@IronMan@@YAXXZ PROC			; IronMan::Console::Detach

; 60   : 	{

$LN7:
	sub	rsp, 40					; 00000028H

; 61   : 		if (_hOut && _hErr && _hIn) {

	cmp	QWORD PTR ?_hOut@Console@IronMan@@3PEAXEA, 0
	je	SHORT $LN2@Detach
	cmp	QWORD PTR ?_hErr@Console@IronMan@@3PEAXEA, 0
	je	SHORT $LN2@Detach
	cmp	QWORD PTR ?_hIn@Console@IronMan@@3PEAXEA, 0
	je	SHORT $LN2@Detach

; 62   : 			FreeConsole();

	call	QWORD PTR __imp_FreeConsole
	npad	1

; 63   : 
; 64   : 			if (_hOld_out)

	cmp	QWORD PTR ?_hOld_out@Console@IronMan@@3PEAXEA, 0
	je	SHORT $LN3@Detach

; 65   : 				SetStdHandle(STD_OUTPUT_HANDLE, _hOld_out);

	mov	rdx, QWORD PTR ?_hOld_out@Console@IronMan@@3PEAXEA
	mov	ecx, -11				; fffffff5H
	call	QWORD PTR __imp_SetStdHandle
	npad	1
$LN3@Detach:

; 66   : 			if (_hOld_err)

	cmp	QWORD PTR ?_hOld_err@Console@IronMan@@3PEAXEA, 0
	je	SHORT $LN4@Detach

; 67   : 				SetStdHandle(STD_ERROR_HANDLE, _hOld_err);

	mov	rdx, QWORD PTR ?_hOld_err@Console@IronMan@@3PEAXEA
	mov	ecx, -12				; fffffff4H
	call	QWORD PTR __imp_SetStdHandle
	npad	1
$LN4@Detach:

; 68   : 			if (_hOld_in)

	cmp	QWORD PTR ?_hOld_in@Console@IronMan@@3PEAXEA, 0
	je	SHORT $LN5@Detach

; 69   : 				SetStdHandle(STD_INPUT_HANDLE, _hOld_in);

	mov	rdx, QWORD PTR ?_hOld_in@Console@IronMan@@3PEAXEA
	mov	ecx, -10				; fffffff6H
	call	QWORD PTR __imp_SetStdHandle
	npad	1
$LN5@Detach:
$LN2@Detach:

; 70   : 		}
; 71   : 	}

	add	rsp, 40					; 00000028H
	ret	0
?Detach@Console@IronMan@@YAXXZ ENDP			; IronMan::Console::Detach
_TEXT	ENDS
; Function compile flags: /Odtp
; File D:\c++\paoda\Helper\Misc\Console.cpp
_TEXT	SEGMENT
mode$ = 64
size$ = 68
title$ = 72
__$ArrayPad$ = 128
?Attach@Console@IronMan@@YAXXZ PROC			; IronMan::Console::Attach

; 17   : 	{

$LN6:
	sub	rsp, 152				; 00000098H
	mov	rax, QWORD PTR __security_cookie
	xor	rax, rsp
	mov	QWORD PTR __$ArrayPad$[rsp], rax

; 18   : 		char title[56];
; 19   : 		sprintf_s(title, ("%s"), "Paod Console Window");

	lea	r8, OFFSET FLAT:??_C@_0BE@KGFNNONC@Paod?5Console?5Window@
	lea	rdx, OFFSET FLAT:??_C@_02DKCKIIND@?$CFs@
	lea	rcx, QWORD PTR title$[rsp]
	call	??$sprintf_s@$0DI@@@YAHAEAY0DI@DPEBDZZ	; sprintf_s<56>

; 20   : 		_hConsole = GetConsoleWindow();

	call	QWORD PTR __imp_GetConsoleWindow
	mov	QWORD PTR ?_hConsole@Console@IronMan@@3PEAUHWND__@@EA, rax

; 21   : 		if (_hConsole)

	cmp	QWORD PTR ?_hConsole@Console@IronMan@@3PEAUHWND__@@EA, 0
	je	SHORT $LN2@Attach

; 22   : 		{
; 23   : 			ShowWindow(_hConsole, SW_SHOW);

	mov	edx, 5
	mov	rcx, QWORD PTR ?_hConsole@Console@IronMan@@3PEAUHWND__@@EA
	call	QWORD PTR __imp_ShowWindow
	npad	1

; 24   : 
; 25   : 		}

	jmp	SHORT $LN3@Attach
$LN2@Attach:

; 26   : 		else
; 27   : 		{
; 28   : 			::AllocConsole() && ::AttachConsole(ATTACH_PARENT_PROCESS);

	call	QWORD PTR __imp_AllocConsole
	test	eax, eax
	je	SHORT $LN5@Attach
	mov	ecx, -1					; ffffffffH
	call	QWORD PTR __imp_AttachConsole
$LN5@Attach:

; 29   : 			_hConsole = GetConsoleWindow();

	call	QWORD PTR __imp_GetConsoleWindow
	mov	QWORD PTR ?_hConsole@Console@IronMan@@3PEAUHWND__@@EA, rax
$LN3@Attach:

; 30   : 		}
; 31   : 		_hOld_out = GetStdHandle(STD_OUTPUT_HANDLE);

	mov	ecx, -11				; fffffff5H
	call	QWORD PTR __imp_GetStdHandle
	mov	QWORD PTR ?_hOld_out@Console@IronMan@@3PEAXEA, rax

; 32   : 		_hOld_in = GetStdHandle(STD_INPUT_HANDLE);

	mov	ecx, -10				; fffffff6H
	call	QWORD PTR __imp_GetStdHandle
	mov	QWORD PTR ?_hOld_in@Console@IronMan@@3PEAXEA, rax

; 33   : 		_hOld_err = GetStdHandle(STD_ERROR_HANDLE);

	mov	ecx, -12				; fffffff4H
	call	QWORD PTR __imp_GetStdHandle
	mov	QWORD PTR ?_hOld_err@Console@IronMan@@3PEAXEA, rax

; 34   : 
; 35   : 		_hOut = GetStdHandle(STD_OUTPUT_HANDLE);

	mov	ecx, -11				; fffffff5H
	call	QWORD PTR __imp_GetStdHandle
	mov	QWORD PTR ?_hOut@Console@IronMan@@3PEAXEA, rax

; 36   : 		_hIn = GetStdHandle(STD_INPUT_HANDLE);

	mov	ecx, -10				; fffffff6H
	call	QWORD PTR __imp_GetStdHandle
	mov	QWORD PTR ?_hIn@Console@IronMan@@3PEAXEA, rax

; 37   : 		_hErr = GetStdHandle(STD_ERROR_HANDLE);

	mov	ecx, -12				; fffffff4H
	call	QWORD PTR __imp_GetStdHandle
	mov	QWORD PTR ?_hErr@Console@IronMan@@3PEAXEA, rax

; 38   : 
; 39   : 		COORD size = { 200, 80 };

	mov	eax, 200				; 000000c8H
	mov	WORD PTR size$[rsp], ax
	mov	eax, 80					; 00000050H
	mov	WORD PTR size$[rsp+2], ax

; 40   : 		SetConsoleScreenBufferSize(_hOut, size); // 

	mov	edx, DWORD PTR size$[rsp]
	mov	rcx, QWORD PTR ?_hOut@Console@IronMan@@3PEAXEA
	call	QWORD PTR __imp_SetConsoleScreenBufferSize

; 41   : 
; 42   : 		SetConsoleMode(_hOut,

	mov	edx, 3
	mov	rcx, QWORD PTR ?_hOut@Console@IronMan@@3PEAXEA
	call	QWORD PTR __imp_SetConsoleMode

; 43   : 			ENABLE_PROCESSED_OUTPUT | ENABLE_WRAP_AT_EOL_OUTPUT);
; 44   : 		//FILE* out;
; 45   : 		//freopen_s(&out, ("CONOUT$"), "w", stdout);
; 46   : 
; 47   : 		DWORD mode;
; 48   : 		GetConsoleMode(_hIn, &mode);

	lea	rdx, QWORD PTR mode$[rsp]
	mov	rcx, QWORD PTR ?_hIn@Console@IronMan@@3PEAXEA
	call	QWORD PTR __imp_GetConsoleMode

; 49   : 		//SetConsoleMode(_hIn, mode & ENABLE_MOUSE_INPUT); // 
; 50   : 		SetConsoleMode(_hIn, mode & ~ENABLE_MOUSE_INPUT); // 

	mov	eax, DWORD PTR mode$[rsp]
	and	eax, -17				; ffffffefH
	mov	edx, eax
	mov	rcx, QWORD PTR ?_hIn@Console@IronMan@@3PEAXEA
	call	QWORD PTR __imp_SetConsoleMode

; 51   : 		GetConsoleMode(_hIn, &mode);

	lea	rdx, QWORD PTR mode$[rsp]
	mov	rcx, QWORD PTR ?_hIn@Console@IronMan@@3PEAXEA
	call	QWORD PTR __imp_GetConsoleMode

; 52   : 		SetConsoleMode(_hIn, mode & ~ENABLE_QUICK_EDIT_MODE); // 

	mov	eax, DWORD PTR mode$[rsp]
	and	eax, -65				; ffffffbfH
	mov	edx, eax
	mov	rcx, QWORD PTR ?_hIn@Console@IronMan@@3PEAXEA
	call	QWORD PTR __imp_SetConsoleMode

; 53   : 		//SetConsoleMode(_hIn, mode & ENABLE_QUICK_EDIT_MODE); // 
; 54   : 		SetConsoleOutputCP(CP_UTF8);

	mov	ecx, 65001				; 0000fde9H
	call	QWORD PTR __imp_SetConsoleOutputCP

; 55   : 		SetConsoleTitleA(title);

	lea	rcx, QWORD PTR title$[rsp]
	call	QWORD PTR __imp_SetConsoleTitleA

; 56   : 		SetWindowPos(_hConsole, 0, 100, 100, 800, 600, SWP_NOZORDER);

	mov	DWORD PTR [rsp+48], 4
	mov	DWORD PTR [rsp+40], 600			; 00000258H
	mov	DWORD PTR [rsp+32], 800			; 00000320H
	mov	r9d, 100				; 00000064H
	mov	r8d, 100				; 00000064H
	xor	edx, edx
	mov	rcx, QWORD PTR ?_hConsole@Console@IronMan@@3PEAUHWND__@@EA
	call	QWORD PTR __imp_SetWindowPos
	npad	1

; 57   : 	}

	mov	rcx, QWORD PTR __$ArrayPad$[rsp]
	xor	rcx, rsp
	call	__security_check_cookie
	add	rsp, 152				; 00000098H
	ret	0
?Attach@Console@IronMan@@YAXXZ ENDP			; IronMan::Console::Attach
_TEXT	ENDS
; Function compile flags: /Odtp
;	COMDAT ??1?$_Compressed_pair@V?$allocator@D@std@@V?$_String_val@U?$_Simple_types@D@std@@@2@$00@std@@QEAA@XZ
_TEXT	SEGMENT
this$ = 48
??1?$_Compressed_pair@V?$allocator@D@std@@V?$_String_val@U?$_Simple_types@D@std@@@2@$00@std@@QEAA@XZ PROC ; std::_Compressed_pair<std::allocator<char>,std::_String_val<std::_Simple_types<char> >,1>::~_Compressed_pair<std::allocator<char>,std::_String_val<std::_Simple_types<char> >,1>, COMDAT
$LN4:
	mov	QWORD PTR [rsp+8], rcx
	sub	rsp, 40					; 00000028H
	mov	rax, QWORD PTR this$[rsp]
	mov	rcx, rax
	call	??1?$_String_val@U?$_Simple_types@D@std@@@std@@QEAA@XZ
	npad	1
	add	rsp, 40					; 00000028H
	ret	0
??1?$_Compressed_pair@V?$allocator@D@std@@V?$_String_val@U?$_Simple_types@D@std@@@2@$00@std@@QEAA@XZ ENDP ; std::_Compressed_pair<std::allocator<char>,std::_String_val<std::_Simple_types<char> >,1>::~_Compressed_pair<std::allocator<char>,std::_String_val<std::_Simple_types<char> >,1>
_TEXT	ENDS
; Function compile flags: /Odtp
;	COMDAT text$x
text$x	SEGMENT
this$ = 48
?dtor$0@?0???1?$_Compressed_pair@V?$allocator@D@std@@V?$_String_val@U?$_Simple_types@D@std@@@2@$00@std@@QEAA@XZ@4HA PROC ; `std::_Compressed_pair<std::allocator<char>,std::_String_val<std::_Simple_types<char> >,1>::~_Compressed_pair<std::allocator<char>,std::_String_val<std::_Simple_types<char> >,1>'::`1'::dtor$0
	push	rbp
	sub	rsp, 32					; 00000020H
	mov	rbp, rdx
	mov	rcx, QWORD PTR this$[rbp]
	call	??1?$_String_val@U?$_Simple_types@D@std@@@std@@QEAA@XZ
	add	rsp, 32					; 00000020H
	pop	rbp
	ret	0
?dtor$0@?0???1?$_Compressed_pair@V?$allocator@D@std@@V?$_String_val@U?$_Simple_types@D@std@@@2@$00@std@@QEAA@XZ@4HA ENDP ; `std::_Compressed_pair<std::allocator<char>,std::_String_val<std::_Simple_types<char> >,1>::~_Compressed_pair<std::allocator<char>,std::_String_val<std::_Simple_types<char> >,1>'::`1'::dtor$0
text$x	ENDS
; Function compile flags: /Odtp
; File C:\Program Files\Microsoft Visual Studio\2022\Community\VC\Tools\MSVC\14.43.34808\include\xmemory
;	COMDAT ?_Get_first@?$_Compressed_pair@V?$allocator@D@std@@V?$_String_val@U?$_Simple_types@D@std@@@2@$00@std@@QEAAAEAV?$allocator@D@2@XZ
_TEXT	SEGMENT
this$ = 8
?_Get_first@?$_Compressed_pair@V?$allocator@D@std@@V?$_String_val@U?$_Simple_types@D@std@@@2@$00@std@@QEAAAEAV?$allocator@D@2@XZ PROC ; std::_Compressed_pair<std::allocator<char>,std::_String_val<std::_Simple_types<char> >,1>::_Get_first, COMDAT

; 1534 :     constexpr _Ty1& _Get_first() noexcept {

	mov	QWORD PTR [rsp+8], rcx

; 1535 :         return *this;

	mov	rax, QWORD PTR this$[rsp]

; 1536 :     }

	ret	0
?_Get_first@?$_Compressed_pair@V?$allocator@D@std@@V?$_String_val@U?$_Simple_types@D@std@@@2@$00@std@@QEAAAEAV?$allocator@D@2@XZ ENDP ; std::_Compressed_pair<std::allocator<char>,std::_String_val<std::_Simple_types<char> >,1>::_Get_first
_TEXT	ENDS
; Function compile flags: /Odtp
; File C:\Program Files\Microsoft Visual Studio\2022\Community\VC\Tools\MSVC\14.43.34808\include\xstring
;	COMDAT ?_Getal@?$basic_string@DU?$char_traits@D@std@@V?$allocator@D@2@@std@@AEAAAEAV?$allocator@D@2@XZ
_TEXT	SEGMENT
this$ = 48
?_Getal@?$basic_string@DU?$char_traits@D@std@@V?$allocator@D@2@@std@@AEAAAEAV?$allocator@D@2@XZ PROC ; std::basic_string<char,std::char_traits<char>,std::allocator<char> >::_Getal, COMDAT

; 3070 :     _CONSTEXPR20 _Alty& _Getal() noexcept {

$LN3:
	mov	QWORD PTR [rsp+8], rcx
	sub	rsp, 40					; 00000028H

; 3071 :         return _Mypair._Get_first();

	mov	rax, QWORD PTR this$[rsp]
	mov	rcx, rax
	call	?_Get_first@?$_Compressed_pair@V?$allocator@D@std@@V?$_String_val@U?$_Simple_types@D@std@@@2@$00@std@@QEAAAEAV?$allocator@D@2@XZ ; std::_Compressed_pair<std::allocator<char>,std::_String_val<std::_Simple_types<char> >,1>::_Get_first

; 3072 :     }

	add	rsp, 40					; 00000028H
	ret	0
?_Getal@?$basic_string@DU?$char_traits@D@std@@V?$allocator@D@2@@std@@AEAAAEAV?$allocator@D@2@XZ ENDP ; std::basic_string<char,std::char_traits<char>,std::allocator<char> >::_Getal
_TEXT	ENDS
; Function compile flags: /Odtp
; File C:\Program Files\Microsoft Visual Studio\2022\Community\VC\Tools\MSVC\14.43.34808\include\xstring
;	COMDAT ?_Tidy_deallocate@?$basic_string@DU?$char_traits@D@std@@V?$allocator@D@2@@std@@AEAAXXZ
_TEXT	SEGMENT
$T1 = 32
_My_data$ = 40
_Al$2 = 48
this$ = 80
?_Tidy_deallocate@?$basic_string@DU?$char_traits@D@std@@V?$allocator@D@2@@std@@AEAAXXZ PROC ; std::basic_string<char,std::char_traits<char>,std::allocator<char> >::_Tidy_deallocate, COMDAT

; 3044 :     _CONSTEXPR20 void _Tidy_deallocate() noexcept { // initialize buffer, deallocating any storage

$LN4:
	mov	QWORD PTR [rsp+8], rcx
	sub	rsp, 72					; 00000048H

; 3045 :         auto& _My_data = _Mypair._Myval2;

	mov	rax, QWORD PTR this$[rsp]
	mov	QWORD PTR _My_data$[rsp], rax

; 3046 :         _My_data._Orphan_all();

	mov	rcx, QWORD PTR _My_data$[rsp]
	call	?_Orphan_all@_Container_base0@std@@QEAAXXZ ; std::_Container_base0::_Orphan_all
	npad	1

; 3047 :         if (_My_data._Large_mode_engaged()) {

	mov	rcx, QWORD PTR _My_data$[rsp]
	call	?_Large_mode_engaged@?$_String_val@U?$_Simple_types@D@std@@@std@@QEBA_NXZ ; std::_String_val<std::_Simple_types<char> >::_Large_mode_engaged
	movzx	eax, al
	test	eax, eax
	je	SHORT $LN2@Tidy_deall

; 3048 :             _ASAN_STRING_REMOVE(*this);
; 3049 :             auto& _Al = _Getal();

	mov	rcx, QWORD PTR this$[rsp]
	call	?_Getal@?$basic_string@DU?$char_traits@D@std@@V?$allocator@D@2@@std@@AEAAAEAV?$allocator@D@2@XZ ; std::basic_string<char,std::char_traits<char>,std::allocator<char> >::_Getal
	mov	QWORD PTR _Al$2[rsp], rax

; 3050 :             _Deallocate_for_capacity(_Al, _My_data._Bx._Ptr, _My_data._Myres);

	mov	rax, QWORD PTR _My_data$[rsp]
	mov	r8, QWORD PTR [rax+24]
	mov	rax, QWORD PTR _My_data$[rsp]
	mov	rdx, QWORD PTR [rax]
	mov	rcx, QWORD PTR _Al$2[rsp]
	call	?_Deallocate_for_capacity@?$basic_string@DU?$char_traits@D@std@@V?$allocator@D@2@@std@@CAXAEAV?$allocator@D@2@QEAD_K@Z ; std::basic_string<char,std::char_traits<char>,std::allocator<char> >::_Deallocate_for_capacity

; 3051 :             _My_data._Bx._Switch_to_buf();

	mov	rax, QWORD PTR _My_data$[rsp]
	mov	rcx, rax
	call	?_Switch_to_buf@_Bxty@?$_String_val@U?$_Simple_types@D@std@@@std@@QEAAXXZ ; std::_String_val<std::_Simple_types<char> >::_Bxty::_Switch_to_buf
	npad	1
$LN2@Tidy_deall:

; 3052 :         }
; 3053 : 
; 3054 :         _My_data._Mysize = 0;

	mov	rax, QWORD PTR _My_data$[rsp]
	mov	QWORD PTR [rax+16], 0

; 3055 :         _My_data._Myres  = _Small_string_capacity;

	mov	rax, QWORD PTR _My_data$[rsp]
	mov	QWORD PTR [rax+24], 15

; 3056 :         // the _Traits::assign is last so the codegen doesn't think the char write can alias this
; 3057 :         _Traits::assign(_My_data._Bx._Buf[0], _Elem());

	mov	BYTE PTR $T1[rsp], 0
	mov	eax, 1
	imul	rax, rax, 0
	mov	rcx, QWORD PTR _My_data$[rsp]
	add	rcx, rax
	mov	rax, rcx
	lea	rdx, QWORD PTR $T1[rsp]
	mov	rcx, rax
	call	?assign@?$_Narrow_char_traits@DH@std@@SAXAEADAEBD@Z ; std::_Narrow_char_traits<char,int>::assign
	npad	1

; 3058 :     }

	add	rsp, 72					; 00000048H
	ret	0
?_Tidy_deallocate@?$basic_string@DU?$char_traits@D@std@@V?$allocator@D@2@@std@@AEAAXXZ ENDP ; std::basic_string<char,std::char_traits<char>,std::allocator<char> >::_Tidy_deallocate
_TEXT	ENDS
; Function compile flags: /Odtp
; File C:\Program Files\Microsoft Visual Studio\2022\Community\VC\Tools\MSVC\14.43.34808\include\xstring
;	COMDAT ?length@?$basic_string@DU?$char_traits@D@std@@V?$allocator@D@2@@std@@QEBA_KXZ
_TEXT	SEGMENT
this$ = 8
?length@?$basic_string@DU?$char_traits@D@std@@V?$allocator@D@2@@std@@QEBA_KXZ PROC ; std::basic_string<char,std::char_traits<char>,std::allocator<char> >::length, COMDAT

; 2341 :     _NODISCARD _CONSTEXPR20 size_type length() const noexcept {

	mov	QWORD PTR [rsp+8], rcx

; 2342 :         return _Mypair._Myval2._Mysize;

	mov	rax, QWORD PTR this$[rsp]
	mov	rax, QWORD PTR [rax+16]

; 2343 :     }

	ret	0
?length@?$basic_string@DU?$char_traits@D@std@@V?$allocator@D@2@@std@@QEBA_KXZ ENDP ; std::basic_string<char,std::char_traits<char>,std::allocator<char> >::length
_TEXT	ENDS
; Function compile flags: /Odtp
; File C:\Program Files\Microsoft Visual Studio\2022\Community\VC\Tools\MSVC\14.43.34808\include\xstring
;	COMDAT ?data@?$basic_string@DU?$char_traits@D@std@@V?$allocator@D@2@@std@@QEAAPEADXZ
_TEXT	SEGMENT
this$ = 48
?data@?$basic_string@DU?$char_traits@D@std@@V?$allocator@D@2@@std@@QEAAPEADXZ PROC ; std::basic_string<char,std::char_traits<char>,std::allocator<char> >::data, COMDAT

; 2336 :     _NODISCARD _CONSTEXPR20 _Ret_z_ _Elem* data() noexcept {

$LN3:
	mov	QWORD PTR [rsp+8], rcx
	sub	rsp, 40					; 00000028H

; 2337 :         return _Mypair._Myval2._Myptr();

	mov	rax, QWORD PTR this$[rsp]
	mov	rcx, rax
	call	?_Myptr@?$_String_val@U?$_Simple_types@D@std@@@std@@QEAAPEADXZ ; std::_String_val<std::_Simple_types<char> >::_Myptr

; 2338 :     }

	add	rsp, 40					; 00000028H
	ret	0
?data@?$basic_string@DU?$char_traits@D@std@@V?$allocator@D@2@@std@@QEAAPEADXZ ENDP ; std::basic_string<char,std::char_traits<char>,std::allocator<char> >::data
_TEXT	ENDS
; Function compile flags: /Odtp
; File C:\Program Files\Microsoft Visual Studio\2022\Community\VC\Tools\MSVC\14.43.34808\include\xstring
;	COMDAT ??1?$basic_string@DU?$char_traits@D@std@@V?$allocator@D@2@@std@@QEAA@XZ
_TEXT	SEGMENT
this$ = 48
??1?$basic_string@DU?$char_traits@D@std@@V?$allocator@D@2@@std@@QEAA@XZ PROC ; std::basic_string<char,std::char_traits<char>,std::allocator<char> >::~basic_string<char,std::char_traits<char>,std::allocator<char> >, COMDAT

; 1358 :     _CONSTEXPR20 ~basic_string() noexcept {

$LN4:
	mov	QWORD PTR [rsp+8], rcx
	sub	rsp, 40					; 00000028H

; 1359 :         _Tidy_deallocate();

	mov	rcx, QWORD PTR this$[rsp]
	call	?_Tidy_deallocate@?$basic_string@DU?$char_traits@D@std@@V?$allocator@D@2@@std@@AEAAXXZ ; std::basic_string<char,std::char_traits<char>,std::allocator<char> >::_Tidy_deallocate
	npad	1

; 1360 : #if _ITERATOR_DEBUG_LEVEL != 0
; 1361 :         auto&& _Alproxy          = _GET_PROXY_ALLOCATOR(_Alty, _Getal());
; 1362 :         const auto _To_delete    = _Mypair._Myval2._Myproxy;
; 1363 :         _Mypair._Myval2._Myproxy = nullptr;
; 1364 :         _Delete_plain_internal(_Alproxy, _To_delete);
; 1365 : #endif // _ITERATOR_DEBUG_LEVEL != 0
; 1366 :     }

	mov	rax, QWORD PTR this$[rsp]
	mov	rcx, rax
	call	??1?$_Compressed_pair@V?$allocator@D@std@@V?$_String_val@U?$_Simple_types@D@std@@@2@$00@std@@QEAA@XZ
	npad	1
	add	rsp, 40					; 00000028H
	ret	0
??1?$basic_string@DU?$char_traits@D@std@@V?$allocator@D@2@@std@@QEAA@XZ ENDP ; std::basic_string<char,std::char_traits<char>,std::allocator<char> >::~basic_string<char,std::char_traits<char>,std::allocator<char> >
_TEXT	ENDS
; Function compile flags: /Odtp
;	COMDAT text$x
text$x	SEGMENT
this$ = 48
?dtor$0@?0???1?$basic_string@DU?$char_traits@D@std@@V?$allocator@D@2@@std@@QEAA@XZ@4HA PROC ; `std::basic_string<char,std::char_traits<char>,std::allocator<char> >::~basic_string<char,std::char_traits<char>,std::allocator<char> >'::`1'::dtor$0
	push	rbp
	sub	rsp, 32					; 00000020H
	mov	rbp, rdx
	mov	rcx, QWORD PTR this$[rbp]
	call	??1?$_Compressed_pair@V?$allocator@D@std@@V?$_String_val@U?$_Simple_types@D@std@@@2@$00@std@@QEAA@XZ
	add	rsp, 32					; 00000020H
	pop	rbp
	ret	0
?dtor$0@?0???1?$basic_string@DU?$char_traits@D@std@@V?$allocator@D@2@@std@@QEAA@XZ@4HA ENDP ; `std::basic_string<char,std::char_traits<char>,std::allocator<char> >::~basic_string<char,std::char_traits<char>,std::allocator<char> >'::`1'::dtor$0
text$x	ENDS
; Function compile flags: /Odtp
; File C:\Program Files\Microsoft Visual Studio\2022\Community\VC\Tools\MSVC\14.43.34808\include\xstring
;	COMDAT ?_Deallocate_for_capacity@?$basic_string@DU?$char_traits@D@std@@V?$allocator@D@2@@std@@CAXAEAV?$allocator@D@2@QEAD_K@Z
_TEXT	SEGMENT
_Al$ = 48
_Old_ptr$ = 56
_Capacity$ = 64
?_Deallocate_for_capacity@?$basic_string@DU?$char_traits@D@std@@V?$allocator@D@2@@std@@CAXAEAV?$allocator@D@2@QEAD_K@Z PROC ; std::basic_string<char,std::char_traits<char>,std::allocator<char> >::_Deallocate_for_capacity, COMDAT

; 826  :         _Alty& _Al, const pointer _Old_ptr, const size_type _Capacity) noexcept {

$LN3:
	mov	QWORD PTR [rsp+24], r8
	mov	QWORD PTR [rsp+16], rdx
	mov	QWORD PTR [rsp+8], rcx
	sub	rsp, 40					; 00000028H

; 827  :         _STL_INTERNAL_CHECK(_Capacity > _Small_string_capacity);
; 828  :         _Al.deallocate(_Old_ptr, _Capacity + 1); // +1 for null terminator

	mov	rax, QWORD PTR _Capacity$[rsp]
	inc	rax
	mov	r8, rax
	mov	rdx, QWORD PTR _Old_ptr$[rsp]
	mov	rcx, QWORD PTR _Al$[rsp]
	call	?deallocate@?$allocator@D@std@@QEAAXQEAD_K@Z ; std::allocator<char>::deallocate
	npad	1

; 829  :     }

	add	rsp, 40					; 00000028H
	ret	0
?_Deallocate_for_capacity@?$basic_string@DU?$char_traits@D@std@@V?$allocator@D@2@@std@@CAXAEAV?$allocator@D@2@QEAD_K@Z ENDP ; std::basic_string<char,std::char_traits<char>,std::allocator<char> >::_Deallocate_for_capacity
_TEXT	ENDS
; Function compile flags: /Odtp
;	COMDAT ??1?$_String_val@U?$_Simple_types@D@std@@@std@@QEAA@XZ
_TEXT	SEGMENT
this$ = 48
??1?$_String_val@U?$_Simple_types@D@std@@@std@@QEAA@XZ PROC ; std::_String_val<std::_Simple_types<char> >::~_String_val<std::_Simple_types<char> >, COMDAT
$LN4:
	mov	QWORD PTR [rsp+8], rcx
	sub	rsp, 40					; 00000028H
	mov	rax, QWORD PTR this$[rsp]
	mov	rcx, rax
	call	??1_Bxty@?$_String_val@U?$_Simple_types@D@std@@@std@@QEAA@XZ ; std::_String_val<std::_Simple_types<char> >::_Bxty::~_Bxty
	npad	1
	add	rsp, 40					; 00000028H
	ret	0
??1?$_String_val@U?$_Simple_types@D@std@@@std@@QEAA@XZ ENDP ; std::_String_val<std::_Simple_types<char> >::~_String_val<std::_Simple_types<char> >
_TEXT	ENDS
; Function compile flags: /Odtp
;	COMDAT text$x
text$x	SEGMENT
this$ = 48
?dtor$0@?0???1?$_String_val@U?$_Simple_types@D@std@@@std@@QEAA@XZ@4HA PROC ; `std::_String_val<std::_Simple_types<char> >::~_String_val<std::_Simple_types<char> >'::`1'::dtor$0
	push	rbp
	sub	rsp, 32					; 00000020H
	mov	rbp, rdx
	mov	rcx, QWORD PTR this$[rbp]
	call	??1_Bxty@?$_String_val@U?$_Simple_types@D@std@@@std@@QEAA@XZ ; std::_String_val<std::_Simple_types<char> >::_Bxty::~_Bxty
	add	rsp, 32					; 00000020H
	pop	rbp
	ret	0
?dtor$0@?0???1?$_String_val@U?$_Simple_types@D@std@@@std@@QEAA@XZ@4HA ENDP ; `std::_String_val<std::_Simple_types<char> >::~_String_val<std::_Simple_types<char> >'::`1'::dtor$0
text$x	ENDS
; Function compile flags: /Odtp
; File C:\Program Files\Microsoft Visual Studio\2022\Community\VC\Tools\MSVC\14.43.34808\include\xstring
;	COMDAT ?_Switch_to_buf@_Bxty@?$_String_val@U?$_Simple_types@D@std@@@std@@QEAAXXZ
_TEXT	SEGMENT
this$ = 48
?_Switch_to_buf@_Bxty@?$_String_val@U?$_Simple_types@D@std@@@std@@QEAAXXZ PROC ; std::_String_val<std::_Simple_types<char> >::_Bxty::_Switch_to_buf, COMDAT

; 481  :         _CONSTEXPR20 void _Switch_to_buf() noexcept {

$LN3:
	mov	QWORD PTR [rsp+8], rcx
	sub	rsp, 40					; 00000028H

; 482  :             _STD _Destroy_in_place(_Ptr);

	mov	rax, QWORD PTR this$[rsp]
	mov	rcx, rax
	call	??$_Destroy_in_place@PEAD@std@@YAXAEAPEAD@Z ; std::_Destroy_in_place<char *>
	npad	1

; 483  : 
; 484  : #if _HAS_CXX20
; 485  :             // start the lifetime of the array elements
; 486  :             if (_STD is_constant_evaluated()) {
; 487  :                 for (size_type _Idx = 0; _Idx < _BUF_SIZE; ++_Idx) {
; 488  :                     _Buf[_Idx] = value_type();
; 489  :                 }
; 490  :             }
; 491  : #endif // _HAS_CXX20
; 492  :         }

	add	rsp, 40					; 00000028H
	ret	0
?_Switch_to_buf@_Bxty@?$_String_val@U?$_Simple_types@D@std@@@std@@QEAAXXZ ENDP ; std::_String_val<std::_Simple_types<char> >::_Bxty::_Switch_to_buf
_TEXT	ENDS
; Function compile flags: /Odtp
; File C:\Program Files\Microsoft Visual Studio\2022\Community\VC\Tools\MSVC\14.43.34808\include\xstring
;	COMDAT ??1_Bxty@?$_String_val@U?$_Simple_types@D@std@@@std@@QEAA@XZ
_TEXT	SEGMENT
this$ = 8
??1_Bxty@?$_String_val@U?$_Simple_types@D@std@@@std@@QEAA@XZ PROC ; std::_String_val<std::_Simple_types<char> >::_Bxty::~_Bxty, COMDAT

; 475  :         _CONSTEXPR20 ~_Bxty() noexcept {} // user-provided, for fancy pointers

	mov	QWORD PTR [rsp+8], rcx
	ret	0
??1_Bxty@?$_String_val@U?$_Simple_types@D@std@@@std@@QEAA@XZ ENDP ; std::_String_val<std::_Simple_types<char> >::_Bxty::~_Bxty
_TEXT	ENDS
; Function compile flags: /Odtp
; File C:\Program Files\Microsoft Visual Studio\2022\Community\VC\Tools\MSVC\14.43.34808\include\xstring
;	COMDAT ?_Large_mode_engaged@?$_String_val@U?$_Simple_types@D@std@@@std@@QEBA_NXZ
_TEXT	SEGMENT
tv66 = 0
this$ = 32
?_Large_mode_engaged@?$_String_val@U?$_Simple_types@D@std@@@std@@QEBA_NXZ PROC ; std::_String_val<std::_Simple_types<char> >::_Large_mode_engaged, COMDAT

; 433  :     _NODISCARD _CONSTEXPR20 bool _Large_mode_engaged() const noexcept {

$LN5:
	mov	QWORD PTR [rsp+8], rcx
	sub	rsp, 24

; 434  :         return _Myres > _Small_string_capacity;

	mov	rax, QWORD PTR this$[rsp]
	cmp	QWORD PTR [rax+24], 15
	jbe	SHORT $LN3@Large_mode
	mov	DWORD PTR tv66[rsp], 1
	jmp	SHORT $LN4@Large_mode
$LN3@Large_mode:
	mov	DWORD PTR tv66[rsp], 0
$LN4@Large_mode:
	movzx	eax, BYTE PTR tv66[rsp]

; 435  :     }

	add	rsp, 24
	ret	0
?_Large_mode_engaged@?$_String_val@U?$_Simple_types@D@std@@@std@@QEBA_NXZ ENDP ; std::_String_val<std::_Simple_types<char> >::_Large_mode_engaged
_TEXT	ENDS
; Function compile flags: /Odtp
; File C:\Program Files\Microsoft Visual Studio\2022\Community\VC\Tools\MSVC\14.43.34808\include\xstring
;	COMDAT ?_Myptr@?$_String_val@U?$_Simple_types@D@std@@@std@@QEAAPEADXZ
_TEXT	SEGMENT
_Result$ = 32
this$ = 64
?_Myptr@?$_String_val@U?$_Simple_types@D@std@@@std@@QEAAPEADXZ PROC ; std::_String_val<std::_Simple_types<char> >::_Myptr, COMDAT

; 415  :     _NODISCARD _CONSTEXPR20 value_type* _Myptr() noexcept {

$LN4:
	mov	QWORD PTR [rsp+8], rcx
	sub	rsp, 56					; 00000038H

; 416  :         value_type* _Result = _Bx._Buf;

	mov	rax, QWORD PTR this$[rsp]
	mov	QWORD PTR _Result$[rsp], rax

; 417  :         if (_Large_mode_engaged()) {

	mov	rcx, QWORD PTR this$[rsp]
	call	?_Large_mode_engaged@?$_String_val@U?$_Simple_types@D@std@@@std@@QEBA_NXZ ; std::_String_val<std::_Simple_types<char> >::_Large_mode_engaged
	movzx	eax, al
	test	eax, eax
	je	SHORT $LN2@Myptr

; 418  :             _Result = _Unfancy(_Bx._Ptr);

	mov	rax, QWORD PTR this$[rsp]
	mov	rcx, QWORD PTR [rax]
	call	??$_Unfancy@D@std@@YAPEADPEAD@Z		; std::_Unfancy<char>
	mov	QWORD PTR _Result$[rsp], rax
$LN2@Myptr:

; 419  :         }
; 420  : 
; 421  :         return _Result;

	mov	rax, QWORD PTR _Result$[rsp]

; 422  :     }

	add	rsp, 56					; 00000038H
	ret	0
?_Myptr@?$_String_val@U?$_Simple_types@D@std@@@std@@QEAAPEADXZ ENDP ; std::_String_val<std::_Simple_types<char> >::_Myptr
_TEXT	ENDS
; Function compile flags: /Odtp
; File C:\Program Files\Microsoft Visual Studio\2022\Community\VC\Tools\MSVC\14.43.34808\include\xmemory
;	COMDAT ?deallocate@?$allocator@D@std@@QEAAXQEAD_K@Z
_TEXT	SEGMENT
this$ = 48
_Ptr$ = 56
_Count$ = 64
?deallocate@?$allocator@D@std@@QEAAXQEAD_K@Z PROC	; std::allocator<char>::deallocate, COMDAT

; 978  :     _CONSTEXPR20 void deallocate(_Ty* const _Ptr, const size_t _Count) noexcept /* strengthened */ {

$LN3:
	mov	QWORD PTR [rsp+24], r8
	mov	QWORD PTR [rsp+16], rdx
	mov	QWORD PTR [rsp+8], rcx
	sub	rsp, 40					; 00000028H

; 979  :         _STL_ASSERT(_Ptr != nullptr || _Count == 0, "null pointer cannot point to a block of non-zero size");
; 980  :         // no overflow check on the following multiply; we assume _Allocate did that check
; 981  :         _STD _Deallocate<_New_alignof<_Ty>>(_Ptr, sizeof(_Ty) * _Count);

	mov	rdx, QWORD PTR _Count$[rsp]
	mov	rcx, QWORD PTR _Ptr$[rsp]
	call	??$_Deallocate@$0BA@@std@@YAXPEAX_K@Z	; std::_Deallocate<16>
	npad	1

; 982  :     }

	add	rsp, 40					; 00000028H
	ret	0
?deallocate@?$allocator@D@std@@QEAAXQEAD_K@Z ENDP	; std::allocator<char>::deallocate
_TEXT	ENDS
; Function compile flags: /Odtp
; File C:\Program Files\Microsoft Visual Studio\2022\Community\VC\Tools\MSVC\14.43.34808\include\xmemory
;	COMDAT ?_Orphan_all@_Container_base0@std@@QEAAXXZ
_TEXT	SEGMENT
this$ = 8
?_Orphan_all@_Container_base0@std@@QEAAXXZ PROC		; std::_Container_base0::_Orphan_all, COMDAT

; 1180 :     _CONSTEXPR20 void _Orphan_all() noexcept {}

	mov	QWORD PTR [rsp+8], rcx
	ret	0
?_Orphan_all@_Container_base0@std@@QEAAXXZ ENDP		; std::_Container_base0::_Orphan_all
_TEXT	ENDS
; Function compile flags: /Odtp
; File C:\Program Files\Microsoft Visual Studio\2022\Community\VC\Tools\MSVC\14.43.34808\include\xmemory
;	COMDAT ?_Adjust_manually_vector_aligned@std@@YAXAEAPEAXAEA_K@Z
_TEXT	SEGMENT
_Back_shift$ = 32
_Ptr_container$ = 40
_Ptr_user$ = 48
_Min_back_shift$ = 56
_Ptr$ = 80
_Bytes$ = 88
?_Adjust_manually_vector_aligned@std@@YAXAEAPEAXAEA_K@Z PROC ; std::_Adjust_manually_vector_aligned, COMDAT

; 200  : inline void _Adjust_manually_vector_aligned(void*& _Ptr, size_t& _Bytes) {

$LN11:
	mov	QWORD PTR [rsp+16], rdx
	mov	QWORD PTR [rsp+8], rcx
	sub	rsp, 72					; 00000048H

; 201  :     // adjust parameters from _Allocate_manually_vector_aligned to pass to operator delete
; 202  :     _Bytes += _Non_user_size;

	mov	rax, QWORD PTR _Bytes$[rsp]
	mov	rax, QWORD PTR [rax]
	add	rax, 39					; 00000027H
	mov	rcx, QWORD PTR _Bytes$[rsp]
	mov	QWORD PTR [rcx], rax

; 203  : 
; 204  :     const uintptr_t* const _Ptr_user = static_cast<uintptr_t*>(_Ptr);

	mov	rax, QWORD PTR _Ptr$[rsp]
	mov	rax, QWORD PTR [rax]
	mov	QWORD PTR _Ptr_user$[rsp], rax

; 205  :     const uintptr_t _Ptr_container   = _Ptr_user[-1];

	mov	eax, 8
	imul	rax, rax, -1
	mov	rcx, QWORD PTR _Ptr_user$[rsp]
	mov	rax, QWORD PTR [rcx+rax]
	mov	QWORD PTR _Ptr_container$[rsp], rax

; 206  : 
; 207  :     // If the following asserts, it likely means that we are performing
; 208  :     // an aligned delete on memory coming from an unaligned allocation.
; 209  :     _STL_ASSERT(_Ptr_user[-2] == _Big_allocation_sentinel, "invalid argument");
; 210  : 
; 211  :     // Extra paranoia on aligned allocation/deallocation; ensure _Ptr_container is
; 212  :     // in range [_Min_back_shift, _Non_user_size]
; 213  : #ifdef _DEBUG
; 214  :     constexpr uintptr_t _Min_back_shift = 2 * sizeof(void*);
; 215  : #else // ^^^ defined(_DEBUG) / !defined(_DEBUG) vvv
; 216  :     constexpr uintptr_t _Min_back_shift = sizeof(void*);

	mov	QWORD PTR _Min_back_shift$[rsp], 8

; 217  : #endif // ^^^ !defined(_DEBUG) ^^^
; 218  :     const uintptr_t _Back_shift = reinterpret_cast<uintptr_t>(_Ptr) - _Ptr_container;

	mov	rax, QWORD PTR _Ptr$[rsp]
	mov	rcx, QWORD PTR _Ptr_container$[rsp]
	mov	rax, QWORD PTR [rax]
	sub	rax, rcx
	mov	QWORD PTR _Back_shift$[rsp], rax
$LN4@Adjust_man:

; 219  :     _STL_VERIFY(_Back_shift >= _Min_back_shift && _Back_shift <= _Non_user_size, "invalid argument");

	cmp	QWORD PTR _Back_shift$[rsp], 8
	jb	SHORT $LN8@Adjust_man
	cmp	QWORD PTR _Back_shift$[rsp], 39		; 00000027H
	ja	SHORT $LN8@Adjust_man
	jmp	SHORT $LN9@Adjust_man
$LN8@Adjust_man:
$LN7@Adjust_man:
	call	_invalid_parameter_noinfo_noreturn
	npad	1
	xor	eax, eax
	test	eax, eax
	jne	SHORT $LN7@Adjust_man
$LN9@Adjust_man:
	xor	eax, eax
	test	eax, eax
	jne	SHORT $LN4@Adjust_man

; 220  :     _Ptr = reinterpret_cast<void*>(_Ptr_container);

	mov	rax, QWORD PTR _Ptr$[rsp]
	mov	rcx, QWORD PTR _Ptr_container$[rsp]
	mov	QWORD PTR [rax], rcx
$LN10@Adjust_man:

; 221  : }

	add	rsp, 72					; 00000048H
	ret	0
?_Adjust_manually_vector_aligned@std@@YAXAEAPEAXAEA_K@Z ENDP ; std::_Adjust_manually_vector_aligned
_TEXT	ENDS
; Function compile flags: /Odtp
; File C:\Program Files\Microsoft Visual Studio\2022\Community\VC\Tools\MSVC\14.43.34808\include\__msvc_string_view.hpp
;	COMDAT ?assign@?$_Narrow_char_traits@DH@std@@SAXAEADAEBD@Z
_TEXT	SEGMENT
_Left$ = 8
_Right$ = 16
?assign@?$_Narrow_char_traits@DH@std@@SAXAEADAEBD@Z PROC ; std::_Narrow_char_traits<char,int>::assign, COMDAT

; 470  :     static _CONSTEXPR17 void assign(_Elem& _Left, const _Elem& _Right) noexcept {

	mov	QWORD PTR [rsp+16], rdx
	mov	QWORD PTR [rsp+8], rcx

; 471  : #if _HAS_CXX20
; 472  :         if (_STD is_constant_evaluated()) {
; 473  :             return _Primary_char_traits::assign(_Left, _Right);
; 474  :         }
; 475  : #endif // _HAS_CXX20
; 476  :         _Left = _Right;

	mov	rax, QWORD PTR _Left$[rsp]
	mov	rcx, QWORD PTR _Right$[rsp]
	movzx	ecx, BYTE PTR [rcx]
	mov	BYTE PTR [rax], cl

; 477  :     }

	ret	0
?assign@?$_Narrow_char_traits@DH@std@@SAXAEADAEBD@Z ENDP ; std::_Narrow_char_traits<char,int>::assign
_TEXT	ENDS
; Function compile flags: /Odtp
; File C:\Program Files (x86)\Windows Kits\10\Include\10.0.26100.0\ucrt\stdio.h
;	COMDAT _vsnprintf_s
_TEXT	SEGMENT
_Buffer$ = 64
_BufferCount$ = 72
_MaxCount$ = 80
_Format$ = 88
_ArgList$ = 96
_vsnprintf_s PROC					; COMDAT

; 1598 :     {

$LN3:
	mov	QWORD PTR [rsp+32], r9
	mov	QWORD PTR [rsp+24], r8
	mov	QWORD PTR [rsp+16], rdx
	mov	QWORD PTR [rsp+8], rcx
	sub	rsp, 56					; 00000038H

; 1599 :         return _vsnprintf_s_l(_Buffer, _BufferCount, _MaxCount, _Format, NULL, _ArgList);

	mov	rax, QWORD PTR _ArgList$[rsp]
	mov	QWORD PTR [rsp+40], rax
	mov	QWORD PTR [rsp+32], 0
	mov	r9, QWORD PTR _Format$[rsp]
	mov	r8, QWORD PTR _MaxCount$[rsp]
	mov	rdx, QWORD PTR _BufferCount$[rsp]
	mov	rcx, QWORD PTR _Buffer$[rsp]
	call	_vsnprintf_s_l

; 1600 :     }

	add	rsp, 56					; 00000038H
	ret	0
_vsnprintf_s ENDP
_TEXT	ENDS
; Function compile flags: /Odtp
; File C:\Program Files (x86)\Windows Kits\10\Include\10.0.26100.0\ucrt\stdio.h
;	COMDAT _vsnprintf_s_l
_TEXT	SEGMENT
_Result$ = 64
tv74 = 68
_Buffer$ = 96
_BufferCount$ = 104
_MaxCount$ = 112
_Format$ = 120
_Locale$ = 128
_ArgList$ = 136
_vsnprintf_s_l PROC					; COMDAT

; 1577 :     {

$LN5:
	mov	QWORD PTR [rsp+32], r9
	mov	QWORD PTR [rsp+24], r8
	mov	QWORD PTR [rsp+16], rdx
	mov	QWORD PTR [rsp+8], rcx
	sub	rsp, 88					; 00000058H

; 1578 :         int const _Result = __stdio_common_vsnprintf_s(

	call	__local_stdio_printf_options
	mov	rcx, QWORD PTR _ArgList$[rsp]
	mov	QWORD PTR [rsp+48], rcx
	mov	rcx, QWORD PTR _Locale$[rsp]
	mov	QWORD PTR [rsp+40], rcx
	mov	rcx, QWORD PTR _Format$[rsp]
	mov	QWORD PTR [rsp+32], rcx
	mov	r9, QWORD PTR _MaxCount$[rsp]
	mov	r8, QWORD PTR _BufferCount$[rsp]
	mov	rdx, QWORD PTR _Buffer$[rsp]
	mov	rcx, QWORD PTR [rax]
	call	__stdio_common_vsnprintf_s
	mov	DWORD PTR _Result$[rsp], eax

; 1579 :             _CRT_INTERNAL_LOCAL_PRINTF_OPTIONS,
; 1580 :             _Buffer, _BufferCount, _MaxCount, _Format, _Locale, _ArgList);
; 1581 : 
; 1582 :         return _Result < 0 ? -1 : _Result;

	cmp	DWORD PTR _Result$[rsp], 0
	jge	SHORT $LN3@vsnprintf_
	mov	DWORD PTR tv74[rsp], -1
	jmp	SHORT $LN4@vsnprintf_
$LN3@vsnprintf_:
	mov	eax, DWORD PTR _Result$[rsp]
	mov	DWORD PTR tv74[rsp], eax
$LN4@vsnprintf_:
	mov	eax, DWORD PTR tv74[rsp]

; 1583 :     }

	add	rsp, 88					; 00000058H
	ret	0
_vsnprintf_s_l ENDP
_TEXT	ENDS
; Function compile flags: /Odtp
; File C:\Program Files (x86)\Windows Kits\10\Include\10.0.26100.0\ucrt\stdio.h
;	COMDAT vsprintf_s
_TEXT	SEGMENT
_Buffer$ = 64
_BufferCount$ = 72
_Format$ = 80
_ArgList$ = 88
vsprintf_s PROC						; COMDAT

; 1512 :         {

$LN3:
	mov	QWORD PTR [rsp+32], r9
	mov	QWORD PTR [rsp+24], r8
	mov	QWORD PTR [rsp+16], rdx
	mov	QWORD PTR [rsp+8], rcx
	sub	rsp, 56					; 00000038H

; 1513 :             return _vsprintf_s_l(_Buffer, _BufferCount, _Format, NULL, _ArgList);

	mov	rax, QWORD PTR _ArgList$[rsp]
	mov	QWORD PTR [rsp+32], rax
	xor	r9d, r9d
	mov	r8, QWORD PTR _Format$[rsp]
	mov	rdx, QWORD PTR _BufferCount$[rsp]
	mov	rcx, QWORD PTR _Buffer$[rsp]
	call	_vsprintf_s_l

; 1514 :         }

	add	rsp, 56					; 00000038H
	ret	0
vsprintf_s ENDP
_TEXT	ENDS
; Function compile flags: /Odtp
; File C:\Program Files (x86)\Windows Kits\10\Include\10.0.26100.0\ucrt\stdio.h
;	COMDAT _vsprintf_s_l
_TEXT	SEGMENT
_Result$ = 48
tv73 = 52
_Buffer$ = 80
_BufferCount$ = 88
_Format$ = 96
_Locale$ = 104
_ArgList$ = 112
_vsprintf_s_l PROC					; COMDAT

; 1490 :     {

$LN5:
	mov	QWORD PTR [rsp+32], r9
	mov	QWORD PTR [rsp+24], r8
	mov	QWORD PTR [rsp+16], rdx
	mov	QWORD PTR [rsp+8], rcx
	sub	rsp, 72					; 00000048H

; 1491 :         int const _Result = __stdio_common_vsprintf_s(

	call	__local_stdio_printf_options
	mov	rcx, QWORD PTR _ArgList$[rsp]
	mov	QWORD PTR [rsp+40], rcx
	mov	rcx, QWORD PTR _Locale$[rsp]
	mov	QWORD PTR [rsp+32], rcx
	mov	r9, QWORD PTR _Format$[rsp]
	mov	r8, QWORD PTR _BufferCount$[rsp]
	mov	rdx, QWORD PTR _Buffer$[rsp]
	mov	rcx, QWORD PTR [rax]
	call	__stdio_common_vsprintf_s
	mov	DWORD PTR _Result$[rsp], eax

; 1492 :             _CRT_INTERNAL_LOCAL_PRINTF_OPTIONS,
; 1493 :             _Buffer, _BufferCount, _Format, _Locale, _ArgList);
; 1494 : 
; 1495 :         return _Result < 0 ? -1 : _Result;

	cmp	DWORD PTR _Result$[rsp], 0
	jge	SHORT $LN3@vsprintf_s
	mov	DWORD PTR tv73[rsp], -1
	jmp	SHORT $LN4@vsprintf_s
$LN3@vsprintf_s:
	mov	eax, DWORD PTR _Result$[rsp]
	mov	DWORD PTR tv73[rsp], eax
$LN4@vsprintf_s:
	mov	eax, DWORD PTR tv73[rsp]

; 1496 :     }

	add	rsp, 72					; 00000048H
	ret	0
_vsprintf_s_l ENDP
_TEXT	ENDS
; Function compile flags: /Odtp
; File C:\Program Files (x86)\Windows Kits\10\Include\10.0.26100.0\ucrt\corecrt_stdio_config.h
;	COMDAT __local_stdio_printf_options
_TEXT	SEGMENT
__local_stdio_printf_options PROC			; COMDAT

; 91   :         static unsigned __int64 _OptionsStorage;
; 92   :         return &_OptionsStorage;

	lea	rax, OFFSET FLAT:?_OptionsStorage@?1??__local_stdio_printf_options@@9@4_KA ; `__local_stdio_printf_options'::`2'::_OptionsStorage

; 93   :     }

	ret	0
__local_stdio_printf_options ENDP
_TEXT	ENDS
; Function compile flags: /Odtp
;	COMDAT ??_H@YAXPEAX_K1P6APEAX0@Z@Z
_TEXT	SEGMENT
tv66 = 32
tv70 = 40
__t$ = 64
__s$ = 72
__n$ = 80
__f$ = 88
??_H@YAXPEAX_K1P6APEAX0@Z@Z PROC			; `vector constructor iterator', COMDAT
$LN5:
	mov	QWORD PTR [rsp+32], r9
	mov	QWORD PTR [rsp+24], r8
	mov	QWORD PTR [rsp+16], rdx
	mov	QWORD PTR [rsp+8], rcx
	sub	rsp, 56					; 00000038H
$LN2@vector:
	mov	rax, QWORD PTR __n$[rsp]
	mov	QWORD PTR tv66[rsp], rax
	mov	rax, QWORD PTR __n$[rsp]
	dec	rax
	mov	QWORD PTR __n$[rsp], rax
	cmp	QWORD PTR tv66[rsp], 0
	jbe	SHORT $LN3@vector
	mov	rax, QWORD PTR __f$[rsp]
	mov	QWORD PTR tv70[rsp], rax
	mov	rcx, QWORD PTR __t$[rsp]
	call	QWORD PTR tv70[rsp]
	mov	rax, QWORD PTR __s$[rsp]
	mov	rcx, QWORD PTR __t$[rsp]
	add	rcx, rax
	mov	rax, rcx
	mov	QWORD PTR __t$[rsp], rax
	jmp	SHORT $LN2@vector
$LN3@vector:
	add	rsp, 56					; 00000038H
	ret	0
??_H@YAXPEAX_K1P6APEAX0@Z@Z ENDP			; `vector constructor iterator'
_TEXT	ENDS
END
