; Listing generated by Microsoft (R) Optimizing Compiler Version 19.43.34810.0 

include listing.inc

INCLUDELIB LIBCMT
INCLUDELIB OLDNAMES

PUBLIC	??0CpuInfo@asmjit@@QEAA@I@Z			; asmjit::CpuInfo::CpuInfo
PUBLIC	?detectHwThreadsCount@CpuInfo@asmjit@@SAIXZ	; asmjit::CpuInfo::detectHwThreadsCount
PUBLIC	?getHost@CpuInfo@asmjit@@SAPEBU12@XZ		; asmjit::CpuInfo::getHost
PUBLIC	??0X86CpuInfo@asmjit@@QEAA@I@Z			; asmjit::X86CpuInfo::X86CpuInfo
PUBLIC	??0AutoX86CpuInfo@asmjit@@QEAA@XZ		; asmjit::AutoX86CpuInfo::AutoX86CpuInfo
EXTRN	_Init_thread_header:PROC
EXTRN	_Init_thread_abort:PROC
EXTRN	_Init_thread_footer:PROC
EXTRN	__imp_GetSystemInfo:PROC
EXTRN	?detect@X86CpuUtil@asmjit@@SAXPEAUX86CpuInfo@2@@Z:PROC ; asmjit::X86CpuUtil::detect
EXTRN	__CxxFrameHandler4:PROC
EXTRN	_Init_thread_epoch:DWORD
EXTRN	_tls_index:DWORD
;	COMDAT ?cpuInfo@?1??getHost@CpuInfo@asmjit@@SAPEBU23@XZ@4UAutoX86CpuInfo@3@A
_BSS	SEGMENT
?cpuInfo@?1??getHost@CpuInfo@asmjit@@SAPEBU23@XZ@4UAutoX86CpuInfo@3@A DB 088H DUP (?) ; `asmjit::CpuInfo::getHost'::`2'::cpuInfo
_BSS	ENDS
;	COMDAT ?$TSS0@?1??getHost@CpuInfo@asmjit@@SAPEBU23@XZ@4HA
_BSS	SEGMENT
?$TSS0@?1??getHost@CpuInfo@asmjit@@SAPEBU23@XZ@4HA DD 01H DUP (?) ; `asmjit::CpuInfo::getHost'::`2'::$TSS0
_BSS	ENDS
pdata	SEGMENT
$pdata$?detectHwThreadsCount@CpuInfo@asmjit@@SAIXZ DD imagerel $LN3
	DD	imagerel $LN3+24
	DD	imagerel $unwind$?detectHwThreadsCount@CpuInfo@asmjit@@SAIXZ
$pdata$?getHost@CpuInfo@asmjit@@SAPEBU12@XZ DD imagerel $LN5
	DD	imagerel $LN5+100
	DD	imagerel $unwind$?getHost@CpuInfo@asmjit@@SAPEBU12@XZ
pdata	ENDS
pdata	SEGMENT
$pdata$?dtor$0@?0??getHost@CpuInfo@asmjit@@SAPEBU12@XZ@4HA DD imagerel ?dtor$0@?0??getHost@CpuInfo@asmjit@@SAPEBU12@XZ@4HA
	DD	imagerel ?dtor$0@?0??getHost@CpuInfo@asmjit@@SAPEBU12@XZ@4HA+27
	DD	imagerel $unwind$?dtor$0@?0??getHost@CpuInfo@asmjit@@SAPEBU12@XZ@4HA
pdata	ENDS
;	COMDAT pdata
pdata	SEGMENT
$pdata$??0X86CpuInfo@asmjit@@QEAA@I@Z DD imagerel $LN3
	DD	imagerel $LN3+38
	DD	imagerel $unwind$??0X86CpuInfo@asmjit@@QEAA@I@Z
pdata	ENDS
;	COMDAT pdata
pdata	SEGMENT
$pdata$??0AutoX86CpuInfo@asmjit@@QEAA@XZ DD imagerel $LN3
	DD	imagerel $LN3+45
	DD	imagerel $unwind$??0AutoX86CpuInfo@asmjit@@QEAA@XZ
pdata	ENDS
;	COMDAT xdata
xdata	SEGMENT
$unwind$??0AutoX86CpuInfo@asmjit@@QEAA@XZ DD 010901H
	DD	04209H
xdata	ENDS
;	COMDAT xdata
xdata	SEGMENT
$unwind$??0X86CpuInfo@asmjit@@QEAA@I@Z DD 010d01H
	DD	0420dH
xdata	ENDS
xdata	SEGMENT
$unwind$?detectHwThreadsCount@CpuInfo@asmjit@@SAIXZ DD 010401H
	DD	0a204H
$unwind$?getHost@CpuInfo@asmjit@@SAPEBU12@XZ DD 010411H
	DD	04204H
	DD	imagerel __CxxFrameHandler4
	DD	imagerel $cppxdata$?getHost@CpuInfo@asmjit@@SAPEBU12@XZ
$cppxdata$?getHost@CpuInfo@asmjit@@SAPEBU12@XZ DB 08H
	DD	imagerel $stateUnwindMap$?getHost@CpuInfo@asmjit@@SAPEBU12@XZ
	DD	imagerel $ip2state$?getHost@CpuInfo@asmjit@@SAPEBU12@XZ
$stateUnwindMap$?getHost@CpuInfo@asmjit@@SAPEBU12@XZ DB 02H
	DB	0eH
	DD	imagerel ?dtor$0@?0??getHost@CpuInfo@asmjit@@SAPEBU12@XZ@4HA
$ip2state$?getHost@CpuInfo@asmjit@@SAPEBU12@XZ DB 06H
	DB	00H
	DB	00H
	DB	'|'
	DB	02H
	DB	01aH
	DB	00H
	ORG $+2
$unwind$?dtor$0@?0??getHost@CpuInfo@asmjit@@SAPEBU12@XZ@4HA DD 020601H
	DD	050023206H
xdata	ENDS
; Function compile flags: /Odtp
; File D:\c++\paoda\ThirdParty\AsmJit\base\cpuinfo.cpp
;	COMDAT ??0AutoX86CpuInfo@asmjit@@QEAA@XZ
_TEXT	SEGMENT
this$ = 48
??0AutoX86CpuInfo@asmjit@@QEAA@XZ PROC			; asmjit::AutoX86CpuInfo::AutoX86CpuInfo, COMDAT

; 59   :   ASMJIT_INLINE AutoX86CpuInfo() : X86CpuInfo() {

$LN3:
	mov	QWORD PTR [rsp+8], rcx
	sub	rsp, 40					; 00000028H
	mov	edx, 136				; 00000088H
	mov	rcx, QWORD PTR this$[rsp]
	call	??0X86CpuInfo@asmjit@@QEAA@I@Z		; asmjit::X86CpuInfo::X86CpuInfo

; 60   :     X86CpuUtil::detect(this);

	mov	rcx, QWORD PTR this$[rsp]
	call	?detect@X86CpuUtil@asmjit@@SAXPEAUX86CpuInfo@2@@Z ; asmjit::X86CpuUtil::detect
	npad	1

; 61   :   }

	mov	rax, QWORD PTR this$[rsp]
	add	rsp, 40					; 00000028H
	ret	0
??0AutoX86CpuInfo@asmjit@@QEAA@XZ ENDP			; asmjit::AutoX86CpuInfo::AutoX86CpuInfo
_TEXT	ENDS
; Function compile flags: /Odtp
; File D:\c++\paoda\ThirdParty\AsmJit\x86\x86cpuinfo.h
;	COMDAT ??0X86CpuInfo@asmjit@@QEAA@I@Z
_TEXT	SEGMENT
this$ = 48
size$ = 56
??0X86CpuInfo@asmjit@@QEAA@I@Z PROC			; asmjit::X86CpuInfo::X86CpuInfo, COMDAT

; 204  :     CpuInfo(size) {}

$LN3:
	mov	DWORD PTR [rsp+16], edx
	mov	QWORD PTR [rsp+8], rcx
	sub	rsp, 40					; 00000028H
	mov	edx, DWORD PTR size$[rsp]
	mov	rcx, QWORD PTR this$[rsp]
	call	??0CpuInfo@asmjit@@QEAA@I@Z		; asmjit::CpuInfo::CpuInfo
	npad	1
	mov	rax, QWORD PTR this$[rsp]
	add	rsp, 40					; 00000028H
	ret	0
??0X86CpuInfo@asmjit@@QEAA@I@Z ENDP			; asmjit::X86CpuInfo::X86CpuInfo
_TEXT	ENDS
; Function compile flags: /Odtp
; File D:\c++\paoda\ThirdParty\AsmJit\base\cpuinfo.cpp
_TEXT	SEGMENT
?getHost@CpuInfo@asmjit@@SAPEBU12@XZ PROC		; asmjit::CpuInfo::getHost

; 67   : const CpuInfo* CpuInfo::getHost() {

$LN5:
	sub	rsp, 40					; 00000028H

; 68   : #if defined(ASMJIT_HOST_X86) || defined(ASMJIT_HOST_X64)
; 69   :   static AutoX86CpuInfo cpuInfo;

	mov	eax, OFFSET FLAT:_Init_thread_epoch
	mov	eax, eax
	mov	ecx, DWORD PTR _tls_index
	mov	rdx, QWORD PTR gs:88
	mov	rcx, QWORD PTR [rdx+rcx*8]
	mov	eax, DWORD PTR [rax+rcx]
	cmp	DWORD PTR ?$TSS0@?1??getHost@CpuInfo@asmjit@@SAPEBU23@XZ@4HA, eax
	jle	SHORT $LN2@getHost
	lea	rcx, OFFSET FLAT:?$TSS0@?1??getHost@CpuInfo@asmjit@@SAPEBU23@XZ@4HA
	call	_Init_thread_header
	cmp	DWORD PTR ?$TSS0@?1??getHost@CpuInfo@asmjit@@SAPEBU23@XZ@4HA, -1
	jne	SHORT $LN2@getHost
	lea	rcx, OFFSET FLAT:?cpuInfo@?1??getHost@CpuInfo@asmjit@@SAPEBU23@XZ@4UAutoX86CpuInfo@3@A
	call	??0AutoX86CpuInfo@asmjit@@QEAA@XZ	; asmjit::AutoX86CpuInfo::AutoX86CpuInfo
	npad	1
	lea	rcx, OFFSET FLAT:?$TSS0@?1??getHost@CpuInfo@asmjit@@SAPEBU23@XZ@4HA
	call	_Init_thread_footer
	npad	1
$LN2@getHost:

; 70   : #else
; 71   : #error "AsmJit - Unsupported CPU."
; 72   : #endif // ASMJIT_HOST || ASMJIT_HOST_X64
; 73   :   return &cpuInfo;

	lea	rax, OFFSET FLAT:?cpuInfo@?1??getHost@CpuInfo@asmjit@@SAPEBU23@XZ@4UAutoX86CpuInfo@3@A

; 74   : }

	add	rsp, 40					; 00000028H
	ret	0
?getHost@CpuInfo@asmjit@@SAPEBU12@XZ ENDP		; asmjit::CpuInfo::getHost
_TEXT	ENDS
; Function compile flags: /Odtp
text$x	SEGMENT
?dtor$0@?0??getHost@CpuInfo@asmjit@@SAPEBU12@XZ@4HA PROC ; `asmjit::CpuInfo::getHost'::`1'::dtor$0
	push	rbp
	sub	rsp, 32					; 00000020H
	mov	rbp, rdx
	lea	rcx, OFFSET FLAT:?$TSS0@?1??getHost@CpuInfo@asmjit@@SAPEBU23@XZ@4HA
	call	_Init_thread_abort
	add	rsp, 32					; 00000020H
	pop	rbp
	ret	0
?dtor$0@?0??getHost@CpuInfo@asmjit@@SAPEBU12@XZ@4HA ENDP ; `asmjit::CpuInfo::getHost'::`1'::dtor$0
text$x	ENDS
; Function compile flags: /Odtp
; File D:\c++\paoda\ThirdParty\AsmJit\base\cpuinfo.cpp
_TEXT	SEGMENT
info$ = 32
?detectHwThreadsCount@CpuInfo@asmjit@@SAIXZ PROC	; asmjit::CpuInfo::detectHwThreadsCount

; 36   : uint32_t CpuInfo::detectHwThreadsCount() {

$LN3:
	sub	rsp, 88					; 00000058H

; 37   : #if defined(ASMJIT_OS_WINDOWS)
; 38   :   SYSTEM_INFO info;
; 39   :   ::GetSystemInfo(&info);

	lea	rcx, QWORD PTR info$[rsp]
	call	QWORD PTR __imp_GetSystemInfo

; 40   :   return info.dwNumberOfProcessors;

	mov	eax, DWORD PTR info$[rsp+32]

; 41   : #elif defined(ASMJIT_OS_POSIX) && defined(_SC_NPROCESSORS_ONLN)
; 42   :   // It seems that sysconf returns the number of "logical" processors on both
; 43   :   // mac and linux.  So we get the number of "online logical" processors.
; 44   :   long res = ::sysconf(_SC_NPROCESSORS_ONLN);
; 45   :   if (res == -1) return 1;
; 46   : 
; 47   :   return static_cast<uint32_t>(res);
; 48   : #else
; 49   :   return 1;
; 50   : #endif
; 51   : }

	add	rsp, 88					; 00000058H
	ret	0
?detectHwThreadsCount@CpuInfo@asmjit@@SAIXZ ENDP	; asmjit::CpuInfo::detectHwThreadsCount
_TEXT	ENDS
; Function compile flags: /Odtp
; File D:\c++\paoda\ThirdParty\AsmJit\base\cpuinfo.h
;	COMDAT ??0CpuInfo@asmjit@@QEAA@I@Z
_TEXT	SEGMENT
this$ = 8
size$ = 16
??0CpuInfo@asmjit@@QEAA@I@Z PROC			; asmjit::CpuInfo::CpuInfo, COMDAT

; 62   :   ASMJIT_INLINE CpuInfo(uint32_t size = sizeof(CpuInfo)) : _size(size) {}

	mov	DWORD PTR [rsp+16], edx
	mov	QWORD PTR [rsp+8], rcx
	mov	rax, QWORD PTR this$[rsp]
	mov	ecx, DWORD PTR size$[rsp]
	mov	DWORD PTR [rax], ecx
	mov	rax, QWORD PTR this$[rsp]
	ret	0
??0CpuInfo@asmjit@@QEAA@I@Z ENDP			; asmjit::CpuInfo::CpuInfo
_TEXT	ENDS
END
