; Listing generated by Microsoft (R) Optimizing Compiler Version 19.43.34810.0 

include listing.inc

INCLUDELIB LIBCMT
INCLUDELIB OLDNAMES

PUBLIC	??_C@_06GLKGGCJO@LcOpen@			; `string'
PUBLIC	??_C@_06GJPHNGFG@LcRead@			; `string'
PUBLIC	??_C@_0O@CBBNAKKC@LcReadScatter@		; `string'
PUBLIC	??_C@_07MBHEMNEL@LcWrite@			; `string'
PUBLIC	??_C@_0P@DAJMPOFM@LcWriteScatter@		; `string'
PUBLIC	??_C@_0M@HBBFEIGD@LcGetOption@			; `string'
PUBLIC	??_C@_0M@FPFAGJPB@LcSetOption@			; `string'
PUBLIC	??_C@_09DCHLEDFD@LcCommand@			; `string'
PUBLIC	??_C@_03HPADHAHE@N?1A@				; `string'
PUBLIC	??_C@_03HDGGCCPD@X86@				; `string'
PUBLIC	??_C@_06IDLKBMKC@X86PAE@			; `string'
PUBLIC	??_C@_03ELMOGNHL@X64@				; `string'
PUBLIC	??_C@_05DKFIPBAL@ARM64@				; `string'
PUBLIC	??_C@_04PCJGBDOP@Zero@				; `string'
PUBLIC	??_C@_04HJMOFLDF@Free@				; `string'
PUBLIC	??_C@_07LNBDIIPN@Standby@			; `string'
PUBLIC	??_C@_07PFEKAJBJ@Modifiy@			; `string'
PUBLIC	??_C@_07DGKCKENG@ModNoWr@			; `string'
PUBLIC	??_C@_03KHCCLPOB@Bad@				; `string'
PUBLIC	??_C@_06MAFFGDO@Active@				; `string'
PUBLIC	??_C@_07KADDEKFE@Transit@			; `string'
PUBLIC	??_C@_01JOAMLHOP@?9@				; `string'
PUBLIC	??_C@_06CGLFEPBO@Unused@			; `string'
PUBLIC	??_C@_08LBAJPEDB@ProcPriv@			; `string'
PUBLIC	??_C@_09BGPMMIPE@PageTable@			; `string'
PUBLIC	??_C@_09MFCNICMF@LargePage@			; `string'
PUBLIC	??_C@_0L@DHBAIELD@DriverLock@			; `string'
PUBLIC	??_C@_09PKFILKGD@Shareable@			; `string'
PUBLIC	??_C@_04PBAHLACE@File@				; `string'
PUBLIC	_Avx2WmemEnabledWeakValue
PUBLIC	?CopyMap@Analysis@IronMan@@3PEAXEA		; IronMan::Analysis::CopyMap
EXTRN	?x86RegData@asmjit@@3UX86RegData@1@B:BYTE	; asmjit::x86RegData
;	COMDAT _Avx2WmemEnabledWeakValue
_BSS	SEGMENT
_Avx2WmemEnabledWeakValue DD 01H DUP (?)
_BSS	ENDS
_BSS	SEGMENT
?CopyMap@Analysis@IronMan@@3PEAXEA DQ 01H DUP (?)	; IronMan::Analysis::CopyMap
_BSS	ENDS
CONST	SEGMENT
?NoInit@asmjit@@3U_NoInit@1@B	ORG $+1			; asmjit::NoInit
CONST	ENDS
;	COMDAT ??_C@_04PBAHLACE@File@
CONST	SEGMENT
??_C@_04PBAHLACE@File@ DB 'File', 00H			; `string'
CONST	ENDS
;	COMDAT ??_C@_09PKFILKGD@Shareable@
CONST	SEGMENT
??_C@_09PKFILKGD@Shareable@ DB 'Shareable', 00H		; `string'
CONST	ENDS
;	COMDAT ??_C@_0L@DHBAIELD@DriverLock@
CONST	SEGMENT
??_C@_0L@DHBAIELD@DriverLock@ DB 'DriverLock', 00H	; `string'
CONST	ENDS
;	COMDAT ??_C@_09MFCNICMF@LargePage@
CONST	SEGMENT
??_C@_09MFCNICMF@LargePage@ DB 'LargePage', 00H		; `string'
CONST	ENDS
;	COMDAT ??_C@_09BGPMMIPE@PageTable@
CONST	SEGMENT
??_C@_09BGPMMIPE@PageTable@ DB 'PageTable', 00H		; `string'
CONST	ENDS
;	COMDAT ??_C@_08LBAJPEDB@ProcPriv@
CONST	SEGMENT
??_C@_08LBAJPEDB@ProcPriv@ DB 'ProcPriv', 00H		; `string'
CONST	ENDS
;	COMDAT ??_C@_06CGLFEPBO@Unused@
CONST	SEGMENT
??_C@_06CGLFEPBO@Unused@ DB 'Unused', 00H		; `string'
CONST	ENDS
;	COMDAT ??_C@_01JOAMLHOP@?9@
CONST	SEGMENT
??_C@_01JOAMLHOP@?9@ DB '-', 00H			; `string'
CONST	ENDS
;	COMDAT ??_C@_07KADDEKFE@Transit@
CONST	SEGMENT
??_C@_07KADDEKFE@Transit@ DB 'Transit', 00H		; `string'
CONST	ENDS
;	COMDAT ??_C@_06MAFFGDO@Active@
CONST	SEGMENT
??_C@_06MAFFGDO@Active@ DB 'Active', 00H		; `string'
CONST	ENDS
;	COMDAT ??_C@_03KHCCLPOB@Bad@
CONST	SEGMENT
??_C@_03KHCCLPOB@Bad@ DB 'Bad', 00H			; `string'
CONST	ENDS
;	COMDAT ??_C@_07DGKCKENG@ModNoWr@
CONST	SEGMENT
??_C@_07DGKCKENG@ModNoWr@ DB 'ModNoWr', 00H		; `string'
CONST	ENDS
;	COMDAT ??_C@_07PFEKAJBJ@Modifiy@
CONST	SEGMENT
??_C@_07PFEKAJBJ@Modifiy@ DB 'Modifiy', 00H		; `string'
CONST	ENDS
;	COMDAT ??_C@_07LNBDIIPN@Standby@
CONST	SEGMENT
??_C@_07LNBDIIPN@Standby@ DB 'Standby', 00H		; `string'
CONST	ENDS
;	COMDAT ??_C@_04HJMOFLDF@Free@
CONST	SEGMENT
??_C@_04HJMOFLDF@Free@ DB 'Free', 00H			; `string'
CONST	ENDS
;	COMDAT ??_C@_04PCJGBDOP@Zero@
CONST	SEGMENT
??_C@_04PCJGBDOP@Zero@ DB 'Zero', 00H			; `string'
CONST	ENDS
;	COMDAT ??_C@_05DKFIPBAL@ARM64@
CONST	SEGMENT
??_C@_05DKFIPBAL@ARM64@ DB 'ARM64', 00H			; `string'
CONST	ENDS
;	COMDAT ??_C@_03ELMOGNHL@X64@
CONST	SEGMENT
??_C@_03ELMOGNHL@X64@ DB 'X64', 00H			; `string'
CONST	ENDS
;	COMDAT ??_C@_06IDLKBMKC@X86PAE@
CONST	SEGMENT
??_C@_06IDLKBMKC@X86PAE@ DB 'X86PAE', 00H		; `string'
CONST	ENDS
;	COMDAT ??_C@_03HDGGCCPD@X86@
CONST	SEGMENT
??_C@_03HDGGCCPD@X86@ DB 'X86', 00H			; `string'
CONST	ENDS
;	COMDAT ??_C@_03HPADHAHE@N?1A@
CONST	SEGMENT
??_C@_03HPADHAHE@N?1A@ DB 'N/A', 00H			; `string'
CONST	ENDS
;	COMDAT ??_C@_09DCHLEDFD@LcCommand@
CONST	SEGMENT
??_C@_09DCHLEDFD@LcCommand@ DB 'LcCommand', 00H		; `string'
CONST	ENDS
;	COMDAT ??_C@_0M@FPFAGJPB@LcSetOption@
CONST	SEGMENT
??_C@_0M@FPFAGJPB@LcSetOption@ DB 'LcSetOption', 00H	; `string'
CONST	ENDS
;	COMDAT ??_C@_0M@HBBFEIGD@LcGetOption@
CONST	SEGMENT
??_C@_0M@HBBFEIGD@LcGetOption@ DB 'LcGetOption', 00H	; `string'
CONST	ENDS
;	COMDAT ??_C@_0P@DAJMPOFM@LcWriteScatter@
CONST	SEGMENT
??_C@_0P@DAJMPOFM@LcWriteScatter@ DB 'LcWriteScatter', 00H ; `string'
CONST	ENDS
;	COMDAT ??_C@_07MBHEMNEL@LcWrite@
CONST	SEGMENT
??_C@_07MBHEMNEL@LcWrite@ DB 'LcWrite', 00H		; `string'
CONST	ENDS
;	COMDAT ??_C@_0O@CBBNAKKC@LcReadScatter@
CONST	SEGMENT
??_C@_0O@CBBNAKKC@LcReadScatter@ DB 'LcReadScatter', 00H ; `string'
CONST	ENDS
;	COMDAT ??_C@_06GJPHNGFG@LcRead@
CONST	SEGMENT
??_C@_06GJPHNGFG@LcRead@ DB 'LcRead', 00H		; `string'
CONST	ENDS
;	COMDAT ??_C@_06GLKGGCJO@LcOpen@
CONST	SEGMENT
??_C@_06GLKGGCJO@LcOpen@ DB 'LcOpen', 00H		; `string'
CONST	ENDS
PUBLIC	??_H@YAXPEAX_K1P6APEAX0@Z@Z			; `vector constructor iterator'
PUBLIC	??2@YAPEAX_KPEAX@Z				; operator new
PUBLIC	?assign@?$_Narrow_char_traits@DH@std@@SAXAEADAEBD@Z ; std::_Narrow_char_traits<char,int>::assign
PUBLIC	??0exception@std@@QEAA@QEBDH@Z			; std::exception::exception
PUBLIC	??0exception@std@@QEAA@AEBV01@@Z		; std::exception::exception
PUBLIC	??1exception@std@@UEAA@XZ			; std::exception::~exception
PUBLIC	?what@exception@std@@UEBAPEBDXZ			; std::exception::what
PUBLIC	??_Gexception@std@@UEAAPEAXI@Z			; std::exception::`scalar deleting destructor'
PUBLIC	??0bad_alloc@std@@AEAA@QEBD@Z			; std::bad_alloc::bad_alloc
PUBLIC	??1bad_alloc@std@@UEAA@XZ			; std::bad_alloc::~bad_alloc
PUBLIC	??0bad_alloc@std@@QEAA@AEBV01@@Z		; std::bad_alloc::bad_alloc
PUBLIC	??_Gbad_alloc@std@@UEAAPEAXI@Z			; std::bad_alloc::`scalar deleting destructor'
PUBLIC	??0bad_array_new_length@std@@QEAA@XZ		; std::bad_array_new_length::bad_array_new_length
PUBLIC	??1bad_array_new_length@std@@UEAA@XZ		; std::bad_array_new_length::~bad_array_new_length
PUBLIC	??0bad_array_new_length@std@@QEAA@AEBV01@@Z	; std::bad_array_new_length::bad_array_new_length
PUBLIC	??_Gbad_array_new_length@std@@UEAAPEAXI@Z	; std::bad_array_new_length::`scalar deleting destructor'
PUBLIC	?_Throw_bad_array_new_length@std@@YAXXZ		; std::_Throw_bad_array_new_length
PUBLIC	?_Allocate@_Default_allocate_traits@std@@SAPEAX_K@Z ; std::_Default_allocate_traits::_Allocate
PUBLIC	?_Adjust_manually_vector_aligned@std@@YAXAEAPEAXAEA_K@Z ; std::_Adjust_manually_vector_aligned
PUBLIC	?_Orphan_all@_Container_base0@std@@QEAAXXZ	; std::_Container_base0::_Orphan_all
PUBLIC	?_Swap_proxy_and_iterators@_Container_base0@std@@QEAAXAEAU12@@Z ; std::_Container_base0::_Swap_proxy_and_iterators
PUBLIC	?_Alloc_proxy@_Container_base0@std@@QEAAXAEBU_Fake_allocator@2@@Z ; std::_Container_base0::_Alloc_proxy
PUBLIC	?_Adopt@_Iterator_base0@std@@QEAAXPEBX@Z	; std::_Iterator_base0::_Adopt
PUBLIC	??0_Fake_proxy_ptr_impl@std@@QEAA@AEBU_Fake_allocator@1@AEBU_Container_base0@1@@Z ; std::_Fake_proxy_ptr_impl::_Fake_proxy_ptr_impl
PUBLIC	?_Release@_Fake_proxy_ptr_impl@std@@QEAAXXZ	; std::_Fake_proxy_ptr_impl::_Release
PUBLIC	??0?$allocator@D@std@@QEAA@XZ			; std::allocator<char>::allocator<char>
PUBLIC	?deallocate@?$allocator@D@std@@QEAAXQEAD_K@Z	; std::allocator<char>::deallocate
PUBLIC	??0?$_String_val@U?$_Simple_types@D@std@@@std@@QEAA@XZ ; std::_String_val<std::_Simple_types<char> >::_String_val<std::_Simple_types<char> >
PUBLIC	?_Myptr@?$_String_val@U?$_Simple_types@D@std@@@std@@QEBAPEBDXZ ; std::_String_val<std::_Simple_types<char> >::_Myptr
PUBLIC	?_Large_mode_engaged@?$_String_val@U?$_Simple_types@D@std@@@std@@QEBA_NXZ ; std::_String_val<std::_Simple_types<char> >::_Large_mode_engaged
PUBLIC	?_Activate_SSO_buffer@?$_String_val@U?$_Simple_types@D@std@@@std@@QEAAXXZ ; std::_String_val<std::_Simple_types<char> >::_Activate_SSO_buffer
PUBLIC	??0_Bxty@?$_String_val@U?$_Simple_types@D@std@@@std@@QEAA@XZ ; std::_String_val<std::_Simple_types<char> >::_Bxty::_Bxty
PUBLIC	??1_Bxty@?$_String_val@U?$_Simple_types@D@std@@@std@@QEAA@XZ ; std::_String_val<std::_Simple_types<char> >::_Bxty::~_Bxty
PUBLIC	?_Switch_to_buf@_Bxty@?$_String_val@U?$_Simple_types@D@std@@@std@@QEAAXXZ ; std::_String_val<std::_Simple_types<char> >::_Bxty::_Switch_to_buf
PUBLIC	??1?$_String_val@U?$_Simple_types@D@std@@@std@@QEAA@XZ ; std::_String_val<std::_Simple_types<char> >::~_String_val<std::_Simple_types<char> >
PUBLIC	??0?$basic_string@DU?$char_traits@D@std@@V?$allocator@D@2@@std@@QEAA@XZ ; std::basic_string<char,std::char_traits<char>,std::allocator<char> >::basic_string<char,std::char_traits<char>,std::allocator<char> >
PUBLIC	?_Deallocate_for_capacity@?$basic_string@DU?$char_traits@D@std@@V?$allocator@D@2@@std@@CAXAEAV?$allocator@D@2@QEAD_K@Z ; std::basic_string<char,std::char_traits<char>,std::allocator<char> >::_Deallocate_for_capacity
PUBLIC	?_Construct_empty@?$basic_string@DU?$char_traits@D@std@@V?$allocator@D@2@@std@@AEAAXXZ ; std::basic_string<char,std::char_traits<char>,std::allocator<char> >::_Construct_empty
PUBLIC	??1?$basic_string@DU?$char_traits@D@std@@V?$allocator@D@2@@std@@QEAA@XZ ; std::basic_string<char,std::char_traits<char>,std::allocator<char> >::~basic_string<char,std::char_traits<char>,std::allocator<char> >
PUBLIC	?c_str@?$basic_string@DU?$char_traits@D@std@@V?$allocator@D@2@@std@@QEBAPEBDXZ ; std::basic_string<char,std::char_traits<char>,std::allocator<char> >::c_str
PUBLIC	?_Tidy_deallocate@?$basic_string@DU?$char_traits@D@std@@V?$allocator@D@2@@std@@AEAAXXZ ; std::basic_string<char,std::char_traits<char>,std::allocator<char> >::_Tidy_deallocate
PUBLIC	?_Getal@?$basic_string@DU?$char_traits@D@std@@V?$allocator@D@2@@std@@AEAAAEAV?$allocator@D@2@XZ ; std::basic_string<char,std::char_traits<char>,std::allocator<char> >::_Getal
PUBLIC	?_Get_first@?$_Compressed_pair@V?$allocator@D@std@@V?$_String_val@U?$_Simple_types@D@std@@@2@$00@std@@QEAAAEAV?$allocator@D@2@XZ ; std::_Compressed_pair<std::allocator<char>,std::_String_val<std::_Simple_types<char> >,1>::_Get_first
PUBLIC	??1?$_Compressed_pair@V?$allocator@D@std@@V?$_String_val@U?$_Simple_types@D@std@@@2@$00@std@@QEAA@XZ ; std::_Compressed_pair<std::allocator<char>,std::_String_val<std::_Simple_types<char> >,1>::~_Compressed_pair<std::allocator<char>,std::_String_val<std::_Simple_types<char> >,1>
PUBLIC	?_Decref@_Ref_count_base@std@@QEAAXXZ		; std::_Ref_count_base::_Decref
PUBLIC	?_Decwref@_Ref_count_base@std@@QEAAXXZ		; std::_Ref_count_base::_Decwref
PUBLIC	?Align@@YA_K_K0@Z				; Align
PUBLIC	??$min@H@std@@YAAEBHAEBH0@Z			; std::min<int>
PUBLIC	??$min@_K@std@@YAAEB_KAEB_K0@Z			; std::min<unsigned __int64>
PUBLIC	??0WSInit@detail@httplib@@QEAA@XZ		; httplib::detail::WSInit::WSInit
PUBLIC	??1WSInit@detail@httplib@@QEAA@XZ		; httplib::detail::WSInit::~WSInit
PUBLIC	??0SSLInit@detail@httplib@@QEAA@XZ		; httplib::detail::SSLInit::SSLInit
PUBLIC	?IsRet@Zydis@IronMan@@QEBA_NXZ			; IronMan::Zydis::IsRet
PUBLIC	?IsCall@Zydis@IronMan@@QEBA_NXZ			; IronMan::Zydis::IsCall
PUBLIC	?IsCondJump@Zydis@IronMan@@QEBA_NXZ		; IronMan::Zydis::IsCondJump
PUBLIC	?IsJump@Zydis@IronMan@@QEBA_NXZ			; IronMan::Zydis::IsJump
PUBLIC	?getArch@CodeGen@asmjit@@QEBAIXZ		; asmjit::CodeGen::getArch
PUBLIC	?pack32_4x8@IntUtil@asmjit@@SAIIIII@Z		; asmjit::IntUtil::pack32_4x8
PUBLIC	?pack64_2x32@IntUtil@asmjit@@SA_KII@Z		; asmjit::IntUtil::pack64_2x32
PUBLIC	?setPacked_2x32@UInt64@asmjit@@QEAAAEAT12@II@Z	; asmjit::UInt64::setPacked_2x32
PUBLIC	??0Operand@asmjit@@QEAA@AEBU01@@Z		; asmjit::Operand::Operand
PUBLIC	??0Operand@asmjit@@QEAA@AEBU_NoInit@1@@Z	; asmjit::Operand::Operand
PUBLIC	?_init@Operand@asmjit@@QEAAXAEBU12@@Z		; asmjit::Operand::_init
PUBLIC	?_init_packed_op_sz_b0_b1_id@Operand@asmjit@@QEAAXIIIII@Z ; asmjit::Operand::_init_packed_op_sz_b0_b1_id
PUBLIC	?_init_packed_d2_d3@Operand@asmjit@@QEAAXII@Z	; asmjit::Operand::_init_packed_d2_d3
PUBLIC	?_copy@Operand@asmjit@@QEAAXAEBU12@@Z		; asmjit::Operand::_copy
PUBLIC	?getRegIndex@Reg@asmjit@@QEBAIXZ		; asmjit::Reg::getRegIndex
PUBLIC	??0BaseMem@asmjit@@QEAA@AEBU01@@Z		; asmjit::BaseMem::BaseMem
PUBLIC	??0BaseMem@asmjit@@QEAA@AEBU_NoInit@1@@Z	; asmjit::BaseMem::BaseMem
PUBLIC	??0Label@asmjit@@QEAA@AEBU01@@Z			; asmjit::Label::Label
PUBLIC	??0Label@asmjit@@QEAA@AEBU_NoInit@1@@Z		; asmjit::Label::Label
PUBLIC	?newLabel@Assembler@asmjit@@QEAA?AULabel@2@XZ	; asmjit::Assembler::newLabel
PUBLIC	??0X86Mem@asmjit@@QEAA@XZ			; asmjit::X86Mem::X86Mem
PUBLIC	??0X86Mem@asmjit@@QEAA@AEBUX86GpReg@1@HI@Z	; asmjit::X86Mem::X86Mem
PUBLIC	??0X86Mem@asmjit@@QEAA@AEBU01@@Z		; asmjit::X86Mem::X86Mem
PUBLIC	?reset@X86Mem@asmjit@@QEAAXXZ			; asmjit::X86Mem::reset
PUBLIC	??4X86Mem@asmjit@@QEAAAEAU01@AEBU01@@Z		; asmjit::X86Mem::operator=
PUBLIC	?_getGpdFlags@X86Mem@asmjit@@SAIAEBUOperand@2@@Z ; asmjit::X86Mem::_getGpdFlags
PUBLIC	?db@X86Assembler@asmjit@@QEAAXE@Z		; asmjit::X86Assembler::db
PUBLIC	?dq@X86Assembler@asmjit@@QEAAX_K@Z		; asmjit::X86Assembler::dq
PUBLIC	?add@X86Assembler@asmjit@@QEAAIAEBUX86GpReg@2@_K@Z ; asmjit::X86Assembler::add
PUBLIC	?jne@X86Assembler@asmjit@@QEAAIAEBULabel@2@@Z	; asmjit::X86Assembler::jne
PUBLIC	?jmp@X86Assembler@asmjit@@QEAAIAEBULabel@2@@Z	; asmjit::X86Assembler::jmp
PUBLIC	?mov@X86Assembler@asmjit@@QEAAIAEBUX86GpReg@2@0@Z ; asmjit::X86Assembler::mov
PUBLIC	?mov@X86Assembler@asmjit@@QEAAIAEBUX86GpReg@2@AEBUX86Mem@2@@Z ; asmjit::X86Assembler::mov
PUBLIC	?mov@X86Assembler@asmjit@@QEAAIAEBUX86GpReg@2@_K@Z ; asmjit::X86Assembler::mov
PUBLIC	?mov@X86Assembler@asmjit@@QEAAIAEBUX86Mem@2@AEBUX86GpReg@2@@Z ; asmjit::X86Assembler::mov
PUBLIC	?mov@X86Assembler@asmjit@@QEAAIAEBUX86Mem@2@H@Z	; asmjit::X86Assembler::mov
PUBLIC	?mov@X86Assembler@asmjit@@QEAAIAEBUX86Mem@2@_K@Z ; asmjit::X86Assembler::mov
PUBLIC	?sub@X86Assembler@asmjit@@QEAAIAEBUX86GpReg@2@_K@Z ; asmjit::X86Assembler::sub
PUBLIC	?test@X86Assembler@asmjit@@QEAAIAEBUX86GpReg@2@0@Z ; asmjit::X86Assembler::test
PUBLIC	??0AsmStackAllocator@IronMan@@QEAA@PEAUX86Assembler@asmjit@@H@Z ; IronMan::AsmStackAllocator::AsmStackAllocator
PUBLIC	?AllocVar@AsmStackAllocator@IronMan@@QEAA?AUX86Mem@asmjit@@H_N@Z ; IronMan::AsmStackAllocator::AllocVar
PUBLIC	?getTotalSize@AsmStackAllocator@IronMan@@QEBA_JXZ ; IronMan::AsmStackAllocator::getTotalSize
PUBLIC	?assembler@IAsmHelper@IronMan@@QEAAPEAUX86Assembler@asmjit@@XZ ; IronMan::IAsmHelper::assembler
PUBLIC	??CIAsmHelper@IronMan@@QEAAPEAUX86Assembler@asmjit@@XZ ; IronMan::IAsmHelper::operator->
PUBLIC	?GetAssembler@AsmFactory@IronMan@@SA?AV?$unique_ptr@VIAsmHelper@IronMan@@U?$default_delete@VIAsmHelper@IronMan@@@std@@@std@@XZ ; IronMan::AsmFactory::GetAssembler
PUBLIC	??R?$default_delete@VIAsmHelper@IronMan@@@std@@QEBAXPEAVIAsmHelper@IronMan@@@Z ; std::default_delete<IronMan::IAsmHelper>::operator()
PUBLIC	??1?$unique_ptr@VIAsmHelper@IronMan@@U?$default_delete@VIAsmHelper@IronMan@@@std@@@std@@QEAA@XZ ; std::unique_ptr<IronMan::IAsmHelper,std::default_delete<IronMan::IAsmHelper> >::~unique_ptr<IronMan::IAsmHelper,std::default_delete<IronMan::IAsmHelper> >
PUBLIC	?get_deleter@?$unique_ptr@VIAsmHelper@IronMan@@U?$default_delete@VIAsmHelper@IronMan@@@std@@@std@@QEAAAEAU?$default_delete@VIAsmHelper@IronMan@@@2@XZ ; std::unique_ptr<IronMan::IAsmHelper,std::default_delete<IronMan::IAsmHelper> >::get_deleter
PUBLIC	??D?$unique_ptr@VIAsmHelper@IronMan@@U?$default_delete@VIAsmHelper@IronMan@@@std@@@std@@QEBAAEAVIAsmHelper@IronMan@@XZ ; std::unique_ptr<IronMan::IAsmHelper,std::default_delete<IronMan::IAsmHelper> >::operator*
PUBLIC	??C?$unique_ptr@VIAsmHelper@IronMan@@U?$default_delete@VIAsmHelper@IronMan@@@std@@@std@@QEBAPEAVIAsmHelper@IronMan@@XZ ; std::unique_ptr<IronMan::IAsmHelper,std::default_delete<IronMan::IAsmHelper> >::operator->
PUBLIC	?release@?$unique_ptr@VIAsmHelper@IronMan@@U?$default_delete@VIAsmHelper@IronMan@@@std@@@std@@QEAAPEAVIAsmHelper@IronMan@@XZ ; std::unique_ptr<IronMan::IAsmHelper,std::default_delete<IronMan::IAsmHelper> >::release
PUBLIC	?_Get_first@?$_Compressed_pair@U?$default_delete@VIAsmHelper@IronMan@@@std@@PEAVIAsmHelper@IronMan@@$00@std@@QEAAAEAU?$default_delete@VIAsmHelper@IronMan@@@2@XZ ; std::_Compressed_pair<std::default_delete<IronMan::IAsmHelper>,IronMan::IAsmHelper *,1>::_Get_first
PUBLIC	??_G?$unique_ptr@VIAsmHelper@IronMan@@U?$default_delete@VIAsmHelper@IronMan@@@std@@@std@@QEAAPEAXI@Z ; std::unique_ptr<IronMan::IAsmHelper,std::default_delete<IronMan::IAsmHelper> >::`scalar deleting destructor'
PUBLIC	??$?0U?$default_delete@VIAsmHelper@IronMan@@@std@@$0A@@?$unique_ptr@VIAsmHelper@IronMan@@U?$default_delete@VIAsmHelper@IronMan@@@std@@@std@@QEAA@$$QEAV01@@Z ; std::unique_ptr<IronMan::IAsmHelper,std::default_delete<IronMan::IAsmHelper> >::unique_ptr<IronMan::IAsmHelper,std::default_delete<IronMan::IAsmHelper> ><std::default_delete<IronMan::IAsmHelper>,0>
PUBLIC	??$make_unique@VAsmHelper64@IronMan@@$$V$0A@@std@@YA?AV?$unique_ptr@VAsmHelper64@IronMan@@U?$default_delete@VAsmHelper64@IronMan@@@std@@@0@XZ ; std::make_unique<IronMan::AsmHelper64,0>
PUBLIC	??R?$default_delete@VAsmHelper64@IronMan@@@std@@QEBAXPEAVAsmHelper64@IronMan@@@Z ; std::default_delete<IronMan::AsmHelper64>::operator()
PUBLIC	??1?$unique_ptr@VAsmHelper64@IronMan@@U?$default_delete@VAsmHelper64@IronMan@@@std@@@std@@QEAA@XZ ; std::unique_ptr<IronMan::AsmHelper64,std::default_delete<IronMan::AsmHelper64> >::~unique_ptr<IronMan::AsmHelper64,std::default_delete<IronMan::AsmHelper64> >
PUBLIC	?get_deleter@?$unique_ptr@VAsmHelper64@IronMan@@U?$default_delete@VAsmHelper64@IronMan@@@std@@@std@@QEAAAEAU?$default_delete@VAsmHelper64@IronMan@@@2@XZ ; std::unique_ptr<IronMan::AsmHelper64,std::default_delete<IronMan::AsmHelper64> >::get_deleter
PUBLIC	?release@?$unique_ptr@VAsmHelper64@IronMan@@U?$default_delete@VAsmHelper64@IronMan@@@std@@@std@@QEAAPEAVAsmHelper64@IronMan@@XZ ; std::unique_ptr<IronMan::AsmHelper64,std::default_delete<IronMan::AsmHelper64> >::release
PUBLIC	?_Get_first@?$_Compressed_pair@U?$default_delete@VAsmHelper64@IronMan@@@std@@PEAVAsmHelper64@IronMan@@$00@std@@QEAAAEAU?$default_delete@VAsmHelper64@IronMan@@@2@XZ ; std::_Compressed_pair<std::default_delete<IronMan::AsmHelper64>,IronMan::AsmHelper64 *,1>::_Get_first
PUBLIC	??$?0VAsmHelper64@IronMan@@$0A@@?$default_delete@VIAsmHelper@IronMan@@@std@@QEAA@AEBU?$default_delete@VAsmHelper64@IronMan@@@1@@Z ; std::default_delete<IronMan::IAsmHelper>::default_delete<IronMan::IAsmHelper><IronMan::AsmHelper64,0>
PUBLIC	??$?0VAsmHelper64@IronMan@@U?$default_delete@VAsmHelper64@IronMan@@@std@@$0A@@?$unique_ptr@VIAsmHelper@IronMan@@U?$default_delete@VIAsmHelper@IronMan@@@std@@@std@@QEAA@$$QEAV?$unique_ptr@VAsmHelper64@IronMan@@U?$default_delete@VAsmHelper64@IronMan@@@std@@@1@@Z ; std::unique_ptr<IronMan::IAsmHelper,std::default_delete<IronMan::IAsmHelper> >::unique_ptr<IronMan::IAsmHelper,std::default_delete<IronMan::IAsmHelper> ><IronMan::AsmHelper64,std::default_delete<IronMan::AsmHelper64>,0>
PUBLIC	?GetEntryPoint@AnalysisBase@Analysis@IronMan@@UEBA?B_KXZ ; IronMan::Analysis::AnalysisBase::GetEntryPoint
PUBLIC	??0AnalysisBase@Analysis@IronMan@@IEAA@XZ	; IronMan::Analysis::AnalysisBase::AnalysisBase
PUBLIC	?inRange@AnalysisBase@Analysis@IronMan@@IEBA_N_K00@Z ; IronMan::Analysis::AnalysisBase::inRange
PUBLIC	??0?$allocator@V?$unique_ptr@VIAsmHelper@IronMan@@U?$default_delete@VIAsmHelper@IronMan@@@std@@@std@@@std@@QEAA@XZ ; std::allocator<std::unique_ptr<IronMan::IAsmHelper,std::default_delete<IronMan::IAsmHelper> > >::allocator<std::unique_ptr<IronMan::IAsmHelper,std::default_delete<IronMan::IAsmHelper> > >
PUBLIC	?deallocate@?$allocator@V?$unique_ptr@VIAsmHelper@IronMan@@U?$default_delete@VIAsmHelper@IronMan@@@std@@@std@@@std@@QEAAXQEAV?$unique_ptr@VIAsmHelper@IronMan@@U?$default_delete@VIAsmHelper@IronMan@@@std@@@2@_K@Z ; std::allocator<std::unique_ptr<IronMan::IAsmHelper,std::default_delete<IronMan::IAsmHelper> > >::deallocate
PUBLIC	?allocate@?$allocator@V?$unique_ptr@VIAsmHelper@IronMan@@U?$default_delete@VIAsmHelper@IronMan@@@std@@@std@@@std@@QEAAPEAV?$unique_ptr@VIAsmHelper@IronMan@@U?$default_delete@VIAsmHelper@IronMan@@@std@@@2@_K@Z ; std::allocator<std::unique_ptr<IronMan::IAsmHelper,std::default_delete<IronMan::IAsmHelper> > >::allocate
PUBLIC	?max_size@?$_Default_allocator_traits@V?$allocator@V?$unique_ptr@VIAsmHelper@IronMan@@U?$default_delete@VIAsmHelper@IronMan@@@std@@@std@@@std@@@std@@SA_KAEBV?$allocator@V?$unique_ptr@VIAsmHelper@IronMan@@U?$default_delete@VIAsmHelper@IronMan@@@std@@@std@@@2@@Z ; std::_Default_allocator_traits<std::allocator<std::unique_ptr<IronMan::IAsmHelper,std::default_delete<IronMan::IAsmHelper> > > >::max_size
PUBLIC	??0?$vector@V?$unique_ptr@VIAsmHelper@IronMan@@U?$default_delete@VIAsmHelper@IronMan@@@std@@@std@@V?$allocator@V?$unique_ptr@VIAsmHelper@IronMan@@U?$default_delete@VIAsmHelper@IronMan@@@std@@@std@@@2@@std@@QEAA@XZ ; std::vector<std::unique_ptr<IronMan::IAsmHelper,std::default_delete<IronMan::IAsmHelper> >,std::allocator<std::unique_ptr<IronMan::IAsmHelper,std::default_delete<IronMan::IAsmHelper> > > >::vector<std::unique_ptr<IronMan::IAsmHelper,std::default_delete<IronMan::IAsmHelper> >,std::allocator<std::unique_ptr<IronMan::IAsmHelper,std::default_delete<IronMan::IAsmHelper> > > >
PUBLIC	??1?$vector@V?$unique_ptr@VIAsmHelper@IronMan@@U?$default_delete@VIAsmHelper@IronMan@@@std@@@std@@V?$allocator@V?$unique_ptr@VIAsmHelper@IronMan@@U?$default_delete@VIAsmHelper@IronMan@@@std@@@std@@@2@@std@@QEAA@XZ ; std::vector<std::unique_ptr<IronMan::IAsmHelper,std::default_delete<IronMan::IAsmHelper> >,std::allocator<std::unique_ptr<IronMan::IAsmHelper,std::default_delete<IronMan::IAsmHelper> > > >::~vector<std::unique_ptr<IronMan::IAsmHelper,std::default_delete<IronMan::IAsmHelper> >,std::allocator<std::unique_ptr<IronMan::IAsmHelper,std::default_delete<IronMan::IAsmHelper> > > >
PUBLIC	?push_back@?$vector@V?$unique_ptr@VIAsmHelper@IronMan@@U?$default_delete@VIAsmHelper@IronMan@@@std@@@std@@V?$allocator@V?$unique_ptr@VIAsmHelper@IronMan@@U?$default_delete@VIAsmHelper@IronMan@@@std@@@std@@@2@@std@@QEAAX$$QEAV?$unique_ptr@VIAsmHelper@IronMan@@U?$default_delete@VIAsmHelper@IronMan@@@std@@@2@@Z ; std::vector<std::unique_ptr<IronMan::IAsmHelper,std::default_delete<IronMan::IAsmHelper> >,std::allocator<std::unique_ptr<IronMan::IAsmHelper,std::default_delete<IronMan::IAsmHelper> > > >::push_back
PUBLIC	?empty@?$vector@V?$unique_ptr@VIAsmHelper@IronMan@@U?$default_delete@VIAsmHelper@IronMan@@@std@@@std@@V?$allocator@V?$unique_ptr@VIAsmHelper@IronMan@@U?$default_delete@VIAsmHelper@IronMan@@@std@@@std@@@2@@std@@QEBA_NXZ ; std::vector<std::unique_ptr<IronMan::IAsmHelper,std::default_delete<IronMan::IAsmHelper> >,std::allocator<std::unique_ptr<IronMan::IAsmHelper,std::default_delete<IronMan::IAsmHelper> > > >::empty
PUBLIC	?max_size@?$vector@V?$unique_ptr@VIAsmHelper@IronMan@@U?$default_delete@VIAsmHelper@IronMan@@@std@@@std@@V?$allocator@V?$unique_ptr@VIAsmHelper@IronMan@@U?$default_delete@VIAsmHelper@IronMan@@@std@@@std@@@2@@std@@QEBA_KXZ ; std::vector<std::unique_ptr<IronMan::IAsmHelper,std::default_delete<IronMan::IAsmHelper> >,std::allocator<std::unique_ptr<IronMan::IAsmHelper,std::default_delete<IronMan::IAsmHelper> > > >::max_size
PUBLIC	?capacity@?$vector@V?$unique_ptr@VIAsmHelper@IronMan@@U?$default_delete@VIAsmHelper@IronMan@@@std@@@std@@V?$allocator@V?$unique_ptr@VIAsmHelper@IronMan@@U?$default_delete@VIAsmHelper@IronMan@@@std@@@std@@@2@@std@@QEBA_KXZ ; std::vector<std::unique_ptr<IronMan::IAsmHelper,std::default_delete<IronMan::IAsmHelper> >,std::allocator<std::unique_ptr<IronMan::IAsmHelper,std::default_delete<IronMan::IAsmHelper> > > >::capacity
PUBLIC	?_Calculate_growth@?$vector@V?$unique_ptr@VIAsmHelper@IronMan@@U?$default_delete@VIAsmHelper@IronMan@@@std@@@std@@V?$allocator@V?$unique_ptr@VIAsmHelper@IronMan@@U?$default_delete@VIAsmHelper@IronMan@@@std@@@std@@@2@@std@@AEBA_K_K@Z ; std::vector<std::unique_ptr<IronMan::IAsmHelper,std::default_delete<IronMan::IAsmHelper> >,std::allocator<std::unique_ptr<IronMan::IAsmHelper,std::default_delete<IronMan::IAsmHelper> > > >::_Calculate_growth
PUBLIC	?_Change_array@?$vector@V?$unique_ptr@VIAsmHelper@IronMan@@U?$default_delete@VIAsmHelper@IronMan@@@std@@@std@@V?$allocator@V?$unique_ptr@VIAsmHelper@IronMan@@U?$default_delete@VIAsmHelper@IronMan@@@std@@@std@@@2@@std@@AEAAXQEAV?$unique_ptr@VIAsmHelper@IronMan@@U?$default_delete@VIAsmHelper@IronMan@@@std@@@2@_K1@Z ; std::vector<std::unique_ptr<IronMan::IAsmHelper,std::default_delete<IronMan::IAsmHelper> >,std::allocator<std::unique_ptr<IronMan::IAsmHelper,std::default_delete<IronMan::IAsmHelper> > > >::_Change_array
PUBLIC	?_Tidy@?$vector@V?$unique_ptr@VIAsmHelper@IronMan@@U?$default_delete@VIAsmHelper@IronMan@@@std@@@std@@V?$allocator@V?$unique_ptr@VIAsmHelper@IronMan@@U?$default_delete@VIAsmHelper@IronMan@@@std@@@std@@@2@@std@@AEAAXXZ ; std::vector<std::unique_ptr<IronMan::IAsmHelper,std::default_delete<IronMan::IAsmHelper> >,std::allocator<std::unique_ptr<IronMan::IAsmHelper,std::default_delete<IronMan::IAsmHelper> > > >::_Tidy
PUBLIC	?_Xlength@?$vector@V?$unique_ptr@VIAsmHelper@IronMan@@U?$default_delete@VIAsmHelper@IronMan@@@std@@@std@@V?$allocator@V?$unique_ptr@VIAsmHelper@IronMan@@U?$default_delete@VIAsmHelper@IronMan@@@std@@@std@@@2@@std@@CAXXZ ; std::vector<std::unique_ptr<IronMan::IAsmHelper,std::default_delete<IronMan::IAsmHelper> >,std::allocator<std::unique_ptr<IronMan::IAsmHelper,std::default_delete<IronMan::IAsmHelper> > > >::_Xlength
PUBLIC	?_Orphan_range@?$vector@V?$unique_ptr@VIAsmHelper@IronMan@@U?$default_delete@VIAsmHelper@IronMan@@@std@@@std@@V?$allocator@V?$unique_ptr@VIAsmHelper@IronMan@@U?$default_delete@VIAsmHelper@IronMan@@@std@@@std@@@2@@std@@AEBAXPEAV?$unique_ptr@VIAsmHelper@IronMan@@U?$default_delete@VIAsmHelper@IronMan@@@std@@@2@0@Z ; std::vector<std::unique_ptr<IronMan::IAsmHelper,std::default_delete<IronMan::IAsmHelper> >,std::allocator<std::unique_ptr<IronMan::IAsmHelper,std::default_delete<IronMan::IAsmHelper> > > >::_Orphan_range
PUBLIC	?_Getal@?$vector@V?$unique_ptr@VIAsmHelper@IronMan@@U?$default_delete@VIAsmHelper@IronMan@@@std@@@std@@V?$allocator@V?$unique_ptr@VIAsmHelper@IronMan@@U?$default_delete@VIAsmHelper@IronMan@@@std@@@std@@@2@@std@@AEAAAEAV?$allocator@V?$unique_ptr@VIAsmHelper@IronMan@@U?$default_delete@VIAsmHelper@IronMan@@@std@@@std@@@2@XZ ; std::vector<std::unique_ptr<IronMan::IAsmHelper,std::default_delete<IronMan::IAsmHelper> >,std::allocator<std::unique_ptr<IronMan::IAsmHelper,std::default_delete<IronMan::IAsmHelper> > > >::_Getal
PUBLIC	?_Getal@?$vector@V?$unique_ptr@VIAsmHelper@IronMan@@U?$default_delete@VIAsmHelper@IronMan@@@std@@@std@@V?$allocator@V?$unique_ptr@VIAsmHelper@IronMan@@U?$default_delete@VIAsmHelper@IronMan@@@std@@@std@@@2@@std@@AEBAAEBV?$allocator@V?$unique_ptr@VIAsmHelper@IronMan@@U?$default_delete@VIAsmHelper@IronMan@@@std@@@std@@@2@XZ ; std::vector<std::unique_ptr<IronMan::IAsmHelper,std::default_delete<IronMan::IAsmHelper> >,std::allocator<std::unique_ptr<IronMan::IAsmHelper,std::default_delete<IronMan::IAsmHelper> > > >::_Getal
PUBLIC	??0?$_Vector_val@U?$_Simple_types@V?$unique_ptr@VIAsmHelper@IronMan@@U?$default_delete@VIAsmHelper@IronMan@@@std@@@std@@@std@@@std@@QEAA@XZ ; std::_Vector_val<std::_Simple_types<std::unique_ptr<IronMan::IAsmHelper,std::default_delete<IronMan::IAsmHelper> > > >::_Vector_val<std::_Simple_types<std::unique_ptr<IronMan::IAsmHelper,std::default_delete<IronMan::IAsmHelper> > > >
PUBLIC	?_Get_first@?$_Compressed_pair@V?$allocator@V?$unique_ptr@VIAsmHelper@IronMan@@U?$default_delete@VIAsmHelper@IronMan@@@std@@@std@@@std@@V?$_Vector_val@U?$_Simple_types@V?$unique_ptr@VIAsmHelper@IronMan@@U?$default_delete@VIAsmHelper@IronMan@@@std@@@std@@@std@@@2@$00@std@@QEAAAEAV?$allocator@V?$unique_ptr@VIAsmHelper@IronMan@@U?$default_delete@VIAsmHelper@IronMan@@@std@@@std@@@2@XZ ; std::_Compressed_pair<std::allocator<std::unique_ptr<IronMan::IAsmHelper,std::default_delete<IronMan::IAsmHelper> > >,std::_Vector_val<std::_Simple_types<std::unique_ptr<IronMan::IAsmHelper,std::default_delete<IronMan::IAsmHelper> > > >,1>::_Get_first
PUBLIC	?_Get_first@?$_Compressed_pair@V?$allocator@V?$unique_ptr@VIAsmHelper@IronMan@@U?$default_delete@VIAsmHelper@IronMan@@@std@@@std@@@std@@V?$_Vector_val@U?$_Simple_types@V?$unique_ptr@VIAsmHelper@IronMan@@U?$default_delete@VIAsmHelper@IronMan@@@std@@@std@@@std@@@2@$00@std@@QEBAAEBV?$allocator@V?$unique_ptr@VIAsmHelper@IronMan@@U?$default_delete@VIAsmHelper@IronMan@@@std@@@std@@@2@XZ ; std::_Compressed_pair<std::allocator<std::unique_ptr<IronMan::IAsmHelper,std::default_delete<IronMan::IAsmHelper> > >,std::_Vector_val<std::_Simple_types<std::unique_ptr<IronMan::IAsmHelper,std::default_delete<IronMan::IAsmHelper> > > >,1>::_Get_first
PUBLIC	??_GAnalysisBase@Analysis@IronMan@@UEAAPEAXI@Z	; IronMan::Analysis::AnalysisBase::`scalar deleting destructor'
PUBLIC	??R?$_Func_class@XPEAX@std@@QEBAXPEAX@Z		; std::_Func_class<void,void *>::operator()
PUBLIC	??1?$_Func_class@XPEAX@std@@QEAA@XZ		; std::_Func_class<void,void *>::~_Func_class<void,void *>
PUBLIC	?_Empty@?$_Func_class@XPEAX@std@@IEBA_NXZ	; std::_Func_class<void,void *>::_Empty
PUBLIC	?_Tidy@?$_Func_class@XPEAX@std@@IEAAXXZ		; std::_Func_class<void,void *>::_Tidy
PUBLIC	?_Local@?$_Func_class@XPEAX@std@@AEBA_NXZ	; std::_Func_class<void,void *>::_Local
PUBLIC	?_Getimpl@?$_Func_class@XPEAX@std@@AEBAPEAV?$_Func_base@XPEAX@2@XZ ; std::_Func_class<void,void *>::_Getimpl
PUBLIC	?_Set@?$_Func_class@XPEAX@std@@AEAAXPEAV?$_Func_base@XPEAX@2@@Z ; std::_Func_class<void,void *>::_Set
PUBLIC	??B?$function@$$A6AXPEAX@Z@std@@QEBA_NXZ	; std::function<void __cdecl(void *)>::operator bool
PUBLIC	??1?$function@$$A6AXPEAX@Z@std@@QEAA@XZ		; std::function<void __cdecl(void *)>::~function<void __cdecl(void *)>
PUBLIC	??0VariableInfo@DecryptAnalysis@Analysis@IronMan@@QEAA@_K0@Z ; IronMan::Analysis::DecryptAnalysis::VariableInfo::VariableInfo
PUBLIC	??0InstructionInfo@DecryptAnalysis@Analysis@IronMan@@QEAA@UZydisDecodedInstruction_@@_KHH@Z ; IronMan::Analysis::DecryptAnalysis::InstructionInfo::InstructionInfo
PUBLIC	??0?$allocator@UInstructionInfo@DecryptAnalysis@Analysis@IronMan@@@std@@QEAA@XZ ; std::allocator<IronMan::Analysis::DecryptAnalysis::InstructionInfo>::allocator<IronMan::Analysis::DecryptAnalysis::InstructionInfo>
PUBLIC	?deallocate@?$allocator@UInstructionInfo@DecryptAnalysis@Analysis@IronMan@@@std@@QEAAXQEAUInstructionInfo@DecryptAnalysis@Analysis@IronMan@@_K@Z ; std::allocator<IronMan::Analysis::DecryptAnalysis::InstructionInfo>::deallocate
PUBLIC	?allocate@?$allocator@UInstructionInfo@DecryptAnalysis@Analysis@IronMan@@@std@@QEAAPEAUInstructionInfo@DecryptAnalysis@Analysis@IronMan@@_K@Z ; std::allocator<IronMan::Analysis::DecryptAnalysis::InstructionInfo>::allocate
PUBLIC	?max_size@?$_Default_allocator_traits@V?$allocator@UInstructionInfo@DecryptAnalysis@Analysis@IronMan@@@std@@@std@@SA_KAEBV?$allocator@UInstructionInfo@DecryptAnalysis@Analysis@IronMan@@@2@@Z ; std::_Default_allocator_traits<std::allocator<IronMan::Analysis::DecryptAnalysis::InstructionInfo> >::max_size
PUBLIC	?select_on_container_copy_construction@?$_Default_allocator_traits@V?$allocator@UInstructionInfo@DecryptAnalysis@Analysis@IronMan@@@std@@@std@@SA?AV?$allocator@UInstructionInfo@DecryptAnalysis@Analysis@IronMan@@@2@AEBV32@@Z ; std::_Default_allocator_traits<std::allocator<IronMan::Analysis::DecryptAnalysis::InstructionInfo> >::select_on_container_copy_construction
PUBLIC	??0?$vector@UInstructionInfo@DecryptAnalysis@Analysis@IronMan@@V?$allocator@UInstructionInfo@DecryptAnalysis@Analysis@IronMan@@@std@@@std@@QEAA@XZ ; std::vector<IronMan::Analysis::DecryptAnalysis::InstructionInfo,std::allocator<IronMan::Analysis::DecryptAnalysis::InstructionInfo> >::vector<IronMan::Analysis::DecryptAnalysis::InstructionInfo,std::allocator<IronMan::Analysis::DecryptAnalysis::InstructionInfo> >
PUBLIC	??0?$vector@UInstructionInfo@DecryptAnalysis@Analysis@IronMan@@V?$allocator@UInstructionInfo@DecryptAnalysis@Analysis@IronMan@@@std@@@std@@QEAA@AEBV01@@Z ; std::vector<IronMan::Analysis::DecryptAnalysis::InstructionInfo,std::allocator<IronMan::Analysis::DecryptAnalysis::InstructionInfo> >::vector<IronMan::Analysis::DecryptAnalysis::InstructionInfo,std::allocator<IronMan::Analysis::DecryptAnalysis::InstructionInfo> >
PUBLIC	??0?$vector@UInstructionInfo@DecryptAnalysis@Analysis@IronMan@@V?$allocator@UInstructionInfo@DecryptAnalysis@Analysis@IronMan@@@std@@@std@@QEAA@$$QEAV01@@Z ; std::vector<IronMan::Analysis::DecryptAnalysis::InstructionInfo,std::allocator<IronMan::Analysis::DecryptAnalysis::InstructionInfo> >::vector<IronMan::Analysis::DecryptAnalysis::InstructionInfo,std::allocator<IronMan::Analysis::DecryptAnalysis::InstructionInfo> >
PUBLIC	??1?$vector@UInstructionInfo@DecryptAnalysis@Analysis@IronMan@@V?$allocator@UInstructionInfo@DecryptAnalysis@Analysis@IronMan@@@std@@@std@@QEAA@XZ ; std::vector<IronMan::Analysis::DecryptAnalysis::InstructionInfo,std::allocator<IronMan::Analysis::DecryptAnalysis::InstructionInfo> >::~vector<IronMan::Analysis::DecryptAnalysis::InstructionInfo,std::allocator<IronMan::Analysis::DecryptAnalysis::InstructionInfo> >
PUBLIC	?push_back@?$vector@UInstructionInfo@DecryptAnalysis@Analysis@IronMan@@V?$allocator@UInstructionInfo@DecryptAnalysis@Analysis@IronMan@@@std@@@std@@QEAAX$$QEAUInstructionInfo@DecryptAnalysis@Analysis@IronMan@@@Z ; std::vector<IronMan::Analysis::DecryptAnalysis::InstructionInfo,std::allocator<IronMan::Analysis::DecryptAnalysis::InstructionInfo> >::push_back
PUBLIC	?empty@?$vector@UInstructionInfo@DecryptAnalysis@Analysis@IronMan@@V?$allocator@UInstructionInfo@DecryptAnalysis@Analysis@IronMan@@@std@@@std@@QEBA_NXZ ; std::vector<IronMan::Analysis::DecryptAnalysis::InstructionInfo,std::allocator<IronMan::Analysis::DecryptAnalysis::InstructionInfo> >::empty
PUBLIC	?size@?$vector@UInstructionInfo@DecryptAnalysis@Analysis@IronMan@@V?$allocator@UInstructionInfo@DecryptAnalysis@Analysis@IronMan@@@std@@@std@@QEBA_KXZ ; std::vector<IronMan::Analysis::DecryptAnalysis::InstructionInfo,std::allocator<IronMan::Analysis::DecryptAnalysis::InstructionInfo> >::size
PUBLIC	?max_size@?$vector@UInstructionInfo@DecryptAnalysis@Analysis@IronMan@@V?$allocator@UInstructionInfo@DecryptAnalysis@Analysis@IronMan@@@std@@@std@@QEBA_KXZ ; std::vector<IronMan::Analysis::DecryptAnalysis::InstructionInfo,std::allocator<IronMan::Analysis::DecryptAnalysis::InstructionInfo> >::max_size
PUBLIC	?capacity@?$vector@UInstructionInfo@DecryptAnalysis@Analysis@IronMan@@V?$allocator@UInstructionInfo@DecryptAnalysis@Analysis@IronMan@@@std@@@std@@QEBA_KXZ ; std::vector<IronMan::Analysis::DecryptAnalysis::InstructionInfo,std::allocator<IronMan::Analysis::DecryptAnalysis::InstructionInfo> >::capacity
PUBLIC	??A?$vector@UInstructionInfo@DecryptAnalysis@Analysis@IronMan@@V?$allocator@UInstructionInfo@DecryptAnalysis@Analysis@IronMan@@@std@@@std@@QEAAAEAUInstructionInfo@DecryptAnalysis@Analysis@IronMan@@_K@Z ; std::vector<IronMan::Analysis::DecryptAnalysis::InstructionInfo,std::allocator<IronMan::Analysis::DecryptAnalysis::InstructionInfo> >::operator[]
PUBLIC	?back@?$vector@UInstructionInfo@DecryptAnalysis@Analysis@IronMan@@V?$allocator@UInstructionInfo@DecryptAnalysis@Analysis@IronMan@@@std@@@std@@QEAAAEAUInstructionInfo@DecryptAnalysis@Analysis@IronMan@@XZ ; std::vector<IronMan::Analysis::DecryptAnalysis::InstructionInfo,std::allocator<IronMan::Analysis::DecryptAnalysis::InstructionInfo> >::back
PUBLIC	?_Calculate_growth@?$vector@UInstructionInfo@DecryptAnalysis@Analysis@IronMan@@V?$allocator@UInstructionInfo@DecryptAnalysis@Analysis@IronMan@@@std@@@std@@AEBA_K_K@Z ; std::vector<IronMan::Analysis::DecryptAnalysis::InstructionInfo,std::allocator<IronMan::Analysis::DecryptAnalysis::InstructionInfo> >::_Calculate_growth
PUBLIC	?_Buy_raw@?$vector@UInstructionInfo@DecryptAnalysis@Analysis@IronMan@@V?$allocator@UInstructionInfo@DecryptAnalysis@Analysis@IronMan@@@std@@@std@@AEAAX_K@Z ; std::vector<IronMan::Analysis::DecryptAnalysis::InstructionInfo,std::allocator<IronMan::Analysis::DecryptAnalysis::InstructionInfo> >::_Buy_raw
PUBLIC	?_Buy_nonzero@?$vector@UInstructionInfo@DecryptAnalysis@Analysis@IronMan@@V?$allocator@UInstructionInfo@DecryptAnalysis@Analysis@IronMan@@@std@@@std@@AEAAX_K@Z ; std::vector<IronMan::Analysis::DecryptAnalysis::InstructionInfo,std::allocator<IronMan::Analysis::DecryptAnalysis::InstructionInfo> >::_Buy_nonzero
PUBLIC	?_Change_array@?$vector@UInstructionInfo@DecryptAnalysis@Analysis@IronMan@@V?$allocator@UInstructionInfo@DecryptAnalysis@Analysis@IronMan@@@std@@@std@@AEAAXQEAUInstructionInfo@DecryptAnalysis@Analysis@IronMan@@_K1@Z ; std::vector<IronMan::Analysis::DecryptAnalysis::InstructionInfo,std::allocator<IronMan::Analysis::DecryptAnalysis::InstructionInfo> >::_Change_array
PUBLIC	?_Tidy@?$vector@UInstructionInfo@DecryptAnalysis@Analysis@IronMan@@V?$allocator@UInstructionInfo@DecryptAnalysis@Analysis@IronMan@@@std@@@std@@AEAAXXZ ; std::vector<IronMan::Analysis::DecryptAnalysis::InstructionInfo,std::allocator<IronMan::Analysis::DecryptAnalysis::InstructionInfo> >::_Tidy
PUBLIC	?_Xlength@?$vector@UInstructionInfo@DecryptAnalysis@Analysis@IronMan@@V?$allocator@UInstructionInfo@DecryptAnalysis@Analysis@IronMan@@@std@@@std@@CAXXZ ; std::vector<IronMan::Analysis::DecryptAnalysis::InstructionInfo,std::allocator<IronMan::Analysis::DecryptAnalysis::InstructionInfo> >::_Xlength
PUBLIC	?_Orphan_range@?$vector@UInstructionInfo@DecryptAnalysis@Analysis@IronMan@@V?$allocator@UInstructionInfo@DecryptAnalysis@Analysis@IronMan@@@std@@@std@@AEBAXPEAUInstructionInfo@DecryptAnalysis@Analysis@IronMan@@0@Z ; std::vector<IronMan::Analysis::DecryptAnalysis::InstructionInfo,std::allocator<IronMan::Analysis::DecryptAnalysis::InstructionInfo> >::_Orphan_range
PUBLIC	?_Getal@?$vector@UInstructionInfo@DecryptAnalysis@Analysis@IronMan@@V?$allocator@UInstructionInfo@DecryptAnalysis@Analysis@IronMan@@@std@@@std@@AEAAAEAV?$allocator@UInstructionInfo@DecryptAnalysis@Analysis@IronMan@@@2@XZ ; std::vector<IronMan::Analysis::DecryptAnalysis::InstructionInfo,std::allocator<IronMan::Analysis::DecryptAnalysis::InstructionInfo> >::_Getal
PUBLIC	?_Getal@?$vector@UInstructionInfo@DecryptAnalysis@Analysis@IronMan@@V?$allocator@UInstructionInfo@DecryptAnalysis@Analysis@IronMan@@@std@@@std@@AEBAAEBV?$allocator@UInstructionInfo@DecryptAnalysis@Analysis@IronMan@@@2@XZ ; std::vector<IronMan::Analysis::DecryptAnalysis::InstructionInfo,std::allocator<IronMan::Analysis::DecryptAnalysis::InstructionInfo> >::_Getal
PUBLIC	??0?$_Vector_val@U?$_Simple_types@UInstructionInfo@DecryptAnalysis@Analysis@IronMan@@@std@@@std@@QEAA@XZ ; std::_Vector_val<std::_Simple_types<IronMan::Analysis::DecryptAnalysis::InstructionInfo> >::_Vector_val<std::_Simple_types<IronMan::Analysis::DecryptAnalysis::InstructionInfo> >
PUBLIC	??0?$_Vector_val@U?$_Simple_types@UInstructionInfo@DecryptAnalysis@Analysis@IronMan@@@std@@@std@@QEAA@PEAUInstructionInfo@DecryptAnalysis@Analysis@IronMan@@00@Z ; std::_Vector_val<std::_Simple_types<IronMan::Analysis::DecryptAnalysis::InstructionInfo> >::_Vector_val<std::_Simple_types<IronMan::Analysis::DecryptAnalysis::InstructionInfo> >
PUBLIC	?_Get_first@?$_Compressed_pair@V?$allocator@UInstructionInfo@DecryptAnalysis@Analysis@IronMan@@@std@@V?$_Vector_val@U?$_Simple_types@UInstructionInfo@DecryptAnalysis@Analysis@IronMan@@@std@@@2@$00@std@@QEAAAEAV?$allocator@UInstructionInfo@DecryptAnalysis@Analysis@IronMan@@@2@XZ ; std::_Compressed_pair<std::allocator<IronMan::Analysis::DecryptAnalysis::InstructionInfo>,std::_Vector_val<std::_Simple_types<IronMan::Analysis::DecryptAnalysis::InstructionInfo> >,1>::_Get_first
PUBLIC	?_Get_first@?$_Compressed_pair@V?$allocator@UInstructionInfo@DecryptAnalysis@Analysis@IronMan@@@std@@V?$_Vector_val@U?$_Simple_types@UInstructionInfo@DecryptAnalysis@Analysis@IronMan@@@std@@@2@$00@std@@QEBAAEBV?$allocator@UInstructionInfo@DecryptAnalysis@Analysis@IronMan@@@2@XZ ; std::_Compressed_pair<std::allocator<IronMan::Analysis::DecryptAnalysis::InstructionInfo>,std::_Vector_val<std::_Simple_types<IronMan::Analysis::DecryptAnalysis::InstructionInfo> >,1>::_Get_first
PUBLIC	??0?$allocator@UVariableInfo@DecryptAnalysis@Analysis@IronMan@@@std@@QEAA@XZ ; std::allocator<IronMan::Analysis::DecryptAnalysis::VariableInfo>::allocator<IronMan::Analysis::DecryptAnalysis::VariableInfo>
PUBLIC	?deallocate@?$allocator@UVariableInfo@DecryptAnalysis@Analysis@IronMan@@@std@@QEAAXQEAUVariableInfo@DecryptAnalysis@Analysis@IronMan@@_K@Z ; std::allocator<IronMan::Analysis::DecryptAnalysis::VariableInfo>::deallocate
PUBLIC	?allocate@?$allocator@UVariableInfo@DecryptAnalysis@Analysis@IronMan@@@std@@QEAAPEAUVariableInfo@DecryptAnalysis@Analysis@IronMan@@_K@Z ; std::allocator<IronMan::Analysis::DecryptAnalysis::VariableInfo>::allocate
PUBLIC	?max_size@?$_Default_allocator_traits@V?$allocator@UVariableInfo@DecryptAnalysis@Analysis@IronMan@@@std@@@std@@SA_KAEBV?$allocator@UVariableInfo@DecryptAnalysis@Analysis@IronMan@@@2@@Z ; std::_Default_allocator_traits<std::allocator<IronMan::Analysis::DecryptAnalysis::VariableInfo> >::max_size
PUBLIC	?select_on_container_copy_construction@?$_Default_allocator_traits@V?$allocator@UVariableInfo@DecryptAnalysis@Analysis@IronMan@@@std@@@std@@SA?AV?$allocator@UVariableInfo@DecryptAnalysis@Analysis@IronMan@@@2@AEBV32@@Z ; std::_Default_allocator_traits<std::allocator<IronMan::Analysis::DecryptAnalysis::VariableInfo> >::select_on_container_copy_construction
PUBLIC	??0?$vector@UVariableInfo@DecryptAnalysis@Analysis@IronMan@@V?$allocator@UVariableInfo@DecryptAnalysis@Analysis@IronMan@@@std@@@std@@QEAA@XZ ; std::vector<IronMan::Analysis::DecryptAnalysis::VariableInfo,std::allocator<IronMan::Analysis::DecryptAnalysis::VariableInfo> >::vector<IronMan::Analysis::DecryptAnalysis::VariableInfo,std::allocator<IronMan::Analysis::DecryptAnalysis::VariableInfo> >
PUBLIC	??0?$vector@UVariableInfo@DecryptAnalysis@Analysis@IronMan@@V?$allocator@UVariableInfo@DecryptAnalysis@Analysis@IronMan@@@std@@@std@@QEAA@AEBV01@@Z ; std::vector<IronMan::Analysis::DecryptAnalysis::VariableInfo,std::allocator<IronMan::Analysis::DecryptAnalysis::VariableInfo> >::vector<IronMan::Analysis::DecryptAnalysis::VariableInfo,std::allocator<IronMan::Analysis::DecryptAnalysis::VariableInfo> >
PUBLIC	??0?$vector@UVariableInfo@DecryptAnalysis@Analysis@IronMan@@V?$allocator@UVariableInfo@DecryptAnalysis@Analysis@IronMan@@@std@@@std@@QEAA@$$QEAV01@@Z ; std::vector<IronMan::Analysis::DecryptAnalysis::VariableInfo,std::allocator<IronMan::Analysis::DecryptAnalysis::VariableInfo> >::vector<IronMan::Analysis::DecryptAnalysis::VariableInfo,std::allocator<IronMan::Analysis::DecryptAnalysis::VariableInfo> >
PUBLIC	??1?$vector@UVariableInfo@DecryptAnalysis@Analysis@IronMan@@V?$allocator@UVariableInfo@DecryptAnalysis@Analysis@IronMan@@@std@@@std@@QEAA@XZ ; std::vector<IronMan::Analysis::DecryptAnalysis::VariableInfo,std::allocator<IronMan::Analysis::DecryptAnalysis::VariableInfo> >::~vector<IronMan::Analysis::DecryptAnalysis::VariableInfo,std::allocator<IronMan::Analysis::DecryptAnalysis::VariableInfo> >
PUBLIC	?push_back@?$vector@UVariableInfo@DecryptAnalysis@Analysis@IronMan@@V?$allocator@UVariableInfo@DecryptAnalysis@Analysis@IronMan@@@std@@@std@@QEAAX$$QEAUVariableInfo@DecryptAnalysis@Analysis@IronMan@@@Z ; std::vector<IronMan::Analysis::DecryptAnalysis::VariableInfo,std::allocator<IronMan::Analysis::DecryptAnalysis::VariableInfo> >::push_back
PUBLIC	?begin@?$vector@UVariableInfo@DecryptAnalysis@Analysis@IronMan@@V?$allocator@UVariableInfo@DecryptAnalysis@Analysis@IronMan@@@std@@@std@@QEAA?AV?$_Vector_iterator@V?$_Vector_val@U?$_Simple_types@UVariableInfo@DecryptAnalysis@Analysis@IronMan@@@std@@@std@@@2@XZ ; std::vector<IronMan::Analysis::DecryptAnalysis::VariableInfo,std::allocator<IronMan::Analysis::DecryptAnalysis::VariableInfo> >::begin
PUBLIC	?end@?$vector@UVariableInfo@DecryptAnalysis@Analysis@IronMan@@V?$allocator@UVariableInfo@DecryptAnalysis@Analysis@IronMan@@@std@@@std@@QEAA?AV?$_Vector_iterator@V?$_Vector_val@U?$_Simple_types@UVariableInfo@DecryptAnalysis@Analysis@IronMan@@@std@@@std@@@2@XZ ; std::vector<IronMan::Analysis::DecryptAnalysis::VariableInfo,std::allocator<IronMan::Analysis::DecryptAnalysis::VariableInfo> >::end
PUBLIC	?_Unchecked_begin@?$vector@UVariableInfo@DecryptAnalysis@Analysis@IronMan@@V?$allocator@UVariableInfo@DecryptAnalysis@Analysis@IronMan@@@std@@@std@@QEAAPEAUVariableInfo@DecryptAnalysis@Analysis@IronMan@@XZ ; std::vector<IronMan::Analysis::DecryptAnalysis::VariableInfo,std::allocator<IronMan::Analysis::DecryptAnalysis::VariableInfo> >::_Unchecked_begin
PUBLIC	?_Unchecked_end@?$vector@UVariableInfo@DecryptAnalysis@Analysis@IronMan@@V?$allocator@UVariableInfo@DecryptAnalysis@Analysis@IronMan@@@std@@@std@@QEAAPEAUVariableInfo@DecryptAnalysis@Analysis@IronMan@@XZ ; std::vector<IronMan::Analysis::DecryptAnalysis::VariableInfo,std::allocator<IronMan::Analysis::DecryptAnalysis::VariableInfo> >::_Unchecked_end
PUBLIC	?size@?$vector@UVariableInfo@DecryptAnalysis@Analysis@IronMan@@V?$allocator@UVariableInfo@DecryptAnalysis@Analysis@IronMan@@@std@@@std@@QEBA_KXZ ; std::vector<IronMan::Analysis::DecryptAnalysis::VariableInfo,std::allocator<IronMan::Analysis::DecryptAnalysis::VariableInfo> >::size
PUBLIC	?max_size@?$vector@UVariableInfo@DecryptAnalysis@Analysis@IronMan@@V?$allocator@UVariableInfo@DecryptAnalysis@Analysis@IronMan@@@std@@@std@@QEBA_KXZ ; std::vector<IronMan::Analysis::DecryptAnalysis::VariableInfo,std::allocator<IronMan::Analysis::DecryptAnalysis::VariableInfo> >::max_size
PUBLIC	?capacity@?$vector@UVariableInfo@DecryptAnalysis@Analysis@IronMan@@V?$allocator@UVariableInfo@DecryptAnalysis@Analysis@IronMan@@@std@@@std@@QEBA_KXZ ; std::vector<IronMan::Analysis::DecryptAnalysis::VariableInfo,std::allocator<IronMan::Analysis::DecryptAnalysis::VariableInfo> >::capacity
PUBLIC	?_Calculate_growth@?$vector@UVariableInfo@DecryptAnalysis@Analysis@IronMan@@V?$allocator@UVariableInfo@DecryptAnalysis@Analysis@IronMan@@@std@@@std@@AEBA_K_K@Z ; std::vector<IronMan::Analysis::DecryptAnalysis::VariableInfo,std::allocator<IronMan::Analysis::DecryptAnalysis::VariableInfo> >::_Calculate_growth
PUBLIC	?_Buy_raw@?$vector@UVariableInfo@DecryptAnalysis@Analysis@IronMan@@V?$allocator@UVariableInfo@DecryptAnalysis@Analysis@IronMan@@@std@@@std@@AEAAX_K@Z ; std::vector<IronMan::Analysis::DecryptAnalysis::VariableInfo,std::allocator<IronMan::Analysis::DecryptAnalysis::VariableInfo> >::_Buy_raw
PUBLIC	?_Buy_nonzero@?$vector@UVariableInfo@DecryptAnalysis@Analysis@IronMan@@V?$allocator@UVariableInfo@DecryptAnalysis@Analysis@IronMan@@@std@@@std@@AEAAX_K@Z ; std::vector<IronMan::Analysis::DecryptAnalysis::VariableInfo,std::allocator<IronMan::Analysis::DecryptAnalysis::VariableInfo> >::_Buy_nonzero
PUBLIC	?_Change_array@?$vector@UVariableInfo@DecryptAnalysis@Analysis@IronMan@@V?$allocator@UVariableInfo@DecryptAnalysis@Analysis@IronMan@@@std@@@std@@AEAAXQEAUVariableInfo@DecryptAnalysis@Analysis@IronMan@@_K1@Z ; std::vector<IronMan::Analysis::DecryptAnalysis::VariableInfo,std::allocator<IronMan::Analysis::DecryptAnalysis::VariableInfo> >::_Change_array
PUBLIC	?_Tidy@?$vector@UVariableInfo@DecryptAnalysis@Analysis@IronMan@@V?$allocator@UVariableInfo@DecryptAnalysis@Analysis@IronMan@@@std@@@std@@AEAAXXZ ; std::vector<IronMan::Analysis::DecryptAnalysis::VariableInfo,std::allocator<IronMan::Analysis::DecryptAnalysis::VariableInfo> >::_Tidy
PUBLIC	?_Xlength@?$vector@UVariableInfo@DecryptAnalysis@Analysis@IronMan@@V?$allocator@UVariableInfo@DecryptAnalysis@Analysis@IronMan@@@std@@@std@@CAXXZ ; std::vector<IronMan::Analysis::DecryptAnalysis::VariableInfo,std::allocator<IronMan::Analysis::DecryptAnalysis::VariableInfo> >::_Xlength
PUBLIC	?_Orphan_range@?$vector@UVariableInfo@DecryptAnalysis@Analysis@IronMan@@V?$allocator@UVariableInfo@DecryptAnalysis@Analysis@IronMan@@@std@@@std@@AEBAXPEAUVariableInfo@DecryptAnalysis@Analysis@IronMan@@0@Z ; std::vector<IronMan::Analysis::DecryptAnalysis::VariableInfo,std::allocator<IronMan::Analysis::DecryptAnalysis::VariableInfo> >::_Orphan_range
PUBLIC	?_Getal@?$vector@UVariableInfo@DecryptAnalysis@Analysis@IronMan@@V?$allocator@UVariableInfo@DecryptAnalysis@Analysis@IronMan@@@std@@@std@@AEAAAEAV?$allocator@UVariableInfo@DecryptAnalysis@Analysis@IronMan@@@2@XZ ; std::vector<IronMan::Analysis::DecryptAnalysis::VariableInfo,std::allocator<IronMan::Analysis::DecryptAnalysis::VariableInfo> >::_Getal
PUBLIC	?_Getal@?$vector@UVariableInfo@DecryptAnalysis@Analysis@IronMan@@V?$allocator@UVariableInfo@DecryptAnalysis@Analysis@IronMan@@@std@@@std@@AEBAAEBV?$allocator@UVariableInfo@DecryptAnalysis@Analysis@IronMan@@@2@XZ ; std::vector<IronMan::Analysis::DecryptAnalysis::VariableInfo,std::allocator<IronMan::Analysis::DecryptAnalysis::VariableInfo> >::_Getal
PUBLIC	??0?$_Vector_val@U?$_Simple_types@UVariableInfo@DecryptAnalysis@Analysis@IronMan@@@std@@@std@@QEAA@XZ ; std::_Vector_val<std::_Simple_types<IronMan::Analysis::DecryptAnalysis::VariableInfo> >::_Vector_val<std::_Simple_types<IronMan::Analysis::DecryptAnalysis::VariableInfo> >
PUBLIC	??0?$_Vector_val@U?$_Simple_types@UVariableInfo@DecryptAnalysis@Analysis@IronMan@@@std@@@std@@QEAA@PEAUVariableInfo@DecryptAnalysis@Analysis@IronMan@@00@Z ; std::_Vector_val<std::_Simple_types<IronMan::Analysis::DecryptAnalysis::VariableInfo> >::_Vector_val<std::_Simple_types<IronMan::Analysis::DecryptAnalysis::VariableInfo> >
PUBLIC	?_Get_first@?$_Compressed_pair@V?$allocator@UVariableInfo@DecryptAnalysis@Analysis@IronMan@@@std@@V?$_Vector_val@U?$_Simple_types@UVariableInfo@DecryptAnalysis@Analysis@IronMan@@@std@@@2@$00@std@@QEAAAEAV?$allocator@UVariableInfo@DecryptAnalysis@Analysis@IronMan@@@2@XZ ; std::_Compressed_pair<std::allocator<IronMan::Analysis::DecryptAnalysis::VariableInfo>,std::_Vector_val<std::_Simple_types<IronMan::Analysis::DecryptAnalysis::VariableInfo> >,1>::_Get_first
PUBLIC	?_Get_first@?$_Compressed_pair@V?$allocator@UVariableInfo@DecryptAnalysis@Analysis@IronMan@@@std@@V?$_Vector_val@U?$_Simple_types@UVariableInfo@DecryptAnalysis@Analysis@IronMan@@@std@@@2@$00@std@@QEBAAEBV?$allocator@UVariableInfo@DecryptAnalysis@Analysis@IronMan@@@2@XZ ; std::_Compressed_pair<std::allocator<IronMan::Analysis::DecryptAnalysis::VariableInfo>,std::_Vector_val<std::_Simple_types<IronMan::Analysis::DecryptAnalysis::VariableInfo> >,1>::_Get_first
PUBLIC	??0?$allocator@W4ZydisRegister_@@@std@@QEAA@XZ	; std::allocator<enum ZydisRegister_>::allocator<enum ZydisRegister_>
PUBLIC	?deallocate@?$allocator@W4ZydisRegister_@@@std@@QEAAXQEAW4ZydisRegister_@@_K@Z ; std::allocator<enum ZydisRegister_>::deallocate
PUBLIC	?allocate@?$allocator@W4ZydisRegister_@@@std@@QEAAPEAW4ZydisRegister_@@_K@Z ; std::allocator<enum ZydisRegister_>::allocate
PUBLIC	?max_size@?$_Default_allocator_traits@V?$allocator@W4ZydisRegister_@@@std@@@std@@SA_KAEBV?$allocator@W4ZydisRegister_@@@2@@Z ; std::_Default_allocator_traits<std::allocator<enum ZydisRegister_> >::max_size
PUBLIC	?select_on_container_copy_construction@?$_Default_allocator_traits@V?$allocator@W4ZydisRegister_@@@std@@@std@@SA?AV?$allocator@W4ZydisRegister_@@@2@AEBV32@@Z ; std::_Default_allocator_traits<std::allocator<enum ZydisRegister_> >::select_on_container_copy_construction
PUBLIC	??0?$vector@W4ZydisRegister_@@V?$allocator@W4ZydisRegister_@@@std@@@std@@QEAA@XZ ; std::vector<enum ZydisRegister_,std::allocator<enum ZydisRegister_> >::vector<enum ZydisRegister_,std::allocator<enum ZydisRegister_> >
PUBLIC	??0?$vector@W4ZydisRegister_@@V?$allocator@W4ZydisRegister_@@@std@@@std@@QEAA@AEBV01@@Z ; std::vector<enum ZydisRegister_,std::allocator<enum ZydisRegister_> >::vector<enum ZydisRegister_,std::allocator<enum ZydisRegister_> >
PUBLIC	??0?$vector@W4ZydisRegister_@@V?$allocator@W4ZydisRegister_@@@std@@@std@@QEAA@$$QEAV01@@Z ; std::vector<enum ZydisRegister_,std::allocator<enum ZydisRegister_> >::vector<enum ZydisRegister_,std::allocator<enum ZydisRegister_> >
PUBLIC	??1?$vector@W4ZydisRegister_@@V?$allocator@W4ZydisRegister_@@@std@@@std@@QEAA@XZ ; std::vector<enum ZydisRegister_,std::allocator<enum ZydisRegister_> >::~vector<enum ZydisRegister_,std::allocator<enum ZydisRegister_> >
PUBLIC	?push_back@?$vector@W4ZydisRegister_@@V?$allocator@W4ZydisRegister_@@@std@@@std@@QEAAXAEBW4ZydisRegister_@@@Z ; std::vector<enum ZydisRegister_,std::allocator<enum ZydisRegister_> >::push_back
PUBLIC	?push_back@?$vector@W4ZydisRegister_@@V?$allocator@W4ZydisRegister_@@@std@@@std@@QEAAX$$QEAW4ZydisRegister_@@@Z ; std::vector<enum ZydisRegister_,std::allocator<enum ZydisRegister_> >::push_back
PUBLIC	?begin@?$vector@W4ZydisRegister_@@V?$allocator@W4ZydisRegister_@@@std@@@std@@QEAA?AV?$_Vector_iterator@V?$_Vector_val@U?$_Simple_types@W4ZydisRegister_@@@std@@@std@@@2@XZ ; std::vector<enum ZydisRegister_,std::allocator<enum ZydisRegister_> >::begin
PUBLIC	?end@?$vector@W4ZydisRegister_@@V?$allocator@W4ZydisRegister_@@@std@@@std@@QEAA?AV?$_Vector_iterator@V?$_Vector_val@U?$_Simple_types@W4ZydisRegister_@@@std@@@std@@@2@XZ ; std::vector<enum ZydisRegister_,std::allocator<enum ZydisRegister_> >::end
PUBLIC	?size@?$vector@W4ZydisRegister_@@V?$allocator@W4ZydisRegister_@@@std@@@std@@QEBA_KXZ ; std::vector<enum ZydisRegister_,std::allocator<enum ZydisRegister_> >::size
PUBLIC	?max_size@?$vector@W4ZydisRegister_@@V?$allocator@W4ZydisRegister_@@@std@@@std@@QEBA_KXZ ; std::vector<enum ZydisRegister_,std::allocator<enum ZydisRegister_> >::max_size
PUBLIC	?capacity@?$vector@W4ZydisRegister_@@V?$allocator@W4ZydisRegister_@@@std@@@std@@QEBA_KXZ ; std::vector<enum ZydisRegister_,std::allocator<enum ZydisRegister_> >::capacity
PUBLIC	??A?$vector@W4ZydisRegister_@@V?$allocator@W4ZydisRegister_@@@std@@@std@@QEAAAEAW4ZydisRegister_@@_K@Z ; std::vector<enum ZydisRegister_,std::allocator<enum ZydisRegister_> >::operator[]
PUBLIC	?_Calculate_growth@?$vector@W4ZydisRegister_@@V?$allocator@W4ZydisRegister_@@@std@@@std@@AEBA_K_K@Z ; std::vector<enum ZydisRegister_,std::allocator<enum ZydisRegister_> >::_Calculate_growth
PUBLIC	?_Buy_raw@?$vector@W4ZydisRegister_@@V?$allocator@W4ZydisRegister_@@@std@@@std@@AEAAX_K@Z ; std::vector<enum ZydisRegister_,std::allocator<enum ZydisRegister_> >::_Buy_raw
PUBLIC	?_Buy_nonzero@?$vector@W4ZydisRegister_@@V?$allocator@W4ZydisRegister_@@@std@@@std@@AEAAX_K@Z ; std::vector<enum ZydisRegister_,std::allocator<enum ZydisRegister_> >::_Buy_nonzero
PUBLIC	?_Change_array@?$vector@W4ZydisRegister_@@V?$allocator@W4ZydisRegister_@@@std@@@std@@AEAAXQEAW4ZydisRegister_@@_K1@Z ; std::vector<enum ZydisRegister_,std::allocator<enum ZydisRegister_> >::_Change_array
PUBLIC	?_Tidy@?$vector@W4ZydisRegister_@@V?$allocator@W4ZydisRegister_@@@std@@@std@@AEAAXXZ ; std::vector<enum ZydisRegister_,std::allocator<enum ZydisRegister_> >::_Tidy
PUBLIC	?_Xlength@?$vector@W4ZydisRegister_@@V?$allocator@W4ZydisRegister_@@@std@@@std@@CAXXZ ; std::vector<enum ZydisRegister_,std::allocator<enum ZydisRegister_> >::_Xlength
PUBLIC	?_Orphan_range@?$vector@W4ZydisRegister_@@V?$allocator@W4ZydisRegister_@@@std@@@std@@AEBAXPEAW4ZydisRegister_@@0@Z ; std::vector<enum ZydisRegister_,std::allocator<enum ZydisRegister_> >::_Orphan_range
PUBLIC	?_Getal@?$vector@W4ZydisRegister_@@V?$allocator@W4ZydisRegister_@@@std@@@std@@AEAAAEAV?$allocator@W4ZydisRegister_@@@2@XZ ; std::vector<enum ZydisRegister_,std::allocator<enum ZydisRegister_> >::_Getal
PUBLIC	?_Getal@?$vector@W4ZydisRegister_@@V?$allocator@W4ZydisRegister_@@@std@@@std@@AEBAAEBV?$allocator@W4ZydisRegister_@@@2@XZ ; std::vector<enum ZydisRegister_,std::allocator<enum ZydisRegister_> >::_Getal
PUBLIC	??0?$_Vector_val@U?$_Simple_types@W4ZydisRegister_@@@std@@@std@@QEAA@XZ ; std::_Vector_val<std::_Simple_types<enum ZydisRegister_> >::_Vector_val<std::_Simple_types<enum ZydisRegister_> >
PUBLIC	??0?$_Vector_val@U?$_Simple_types@W4ZydisRegister_@@@std@@@std@@QEAA@PEAW4ZydisRegister_@@00@Z ; std::_Vector_val<std::_Simple_types<enum ZydisRegister_> >::_Vector_val<std::_Simple_types<enum ZydisRegister_> >
PUBLIC	?_Get_first@?$_Compressed_pair@V?$allocator@W4ZydisRegister_@@@std@@V?$_Vector_val@U?$_Simple_types@W4ZydisRegister_@@@std@@@2@$00@std@@QEAAAEAV?$allocator@W4ZydisRegister_@@@2@XZ ; std::_Compressed_pair<std::allocator<enum ZydisRegister_>,std::_Vector_val<std::_Simple_types<enum ZydisRegister_> >,1>::_Get_first
PUBLIC	?_Get_first@?$_Compressed_pair@V?$allocator@W4ZydisRegister_@@@std@@V?$_Vector_val@U?$_Simple_types@W4ZydisRegister_@@@std@@@2@$00@std@@QEBAAEBV?$allocator@W4ZydisRegister_@@@2@XZ ; std::_Compressed_pair<std::allocator<enum ZydisRegister_>,std::_Vector_val<std::_Simple_types<enum ZydisRegister_> >,1>::_Get_first
PUBLIC	??0DecryptInfo@DecryptAnalysis@Analysis@IronMan@@QEAA@_K00@Z ; IronMan::Analysis::DecryptAnalysis::DecryptInfo::DecryptInfo
PUBLIC	??0DecryptInfo@DecryptAnalysis@Analysis@IronMan@@QEAA@XZ ; IronMan::Analysis::DecryptAnalysis::DecryptInfo::DecryptInfo
PUBLIC	??1DecryptInfo@DecryptAnalysis@Analysis@IronMan@@QEAA@XZ ; IronMan::Analysis::DecryptAnalysis::DecryptInfo::~DecryptInfo
PUBLIC	??0DecryptInfo@DecryptAnalysis@Analysis@IronMan@@QEAA@AEBU0123@@Z ; IronMan::Analysis::DecryptAnalysis::DecryptInfo::DecryptInfo
PUBLIC	??0DecryptInfo@DecryptAnalysis@Analysis@IronMan@@QEAA@$$QEAU0123@@Z ; IronMan::Analysis::DecryptAnalysis::DecryptInfo::DecryptInfo
PUBLIC	??_GDecryptInfo@DecryptAnalysis@Analysis@IronMan@@QEAAPEAXI@Z ; IronMan::Analysis::DecryptAnalysis::DecryptInfo::`scalar deleting destructor'
PUBLIC	?Analyse@DecryptAnalysis@Analysis@IronMan@@UEAA_NXZ ; IronMan::Analysis::DecryptAnalysis::Analyse
PUBLIC	?Build@DecryptAnalysis@Analysis@IronMan@@UEAA_NV?$function@$$A6AXPEAX@Z@std@@@Z ; IronMan::Analysis::DecryptAnalysis::Build
PUBLIC	?GetEntryPoint@DecryptAnalysis@Analysis@IronMan@@UEBA?B_KXZ ; IronMan::Analysis::DecryptAnalysis::GetEntryPoint
PUBLIC	?MOV@DecryptAnalysis@Analysis@IronMan@@AEAAXAEBUInstructionInfo@123@AEBV?$vector@UX86Mem@asmjit@@V?$allocator@UX86Mem@asmjit@@@std@@@std@@PEAUX86Assembler@asmjit@@_N@Z ; IronMan::Analysis::DecryptAnalysis::MOV
PUBLIC	?scanDecryptions@DecryptAnalysis@Analysis@IronMan@@AEAAXXZ ; IronMan::Analysis::DecryptAnalysis::scanDecryptions
PUBLIC	?analyseDecrypttions@DecryptAnalysis@Analysis@IronMan@@AEAAXXZ ; IronMan::Analysis::DecryptAnalysis::analyseDecrypttions
PUBLIC	??0DecryptAnalysis@Analysis@IronMan@@QEAA@_K@Z	; IronMan::Analysis::DecryptAnalysis::DecryptAnalysis
PUBLIC	??1DecryptAnalysis@Analysis@IronMan@@UEAA@XZ	; IronMan::Analysis::DecryptAnalysis::~DecryptAnalysis
PUBLIC	??0?$allocator@UDecryptInfo@DecryptAnalysis@Analysis@IronMan@@@std@@QEAA@XZ ; std::allocator<IronMan::Analysis::DecryptAnalysis::DecryptInfo>::allocator<IronMan::Analysis::DecryptAnalysis::DecryptInfo>
PUBLIC	?deallocate@?$allocator@UDecryptInfo@DecryptAnalysis@Analysis@IronMan@@@std@@QEAAXQEAUDecryptInfo@DecryptAnalysis@Analysis@IronMan@@_K@Z ; std::allocator<IronMan::Analysis::DecryptAnalysis::DecryptInfo>::deallocate
PUBLIC	?allocate@?$allocator@UDecryptInfo@DecryptAnalysis@Analysis@IronMan@@@std@@QEAAPEAUDecryptInfo@DecryptAnalysis@Analysis@IronMan@@_K@Z ; std::allocator<IronMan::Analysis::DecryptAnalysis::DecryptInfo>::allocate
PUBLIC	?max_size@?$_Default_allocator_traits@V?$allocator@UDecryptInfo@DecryptAnalysis@Analysis@IronMan@@@std@@@std@@SA_KAEBV?$allocator@UDecryptInfo@DecryptAnalysis@Analysis@IronMan@@@2@@Z ; std::_Default_allocator_traits<std::allocator<IronMan::Analysis::DecryptAnalysis::DecryptInfo> >::max_size
PUBLIC	??0?$vector@UDecryptInfo@DecryptAnalysis@Analysis@IronMan@@V?$allocator@UDecryptInfo@DecryptAnalysis@Analysis@IronMan@@@std@@@std@@QEAA@XZ ; std::vector<IronMan::Analysis::DecryptAnalysis::DecryptInfo,std::allocator<IronMan::Analysis::DecryptAnalysis::DecryptInfo> >::vector<IronMan::Analysis::DecryptAnalysis::DecryptInfo,std::allocator<IronMan::Analysis::DecryptAnalysis::DecryptInfo> >
PUBLIC	??1?$vector@UDecryptInfo@DecryptAnalysis@Analysis@IronMan@@V?$allocator@UDecryptInfo@DecryptAnalysis@Analysis@IronMan@@@std@@@std@@QEAA@XZ ; std::vector<IronMan::Analysis::DecryptAnalysis::DecryptInfo,std::allocator<IronMan::Analysis::DecryptAnalysis::DecryptInfo> >::~vector<IronMan::Analysis::DecryptAnalysis::DecryptInfo,std::allocator<IronMan::Analysis::DecryptAnalysis::DecryptInfo> >
PUBLIC	?push_back@?$vector@UDecryptInfo@DecryptAnalysis@Analysis@IronMan@@V?$allocator@UDecryptInfo@DecryptAnalysis@Analysis@IronMan@@@std@@@std@@QEAAXAEBUDecryptInfo@DecryptAnalysis@Analysis@IronMan@@@Z ; std::vector<IronMan::Analysis::DecryptAnalysis::DecryptInfo,std::allocator<IronMan::Analysis::DecryptAnalysis::DecryptInfo> >::push_back
PUBLIC	?_Unchecked_begin@?$vector@UDecryptInfo@DecryptAnalysis@Analysis@IronMan@@V?$allocator@UDecryptInfo@DecryptAnalysis@Analysis@IronMan@@@std@@@std@@QEAAPEAUDecryptInfo@DecryptAnalysis@Analysis@IronMan@@XZ ; std::vector<IronMan::Analysis::DecryptAnalysis::DecryptInfo,std::allocator<IronMan::Analysis::DecryptAnalysis::DecryptInfo> >::_Unchecked_begin
PUBLIC	?_Unchecked_end@?$vector@UDecryptInfo@DecryptAnalysis@Analysis@IronMan@@V?$allocator@UDecryptInfo@DecryptAnalysis@Analysis@IronMan@@@std@@@std@@QEAAPEAUDecryptInfo@DecryptAnalysis@Analysis@IronMan@@XZ ; std::vector<IronMan::Analysis::DecryptAnalysis::DecryptInfo,std::allocator<IronMan::Analysis::DecryptAnalysis::DecryptInfo> >::_Unchecked_end
PUBLIC	?empty@?$vector@UDecryptInfo@DecryptAnalysis@Analysis@IronMan@@V?$allocator@UDecryptInfo@DecryptAnalysis@Analysis@IronMan@@@std@@@std@@QEBA_NXZ ; std::vector<IronMan::Analysis::DecryptAnalysis::DecryptInfo,std::allocator<IronMan::Analysis::DecryptAnalysis::DecryptInfo> >::empty
PUBLIC	?max_size@?$vector@UDecryptInfo@DecryptAnalysis@Analysis@IronMan@@V?$allocator@UDecryptInfo@DecryptAnalysis@Analysis@IronMan@@@std@@@std@@QEBA_KXZ ; std::vector<IronMan::Analysis::DecryptAnalysis::DecryptInfo,std::allocator<IronMan::Analysis::DecryptAnalysis::DecryptInfo> >::max_size
PUBLIC	?capacity@?$vector@UDecryptInfo@DecryptAnalysis@Analysis@IronMan@@V?$allocator@UDecryptInfo@DecryptAnalysis@Analysis@IronMan@@@std@@@std@@QEBA_KXZ ; std::vector<IronMan::Analysis::DecryptAnalysis::DecryptInfo,std::allocator<IronMan::Analysis::DecryptAnalysis::DecryptInfo> >::capacity
PUBLIC	?_Calculate_growth@?$vector@UDecryptInfo@DecryptAnalysis@Analysis@IronMan@@V?$allocator@UDecryptInfo@DecryptAnalysis@Analysis@IronMan@@@std@@@std@@AEBA_K_K@Z ; std::vector<IronMan::Analysis::DecryptAnalysis::DecryptInfo,std::allocator<IronMan::Analysis::DecryptAnalysis::DecryptInfo> >::_Calculate_growth
PUBLIC	?_Change_array@?$vector@UDecryptInfo@DecryptAnalysis@Analysis@IronMan@@V?$allocator@UDecryptInfo@DecryptAnalysis@Analysis@IronMan@@@std@@@std@@AEAAXQEAUDecryptInfo@DecryptAnalysis@Analysis@IronMan@@_K1@Z ; std::vector<IronMan::Analysis::DecryptAnalysis::DecryptInfo,std::allocator<IronMan::Analysis::DecryptAnalysis::DecryptInfo> >::_Change_array
PUBLIC	?_Tidy@?$vector@UDecryptInfo@DecryptAnalysis@Analysis@IronMan@@V?$allocator@UDecryptInfo@DecryptAnalysis@Analysis@IronMan@@@std@@@std@@AEAAXXZ ; std::vector<IronMan::Analysis::DecryptAnalysis::DecryptInfo,std::allocator<IronMan::Analysis::DecryptAnalysis::DecryptInfo> >::_Tidy
PUBLIC	?_Xlength@?$vector@UDecryptInfo@DecryptAnalysis@Analysis@IronMan@@V?$allocator@UDecryptInfo@DecryptAnalysis@Analysis@IronMan@@@std@@@std@@CAXXZ ; std::vector<IronMan::Analysis::DecryptAnalysis::DecryptInfo,std::allocator<IronMan::Analysis::DecryptAnalysis::DecryptInfo> >::_Xlength
PUBLIC	?_Orphan_range@?$vector@UDecryptInfo@DecryptAnalysis@Analysis@IronMan@@V?$allocator@UDecryptInfo@DecryptAnalysis@Analysis@IronMan@@@std@@@std@@AEBAXPEAUDecryptInfo@DecryptAnalysis@Analysis@IronMan@@0@Z ; std::vector<IronMan::Analysis::DecryptAnalysis::DecryptInfo,std::allocator<IronMan::Analysis::DecryptAnalysis::DecryptInfo> >::_Orphan_range
PUBLIC	?_Getal@?$vector@UDecryptInfo@DecryptAnalysis@Analysis@IronMan@@V?$allocator@UDecryptInfo@DecryptAnalysis@Analysis@IronMan@@@std@@@std@@AEAAAEAV?$allocator@UDecryptInfo@DecryptAnalysis@Analysis@IronMan@@@2@XZ ; std::vector<IronMan::Analysis::DecryptAnalysis::DecryptInfo,std::allocator<IronMan::Analysis::DecryptAnalysis::DecryptInfo> >::_Getal
PUBLIC	?_Getal@?$vector@UDecryptInfo@DecryptAnalysis@Analysis@IronMan@@V?$allocator@UDecryptInfo@DecryptAnalysis@Analysis@IronMan@@@std@@@std@@AEBAAEBV?$allocator@UDecryptInfo@DecryptAnalysis@Analysis@IronMan@@@2@XZ ; std::vector<IronMan::Analysis::DecryptAnalysis::DecryptInfo,std::allocator<IronMan::Analysis::DecryptAnalysis::DecryptInfo> >::_Getal
PUBLIC	??0?$_Vector_val@U?$_Simple_types@UDecryptInfo@DecryptAnalysis@Analysis@IronMan@@@std@@@std@@QEAA@XZ ; std::_Vector_val<std::_Simple_types<IronMan::Analysis::DecryptAnalysis::DecryptInfo> >::_Vector_val<std::_Simple_types<IronMan::Analysis::DecryptAnalysis::DecryptInfo> >
PUBLIC	?_Get_first@?$_Compressed_pair@V?$allocator@UDecryptInfo@DecryptAnalysis@Analysis@IronMan@@@std@@V?$_Vector_val@U?$_Simple_types@UDecryptInfo@DecryptAnalysis@Analysis@IronMan@@@std@@@2@$00@std@@QEAAAEAV?$allocator@UDecryptInfo@DecryptAnalysis@Analysis@IronMan@@@2@XZ ; std::_Compressed_pair<std::allocator<IronMan::Analysis::DecryptAnalysis::DecryptInfo>,std::_Vector_val<std::_Simple_types<IronMan::Analysis::DecryptAnalysis::DecryptInfo> >,1>::_Get_first
PUBLIC	?_Get_first@?$_Compressed_pair@V?$allocator@UDecryptInfo@DecryptAnalysis@Analysis@IronMan@@@std@@V?$_Vector_val@U?$_Simple_types@UDecryptInfo@DecryptAnalysis@Analysis@IronMan@@@std@@@2@$00@std@@QEBAAEBV?$allocator@UDecryptInfo@DecryptAnalysis@Analysis@IronMan@@@2@XZ ; std::_Compressed_pair<std::allocator<IronMan::Analysis::DecryptAnalysis::DecryptInfo>,std::_Vector_val<std::_Simple_types<IronMan::Analysis::DecryptAnalysis::DecryptInfo> >,1>::_Get_first
PUBLIC	??_GDecryptAnalysis@Analysis@IronMan@@UEAAPEAXI@Z ; IronMan::Analysis::DecryptAnalysis::`scalar deleting destructor'
PUBLIC	?now@system_clock@chrono@std@@SA?AV?$time_point@Usystem_clock@chrono@std@@V?$duration@_JU?$ratio@$00$0JIJGIA@@std@@@23@@23@XZ ; std::chrono::system_clock::now
PUBLIC	??0?$time_point@Usystem_clock@chrono@std@@V?$duration@_JU?$ratio@$00$0JIJGIA@@std@@@23@@chrono@std@@QEAA@AEBV?$duration@_JU?$ratio@$00$0JIJGIA@@std@@@12@@Z ; std::chrono::time_point<std::chrono::system_clock,std::chrono::duration<__int64,std::ratio<1,10000000> > >::time_point<std::chrono::system_clock,std::chrono::duration<__int64,std::ratio<1,10000000> > >
PUBLIC	??$?0_J$0A@@?$duration@_JU?$ratio@$00$0JIJGIA@@std@@@chrono@std@@QEAA@AEB_J@Z ; std::chrono::duration<__int64,std::ratio<1,10000000> >::duration<__int64,std::ratio<1,10000000> ><__int64,0>
PUBLIC	??1BaseProcessInfo@IronMan@@QEAA@XZ		; IronMan::BaseProcessInfo::~BaseProcessInfo
PUBLIC	?_Decref@?$_Ptr_base@V?$unordered_map@PEAXV?$vector@UScatterStruct@IronMan@@V?$allocator@UScatterStruct@IronMan@@@std@@@std@@U?$hash@PEAX@2@U?$equal_to@PEAX@2@V?$allocator@U?$pair@QEAXV?$vector@UScatterStruct@IronMan@@V?$allocator@UScatterStruct@IronMan@@@std@@@std@@@std@@@2@@std@@@std@@IEAAXXZ ; std::_Ptr_base<std::unordered_map<void *,std::vector<IronMan::ScatterStruct,std::allocator<IronMan::ScatterStruct> >,std::hash<void *>,std::equal_to<void *>,std::allocator<std::pair<void * const,std::vector<IronMan::ScatterStruct,std::allocator<IronMan::ScatterStruct> > > > > >::_Decref
PUBLIC	??1?$shared_ptr@V?$unordered_map@PEAXV?$vector@UScatterStruct@IronMan@@V?$allocator@UScatterStruct@IronMan@@@std@@@std@@U?$hash@PEAX@2@U?$equal_to@PEAX@2@V?$allocator@U?$pair@QEAXV?$vector@UScatterStruct@IronMan@@V?$allocator@UScatterStruct@IronMan@@@std@@@std@@@std@@@2@@std@@@std@@QEAA@XZ ; std::shared_ptr<std::unordered_map<void *,std::vector<IronMan::ScatterStruct,std::allocator<IronMan::ScatterStruct> >,std::hash<void *>,std::equal_to<void *>,std::allocator<std::pair<void * const,std::vector<IronMan::ScatterStruct,std::allocator<IronMan::ScatterStruct> > > > > >::~shared_ptr<std::unordered_map<void *,std::vector<IronMan::ScatterStruct,std::allocator<IronMan::ScatterStruct> >,std::hash<void *>,std::equal_to<void *>,std::allocator<std::pair<void * const,std::vector<IronMan::ScatterStruct,std::allocator<IronMan::ScatterStruct> > > > > >
PUBLIC	?GetDMA@IronMan@@YAAEAVDMAHandler@1@XZ		; IronMan::GetDMA
PUBLIC	??$?9$$A6AXPEAX@Z@std@@YA_NAEBV?$function@$$A6AXPEAX@Z@0@$$T@Z ; std::operator!=<void __cdecl(void *)>
PUBLIC	??0?$allocator@UX86Mem@asmjit@@@std@@QEAA@XZ	; std::allocator<asmjit::X86Mem>::allocator<asmjit::X86Mem>
PUBLIC	?deallocate@?$allocator@UX86Mem@asmjit@@@std@@QEAAXQEAUX86Mem@asmjit@@_K@Z ; std::allocator<asmjit::X86Mem>::deallocate
PUBLIC	?allocate@?$allocator@UX86Mem@asmjit@@@std@@QEAAPEAUX86Mem@asmjit@@_K@Z ; std::allocator<asmjit::X86Mem>::allocate
PUBLIC	?max_size@?$_Default_allocator_traits@V?$allocator@UX86Mem@asmjit@@@std@@@std@@SA_KAEBV?$allocator@UX86Mem@asmjit@@@2@@Z ; std::_Default_allocator_traits<std::allocator<asmjit::X86Mem> >::max_size
PUBLIC	??0?$vector@UX86Mem@asmjit@@V?$allocator@UX86Mem@asmjit@@@std@@@std@@QEAA@XZ ; std::vector<asmjit::X86Mem,std::allocator<asmjit::X86Mem> >::vector<asmjit::X86Mem,std::allocator<asmjit::X86Mem> >
PUBLIC	??1?$vector@UX86Mem@asmjit@@V?$allocator@UX86Mem@asmjit@@@std@@@std@@QEAA@XZ ; std::vector<asmjit::X86Mem,std::allocator<asmjit::X86Mem> >::~vector<asmjit::X86Mem,std::allocator<asmjit::X86Mem> >
PUBLIC	?push_back@?$vector@UX86Mem@asmjit@@V?$allocator@UX86Mem@asmjit@@@std@@@std@@QEAAXAEBUX86Mem@asmjit@@@Z ; std::vector<asmjit::X86Mem,std::allocator<asmjit::X86Mem> >::push_back
PUBLIC	?max_size@?$vector@UX86Mem@asmjit@@V?$allocator@UX86Mem@asmjit@@@std@@@std@@QEBA_KXZ ; std::vector<asmjit::X86Mem,std::allocator<asmjit::X86Mem> >::max_size
PUBLIC	?capacity@?$vector@UX86Mem@asmjit@@V?$allocator@UX86Mem@asmjit@@@std@@@std@@QEBA_KXZ ; std::vector<asmjit::X86Mem,std::allocator<asmjit::X86Mem> >::capacity
PUBLIC	??A?$vector@UX86Mem@asmjit@@V?$allocator@UX86Mem@asmjit@@@std@@@std@@QEAAAEAUX86Mem@asmjit@@_K@Z ; std::vector<asmjit::X86Mem,std::allocator<asmjit::X86Mem> >::operator[]
PUBLIC	??A?$vector@UX86Mem@asmjit@@V?$allocator@UX86Mem@asmjit@@@std@@@std@@QEBAAEBUX86Mem@asmjit@@_K@Z ; std::vector<asmjit::X86Mem,std::allocator<asmjit::X86Mem> >::operator[]
PUBLIC	?_Calculate_growth@?$vector@UX86Mem@asmjit@@V?$allocator@UX86Mem@asmjit@@@std@@@std@@AEBA_K_K@Z ; std::vector<asmjit::X86Mem,std::allocator<asmjit::X86Mem> >::_Calculate_growth
PUBLIC	?_Change_array@?$vector@UX86Mem@asmjit@@V?$allocator@UX86Mem@asmjit@@@std@@@std@@AEAAXQEAUX86Mem@asmjit@@_K1@Z ; std::vector<asmjit::X86Mem,std::allocator<asmjit::X86Mem> >::_Change_array
PUBLIC	?_Tidy@?$vector@UX86Mem@asmjit@@V?$allocator@UX86Mem@asmjit@@@std@@@std@@AEAAXXZ ; std::vector<asmjit::X86Mem,std::allocator<asmjit::X86Mem> >::_Tidy
PUBLIC	?_Xlength@?$vector@UX86Mem@asmjit@@V?$allocator@UX86Mem@asmjit@@@std@@@std@@CAXXZ ; std::vector<asmjit::X86Mem,std::allocator<asmjit::X86Mem> >::_Xlength
PUBLIC	?_Orphan_range@?$vector@UX86Mem@asmjit@@V?$allocator@UX86Mem@asmjit@@@std@@@std@@AEBAXPEAUX86Mem@asmjit@@0@Z ; std::vector<asmjit::X86Mem,std::allocator<asmjit::X86Mem> >::_Orphan_range
PUBLIC	?_Getal@?$vector@UX86Mem@asmjit@@V?$allocator@UX86Mem@asmjit@@@std@@@std@@AEAAAEAV?$allocator@UX86Mem@asmjit@@@2@XZ ; std::vector<asmjit::X86Mem,std::allocator<asmjit::X86Mem> >::_Getal
PUBLIC	?_Getal@?$vector@UX86Mem@asmjit@@V?$allocator@UX86Mem@asmjit@@@std@@@std@@AEBAAEBV?$allocator@UX86Mem@asmjit@@@2@XZ ; std::vector<asmjit::X86Mem,std::allocator<asmjit::X86Mem> >::_Getal
PUBLIC	??0?$_Vector_val@U?$_Simple_types@UX86Mem@asmjit@@@std@@@std@@QEAA@XZ ; std::_Vector_val<std::_Simple_types<asmjit::X86Mem> >::_Vector_val<std::_Simple_types<asmjit::X86Mem> >
PUBLIC	?_Get_first@?$_Compressed_pair@V?$allocator@UX86Mem@asmjit@@@std@@V?$_Vector_val@U?$_Simple_types@UX86Mem@asmjit@@@std@@@2@$00@std@@QEAAAEAV?$allocator@UX86Mem@asmjit@@@2@XZ ; std::_Compressed_pair<std::allocator<asmjit::X86Mem>,std::_Vector_val<std::_Simple_types<asmjit::X86Mem> >,1>::_Get_first
PUBLIC	?_Get_first@?$_Compressed_pair@V?$allocator@UX86Mem@asmjit@@@std@@V?$_Vector_val@U?$_Simple_types@UX86Mem@asmjit@@@std@@@2@$00@std@@QEBAAEBV?$allocator@UX86Mem@asmjit@@@2@XZ ; std::_Compressed_pair<std::allocator<asmjit::X86Mem>,std::_Vector_val<std::_Simple_types<asmjit::X86Mem> >,1>::_Get_first
PUBLIC	??$Read@_K@DMAHandler@IronMan@@QEAA_K_K@Z	; IronMan::DMAHandler::Read<unsigned __int64>
PUBLIC	??0?$_Vector_const_iterator@V?$_Vector_val@U?$_Simple_types@W4ZydisRegister_@@@std@@@std@@@std@@QEAA@PEAW4ZydisRegister_@@PEBU_Container_base0@1@@Z ; std::_Vector_const_iterator<std::_Vector_val<std::_Simple_types<enum ZydisRegister_> > >::_Vector_const_iterator<std::_Vector_val<std::_Simple_types<enum ZydisRegister_> > >
PUBLIC	??8?$_Vector_const_iterator@V?$_Vector_val@U?$_Simple_types@W4ZydisRegister_@@@std@@@std@@@std@@QEBA_NAEBV01@@Z ; std::_Vector_const_iterator<std::_Vector_val<std::_Simple_types<enum ZydisRegister_> > >::operator==
PUBLIC	?_Compat@?$_Vector_const_iterator@V?$_Vector_val@U?$_Simple_types@W4ZydisRegister_@@@std@@@std@@@std@@QEBAXAEBV12@@Z ; std::_Vector_const_iterator<std::_Vector_val<std::_Simple_types<enum ZydisRegister_> > >::_Compat
PUBLIC	?_Seek_to@?$_Vector_const_iterator@V?$_Vector_val@U?$_Simple_types@W4ZydisRegister_@@@std@@@std@@@std@@QEAAXPEBW4ZydisRegister_@@@Z ; std::_Vector_const_iterator<std::_Vector_val<std::_Simple_types<enum ZydisRegister_> > >::_Seek_to
PUBLIC	?_Unwrapped@?$_Vector_iterator@V?$_Vector_val@U?$_Simple_types@W4ZydisRegister_@@@std@@@std@@@std@@QEBAPEAW4ZydisRegister_@@XZ ; std::_Vector_iterator<std::_Vector_val<std::_Simple_types<enum ZydisRegister_> > >::_Unwrapped
PUBLIC	??0?$_Vector_iterator@V?$_Vector_val@U?$_Simple_types@W4ZydisRegister_@@@std@@@std@@@std@@QEAA@PEAW4ZydisRegister_@@PEBU_Container_base0@1@@Z ; std::_Vector_iterator<std::_Vector_val<std::_Simple_types<enum ZydisRegister_> > >::_Vector_iterator<std::_Vector_val<std::_Simple_types<enum ZydisRegister_> > >
PUBLIC	??$find@V?$_Vector_iterator@V?$_Vector_val@U?$_Simple_types@W4ZydisRegister_@@@std@@@std@@@std@@W4ZydisRegister_@@@std@@YA?AV?$_Vector_iterator@V?$_Vector_val@U?$_Simple_types@W4ZydisRegister_@@@std@@@std@@@0@V10@V10@AEBW4ZydisRegister_@@@Z ; std::find<std::_Vector_iterator<std::_Vector_val<std::_Simple_types<enum ZydisRegister_> > >,enum ZydisRegister_>
PUBLIC	??$move@AEAV?$unique_ptr@VIAsmHelper@IronMan@@U?$default_delete@VIAsmHelper@IronMan@@@std@@@std@@@std@@YA$$QEAV?$unique_ptr@VIAsmHelper@IronMan@@U?$default_delete@VIAsmHelper@IronMan@@@std@@@0@AEAV10@@Z ; std::move<std::unique_ptr<IronMan::IAsmHelper,std::default_delete<IronMan::IAsmHelper> > &>
PUBLIC	??0?$_Func_class@_KW4ZydisRegister_@@@std@@QEAA@XZ ; std::_Func_class<unsigned __int64,enum ZydisRegister_>::_Func_class<unsigned __int64,enum ZydisRegister_>
PUBLIC	??1?$_Func_class@_KW4ZydisRegister_@@@std@@QEAA@XZ ; std::_Func_class<unsigned __int64,enum ZydisRegister_>::~_Func_class<unsigned __int64,enum ZydisRegister_>
PUBLIC	?_Empty@?$_Func_class@_KW4ZydisRegister_@@@std@@IEBA_NXZ ; std::_Func_class<unsigned __int64,enum ZydisRegister_>::_Empty
PUBLIC	?_Tidy@?$_Func_class@_KW4ZydisRegister_@@@std@@IEAAXXZ ; std::_Func_class<unsigned __int64,enum ZydisRegister_>::_Tidy
PUBLIC	?_Local@?$_Func_class@_KW4ZydisRegister_@@@std@@AEBA_NXZ ; std::_Func_class<unsigned __int64,enum ZydisRegister_>::_Local
PUBLIC	?_Getimpl@?$_Func_class@_KW4ZydisRegister_@@@std@@AEBAPEAV?$_Func_base@_KW4ZydisRegister_@@@2@XZ ; std::_Func_class<unsigned __int64,enum ZydisRegister_>::_Getimpl
PUBLIC	?_Set@?$_Func_class@_KW4ZydisRegister_@@@std@@AEAAXPEAV?$_Func_base@_KW4ZydisRegister_@@@2@@Z ; std::_Func_class<unsigned __int64,enum ZydisRegister_>::_Set
PUBLIC	??1?$function@$$A6A_KW4ZydisRegister_@@@Z@std@@QEAA@XZ ; std::function<unsigned __int64 __cdecl(enum ZydisRegister_)>::~function<unsigned __int64 __cdecl(enum ZydisRegister_)>
PUBLIC	??0?$_Vector_const_iterator@V?$_Vector_val@U?$_Simple_types@UVariableInfo@DecryptAnalysis@Analysis@IronMan@@@std@@@std@@@std@@QEAA@PEAUVariableInfo@DecryptAnalysis@Analysis@IronMan@@PEBU_Container_base0@1@@Z ; std::_Vector_const_iterator<std::_Vector_val<std::_Simple_types<IronMan::Analysis::DecryptAnalysis::VariableInfo> > >::_Vector_const_iterator<std::_Vector_val<std::_Simple_types<IronMan::Analysis::DecryptAnalysis::VariableInfo> > >
PUBLIC	??G?$_Vector_const_iterator@V?$_Vector_val@U?$_Simple_types@UVariableInfo@DecryptAnalysis@Analysis@IronMan@@@std@@@std@@@std@@QEBA_JAEBV01@@Z ; std::_Vector_const_iterator<std::_Vector_val<std::_Simple_types<IronMan::Analysis::DecryptAnalysis::VariableInfo> > >::operator-
PUBLIC	??8?$_Vector_const_iterator@V?$_Vector_val@U?$_Simple_types@UVariableInfo@DecryptAnalysis@Analysis@IronMan@@@std@@@std@@@std@@QEBA_NAEBV01@@Z ; std::_Vector_const_iterator<std::_Vector_val<std::_Simple_types<IronMan::Analysis::DecryptAnalysis::VariableInfo> > >::operator==
PUBLIC	?_Compat@?$_Vector_const_iterator@V?$_Vector_val@U?$_Simple_types@UVariableInfo@DecryptAnalysis@Analysis@IronMan@@@std@@@std@@@std@@QEBAXAEBV12@@Z ; std::_Vector_const_iterator<std::_Vector_val<std::_Simple_types<IronMan::Analysis::DecryptAnalysis::VariableInfo> > >::_Compat
PUBLIC	?_Seek_to@?$_Vector_const_iterator@V?$_Vector_val@U?$_Simple_types@UVariableInfo@DecryptAnalysis@Analysis@IronMan@@@std@@@std@@@std@@QEAAXPEBUVariableInfo@DecryptAnalysis@Analysis@IronMan@@@Z ; std::_Vector_const_iterator<std::_Vector_val<std::_Simple_types<IronMan::Analysis::DecryptAnalysis::VariableInfo> > >::_Seek_to
PUBLIC	??C?$_Vector_iterator@V?$_Vector_val@U?$_Simple_types@UVariableInfo@DecryptAnalysis@Analysis@IronMan@@@std@@@std@@@std@@QEBAPEAUVariableInfo@DecryptAnalysis@Analysis@IronMan@@XZ ; std::_Vector_iterator<std::_Vector_val<std::_Simple_types<IronMan::Analysis::DecryptAnalysis::VariableInfo> > >::operator->
PUBLIC	?_Unwrapped@?$_Vector_iterator@V?$_Vector_val@U?$_Simple_types@UVariableInfo@DecryptAnalysis@Analysis@IronMan@@@std@@@std@@@std@@QEBAPEAUVariableInfo@DecryptAnalysis@Analysis@IronMan@@XZ ; std::_Vector_iterator<std::_Vector_val<std::_Simple_types<IronMan::Analysis::DecryptAnalysis::VariableInfo> > >::_Unwrapped
PUBLIC	??0?$_Vector_iterator@V?$_Vector_val@U?$_Simple_types@UVariableInfo@DecryptAnalysis@Analysis@IronMan@@@std@@@std@@@std@@QEAA@PEAUVariableInfo@DecryptAnalysis@Analysis@IronMan@@PEBU_Container_base0@1@@Z ; std::_Vector_iterator<std::_Vector_val<std::_Simple_types<IronMan::Analysis::DecryptAnalysis::VariableInfo> > >::_Vector_iterator<std::_Vector_val<std::_Simple_types<IronMan::Analysis::DecryptAnalysis::VariableInfo> > >
PUBLIC	??$_Emplace_one_at_back@AEBUX86Mem@asmjit@@@?$vector@UX86Mem@asmjit@@V?$allocator@UX86Mem@asmjit@@@std@@@std@@AEAAAEAUX86Mem@asmjit@@AEBU23@@Z ; std::vector<asmjit::X86Mem,std::allocator<asmjit::X86Mem> >::_Emplace_one_at_back<asmjit::X86Mem const &>
PUBLIC	??$?0$$V@?$_Compressed_pair@V?$allocator@UX86Mem@asmjit@@@std@@V?$_Vector_val@U?$_Simple_types@UX86Mem@asmjit@@@std@@@2@$00@std@@QEAA@U_Zero_then_variadic_args_t@1@@Z ; std::_Compressed_pair<std::allocator<asmjit::X86Mem>,std::_Vector_val<std::_Simple_types<asmjit::X86Mem> >,1>::_Compressed_pair<std::allocator<asmjit::X86Mem>,std::_Vector_val<std::_Simple_types<asmjit::X86Mem> >,1><>
PUBLIC	??$_Unfancy_maybe_null@UDecryptInfo@DecryptAnalysis@Analysis@IronMan@@@std@@YAPEAUDecryptInfo@DecryptAnalysis@Analysis@IronMan@@PEAU1234@@Z ; std::_Unfancy_maybe_null<IronMan::Analysis::DecryptAnalysis::DecryptInfo>
PUBLIC	??$_Emplace_one_at_back@AEBUDecryptInfo@DecryptAnalysis@Analysis@IronMan@@@?$vector@UDecryptInfo@DecryptAnalysis@Analysis@IronMan@@V?$allocator@UDecryptInfo@DecryptAnalysis@Analysis@IronMan@@@std@@@std@@AEAAAEAUDecryptInfo@DecryptAnalysis@Analysis@IronMan@@AEBU2345@@Z ; std::vector<IronMan::Analysis::DecryptAnalysis::DecryptInfo,std::allocator<IronMan::Analysis::DecryptAnalysis::DecryptInfo> >::_Emplace_one_at_back<IronMan::Analysis::DecryptAnalysis::DecryptInfo const &>
PUBLIC	??$?0$$V@?$_Compressed_pair@V?$allocator@UDecryptInfo@DecryptAnalysis@Analysis@IronMan@@@std@@V?$_Vector_val@U?$_Simple_types@UDecryptInfo@DecryptAnalysis@Analysis@IronMan@@@std@@@2@$00@std@@QEAA@U_Zero_then_variadic_args_t@1@@Z ; std::_Compressed_pair<std::allocator<IronMan::Analysis::DecryptAnalysis::DecryptInfo>,std::_Vector_val<std::_Simple_types<IronMan::Analysis::DecryptAnalysis::DecryptInfo> >,1>::_Compressed_pair<std::allocator<IronMan::Analysis::DecryptAnalysis::DecryptInfo>,std::_Vector_val<std::_Simple_types<IronMan::Analysis::DecryptAnalysis::DecryptInfo> >,1><>
PUBLIC	??$addressof@V?$_Vector_val@U?$_Simple_types@W4ZydisRegister_@@@std@@@std@@@std@@YAPEAV?$_Vector_val@U?$_Simple_types@W4ZydisRegister_@@@std@@@0@AEAV10@@Z ; std::addressof<std::_Vector_val<std::_Simple_types<enum ZydisRegister_> > >
PUBLIC	??$move@AEAW4ZydisRegister_@@@std@@YA$$QEAW4ZydisRegister_@@AEAW41@@Z ; std::move<enum ZydisRegister_ &>
PUBLIC	??$_Emplace_one_at_back@W4ZydisRegister_@@@?$vector@W4ZydisRegister_@@V?$allocator@W4ZydisRegister_@@@std@@@std@@AEAAAEAW4ZydisRegister_@@$$QEAW42@@Z ; std::vector<enum ZydisRegister_,std::allocator<enum ZydisRegister_> >::_Emplace_one_at_back<enum ZydisRegister_>
PUBLIC	??$_Emplace_one_at_back@AEBW4ZydisRegister_@@@?$vector@W4ZydisRegister_@@V?$allocator@W4ZydisRegister_@@@std@@@std@@AEAAAEAW4ZydisRegister_@@AEBW42@@Z ; std::vector<enum ZydisRegister_,std::allocator<enum ZydisRegister_> >::_Emplace_one_at_back<enum ZydisRegister_ const &>
PUBLIC	??$?0$$V@?$_Compressed_pair@V?$allocator@W4ZydisRegister_@@@std@@V?$_Vector_val@U?$_Simple_types@W4ZydisRegister_@@@std@@@2@$00@std@@QEAA@U_Zero_then_variadic_args_t@1@@Z ; std::_Compressed_pair<std::allocator<enum ZydisRegister_>,std::_Vector_val<std::_Simple_types<enum ZydisRegister_> >,1>::_Compressed_pair<std::allocator<enum ZydisRegister_>,std::_Vector_val<std::_Simple_types<enum ZydisRegister_> >,1><>
PUBLIC	??$_Unfancy_maybe_null@UVariableInfo@DecryptAnalysis@Analysis@IronMan@@@std@@YAPEAUVariableInfo@DecryptAnalysis@Analysis@IronMan@@PEAU1234@@Z ; std::_Unfancy_maybe_null<IronMan::Analysis::DecryptAnalysis::VariableInfo>
PUBLIC	??$addressof@V?$_Vector_val@U?$_Simple_types@UVariableInfo@DecryptAnalysis@Analysis@IronMan@@@std@@@std@@@std@@YAPEAV?$_Vector_val@U?$_Simple_types@UVariableInfo@DecryptAnalysis@Analysis@IronMan@@@std@@@0@AEAV10@@Z ; std::addressof<std::_Vector_val<std::_Simple_types<IronMan::Analysis::DecryptAnalysis::VariableInfo> > >
PUBLIC	??$move@AEAUVariableInfo@DecryptAnalysis@Analysis@IronMan@@@std@@YA$$QEAUVariableInfo@DecryptAnalysis@Analysis@IronMan@@AEAU1234@@Z ; std::move<IronMan::Analysis::DecryptAnalysis::VariableInfo &>
PUBLIC	??$_Emplace_one_at_back@UVariableInfo@DecryptAnalysis@Analysis@IronMan@@@?$vector@UVariableInfo@DecryptAnalysis@Analysis@IronMan@@V?$allocator@UVariableInfo@DecryptAnalysis@Analysis@IronMan@@@std@@@std@@AEAAAEAUVariableInfo@DecryptAnalysis@Analysis@IronMan@@$$QEAU2345@@Z ; std::vector<IronMan::Analysis::DecryptAnalysis::VariableInfo,std::allocator<IronMan::Analysis::DecryptAnalysis::VariableInfo> >::_Emplace_one_at_back<IronMan::Analysis::DecryptAnalysis::VariableInfo>
PUBLIC	??$?0$$V@?$_Compressed_pair@V?$allocator@UVariableInfo@DecryptAnalysis@Analysis@IronMan@@@std@@V?$_Vector_val@U?$_Simple_types@UVariableInfo@DecryptAnalysis@Analysis@IronMan@@@std@@@2@$00@std@@QEAA@U_Zero_then_variadic_args_t@1@@Z ; std::_Compressed_pair<std::allocator<IronMan::Analysis::DecryptAnalysis::VariableInfo>,std::_Vector_val<std::_Simple_types<IronMan::Analysis::DecryptAnalysis::VariableInfo> >,1>::_Compressed_pair<std::allocator<IronMan::Analysis::DecryptAnalysis::VariableInfo>,std::_Vector_val<std::_Simple_types<IronMan::Analysis::DecryptAnalysis::VariableInfo> >,1><>
PUBLIC	??$move@AEAUInstructionInfo@DecryptAnalysis@Analysis@IronMan@@@std@@YA$$QEAUInstructionInfo@DecryptAnalysis@Analysis@IronMan@@AEAU1234@@Z ; std::move<IronMan::Analysis::DecryptAnalysis::InstructionInfo &>
PUBLIC	??$_Emplace_one_at_back@UInstructionInfo@DecryptAnalysis@Analysis@IronMan@@@?$vector@UInstructionInfo@DecryptAnalysis@Analysis@IronMan@@V?$allocator@UInstructionInfo@DecryptAnalysis@Analysis@IronMan@@@std@@@std@@AEAAAEAUInstructionInfo@DecryptAnalysis@Analysis@IronMan@@$$QEAU2345@@Z ; std::vector<IronMan::Analysis::DecryptAnalysis::InstructionInfo,std::allocator<IronMan::Analysis::DecryptAnalysis::InstructionInfo> >::_Emplace_one_at_back<IronMan::Analysis::DecryptAnalysis::InstructionInfo>
PUBLIC	??$?0$$V@?$_Compressed_pair@V?$allocator@UInstructionInfo@DecryptAnalysis@Analysis@IronMan@@@std@@V?$_Vector_val@U?$_Simple_types@UInstructionInfo@DecryptAnalysis@Analysis@IronMan@@@std@@@2@$00@std@@QEAA@U_Zero_then_variadic_args_t@1@@Z ; std::_Compressed_pair<std::allocator<IronMan::Analysis::DecryptAnalysis::InstructionInfo>,std::_Vector_val<std::_Simple_types<IronMan::Analysis::DecryptAnalysis::InstructionInfo> >,1>::_Compressed_pair<std::allocator<IronMan::Analysis::DecryptAnalysis::InstructionInfo>,std::_Vector_val<std::_Simple_types<IronMan::Analysis::DecryptAnalysis::InstructionInfo> >,1><>
PUBLIC	??$forward@PEAX@std@@YA$$QEAPEAXAEAPEAX@Z	; std::forward<void *>
PUBLIC	??$_Emplace_one_at_back@V?$unique_ptr@VIAsmHelper@IronMan@@U?$default_delete@VIAsmHelper@IronMan@@@std@@@std@@@?$vector@V?$unique_ptr@VIAsmHelper@IronMan@@U?$default_delete@VIAsmHelper@IronMan@@@std@@@std@@V?$allocator@V?$unique_ptr@VIAsmHelper@IronMan@@U?$default_delete@VIAsmHelper@IronMan@@@std@@@std@@@2@@std@@AEAAAEAV?$unique_ptr@VIAsmHelper@IronMan@@U?$default_delete@VIAsmHelper@IronMan@@@std@@@1@$$QEAV21@@Z ; std::vector<std::unique_ptr<IronMan::IAsmHelper,std::default_delete<IronMan::IAsmHelper> >,std::allocator<std::unique_ptr<IronMan::IAsmHelper,std::default_delete<IronMan::IAsmHelper> > > >::_Emplace_one_at_back<std::unique_ptr<IronMan::IAsmHelper,std::default_delete<IronMan::IAsmHelper> > >
PUBLIC	??$?0$$V@?$_Compressed_pair@V?$allocator@V?$unique_ptr@VIAsmHelper@IronMan@@U?$default_delete@VIAsmHelper@IronMan@@@std@@@std@@@std@@V?$_Vector_val@U?$_Simple_types@V?$unique_ptr@VIAsmHelper@IronMan@@U?$default_delete@VIAsmHelper@IronMan@@@std@@@std@@@std@@@2@$00@std@@QEAA@U_Zero_then_variadic_args_t@1@@Z ; std::_Compressed_pair<std::allocator<std::unique_ptr<IronMan::IAsmHelper,std::default_delete<IronMan::IAsmHelper> > >,std::_Vector_val<std::_Simple_types<std::unique_ptr<IronMan::IAsmHelper,std::default_delete<IronMan::IAsmHelper> > > >,1>::_Compressed_pair<std::allocator<std::unique_ptr<IronMan::IAsmHelper,std::default_delete<IronMan::IAsmHelper> > >,std::_Vector_val<std::_Simple_types<std::unique_ptr<IronMan::IAsmHelper,std::default_delete<IronMan::IAsmHelper> > > >,1><>
PUBLIC	??$_Unfancy@D@std@@YAPEADPEAD@Z			; std::_Unfancy<char>
PUBLIC	??$_Max_limit@_J@std@@YA_JXZ			; std::_Max_limit<__int64>
PUBLIC	??$?0$$V@?$_Compressed_pair@V?$allocator@D@std@@V?$_String_val@U?$_Simple_types@D@std@@@2@$00@std@@QEAA@U_Zero_then_variadic_args_t@1@@Z ; std::_Compressed_pair<std::allocator<char>,std::_String_val<std::_Simple_types<char> >,1>::_Compressed_pair<std::allocator<char>,std::_String_val<std::_Simple_types<char> >,1><>
PUBLIC	??0?$_Func_base@_KW4ZydisRegister_@@@std@@QEAA@XZ ; std::_Func_base<unsigned __int64,enum ZydisRegister_>::_Func_base<unsigned __int64,enum ZydisRegister_>
PUBLIC	??$_Destroy_range@V?$allocator@UX86Mem@asmjit@@@std@@@std@@YAXPEAUX86Mem@asmjit@@QEAU12@AEAV?$allocator@UX86Mem@asmjit@@@0@@Z ; std::_Destroy_range<std::allocator<asmjit::X86Mem> >
PUBLIC	??$_Destroy_range@V?$allocator@UDecryptInfo@DecryptAnalysis@Analysis@IronMan@@@std@@@std@@YAXPEAUDecryptInfo@DecryptAnalysis@Analysis@IronMan@@QEAU1234@AEAV?$allocator@UDecryptInfo@DecryptAnalysis@Analysis@IronMan@@@0@@Z ; std::_Destroy_range<std::allocator<IronMan::Analysis::DecryptAnalysis::DecryptInfo> >
PUBLIC	??$_Destroy_range@V?$allocator@W4ZydisRegister_@@@std@@@std@@YAXPEAW4ZydisRegister_@@QEAW41@AEAV?$allocator@W4ZydisRegister_@@@0@@Z ; std::_Destroy_range<std::allocator<enum ZydisRegister_> >
PUBLIC	??$_Destroy_range@V?$allocator@UVariableInfo@DecryptAnalysis@Analysis@IronMan@@@std@@@std@@YAXPEAUVariableInfo@DecryptAnalysis@Analysis@IronMan@@QEAU1234@AEAV?$allocator@UVariableInfo@DecryptAnalysis@Analysis@IronMan@@@0@@Z ; std::_Destroy_range<std::allocator<IronMan::Analysis::DecryptAnalysis::VariableInfo> >
PUBLIC	??$_Destroy_range@V?$allocator@UInstructionInfo@DecryptAnalysis@Analysis@IronMan@@@std@@@std@@YAXPEAUInstructionInfo@DecryptAnalysis@Analysis@IronMan@@QEAU1234@AEAV?$allocator@UInstructionInfo@DecryptAnalysis@Analysis@IronMan@@@0@@Z ; std::_Destroy_range<std::allocator<IronMan::Analysis::DecryptAnalysis::InstructionInfo> >
PUBLIC	??$_Destroy_range@V?$allocator@V?$unique_ptr@VIAsmHelper@IronMan@@U?$default_delete@VIAsmHelper@IronMan@@@std@@@std@@@std@@@std@@YAXPEAV?$unique_ptr@VIAsmHelper@IronMan@@U?$default_delete@VIAsmHelper@IronMan@@@std@@@0@QEAV10@AEAV?$allocator@V?$unique_ptr@VIAsmHelper@IronMan@@U?$default_delete@VIAsmHelper@IronMan@@@std@@@std@@@0@@Z ; std::_Destroy_range<std::allocator<std::unique_ptr<IronMan::IAsmHelper,std::default_delete<IronMan::IAsmHelper> > > >
PUBLIC	??$_Deallocate@$0BA@@std@@YAXPEAX_K@Z		; std::_Deallocate<16>
PUBLIC	??$_Allocate@$0BA@U_Default_allocate_traits@std@@@std@@YAPEAX_K@Z ; std::_Allocate<16,std::_Default_allocate_traits>
PUBLIC	??$_Destroy_in_place@PEAD@std@@YAXAEAPEAD@Z	; std::_Destroy_in_place<char *>
PUBLIC	??$_Get_size_of_n@$07@std@@YA_K_K@Z		; std::_Get_size_of_n<8>
PUBLIC	??$?0U?$default_delete@VAsmHelper64@IronMan@@@std@@$0A@@?$unique_ptr@VAsmHelper64@IronMan@@U?$default_delete@VAsmHelper64@IronMan@@@std@@@std@@QEAA@PEAVAsmHelper64@IronMan@@@Z ; std::unique_ptr<IronMan::AsmHelper64,std::default_delete<IronMan::AsmHelper64> >::unique_ptr<IronMan::AsmHelper64,std::default_delete<IronMan::AsmHelper64> ><std::default_delete<IronMan::AsmHelper64>,0>
PUBLIC	??$forward@U?$default_delete@VAsmHelper64@IronMan@@@std@@@std@@YA$$QEAU?$default_delete@VAsmHelper64@IronMan@@@0@AEAU10@@Z ; std::forward<std::default_delete<IronMan::AsmHelper64> >
PUBLIC	??$?0U?$default_delete@VAsmHelper64@IronMan@@@std@@PEAVAsmHelper64@IronMan@@@?$_Compressed_pair@U?$default_delete@VIAsmHelper@IronMan@@@std@@PEAVIAsmHelper@IronMan@@$00@std@@QEAA@U_One_then_variadic_args_t@1@$$QEAU?$default_delete@VAsmHelper64@IronMan@@@1@$$QEAPEAVAsmHelper64@IronMan@@@Z ; std::_Compressed_pair<std::default_delete<IronMan::IAsmHelper>,IronMan::IAsmHelper *,1>::_Compressed_pair<std::default_delete<IronMan::IAsmHelper>,IronMan::IAsmHelper *,1><std::default_delete<IronMan::AsmHelper64>,IronMan::AsmHelper64 *>
PUBLIC	??$_Adl_verify_range@V?$_Vector_iterator@V?$_Vector_val@U?$_Simple_types@W4ZydisRegister_@@@std@@@std@@@std@@V12@@std@@YAXAEBV?$_Vector_iterator@V?$_Vector_val@U?$_Simple_types@W4ZydisRegister_@@@std@@@std@@@0@0@Z ; std::_Adl_verify_range<std::_Vector_iterator<std::_Vector_val<std::_Simple_types<enum ZydisRegister_> > >,std::_Vector_iterator<std::_Vector_val<std::_Simple_types<enum ZydisRegister_> > > >
PUBLIC	??$_Get_unwrapped@AEAV?$_Vector_iterator@V?$_Vector_val@U?$_Simple_types@W4ZydisRegister_@@@std@@@std@@@std@@@std@@YA?A_TAEAV?$_Vector_iterator@V?$_Vector_val@U?$_Simple_types@W4ZydisRegister_@@@std@@@std@@@0@@Z ; std::_Get_unwrapped<std::_Vector_iterator<std::_Vector_val<std::_Simple_types<enum ZydisRegister_> > > &>
PUBLIC	??$_Get_unwrapped@AEBV?$_Vector_iterator@V?$_Vector_val@U?$_Simple_types@W4ZydisRegister_@@@std@@@std@@@std@@@std@@YA?A_TAEBV?$_Vector_iterator@V?$_Vector_val@U?$_Simple_types@W4ZydisRegister_@@@std@@@std@@@0@@Z ; std::_Get_unwrapped<std::_Vector_iterator<std::_Vector_val<std::_Simple_types<enum ZydisRegister_> > > const &>
PUBLIC	??$_Find_unchecked@PEAW4ZydisRegister_@@W41@@std@@YAPEAW4ZydisRegister_@@PEAW41@QEAW41@AEBW41@@Z ; std::_Find_unchecked<enum ZydisRegister_ *,enum ZydisRegister_>
PUBLIC	??$_Seek_wrapped@V?$_Vector_iterator@V?$_Vector_val@U?$_Simple_types@W4ZydisRegister_@@@std@@@std@@@std@@PEAW4ZydisRegister_@@@std@@YAXAEAV?$_Vector_iterator@V?$_Vector_val@U?$_Simple_types@W4ZydisRegister_@@@std@@@std@@@0@$$QEAPEAW4ZydisRegister_@@@Z ; std::_Seek_wrapped<std::_Vector_iterator<std::_Vector_val<std::_Simple_types<enum ZydisRegister_> > >,enum ZydisRegister_ *>
PUBLIC	??$_Adl_verify_range@V?$_Vector_iterator@V?$_Vector_val@U?$_Simple_types@UVariableInfo@DecryptAnalysis@Analysis@IronMan@@@std@@@std@@@std@@V12@@std@@YAXAEBV?$_Vector_iterator@V?$_Vector_val@U?$_Simple_types@UVariableInfo@DecryptAnalysis@Analysis@IronMan@@@std@@@std@@@0@0@Z ; std::_Adl_verify_range<std::_Vector_iterator<std::_Vector_val<std::_Simple_types<IronMan::Analysis::DecryptAnalysis::VariableInfo> > >,std::_Vector_iterator<std::_Vector_val<std::_Simple_types<IronMan::Analysis::DecryptAnalysis::VariableInfo> > > >
PUBLIC	??$_Get_unwrapped@AEAV?$_Vector_iterator@V?$_Vector_val@U?$_Simple_types@UVariableInfo@DecryptAnalysis@Analysis@IronMan@@@std@@@std@@@std@@@std@@YA?A_TAEAV?$_Vector_iterator@V?$_Vector_val@U?$_Simple_types@UVariableInfo@DecryptAnalysis@Analysis@IronMan@@@std@@@std@@@0@@Z ; std::_Get_unwrapped<std::_Vector_iterator<std::_Vector_val<std::_Simple_types<IronMan::Analysis::DecryptAnalysis::VariableInfo> > > &>
PUBLIC	??$_Get_unwrapped@AEBV?$_Vector_iterator@V?$_Vector_val@U?$_Simple_types@UVariableInfo@DecryptAnalysis@Analysis@IronMan@@@std@@@std@@@std@@@std@@YA?A_TAEBV?$_Vector_iterator@V?$_Vector_val@U?$_Simple_types@UVariableInfo@DecryptAnalysis@Analysis@IronMan@@@std@@@std@@@0@@Z ; std::_Get_unwrapped<std::_Vector_iterator<std::_Vector_val<std::_Simple_types<IronMan::Analysis::DecryptAnalysis::VariableInfo> > > const &>
PUBLIC	??$_Seek_wrapped@V?$_Vector_iterator@V?$_Vector_val@U?$_Simple_types@UVariableInfo@DecryptAnalysis@Analysis@IronMan@@@std@@@std@@@std@@AEAPEAUVariableInfo@DecryptAnalysis@Analysis@IronMan@@@std@@YAXAEAV?$_Vector_iterator@V?$_Vector_val@U?$_Simple_types@UVariableInfo@DecryptAnalysis@Analysis@IronMan@@@std@@@std@@@0@AEAPEAUVariableInfo@DecryptAnalysis@Analysis@IronMan@@@Z ; std::_Seek_wrapped<std::_Vector_iterator<std::_Vector_val<std::_Simple_types<IronMan::Analysis::DecryptAnalysis::VariableInfo> > >,IronMan::Analysis::DecryptAnalysis::VariableInfo * &>
PUBLIC	??$forward@AEBUX86Mem@asmjit@@@std@@YAAEBUX86Mem@asmjit@@AEBU12@@Z ; std::forward<asmjit::X86Mem const &>
PUBLIC	??$_Emplace_back_with_unused_capacity@AEBUX86Mem@asmjit@@@?$vector@UX86Mem@asmjit@@V?$allocator@UX86Mem@asmjit@@@std@@@std@@AEAAAEAUX86Mem@asmjit@@AEBU23@@Z ; std::vector<asmjit::X86Mem,std::allocator<asmjit::X86Mem> >::_Emplace_back_with_unused_capacity<asmjit::X86Mem const &>
PUBLIC	??$_Emplace_reallocate@AEBUX86Mem@asmjit@@@?$vector@UX86Mem@asmjit@@V?$allocator@UX86Mem@asmjit@@@std@@@std@@AEAAPEAUX86Mem@asmjit@@QEAU23@AEBU23@@Z ; std::vector<asmjit::X86Mem,std::allocator<asmjit::X86Mem> >::_Emplace_reallocate<asmjit::X86Mem const &>
PUBLIC	??$forward@AEBUDecryptInfo@DecryptAnalysis@Analysis@IronMan@@@std@@YAAEBUDecryptInfo@DecryptAnalysis@Analysis@IronMan@@AEBU1234@@Z ; std::forward<IronMan::Analysis::DecryptAnalysis::DecryptInfo const &>
PUBLIC	??$_Emplace_back_with_unused_capacity@AEBUDecryptInfo@DecryptAnalysis@Analysis@IronMan@@@?$vector@UDecryptInfo@DecryptAnalysis@Analysis@IronMan@@V?$allocator@UDecryptInfo@DecryptAnalysis@Analysis@IronMan@@@std@@@std@@AEAAAEAUDecryptInfo@DecryptAnalysis@Analysis@IronMan@@AEBU2345@@Z ; std::vector<IronMan::Analysis::DecryptAnalysis::DecryptInfo,std::allocator<IronMan::Analysis::DecryptAnalysis::DecryptInfo> >::_Emplace_back_with_unused_capacity<IronMan::Analysis::DecryptAnalysis::DecryptInfo const &>
PUBLIC	??$_Emplace_reallocate@AEBUDecryptInfo@DecryptAnalysis@Analysis@IronMan@@@?$vector@UDecryptInfo@DecryptAnalysis@Analysis@IronMan@@V?$allocator@UDecryptInfo@DecryptAnalysis@Analysis@IronMan@@@std@@@std@@AEAAPEAUDecryptInfo@DecryptAnalysis@Analysis@IronMan@@QEAU2345@AEBU2345@@Z ; std::vector<IronMan::Analysis::DecryptAnalysis::DecryptInfo,std::allocator<IronMan::Analysis::DecryptAnalysis::DecryptInfo> >::_Emplace_reallocate<IronMan::Analysis::DecryptAnalysis::DecryptInfo const &>
PUBLIC	??$forward@W4ZydisRegister_@@@std@@YA$$QEAW4ZydisRegister_@@AEAW41@@Z ; std::forward<enum ZydisRegister_>
PUBLIC	??$_Emplace_back_with_unused_capacity@W4ZydisRegister_@@@?$vector@W4ZydisRegister_@@V?$allocator@W4ZydisRegister_@@@std@@@std@@AEAAAEAW4ZydisRegister_@@$$QEAW42@@Z ; std::vector<enum ZydisRegister_,std::allocator<enum ZydisRegister_> >::_Emplace_back_with_unused_capacity<enum ZydisRegister_>
PUBLIC	??$_Emplace_reallocate@W4ZydisRegister_@@@?$vector@W4ZydisRegister_@@V?$allocator@W4ZydisRegister_@@@std@@@std@@AEAAPEAW4ZydisRegister_@@QEAW42@$$QEAW42@@Z ; std::vector<enum ZydisRegister_,std::allocator<enum ZydisRegister_> >::_Emplace_reallocate<enum ZydisRegister_>
PUBLIC	??$forward@AEBW4ZydisRegister_@@@std@@YAAEBW4ZydisRegister_@@AEBW41@@Z ; std::forward<enum ZydisRegister_ const &>
PUBLIC	??$_Emplace_back_with_unused_capacity@AEBW4ZydisRegister_@@@?$vector@W4ZydisRegister_@@V?$allocator@W4ZydisRegister_@@@std@@@std@@AEAAAEAW4ZydisRegister_@@AEBW42@@Z ; std::vector<enum ZydisRegister_,std::allocator<enum ZydisRegister_> >::_Emplace_back_with_unused_capacity<enum ZydisRegister_ const &>
PUBLIC	??$_Emplace_reallocate@AEBW4ZydisRegister_@@@?$vector@W4ZydisRegister_@@V?$allocator@W4ZydisRegister_@@@std@@@std@@AEAAPEAW4ZydisRegister_@@QEAW42@AEBW42@@Z ; std::vector<enum ZydisRegister_,std::allocator<enum ZydisRegister_> >::_Emplace_reallocate<enum ZydisRegister_ const &>
PUBLIC	??$forward@UVariableInfo@DecryptAnalysis@Analysis@IronMan@@@std@@YA$$QEAUVariableInfo@DecryptAnalysis@Analysis@IronMan@@AEAU1234@@Z ; std::forward<IronMan::Analysis::DecryptAnalysis::VariableInfo>
PUBLIC	??$_Emplace_back_with_unused_capacity@UVariableInfo@DecryptAnalysis@Analysis@IronMan@@@?$vector@UVariableInfo@DecryptAnalysis@Analysis@IronMan@@V?$allocator@UVariableInfo@DecryptAnalysis@Analysis@IronMan@@@std@@@std@@AEAAAEAUVariableInfo@DecryptAnalysis@Analysis@IronMan@@$$QEAU2345@@Z ; std::vector<IronMan::Analysis::DecryptAnalysis::VariableInfo,std::allocator<IronMan::Analysis::DecryptAnalysis::VariableInfo> >::_Emplace_back_with_unused_capacity<IronMan::Analysis::DecryptAnalysis::VariableInfo>
PUBLIC	??$_Emplace_reallocate@UVariableInfo@DecryptAnalysis@Analysis@IronMan@@@?$vector@UVariableInfo@DecryptAnalysis@Analysis@IronMan@@V?$allocator@UVariableInfo@DecryptAnalysis@Analysis@IronMan@@@std@@@std@@AEAAPEAUVariableInfo@DecryptAnalysis@Analysis@IronMan@@QEAU2345@$$QEAU2345@@Z ; std::vector<IronMan::Analysis::DecryptAnalysis::VariableInfo,std::allocator<IronMan::Analysis::DecryptAnalysis::VariableInfo> >::_Emplace_reallocate<IronMan::Analysis::DecryptAnalysis::VariableInfo>
PUBLIC	??$forward@UInstructionInfo@DecryptAnalysis@Analysis@IronMan@@@std@@YA$$QEAUInstructionInfo@DecryptAnalysis@Analysis@IronMan@@AEAU1234@@Z ; std::forward<IronMan::Analysis::DecryptAnalysis::InstructionInfo>
PUBLIC	??$_Emplace_back_with_unused_capacity@UInstructionInfo@DecryptAnalysis@Analysis@IronMan@@@?$vector@UInstructionInfo@DecryptAnalysis@Analysis@IronMan@@V?$allocator@UInstructionInfo@DecryptAnalysis@Analysis@IronMan@@@std@@@std@@AEAAAEAUInstructionInfo@DecryptAnalysis@Analysis@IronMan@@$$QEAU2345@@Z ; std::vector<IronMan::Analysis::DecryptAnalysis::InstructionInfo,std::allocator<IronMan::Analysis::DecryptAnalysis::InstructionInfo> >::_Emplace_back_with_unused_capacity<IronMan::Analysis::DecryptAnalysis::InstructionInfo>
PUBLIC	??$_Emplace_reallocate@UInstructionInfo@DecryptAnalysis@Analysis@IronMan@@@?$vector@UInstructionInfo@DecryptAnalysis@Analysis@IronMan@@V?$allocator@UInstructionInfo@DecryptAnalysis@Analysis@IronMan@@@std@@@std@@AEAAPEAUInstructionInfo@DecryptAnalysis@Analysis@IronMan@@QEAU2345@$$QEAU2345@@Z ; std::vector<IronMan::Analysis::DecryptAnalysis::InstructionInfo,std::allocator<IronMan::Analysis::DecryptAnalysis::InstructionInfo> >::_Emplace_reallocate<IronMan::Analysis::DecryptAnalysis::InstructionInfo>
PUBLIC	??$forward@V?$unique_ptr@VIAsmHelper@IronMan@@U?$default_delete@VIAsmHelper@IronMan@@@std@@@std@@@std@@YA$$QEAV?$unique_ptr@VIAsmHelper@IronMan@@U?$default_delete@VIAsmHelper@IronMan@@@std@@@0@AEAV10@@Z ; std::forward<std::unique_ptr<IronMan::IAsmHelper,std::default_delete<IronMan::IAsmHelper> > >
PUBLIC	??$_Emplace_back_with_unused_capacity@V?$unique_ptr@VIAsmHelper@IronMan@@U?$default_delete@VIAsmHelper@IronMan@@@std@@@std@@@?$vector@V?$unique_ptr@VIAsmHelper@IronMan@@U?$default_delete@VIAsmHelper@IronMan@@@std@@@std@@V?$allocator@V?$unique_ptr@VIAsmHelper@IronMan@@U?$default_delete@VIAsmHelper@IronMan@@@std@@@std@@@2@@std@@AEAAAEAV?$unique_ptr@VIAsmHelper@IronMan@@U?$default_delete@VIAsmHelper@IronMan@@@std@@@1@$$QEAV21@@Z ; std::vector<std::unique_ptr<IronMan::IAsmHelper,std::default_delete<IronMan::IAsmHelper> >,std::allocator<std::unique_ptr<IronMan::IAsmHelper,std::default_delete<IronMan::IAsmHelper> > > >::_Emplace_back_with_unused_capacity<std::unique_ptr<IronMan::IAsmHelper,std::default_delete<IronMan::IAsmHelper> > >
PUBLIC	??$_Emplace_reallocate@V?$unique_ptr@VIAsmHelper@IronMan@@U?$default_delete@VIAsmHelper@IronMan@@@std@@@std@@@?$vector@V?$unique_ptr@VIAsmHelper@IronMan@@U?$default_delete@VIAsmHelper@IronMan@@@std@@@std@@V?$allocator@V?$unique_ptr@VIAsmHelper@IronMan@@U?$default_delete@VIAsmHelper@IronMan@@@std@@@std@@@2@@std@@AEAAPEAV?$unique_ptr@VIAsmHelper@IronMan@@U?$default_delete@VIAsmHelper@IronMan@@@std@@@1@QEAV21@$$QEAV21@@Z ; std::vector<std::unique_ptr<IronMan::IAsmHelper,std::default_delete<IronMan::IAsmHelper> >,std::allocator<std::unique_ptr<IronMan::IAsmHelper,std::default_delete<IronMan::IAsmHelper> > > >::_Emplace_reallocate<std::unique_ptr<IronMan::IAsmHelper,std::default_delete<IronMan::IAsmHelper> > >
PUBLIC	??$_Unfancy@UDecryptInfo@DecryptAnalysis@Analysis@IronMan@@@std@@YAPEAUDecryptInfo@DecryptAnalysis@Analysis@IronMan@@PEAU1234@@Z ; std::_Unfancy<IronMan::Analysis::DecryptAnalysis::DecryptInfo>
PUBLIC	??$destroy@UDecryptInfo@DecryptAnalysis@Analysis@IronMan@@@?$_Default_allocator_traits@V?$allocator@UDecryptInfo@DecryptAnalysis@Analysis@IronMan@@@std@@@std@@SAXAEAV?$allocator@UDecryptInfo@DecryptAnalysis@Analysis@IronMan@@@1@QEAUDecryptInfo@DecryptAnalysis@Analysis@IronMan@@@Z ; std::_Default_allocator_traits<std::allocator<IronMan::Analysis::DecryptAnalysis::DecryptInfo> >::destroy<IronMan::Analysis::DecryptAnalysis::DecryptInfo>
PUBLIC	??$_Unfancy@V?$unique_ptr@VIAsmHelper@IronMan@@U?$default_delete@VIAsmHelper@IronMan@@@std@@@std@@@std@@YAPEAV?$unique_ptr@VIAsmHelper@IronMan@@U?$default_delete@VIAsmHelper@IronMan@@@std@@@0@PEAV10@@Z ; std::_Unfancy<std::unique_ptr<IronMan::IAsmHelper,std::default_delete<IronMan::IAsmHelper> > >
PUBLIC	??$destroy@V?$unique_ptr@VIAsmHelper@IronMan@@U?$default_delete@VIAsmHelper@IronMan@@@std@@@std@@@?$_Default_allocator_traits@V?$allocator@V?$unique_ptr@VIAsmHelper@IronMan@@U?$default_delete@VIAsmHelper@IronMan@@@std@@@std@@@std@@@std@@SAXAEAV?$allocator@V?$unique_ptr@VIAsmHelper@IronMan@@U?$default_delete@VIAsmHelper@IronMan@@@std@@@std@@@1@QEAV?$unique_ptr@VIAsmHelper@IronMan@@U?$default_delete@VIAsmHelper@IronMan@@@std@@@1@@Z ; std::_Default_allocator_traits<std::allocator<std::unique_ptr<IronMan::IAsmHelper,std::default_delete<IronMan::IAsmHelper> > > >::destroy<std::unique_ptr<IronMan::IAsmHelper,std::default_delete<IronMan::IAsmHelper> > >
PUBLIC	??$_Allocate_manually_vector_aligned@U_Default_allocate_traits@std@@@std@@YAPEAX_K@Z ; std::_Allocate_manually_vector_aligned<std::_Default_allocate_traits>
PUBLIC	??$_Unfancy_maybe_null@W4ZydisRegister_@@@std@@YAPEAW4ZydisRegister_@@PEAW41@@Z ; std::_Unfancy_maybe_null<enum ZydisRegister_>
PUBLIC	??$exchange@PEAVAsmHelper64@IronMan@@$$T@std@@YAPEAVAsmHelper64@IronMan@@AEAPEAV12@$$QEA$$T@Z ; std::exchange<IronMan::AsmHelper64 *,std::nullptr_t>
PUBLIC	??$?0$0A@@id@locale@std@@QEAA@XZ		; std::locale::id::id<0>
PUBLIC	??$?0AEAPEAVAsmHelper64@IronMan@@@?$_Compressed_pair@U?$default_delete@VAsmHelper64@IronMan@@@std@@PEAVAsmHelper64@IronMan@@$00@std@@QEAA@U_Zero_then_variadic_args_t@1@AEAPEAVAsmHelper64@IronMan@@@Z ; std::_Compressed_pair<std::default_delete<IronMan::AsmHelper64>,IronMan::AsmHelper64 *,1>::_Compressed_pair<std::default_delete<IronMan::AsmHelper64>,IronMan::AsmHelper64 *,1><IronMan::AsmHelper64 * &>
PUBLIC	??$forward@PEAVAsmHelper64@IronMan@@@std@@YA$$QEAPEAVAsmHelper64@IronMan@@AEAPEAV12@@Z ; std::forward<IronMan::AsmHelper64 *>
PUBLIC	??$forward@PEAW4ZydisRegister_@@@std@@YA$$QEAPEAW4ZydisRegister_@@AEAPEAW41@@Z ; std::forward<enum ZydisRegister_ *>
PUBLIC	??$forward@AEAPEAUVariableInfo@DecryptAnalysis@Analysis@IronMan@@@std@@YAAEAPEAUVariableInfo@DecryptAnalysis@Analysis@IronMan@@AEAPEAU1234@@Z ; std::forward<IronMan::Analysis::DecryptAnalysis::VariableInfo * &>
PUBLIC	??$_Unfancy@UX86Mem@asmjit@@@std@@YAPEAUX86Mem@asmjit@@PEAU12@@Z ; std::_Unfancy<asmjit::X86Mem>
PUBLIC	??$construct@UX86Mem@asmjit@@AEBU12@@?$_Default_allocator_traits@V?$allocator@UX86Mem@asmjit@@@std@@@std@@SAXAEAV?$allocator@UX86Mem@asmjit@@@1@QEAUX86Mem@asmjit@@AEBU34@@Z ; std::_Default_allocator_traits<std::allocator<asmjit::X86Mem> >::construct<asmjit::X86Mem,asmjit::X86Mem const &>
PUBLIC	??$_Allocate_at_least_helper@V?$allocator@UX86Mem@asmjit@@@std@@@std@@YAPEAUX86Mem@asmjit@@AEAV?$allocator@UX86Mem@asmjit@@@0@AEA_K@Z ; std::_Allocate_at_least_helper<std::allocator<asmjit::X86Mem> >
PUBLIC	??1_Reallocation_guard@?$vector@UX86Mem@asmjit@@V?$allocator@UX86Mem@asmjit@@@std@@@std@@QEAA@XZ ; std::vector<asmjit::X86Mem,std::allocator<asmjit::X86Mem> >::_Reallocation_guard::~_Reallocation_guard
PUBLIC	??$_Uninitialized_copy@PEAUX86Mem@asmjit@@PEAU12@V?$allocator@UX86Mem@asmjit@@@std@@@std@@YAPEAUX86Mem@asmjit@@PEAU12@00AEAV?$allocator@UX86Mem@asmjit@@@0@@Z ; std::_Uninitialized_copy<asmjit::X86Mem *,asmjit::X86Mem *,std::allocator<asmjit::X86Mem> >
PUBLIC	??$_Uninitialized_move@PEAUX86Mem@asmjit@@V?$allocator@UX86Mem@asmjit@@@std@@@std@@YAPEAUX86Mem@asmjit@@QEAU12@0PEAU12@AEAV?$allocator@UX86Mem@asmjit@@@0@@Z ; std::_Uninitialized_move<asmjit::X86Mem *,std::allocator<asmjit::X86Mem> >
PUBLIC	??$construct@UDecryptInfo@DecryptAnalysis@Analysis@IronMan@@AEBU1234@@?$_Default_allocator_traits@V?$allocator@UDecryptInfo@DecryptAnalysis@Analysis@IronMan@@@std@@@std@@SAXAEAV?$allocator@UDecryptInfo@DecryptAnalysis@Analysis@IronMan@@@1@QEAUDecryptInfo@DecryptAnalysis@Analysis@IronMan@@AEBU3456@@Z ; std::_Default_allocator_traits<std::allocator<IronMan::Analysis::DecryptAnalysis::DecryptInfo> >::construct<IronMan::Analysis::DecryptAnalysis::DecryptInfo,IronMan::Analysis::DecryptAnalysis::DecryptInfo const &>
PUBLIC	??$_Allocate_at_least_helper@V?$allocator@UDecryptInfo@DecryptAnalysis@Analysis@IronMan@@@std@@@std@@YAPEAUDecryptInfo@DecryptAnalysis@Analysis@IronMan@@AEAV?$allocator@UDecryptInfo@DecryptAnalysis@Analysis@IronMan@@@0@AEA_K@Z ; std::_Allocate_at_least_helper<std::allocator<IronMan::Analysis::DecryptAnalysis::DecryptInfo> >
PUBLIC	??1_Reallocation_guard@?$vector@UDecryptInfo@DecryptAnalysis@Analysis@IronMan@@V?$allocator@UDecryptInfo@DecryptAnalysis@Analysis@IronMan@@@std@@@std@@QEAA@XZ ; std::vector<IronMan::Analysis::DecryptAnalysis::DecryptInfo,std::allocator<IronMan::Analysis::DecryptAnalysis::DecryptInfo> >::_Reallocation_guard::~_Reallocation_guard
PUBLIC	??$_Uninitialized_move@PEAUDecryptInfo@DecryptAnalysis@Analysis@IronMan@@V?$allocator@UDecryptInfo@DecryptAnalysis@Analysis@IronMan@@@std@@@std@@YAPEAUDecryptInfo@DecryptAnalysis@Analysis@IronMan@@QEAU1234@0PEAU1234@AEAV?$allocator@UDecryptInfo@DecryptAnalysis@Analysis@IronMan@@@0@@Z ; std::_Uninitialized_move<IronMan::Analysis::DecryptAnalysis::DecryptInfo *,std::allocator<IronMan::Analysis::DecryptAnalysis::DecryptInfo> >
PUBLIC	??$_Construct_in_place@W4ZydisRegister_@@W41@@std@@YAXAEAW4ZydisRegister_@@$$QEAW41@@Z ; std::_Construct_in_place<enum ZydisRegister_,enum ZydisRegister_>
PUBLIC	??$_Allocate_at_least_helper@V?$allocator@W4ZydisRegister_@@@std@@@std@@YAPEAW4ZydisRegister_@@AEAV?$allocator@W4ZydisRegister_@@@0@AEA_K@Z ; std::_Allocate_at_least_helper<std::allocator<enum ZydisRegister_> >
PUBLIC	??1_Reallocation_guard@?$vector@W4ZydisRegister_@@V?$allocator@W4ZydisRegister_@@@std@@@std@@QEAA@XZ ; std::vector<enum ZydisRegister_,std::allocator<enum ZydisRegister_> >::_Reallocation_guard::~_Reallocation_guard
PUBLIC	??$_Unfancy@W4ZydisRegister_@@@std@@YAPEAW4ZydisRegister_@@PEAW41@@Z ; std::_Unfancy<enum ZydisRegister_>
PUBLIC	??$construct@W4ZydisRegister_@@W41@@?$_Default_allocator_traits@V?$allocator@W4ZydisRegister_@@@std@@@std@@SAXAEAV?$allocator@W4ZydisRegister_@@@1@QEAW4ZydisRegister_@@$$QEAW43@@Z ; std::_Default_allocator_traits<std::allocator<enum ZydisRegister_> >::construct<enum ZydisRegister_,enum ZydisRegister_>
PUBLIC	??$_Uninitialized_move@PEAW4ZydisRegister_@@V?$allocator@W4ZydisRegister_@@@std@@@std@@YAPEAW4ZydisRegister_@@QEAW41@0PEAW41@AEAV?$allocator@W4ZydisRegister_@@@0@@Z ; std::_Uninitialized_move<enum ZydisRegister_ *,std::allocator<enum ZydisRegister_> >
PUBLIC	??$_Construct_in_place@W4ZydisRegister_@@AEBW41@@std@@YAXAEAW4ZydisRegister_@@AEBW41@@Z ; std::_Construct_in_place<enum ZydisRegister_,enum ZydisRegister_ const &>
PUBLIC	??$construct@W4ZydisRegister_@@AEBW41@@?$_Default_allocator_traits@V?$allocator@W4ZydisRegister_@@@std@@@std@@SAXAEAV?$allocator@W4ZydisRegister_@@@1@QEAW4ZydisRegister_@@AEBW43@@Z ; std::_Default_allocator_traits<std::allocator<enum ZydisRegister_> >::construct<enum ZydisRegister_,enum ZydisRegister_ const &>
PUBLIC	??$_Construct_in_place@UVariableInfo@DecryptAnalysis@Analysis@IronMan@@U1234@@std@@YAXAEAUVariableInfo@DecryptAnalysis@Analysis@IronMan@@$$QEAU1234@@Z ; std::_Construct_in_place<IronMan::Analysis::DecryptAnalysis::VariableInfo,IronMan::Analysis::DecryptAnalysis::VariableInfo>
PUBLIC	??$_Allocate_at_least_helper@V?$allocator@UVariableInfo@DecryptAnalysis@Analysis@IronMan@@@std@@@std@@YAPEAUVariableInfo@DecryptAnalysis@Analysis@IronMan@@AEAV?$allocator@UVariableInfo@DecryptAnalysis@Analysis@IronMan@@@0@AEA_K@Z ; std::_Allocate_at_least_helper<std::allocator<IronMan::Analysis::DecryptAnalysis::VariableInfo> >
PUBLIC	??1_Reallocation_guard@?$vector@UVariableInfo@DecryptAnalysis@Analysis@IronMan@@V?$allocator@UVariableInfo@DecryptAnalysis@Analysis@IronMan@@@std@@@std@@QEAA@XZ ; std::vector<IronMan::Analysis::DecryptAnalysis::VariableInfo,std::allocator<IronMan::Analysis::DecryptAnalysis::VariableInfo> >::_Reallocation_guard::~_Reallocation_guard
PUBLIC	??$_Unfancy@UVariableInfo@DecryptAnalysis@Analysis@IronMan@@@std@@YAPEAUVariableInfo@DecryptAnalysis@Analysis@IronMan@@PEAU1234@@Z ; std::_Unfancy<IronMan::Analysis::DecryptAnalysis::VariableInfo>
PUBLIC	??$construct@UVariableInfo@DecryptAnalysis@Analysis@IronMan@@U1234@@?$_Default_allocator_traits@V?$allocator@UVariableInfo@DecryptAnalysis@Analysis@IronMan@@@std@@@std@@SAXAEAV?$allocator@UVariableInfo@DecryptAnalysis@Analysis@IronMan@@@1@QEAUVariableInfo@DecryptAnalysis@Analysis@IronMan@@$$QEAU3456@@Z ; std::_Default_allocator_traits<std::allocator<IronMan::Analysis::DecryptAnalysis::VariableInfo> >::construct<IronMan::Analysis::DecryptAnalysis::VariableInfo,IronMan::Analysis::DecryptAnalysis::VariableInfo>
PUBLIC	??$_Uninitialized_move@PEAUVariableInfo@DecryptAnalysis@Analysis@IronMan@@V?$allocator@UVariableInfo@DecryptAnalysis@Analysis@IronMan@@@std@@@std@@YAPEAUVariableInfo@DecryptAnalysis@Analysis@IronMan@@QEAU1234@0PEAU1234@AEAV?$allocator@UVariableInfo@DecryptAnalysis@Analysis@IronMan@@@0@@Z ; std::_Uninitialized_move<IronMan::Analysis::DecryptAnalysis::VariableInfo *,std::allocator<IronMan::Analysis::DecryptAnalysis::VariableInfo> >
PUBLIC	??$_Construct_in_place@UInstructionInfo@DecryptAnalysis@Analysis@IronMan@@U1234@@std@@YAXAEAUInstructionInfo@DecryptAnalysis@Analysis@IronMan@@$$QEAU1234@@Z ; std::_Construct_in_place<IronMan::Analysis::DecryptAnalysis::InstructionInfo,IronMan::Analysis::DecryptAnalysis::InstructionInfo>
PUBLIC	??$_Allocate_at_least_helper@V?$allocator@UInstructionInfo@DecryptAnalysis@Analysis@IronMan@@@std@@@std@@YAPEAUInstructionInfo@DecryptAnalysis@Analysis@IronMan@@AEAV?$allocator@UInstructionInfo@DecryptAnalysis@Analysis@IronMan@@@0@AEA_K@Z ; std::_Allocate_at_least_helper<std::allocator<IronMan::Analysis::DecryptAnalysis::InstructionInfo> >
PUBLIC	??1_Reallocation_guard@?$vector@UInstructionInfo@DecryptAnalysis@Analysis@IronMan@@V?$allocator@UInstructionInfo@DecryptAnalysis@Analysis@IronMan@@@std@@@std@@QEAA@XZ ; std::vector<IronMan::Analysis::DecryptAnalysis::InstructionInfo,std::allocator<IronMan::Analysis::DecryptAnalysis::InstructionInfo> >::_Reallocation_guard::~_Reallocation_guard
PUBLIC	??$_Unfancy@UInstructionInfo@DecryptAnalysis@Analysis@IronMan@@@std@@YAPEAUInstructionInfo@DecryptAnalysis@Analysis@IronMan@@PEAU1234@@Z ; std::_Unfancy<IronMan::Analysis::DecryptAnalysis::InstructionInfo>
PUBLIC	??$construct@UInstructionInfo@DecryptAnalysis@Analysis@IronMan@@U1234@@?$_Default_allocator_traits@V?$allocator@UInstructionInfo@DecryptAnalysis@Analysis@IronMan@@@std@@@std@@SAXAEAV?$allocator@UInstructionInfo@DecryptAnalysis@Analysis@IronMan@@@1@QEAUInstructionInfo@DecryptAnalysis@Analysis@IronMan@@$$QEAU3456@@Z ; std::_Default_allocator_traits<std::allocator<IronMan::Analysis::DecryptAnalysis::InstructionInfo> >::construct<IronMan::Analysis::DecryptAnalysis::InstructionInfo,IronMan::Analysis::DecryptAnalysis::InstructionInfo>
PUBLIC	??$_Uninitialized_move@PEAUInstructionInfo@DecryptAnalysis@Analysis@IronMan@@V?$allocator@UInstructionInfo@DecryptAnalysis@Analysis@IronMan@@@std@@@std@@YAPEAUInstructionInfo@DecryptAnalysis@Analysis@IronMan@@QEAU1234@0PEAU1234@AEAV?$allocator@UInstructionInfo@DecryptAnalysis@Analysis@IronMan@@@0@@Z ; std::_Uninitialized_move<IronMan::Analysis::DecryptAnalysis::InstructionInfo *,std::allocator<IronMan::Analysis::DecryptAnalysis::InstructionInfo> >
PUBLIC	??$_Construct_in_place@V?$unique_ptr@VIAsmHelper@IronMan@@U?$default_delete@VIAsmHelper@IronMan@@@std@@@std@@V12@@std@@YAXAEAV?$unique_ptr@VIAsmHelper@IronMan@@U?$default_delete@VIAsmHelper@IronMan@@@std@@@0@$$QEAV10@@Z ; std::_Construct_in_place<std::unique_ptr<IronMan::IAsmHelper,std::default_delete<IronMan::IAsmHelper> >,std::unique_ptr<IronMan::IAsmHelper,std::default_delete<IronMan::IAsmHelper> > >
PUBLIC	??$_Allocate_at_least_helper@V?$allocator@V?$unique_ptr@VIAsmHelper@IronMan@@U?$default_delete@VIAsmHelper@IronMan@@@std@@@std@@@std@@@std@@YAPEAV?$unique_ptr@VIAsmHelper@IronMan@@U?$default_delete@VIAsmHelper@IronMan@@@std@@@0@AEAV?$allocator@V?$unique_ptr@VIAsmHelper@IronMan@@U?$default_delete@VIAsmHelper@IronMan@@@std@@@std@@@0@AEA_K@Z ; std::_Allocate_at_least_helper<std::allocator<std::unique_ptr<IronMan::IAsmHelper,std::default_delete<IronMan::IAsmHelper> > > >
PUBLIC	??1_Reallocation_guard@?$vector@V?$unique_ptr@VIAsmHelper@IronMan@@U?$default_delete@VIAsmHelper@IronMan@@@std@@@std@@V?$allocator@V?$unique_ptr@VIAsmHelper@IronMan@@U?$default_delete@VIAsmHelper@IronMan@@@std@@@std@@@2@@std@@QEAA@XZ ; std::vector<std::unique_ptr<IronMan::IAsmHelper,std::default_delete<IronMan::IAsmHelper> >,std::allocator<std::unique_ptr<IronMan::IAsmHelper,std::default_delete<IronMan::IAsmHelper> > > >::_Reallocation_guard::~_Reallocation_guard
PUBLIC	??$construct@V?$unique_ptr@VIAsmHelper@IronMan@@U?$default_delete@VIAsmHelper@IronMan@@@std@@@std@@V12@@?$_Default_allocator_traits@V?$allocator@V?$unique_ptr@VIAsmHelper@IronMan@@U?$default_delete@VIAsmHelper@IronMan@@@std@@@std@@@std@@@std@@SAXAEAV?$allocator@V?$unique_ptr@VIAsmHelper@IronMan@@U?$default_delete@VIAsmHelper@IronMan@@@std@@@std@@@1@QEAV?$unique_ptr@VIAsmHelper@IronMan@@U?$default_delete@VIAsmHelper@IronMan@@@std@@@1@$$QEAV31@@Z ; std::_Default_allocator_traits<std::allocator<std::unique_ptr<IronMan::IAsmHelper,std::default_delete<IronMan::IAsmHelper> > > >::construct<std::unique_ptr<IronMan::IAsmHelper,std::default_delete<IronMan::IAsmHelper> >,std::unique_ptr<IronMan::IAsmHelper,std::default_delete<IronMan::IAsmHelper> > >
PUBLIC	??$_Uninitialized_move@PEAV?$unique_ptr@VIAsmHelper@IronMan@@U?$default_delete@VIAsmHelper@IronMan@@@std@@@std@@V?$allocator@V?$unique_ptr@VIAsmHelper@IronMan@@U?$default_delete@VIAsmHelper@IronMan@@@std@@@std@@@2@@std@@YAPEAV?$unique_ptr@VIAsmHelper@IronMan@@U?$default_delete@VIAsmHelper@IronMan@@@std@@@0@QEAV10@0PEAV10@AEAV?$allocator@V?$unique_ptr@VIAsmHelper@IronMan@@U?$default_delete@VIAsmHelper@IronMan@@@std@@@std@@@0@@Z ; std::_Uninitialized_move<std::unique_ptr<IronMan::IAsmHelper,std::default_delete<IronMan::IAsmHelper> > *,std::allocator<std::unique_ptr<IronMan::IAsmHelper,std::default_delete<IronMan::IAsmHelper> > > >
PUBLIC	??$_Deallocate@$07@std@@YAXPEAX_K@Z		; std::_Deallocate<8>
PUBLIC	??$_Refancy_maybe_null@PEAUVariableInfo@DecryptAnalysis@Analysis@IronMan@@$0A@@std@@YAPEAUVariableInfo@DecryptAnalysis@Analysis@IronMan@@PEAU1234@@Z ; std::_Refancy_maybe_null<IronMan::Analysis::DecryptAnalysis::VariableInfo *,0>
PUBLIC	??$_Refancy_maybe_null@PEAW4ZydisRegister_@@$0A@@std@@YAPEAW4ZydisRegister_@@PEAW41@@Z ; std::_Refancy_maybe_null<enum ZydisRegister_ *,0>
PUBLIC	??$_Get_size_of_n@$0BA@@std@@YA_K_K@Z		; std::_Get_size_of_n<16>
PUBLIC	??$forward@AEAPEAVAsmHelper64@IronMan@@@std@@YAAEAPEAVAsmHelper64@IronMan@@AEAPEAV12@@Z ; std::forward<IronMan::AsmHelper64 * &>
PUBLIC	??$move@AEAPEAUX86Mem@asmjit@@@std@@YA$$QEAPEAUX86Mem@asmjit@@AEAPEAU12@@Z ; std::move<asmjit::X86Mem * &>
PUBLIC	??$_Get_unwrapped@PEAUX86Mem@asmjit@@@std@@YA?A_T$$QEAPEAUX86Mem@asmjit@@@Z ; std::_Get_unwrapped<asmjit::X86Mem *>
PUBLIC	??0?$_Uninitialized_backout_al@V?$allocator@UX86Mem@asmjit@@@std@@@std@@QEAA@PEAUX86Mem@asmjit@@AEAV?$allocator@UX86Mem@asmjit@@@1@@Z ; std::_Uninitialized_backout_al<std::allocator<asmjit::X86Mem> >::_Uninitialized_backout_al<std::allocator<asmjit::X86Mem> >
PUBLIC	??1?$_Uninitialized_backout_al@V?$allocator@UX86Mem@asmjit@@@std@@@std@@QEAA@XZ ; std::_Uninitialized_backout_al<std::allocator<asmjit::X86Mem> >::~_Uninitialized_backout_al<std::allocator<asmjit::X86Mem> >
PUBLIC	?_Release@?$_Uninitialized_backout_al@V?$allocator@UX86Mem@asmjit@@@std@@@std@@QEAAPEAUX86Mem@asmjit@@XZ ; std::_Uninitialized_backout_al<std::allocator<asmjit::X86Mem> >::_Release
PUBLIC	??$_Emplace_back@AEAUX86Mem@asmjit@@@?$_Uninitialized_backout_al@V?$allocator@UX86Mem@asmjit@@@std@@@std@@QEAAXAEAUX86Mem@asmjit@@@Z ; std::_Uninitialized_backout_al<std::allocator<asmjit::X86Mem> >::_Emplace_back<asmjit::X86Mem &>
PUBLIC	??$_Get_unwrapped@AEBQEAUX86Mem@asmjit@@@std@@YA?A_TAEBQEAUX86Mem@asmjit@@@Z ; std::_Get_unwrapped<asmjit::X86Mem * const &>
PUBLIC	??$move@AEAUX86Mem@asmjit@@@std@@YA$$QEAUX86Mem@asmjit@@AEAU12@@Z ; std::move<asmjit::X86Mem &>
PUBLIC	??$_Emplace_back@UX86Mem@asmjit@@@?$_Uninitialized_backout_al@V?$allocator@UX86Mem@asmjit@@@std@@@std@@QEAAX$$QEAUX86Mem@asmjit@@@Z ; std::_Uninitialized_backout_al<std::allocator<asmjit::X86Mem> >::_Emplace_back<asmjit::X86Mem>
PUBLIC	??$_Get_unwrapped@AEBQEAUDecryptInfo@DecryptAnalysis@Analysis@IronMan@@@std@@YA?A_TAEBQEAUDecryptInfo@DecryptAnalysis@Analysis@IronMan@@@Z ; std::_Get_unwrapped<IronMan::Analysis::DecryptAnalysis::DecryptInfo * const &>
PUBLIC	??$move@AEAUDecryptInfo@DecryptAnalysis@Analysis@IronMan@@@std@@YA$$QEAUDecryptInfo@DecryptAnalysis@Analysis@IronMan@@AEAU1234@@Z ; std::move<IronMan::Analysis::DecryptAnalysis::DecryptInfo &>
PUBLIC	??0?$_Uninitialized_backout_al@V?$allocator@UDecryptInfo@DecryptAnalysis@Analysis@IronMan@@@std@@@std@@QEAA@PEAUDecryptInfo@DecryptAnalysis@Analysis@IronMan@@AEAV?$allocator@UDecryptInfo@DecryptAnalysis@Analysis@IronMan@@@1@@Z ; std::_Uninitialized_backout_al<std::allocator<IronMan::Analysis::DecryptAnalysis::DecryptInfo> >::_Uninitialized_backout_al<std::allocator<IronMan::Analysis::DecryptAnalysis::DecryptInfo> >
PUBLIC	??1?$_Uninitialized_backout_al@V?$allocator@UDecryptInfo@DecryptAnalysis@Analysis@IronMan@@@std@@@std@@QEAA@XZ ; std::_Uninitialized_backout_al<std::allocator<IronMan::Analysis::DecryptAnalysis::DecryptInfo> >::~_Uninitialized_backout_al<std::allocator<IronMan::Analysis::DecryptAnalysis::DecryptInfo> >
PUBLIC	?_Release@?$_Uninitialized_backout_al@V?$allocator@UDecryptInfo@DecryptAnalysis@Analysis@IronMan@@@std@@@std@@QEAAPEAUDecryptInfo@DecryptAnalysis@Analysis@IronMan@@XZ ; std::_Uninitialized_backout_al<std::allocator<IronMan::Analysis::DecryptAnalysis::DecryptInfo> >::_Release
PUBLIC	??$_Emplace_back@UDecryptInfo@DecryptAnalysis@Analysis@IronMan@@@?$_Uninitialized_backout_al@V?$allocator@UDecryptInfo@DecryptAnalysis@Analysis@IronMan@@@std@@@std@@QEAAX$$QEAUDecryptInfo@DecryptAnalysis@Analysis@IronMan@@@Z ; std::_Uninitialized_backout_al<std::allocator<IronMan::Analysis::DecryptAnalysis::DecryptInfo> >::_Emplace_back<IronMan::Analysis::DecryptAnalysis::DecryptInfo>
PUBLIC	??$addressof@W4ZydisRegister_@@@std@@YAPEAW4ZydisRegister_@@AEAW41@@Z ; std::addressof<enum ZydisRegister_>
PUBLIC	??$_Get_unwrapped@AEBQEAW4ZydisRegister_@@@std@@YA?A_TAEBQEAW4ZydisRegister_@@@Z ; std::_Get_unwrapped<enum ZydisRegister_ * const &>
PUBLIC	??$_Copy_memmove@PEAW4ZydisRegister_@@PEAW41@@std@@YAPEAW4ZydisRegister_@@PEAW41@00@Z ; std::_Copy_memmove<enum ZydisRegister_ *,enum ZydisRegister_ *>
PUBLIC	??0?$_Uninitialized_backout_al@V?$allocator@W4ZydisRegister_@@@std@@@std@@QEAA@PEAW4ZydisRegister_@@AEAV?$allocator@W4ZydisRegister_@@@1@@Z ; std::_Uninitialized_backout_al<std::allocator<enum ZydisRegister_> >::_Uninitialized_backout_al<std::allocator<enum ZydisRegister_> >
PUBLIC	??1?$_Uninitialized_backout_al@V?$allocator@W4ZydisRegister_@@@std@@@std@@QEAA@XZ ; std::_Uninitialized_backout_al<std::allocator<enum ZydisRegister_> >::~_Uninitialized_backout_al<std::allocator<enum ZydisRegister_> >
PUBLIC	?_Release@?$_Uninitialized_backout_al@V?$allocator@W4ZydisRegister_@@@std@@@std@@QEAAPEAW4ZydisRegister_@@XZ ; std::_Uninitialized_backout_al<std::allocator<enum ZydisRegister_> >::_Release
PUBLIC	??$_Emplace_back@W4ZydisRegister_@@@?$_Uninitialized_backout_al@V?$allocator@W4ZydisRegister_@@@std@@@std@@QEAAX$$QEAW4ZydisRegister_@@@Z ; std::_Uninitialized_backout_al<std::allocator<enum ZydisRegister_> >::_Emplace_back<enum ZydisRegister_>
PUBLIC	??$addressof@UVariableInfo@DecryptAnalysis@Analysis@IronMan@@@std@@YAPEAUVariableInfo@DecryptAnalysis@Analysis@IronMan@@AEAU1234@@Z ; std::addressof<IronMan::Analysis::DecryptAnalysis::VariableInfo>
PUBLIC	??$_Get_unwrapped@AEBQEAUVariableInfo@DecryptAnalysis@Analysis@IronMan@@@std@@YA?A_TAEBQEAUVariableInfo@DecryptAnalysis@Analysis@IronMan@@@Z ; std::_Get_unwrapped<IronMan::Analysis::DecryptAnalysis::VariableInfo * const &>
PUBLIC	??$_Copy_memmove@PEAUVariableInfo@DecryptAnalysis@Analysis@IronMan@@PEAU1234@@std@@YAPEAUVariableInfo@DecryptAnalysis@Analysis@IronMan@@PEAU1234@00@Z ; std::_Copy_memmove<IronMan::Analysis::DecryptAnalysis::VariableInfo *,IronMan::Analysis::DecryptAnalysis::VariableInfo *>
PUBLIC	??0?$_Uninitialized_backout_al@V?$allocator@UVariableInfo@DecryptAnalysis@Analysis@IronMan@@@std@@@std@@QEAA@PEAUVariableInfo@DecryptAnalysis@Analysis@IronMan@@AEAV?$allocator@UVariableInfo@DecryptAnalysis@Analysis@IronMan@@@1@@Z ; std::_Uninitialized_backout_al<std::allocator<IronMan::Analysis::DecryptAnalysis::VariableInfo> >::_Uninitialized_backout_al<std::allocator<IronMan::Analysis::DecryptAnalysis::VariableInfo> >
PUBLIC	??1?$_Uninitialized_backout_al@V?$allocator@UVariableInfo@DecryptAnalysis@Analysis@IronMan@@@std@@@std@@QEAA@XZ ; std::_Uninitialized_backout_al<std::allocator<IronMan::Analysis::DecryptAnalysis::VariableInfo> >::~_Uninitialized_backout_al<std::allocator<IronMan::Analysis::DecryptAnalysis::VariableInfo> >
PUBLIC	?_Release@?$_Uninitialized_backout_al@V?$allocator@UVariableInfo@DecryptAnalysis@Analysis@IronMan@@@std@@@std@@QEAAPEAUVariableInfo@DecryptAnalysis@Analysis@IronMan@@XZ ; std::_Uninitialized_backout_al<std::allocator<IronMan::Analysis::DecryptAnalysis::VariableInfo> >::_Release
PUBLIC	??$_Emplace_back@UVariableInfo@DecryptAnalysis@Analysis@IronMan@@@?$_Uninitialized_backout_al@V?$allocator@UVariableInfo@DecryptAnalysis@Analysis@IronMan@@@std@@@std@@QEAAX$$QEAUVariableInfo@DecryptAnalysis@Analysis@IronMan@@@Z ; std::_Uninitialized_backout_al<std::allocator<IronMan::Analysis::DecryptAnalysis::VariableInfo> >::_Emplace_back<IronMan::Analysis::DecryptAnalysis::VariableInfo>
PUBLIC	??$addressof@UInstructionInfo@DecryptAnalysis@Analysis@IronMan@@@std@@YAPEAUInstructionInfo@DecryptAnalysis@Analysis@IronMan@@AEAU1234@@Z ; std::addressof<IronMan::Analysis::DecryptAnalysis::InstructionInfo>
PUBLIC	??$_Get_unwrapped@AEBQEAUInstructionInfo@DecryptAnalysis@Analysis@IronMan@@@std@@YA?A_TAEBQEAUInstructionInfo@DecryptAnalysis@Analysis@IronMan@@@Z ; std::_Get_unwrapped<IronMan::Analysis::DecryptAnalysis::InstructionInfo * const &>
PUBLIC	??$_Copy_memmove@PEAUInstructionInfo@DecryptAnalysis@Analysis@IronMan@@PEAU1234@@std@@YAPEAUInstructionInfo@DecryptAnalysis@Analysis@IronMan@@PEAU1234@00@Z ; std::_Copy_memmove<IronMan::Analysis::DecryptAnalysis::InstructionInfo *,IronMan::Analysis::DecryptAnalysis::InstructionInfo *>
PUBLIC	??0?$_Uninitialized_backout_al@V?$allocator@UInstructionInfo@DecryptAnalysis@Analysis@IronMan@@@std@@@std@@QEAA@PEAUInstructionInfo@DecryptAnalysis@Analysis@IronMan@@AEAV?$allocator@UInstructionInfo@DecryptAnalysis@Analysis@IronMan@@@1@@Z ; std::_Uninitialized_backout_al<std::allocator<IronMan::Analysis::DecryptAnalysis::InstructionInfo> >::_Uninitialized_backout_al<std::allocator<IronMan::Analysis::DecryptAnalysis::InstructionInfo> >
PUBLIC	??1?$_Uninitialized_backout_al@V?$allocator@UInstructionInfo@DecryptAnalysis@Analysis@IronMan@@@std@@@std@@QEAA@XZ ; std::_Uninitialized_backout_al<std::allocator<IronMan::Analysis::DecryptAnalysis::InstructionInfo> >::~_Uninitialized_backout_al<std::allocator<IronMan::Analysis::DecryptAnalysis::InstructionInfo> >
PUBLIC	?_Release@?$_Uninitialized_backout_al@V?$allocator@UInstructionInfo@DecryptAnalysis@Analysis@IronMan@@@std@@@std@@QEAAPEAUInstructionInfo@DecryptAnalysis@Analysis@IronMan@@XZ ; std::_Uninitialized_backout_al<std::allocator<IronMan::Analysis::DecryptAnalysis::InstructionInfo> >::_Release
PUBLIC	??$_Emplace_back@UInstructionInfo@DecryptAnalysis@Analysis@IronMan@@@?$_Uninitialized_backout_al@V?$allocator@UInstructionInfo@DecryptAnalysis@Analysis@IronMan@@@std@@@std@@QEAAX$$QEAUInstructionInfo@DecryptAnalysis@Analysis@IronMan@@@Z ; std::_Uninitialized_backout_al<std::allocator<IronMan::Analysis::DecryptAnalysis::InstructionInfo> >::_Emplace_back<IronMan::Analysis::DecryptAnalysis::InstructionInfo>
PUBLIC	??$addressof@V?$unique_ptr@VIAsmHelper@IronMan@@U?$default_delete@VIAsmHelper@IronMan@@@std@@@std@@@std@@YAPEAV?$unique_ptr@VIAsmHelper@IronMan@@U?$default_delete@VIAsmHelper@IronMan@@@std@@@0@AEAV10@@Z ; std::addressof<std::unique_ptr<IronMan::IAsmHelper,std::default_delete<IronMan::IAsmHelper> > >
PUBLIC	??$_Get_unwrapped@AEBQEAV?$unique_ptr@VIAsmHelper@IronMan@@U?$default_delete@VIAsmHelper@IronMan@@@std@@@std@@@std@@YA?A_TAEBQEAV?$unique_ptr@VIAsmHelper@IronMan@@U?$default_delete@VIAsmHelper@IronMan@@@std@@@0@@Z ; std::_Get_unwrapped<std::unique_ptr<IronMan::IAsmHelper,std::default_delete<IronMan::IAsmHelper> > * const &>
PUBLIC	??0?$_Uninitialized_backout_al@V?$allocator@V?$unique_ptr@VIAsmHelper@IronMan@@U?$default_delete@VIAsmHelper@IronMan@@@std@@@std@@@std@@@std@@QEAA@PEAV?$unique_ptr@VIAsmHelper@IronMan@@U?$default_delete@VIAsmHelper@IronMan@@@std@@@1@AEAV?$allocator@V?$unique_ptr@VIAsmHelper@IronMan@@U?$default_delete@VIAsmHelper@IronMan@@@std@@@std@@@1@@Z ; std::_Uninitialized_backout_al<std::allocator<std::unique_ptr<IronMan::IAsmHelper,std::default_delete<IronMan::IAsmHelper> > > >::_Uninitialized_backout_al<std::allocator<std::unique_ptr<IronMan::IAsmHelper,std::default_delete<IronMan::IAsmHelper> > > >
PUBLIC	??1?$_Uninitialized_backout_al@V?$allocator@V?$unique_ptr@VIAsmHelper@IronMan@@U?$default_delete@VIAsmHelper@IronMan@@@std@@@std@@@std@@@std@@QEAA@XZ ; std::_Uninitialized_backout_al<std::allocator<std::unique_ptr<IronMan::IAsmHelper,std::default_delete<IronMan::IAsmHelper> > > >::~_Uninitialized_backout_al<std::allocator<std::unique_ptr<IronMan::IAsmHelper,std::default_delete<IronMan::IAsmHelper> > > >
PUBLIC	?_Release@?$_Uninitialized_backout_al@V?$allocator@V?$unique_ptr@VIAsmHelper@IronMan@@U?$default_delete@VIAsmHelper@IronMan@@@std@@@std@@@std@@@std@@QEAAPEAV?$unique_ptr@VIAsmHelper@IronMan@@U?$default_delete@VIAsmHelper@IronMan@@@std@@@2@XZ ; std::_Uninitialized_backout_al<std::allocator<std::unique_ptr<IronMan::IAsmHelper,std::default_delete<IronMan::IAsmHelper> > > >::_Release
PUBLIC	??$_Emplace_back@V?$unique_ptr@VIAsmHelper@IronMan@@U?$default_delete@VIAsmHelper@IronMan@@@std@@@std@@@?$_Uninitialized_backout_al@V?$allocator@V?$unique_ptr@VIAsmHelper@IronMan@@U?$default_delete@VIAsmHelper@IronMan@@@std@@@std@@@std@@@std@@QEAAX$$QEAV?$unique_ptr@VIAsmHelper@IronMan@@U?$default_delete@VIAsmHelper@IronMan@@@std@@@1@@Z ; std::_Uninitialized_backout_al<std::allocator<std::unique_ptr<IronMan::IAsmHelper,std::default_delete<IronMan::IAsmHelper> > > >::_Emplace_back<std::unique_ptr<IronMan::IAsmHelper,std::default_delete<IronMan::IAsmHelper> > >
PUBLIC	??$_Get_size_of_n@$0JI@@std@@YA_K_K@Z		; std::_Get_size_of_n<152>
PUBLIC	??$?0V?$allocator@W4ZydisRegister_@@@std@@$$V@?$_Compressed_pair@V?$allocator@W4ZydisRegister_@@@std@@V?$_Vector_val@U?$_Simple_types@W4ZydisRegister_@@@std@@@2@$00@std@@QEAA@U_One_then_variadic_args_t@1@$$QEAV?$allocator@W4ZydisRegister_@@@1@@Z ; std::_Compressed_pair<std::allocator<enum ZydisRegister_>,std::_Vector_val<std::_Simple_types<enum ZydisRegister_> >,1>::_Compressed_pair<std::allocator<enum ZydisRegister_>,std::_Vector_val<std::_Simple_types<enum ZydisRegister_> >,1><std::allocator<enum ZydisRegister_> >
PUBLIC	??$_Construct_n@AEBQEAW4ZydisRegister_@@AEBQEAW41@@?$vector@W4ZydisRegister_@@V?$allocator@W4ZydisRegister_@@@std@@@std@@AEAAX_KAEBQEAW4ZydisRegister_@@1@Z ; std::vector<enum ZydisRegister_,std::allocator<enum ZydisRegister_> >::_Construct_n<enum ZydisRegister_ * const &,enum ZydisRegister_ * const &>
PUBLIC	??$_Get_size_of_n@$03@std@@YA_K_K@Z		; std::_Get_size_of_n<4>
PUBLIC	??$?0V?$allocator@UVariableInfo@DecryptAnalysis@Analysis@IronMan@@@std@@$$V@?$_Compressed_pair@V?$allocator@UVariableInfo@DecryptAnalysis@Analysis@IronMan@@@std@@V?$_Vector_val@U?$_Simple_types@UVariableInfo@DecryptAnalysis@Analysis@IronMan@@@std@@@2@$00@std@@QEAA@U_One_then_variadic_args_t@1@$$QEAV?$allocator@UVariableInfo@DecryptAnalysis@Analysis@IronMan@@@1@@Z ; std::_Compressed_pair<std::allocator<IronMan::Analysis::DecryptAnalysis::VariableInfo>,std::_Vector_val<std::_Simple_types<IronMan::Analysis::DecryptAnalysis::VariableInfo> >,1>::_Compressed_pair<std::allocator<IronMan::Analysis::DecryptAnalysis::VariableInfo>,std::_Vector_val<std::_Simple_types<IronMan::Analysis::DecryptAnalysis::VariableInfo> >,1><std::allocator<IronMan::Analysis::DecryptAnalysis::VariableInfo> >
PUBLIC	??$_Construct_n@AEBQEAUVariableInfo@DecryptAnalysis@Analysis@IronMan@@AEBQEAU1234@@?$vector@UVariableInfo@DecryptAnalysis@Analysis@IronMan@@V?$allocator@UVariableInfo@DecryptAnalysis@Analysis@IronMan@@@std@@@std@@AEAAX_KAEBQEAUVariableInfo@DecryptAnalysis@Analysis@IronMan@@1@Z ; std::vector<IronMan::Analysis::DecryptAnalysis::VariableInfo,std::allocator<IronMan::Analysis::DecryptAnalysis::VariableInfo> >::_Construct_n<IronMan::Analysis::DecryptAnalysis::VariableInfo * const &,IronMan::Analysis::DecryptAnalysis::VariableInfo * const &>
PUBLIC	??$?0V?$allocator@UInstructionInfo@DecryptAnalysis@Analysis@IronMan@@@std@@$$V@?$_Compressed_pair@V?$allocator@UInstructionInfo@DecryptAnalysis@Analysis@IronMan@@@std@@V?$_Vector_val@U?$_Simple_types@UInstructionInfo@DecryptAnalysis@Analysis@IronMan@@@std@@@2@$00@std@@QEAA@U_One_then_variadic_args_t@1@$$QEAV?$allocator@UInstructionInfo@DecryptAnalysis@Analysis@IronMan@@@1@@Z ; std::_Compressed_pair<std::allocator<IronMan::Analysis::DecryptAnalysis::InstructionInfo>,std::_Vector_val<std::_Simple_types<IronMan::Analysis::DecryptAnalysis::InstructionInfo> >,1>::_Compressed_pair<std::allocator<IronMan::Analysis::DecryptAnalysis::InstructionInfo>,std::_Vector_val<std::_Simple_types<IronMan::Analysis::DecryptAnalysis::InstructionInfo> >,1><std::allocator<IronMan::Analysis::DecryptAnalysis::InstructionInfo> >
PUBLIC	??$_Construct_n@AEBQEAUInstructionInfo@DecryptAnalysis@Analysis@IronMan@@AEBQEAU1234@@?$vector@UInstructionInfo@DecryptAnalysis@Analysis@IronMan@@V?$allocator@UInstructionInfo@DecryptAnalysis@Analysis@IronMan@@@std@@@std@@AEAAX_KAEBQEAUInstructionInfo@DecryptAnalysis@Analysis@IronMan@@1@Z ; std::vector<IronMan::Analysis::DecryptAnalysis::InstructionInfo,std::allocator<IronMan::Analysis::DecryptAnalysis::InstructionInfo> >::_Construct_n<IronMan::Analysis::DecryptAnalysis::InstructionInfo * const &,IronMan::Analysis::DecryptAnalysis::InstructionInfo * const &>
PUBLIC	??$_Get_size_of_n@$0FNA@@std@@YA_K_K@Z		; std::_Get_size_of_n<1488>
PUBLIC	??$forward@U?$default_delete@VIAsmHelper@IronMan@@@std@@@std@@YA$$QEAU?$default_delete@VIAsmHelper@IronMan@@@0@AEAU10@@Z ; std::forward<std::default_delete<IronMan::IAsmHelper> >
PUBLIC	??$?0U?$default_delete@VIAsmHelper@IronMan@@@std@@PEAVIAsmHelper@IronMan@@@?$_Compressed_pair@U?$default_delete@VIAsmHelper@IronMan@@@std@@PEAVIAsmHelper@IronMan@@$00@std@@QEAA@U_One_then_variadic_args_t@1@$$QEAU?$default_delete@VIAsmHelper@IronMan@@@1@$$QEAPEAVIAsmHelper@IronMan@@@Z ; std::_Compressed_pair<std::default_delete<IronMan::IAsmHelper>,IronMan::IAsmHelper *,1>::_Compressed_pair<std::default_delete<IronMan::IAsmHelper>,IronMan::IAsmHelper *,1><std::default_delete<IronMan::IAsmHelper>,IronMan::IAsmHelper *>
PUBLIC	??$forward@AEAUX86Mem@asmjit@@@std@@YAAEAUX86Mem@asmjit@@AEAU12@@Z ; std::forward<asmjit::X86Mem &>
PUBLIC	??$construct@UX86Mem@asmjit@@AEAU12@@?$_Default_allocator_traits@V?$allocator@UX86Mem@asmjit@@@std@@@std@@SAXAEAV?$allocator@UX86Mem@asmjit@@@1@QEAUX86Mem@asmjit@@AEAU34@@Z ; std::_Default_allocator_traits<std::allocator<asmjit::X86Mem> >::construct<asmjit::X86Mem,asmjit::X86Mem &>
PUBLIC	??$forward@UX86Mem@asmjit@@@std@@YA$$QEAUX86Mem@asmjit@@AEAU12@@Z ; std::forward<asmjit::X86Mem>
PUBLIC	??$construct@UX86Mem@asmjit@@U12@@?$_Default_allocator_traits@V?$allocator@UX86Mem@asmjit@@@std@@@std@@SAXAEAV?$allocator@UX86Mem@asmjit@@@1@QEAUX86Mem@asmjit@@$$QEAU34@@Z ; std::_Default_allocator_traits<std::allocator<asmjit::X86Mem> >::construct<asmjit::X86Mem,asmjit::X86Mem>
PUBLIC	??$forward@UDecryptInfo@DecryptAnalysis@Analysis@IronMan@@@std@@YA$$QEAUDecryptInfo@DecryptAnalysis@Analysis@IronMan@@AEAU1234@@Z ; std::forward<IronMan::Analysis::DecryptAnalysis::DecryptInfo>
PUBLIC	??$construct@UDecryptInfo@DecryptAnalysis@Analysis@IronMan@@U1234@@?$_Default_allocator_traits@V?$allocator@UDecryptInfo@DecryptAnalysis@Analysis@IronMan@@@std@@@std@@SAXAEAV?$allocator@UDecryptInfo@DecryptAnalysis@Analysis@IronMan@@@1@QEAUDecryptInfo@DecryptAnalysis@Analysis@IronMan@@$$QEAU3456@@Z ; std::_Default_allocator_traits<std::allocator<IronMan::Analysis::DecryptAnalysis::DecryptInfo> >::construct<IronMan::Analysis::DecryptAnalysis::DecryptInfo,IronMan::Analysis::DecryptAnalysis::DecryptInfo>
PUBLIC	??$_To_address@PEAW4ZydisRegister_@@@std@@YA?A_PAEBQEAW4ZydisRegister_@@@Z ; std::_To_address<enum ZydisRegister_ *>
PUBLIC	??$move@AEAPEAW4ZydisRegister_@@@std@@YA$$QEAPEAW4ZydisRegister_@@AEAPEAW41@@Z ; std::move<enum ZydisRegister_ * &>
PUBLIC	??$_Copy_memmove_tail@PEAW4ZydisRegister_@@@std@@YAPEAW4ZydisRegister_@@QEBDQEAW41@_K2@Z ; std::_Copy_memmove_tail<enum ZydisRegister_ *>
PUBLIC	??$_To_address@PEAUVariableInfo@DecryptAnalysis@Analysis@IronMan@@@std@@YA?A_PAEBQEAUVariableInfo@DecryptAnalysis@Analysis@IronMan@@@Z ; std::_To_address<IronMan::Analysis::DecryptAnalysis::VariableInfo *>
PUBLIC	??$move@AEAPEAUVariableInfo@DecryptAnalysis@Analysis@IronMan@@@std@@YA$$QEAPEAUVariableInfo@DecryptAnalysis@Analysis@IronMan@@AEAPEAU1234@@Z ; std::move<IronMan::Analysis::DecryptAnalysis::VariableInfo * &>
PUBLIC	??$_Copy_memmove_tail@PEAUVariableInfo@DecryptAnalysis@Analysis@IronMan@@@std@@YAPEAUVariableInfo@DecryptAnalysis@Analysis@IronMan@@QEBDQEAU1234@_K2@Z ; std::_Copy_memmove_tail<IronMan::Analysis::DecryptAnalysis::VariableInfo *>
PUBLIC	??$_To_address@PEAUInstructionInfo@DecryptAnalysis@Analysis@IronMan@@@std@@YA?A_PAEBQEAUInstructionInfo@DecryptAnalysis@Analysis@IronMan@@@Z ; std::_To_address<IronMan::Analysis::DecryptAnalysis::InstructionInfo *>
PUBLIC	??$move@AEAPEAUInstructionInfo@DecryptAnalysis@Analysis@IronMan@@@std@@YA$$QEAPEAUInstructionInfo@DecryptAnalysis@Analysis@IronMan@@AEAPEAU1234@@Z ; std::move<IronMan::Analysis::DecryptAnalysis::InstructionInfo * &>
PUBLIC	??$_Copy_memmove_tail@PEAUInstructionInfo@DecryptAnalysis@Analysis@IronMan@@@std@@YAPEAUInstructionInfo@DecryptAnalysis@Analysis@IronMan@@QEBDQEAU1234@_K2@Z ; std::_Copy_memmove_tail<IronMan::Analysis::DecryptAnalysis::InstructionInfo *>
PUBLIC	??$forward@V?$allocator@W4ZydisRegister_@@@std@@@std@@YA$$QEAV?$allocator@W4ZydisRegister_@@@0@AEAV10@@Z ; std::forward<std::allocator<enum ZydisRegister_> >
PUBLIC	??1?$_Tidy_guard@V?$vector@W4ZydisRegister_@@V?$allocator@W4ZydisRegister_@@@std@@@std@@@std@@QEAA@XZ ; std::_Tidy_guard<std::vector<enum ZydisRegister_,std::allocator<enum ZydisRegister_> > >::~_Tidy_guard<std::vector<enum ZydisRegister_,std::allocator<enum ZydisRegister_> > >
PUBLIC	??$forward@AEBQEAW4ZydisRegister_@@@std@@YAAEBQEAW4ZydisRegister_@@AEBQEAW41@@Z ; std::forward<enum ZydisRegister_ * const &>
PUBLIC	??$_Uninitialized_copy@PEAW4ZydisRegister_@@PEAW41@V?$allocator@W4ZydisRegister_@@@std@@@std@@YAPEAW4ZydisRegister_@@PEAW41@00AEAV?$allocator@W4ZydisRegister_@@@0@@Z ; std::_Uninitialized_copy<enum ZydisRegister_ *,enum ZydisRegister_ *,std::allocator<enum ZydisRegister_> >
PUBLIC	??$forward@V?$allocator@UVariableInfo@DecryptAnalysis@Analysis@IronMan@@@std@@@std@@YA$$QEAV?$allocator@UVariableInfo@DecryptAnalysis@Analysis@IronMan@@@0@AEAV10@@Z ; std::forward<std::allocator<IronMan::Analysis::DecryptAnalysis::VariableInfo> >
PUBLIC	??1?$_Tidy_guard@V?$vector@UVariableInfo@DecryptAnalysis@Analysis@IronMan@@V?$allocator@UVariableInfo@DecryptAnalysis@Analysis@IronMan@@@std@@@std@@@std@@QEAA@XZ ; std::_Tidy_guard<std::vector<IronMan::Analysis::DecryptAnalysis::VariableInfo,std::allocator<IronMan::Analysis::DecryptAnalysis::VariableInfo> > >::~_Tidy_guard<std::vector<IronMan::Analysis::DecryptAnalysis::VariableInfo,std::allocator<IronMan::Analysis::DecryptAnalysis::VariableInfo> > >
PUBLIC	??$forward@AEBQEAUVariableInfo@DecryptAnalysis@Analysis@IronMan@@@std@@YAAEBQEAUVariableInfo@DecryptAnalysis@Analysis@IronMan@@AEBQEAU1234@@Z ; std::forward<IronMan::Analysis::DecryptAnalysis::VariableInfo * const &>
PUBLIC	??$_Uninitialized_copy@PEAUVariableInfo@DecryptAnalysis@Analysis@IronMan@@PEAU1234@V?$allocator@UVariableInfo@DecryptAnalysis@Analysis@IronMan@@@std@@@std@@YAPEAUVariableInfo@DecryptAnalysis@Analysis@IronMan@@PEAU1234@00AEAV?$allocator@UVariableInfo@DecryptAnalysis@Analysis@IronMan@@@0@@Z ; std::_Uninitialized_copy<IronMan::Analysis::DecryptAnalysis::VariableInfo *,IronMan::Analysis::DecryptAnalysis::VariableInfo *,std::allocator<IronMan::Analysis::DecryptAnalysis::VariableInfo> >
PUBLIC	??$forward@V?$allocator@UInstructionInfo@DecryptAnalysis@Analysis@IronMan@@@std@@@std@@YA$$QEAV?$allocator@UInstructionInfo@DecryptAnalysis@Analysis@IronMan@@@0@AEAV10@@Z ; std::forward<std::allocator<IronMan::Analysis::DecryptAnalysis::InstructionInfo> >
PUBLIC	??1?$_Tidy_guard@V?$vector@UInstructionInfo@DecryptAnalysis@Analysis@IronMan@@V?$allocator@UInstructionInfo@DecryptAnalysis@Analysis@IronMan@@@std@@@std@@@std@@QEAA@XZ ; std::_Tidy_guard<std::vector<IronMan::Analysis::DecryptAnalysis::InstructionInfo,std::allocator<IronMan::Analysis::DecryptAnalysis::InstructionInfo> > >::~_Tidy_guard<std::vector<IronMan::Analysis::DecryptAnalysis::InstructionInfo,std::allocator<IronMan::Analysis::DecryptAnalysis::InstructionInfo> > >
PUBLIC	??$forward@AEBQEAUInstructionInfo@DecryptAnalysis@Analysis@IronMan@@@std@@YAAEBQEAUInstructionInfo@DecryptAnalysis@Analysis@IronMan@@AEBQEAU1234@@Z ; std::forward<IronMan::Analysis::DecryptAnalysis::InstructionInfo * const &>
PUBLIC	??$_Uninitialized_copy@PEAUInstructionInfo@DecryptAnalysis@Analysis@IronMan@@PEAU1234@V?$allocator@UInstructionInfo@DecryptAnalysis@Analysis@IronMan@@@std@@@std@@YAPEAUInstructionInfo@DecryptAnalysis@Analysis@IronMan@@PEAU1234@00AEAV?$allocator@UInstructionInfo@DecryptAnalysis@Analysis@IronMan@@@0@@Z ; std::_Uninitialized_copy<IronMan::Analysis::DecryptAnalysis::InstructionInfo *,IronMan::Analysis::DecryptAnalysis::InstructionInfo *,std::allocator<IronMan::Analysis::DecryptAnalysis::InstructionInfo> >
PUBLIC	??$exchange@PEAVIAsmHelper@IronMan@@$$T@std@@YAPEAVIAsmHelper@IronMan@@AEAPEAV12@$$QEA$$T@Z ; std::exchange<IronMan::IAsmHelper *,std::nullptr_t>
PUBLIC	??$forward@PEAVIAsmHelper@IronMan@@@std@@YA$$QEAPEAVIAsmHelper@IronMan@@AEAPEAV12@@Z ; std::forward<IronMan::IAsmHelper *>
PUBLIC	??$_Get_unwrapped@PEAW4ZydisRegister_@@@std@@YA?A_T$$QEAPEAW4ZydisRegister_@@@Z ; std::_Get_unwrapped<enum ZydisRegister_ *>
PUBLIC	??$_Emplace_back@AEAW4ZydisRegister_@@@?$_Uninitialized_backout_al@V?$allocator@W4ZydisRegister_@@@std@@@std@@QEAAXAEAW4ZydisRegister_@@@Z ; std::_Uninitialized_backout_al<std::allocator<enum ZydisRegister_> >::_Emplace_back<enum ZydisRegister_ &>
PUBLIC	??$_Get_unwrapped@PEAUVariableInfo@DecryptAnalysis@Analysis@IronMan@@@std@@YA?A_T$$QEAPEAUVariableInfo@DecryptAnalysis@Analysis@IronMan@@@Z ; std::_Get_unwrapped<IronMan::Analysis::DecryptAnalysis::VariableInfo *>
PUBLIC	??$_Emplace_back@AEAUVariableInfo@DecryptAnalysis@Analysis@IronMan@@@?$_Uninitialized_backout_al@V?$allocator@UVariableInfo@DecryptAnalysis@Analysis@IronMan@@@std@@@std@@QEAAXAEAUVariableInfo@DecryptAnalysis@Analysis@IronMan@@@Z ; std::_Uninitialized_backout_al<std::allocator<IronMan::Analysis::DecryptAnalysis::VariableInfo> >::_Emplace_back<IronMan::Analysis::DecryptAnalysis::VariableInfo &>
PUBLIC	??$_Get_unwrapped@PEAUInstructionInfo@DecryptAnalysis@Analysis@IronMan@@@std@@YA?A_T$$QEAPEAUInstructionInfo@DecryptAnalysis@Analysis@IronMan@@@Z ; std::_Get_unwrapped<IronMan::Analysis::DecryptAnalysis::InstructionInfo *>
PUBLIC	??$_Emplace_back@AEAUInstructionInfo@DecryptAnalysis@Analysis@IronMan@@@?$_Uninitialized_backout_al@V?$allocator@UInstructionInfo@DecryptAnalysis@Analysis@IronMan@@@std@@@std@@QEAAXAEAUInstructionInfo@DecryptAnalysis@Analysis@IronMan@@@Z ; std::_Uninitialized_backout_al<std::allocator<IronMan::Analysis::DecryptAnalysis::InstructionInfo> >::_Emplace_back<IronMan::Analysis::DecryptAnalysis::InstructionInfo &>
PUBLIC	??$move@AEAV?$allocator@W4ZydisRegister_@@@std@@@std@@YA$$QEAV?$allocator@W4ZydisRegister_@@@0@AEAV10@@Z ; std::move<std::allocator<enum ZydisRegister_> &>
PUBLIC	??$exchange@PEAW4ZydisRegister_@@$$T@std@@YAPEAW4ZydisRegister_@@AEAPEAW41@$$QEA$$T@Z ; std::exchange<enum ZydisRegister_ *,std::nullptr_t>
PUBLIC	??$?0V?$allocator@W4ZydisRegister_@@@std@@PEAW4ZydisRegister_@@PEAW42@PEAW42@@?$_Compressed_pair@V?$allocator@W4ZydisRegister_@@@std@@V?$_Vector_val@U?$_Simple_types@W4ZydisRegister_@@@std@@@2@$00@std@@QEAA@U_One_then_variadic_args_t@1@$$QEAV?$allocator@W4ZydisRegister_@@@1@$$QEAPEAW4ZydisRegister_@@22@Z ; std::_Compressed_pair<std::allocator<enum ZydisRegister_>,std::_Vector_val<std::_Simple_types<enum ZydisRegister_> >,1>::_Compressed_pair<std::allocator<enum ZydisRegister_>,std::_Vector_val<std::_Simple_types<enum ZydisRegister_> >,1><std::allocator<enum ZydisRegister_>,enum ZydisRegister_ *,enum ZydisRegister_ *,enum ZydisRegister_ *>
PUBLIC	??$move@AEAV?$allocator@UVariableInfo@DecryptAnalysis@Analysis@IronMan@@@std@@@std@@YA$$QEAV?$allocator@UVariableInfo@DecryptAnalysis@Analysis@IronMan@@@0@AEAV10@@Z ; std::move<std::allocator<IronMan::Analysis::DecryptAnalysis::VariableInfo> &>
PUBLIC	??$exchange@PEAUVariableInfo@DecryptAnalysis@Analysis@IronMan@@$$T@std@@YAPEAUVariableInfo@DecryptAnalysis@Analysis@IronMan@@AEAPEAU1234@$$QEA$$T@Z ; std::exchange<IronMan::Analysis::DecryptAnalysis::VariableInfo *,std::nullptr_t>
PUBLIC	??$?0V?$allocator@UVariableInfo@DecryptAnalysis@Analysis@IronMan@@@std@@PEAUVariableInfo@DecryptAnalysis@Analysis@IronMan@@PEAU2345@PEAU2345@@?$_Compressed_pair@V?$allocator@UVariableInfo@DecryptAnalysis@Analysis@IronMan@@@std@@V?$_Vector_val@U?$_Simple_types@UVariableInfo@DecryptAnalysis@Analysis@IronMan@@@std@@@2@$00@std@@QEAA@U_One_then_variadic_args_t@1@$$QEAV?$allocator@UVariableInfo@DecryptAnalysis@Analysis@IronMan@@@1@$$QEAPEAUVariableInfo@DecryptAnalysis@Analysis@IronMan@@22@Z ; std::_Compressed_pair<std::allocator<IronMan::Analysis::DecryptAnalysis::VariableInfo>,std::_Vector_val<std::_Simple_types<IronMan::Analysis::DecryptAnalysis::VariableInfo> >,1>::_Compressed_pair<std::allocator<IronMan::Analysis::DecryptAnalysis::VariableInfo>,std::_Vector_val<std::_Simple_types<IronMan::Analysis::DecryptAnalysis::VariableInfo> >,1><std::allocator<IronMan::Analysis::DecryptAnalysis::VariableInfo>,IronMan::Analysis::DecryptAnalysis::VariableInfo *,IronMan::Analysis::DecryptAnalysis::VariableInfo *,IronMan::Analysis::DecryptAnalysis::VariableInfo *>
PUBLIC	??$move@AEAV?$allocator@UInstructionInfo@DecryptAnalysis@Analysis@IronMan@@@std@@@std@@YA$$QEAV?$allocator@UInstructionInfo@DecryptAnalysis@Analysis@IronMan@@@0@AEAV10@@Z ; std::move<std::allocator<IronMan::Analysis::DecryptAnalysis::InstructionInfo> &>
PUBLIC	??$exchange@PEAUInstructionInfo@DecryptAnalysis@Analysis@IronMan@@$$T@std@@YAPEAUInstructionInfo@DecryptAnalysis@Analysis@IronMan@@AEAPEAU1234@$$QEA$$T@Z ; std::exchange<IronMan::Analysis::DecryptAnalysis::InstructionInfo *,std::nullptr_t>
PUBLIC	??$?0V?$allocator@UInstructionInfo@DecryptAnalysis@Analysis@IronMan@@@std@@PEAUInstructionInfo@DecryptAnalysis@Analysis@IronMan@@PEAU2345@PEAU2345@@?$_Compressed_pair@V?$allocator@UInstructionInfo@DecryptAnalysis@Analysis@IronMan@@@std@@V?$_Vector_val@U?$_Simple_types@UInstructionInfo@DecryptAnalysis@Analysis@IronMan@@@std@@@2@$00@std@@QEAA@U_One_then_variadic_args_t@1@$$QEAV?$allocator@UInstructionInfo@DecryptAnalysis@Analysis@IronMan@@@1@$$QEAPEAUInstructionInfo@DecryptAnalysis@Analysis@IronMan@@22@Z ; std::_Compressed_pair<std::allocator<IronMan::Analysis::DecryptAnalysis::InstructionInfo>,std::_Vector_val<std::_Simple_types<IronMan::Analysis::DecryptAnalysis::InstructionInfo> >,1>::_Compressed_pair<std::allocator<IronMan::Analysis::DecryptAnalysis::InstructionInfo>,std::_Vector_val<std::_Simple_types<IronMan::Analysis::DecryptAnalysis::InstructionInfo> >,1><std::allocator<IronMan::Analysis::DecryptAnalysis::InstructionInfo>,IronMan::Analysis::DecryptAnalysis::InstructionInfo *,IronMan::Analysis::DecryptAnalysis::InstructionInfo *,IronMan::Analysis::DecryptAnalysis::InstructionInfo *>
PUBLIC	??$forward@AEAW4ZydisRegister_@@@std@@YAAEAW4ZydisRegister_@@AEAW41@@Z ; std::forward<enum ZydisRegister_ &>
PUBLIC	??$construct@W4ZydisRegister_@@AEAW41@@?$_Default_allocator_traits@V?$allocator@W4ZydisRegister_@@@std@@@std@@SAXAEAV?$allocator@W4ZydisRegister_@@@1@QEAW4ZydisRegister_@@AEAW43@@Z ; std::_Default_allocator_traits<std::allocator<enum ZydisRegister_> >::construct<enum ZydisRegister_,enum ZydisRegister_ &>
PUBLIC	??$forward@AEAUVariableInfo@DecryptAnalysis@Analysis@IronMan@@@std@@YAAEAUVariableInfo@DecryptAnalysis@Analysis@IronMan@@AEAU1234@@Z ; std::forward<IronMan::Analysis::DecryptAnalysis::VariableInfo &>
PUBLIC	??$construct@UVariableInfo@DecryptAnalysis@Analysis@IronMan@@AEAU1234@@?$_Default_allocator_traits@V?$allocator@UVariableInfo@DecryptAnalysis@Analysis@IronMan@@@std@@@std@@SAXAEAV?$allocator@UVariableInfo@DecryptAnalysis@Analysis@IronMan@@@1@QEAUVariableInfo@DecryptAnalysis@Analysis@IronMan@@AEAU3456@@Z ; std::_Default_allocator_traits<std::allocator<IronMan::Analysis::DecryptAnalysis::VariableInfo> >::construct<IronMan::Analysis::DecryptAnalysis::VariableInfo,IronMan::Analysis::DecryptAnalysis::VariableInfo &>
PUBLIC	??$forward@AEAUInstructionInfo@DecryptAnalysis@Analysis@IronMan@@@std@@YAAEAUInstructionInfo@DecryptAnalysis@Analysis@IronMan@@AEAU1234@@Z ; std::forward<IronMan::Analysis::DecryptAnalysis::InstructionInfo &>
PUBLIC	??$construct@UInstructionInfo@DecryptAnalysis@Analysis@IronMan@@AEAU1234@@?$_Default_allocator_traits@V?$allocator@UInstructionInfo@DecryptAnalysis@Analysis@IronMan@@@std@@@std@@SAXAEAV?$allocator@UInstructionInfo@DecryptAnalysis@Analysis@IronMan@@@1@QEAUInstructionInfo@DecryptAnalysis@Analysis@IronMan@@AEAU3456@@Z ; std::_Default_allocator_traits<std::allocator<IronMan::Analysis::DecryptAnalysis::InstructionInfo> >::construct<IronMan::Analysis::DecryptAnalysis::InstructionInfo,IronMan::Analysis::DecryptAnalysis::InstructionInfo &>
PUBLIC	??$forward@PEAUVariableInfo@DecryptAnalysis@Analysis@IronMan@@@std@@YA$$QEAPEAUVariableInfo@DecryptAnalysis@Analysis@IronMan@@AEAPEAU1234@@Z ; std::forward<IronMan::Analysis::DecryptAnalysis::VariableInfo *>
PUBLIC	??$forward@PEAUInstructionInfo@DecryptAnalysis@Analysis@IronMan@@@std@@YA$$QEAPEAUInstructionInfo@DecryptAnalysis@Analysis@IronMan@@AEAPEAU1234@@Z ; std::forward<IronMan::Analysis::DecryptAnalysis::InstructionInfo *>
PUBLIC	??_7exception@std@@6B@				; std::exception::`vftable'
PUBLIC	??_C@_0BC@EOODALEL@Unknown?5exception@		; `string'
PUBLIC	??_7bad_alloc@std@@6B@				; std::bad_alloc::`vftable'
PUBLIC	??_7bad_array_new_length@std@@6B@		; std::bad_array_new_length::`vftable'
PUBLIC	??_C@_0BF@KINCDENJ@bad?5array?5new?5length@	; `string'
PUBLIC	??_R0?AVexception@std@@@8			; std::exception `RTTI Type Descriptor'
PUBLIC	_CT??_R0?AVexception@std@@@8??0exception@std@@QEAA@AEBV01@@Z24
PUBLIC	_TI3?AVbad_array_new_length@std@@
PUBLIC	_CTA3?AVbad_array_new_length@std@@
PUBLIC	??_R0?AVbad_array_new_length@std@@@8		; std::bad_array_new_length `RTTI Type Descriptor'
PUBLIC	_CT??_R0?AVbad_array_new_length@std@@@8??0bad_array_new_length@std@@QEAA@AEBV01@@Z24
PUBLIC	??_R0?AVbad_alloc@std@@@8			; std::bad_alloc `RTTI Type Descriptor'
PUBLIC	_CT??_R0?AVbad_alloc@std@@@8??0bad_alloc@std@@QEAA@AEBV01@@Z24
PUBLIC	?_Fake_alloc@std@@3U_Fake_allocator@1@B		; std::_Fake_alloc
PUBLIC	??_7AnalysisBase@Analysis@IronMan@@6B@		; IronMan::Analysis::AnalysisBase::`vftable'
PUBLIC	??_7DecryptAnalysis@Analysis@IronMan@@6B@	; IronMan::Analysis::DecryptAnalysis::`vftable'
PUBLIC	?UpdateStartTime@DMAHandler@IronMan@@0V?$time_point@Usystem_clock@chrono@std@@V?$duration@_JU?$ratio@$00$0JIJGIA@@std@@@23@@chrono@std@@A ; IronMan::DMAHandler::UpdateStartTime
PUBLIC	?ScatterWriteArray@DMAHandler@IronMan@@0V?$shared_ptr@V?$unordered_map@PEAXV?$vector@UScatterStruct@IronMan@@V?$allocator@UScatterStruct@IronMan@@@std@@@std@@U?$hash@PEAX@2@U?$equal_to@PEAX@2@V?$allocator@U?$pair@QEAXV?$vector@UScatterStruct@IronMan@@V?$allocator@UScatterStruct@IronMan@@@std@@@std@@@std@@@2@@std@@@std@@A ; IronMan::DMAHandler::ScatterWriteArray
PUBLIC	?ScatterReadArray@DMAHandler@IronMan@@0V?$shared_ptr@V?$unordered_map@PEAXV?$vector@UScatterStruct@IronMan@@V?$allocator@UScatterStruct@IronMan@@@std@@@std@@U?$hash@PEAX@2@U?$equal_to@PEAX@2@V?$allocator@U?$pair@QEAXV?$vector@UScatterStruct@IronMan@@V?$allocator@UScatterStruct@IronMan@@@std@@@std@@@std@@@2@@std@@@std@@A ; IronMan::DMAHandler::ScatterReadArray
PUBLIC	?processInfo@DMAHandler@IronMan@@0UBaseProcessInfo@2@A ; IronMan::DMAHandler::processInfo
PUBLIC	??_C@_0CA@BGMGHEHE@mBase?3?$CFp?$HMmSize?3?$CFx?$HMentryPoint?3?$CFp@ ; `string'
PUBLIC	??_C@_0BC@ECCJIJFO@?$FL?h?$LO?$JD?e?$IH?$LK?d?$LP?$KB?f?$IB?$KP?$FN?5?$CFs@ ; `string'
PUBLIC	??_C@_0BH@LECIHMED@scanDecryptions?5Failed@	; `string'
PUBLIC	??_C@_0BA@BBCLPIKN@address?5invalid@		; `string'
PUBLIC	?id@?$num_put@DV?$ostreambuf_iterator@DU?$char_traits@D@std@@@std@@@std@@2V0locale@2@A ; std::num_put<char,std::ostreambuf_iterator<char,std::char_traits<char> > >::id
PUBLIC	?id@?$codecvt@DDU_Mbstatet@@@std@@2V0locale@2@A	; std::codecvt<char,char,_Mbstatet>::id
PUBLIC	?id@?$numpunct@D@std@@2V0locale@2@A		; std::numpunct<char>::id
PUBLIC	?id@?$collate@D@std@@2V0locale@2@A		; std::collate<char>::id
PUBLIC	??_C@_0BA@FOIKENOD@vector?5too?5long@		; `string'
PUBLIC	??_R4exception@std@@6B@				; std::exception::`RTTI Complete Object Locator'
PUBLIC	??_R3exception@std@@8				; std::exception::`RTTI Class Hierarchy Descriptor'
PUBLIC	??_R2exception@std@@8				; std::exception::`RTTI Base Class Array'
PUBLIC	??_R1A@?0A@EA@exception@std@@8			; std::exception::`RTTI Base Class Descriptor at (0,-1,0,64)'
PUBLIC	??_R4bad_array_new_length@std@@6B@		; std::bad_array_new_length::`RTTI Complete Object Locator'
PUBLIC	??_R3bad_array_new_length@std@@8		; std::bad_array_new_length::`RTTI Class Hierarchy Descriptor'
PUBLIC	??_R2bad_array_new_length@std@@8		; std::bad_array_new_length::`RTTI Base Class Array'
PUBLIC	??_R1A@?0A@EA@bad_array_new_length@std@@8	; std::bad_array_new_length::`RTTI Base Class Descriptor at (0,-1,0,64)'
PUBLIC	??_R1A@?0A@EA@bad_alloc@std@@8			; std::bad_alloc::`RTTI Base Class Descriptor at (0,-1,0,64)'
PUBLIC	??_R3bad_alloc@std@@8				; std::bad_alloc::`RTTI Class Hierarchy Descriptor'
PUBLIC	??_R2bad_alloc@std@@8				; std::bad_alloc::`RTTI Base Class Array'
PUBLIC	??_R4bad_alloc@std@@6B@				; std::bad_alloc::`RTTI Complete Object Locator'
PUBLIC	??_R4AnalysisBase@Analysis@IronMan@@6B@		; IronMan::Analysis::AnalysisBase::`RTTI Complete Object Locator'
PUBLIC	??_R0?AVAnalysisBase@Analysis@IronMan@@@8	; IronMan::Analysis::AnalysisBase `RTTI Type Descriptor'
PUBLIC	??_R3AnalysisBase@Analysis@IronMan@@8		; IronMan::Analysis::AnalysisBase::`RTTI Class Hierarchy Descriptor'
PUBLIC	??_R2AnalysisBase@Analysis@IronMan@@8		; IronMan::Analysis::AnalysisBase::`RTTI Base Class Array'
PUBLIC	??_R1A@?0A@EA@AnalysisBase@Analysis@IronMan@@8	; IronMan::Analysis::AnalysisBase::`RTTI Base Class Descriptor at (0,-1,0,64)'
PUBLIC	??_R4DecryptAnalysis@Analysis@IronMan@@6B@	; IronMan::Analysis::DecryptAnalysis::`RTTI Complete Object Locator'
PUBLIC	??_R0?AVDecryptAnalysis@Analysis@IronMan@@@8	; IronMan::Analysis::DecryptAnalysis `RTTI Type Descriptor'
PUBLIC	??_R3DecryptAnalysis@Analysis@IronMan@@8	; IronMan::Analysis::DecryptAnalysis::`RTTI Class Hierarchy Descriptor'
PUBLIC	??_R2DecryptAnalysis@Analysis@IronMan@@8	; IronMan::Analysis::DecryptAnalysis::`RTTI Base Class Array'
PUBLIC	??_R1A@?0A@EA@DecryptAnalysis@Analysis@IronMan@@8 ; IronMan::Analysis::DecryptAnalysis::`RTTI Base Class Descriptor at (0,-1,0,64)'
PUBLIC	??_R0?AV?$_Func_base@_KW4ZydisRegister_@@@std@@@8 ; std::_Func_base<unsigned __int64,enum ZydisRegister_> `RTTI Type Descriptor'
PUBLIC	??_R3?$_Func_base@_KW4ZydisRegister_@@@std@@8	; std::_Func_base<unsigned __int64,enum ZydisRegister_>::`RTTI Class Hierarchy Descriptor'
PUBLIC	??_R2?$_Func_base@_KW4ZydisRegister_@@@std@@8	; std::_Func_base<unsigned __int64,enum ZydisRegister_>::`RTTI Base Class Array'
PUBLIC	??_R1A@?0A@EA@?$_Func_base@_KW4ZydisRegister_@@@std@@8 ; std::_Func_base<unsigned __int64,enum ZydisRegister_>::`RTTI Base Class Descriptor at (0,-1,0,64)'
EXTRN	_purecall:PROC
EXTRN	??2@YAPEAX_K@Z:PROC				; operator new
EXTRN	??3@YAXPEAX_K@Z:PROC				; operator delete
EXTRN	atexit:PROC
EXTRN	_invalid_parameter_noinfo_noreturn:PROC
EXTRN	memcpy:PROC
EXTRN	memmove:PROC
EXTRN	memset:PROC
EXTRN	free:PROC
EXTRN	malloc:PROC
EXTRN	?_Xlength_error@std@@YAXPEBD@Z:PROC		; std::_Xlength_error
EXTRN	__std_exception_copy:PROC
EXTRN	__std_exception_destroy:PROC
EXTRN	??_Eexception@std@@UEAAPEAXI@Z:PROC		; std::exception::`vector deleting destructor'
EXTRN	??_Ebad_alloc@std@@UEAAPEAXI@Z:PROC		; std::bad_alloc::`vector deleting destructor'
EXTRN	??_Ebad_array_new_length@std@@UEAAPEAXI@Z:PROC	; std::bad_array_new_length::`vector deleting destructor'
EXTRN	__imp_GetStdHandle:PROC
EXTRN	__imp_SetConsoleTextAttribute:PROC
EXTRN	?_Xbad_function_call@std@@YAXXZ:PROC		; std::_Xbad_function_call
EXTRN	_Xtime_get_ticks:PROC
EXTRN	?Print@Console@IronMan@@YA_NPEBDZZ:PROC		; IronMan::Console::Print
EXTRN	?FormatString@Utils@IronMan@@YA?AV?$basic_string@DU?$char_traits@D@std@@V?$allocator@D@2@@std@@PEBDZZ:PROC ; IronMan::Utils::FormatString
EXTRN	?IsSafeReadPtr@Utils@IronMan@@YA_NPEAX_K@Z:PROC	; IronMan::Utils::IsSafeReadPtr
EXTRN	__imp_WSAStartup:PROC
EXTRN	__imp_WSACleanup:PROC
EXTRN	OPENSSL_init_ssl:PROC
EXTRN	??0Zydis@IronMan@@QEAA@XZ:PROC			; IronMan::Zydis::Zydis
EXTRN	??1Zydis@IronMan@@QEAA@XZ:PROC			; IronMan::Zydis::~Zydis
EXTRN	?Disassemble@Zydis@IronMan@@QEAA_N_KQEBE@Z:PROC	; IronMan::Zydis::Disassemble
EXTRN	?GetInstr@Zydis@IronMan@@QEBAPEBUZydisDecodedInstruction_@@XZ:PROC ; IronMan::Zydis::GetInstr
EXTRN	?Size@Zydis@IronMan@@QEBAHXZ:PROC		; IronMan::Zydis::Size
EXTRN	?GetId@Zydis@IronMan@@QEBA?AW4ZydisMnemonic_@@XZ:PROC ; IronMan::Zydis::GetId
EXTRN	?OpCount@Zydis@IronMan@@QEBAHXZ:PROC		; IronMan::Zydis::OpCount
EXTRN	??AZydis@IronMan@@QEBAAEBUZydisDecodedOperand_@@H@Z:PROC ; IronMan::Zydis::operator[]
EXTRN	?BranchDestination@Zydis@IronMan@@QEBA_KXZ:PROC	; IronMan::Zydis::BranchDestination
EXTRN	?ResolveOpValue@Zydis@IronMan@@QEBA_KHAEBV?$function@$$A6A_KW4ZydisRegister_@@@Z@std@@@Z:PROC ; IronMan::Zydis::ResolveOpValue
EXTRN	?IsBranchType@Zydis@IronMan@@QEBA_NI@Z:PROC	; IronMan::Zydis::IsBranchType
EXTRN	?_newLabel@Assembler@asmjit@@QEAAIPEAULabel@2@@Z:PROC ; asmjit::Assembler::_newLabel
EXTRN	?emit@Assembler@asmjit@@QEAAIIAEBUOperand@2@@Z:PROC ; asmjit::Assembler::emit
EXTRN	?emit@Assembler@asmjit@@QEAAIIAEBUOperand@2@0@Z:PROC ; asmjit::Assembler::emit
EXTRN	?emit@Assembler@asmjit@@QEAAIIAEBUOperand@2@H@Z:PROC ; asmjit::Assembler::emit
EXTRN	?emit@Assembler@asmjit@@QEAAIIAEBUOperand@2@_K@Z:PROC ; asmjit::Assembler::emit
EXTRN	??0AsmHelper64@IronMan@@QEAA@XZ:PROC		; IronMan::AsmHelper64::AsmHelper64
EXTRN	??1AnalysisBase@Analysis@IronMan@@UEAA@XZ:PROC	; IronMan::Analysis::AnalysisBase::~AnalysisBase
EXTRN	?GpRegTo64@AnalysisBase@Analysis@IronMan@@IEAA?AW4ZydisRegister_@@W44@@Z:PROC ; IronMan::Analysis::AnalysisBase::GpRegTo64
EXTRN	?ToGpReg@AnalysisBase@Analysis@IronMan@@IEAA?AUX86GpReg@asmjit@@W4ZydisRegister_@@@Z:PROC ; IronMan::Analysis::AnalysisBase::ToGpReg
EXTRN	??_EAnalysisBase@Analysis@IronMan@@UEAAPEAXI@Z:PROC ; IronMan::Analysis::AnalysisBase::`vector deleting destructor'
EXTRN	??_EDecryptAnalysis@Analysis@IronMan@@UEAAPEAXI@Z:PROC ; IronMan::Analysis::DecryptAnalysis::`vector deleting destructor'
EXTRN	?Instance@DMAHandler@IronMan@@SAAEAV12@XZ:PROC	; IronMan::DMAHandler::Instance
EXTRN	?Read@DMAHandler@IronMan@@QEBAH_K00@Z:PROC	; IronMan::DMAHandler::Read
EXTRN	_CxxThrowException:PROC
EXTRN	__CxxFrameHandler4:PROC
EXTRN	__GSHandlerCheck:PROC
EXTRN	__GSHandlerCheck_EH4:PROC
EXTRN	__security_check_cookie:PROC
EXTRN	??_7type_info@@6B@:BYTE				; type_info::`vftable'
EXTRN	?g_PatternData@Core@IronMan@@3UPatternData@12@A:BYTE ; IronMan::Core::g_PatternData
EXTRN	__security_cookie:QWORD
_BSS	SEGMENT
?wsinit_@detail@httplib@@3VWSInit@12@A DB 01H DUP (?)	; httplib::detail::wsinit_
	ALIGN	4

?sslinit_@detail@httplib@@3VSSLInit@12@A DB 01H DUP (?)	; httplib::detail::sslinit_
_BSS	ENDS
;	COMDAT ?UpdateStartTime@DMAHandler@IronMan@@0V?$time_point@Usystem_clock@chrono@std@@V?$duration@_JU?$ratio@$00$0JIJGIA@@std@@@23@@chrono@std@@A
_BSS	SEGMENT
?UpdateStartTime@DMAHandler@IronMan@@0V?$time_point@Usystem_clock@chrono@std@@V?$duration@_JU?$ratio@$00$0JIJGIA@@std@@@23@@chrono@std@@A DQ 01H DUP (?) ; IronMan::DMAHandler::UpdateStartTime
_BSS	ENDS
;	COMDAT ?processInfo@DMAHandler@IronMan@@0UBaseProcessInfo@2@A
_BSS	SEGMENT
?processInfo@DMAHandler@IronMan@@0UBaseProcessInfo@2@A DB 038H DUP (?) ; IronMan::DMAHandler::processInfo
_BSS	ENDS
;	COMDAT ?id@?$num_put@DV?$ostreambuf_iterator@DU?$char_traits@D@std@@@std@@@std@@2V0locale@2@A
_BSS	SEGMENT
?id@?$num_put@DV?$ostreambuf_iterator@DU?$char_traits@D@std@@@std@@@std@@2V0locale@2@A DQ 01H DUP (?) ; std::num_put<char,std::ostreambuf_iterator<char,std::char_traits<char> > >::id
_BSS	ENDS
;	COMDAT ?id@?$codecvt@DDU_Mbstatet@@@std@@2V0locale@2@A
_BSS	SEGMENT
?id@?$codecvt@DDU_Mbstatet@@@std@@2V0locale@2@A DQ 01H DUP (?) ; std::codecvt<char,char,_Mbstatet>::id
_BSS	ENDS
;	COMDAT ?id@?$numpunct@D@std@@2V0locale@2@A
_BSS	SEGMENT
?id@?$numpunct@D@std@@2V0locale@2@A DQ 01H DUP (?)	; std::numpunct<char>::id
_BSS	ENDS
;	COMDAT ?id@?$collate@D@std@@2V0locale@2@A
_BSS	SEGMENT
?id@?$collate@D@std@@2V0locale@2@A DQ 01H DUP (?)	; std::collate<char>::id
_BSS	ENDS
;	COMDAT pdata
pdata	SEGMENT
$pdata$??_H@YAXPEAX_K1P6APEAX0@Z@Z DD imagerel $LN5
	DD	imagerel $LN5+102
	DD	imagerel $unwind$??_H@YAXPEAX_K1P6APEAX0@Z@Z
pdata	ENDS
;	COMDAT pdata
pdata	SEGMENT
$pdata$??0exception@std@@QEAA@QEBDH@Z DD imagerel $LN3
	DD	imagerel $LN3+73
	DD	imagerel $unwind$??0exception@std@@QEAA@QEBDH@Z
pdata	ENDS
;	COMDAT pdata
pdata	SEGMENT
$pdata$??0exception@std@@QEAA@AEBV01@@Z DD imagerel $LN3
	DD	imagerel $LN3+89
	DD	imagerel $unwind$??0exception@std@@QEAA@AEBV01@@Z
pdata	ENDS
;	COMDAT pdata
pdata	SEGMENT
$pdata$??1exception@std@@UEAA@XZ DD imagerel $LN3
	DD	imagerel $LN3+47
	DD	imagerel $unwind$??1exception@std@@UEAA@XZ
pdata	ENDS
;	COMDAT pdata
pdata	SEGMENT
$pdata$?what@exception@std@@UEBAPEBDXZ DD imagerel $LN5
	DD	imagerel $LN5+56
	DD	imagerel $unwind$?what@exception@std@@UEBAPEBDXZ
pdata	ENDS
;	COMDAT pdata
pdata	SEGMENT
$pdata$??_Gexception@std@@UEAAPEAXI@Z DD imagerel $LN4
	DD	imagerel $LN4+60
	DD	imagerel $unwind$??_Gexception@std@@UEAAPEAXI@Z
pdata	ENDS
;	COMDAT pdata
pdata	SEGMENT
$pdata$??0bad_alloc@std@@AEAA@QEBD@Z DD imagerel $LN4
	DD	imagerel $LN4+61
	DD	imagerel $unwind$??0bad_alloc@std@@AEAA@QEBD@Z
pdata	ENDS
;	COMDAT pdata
pdata	SEGMENT
$pdata$?dtor$0@?0???0bad_alloc@std@@AEAA@QEBD@Z@4HA DD imagerel ?dtor$0@?0???0bad_alloc@std@@AEAA@QEBD@Z@4HA
	DD	imagerel ?dtor$0@?0???0bad_alloc@std@@AEAA@QEBD@Z@4HA+24
	DD	imagerel $unwind$?dtor$0@?0???0bad_alloc@std@@AEAA@QEBD@Z@4HA
pdata	ENDS
;	COMDAT pdata
pdata	SEGMENT
$pdata$??1bad_alloc@std@@UEAA@XZ DD imagerel $LN4
	DD	imagerel $LN4+25
	DD	imagerel $unwind$??1bad_alloc@std@@UEAA@XZ
pdata	ENDS
;	COMDAT pdata
pdata	SEGMENT
$pdata$?dtor$0@?0???1bad_alloc@std@@UEAA@XZ@4HA DD imagerel ?dtor$0@?0???1bad_alloc@std@@UEAA@XZ@4HA
	DD	imagerel ?dtor$0@?0???1bad_alloc@std@@UEAA@XZ@4HA+24
	DD	imagerel $unwind$?dtor$0@?0???1bad_alloc@std@@UEAA@XZ@4HA
pdata	ENDS
;	COMDAT pdata
pdata	SEGMENT
$pdata$??0bad_alloc@std@@QEAA@AEBV01@@Z DD imagerel $LN4
	DD	imagerel $LN4+55
	DD	imagerel $unwind$??0bad_alloc@std@@QEAA@AEBV01@@Z
pdata	ENDS
;	COMDAT pdata
pdata	SEGMENT
$pdata$?dtor$0@?0???0bad_alloc@std@@QEAA@AEBV01@@Z@4HA DD imagerel ?dtor$0@?0???0bad_alloc@std@@QEAA@AEBV01@@Z@4HA
	DD	imagerel ?dtor$0@?0???0bad_alloc@std@@QEAA@AEBV01@@Z@4HA+24
	DD	imagerel $unwind$?dtor$0@?0???0bad_alloc@std@@QEAA@AEBV01@@Z@4HA
pdata	ENDS
;	COMDAT pdata
pdata	SEGMENT
$pdata$??_Gbad_alloc@std@@UEAAPEAXI@Z DD imagerel $LN4
	DD	imagerel $LN4+60
	DD	imagerel $unwind$??_Gbad_alloc@std@@UEAAPEAXI@Z
pdata	ENDS
;	COMDAT pdata
pdata	SEGMENT
$pdata$??0bad_array_new_length@std@@QEAA@XZ DD imagerel $LN4
	DD	imagerel $LN4+52
	DD	imagerel $unwind$??0bad_array_new_length@std@@QEAA@XZ
pdata	ENDS
;	COMDAT pdata
pdata	SEGMENT
$pdata$?dtor$0@?0???0bad_array_new_length@std@@QEAA@XZ@4HA DD imagerel ?dtor$0@?0???0bad_array_new_length@std@@QEAA@XZ@4HA
	DD	imagerel ?dtor$0@?0???0bad_array_new_length@std@@QEAA@XZ@4HA+24
	DD	imagerel $unwind$?dtor$0@?0???0bad_array_new_length@std@@QEAA@XZ@4HA
pdata	ENDS
;	COMDAT pdata
pdata	SEGMENT
$pdata$??1bad_array_new_length@std@@UEAA@XZ DD imagerel $LN4
	DD	imagerel $LN4+25
	DD	imagerel $unwind$??1bad_array_new_length@std@@UEAA@XZ
pdata	ENDS
;	COMDAT pdata
pdata	SEGMENT
$pdata$?dtor$0@?0???1bad_array_new_length@std@@UEAA@XZ@4HA DD imagerel ?dtor$0@?0???1bad_array_new_length@std@@UEAA@XZ@4HA
	DD	imagerel ?dtor$0@?0???1bad_array_new_length@std@@UEAA@XZ@4HA+24
	DD	imagerel $unwind$?dtor$0@?0???1bad_array_new_length@std@@UEAA@XZ@4HA
pdata	ENDS
;	COMDAT pdata
pdata	SEGMENT
$pdata$??0bad_array_new_length@std@@QEAA@AEBV01@@Z DD imagerel $LN4
	DD	imagerel $LN4+55
	DD	imagerel $unwind$??0bad_array_new_length@std@@QEAA@AEBV01@@Z
pdata	ENDS
;	COMDAT pdata
pdata	SEGMENT
$pdata$?dtor$0@?0???0bad_array_new_length@std@@QEAA@AEBV01@@Z@4HA DD imagerel ?dtor$0@?0???0bad_array_new_length@std@@QEAA@AEBV01@@Z@4HA
	DD	imagerel ?dtor$0@?0???0bad_array_new_length@std@@QEAA@AEBV01@@Z@4HA+24
	DD	imagerel $unwind$?dtor$0@?0???0bad_array_new_length@std@@QEAA@AEBV01@@Z@4HA
pdata	ENDS
;	COMDAT pdata
pdata	SEGMENT
$pdata$??_Gbad_array_new_length@std@@UEAAPEAXI@Z DD imagerel $LN4
	DD	imagerel $LN4+60
	DD	imagerel $unwind$??_Gbad_array_new_length@std@@UEAAPEAXI@Z
pdata	ENDS
;	COMDAT pdata
pdata	SEGMENT
$pdata$?_Throw_bad_array_new_length@std@@YAXXZ DD imagerel $LN3
	DD	imagerel $LN3+37
	DD	imagerel $unwind$?_Throw_bad_array_new_length@std@@YAXXZ
pdata	ENDS
;	COMDAT pdata
pdata	SEGMENT
$pdata$?_Allocate@_Default_allocate_traits@std@@SAPEAX_K@Z DD imagerel $LN3
	DD	imagerel $LN3+24
	DD	imagerel $unwind$?_Allocate@_Default_allocate_traits@std@@SAPEAX_K@Z
pdata	ENDS
;	COMDAT pdata
pdata	SEGMENT
$pdata$?_Adjust_manually_vector_aligned@std@@YAXAEAPEAXAEA_K@Z DD imagerel $LN11
	DD	imagerel $LN11+154
	DD	imagerel $unwind$?_Adjust_manually_vector_aligned@std@@YAXAEAPEAXAEA_K@Z
pdata	ENDS
;	COMDAT pdata
pdata	SEGMENT
$pdata$?deallocate@?$allocator@D@std@@QEAAXQEAD_K@Z DD imagerel $LN3
	DD	imagerel $LN3+40
	DD	imagerel $unwind$?deallocate@?$allocator@D@std@@QEAAXQEAD_K@Z
pdata	ENDS
;	COMDAT pdata
pdata	SEGMENT
$pdata$??0?$_String_val@U?$_Simple_types@D@std@@@std@@QEAA@XZ DD imagerel $LN4
	DD	imagerel $LN4+59
	DD	imagerel $unwind$??0?$_String_val@U?$_Simple_types@D@std@@@std@@QEAA@XZ
pdata	ENDS
;	COMDAT pdata
pdata	SEGMENT
$pdata$?dtor$0@?0???0?$_String_val@U?$_Simple_types@D@std@@@std@@QEAA@XZ@4HA DD imagerel ?dtor$0@?0???0?$_String_val@U?$_Simple_types@D@std@@@std@@QEAA@XZ@4HA
	DD	imagerel ?dtor$0@?0???0?$_String_val@U?$_Simple_types@D@std@@@std@@QEAA@XZ@4HA+24
	DD	imagerel $unwind$?dtor$0@?0???0?$_String_val@U?$_Simple_types@D@std@@@std@@QEAA@XZ@4HA
pdata	ENDS
;	COMDAT pdata
pdata	SEGMENT
$pdata$?_Myptr@?$_String_val@U?$_Simple_types@D@std@@@std@@QEBAPEBDXZ DD imagerel $LN4
	DD	imagerel $LN4+64
	DD	imagerel $unwind$?_Myptr@?$_String_val@U?$_Simple_types@D@std@@@std@@QEBAPEBDXZ
pdata	ENDS
;	COMDAT pdata
pdata	SEGMENT
$pdata$?_Large_mode_engaged@?$_String_val@U?$_Simple_types@D@std@@@std@@QEBA_NXZ DD imagerel $LN5
	DD	imagerel $LN5+46
	DD	imagerel $unwind$?_Large_mode_engaged@?$_String_val@U?$_Simple_types@D@std@@@std@@QEBA_NXZ
pdata	ENDS
;	COMDAT pdata
pdata	SEGMENT
$pdata$??0_Bxty@?$_String_val@U?$_Simple_types@D@std@@@std@@QEAA@XZ DD imagerel $LN3
	DD	imagerel $LN3+32
	DD	imagerel $unwind$??0_Bxty@?$_String_val@U?$_Simple_types@D@std@@@std@@QEAA@XZ
pdata	ENDS
;	COMDAT pdata
pdata	SEGMENT
$pdata$?_Switch_to_buf@_Bxty@?$_String_val@U?$_Simple_types@D@std@@@std@@QEAAXXZ DD imagerel $LN3
	DD	imagerel $LN3+28
	DD	imagerel $unwind$?_Switch_to_buf@_Bxty@?$_String_val@U?$_Simple_types@D@std@@@std@@QEAAXXZ
pdata	ENDS
;	COMDAT pdata
pdata	SEGMENT
$pdata$??1?$_String_val@U?$_Simple_types@D@std@@@std@@QEAA@XZ DD imagerel $LN4
	DD	imagerel $LN4+28
	DD	imagerel $unwind$??1?$_String_val@U?$_Simple_types@D@std@@@std@@QEAA@XZ
pdata	ENDS
;	COMDAT pdata
pdata	SEGMENT
$pdata$?dtor$0@?0???1?$_String_val@U?$_Simple_types@D@std@@@std@@QEAA@XZ@4HA DD imagerel ?dtor$0@?0???1?$_String_val@U?$_Simple_types@D@std@@@std@@QEAA@XZ@4HA
	DD	imagerel ?dtor$0@?0???1?$_String_val@U?$_Simple_types@D@std@@@std@@QEAA@XZ@4HA+24
	DD	imagerel $unwind$?dtor$0@?0???1?$_String_val@U?$_Simple_types@D@std@@@std@@QEAA@XZ@4HA
pdata	ENDS
;	COMDAT pdata
pdata	SEGMENT
$pdata$??0?$basic_string@DU?$char_traits@D@std@@V?$allocator@D@2@@std@@QEAA@XZ DD imagerel $LN4
	DD	imagerel $LN4+56
	DD	imagerel $unwind$??0?$basic_string@DU?$char_traits@D@std@@V?$allocator@D@2@@std@@QEAA@XZ
pdata	ENDS
;	COMDAT pdata
pdata	SEGMENT
$pdata$?dtor$0@?0???0?$basic_string@DU?$char_traits@D@std@@V?$allocator@D@2@@std@@QEAA@XZ@4HA DD imagerel ?dtor$0@?0???0?$basic_string@DU?$char_traits@D@std@@V?$allocator@D@2@@std@@QEAA@XZ@4HA
	DD	imagerel ?dtor$0@?0???0?$basic_string@DU?$char_traits@D@std@@V?$allocator@D@2@@std@@QEAA@XZ@4HA+24
	DD	imagerel $unwind$?dtor$0@?0???0?$basic_string@DU?$char_traits@D@std@@V?$allocator@D@2@@std@@QEAA@XZ@4HA
pdata	ENDS
;	COMDAT pdata
pdata	SEGMENT
$pdata$?_Deallocate_for_capacity@?$basic_string@DU?$char_traits@D@std@@V?$allocator@D@2@@std@@CAXAEAV?$allocator@D@2@QEAD_K@Z DD imagerel $LN3
	DD	imagerel $LN3+51
	DD	imagerel $unwind$?_Deallocate_for_capacity@?$basic_string@DU?$char_traits@D@std@@V?$allocator@D@2@@std@@CAXAEAV?$allocator@D@2@QEAD_K@Z
pdata	ENDS
;	COMDAT pdata
pdata	SEGMENT
$pdata$?_Construct_empty@?$basic_string@DU?$char_traits@D@std@@V?$allocator@D@2@@std@@AEAAXXZ DD imagerel $LN3
	DD	imagerel $LN3+117
	DD	imagerel $unwind$?_Construct_empty@?$basic_string@DU?$char_traits@D@std@@V?$allocator@D@2@@std@@AEAAXXZ
pdata	ENDS
;	COMDAT pdata
pdata	SEGMENT
$pdata$??1?$basic_string@DU?$char_traits@D@std@@V?$allocator@D@2@@std@@QEAA@XZ DD imagerel $LN4
	DD	imagerel $LN4+39
	DD	imagerel $unwind$??1?$basic_string@DU?$char_traits@D@std@@V?$allocator@D@2@@std@@QEAA@XZ
pdata	ENDS
;	COMDAT pdata
pdata	SEGMENT
$pdata$?dtor$0@?0???1?$basic_string@DU?$char_traits@D@std@@V?$allocator@D@2@@std@@QEAA@XZ@4HA DD imagerel ?dtor$0@?0???1?$basic_string@DU?$char_traits@D@std@@V?$allocator@D@2@@std@@QEAA@XZ@4HA
	DD	imagerel ?dtor$0@?0???1?$basic_string@DU?$char_traits@D@std@@V?$allocator@D@2@@std@@QEAA@XZ@4HA+24
	DD	imagerel $unwind$?dtor$0@?0???1?$basic_string@DU?$char_traits@D@std@@V?$allocator@D@2@@std@@QEAA@XZ@4HA
pdata	ENDS
;	COMDAT pdata
pdata	SEGMENT
$pdata$?c_str@?$basic_string@DU?$char_traits@D@std@@V?$allocator@D@2@@std@@QEBAPEBDXZ DD imagerel $LN3
	DD	imagerel $LN3+27
	DD	imagerel $unwind$?c_str@?$basic_string@DU?$char_traits@D@std@@V?$allocator@D@2@@std@@QEBAPEBDXZ
pdata	ENDS
;	COMDAT pdata
pdata	SEGMENT
$pdata$?_Tidy_deallocate@?$basic_string@DU?$char_traits@D@std@@V?$allocator@D@2@@std@@AEAAXXZ DD imagerel $LN4
	DD	imagerel $LN4+173
	DD	imagerel $unwind$?_Tidy_deallocate@?$basic_string@DU?$char_traits@D@std@@V?$allocator@D@2@@std@@AEAAXXZ
pdata	ENDS
;	COMDAT pdata
pdata	SEGMENT
$pdata$?_Getal@?$basic_string@DU?$char_traits@D@std@@V?$allocator@D@2@@std@@AEAAAEAV?$allocator@D@2@XZ DD imagerel $LN3
	DD	imagerel $LN3+27
	DD	imagerel $unwind$?_Getal@?$basic_string@DU?$char_traits@D@std@@V?$allocator@D@2@@std@@AEAAAEAV?$allocator@D@2@XZ
pdata	ENDS
;	COMDAT pdata
pdata	SEGMENT
$pdata$??1?$_Compressed_pair@V?$allocator@D@std@@V?$_String_val@U?$_Simple_types@D@std@@@2@$00@std@@QEAA@XZ DD imagerel $LN4
	DD	imagerel $LN4+28
	DD	imagerel $unwind$??1?$_Compressed_pair@V?$allocator@D@std@@V?$_String_val@U?$_Simple_types@D@std@@@2@$00@std@@QEAA@XZ
pdata	ENDS
;	COMDAT pdata
pdata	SEGMENT
$pdata$?dtor$0@?0???1?$_Compressed_pair@V?$allocator@D@std@@V?$_String_val@U?$_Simple_types@D@std@@@2@$00@std@@QEAA@XZ@4HA DD imagerel ?dtor$0@?0???1?$_Compressed_pair@V?$allocator@D@std@@V?$_String_val@U?$_Simple_types@D@std@@@2@$00@std@@QEAA@XZ@4HA
	DD	imagerel ?dtor$0@?0???1?$_Compressed_pair@V?$allocator@D@std@@V?$_String_val@U?$_Simple_types@D@std@@@2@$00@std@@QEAA@XZ@4HA+24
	DD	imagerel $unwind$?dtor$0@?0???1?$_Compressed_pair@V?$allocator@D@std@@V?$_String_val@U?$_Simple_types@D@std@@@2@$00@std@@QEAA@XZ@4HA
pdata	ENDS
;	COMDAT pdata
pdata	SEGMENT
$pdata$?_Decref@_Ref_count_base@std@@QEAAXXZ DD imagerel $LN4
	DD	imagerel $LN4+66
	DD	imagerel $unwind$?_Decref@_Ref_count_base@std@@QEAAXXZ
pdata	ENDS
;	COMDAT pdata
pdata	SEGMENT
$pdata$?_Decwref@_Ref_count_base@std@@QEAAXXZ DD imagerel $LN4
	DD	imagerel $LN4+57
	DD	imagerel $unwind$?_Decwref@_Ref_count_base@std@@QEAAXXZ
pdata	ENDS
;	COMDAT pdata
pdata	SEGMENT
$pdata$?Align@@YA_K_K0@Z DD imagerel $LN5
	DD	imagerel $LN5+79
	DD	imagerel $unwind$?Align@@YA_K_K0@Z
pdata	ENDS
;	COMDAT pdata
pdata	SEGMENT
$pdata$??$min@H@std@@YAAEBHAEBH0@Z DD imagerel $LN5
	DD	imagerel $LN5+69
	DD	imagerel $unwind$??$min@H@std@@YAAEBHAEBH0@Z
pdata	ENDS
;	COMDAT pdata
pdata	SEGMENT
$pdata$??$min@_K@std@@YAAEB_KAEB_K0@Z DD imagerel $LN5
	DD	imagerel $LN5+71
	DD	imagerel $unwind$??$min@_K@std@@YAAEB_KAEB_K0@Z
pdata	ENDS
;	COMDAT pdata
pdata	SEGMENT
$pdata$??0WSInit@detail@httplib@@QEAA@XZ DD imagerel $LN4
	DD	imagerel $LN4+103
	DD	imagerel $unwind$??0WSInit@detail@httplib@@QEAA@XZ
pdata	ENDS
;	COMDAT pdata
pdata	SEGMENT
$pdata$??1WSInit@detail@httplib@@QEAA@XZ DD imagerel $LN4
	DD	imagerel $LN4+33
	DD	imagerel $unwind$??1WSInit@detail@httplib@@QEAA@XZ
pdata	ENDS
;	COMDAT pdata
pdata	SEGMENT
$pdata$??__Ewsinit_@detail@httplib@@YAXXZ DD imagerel ??__Ewsinit_@detail@httplib@@YAXXZ
	DD	imagerel ??__Ewsinit_@detail@httplib@@YAXXZ+34
	DD	imagerel $unwind$??__Ewsinit_@detail@httplib@@YAXXZ
pdata	ENDS
;	COMDAT pdata
pdata	SEGMENT
$pdata$??__Fwsinit_@detail@httplib@@YAXXZ DD imagerel ??__Fwsinit_@detail@httplib@@YAXXZ
	DD	imagerel ??__Fwsinit_@detail@httplib@@YAXXZ+22
	DD	imagerel $unwind$??__Fwsinit_@detail@httplib@@YAXXZ
pdata	ENDS
;	COMDAT pdata
pdata	SEGMENT
$pdata$??0SSLInit@detail@httplib@@QEAA@XZ DD imagerel $LN3
	DD	imagerel $LN3+32
	DD	imagerel $unwind$??0SSLInit@detail@httplib@@QEAA@XZ
pdata	ENDS
;	COMDAT pdata
pdata	SEGMENT
$pdata$??__Esslinit_@detail@httplib@@YAXXZ DD imagerel ??__Esslinit_@detail@httplib@@YAXXZ
	DD	imagerel ??__Esslinit_@detail@httplib@@YAXXZ+22
	DD	imagerel $unwind$??__Esslinit_@detail@httplib@@YAXXZ
pdata	ENDS
;	COMDAT pdata
pdata	SEGMENT
$pdata$?IsRet@Zydis@IronMan@@QEBA_NXZ DD imagerel $LN3
	DD	imagerel $LN3+29
	DD	imagerel $unwind$?IsRet@Zydis@IronMan@@QEBA_NXZ
pdata	ENDS
;	COMDAT pdata
pdata	SEGMENT
$pdata$?IsCall@Zydis@IronMan@@QEBA_NXZ DD imagerel $LN3
	DD	imagerel $LN3+29
	DD	imagerel $unwind$?IsCall@Zydis@IronMan@@QEBA_NXZ
pdata	ENDS
;	COMDAT pdata
pdata	SEGMENT
$pdata$?IsCondJump@Zydis@IronMan@@QEBA_NXZ DD imagerel $LN3
	DD	imagerel $LN3+29
	DD	imagerel $unwind$?IsCondJump@Zydis@IronMan@@QEBA_NXZ
pdata	ENDS
;	COMDAT pdata
pdata	SEGMENT
$pdata$?IsJump@Zydis@IronMan@@QEBA_NXZ DD imagerel $LN3
	DD	imagerel $LN3+29
	DD	imagerel $unwind$?IsJump@Zydis@IronMan@@QEBA_NXZ
pdata	ENDS
;	COMDAT pdata
pdata	SEGMENT
$pdata$?setPacked_2x32@UInt64@asmjit@@QEAAAEAT12@II@Z DD imagerel $LN5
	DD	imagerel $LN5+100
	DD	imagerel $unwind$?setPacked_2x32@UInt64@asmjit@@QEAAAEAT12@II@Z
pdata	ENDS
;	COMDAT pdata
pdata	SEGMENT
$pdata$??0Operand@asmjit@@QEAA@AEBU01@@Z DD imagerel $LN3
	DD	imagerel $LN3+40
	DD	imagerel $unwind$??0Operand@asmjit@@QEAA@AEBU01@@Z
pdata	ENDS
;	COMDAT pdata
pdata	SEGMENT
$pdata$?_init@Operand@asmjit@@QEAAXAEBU12@@Z DD imagerel $LN3
	DD	imagerel $LN3+41
	DD	imagerel $unwind$?_init@Operand@asmjit@@QEAAXAEBU12@@Z
pdata	ENDS
;	COMDAT pdata
pdata	SEGMENT
$pdata$?_init_packed_op_sz_b0_b1_id@Operand@asmjit@@QEAAXIIIII@Z DD imagerel $LN3
	DD	imagerel $LN3+94
	DD	imagerel $unwind$?_init_packed_op_sz_b0_b1_id@Operand@asmjit@@QEAAXIIIII@Z
pdata	ENDS
;	COMDAT pdata
pdata	SEGMENT
$pdata$?_init_packed_d2_d3@Operand@asmjit@@QEAAXII@Z DD imagerel $LN3
	DD	imagerel $LN3+68
	DD	imagerel $unwind$?_init_packed_d2_d3@Operand@asmjit@@QEAAXII@Z
pdata	ENDS
;	COMDAT pdata
pdata	SEGMENT
$pdata$?_copy@Operand@asmjit@@QEAAXAEBU12@@Z DD imagerel $LN3
	DD	imagerel $LN3+41
	DD	imagerel $unwind$?_copy@Operand@asmjit@@QEAAXAEBU12@@Z
pdata	ENDS
;	COMDAT pdata
pdata	SEGMENT
$pdata$??0BaseMem@asmjit@@QEAA@AEBU01@@Z DD imagerel $LN3
	DD	imagerel $LN3+40
	DD	imagerel $unwind$??0BaseMem@asmjit@@QEAA@AEBU01@@Z
pdata	ENDS
;	COMDAT pdata
pdata	SEGMENT
$pdata$??0BaseMem@asmjit@@QEAA@AEBU_NoInit@1@@Z DD imagerel $LN3
	DD	imagerel $LN3+42
	DD	imagerel $unwind$??0BaseMem@asmjit@@QEAA@AEBU_NoInit@1@@Z
pdata	ENDS
;	COMDAT pdata
pdata	SEGMENT
$pdata$??0Label@asmjit@@QEAA@AEBU01@@Z DD imagerel $LN3
	DD	imagerel $LN3+40
	DD	imagerel $unwind$??0Label@asmjit@@QEAA@AEBU01@@Z
pdata	ENDS
;	COMDAT pdata
pdata	SEGMENT
$pdata$??0Label@asmjit@@QEAA@AEBU_NoInit@1@@Z DD imagerel $LN3
	DD	imagerel $LN3+42
	DD	imagerel $unwind$??0Label@asmjit@@QEAA@AEBU_NoInit@1@@Z
pdata	ENDS
;	COMDAT pdata
pdata	SEGMENT
$pdata$?newLabel@Assembler@asmjit@@QEAA?AULabel@2@XZ DD imagerel $LN3
	DD	imagerel $LN3+71
	DD	imagerel $unwind$?newLabel@Assembler@asmjit@@QEAA?AULabel@2@XZ
pdata	ENDS
;	COMDAT pdata
pdata	SEGMENT
$pdata$??0X86Mem@asmjit@@QEAA@XZ DD imagerel $LN3
	DD	imagerel $LN3+47
	DD	imagerel $unwind$??0X86Mem@asmjit@@QEAA@XZ
pdata	ENDS
;	COMDAT pdata
pdata	SEGMENT
$pdata$??0X86Mem@asmjit@@QEAA@AEBUX86GpReg@1@HI@Z DD imagerel $LN3
	DD	imagerel $LN3+139
	DD	imagerel $unwind$??0X86Mem@asmjit@@QEAA@AEBUX86GpReg@1@HI@Z
pdata	ENDS
;	COMDAT pdata
pdata	SEGMENT
$pdata$??0X86Mem@asmjit@@QEAA@AEBU01@@Z DD imagerel $LN3
	DD	imagerel $LN3+40
	DD	imagerel $unwind$??0X86Mem@asmjit@@QEAA@AEBU01@@Z
pdata	ENDS
;	COMDAT pdata
pdata	SEGMENT
$pdata$?reset@X86Mem@asmjit@@QEAAXXZ DD imagerel $LN3
	DD	imagerel $LN3+70
	DD	imagerel $unwind$?reset@X86Mem@asmjit@@QEAAXXZ
pdata	ENDS
;	COMDAT pdata
pdata	SEGMENT
$pdata$??4X86Mem@asmjit@@QEAAAEAU01@AEBU01@@Z DD imagerel $LN3
	DD	imagerel $LN3+39
	DD	imagerel $unwind$??4X86Mem@asmjit@@QEAAAEAU01@AEBU01@@Z
pdata	ENDS
pdata	SEGMENT
$pdata$?qword_ptr@x86@asmjit@@YA?AUX86Mem@2@AEBUX86GpReg@2@H@Z DD imagerel ?qword_ptr@x86@asmjit@@YA?AUX86Mem@2@AEBUX86GpReg@2@H@Z
	DD	imagerel ?qword_ptr@x86@asmjit@@YA?AUX86Mem@2@AEBUX86GpReg@2@H@Z+55
	DD	imagerel $unwind$?qword_ptr@x86@asmjit@@YA?AUX86Mem@2@AEBUX86GpReg@2@H@Z
pdata	ENDS
;	COMDAT pdata
pdata	SEGMENT
$pdata$?db@X86Assembler@asmjit@@QEAAXE@Z DD imagerel $LN3
	DD	imagerel $LN3+56
	DD	imagerel $unwind$?db@X86Assembler@asmjit@@QEAAXE@Z
pdata	ENDS
;	COMDAT pdata
pdata	SEGMENT
$pdata$?dq@X86Assembler@asmjit@@QEAAX_K@Z DD imagerel $LN3
	DD	imagerel $LN3+57
	DD	imagerel $unwind$?dq@X86Assembler@asmjit@@QEAAX_K@Z
pdata	ENDS
;	COMDAT pdata
pdata	SEGMENT
$pdata$?add@X86Assembler@asmjit@@QEAAIAEBUX86GpReg@2@_K@Z DD imagerel $LN3
	DD	imagerel $LN3+49
	DD	imagerel $unwind$?add@X86Assembler@asmjit@@QEAAIAEBUX86GpReg@2@_K@Z
pdata	ENDS
;	COMDAT pdata
pdata	SEGMENT
$pdata$?jne@X86Assembler@asmjit@@QEAAIAEBULabel@2@@Z DD imagerel $LN3
	DD	imagerel $LN3+39
	DD	imagerel $unwind$?jne@X86Assembler@asmjit@@QEAAIAEBULabel@2@@Z
pdata	ENDS
;	COMDAT pdata
pdata	SEGMENT
$pdata$?jmp@X86Assembler@asmjit@@QEAAIAEBULabel@2@@Z DD imagerel $LN3
	DD	imagerel $LN3+39
	DD	imagerel $unwind$?jmp@X86Assembler@asmjit@@QEAAIAEBULabel@2@@Z
pdata	ENDS
;	COMDAT pdata
pdata	SEGMENT
$pdata$?mov@X86Assembler@asmjit@@QEAAIAEBUX86GpReg@2@0@Z DD imagerel $LN3
	DD	imagerel $LN3+49
	DD	imagerel $unwind$?mov@X86Assembler@asmjit@@QEAAIAEBUX86GpReg@2@0@Z
pdata	ENDS
;	COMDAT pdata
pdata	SEGMENT
$pdata$?mov@X86Assembler@asmjit@@QEAAIAEBUX86GpReg@2@AEBUX86Mem@2@@Z DD imagerel $LN3
	DD	imagerel $LN3+49
	DD	imagerel $unwind$?mov@X86Assembler@asmjit@@QEAAIAEBUX86GpReg@2@AEBUX86Mem@2@@Z
pdata	ENDS
;	COMDAT pdata
pdata	SEGMENT
$pdata$?mov@X86Assembler@asmjit@@QEAAIAEBUX86GpReg@2@_K@Z DD imagerel $LN3
	DD	imagerel $LN3+49
	DD	imagerel $unwind$?mov@X86Assembler@asmjit@@QEAAIAEBUX86GpReg@2@_K@Z
pdata	ENDS
;	COMDAT pdata
pdata	SEGMENT
$pdata$?mov@X86Assembler@asmjit@@QEAAIAEBUX86Mem@2@AEBUX86GpReg@2@@Z DD imagerel $LN3
	DD	imagerel $LN3+49
	DD	imagerel $unwind$?mov@X86Assembler@asmjit@@QEAAIAEBUX86Mem@2@AEBUX86GpReg@2@@Z
pdata	ENDS
;	COMDAT pdata
pdata	SEGMENT
$pdata$?mov@X86Assembler@asmjit@@QEAAIAEBUX86Mem@2@H@Z DD imagerel $LN3
	DD	imagerel $LN3+49
	DD	imagerel $unwind$?mov@X86Assembler@asmjit@@QEAAIAEBUX86Mem@2@H@Z
pdata	ENDS
;	COMDAT pdata
pdata	SEGMENT
$pdata$?mov@X86Assembler@asmjit@@QEAAIAEBUX86Mem@2@_K@Z DD imagerel $LN3
	DD	imagerel $LN3+49
	DD	imagerel $unwind$?mov@X86Assembler@asmjit@@QEAAIAEBUX86Mem@2@_K@Z
pdata	ENDS
;	COMDAT pdata
pdata	SEGMENT
$pdata$?sub@X86Assembler@asmjit@@QEAAIAEBUX86GpReg@2@_K@Z DD imagerel $LN3
	DD	imagerel $LN3+49
	DD	imagerel $unwind$?sub@X86Assembler@asmjit@@QEAAIAEBUX86GpReg@2@_K@Z
pdata	ENDS
;	COMDAT pdata
pdata	SEGMENT
$pdata$?test@X86Assembler@asmjit@@QEAAIAEBUX86GpReg@2@0@Z DD imagerel $LN3
	DD	imagerel $LN3+49
	DD	imagerel $unwind$?test@X86Assembler@asmjit@@QEAAIAEBUX86GpReg@2@0@Z
pdata	ENDS
;	COMDAT pdata
pdata	SEGMENT
$pdata$??0AsmStackAllocator@IronMan@@QEAA@PEAUX86Assembler@asmjit@@H@Z DD imagerel $LN5
	DD	imagerel $LN5+90
	DD	imagerel $unwind$??0AsmStackAllocator@IronMan@@QEAA@PEAUX86Assembler@asmjit@@H@Z
pdata	ENDS
;	COMDAT pdata
pdata	SEGMENT
$pdata$?AllocVar@AsmStackAllocator@IronMan@@QEAA?AUX86Mem@asmjit@@H_N@Z DD imagerel $LN10
	DD	imagerel $LN10+336
	DD	imagerel $unwind$?AllocVar@AsmStackAllocator@IronMan@@QEAA?AUX86Mem@asmjit@@H_N@Z
pdata	ENDS
;	COMDAT pdata
pdata	SEGMENT
$pdata$?GetAssembler@AsmFactory@IronMan@@SA?AV?$unique_ptr@VIAsmHelper@IronMan@@U?$default_delete@VIAsmHelper@IronMan@@@std@@@std@@XZ DD imagerel $LN6
	DD	imagerel $LN6+90
	DD	imagerel $unwind$?GetAssembler@AsmFactory@IronMan@@SA?AV?$unique_ptr@VIAsmHelper@IronMan@@U?$default_delete@VIAsmHelper@IronMan@@@std@@@std@@XZ
pdata	ENDS
;	COMDAT pdata
pdata	SEGMENT
$pdata$?dtor$0@?0??GetAssembler@AsmFactory@IronMan@@SA?AV?$unique_ptr@VIAsmHelper@IronMan@@U?$default_delete@VIAsmHelper@IronMan@@@std@@@std@@XZ@4HA DD imagerel ?dtor$0@?0??GetAssembler@AsmFactory@IronMan@@SA?AV?$unique_ptr@VIAsmHelper@IronMan@@U?$default_delete@VIAsmHelper@IronMan@@@std@@@std@@XZ@4HA
	DD	imagerel ?dtor$0@?0??GetAssembler@AsmFactory@IronMan@@SA?AV?$unique_ptr@VIAsmHelper@IronMan@@U?$default_delete@VIAsmHelper@IronMan@@@std@@@std@@XZ@4HA+24
	DD	imagerel $unwind$?dtor$0@?0??GetAssembler@AsmFactory@IronMan@@SA?AV?$unique_ptr@VIAsmHelper@IronMan@@U?$default_delete@VIAsmHelper@IronMan@@@std@@@std@@XZ@4HA
pdata	ENDS
;	COMDAT pdata
pdata	SEGMENT
$pdata$?dtor$1@?0??GetAssembler@AsmFactory@IronMan@@SA?AV?$unique_ptr@VIAsmHelper@IronMan@@U?$default_delete@VIAsmHelper@IronMan@@@std@@@std@@XZ@4HA DD imagerel ?dtor$1@?0??GetAssembler@AsmFactory@IronMan@@SA?AV?$unique_ptr@VIAsmHelper@IronMan@@U?$default_delete@VIAsmHelper@IronMan@@@std@@@std@@XZ@4HA
	DD	imagerel ?dtor$1@?0??GetAssembler@AsmFactory@IronMan@@SA?AV?$unique_ptr@VIAsmHelper@IronMan@@U?$default_delete@VIAsmHelper@IronMan@@@std@@@std@@XZ@4HA+38
	DD	imagerel $unwind$?dtor$1@?0??GetAssembler@AsmFactory@IronMan@@SA?AV?$unique_ptr@VIAsmHelper@IronMan@@U?$default_delete@VIAsmHelper@IronMan@@@std@@@std@@XZ@4HA
pdata	ENDS
;	COMDAT pdata
pdata	SEGMENT
$pdata$??R?$default_delete@VIAsmHelper@IronMan@@@std@@QEBAXPEAVIAsmHelper@IronMan@@@Z DD imagerel $LN5
	DD	imagerel $LN5+83
	DD	imagerel $unwind$??R?$default_delete@VIAsmHelper@IronMan@@@std@@QEBAXPEAVIAsmHelper@IronMan@@@Z
pdata	ENDS
;	COMDAT pdata
pdata	SEGMENT
$pdata$??1?$unique_ptr@VIAsmHelper@IronMan@@U?$default_delete@VIAsmHelper@IronMan@@@std@@@std@@QEAA@XZ DD imagerel $LN4
	DD	imagerel $LN4+72
	DD	imagerel $unwind$??1?$unique_ptr@VIAsmHelper@IronMan@@U?$default_delete@VIAsmHelper@IronMan@@@std@@@std@@QEAA@XZ
pdata	ENDS
;	COMDAT pdata
pdata	SEGMENT
$pdata$?get_deleter@?$unique_ptr@VIAsmHelper@IronMan@@U?$default_delete@VIAsmHelper@IronMan@@@std@@@std@@QEAAAEAU?$default_delete@VIAsmHelper@IronMan@@@2@XZ DD imagerel $LN3
	DD	imagerel $LN3+27
	DD	imagerel $unwind$?get_deleter@?$unique_ptr@VIAsmHelper@IronMan@@U?$default_delete@VIAsmHelper@IronMan@@@std@@@std@@QEAAAEAU?$default_delete@VIAsmHelper@IronMan@@@2@XZ
pdata	ENDS
;	COMDAT pdata
pdata	SEGMENT
$pdata$?release@?$unique_ptr@VIAsmHelper@IronMan@@U?$default_delete@VIAsmHelper@IronMan@@@std@@@std@@QEAAPEAVIAsmHelper@IronMan@@XZ DD imagerel $LN3
	DD	imagerel $LN3+41
	DD	imagerel $unwind$?release@?$unique_ptr@VIAsmHelper@IronMan@@U?$default_delete@VIAsmHelper@IronMan@@@std@@@std@@QEAAPEAVIAsmHelper@IronMan@@XZ
pdata	ENDS
;	COMDAT pdata
pdata	SEGMENT
$pdata$??_G?$unique_ptr@VIAsmHelper@IronMan@@U?$default_delete@VIAsmHelper@IronMan@@@std@@@std@@QEAAPEAXI@Z DD imagerel $LN4
	DD	imagerel $LN4+60
	DD	imagerel $unwind$??_G?$unique_ptr@VIAsmHelper@IronMan@@U?$default_delete@VIAsmHelper@IronMan@@@std@@@std@@QEAAPEAXI@Z
pdata	ENDS
;	COMDAT pdata
pdata	SEGMENT
$pdata$??$?0U?$default_delete@VIAsmHelper@IronMan@@@std@@$0A@@?$unique_ptr@VIAsmHelper@IronMan@@U?$default_delete@VIAsmHelper@IronMan@@@std@@@std@@QEAA@$$QEAV01@@Z DD imagerel $LN3
	DD	imagerel $LN3+107
	DD	imagerel $unwind$??$?0U?$default_delete@VIAsmHelper@IronMan@@@std@@$0A@@?$unique_ptr@VIAsmHelper@IronMan@@U?$default_delete@VIAsmHelper@IronMan@@@std@@@std@@QEAA@$$QEAV01@@Z
pdata	ENDS
;	COMDAT pdata
pdata	SEGMENT
$pdata$??$make_unique@VAsmHelper64@IronMan@@$$V$0A@@std@@YA?AV?$unique_ptr@VAsmHelper64@IronMan@@U?$default_delete@VAsmHelper64@IronMan@@@std@@@0@XZ DD imagerel $LN8
	DD	imagerel $LN8+113
	DD	imagerel $unwind$??$make_unique@VAsmHelper64@IronMan@@$$V$0A@@std@@YA?AV?$unique_ptr@VAsmHelper64@IronMan@@U?$default_delete@VAsmHelper64@IronMan@@@std@@@0@XZ
pdata	ENDS
;	COMDAT pdata
pdata	SEGMENT
$pdata$?dtor$0@?0???$make_unique@VAsmHelper64@IronMan@@$$V$0A@@std@@YA?AV?$unique_ptr@VAsmHelper64@IronMan@@U?$default_delete@VAsmHelper64@IronMan@@@std@@@0@XZ@4HA DD imagerel ?dtor$0@?0???$make_unique@VAsmHelper64@IronMan@@$$V$0A@@std@@YA?AV?$unique_ptr@VAsmHelper64@IronMan@@U?$default_delete@VAsmHelper64@IronMan@@@std@@@0@XZ@4HA
	DD	imagerel ?dtor$0@?0???$make_unique@VAsmHelper64@IronMan@@$$V$0A@@std@@YA?AV?$unique_ptr@VAsmHelper64@IronMan@@U?$default_delete@VAsmHelper64@IronMan@@@std@@@0@XZ@4HA+29
	DD	imagerel $unwind$?dtor$0@?0???$make_unique@VAsmHelper64@IronMan@@$$V$0A@@std@@YA?AV?$unique_ptr@VAsmHelper64@IronMan@@U?$default_delete@VAsmHelper64@IronMan@@@std@@@0@XZ@4HA
pdata	ENDS
;	COMDAT pdata
pdata	SEGMENT
$pdata$?dtor$1@?0???$make_unique@VAsmHelper64@IronMan@@$$V$0A@@std@@YA?AV?$unique_ptr@VAsmHelper64@IronMan@@U?$default_delete@VAsmHelper64@IronMan@@@std@@@0@XZ@4HA DD imagerel ?dtor$1@?0???$make_unique@VAsmHelper64@IronMan@@$$V$0A@@std@@YA?AV?$unique_ptr@VAsmHelper64@IronMan@@U?$default_delete@VAsmHelper64@IronMan@@@std@@@0@XZ@4HA
	DD	imagerel ?dtor$1@?0???$make_unique@VAsmHelper64@IronMan@@$$V$0A@@std@@YA?AV?$unique_ptr@VAsmHelper64@IronMan@@U?$default_delete@VAsmHelper64@IronMan@@@std@@@0@XZ@4HA+38
	DD	imagerel $unwind$?dtor$1@?0???$make_unique@VAsmHelper64@IronMan@@$$V$0A@@std@@YA?AV?$unique_ptr@VAsmHelper64@IronMan@@U?$default_delete@VAsmHelper64@IronMan@@@std@@@0@XZ@4HA
pdata	ENDS
;	COMDAT pdata
pdata	SEGMENT
$pdata$??R?$default_delete@VAsmHelper64@IronMan@@@std@@QEBAXPEAVAsmHelper64@IronMan@@@Z DD imagerel $LN5
	DD	imagerel $LN5+83
	DD	imagerel $unwind$??R?$default_delete@VAsmHelper64@IronMan@@@std@@QEBAXPEAVAsmHelper64@IronMan@@@Z
pdata	ENDS
;	COMDAT pdata
pdata	SEGMENT
$pdata$??1?$unique_ptr@VAsmHelper64@IronMan@@U?$default_delete@VAsmHelper64@IronMan@@@std@@@std@@QEAA@XZ DD imagerel $LN4
	DD	imagerel $LN4+72
	DD	imagerel $unwind$??1?$unique_ptr@VAsmHelper64@IronMan@@U?$default_delete@VAsmHelper64@IronMan@@@std@@@std@@QEAA@XZ
pdata	ENDS
;	COMDAT pdata
pdata	SEGMENT
$pdata$?get_deleter@?$unique_ptr@VAsmHelper64@IronMan@@U?$default_delete@VAsmHelper64@IronMan@@@std@@@std@@QEAAAEAU?$default_delete@VAsmHelper64@IronMan@@@2@XZ DD imagerel $LN3
	DD	imagerel $LN3+27
	DD	imagerel $unwind$?get_deleter@?$unique_ptr@VAsmHelper64@IronMan@@U?$default_delete@VAsmHelper64@IronMan@@@std@@@std@@QEAAAEAU?$default_delete@VAsmHelper64@IronMan@@@2@XZ
pdata	ENDS
;	COMDAT pdata
pdata	SEGMENT
$pdata$?release@?$unique_ptr@VAsmHelper64@IronMan@@U?$default_delete@VAsmHelper64@IronMan@@@std@@@std@@QEAAPEAVAsmHelper64@IronMan@@XZ DD imagerel $LN3
	DD	imagerel $LN3+41
	DD	imagerel $unwind$?release@?$unique_ptr@VAsmHelper64@IronMan@@U?$default_delete@VAsmHelper64@IronMan@@@std@@@std@@QEAAPEAVAsmHelper64@IronMan@@XZ
pdata	ENDS
;	COMDAT pdata
pdata	SEGMENT
$pdata$??$?0VAsmHelper64@IronMan@@U?$default_delete@VAsmHelper64@IronMan@@@std@@$0A@@?$unique_ptr@VIAsmHelper@IronMan@@U?$default_delete@VIAsmHelper@IronMan@@@std@@@std@@QEAA@$$QEAV?$unique_ptr@VAsmHelper64@IronMan@@U?$default_delete@VAsmHelper64@IronMan@@@std@@@1@@Z DD imagerel $LN3
	DD	imagerel $LN3+107
	DD	imagerel $unwind$??$?0VAsmHelper64@IronMan@@U?$default_delete@VAsmHelper64@IronMan@@@std@@$0A@@?$unique_ptr@VIAsmHelper@IronMan@@U?$default_delete@VIAsmHelper@IronMan@@@std@@@std@@QEAA@$$QEAV?$unique_ptr@VAsmHelper64@IronMan@@U?$default_delete@VAsmHelper64@IronMan@@@std@@@1@@Z
pdata	ENDS
;	COMDAT pdata
pdata	SEGMENT
$pdata$??0AnalysisBase@Analysis@IronMan@@IEAA@XZ DD imagerel $LN5
	DD	imagerel $LN5+72
	DD	imagerel $unwind$??0AnalysisBase@Analysis@IronMan@@IEAA@XZ
pdata	ENDS
;	COMDAT pdata
pdata	SEGMENT
$pdata$?dtor$0@?0???0AnalysisBase@Analysis@IronMan@@IEAA@XZ@4HA DD imagerel ?dtor$0@?0???0AnalysisBase@Analysis@IronMan@@IEAA@XZ@4HA
	DD	imagerel ?dtor$0@?0???0AnalysisBase@Analysis@IronMan@@IEAA@XZ@4HA+28
	DD	imagerel $unwind$?dtor$0@?0???0AnalysisBase@Analysis@IronMan@@IEAA@XZ@4HA
pdata	ENDS
;	COMDAT pdata
pdata	SEGMENT
$pdata$?dtor$1@?0???0AnalysisBase@Analysis@IronMan@@IEAA@XZ@4HA DD imagerel ?dtor$1@?0???0AnalysisBase@Analysis@IronMan@@IEAA@XZ@4HA
	DD	imagerel ?dtor$1@?0???0AnalysisBase@Analysis@IronMan@@IEAA@XZ@4HA+31
	DD	imagerel $unwind$?dtor$1@?0???0AnalysisBase@Analysis@IronMan@@IEAA@XZ@4HA
pdata	ENDS
;	COMDAT pdata
pdata	SEGMENT
$pdata$?inRange@AnalysisBase@Analysis@IronMan@@IEBA_N_K00@Z DD imagerel $LN5
	DD	imagerel $LN5+73
	DD	imagerel $unwind$?inRange@AnalysisBase@Analysis@IronMan@@IEBA_N_K00@Z
pdata	ENDS
;	COMDAT pdata
pdata	SEGMENT
$pdata$?deallocate@?$allocator@V?$unique_ptr@VIAsmHelper@IronMan@@U?$default_delete@VIAsmHelper@IronMan@@@std@@@std@@@std@@QEAAXQEAV?$unique_ptr@VIAsmHelper@IronMan@@U?$default_delete@VIAsmHelper@IronMan@@@std@@@2@_K@Z DD imagerel $LN3
	DD	imagerel $LN3+47
	DD	imagerel $unwind$?deallocate@?$allocator@V?$unique_ptr@VIAsmHelper@IronMan@@U?$default_delete@VIAsmHelper@IronMan@@@std@@@std@@@std@@QEAAXQEAV?$unique_ptr@VIAsmHelper@IronMan@@U?$default_delete@VIAsmHelper@IronMan@@@std@@@2@_K@Z
pdata	ENDS
;	COMDAT pdata
pdata	SEGMENT
$pdata$?allocate@?$allocator@V?$unique_ptr@VIAsmHelper@IronMan@@U?$default_delete@VIAsmHelper@IronMan@@@std@@@std@@@std@@QEAAPEAV?$unique_ptr@VIAsmHelper@IronMan@@U?$default_delete@VIAsmHelper@IronMan@@@std@@@2@_K@Z DD imagerel $LN3
	DD	imagerel $LN3+37
	DD	imagerel $unwind$?allocate@?$allocator@V?$unique_ptr@VIAsmHelper@IronMan@@U?$default_delete@VIAsmHelper@IronMan@@@std@@@std@@@std@@QEAAPEAV?$unique_ptr@VIAsmHelper@IronMan@@U?$default_delete@VIAsmHelper@IronMan@@@std@@@2@_K@Z
pdata	ENDS
;	COMDAT pdata
pdata	SEGMENT
$pdata$??0?$vector@V?$unique_ptr@VIAsmHelper@IronMan@@U?$default_delete@VIAsmHelper@IronMan@@@std@@@std@@V?$allocator@V?$unique_ptr@VIAsmHelper@IronMan@@U?$default_delete@VIAsmHelper@IronMan@@@std@@@std@@@2@@std@@QEAA@XZ DD imagerel $LN3
	DD	imagerel $LN3+73
	DD	imagerel $unwind$??0?$vector@V?$unique_ptr@VIAsmHelper@IronMan@@U?$default_delete@VIAsmHelper@IronMan@@@std@@@std@@V?$allocator@V?$unique_ptr@VIAsmHelper@IronMan@@U?$default_delete@VIAsmHelper@IronMan@@@std@@@std@@@2@@std@@QEAA@XZ
pdata	ENDS
;	COMDAT pdata
pdata	SEGMENT
$pdata$??1?$vector@V?$unique_ptr@VIAsmHelper@IronMan@@U?$default_delete@VIAsmHelper@IronMan@@@std@@@std@@V?$allocator@V?$unique_ptr@VIAsmHelper@IronMan@@U?$default_delete@VIAsmHelper@IronMan@@@std@@@std@@@2@@std@@QEAA@XZ DD imagerel $LN3
	DD	imagerel $LN3+25
	DD	imagerel $unwind$??1?$vector@V?$unique_ptr@VIAsmHelper@IronMan@@U?$default_delete@VIAsmHelper@IronMan@@@std@@@std@@V?$allocator@V?$unique_ptr@VIAsmHelper@IronMan@@U?$default_delete@VIAsmHelper@IronMan@@@std@@@std@@@2@@std@@QEAA@XZ
pdata	ENDS
;	COMDAT pdata
pdata	SEGMENT
$pdata$?push_back@?$vector@V?$unique_ptr@VIAsmHelper@IronMan@@U?$default_delete@VIAsmHelper@IronMan@@@std@@@std@@V?$allocator@V?$unique_ptr@VIAsmHelper@IronMan@@U?$default_delete@VIAsmHelper@IronMan@@@std@@@std@@@2@@std@@QEAAX$$QEAV?$unique_ptr@VIAsmHelper@IronMan@@U?$default_delete@VIAsmHelper@IronMan@@@std@@@2@@Z DD imagerel $LN3
	DD	imagerel $LN3+43
	DD	imagerel $unwind$?push_back@?$vector@V?$unique_ptr@VIAsmHelper@IronMan@@U?$default_delete@VIAsmHelper@IronMan@@@std@@@std@@V?$allocator@V?$unique_ptr@VIAsmHelper@IronMan@@U?$default_delete@VIAsmHelper@IronMan@@@std@@@std@@@2@@std@@QEAAX$$QEAV?$unique_ptr@VIAsmHelper@IronMan@@U?$default_delete@VIAsmHelper@IronMan@@@std@@@2@@Z
pdata	ENDS
;	COMDAT pdata
pdata	SEGMENT
$pdata$?empty@?$vector@V?$unique_ptr@VIAsmHelper@IronMan@@U?$default_delete@VIAsmHelper@IronMan@@@std@@@std@@V?$allocator@V?$unique_ptr@VIAsmHelper@IronMan@@U?$default_delete@VIAsmHelper@IronMan@@@std@@@std@@@2@@std@@QEBA_NXZ DD imagerel $LN5
	DD	imagerel $LN5+63
	DD	imagerel $unwind$?empty@?$vector@V?$unique_ptr@VIAsmHelper@IronMan@@U?$default_delete@VIAsmHelper@IronMan@@@std@@@std@@V?$allocator@V?$unique_ptr@VIAsmHelper@IronMan@@U?$default_delete@VIAsmHelper@IronMan@@@std@@@std@@@2@@std@@QEBA_NXZ
pdata	ENDS
;	COMDAT pdata
pdata	SEGMENT
$pdata$?max_size@?$vector@V?$unique_ptr@VIAsmHelper@IronMan@@U?$default_delete@VIAsmHelper@IronMan@@@std@@@std@@V?$allocator@V?$unique_ptr@VIAsmHelper@IronMan@@U?$default_delete@VIAsmHelper@IronMan@@@std@@@std@@@2@@std@@QEBA_KXZ DD imagerel $LN3
	DD	imagerel $LN3+65
	DD	imagerel $unwind$?max_size@?$vector@V?$unique_ptr@VIAsmHelper@IronMan@@U?$default_delete@VIAsmHelper@IronMan@@@std@@@std@@V?$allocator@V?$unique_ptr@VIAsmHelper@IronMan@@U?$default_delete@VIAsmHelper@IronMan@@@std@@@std@@@2@@std@@QEBA_KXZ
pdata	ENDS
;	COMDAT pdata
pdata	SEGMENT
$pdata$?capacity@?$vector@V?$unique_ptr@VIAsmHelper@IronMan@@U?$default_delete@VIAsmHelper@IronMan@@@std@@@std@@V?$allocator@V?$unique_ptr@VIAsmHelper@IronMan@@U?$default_delete@VIAsmHelper@IronMan@@@std@@@std@@@2@@std@@QEBA_KXZ DD imagerel $LN3
	DD	imagerel $LN3+45
	DD	imagerel $unwind$?capacity@?$vector@V?$unique_ptr@VIAsmHelper@IronMan@@U?$default_delete@VIAsmHelper@IronMan@@@std@@@std@@V?$allocator@V?$unique_ptr@VIAsmHelper@IronMan@@U?$default_delete@VIAsmHelper@IronMan@@@std@@@std@@@2@@std@@QEBA_KXZ
pdata	ENDS
;	COMDAT pdata
pdata	SEGMENT
$pdata$?_Calculate_growth@?$vector@V?$unique_ptr@VIAsmHelper@IronMan@@U?$default_delete@VIAsmHelper@IronMan@@@std@@@std@@V?$allocator@V?$unique_ptr@VIAsmHelper@IronMan@@U?$default_delete@VIAsmHelper@IronMan@@@std@@@std@@@2@@std@@AEBA_K_K@Z DD imagerel $LN5
	DD	imagerel $LN5+144
	DD	imagerel $unwind$?_Calculate_growth@?$vector@V?$unique_ptr@VIAsmHelper@IronMan@@U?$default_delete@VIAsmHelper@IronMan@@@std@@@std@@V?$allocator@V?$unique_ptr@VIAsmHelper@IronMan@@U?$default_delete@VIAsmHelper@IronMan@@@std@@@std@@@2@@std@@AEBA_K_K@Z
pdata	ENDS
;	COMDAT pdata
pdata	SEGMENT
$pdata$?_Change_array@?$vector@V?$unique_ptr@VIAsmHelper@IronMan@@U?$default_delete@VIAsmHelper@IronMan@@@std@@@std@@V?$allocator@V?$unique_ptr@VIAsmHelper@IronMan@@U?$default_delete@VIAsmHelper@IronMan@@@std@@@std@@@2@@std@@AEAAXQEAV?$unique_ptr@VIAsmHelper@IronMan@@U?$default_delete@VIAsmHelper@IronMan@@@std@@@2@_K1@Z DD imagerel $LN4
	DD	imagerel $LN4+242
	DD	imagerel $unwind$?_Change_array@?$vector@V?$unique_ptr@VIAsmHelper@IronMan@@U?$default_delete@VIAsmHelper@IronMan@@@std@@@std@@V?$allocator@V?$unique_ptr@VIAsmHelper@IronMan@@U?$default_delete@VIAsmHelper@IronMan@@@std@@@std@@@2@@std@@AEAAXQEAV?$unique_ptr@VIAsmHelper@IronMan@@U?$default_delete@VIAsmHelper@IronMan@@@std@@@2@_K1@Z
pdata	ENDS
;	COMDAT pdata
pdata	SEGMENT
$pdata$?_Tidy@?$vector@V?$unique_ptr@VIAsmHelper@IronMan@@U?$default_delete@VIAsmHelper@IronMan@@@std@@@std@@V?$allocator@V?$unique_ptr@VIAsmHelper@IronMan@@U?$default_delete@VIAsmHelper@IronMan@@@std@@@std@@@2@@std@@AEAAXXZ DD imagerel $LN4
	DD	imagerel $LN4+205
	DD	imagerel $unwind$?_Tidy@?$vector@V?$unique_ptr@VIAsmHelper@IronMan@@U?$default_delete@VIAsmHelper@IronMan@@@std@@@std@@V?$allocator@V?$unique_ptr@VIAsmHelper@IronMan@@U?$default_delete@VIAsmHelper@IronMan@@@std@@@std@@@2@@std@@AEAAXXZ
pdata	ENDS
;	COMDAT pdata
pdata	SEGMENT
$pdata$?_Xlength@?$vector@V?$unique_ptr@VIAsmHelper@IronMan@@U?$default_delete@VIAsmHelper@IronMan@@@std@@@std@@V?$allocator@V?$unique_ptr@VIAsmHelper@IronMan@@U?$default_delete@VIAsmHelper@IronMan@@@std@@@std@@@2@@std@@CAXXZ DD imagerel $LN3
	DD	imagerel $LN3+22
	DD	imagerel $unwind$?_Xlength@?$vector@V?$unique_ptr@VIAsmHelper@IronMan@@U?$default_delete@VIAsmHelper@IronMan@@@std@@@std@@V?$allocator@V?$unique_ptr@VIAsmHelper@IronMan@@U?$default_delete@VIAsmHelper@IronMan@@@std@@@std@@@2@@std@@CAXXZ
pdata	ENDS
;	COMDAT pdata
pdata	SEGMENT
$pdata$?_Getal@?$vector@V?$unique_ptr@VIAsmHelper@IronMan@@U?$default_delete@VIAsmHelper@IronMan@@@std@@@std@@V?$allocator@V?$unique_ptr@VIAsmHelper@IronMan@@U?$default_delete@VIAsmHelper@IronMan@@@std@@@std@@@2@@std@@AEAAAEAV?$allocator@V?$unique_ptr@VIAsmHelper@IronMan@@U?$default_delete@VIAsmHelper@IronMan@@@std@@@std@@@2@XZ DD imagerel $LN3
	DD	imagerel $LN3+27
	DD	imagerel $unwind$?_Getal@?$vector@V?$unique_ptr@VIAsmHelper@IronMan@@U?$default_delete@VIAsmHelper@IronMan@@@std@@@std@@V?$allocator@V?$unique_ptr@VIAsmHelper@IronMan@@U?$default_delete@VIAsmHelper@IronMan@@@std@@@std@@@2@@std@@AEAAAEAV?$allocator@V?$unique_ptr@VIAsmHelper@IronMan@@U?$default_delete@VIAsmHelper@IronMan@@@std@@@std@@@2@XZ
pdata	ENDS
;	COMDAT pdata
pdata	SEGMENT
$pdata$?_Getal@?$vector@V?$unique_ptr@VIAsmHelper@IronMan@@U?$default_delete@VIAsmHelper@IronMan@@@std@@@std@@V?$allocator@V?$unique_ptr@VIAsmHelper@IronMan@@U?$default_delete@VIAsmHelper@IronMan@@@std@@@std@@@2@@std@@AEBAAEBV?$allocator@V?$unique_ptr@VIAsmHelper@IronMan@@U?$default_delete@VIAsmHelper@IronMan@@@std@@@std@@@2@XZ DD imagerel $LN3
	DD	imagerel $LN3+27
	DD	imagerel $unwind$?_Getal@?$vector@V?$unique_ptr@VIAsmHelper@IronMan@@U?$default_delete@VIAsmHelper@IronMan@@@std@@@std@@V?$allocator@V?$unique_ptr@VIAsmHelper@IronMan@@U?$default_delete@VIAsmHelper@IronMan@@@std@@@std@@@2@@std@@AEBAAEBV?$allocator@V?$unique_ptr@VIAsmHelper@IronMan@@U?$default_delete@VIAsmHelper@IronMan@@@std@@@std@@@2@XZ
pdata	ENDS
;	COMDAT pdata
pdata	SEGMENT
$pdata$??_GAnalysisBase@Analysis@IronMan@@UEAAPEAXI@Z DD imagerel $LN4
	DD	imagerel $LN4+60
	DD	imagerel $unwind$??_GAnalysisBase@Analysis@IronMan@@UEAAPEAXI@Z
pdata	ENDS
;	COMDAT pdata
pdata	SEGMENT
$pdata$??R?$_Func_class@XPEAX@std@@QEBAXPEAX@Z DD imagerel $LN4
	DD	imagerel $LN4+104
	DD	imagerel $unwind$??R?$_Func_class@XPEAX@std@@QEBAXPEAX@Z
pdata	ENDS
;	COMDAT pdata
pdata	SEGMENT
$pdata$??1?$_Func_class@XPEAX@std@@QEAA@XZ DD imagerel $LN3
	DD	imagerel $LN3+25
	DD	imagerel $unwind$??1?$_Func_class@XPEAX@std@@QEAA@XZ
pdata	ENDS
;	COMDAT pdata
pdata	SEGMENT
$pdata$?_Empty@?$_Func_class@XPEAX@std@@IEBA_NXZ DD imagerel $LN5
	DD	imagerel $LN5+52
	DD	imagerel $unwind$?_Empty@?$_Func_class@XPEAX@std@@IEBA_NXZ
pdata	ENDS
;	COMDAT pdata
pdata	SEGMENT
$pdata$?_Tidy@?$_Func_class@XPEAX@std@@IEAAXXZ DD imagerel $LN6
	DD	imagerel $LN6+119
	DD	imagerel $unwind$?_Tidy@?$_Func_class@XPEAX@std@@IEAAXXZ
pdata	ENDS
;	COMDAT pdata
pdata	SEGMENT
$pdata$?_Local@?$_Func_class@XPEAX@std@@AEBA_NXZ DD imagerel $LN5
	DD	imagerel $LN5+57
	DD	imagerel $unwind$?_Local@?$_Func_class@XPEAX@std@@AEBA_NXZ
pdata	ENDS
;	COMDAT pdata
pdata	SEGMENT
$pdata$??B?$function@$$A6AXPEAX@Z@std@@QEBA_NXZ DD imagerel $LN5
	DD	imagerel $LN5+54
	DD	imagerel $unwind$??B?$function@$$A6AXPEAX@Z@std@@QEBA_NXZ
pdata	ENDS
;	COMDAT pdata
pdata	SEGMENT
$pdata$??1?$function@$$A6AXPEAX@Z@std@@QEAA@XZ DD imagerel $LN4
	DD	imagerel $LN4+25
	DD	imagerel $unwind$??1?$function@$$A6AXPEAX@Z@std@@QEAA@XZ
pdata	ENDS
;	COMDAT pdata
pdata	SEGMENT
$pdata$?dtor$0@?0???1?$function@$$A6AXPEAX@Z@std@@QEAA@XZ@4HA DD imagerel ?dtor$0@?0???1?$function@$$A6AXPEAX@Z@std@@QEAA@XZ@4HA
	DD	imagerel ?dtor$0@?0???1?$function@$$A6AXPEAX@Z@std@@QEAA@XZ@4HA+24
	DD	imagerel $unwind$?dtor$0@?0???1?$function@$$A6AXPEAX@Z@std@@QEAA@XZ@4HA
pdata	ENDS
;	COMDAT pdata
pdata	SEGMENT
$pdata$??0InstructionInfo@DecryptAnalysis@Analysis@IronMan@@QEAA@UZydisDecodedInstruction_@@_KHH@Z DD imagerel $LN3
	DD	imagerel $LN3+94
	DD	imagerel $unwind$??0InstructionInfo@DecryptAnalysis@Analysis@IronMan@@QEAA@UZydisDecodedInstruction_@@_KHH@Z
pdata	ENDS
;	COMDAT pdata
pdata	SEGMENT
$pdata$?deallocate@?$allocator@UInstructionInfo@DecryptAnalysis@Analysis@IronMan@@@std@@QEAAXQEAUInstructionInfo@DecryptAnalysis@Analysis@IronMan@@_K@Z DD imagerel $LN3
	DD	imagerel $LN3+47
	DD	imagerel $unwind$?deallocate@?$allocator@UInstructionInfo@DecryptAnalysis@Analysis@IronMan@@@std@@QEAAXQEAUInstructionInfo@DecryptAnalysis@Analysis@IronMan@@_K@Z
pdata	ENDS
;	COMDAT pdata
pdata	SEGMENT
$pdata$?allocate@?$allocator@UInstructionInfo@DecryptAnalysis@Analysis@IronMan@@@std@@QEAAPEAUInstructionInfo@DecryptAnalysis@Analysis@IronMan@@_K@Z DD imagerel $LN3
	DD	imagerel $LN3+37
	DD	imagerel $unwind$?allocate@?$allocator@UInstructionInfo@DecryptAnalysis@Analysis@IronMan@@@std@@QEAAPEAUInstructionInfo@DecryptAnalysis@Analysis@IronMan@@_K@Z
pdata	ENDS
;	COMDAT pdata
pdata	SEGMENT
$pdata$??0?$vector@UInstructionInfo@DecryptAnalysis@Analysis@IronMan@@V?$allocator@UInstructionInfo@DecryptAnalysis@Analysis@IronMan@@@std@@@std@@QEAA@XZ DD imagerel $LN3
	DD	imagerel $LN3+73
	DD	imagerel $unwind$??0?$vector@UInstructionInfo@DecryptAnalysis@Analysis@IronMan@@V?$allocator@UInstructionInfo@DecryptAnalysis@Analysis@IronMan@@@std@@@std@@QEAA@XZ
pdata	ENDS
;	COMDAT pdata
pdata	SEGMENT
$pdata$??0?$vector@UInstructionInfo@DecryptAnalysis@Analysis@IronMan@@V?$allocator@UInstructionInfo@DecryptAnalysis@Analysis@IronMan@@@std@@@std@@QEAA@AEBV01@@Z DD imagerel $LN3
	DD	imagerel $LN3+173
	DD	imagerel $unwind$??0?$vector@UInstructionInfo@DecryptAnalysis@Analysis@IronMan@@V?$allocator@UInstructionInfo@DecryptAnalysis@Analysis@IronMan@@@std@@@std@@QEAA@AEBV01@@Z
pdata	ENDS
;	COMDAT pdata
pdata	SEGMENT
$pdata$??0?$vector@UInstructionInfo@DecryptAnalysis@Analysis@IronMan@@V?$allocator@UInstructionInfo@DecryptAnalysis@Analysis@IronMan@@@std@@@std@@QEAA@$$QEAV01@@Z DD imagerel $LN3
	DD	imagerel $LN3+311
	DD	imagerel $unwind$??0?$vector@UInstructionInfo@DecryptAnalysis@Analysis@IronMan@@V?$allocator@UInstructionInfo@DecryptAnalysis@Analysis@IronMan@@@std@@@std@@QEAA@$$QEAV01@@Z
pdata	ENDS
;	COMDAT pdata
pdata	SEGMENT
$pdata$??1?$vector@UInstructionInfo@DecryptAnalysis@Analysis@IronMan@@V?$allocator@UInstructionInfo@DecryptAnalysis@Analysis@IronMan@@@std@@@std@@QEAA@XZ DD imagerel $LN3
	DD	imagerel $LN3+25
	DD	imagerel $unwind$??1?$vector@UInstructionInfo@DecryptAnalysis@Analysis@IronMan@@V?$allocator@UInstructionInfo@DecryptAnalysis@Analysis@IronMan@@@std@@@std@@QEAA@XZ
pdata	ENDS
;	COMDAT pdata
pdata	SEGMENT
$pdata$?push_back@?$vector@UInstructionInfo@DecryptAnalysis@Analysis@IronMan@@V?$allocator@UInstructionInfo@DecryptAnalysis@Analysis@IronMan@@@std@@@std@@QEAAX$$QEAUInstructionInfo@DecryptAnalysis@Analysis@IronMan@@@Z DD imagerel $LN3
	DD	imagerel $LN3+43
	DD	imagerel $unwind$?push_back@?$vector@UInstructionInfo@DecryptAnalysis@Analysis@IronMan@@V?$allocator@UInstructionInfo@DecryptAnalysis@Analysis@IronMan@@@std@@@std@@QEAAX$$QEAUInstructionInfo@DecryptAnalysis@Analysis@IronMan@@@Z
pdata	ENDS
;	COMDAT pdata
pdata	SEGMENT
$pdata$?empty@?$vector@UInstructionInfo@DecryptAnalysis@Analysis@IronMan@@V?$allocator@UInstructionInfo@DecryptAnalysis@Analysis@IronMan@@@std@@@std@@QEBA_NXZ DD imagerel $LN5
	DD	imagerel $LN5+63
	DD	imagerel $unwind$?empty@?$vector@UInstructionInfo@DecryptAnalysis@Analysis@IronMan@@V?$allocator@UInstructionInfo@DecryptAnalysis@Analysis@IronMan@@@std@@@std@@QEBA_NXZ
pdata	ENDS
;	COMDAT pdata
pdata	SEGMENT
$pdata$?size@?$vector@UInstructionInfo@DecryptAnalysis@Analysis@IronMan@@V?$allocator@UInstructionInfo@DecryptAnalysis@Analysis@IronMan@@@std@@@std@@QEBA_KXZ DD imagerel $LN3
	DD	imagerel $LN3+51
	DD	imagerel $unwind$?size@?$vector@UInstructionInfo@DecryptAnalysis@Analysis@IronMan@@V?$allocator@UInstructionInfo@DecryptAnalysis@Analysis@IronMan@@@std@@@std@@QEBA_KXZ
pdata	ENDS
;	COMDAT pdata
pdata	SEGMENT
$pdata$?max_size@?$vector@UInstructionInfo@DecryptAnalysis@Analysis@IronMan@@V?$allocator@UInstructionInfo@DecryptAnalysis@Analysis@IronMan@@@std@@@std@@QEBA_KXZ DD imagerel $LN3
	DD	imagerel $LN3+65
	DD	imagerel $unwind$?max_size@?$vector@UInstructionInfo@DecryptAnalysis@Analysis@IronMan@@V?$allocator@UInstructionInfo@DecryptAnalysis@Analysis@IronMan@@@std@@@std@@QEBA_KXZ
pdata	ENDS
;	COMDAT pdata
pdata	SEGMENT
$pdata$?capacity@?$vector@UInstructionInfo@DecryptAnalysis@Analysis@IronMan@@V?$allocator@UInstructionInfo@DecryptAnalysis@Analysis@IronMan@@@std@@@std@@QEBA_KXZ DD imagerel $LN3
	DD	imagerel $LN3+51
	DD	imagerel $unwind$?capacity@?$vector@UInstructionInfo@DecryptAnalysis@Analysis@IronMan@@V?$allocator@UInstructionInfo@DecryptAnalysis@Analysis@IronMan@@@std@@@std@@QEBA_KXZ
pdata	ENDS
;	COMDAT pdata
pdata	SEGMENT
$pdata$??A?$vector@UInstructionInfo@DecryptAnalysis@Analysis@IronMan@@V?$allocator@UInstructionInfo@DecryptAnalysis@Analysis@IronMan@@@std@@@std@@QEAAAEAUInstructionInfo@DecryptAnalysis@Analysis@IronMan@@_K@Z DD imagerel $LN3
	DD	imagerel $LN3+44
	DD	imagerel $unwind$??A?$vector@UInstructionInfo@DecryptAnalysis@Analysis@IronMan@@V?$allocator@UInstructionInfo@DecryptAnalysis@Analysis@IronMan@@@std@@@std@@QEAAAEAUInstructionInfo@DecryptAnalysis@Analysis@IronMan@@_K@Z
pdata	ENDS
;	COMDAT pdata
pdata	SEGMENT
$pdata$?back@?$vector@UInstructionInfo@DecryptAnalysis@Analysis@IronMan@@V?$allocator@UInstructionInfo@DecryptAnalysis@Analysis@IronMan@@@std@@@std@@QEAAAEAUInstructionInfo@DecryptAnalysis@Analysis@IronMan@@XZ DD imagerel $LN3
	DD	imagerel $LN3+40
	DD	imagerel $unwind$?back@?$vector@UInstructionInfo@DecryptAnalysis@Analysis@IronMan@@V?$allocator@UInstructionInfo@DecryptAnalysis@Analysis@IronMan@@@std@@@std@@QEAAAEAUInstructionInfo@DecryptAnalysis@Analysis@IronMan@@XZ
pdata	ENDS
;	COMDAT pdata
pdata	SEGMENT
$pdata$?_Calculate_growth@?$vector@UInstructionInfo@DecryptAnalysis@Analysis@IronMan@@V?$allocator@UInstructionInfo@DecryptAnalysis@Analysis@IronMan@@@std@@@std@@AEBA_K_K@Z DD imagerel $LN5
	DD	imagerel $LN5+144
	DD	imagerel $unwind$?_Calculate_growth@?$vector@UInstructionInfo@DecryptAnalysis@Analysis@IronMan@@V?$allocator@UInstructionInfo@DecryptAnalysis@Analysis@IronMan@@@std@@@std@@AEBA_K_K@Z
pdata	ENDS
;	COMDAT pdata
pdata	SEGMENT
$pdata$?_Buy_raw@?$vector@UInstructionInfo@DecryptAnalysis@Analysis@IronMan@@V?$allocator@UInstructionInfo@DecryptAnalysis@Analysis@IronMan@@@std@@@std@@AEAAX_K@Z DD imagerel $LN3
	DD	imagerel $LN3+149
	DD	imagerel $unwind$?_Buy_raw@?$vector@UInstructionInfo@DecryptAnalysis@Analysis@IronMan@@V?$allocator@UInstructionInfo@DecryptAnalysis@Analysis@IronMan@@@std@@@std@@AEAAX_K@Z
pdata	ENDS
;	COMDAT pdata
pdata	SEGMENT
$pdata$?_Buy_nonzero@?$vector@UInstructionInfo@DecryptAnalysis@Analysis@IronMan@@V?$allocator@UInstructionInfo@DecryptAnalysis@Analysis@IronMan@@@std@@@std@@AEAAX_K@Z DD imagerel $LN4
	DD	imagerel $LN4+58
	DD	imagerel $unwind$?_Buy_nonzero@?$vector@UInstructionInfo@DecryptAnalysis@Analysis@IronMan@@V?$allocator@UInstructionInfo@DecryptAnalysis@Analysis@IronMan@@@std@@@std@@AEAAX_K@Z
pdata	ENDS
;	COMDAT pdata
pdata	SEGMENT
$pdata$?_Change_array@?$vector@UInstructionInfo@DecryptAnalysis@Analysis@IronMan@@V?$allocator@UInstructionInfo@DecryptAnalysis@Analysis@IronMan@@@std@@@std@@AEAAXQEAUInstructionInfo@DecryptAnalysis@Analysis@IronMan@@_K1@Z DD imagerel $LN4
	DD	imagerel $LN4+260
	DD	imagerel $unwind$?_Change_array@?$vector@UInstructionInfo@DecryptAnalysis@Analysis@IronMan@@V?$allocator@UInstructionInfo@DecryptAnalysis@Analysis@IronMan@@@std@@@std@@AEAAXQEAUInstructionInfo@DecryptAnalysis@Analysis@IronMan@@_K1@Z
pdata	ENDS
;	COMDAT pdata
pdata	SEGMENT
$pdata$?_Tidy@?$vector@UInstructionInfo@DecryptAnalysis@Analysis@IronMan@@V?$allocator@UInstructionInfo@DecryptAnalysis@Analysis@IronMan@@@std@@@std@@AEAAXXZ DD imagerel $LN4
	DD	imagerel $LN4+211
	DD	imagerel $unwind$?_Tidy@?$vector@UInstructionInfo@DecryptAnalysis@Analysis@IronMan@@V?$allocator@UInstructionInfo@DecryptAnalysis@Analysis@IronMan@@@std@@@std@@AEAAXXZ
pdata	ENDS
;	COMDAT pdata
pdata	SEGMENT
$pdata$?_Xlength@?$vector@UInstructionInfo@DecryptAnalysis@Analysis@IronMan@@V?$allocator@UInstructionInfo@DecryptAnalysis@Analysis@IronMan@@@std@@@std@@CAXXZ DD imagerel $LN3
	DD	imagerel $LN3+22
	DD	imagerel $unwind$?_Xlength@?$vector@UInstructionInfo@DecryptAnalysis@Analysis@IronMan@@V?$allocator@UInstructionInfo@DecryptAnalysis@Analysis@IronMan@@@std@@@std@@CAXXZ
pdata	ENDS
;	COMDAT pdata
pdata	SEGMENT
$pdata$?_Getal@?$vector@UInstructionInfo@DecryptAnalysis@Analysis@IronMan@@V?$allocator@UInstructionInfo@DecryptAnalysis@Analysis@IronMan@@@std@@@std@@AEAAAEAV?$allocator@UInstructionInfo@DecryptAnalysis@Analysis@IronMan@@@2@XZ DD imagerel $LN3
	DD	imagerel $LN3+27
	DD	imagerel $unwind$?_Getal@?$vector@UInstructionInfo@DecryptAnalysis@Analysis@IronMan@@V?$allocator@UInstructionInfo@DecryptAnalysis@Analysis@IronMan@@@std@@@std@@AEAAAEAV?$allocator@UInstructionInfo@DecryptAnalysis@Analysis@IronMan@@@2@XZ
pdata	ENDS
;	COMDAT pdata
pdata	SEGMENT
$pdata$?_Getal@?$vector@UInstructionInfo@DecryptAnalysis@Analysis@IronMan@@V?$allocator@UInstructionInfo@DecryptAnalysis@Analysis@IronMan@@@std@@@std@@AEBAAEBV?$allocator@UInstructionInfo@DecryptAnalysis@Analysis@IronMan@@@2@XZ DD imagerel $LN3
	DD	imagerel $LN3+27
	DD	imagerel $unwind$?_Getal@?$vector@UInstructionInfo@DecryptAnalysis@Analysis@IronMan@@V?$allocator@UInstructionInfo@DecryptAnalysis@Analysis@IronMan@@@std@@@std@@AEBAAEBV?$allocator@UInstructionInfo@DecryptAnalysis@Analysis@IronMan@@@2@XZ
pdata	ENDS
;	COMDAT pdata
pdata	SEGMENT
$pdata$?deallocate@?$allocator@UVariableInfo@DecryptAnalysis@Analysis@IronMan@@@std@@QEAAXQEAUVariableInfo@DecryptAnalysis@Analysis@IronMan@@_K@Z DD imagerel $LN3
	DD	imagerel $LN3+44
	DD	imagerel $unwind$?deallocate@?$allocator@UVariableInfo@DecryptAnalysis@Analysis@IronMan@@@std@@QEAAXQEAUVariableInfo@DecryptAnalysis@Analysis@IronMan@@_K@Z
pdata	ENDS
;	COMDAT pdata
pdata	SEGMENT
$pdata$?allocate@?$allocator@UVariableInfo@DecryptAnalysis@Analysis@IronMan@@@std@@QEAAPEAUVariableInfo@DecryptAnalysis@Analysis@IronMan@@_K@Z DD imagerel $LN3
	DD	imagerel $LN3+37
	DD	imagerel $unwind$?allocate@?$allocator@UVariableInfo@DecryptAnalysis@Analysis@IronMan@@@std@@QEAAPEAUVariableInfo@DecryptAnalysis@Analysis@IronMan@@_K@Z
pdata	ENDS
;	COMDAT pdata
pdata	SEGMENT
$pdata$??0?$vector@UVariableInfo@DecryptAnalysis@Analysis@IronMan@@V?$allocator@UVariableInfo@DecryptAnalysis@Analysis@IronMan@@@std@@@std@@QEAA@XZ DD imagerel $LN3
	DD	imagerel $LN3+73
	DD	imagerel $unwind$??0?$vector@UVariableInfo@DecryptAnalysis@Analysis@IronMan@@V?$allocator@UVariableInfo@DecryptAnalysis@Analysis@IronMan@@@std@@@std@@QEAA@XZ
pdata	ENDS
;	COMDAT pdata
pdata	SEGMENT
$pdata$??0?$vector@UVariableInfo@DecryptAnalysis@Analysis@IronMan@@V?$allocator@UVariableInfo@DecryptAnalysis@Analysis@IronMan@@@std@@@std@@QEAA@AEBV01@@Z DD imagerel $LN3
	DD	imagerel $LN3+167
	DD	imagerel $unwind$??0?$vector@UVariableInfo@DecryptAnalysis@Analysis@IronMan@@V?$allocator@UVariableInfo@DecryptAnalysis@Analysis@IronMan@@@std@@@std@@QEAA@AEBV01@@Z
pdata	ENDS
;	COMDAT pdata
pdata	SEGMENT
$pdata$??0?$vector@UVariableInfo@DecryptAnalysis@Analysis@IronMan@@V?$allocator@UVariableInfo@DecryptAnalysis@Analysis@IronMan@@@std@@@std@@QEAA@$$QEAV01@@Z DD imagerel $LN3
	DD	imagerel $LN3+311
	DD	imagerel $unwind$??0?$vector@UVariableInfo@DecryptAnalysis@Analysis@IronMan@@V?$allocator@UVariableInfo@DecryptAnalysis@Analysis@IronMan@@@std@@@std@@QEAA@$$QEAV01@@Z
pdata	ENDS
;	COMDAT pdata
pdata	SEGMENT
$pdata$??1?$vector@UVariableInfo@DecryptAnalysis@Analysis@IronMan@@V?$allocator@UVariableInfo@DecryptAnalysis@Analysis@IronMan@@@std@@@std@@QEAA@XZ DD imagerel $LN3
	DD	imagerel $LN3+25
	DD	imagerel $unwind$??1?$vector@UVariableInfo@DecryptAnalysis@Analysis@IronMan@@V?$allocator@UVariableInfo@DecryptAnalysis@Analysis@IronMan@@@std@@@std@@QEAA@XZ
pdata	ENDS
;	COMDAT pdata
pdata	SEGMENT
$pdata$?push_back@?$vector@UVariableInfo@DecryptAnalysis@Analysis@IronMan@@V?$allocator@UVariableInfo@DecryptAnalysis@Analysis@IronMan@@@std@@@std@@QEAAX$$QEAUVariableInfo@DecryptAnalysis@Analysis@IronMan@@@Z DD imagerel $LN3
	DD	imagerel $LN3+43
	DD	imagerel $unwind$?push_back@?$vector@UVariableInfo@DecryptAnalysis@Analysis@IronMan@@V?$allocator@UVariableInfo@DecryptAnalysis@Analysis@IronMan@@@std@@@std@@QEAAX$$QEAUVariableInfo@DecryptAnalysis@Analysis@IronMan@@@Z
pdata	ENDS
;	COMDAT pdata
pdata	SEGMENT
$pdata$?begin@?$vector@UVariableInfo@DecryptAnalysis@Analysis@IronMan@@V?$allocator@UVariableInfo@DecryptAnalysis@Analysis@IronMan@@@std@@@std@@QEAA?AV?$_Vector_iterator@V?$_Vector_val@U?$_Simple_types@UVariableInfo@DecryptAnalysis@Analysis@IronMan@@@std@@@std@@@2@XZ DD imagerel $LN3
	DD	imagerel $LN3+82
	DD	imagerel $unwind$?begin@?$vector@UVariableInfo@DecryptAnalysis@Analysis@IronMan@@V?$allocator@UVariableInfo@DecryptAnalysis@Analysis@IronMan@@@std@@@std@@QEAA?AV?$_Vector_iterator@V?$_Vector_val@U?$_Simple_types@UVariableInfo@DecryptAnalysis@Analysis@IronMan@@@std@@@std@@@2@XZ
pdata	ENDS
;	COMDAT pdata
pdata	SEGMENT
$pdata$?end@?$vector@UVariableInfo@DecryptAnalysis@Analysis@IronMan@@V?$allocator@UVariableInfo@DecryptAnalysis@Analysis@IronMan@@@std@@@std@@QEAA?AV?$_Vector_iterator@V?$_Vector_val@U?$_Simple_types@UVariableInfo@DecryptAnalysis@Analysis@IronMan@@@std@@@std@@@2@XZ DD imagerel $LN3
	DD	imagerel $LN3+83
	DD	imagerel $unwind$?end@?$vector@UVariableInfo@DecryptAnalysis@Analysis@IronMan@@V?$allocator@UVariableInfo@DecryptAnalysis@Analysis@IronMan@@@std@@@std@@QEAA?AV?$_Vector_iterator@V?$_Vector_val@U?$_Simple_types@UVariableInfo@DecryptAnalysis@Analysis@IronMan@@@std@@@std@@@2@XZ
pdata	ENDS
;	COMDAT pdata
pdata	SEGMENT
$pdata$?_Unchecked_begin@?$vector@UVariableInfo@DecryptAnalysis@Analysis@IronMan@@V?$allocator@UVariableInfo@DecryptAnalysis@Analysis@IronMan@@@std@@@std@@QEAAPEAUVariableInfo@DecryptAnalysis@Analysis@IronMan@@XZ DD imagerel $LN3
	DD	imagerel $LN3+27
	DD	imagerel $unwind$?_Unchecked_begin@?$vector@UVariableInfo@DecryptAnalysis@Analysis@IronMan@@V?$allocator@UVariableInfo@DecryptAnalysis@Analysis@IronMan@@@std@@@std@@QEAAPEAUVariableInfo@DecryptAnalysis@Analysis@IronMan@@XZ
pdata	ENDS
;	COMDAT pdata
pdata	SEGMENT
$pdata$?_Unchecked_end@?$vector@UVariableInfo@DecryptAnalysis@Analysis@IronMan@@V?$allocator@UVariableInfo@DecryptAnalysis@Analysis@IronMan@@@std@@@std@@QEAAPEAUVariableInfo@DecryptAnalysis@Analysis@IronMan@@XZ DD imagerel $LN3
	DD	imagerel $LN3+28
	DD	imagerel $unwind$?_Unchecked_end@?$vector@UVariableInfo@DecryptAnalysis@Analysis@IronMan@@V?$allocator@UVariableInfo@DecryptAnalysis@Analysis@IronMan@@@std@@@std@@QEAAPEAUVariableInfo@DecryptAnalysis@Analysis@IronMan@@XZ
pdata	ENDS
;	COMDAT pdata
pdata	SEGMENT
$pdata$?size@?$vector@UVariableInfo@DecryptAnalysis@Analysis@IronMan@@V?$allocator@UVariableInfo@DecryptAnalysis@Analysis@IronMan@@@std@@@std@@QEBA_KXZ DD imagerel $LN3
	DD	imagerel $LN3+45
	DD	imagerel $unwind$?size@?$vector@UVariableInfo@DecryptAnalysis@Analysis@IronMan@@V?$allocator@UVariableInfo@DecryptAnalysis@Analysis@IronMan@@@std@@@std@@QEBA_KXZ
pdata	ENDS
;	COMDAT pdata
pdata	SEGMENT
$pdata$?max_size@?$vector@UVariableInfo@DecryptAnalysis@Analysis@IronMan@@V?$allocator@UVariableInfo@DecryptAnalysis@Analysis@IronMan@@@std@@@std@@QEBA_KXZ DD imagerel $LN3
	DD	imagerel $LN3+65
	DD	imagerel $unwind$?max_size@?$vector@UVariableInfo@DecryptAnalysis@Analysis@IronMan@@V?$allocator@UVariableInfo@DecryptAnalysis@Analysis@IronMan@@@std@@@std@@QEBA_KXZ
pdata	ENDS
;	COMDAT pdata
pdata	SEGMENT
$pdata$?capacity@?$vector@UVariableInfo@DecryptAnalysis@Analysis@IronMan@@V?$allocator@UVariableInfo@DecryptAnalysis@Analysis@IronMan@@@std@@@std@@QEBA_KXZ DD imagerel $LN3
	DD	imagerel $LN3+45
	DD	imagerel $unwind$?capacity@?$vector@UVariableInfo@DecryptAnalysis@Analysis@IronMan@@V?$allocator@UVariableInfo@DecryptAnalysis@Analysis@IronMan@@@std@@@std@@QEBA_KXZ
pdata	ENDS
;	COMDAT pdata
pdata	SEGMENT
$pdata$?_Calculate_growth@?$vector@UVariableInfo@DecryptAnalysis@Analysis@IronMan@@V?$allocator@UVariableInfo@DecryptAnalysis@Analysis@IronMan@@@std@@@std@@AEBA_K_K@Z DD imagerel $LN5
	DD	imagerel $LN5+144
	DD	imagerel $unwind$?_Calculate_growth@?$vector@UVariableInfo@DecryptAnalysis@Analysis@IronMan@@V?$allocator@UVariableInfo@DecryptAnalysis@Analysis@IronMan@@@std@@@std@@AEBA_K_K@Z
pdata	ENDS
;	COMDAT pdata
pdata	SEGMENT
$pdata$?_Buy_raw@?$vector@UVariableInfo@DecryptAnalysis@Analysis@IronMan@@V?$allocator@UVariableInfo@DecryptAnalysis@Analysis@IronMan@@@std@@@std@@AEAAX_K@Z DD imagerel $LN3
	DD	imagerel $LN3+146
	DD	imagerel $unwind$?_Buy_raw@?$vector@UVariableInfo@DecryptAnalysis@Analysis@IronMan@@V?$allocator@UVariableInfo@DecryptAnalysis@Analysis@IronMan@@@std@@@std@@AEAAX_K@Z
pdata	ENDS
;	COMDAT pdata
pdata	SEGMENT
$pdata$?_Buy_nonzero@?$vector@UVariableInfo@DecryptAnalysis@Analysis@IronMan@@V?$allocator@UVariableInfo@DecryptAnalysis@Analysis@IronMan@@@std@@@std@@AEAAX_K@Z DD imagerel $LN4
	DD	imagerel $LN4+58
	DD	imagerel $unwind$?_Buy_nonzero@?$vector@UVariableInfo@DecryptAnalysis@Analysis@IronMan@@V?$allocator@UVariableInfo@DecryptAnalysis@Analysis@IronMan@@@std@@@std@@AEAAX_K@Z
pdata	ENDS
;	COMDAT pdata
pdata	SEGMENT
$pdata$?_Change_array@?$vector@UVariableInfo@DecryptAnalysis@Analysis@IronMan@@V?$allocator@UVariableInfo@DecryptAnalysis@Analysis@IronMan@@@std@@@std@@AEAAXQEAUVariableInfo@DecryptAnalysis@Analysis@IronMan@@_K1@Z DD imagerel $LN4
	DD	imagerel $LN4+248
	DD	imagerel $unwind$?_Change_array@?$vector@UVariableInfo@DecryptAnalysis@Analysis@IronMan@@V?$allocator@UVariableInfo@DecryptAnalysis@Analysis@IronMan@@@std@@@std@@AEAAXQEAUVariableInfo@DecryptAnalysis@Analysis@IronMan@@_K1@Z
pdata	ENDS
;	COMDAT pdata
pdata	SEGMENT
$pdata$?_Tidy@?$vector@UVariableInfo@DecryptAnalysis@Analysis@IronMan@@V?$allocator@UVariableInfo@DecryptAnalysis@Analysis@IronMan@@@std@@@std@@AEAAXXZ DD imagerel $LN4
	DD	imagerel $LN4+205
	DD	imagerel $unwind$?_Tidy@?$vector@UVariableInfo@DecryptAnalysis@Analysis@IronMan@@V?$allocator@UVariableInfo@DecryptAnalysis@Analysis@IronMan@@@std@@@std@@AEAAXXZ
pdata	ENDS
;	COMDAT pdata
pdata	SEGMENT
$pdata$?_Xlength@?$vector@UVariableInfo@DecryptAnalysis@Analysis@IronMan@@V?$allocator@UVariableInfo@DecryptAnalysis@Analysis@IronMan@@@std@@@std@@CAXXZ DD imagerel $LN3
	DD	imagerel $LN3+22
	DD	imagerel $unwind$?_Xlength@?$vector@UVariableInfo@DecryptAnalysis@Analysis@IronMan@@V?$allocator@UVariableInfo@DecryptAnalysis@Analysis@IronMan@@@std@@@std@@CAXXZ
pdata	ENDS
;	COMDAT pdata
pdata	SEGMENT
$pdata$?_Getal@?$vector@UVariableInfo@DecryptAnalysis@Analysis@IronMan@@V?$allocator@UVariableInfo@DecryptAnalysis@Analysis@IronMan@@@std@@@std@@AEAAAEAV?$allocator@UVariableInfo@DecryptAnalysis@Analysis@IronMan@@@2@XZ DD imagerel $LN3
	DD	imagerel $LN3+27
	DD	imagerel $unwind$?_Getal@?$vector@UVariableInfo@DecryptAnalysis@Analysis@IronMan@@V?$allocator@UVariableInfo@DecryptAnalysis@Analysis@IronMan@@@std@@@std@@AEAAAEAV?$allocator@UVariableInfo@DecryptAnalysis@Analysis@IronMan@@@2@XZ
pdata	ENDS
;	COMDAT pdata
pdata	SEGMENT
$pdata$?_Getal@?$vector@UVariableInfo@DecryptAnalysis@Analysis@IronMan@@V?$allocator@UVariableInfo@DecryptAnalysis@Analysis@IronMan@@@std@@@std@@AEBAAEBV?$allocator@UVariableInfo@DecryptAnalysis@Analysis@IronMan@@@2@XZ DD imagerel $LN3
	DD	imagerel $LN3+27
	DD	imagerel $unwind$?_Getal@?$vector@UVariableInfo@DecryptAnalysis@Analysis@IronMan@@V?$allocator@UVariableInfo@DecryptAnalysis@Analysis@IronMan@@@std@@@std@@AEBAAEBV?$allocator@UVariableInfo@DecryptAnalysis@Analysis@IronMan@@@2@XZ
pdata	ENDS
;	COMDAT pdata
pdata	SEGMENT
$pdata$?deallocate@?$allocator@W4ZydisRegister_@@@std@@QEAAXQEAW4ZydisRegister_@@_K@Z DD imagerel $LN3
	DD	imagerel $LN3+47
	DD	imagerel $unwind$?deallocate@?$allocator@W4ZydisRegister_@@@std@@QEAAXQEAW4ZydisRegister_@@_K@Z
pdata	ENDS
;	COMDAT pdata
pdata	SEGMENT
$pdata$?allocate@?$allocator@W4ZydisRegister_@@@std@@QEAAPEAW4ZydisRegister_@@_K@Z DD imagerel $LN3
	DD	imagerel $LN3+37
	DD	imagerel $unwind$?allocate@?$allocator@W4ZydisRegister_@@@std@@QEAAPEAW4ZydisRegister_@@_K@Z
pdata	ENDS
;	COMDAT pdata
pdata	SEGMENT
$pdata$??0?$vector@W4ZydisRegister_@@V?$allocator@W4ZydisRegister_@@@std@@@std@@QEAA@XZ DD imagerel $LN3
	DD	imagerel $LN3+73
	DD	imagerel $unwind$??0?$vector@W4ZydisRegister_@@V?$allocator@W4ZydisRegister_@@@std@@@std@@QEAA@XZ
pdata	ENDS
;	COMDAT pdata
pdata	SEGMENT
$pdata$??0?$vector@W4ZydisRegister_@@V?$allocator@W4ZydisRegister_@@@std@@@std@@QEAA@AEBV01@@Z DD imagerel $LN3
	DD	imagerel $LN3+167
	DD	imagerel $unwind$??0?$vector@W4ZydisRegister_@@V?$allocator@W4ZydisRegister_@@@std@@@std@@QEAA@AEBV01@@Z
pdata	ENDS
;	COMDAT pdata
pdata	SEGMENT
$pdata$??0?$vector@W4ZydisRegister_@@V?$allocator@W4ZydisRegister_@@@std@@@std@@QEAA@$$QEAV01@@Z DD imagerel $LN3
	DD	imagerel $LN3+311
	DD	imagerel $unwind$??0?$vector@W4ZydisRegister_@@V?$allocator@W4ZydisRegister_@@@std@@@std@@QEAA@$$QEAV01@@Z
pdata	ENDS
;	COMDAT pdata
pdata	SEGMENT
$pdata$??1?$vector@W4ZydisRegister_@@V?$allocator@W4ZydisRegister_@@@std@@@std@@QEAA@XZ DD imagerel $LN3
	DD	imagerel $LN3+25
	DD	imagerel $unwind$??1?$vector@W4ZydisRegister_@@V?$allocator@W4ZydisRegister_@@@std@@@std@@QEAA@XZ
pdata	ENDS
;	COMDAT pdata
pdata	SEGMENT
$pdata$?push_back@?$vector@W4ZydisRegister_@@V?$allocator@W4ZydisRegister_@@@std@@@std@@QEAAXAEBW4ZydisRegister_@@@Z DD imagerel $LN3
	DD	imagerel $LN3+35
	DD	imagerel $unwind$?push_back@?$vector@W4ZydisRegister_@@V?$allocator@W4ZydisRegister_@@@std@@@std@@QEAAXAEBW4ZydisRegister_@@@Z
pdata	ENDS
;	COMDAT pdata
pdata	SEGMENT
$pdata$?push_back@?$vector@W4ZydisRegister_@@V?$allocator@W4ZydisRegister_@@@std@@@std@@QEAAX$$QEAW4ZydisRegister_@@@Z DD imagerel $LN3
	DD	imagerel $LN3+43
	DD	imagerel $unwind$?push_back@?$vector@W4ZydisRegister_@@V?$allocator@W4ZydisRegister_@@@std@@@std@@QEAAX$$QEAW4ZydisRegister_@@@Z
pdata	ENDS
;	COMDAT pdata
pdata	SEGMENT
$pdata$?begin@?$vector@W4ZydisRegister_@@V?$allocator@W4ZydisRegister_@@@std@@@std@@QEAA?AV?$_Vector_iterator@V?$_Vector_val@U?$_Simple_types@W4ZydisRegister_@@@std@@@std@@@2@XZ DD imagerel $LN3
	DD	imagerel $LN3+82
	DD	imagerel $unwind$?begin@?$vector@W4ZydisRegister_@@V?$allocator@W4ZydisRegister_@@@std@@@std@@QEAA?AV?$_Vector_iterator@V?$_Vector_val@U?$_Simple_types@W4ZydisRegister_@@@std@@@std@@@2@XZ
pdata	ENDS
;	COMDAT pdata
pdata	SEGMENT
$pdata$?end@?$vector@W4ZydisRegister_@@V?$allocator@W4ZydisRegister_@@@std@@@std@@QEAA?AV?$_Vector_iterator@V?$_Vector_val@U?$_Simple_types@W4ZydisRegister_@@@std@@@std@@@2@XZ DD imagerel $LN3
	DD	imagerel $LN3+83
	DD	imagerel $unwind$?end@?$vector@W4ZydisRegister_@@V?$allocator@W4ZydisRegister_@@@std@@@std@@QEAA?AV?$_Vector_iterator@V?$_Vector_val@U?$_Simple_types@W4ZydisRegister_@@@std@@@std@@@2@XZ
pdata	ENDS
;	COMDAT pdata
pdata	SEGMENT
$pdata$?size@?$vector@W4ZydisRegister_@@V?$allocator@W4ZydisRegister_@@@std@@@std@@QEBA_KXZ DD imagerel $LN3
	DD	imagerel $LN3+45
	DD	imagerel $unwind$?size@?$vector@W4ZydisRegister_@@V?$allocator@W4ZydisRegister_@@@std@@@std@@QEBA_KXZ
pdata	ENDS
;	COMDAT pdata
pdata	SEGMENT
$pdata$?max_size@?$vector@W4ZydisRegister_@@V?$allocator@W4ZydisRegister_@@@std@@@std@@QEBA_KXZ DD imagerel $LN3
	DD	imagerel $LN3+65
	DD	imagerel $unwind$?max_size@?$vector@W4ZydisRegister_@@V?$allocator@W4ZydisRegister_@@@std@@@std@@QEBA_KXZ
pdata	ENDS
;	COMDAT pdata
pdata	SEGMENT
$pdata$?capacity@?$vector@W4ZydisRegister_@@V?$allocator@W4ZydisRegister_@@@std@@@std@@QEBA_KXZ DD imagerel $LN3
	DD	imagerel $LN3+45
	DD	imagerel $unwind$?capacity@?$vector@W4ZydisRegister_@@V?$allocator@W4ZydisRegister_@@@std@@@std@@QEBA_KXZ
pdata	ENDS
;	COMDAT pdata
pdata	SEGMENT
$pdata$??A?$vector@W4ZydisRegister_@@V?$allocator@W4ZydisRegister_@@@std@@@std@@QEAAAEAW4ZydisRegister_@@_K@Z DD imagerel $LN3
	DD	imagerel $LN3+44
	DD	imagerel $unwind$??A?$vector@W4ZydisRegister_@@V?$allocator@W4ZydisRegister_@@@std@@@std@@QEAAAEAW4ZydisRegister_@@_K@Z
pdata	ENDS
;	COMDAT pdata
pdata	SEGMENT
$pdata$?_Calculate_growth@?$vector@W4ZydisRegister_@@V?$allocator@W4ZydisRegister_@@@std@@@std@@AEBA_K_K@Z DD imagerel $LN5
	DD	imagerel $LN5+144
	DD	imagerel $unwind$?_Calculate_growth@?$vector@W4ZydisRegister_@@V?$allocator@W4ZydisRegister_@@@std@@@std@@AEBA_K_K@Z
pdata	ENDS
;	COMDAT pdata
pdata	SEGMENT
$pdata$?_Buy_raw@?$vector@W4ZydisRegister_@@V?$allocator@W4ZydisRegister_@@@std@@@std@@AEAAX_K@Z DD imagerel $LN3
	DD	imagerel $LN3+143
	DD	imagerel $unwind$?_Buy_raw@?$vector@W4ZydisRegister_@@V?$allocator@W4ZydisRegister_@@@std@@@std@@AEAAX_K@Z
pdata	ENDS
;	COMDAT pdata
pdata	SEGMENT
$pdata$?_Buy_nonzero@?$vector@W4ZydisRegister_@@V?$allocator@W4ZydisRegister_@@@std@@@std@@AEAAX_K@Z DD imagerel $LN4
	DD	imagerel $LN4+58
	DD	imagerel $unwind$?_Buy_nonzero@?$vector@W4ZydisRegister_@@V?$allocator@W4ZydisRegister_@@@std@@@std@@AEAAX_K@Z
pdata	ENDS
;	COMDAT pdata
pdata	SEGMENT
$pdata$?_Change_array@?$vector@W4ZydisRegister_@@V?$allocator@W4ZydisRegister_@@@std@@@std@@AEAAXQEAW4ZydisRegister_@@_K1@Z DD imagerel $LN4
	DD	imagerel $LN4+242
	DD	imagerel $unwind$?_Change_array@?$vector@W4ZydisRegister_@@V?$allocator@W4ZydisRegister_@@@std@@@std@@AEAAXQEAW4ZydisRegister_@@_K1@Z
pdata	ENDS
;	COMDAT pdata
pdata	SEGMENT
$pdata$?_Tidy@?$vector@W4ZydisRegister_@@V?$allocator@W4ZydisRegister_@@@std@@@std@@AEAAXXZ DD imagerel $LN4
	DD	imagerel $LN4+205
	DD	imagerel $unwind$?_Tidy@?$vector@W4ZydisRegister_@@V?$allocator@W4ZydisRegister_@@@std@@@std@@AEAAXXZ
pdata	ENDS
;	COMDAT pdata
pdata	SEGMENT
$pdata$?_Xlength@?$vector@W4ZydisRegister_@@V?$allocator@W4ZydisRegister_@@@std@@@std@@CAXXZ DD imagerel $LN3
	DD	imagerel $LN3+22
	DD	imagerel $unwind$?_Xlength@?$vector@W4ZydisRegister_@@V?$allocator@W4ZydisRegister_@@@std@@@std@@CAXXZ
pdata	ENDS
;	COMDAT pdata
pdata	SEGMENT
$pdata$?_Getal@?$vector@W4ZydisRegister_@@V?$allocator@W4ZydisRegister_@@@std@@@std@@AEAAAEAV?$allocator@W4ZydisRegister_@@@2@XZ DD imagerel $LN3
	DD	imagerel $LN3+27
	DD	imagerel $unwind$?_Getal@?$vector@W4ZydisRegister_@@V?$allocator@W4ZydisRegister_@@@std@@@std@@AEAAAEAV?$allocator@W4ZydisRegister_@@@2@XZ
pdata	ENDS
;	COMDAT pdata
pdata	SEGMENT
$pdata$?_Getal@?$vector@W4ZydisRegister_@@V?$allocator@W4ZydisRegister_@@@std@@@std@@AEBAAEBV?$allocator@W4ZydisRegister_@@@2@XZ DD imagerel $LN3
	DD	imagerel $LN3+27
	DD	imagerel $unwind$?_Getal@?$vector@W4ZydisRegister_@@V?$allocator@W4ZydisRegister_@@@std@@@std@@AEBAAEBV?$allocator@W4ZydisRegister_@@@2@XZ
pdata	ENDS
;	COMDAT pdata
pdata	SEGMENT
$pdata$??0DecryptInfo@DecryptAnalysis@Analysis@IronMan@@QEAA@_K00@Z DD imagerel $LN6
	DD	imagerel $LN6+221
	DD	imagerel $unwind$??0DecryptInfo@DecryptAnalysis@Analysis@IronMan@@QEAA@_K00@Z
pdata	ENDS
;	COMDAT pdata
pdata	SEGMENT
$pdata$?dtor$0@?0???0DecryptInfo@DecryptAnalysis@Analysis@IronMan@@QEAA@_K00@Z@4HA DD imagerel ?dtor$0@?0???0DecryptInfo@DecryptAnalysis@Analysis@IronMan@@QEAA@_K00@Z@4HA
	DD	imagerel ?dtor$0@?0???0DecryptInfo@DecryptAnalysis@Analysis@IronMan@@QEAA@_K00@Z@4HA+28
	DD	imagerel $unwind$?dtor$0@?0???0DecryptInfo@DecryptAnalysis@Analysis@IronMan@@QEAA@_K00@Z@4HA
pdata	ENDS
;	COMDAT pdata
pdata	SEGMENT
$pdata$?dtor$1@?0???0DecryptInfo@DecryptAnalysis@Analysis@IronMan@@QEAA@_K00@Z@4HA DD imagerel ?dtor$1@?0???0DecryptInfo@DecryptAnalysis@Analysis@IronMan@@QEAA@_K00@Z@4HA
	DD	imagerel ?dtor$1@?0???0DecryptInfo@DecryptAnalysis@Analysis@IronMan@@QEAA@_K00@Z@4HA+28
	DD	imagerel $unwind$?dtor$1@?0???0DecryptInfo@DecryptAnalysis@Analysis@IronMan@@QEAA@_K00@Z@4HA
pdata	ENDS
;	COMDAT pdata
pdata	SEGMENT
$pdata$?dtor$2@?0???0DecryptInfo@DecryptAnalysis@Analysis@IronMan@@QEAA@_K00@Z@4HA DD imagerel ?dtor$2@?0???0DecryptInfo@DecryptAnalysis@Analysis@IronMan@@QEAA@_K00@Z@4HA
	DD	imagerel ?dtor$2@?0???0DecryptInfo@DecryptAnalysis@Analysis@IronMan@@QEAA@_K00@Z@4HA+28
	DD	imagerel $unwind$?dtor$2@?0???0DecryptInfo@DecryptAnalysis@Analysis@IronMan@@QEAA@_K00@Z@4HA
pdata	ENDS
;	COMDAT pdata
pdata	SEGMENT
$pdata$??0DecryptInfo@DecryptAnalysis@Analysis@IronMan@@QEAA@XZ DD imagerel $LN4
	DD	imagerel $LN4+38
	DD	imagerel $unwind$??0DecryptInfo@DecryptAnalysis@Analysis@IronMan@@QEAA@XZ
pdata	ENDS
;	COMDAT pdata
pdata	SEGMENT
$pdata$?dtor$0@?0???0DecryptInfo@DecryptAnalysis@Analysis@IronMan@@QEAA@XZ@4HA DD imagerel ?dtor$0@?0???0DecryptInfo@DecryptAnalysis@Analysis@IronMan@@QEAA@XZ@4HA
	DD	imagerel ?dtor$0@?0???0DecryptInfo@DecryptAnalysis@Analysis@IronMan@@QEAA@XZ@4HA+24
	DD	imagerel $unwind$?dtor$0@?0???0DecryptInfo@DecryptAnalysis@Analysis@IronMan@@QEAA@XZ@4HA
pdata	ENDS
;	COMDAT pdata
pdata	SEGMENT
$pdata$??1DecryptInfo@DecryptAnalysis@Analysis@IronMan@@QEAA@XZ DD imagerel $LN6
	DD	imagerel $LN6+68
	DD	imagerel $unwind$??1DecryptInfo@DecryptAnalysis@Analysis@IronMan@@QEAA@XZ
pdata	ENDS
;	COMDAT pdata
pdata	SEGMENT
$pdata$?dtor$0@?0???1DecryptInfo@DecryptAnalysis@Analysis@IronMan@@QEAA@XZ@4HA DD imagerel ?dtor$0@?0???1DecryptInfo@DecryptAnalysis@Analysis@IronMan@@QEAA@XZ@4HA
	DD	imagerel ?dtor$0@?0???1DecryptInfo@DecryptAnalysis@Analysis@IronMan@@QEAA@XZ@4HA+28
	DD	imagerel $unwind$?dtor$0@?0???1DecryptInfo@DecryptAnalysis@Analysis@IronMan@@QEAA@XZ@4HA
pdata	ENDS
;	COMDAT pdata
pdata	SEGMENT
$pdata$?dtor$1@?0???1DecryptInfo@DecryptAnalysis@Analysis@IronMan@@QEAA@XZ@4HA DD imagerel ?dtor$1@?0???1DecryptInfo@DecryptAnalysis@Analysis@IronMan@@QEAA@XZ@4HA
	DD	imagerel ?dtor$1@?0???1DecryptInfo@DecryptAnalysis@Analysis@IronMan@@QEAA@XZ@4HA+28
	DD	imagerel $unwind$?dtor$1@?0???1DecryptInfo@DecryptAnalysis@Analysis@IronMan@@QEAA@XZ@4HA
pdata	ENDS
;	COMDAT pdata
pdata	SEGMENT
$pdata$?dtor$2@?0???1DecryptInfo@DecryptAnalysis@Analysis@IronMan@@QEAA@XZ@4HA DD imagerel ?dtor$2@?0???1DecryptInfo@DecryptAnalysis@Analysis@IronMan@@QEAA@XZ@4HA
	DD	imagerel ?dtor$2@?0???1DecryptInfo@DecryptAnalysis@Analysis@IronMan@@QEAA@XZ@4HA+28
	DD	imagerel $unwind$?dtor$2@?0???1DecryptInfo@DecryptAnalysis@Analysis@IronMan@@QEAA@XZ@4HA
pdata	ENDS
;	COMDAT pdata
pdata	SEGMENT
$pdata$??0DecryptInfo@DecryptAnalysis@Analysis@IronMan@@QEAA@AEBU0123@@Z DD imagerel $LN6
	DD	imagerel $LN6+322
	DD	imagerel $unwind$??0DecryptInfo@DecryptAnalysis@Analysis@IronMan@@QEAA@AEBU0123@@Z
pdata	ENDS
;	COMDAT pdata
pdata	SEGMENT
$pdata$?dtor$0@?0???0DecryptInfo@DecryptAnalysis@Analysis@IronMan@@QEAA@AEBU0123@@Z@4HA DD imagerel ?dtor$0@?0???0DecryptInfo@DecryptAnalysis@Analysis@IronMan@@QEAA@AEBU0123@@Z@4HA
	DD	imagerel ?dtor$0@?0???0DecryptInfo@DecryptAnalysis@Analysis@IronMan@@QEAA@AEBU0123@@Z@4HA+28
	DD	imagerel $unwind$?dtor$0@?0???0DecryptInfo@DecryptAnalysis@Analysis@IronMan@@QEAA@AEBU0123@@Z@4HA
pdata	ENDS
;	COMDAT pdata
pdata	SEGMENT
$pdata$?dtor$1@?0???0DecryptInfo@DecryptAnalysis@Analysis@IronMan@@QEAA@AEBU0123@@Z@4HA DD imagerel ?dtor$1@?0???0DecryptInfo@DecryptAnalysis@Analysis@IronMan@@QEAA@AEBU0123@@Z@4HA
	DD	imagerel ?dtor$1@?0???0DecryptInfo@DecryptAnalysis@Analysis@IronMan@@QEAA@AEBU0123@@Z@4HA+28
	DD	imagerel $unwind$?dtor$1@?0???0DecryptInfo@DecryptAnalysis@Analysis@IronMan@@QEAA@AEBU0123@@Z@4HA
pdata	ENDS
;	COMDAT pdata
pdata	SEGMENT
$pdata$?dtor$2@?0???0DecryptInfo@DecryptAnalysis@Analysis@IronMan@@QEAA@AEBU0123@@Z@4HA DD imagerel ?dtor$2@?0???0DecryptInfo@DecryptAnalysis@Analysis@IronMan@@QEAA@AEBU0123@@Z@4HA
	DD	imagerel ?dtor$2@?0???0DecryptInfo@DecryptAnalysis@Analysis@IronMan@@QEAA@AEBU0123@@Z@4HA+28
	DD	imagerel $unwind$?dtor$2@?0???0DecryptInfo@DecryptAnalysis@Analysis@IronMan@@QEAA@AEBU0123@@Z@4HA
pdata	ENDS
;	COMDAT pdata
pdata	SEGMENT
$pdata$??0DecryptInfo@DecryptAnalysis@Analysis@IronMan@@QEAA@$$QEAU0123@@Z DD imagerel $LN6
	DD	imagerel $LN6+322
	DD	imagerel $unwind$??0DecryptInfo@DecryptAnalysis@Analysis@IronMan@@QEAA@$$QEAU0123@@Z
pdata	ENDS
;	COMDAT pdata
pdata	SEGMENT
$pdata$?dtor$0@?0???0DecryptInfo@DecryptAnalysis@Analysis@IronMan@@QEAA@$$QEAU0123@@Z@4HA DD imagerel ?dtor$0@?0???0DecryptInfo@DecryptAnalysis@Analysis@IronMan@@QEAA@$$QEAU0123@@Z@4HA
	DD	imagerel ?dtor$0@?0???0DecryptInfo@DecryptAnalysis@Analysis@IronMan@@QEAA@$$QEAU0123@@Z@4HA+28
	DD	imagerel $unwind$?dtor$0@?0???0DecryptInfo@DecryptAnalysis@Analysis@IronMan@@QEAA@$$QEAU0123@@Z@4HA
pdata	ENDS
;	COMDAT pdata
pdata	SEGMENT
$pdata$?dtor$1@?0???0DecryptInfo@DecryptAnalysis@Analysis@IronMan@@QEAA@$$QEAU0123@@Z@4HA DD imagerel ?dtor$1@?0???0DecryptInfo@DecryptAnalysis@Analysis@IronMan@@QEAA@$$QEAU0123@@Z@4HA
	DD	imagerel ?dtor$1@?0???0DecryptInfo@DecryptAnalysis@Analysis@IronMan@@QEAA@$$QEAU0123@@Z@4HA+28
	DD	imagerel $unwind$?dtor$1@?0???0DecryptInfo@DecryptAnalysis@Analysis@IronMan@@QEAA@$$QEAU0123@@Z@4HA
pdata	ENDS
;	COMDAT pdata
pdata	SEGMENT
$pdata$?dtor$2@?0???0DecryptInfo@DecryptAnalysis@Analysis@IronMan@@QEAA@$$QEAU0123@@Z@4HA DD imagerel ?dtor$2@?0???0DecryptInfo@DecryptAnalysis@Analysis@IronMan@@QEAA@$$QEAU0123@@Z@4HA
	DD	imagerel ?dtor$2@?0???0DecryptInfo@DecryptAnalysis@Analysis@IronMan@@QEAA@$$QEAU0123@@Z@4HA+28
	DD	imagerel $unwind$?dtor$2@?0???0DecryptInfo@DecryptAnalysis@Analysis@IronMan@@QEAA@$$QEAU0123@@Z@4HA
pdata	ENDS
;	COMDAT pdata
pdata	SEGMENT
$pdata$??_GDecryptInfo@DecryptAnalysis@Analysis@IronMan@@QEAAPEAXI@Z DD imagerel $LN4
	DD	imagerel $LN4+60
	DD	imagerel $unwind$??_GDecryptInfo@DecryptAnalysis@Analysis@IronMan@@QEAAPEAXI@Z
pdata	ENDS
pdata	SEGMENT
$pdata$?Analyse@DecryptAnalysis@Analysis@IronMan@@UEAA_NXZ DD imagerel $LN5
	DD	imagerel $LN5+83
	DD	imagerel $unwind$?Analyse@DecryptAnalysis@Analysis@IronMan@@UEAA_NXZ
$pdata$?Build@DecryptAnalysis@Analysis@IronMan@@UEAA_NV?$function@$$A6AXPEAX@Z@std@@@Z DD imagerel $LN67
	DD	imagerel $LN67+5613
	DD	imagerel $unwind$?Build@DecryptAnalysis@Analysis@IronMan@@UEAA_NV?$function@$$A6AXPEAX@Z@std@@@Z
pdata	ENDS
pdata	SEGMENT
$pdata$?dtor$0@?0??Build@DecryptAnalysis@Analysis@IronMan@@UEAA_NV?$function@$$A6AXPEAX@Z@std@@@Z@4HA DD imagerel ?dtor$0@?0??Build@DecryptAnalysis@Analysis@IronMan@@UEAA_NV?$function@$$A6AXPEAX@Z@std@@@Z@4HA
	DD	imagerel ?dtor$0@?0??Build@DecryptAnalysis@Analysis@IronMan@@UEAA_NV?$function@$$A6AXPEAX@Z@std@@@Z@4HA+27
	DD	imagerel $unwind$?dtor$0@?0??Build@DecryptAnalysis@Analysis@IronMan@@UEAA_NV?$function@$$A6AXPEAX@Z@std@@@Z@4HA
$pdata$?dtor$1@?0??Build@DecryptAnalysis@Analysis@IronMan@@UEAA_NV?$function@$$A6AXPEAX@Z@std@@@Z@4HA DD imagerel ?dtor$1@?0??Build@DecryptAnalysis@Analysis@IronMan@@UEAA_NV?$function@$$A6AXPEAX@Z@std@@@Z@4HA
	DD	imagerel ?dtor$1@?0??Build@DecryptAnalysis@Analysis@IronMan@@UEAA_NV?$function@$$A6AXPEAX@Z@std@@@Z@4HA+24
	DD	imagerel $unwind$?dtor$1@?0??Build@DecryptAnalysis@Analysis@IronMan@@UEAA_NV?$function@$$A6AXPEAX@Z@std@@@Z@4HA
$pdata$?dtor$2@?0??Build@DecryptAnalysis@Analysis@IronMan@@UEAA_NV?$function@$$A6AXPEAX@Z@std@@@Z@4HA DD imagerel ?dtor$2@?0??Build@DecryptAnalysis@Analysis@IronMan@@UEAA_NV?$function@$$A6AXPEAX@Z@std@@@Z@4HA
	DD	imagerel ?dtor$2@?0??Build@DecryptAnalysis@Analysis@IronMan@@UEAA_NV?$function@$$A6AXPEAX@Z@std@@@Z@4HA+27
	DD	imagerel $unwind$?dtor$2@?0??Build@DecryptAnalysis@Analysis@IronMan@@UEAA_NV?$function@$$A6AXPEAX@Z@std@@@Z@4HA
pdata	ENDS
pdata	SEGMENT
$pdata$?MOV@DecryptAnalysis@Analysis@IronMan@@AEAAXAEBUInstructionInfo@123@AEBV?$vector@UX86Mem@asmjit@@V?$allocator@UX86Mem@asmjit@@@std@@@std@@PEAUX86Assembler@asmjit@@_N@Z DD imagerel $LN25
	DD	imagerel $LN25+882
	DD	imagerel $unwind$?MOV@DecryptAnalysis@Analysis@IronMan@@AEAAXAEBUInstructionInfo@123@AEBV?$vector@UX86Mem@asmjit@@V?$allocator@UX86Mem@asmjit@@@std@@@std@@PEAUX86Assembler@asmjit@@_N@Z
$pdata$?scanDecryptions@DecryptAnalysis@Analysis@IronMan@@AEAAXXZ DD imagerel $LN81
	DD	imagerel $LN81+4687
	DD	imagerel $unwind$?scanDecryptions@DecryptAnalysis@Analysis@IronMan@@AEAAXXZ
pdata	ENDS
pdata	SEGMENT
$pdata$?dtor$0@?0??scanDecryptions@DecryptAnalysis@Analysis@IronMan@@AEAAXXZ@4HA DD imagerel ?dtor$0@?0??scanDecryptions@DecryptAnalysis@Analysis@IronMan@@AEAAXXZ@4HA
	DD	imagerel ?dtor$0@?0??scanDecryptions@DecryptAnalysis@Analysis@IronMan@@AEAAXXZ@4HA+27
	DD	imagerel $unwind$?dtor$0@?0??scanDecryptions@DecryptAnalysis@Analysis@IronMan@@AEAAXXZ@4HA
$pdata$?dtor$1@?0??scanDecryptions@DecryptAnalysis@Analysis@IronMan@@AEAAXXZ@4HA DD imagerel ?dtor$1@?0??scanDecryptions@DecryptAnalysis@Analysis@IronMan@@AEAAXXZ@4HA
	DD	imagerel ?dtor$1@?0??scanDecryptions@DecryptAnalysis@Analysis@IronMan@@AEAAXXZ@4HA+27
	DD	imagerel $unwind$?dtor$1@?0??scanDecryptions@DecryptAnalysis@Analysis@IronMan@@AEAAXXZ@4HA
$pdata$?dtor$2@?0??scanDecryptions@DecryptAnalysis@Analysis@IronMan@@AEAAXXZ@4HA DD imagerel ?dtor$2@?0??scanDecryptions@DecryptAnalysis@Analysis@IronMan@@AEAAXXZ@4HA
	DD	imagerel ?dtor$2@?0??scanDecryptions@DecryptAnalysis@Analysis@IronMan@@AEAAXXZ@4HA+27
	DD	imagerel $unwind$?dtor$2@?0??scanDecryptions@DecryptAnalysis@Analysis@IronMan@@AEAAXXZ@4HA
$pdata$?dtor$3@?0??scanDecryptions@DecryptAnalysis@Analysis@IronMan@@AEAAXXZ@4HA DD imagerel ?dtor$3@?0??scanDecryptions@DecryptAnalysis@Analysis@IronMan@@AEAAXXZ@4HA
	DD	imagerel ?dtor$3@?0??scanDecryptions@DecryptAnalysis@Analysis@IronMan@@AEAAXXZ@4HA+27
	DD	imagerel $unwind$?dtor$3@?0??scanDecryptions@DecryptAnalysis@Analysis@IronMan@@AEAAXXZ@4HA
$pdata$?dtor$4@?0??scanDecryptions@DecryptAnalysis@Analysis@IronMan@@AEAAXXZ@4HA DD imagerel ?dtor$4@?0??scanDecryptions@DecryptAnalysis@Analysis@IronMan@@AEAAXXZ@4HA
	DD	imagerel ?dtor$4@?0??scanDecryptions@DecryptAnalysis@Analysis@IronMan@@AEAAXXZ@4HA+27
	DD	imagerel $unwind$?dtor$4@?0??scanDecryptions@DecryptAnalysis@Analysis@IronMan@@AEAAXXZ@4HA
$pdata$?dtor$5@?0??scanDecryptions@DecryptAnalysis@Analysis@IronMan@@AEAAXXZ@4HA DD imagerel ?dtor$5@?0??scanDecryptions@DecryptAnalysis@Analysis@IronMan@@AEAAXXZ@4HA
	DD	imagerel ?dtor$5@?0??scanDecryptions@DecryptAnalysis@Analysis@IronMan@@AEAAXXZ@4HA+27
	DD	imagerel $unwind$?dtor$5@?0??scanDecryptions@DecryptAnalysis@Analysis@IronMan@@AEAAXXZ@4HA
pdata	ENDS
pdata	SEGMENT
$pdata$?analyseDecrypttions@DecryptAnalysis@Analysis@IronMan@@AEAAXXZ DD imagerel $LN22
	DD	imagerel $LN22+1650
	DD	imagerel $unwind$?analyseDecrypttions@DecryptAnalysis@Analysis@IronMan@@AEAAXXZ
$pdata$??0DecryptAnalysis@Analysis@IronMan@@QEAA@_K@Z DD imagerel $LN6
	DD	imagerel $LN6+379
	DD	imagerel $unwind$??0DecryptAnalysis@Analysis@IronMan@@QEAA@_K@Z
pdata	ENDS
pdata	SEGMENT
$pdata$?dtor$0@?0???0DecryptAnalysis@Analysis@IronMan@@QEAA@_K@Z@4HA DD imagerel ?dtor$0@?0???0DecryptAnalysis@Analysis@IronMan@@QEAA@_K@Z@4HA
	DD	imagerel ?dtor$0@?0???0DecryptAnalysis@Analysis@IronMan@@QEAA@_K@Z@4HA+27
	DD	imagerel $unwind$?dtor$0@?0???0DecryptAnalysis@Analysis@IronMan@@QEAA@_K@Z@4HA
$pdata$?dtor$1@?0???0DecryptAnalysis@Analysis@IronMan@@QEAA@_K@Z@4HA DD imagerel ?dtor$1@?0???0DecryptAnalysis@Analysis@IronMan@@QEAA@_K@Z@4HA
	DD	imagerel ?dtor$1@?0???0DecryptAnalysis@Analysis@IronMan@@QEAA@_K@Z@4HA+34
	DD	imagerel $unwind$?dtor$1@?0???0DecryptAnalysis@Analysis@IronMan@@QEAA@_K@Z@4HA
$pdata$?dtor$2@?0???0DecryptAnalysis@Analysis@IronMan@@QEAA@_K@Z@4HA DD imagerel ?dtor$2@?0???0DecryptAnalysis@Analysis@IronMan@@QEAA@_K@Z@4HA
	DD	imagerel ?dtor$2@?0???0DecryptAnalysis@Analysis@IronMan@@QEAA@_K@Z@4HA+24
	DD	imagerel $unwind$?dtor$2@?0???0DecryptAnalysis@Analysis@IronMan@@QEAA@_K@Z@4HA
pdata	ENDS
pdata	SEGMENT
$pdata$??1DecryptAnalysis@Analysis@IronMan@@UEAA@XZ DD imagerel $LN5
	DD	imagerel $LN5+60
	DD	imagerel $unwind$??1DecryptAnalysis@Analysis@IronMan@@UEAA@XZ
pdata	ENDS
pdata	SEGMENT
$pdata$?dtor$0@?0???1DecryptAnalysis@Analysis@IronMan@@UEAA@XZ@4HA DD imagerel ?dtor$0@?0???1DecryptAnalysis@Analysis@IronMan@@UEAA@XZ@4HA
	DD	imagerel ?dtor$0@?0???1DecryptAnalysis@Analysis@IronMan@@UEAA@XZ@4HA+24
	DD	imagerel $unwind$?dtor$0@?0???1DecryptAnalysis@Analysis@IronMan@@UEAA@XZ@4HA
$pdata$?dtor$1@?0???1DecryptAnalysis@Analysis@IronMan@@UEAA@XZ@4HA DD imagerel ?dtor$1@?0???1DecryptAnalysis@Analysis@IronMan@@UEAA@XZ@4HA
	DD	imagerel ?dtor$1@?0???1DecryptAnalysis@Analysis@IronMan@@UEAA@XZ@4HA+31
	DD	imagerel $unwind$?dtor$1@?0???1DecryptAnalysis@Analysis@IronMan@@UEAA@XZ@4HA
pdata	ENDS
;	COMDAT pdata
pdata	SEGMENT
$pdata$?deallocate@?$allocator@UDecryptInfo@DecryptAnalysis@Analysis@IronMan@@@std@@QEAAXQEAUDecryptInfo@DecryptAnalysis@Analysis@IronMan@@_K@Z DD imagerel $LN3
	DD	imagerel $LN3+47
	DD	imagerel $unwind$?deallocate@?$allocator@UDecryptInfo@DecryptAnalysis@Analysis@IronMan@@@std@@QEAAXQEAUDecryptInfo@DecryptAnalysis@Analysis@IronMan@@_K@Z
pdata	ENDS
;	COMDAT pdata
pdata	SEGMENT
$pdata$?allocate@?$allocator@UDecryptInfo@DecryptAnalysis@Analysis@IronMan@@@std@@QEAAPEAUDecryptInfo@DecryptAnalysis@Analysis@IronMan@@_K@Z DD imagerel $LN3
	DD	imagerel $LN3+37
	DD	imagerel $unwind$?allocate@?$allocator@UDecryptInfo@DecryptAnalysis@Analysis@IronMan@@@std@@QEAAPEAUDecryptInfo@DecryptAnalysis@Analysis@IronMan@@_K@Z
pdata	ENDS
;	COMDAT pdata
pdata	SEGMENT
$pdata$??0?$vector@UDecryptInfo@DecryptAnalysis@Analysis@IronMan@@V?$allocator@UDecryptInfo@DecryptAnalysis@Analysis@IronMan@@@std@@@std@@QEAA@XZ DD imagerel $LN3
	DD	imagerel $LN3+73
	DD	imagerel $unwind$??0?$vector@UDecryptInfo@DecryptAnalysis@Analysis@IronMan@@V?$allocator@UDecryptInfo@DecryptAnalysis@Analysis@IronMan@@@std@@@std@@QEAA@XZ
pdata	ENDS
;	COMDAT pdata
pdata	SEGMENT
$pdata$??1?$vector@UDecryptInfo@DecryptAnalysis@Analysis@IronMan@@V?$allocator@UDecryptInfo@DecryptAnalysis@Analysis@IronMan@@@std@@@std@@QEAA@XZ DD imagerel $LN3
	DD	imagerel $LN3+25
	DD	imagerel $unwind$??1?$vector@UDecryptInfo@DecryptAnalysis@Analysis@IronMan@@V?$allocator@UDecryptInfo@DecryptAnalysis@Analysis@IronMan@@@std@@@std@@QEAA@XZ
pdata	ENDS
;	COMDAT pdata
pdata	SEGMENT
$pdata$?push_back@?$vector@UDecryptInfo@DecryptAnalysis@Analysis@IronMan@@V?$allocator@UDecryptInfo@DecryptAnalysis@Analysis@IronMan@@@std@@@std@@QEAAXAEBUDecryptInfo@DecryptAnalysis@Analysis@IronMan@@@Z DD imagerel $LN3
	DD	imagerel $LN3+35
	DD	imagerel $unwind$?push_back@?$vector@UDecryptInfo@DecryptAnalysis@Analysis@IronMan@@V?$allocator@UDecryptInfo@DecryptAnalysis@Analysis@IronMan@@@std@@@std@@QEAAXAEBUDecryptInfo@DecryptAnalysis@Analysis@IronMan@@@Z
pdata	ENDS
;	COMDAT pdata
pdata	SEGMENT
$pdata$?_Unchecked_begin@?$vector@UDecryptInfo@DecryptAnalysis@Analysis@IronMan@@V?$allocator@UDecryptInfo@DecryptAnalysis@Analysis@IronMan@@@std@@@std@@QEAAPEAUDecryptInfo@DecryptAnalysis@Analysis@IronMan@@XZ DD imagerel $LN3
	DD	imagerel $LN3+27
	DD	imagerel $unwind$?_Unchecked_begin@?$vector@UDecryptInfo@DecryptAnalysis@Analysis@IronMan@@V?$allocator@UDecryptInfo@DecryptAnalysis@Analysis@IronMan@@@std@@@std@@QEAAPEAUDecryptInfo@DecryptAnalysis@Analysis@IronMan@@XZ
pdata	ENDS
;	COMDAT pdata
pdata	SEGMENT
$pdata$?_Unchecked_end@?$vector@UDecryptInfo@DecryptAnalysis@Analysis@IronMan@@V?$allocator@UDecryptInfo@DecryptAnalysis@Analysis@IronMan@@@std@@@std@@QEAAPEAUDecryptInfo@DecryptAnalysis@Analysis@IronMan@@XZ DD imagerel $LN3
	DD	imagerel $LN3+28
	DD	imagerel $unwind$?_Unchecked_end@?$vector@UDecryptInfo@DecryptAnalysis@Analysis@IronMan@@V?$allocator@UDecryptInfo@DecryptAnalysis@Analysis@IronMan@@@std@@@std@@QEAAPEAUDecryptInfo@DecryptAnalysis@Analysis@IronMan@@XZ
pdata	ENDS
;	COMDAT pdata
pdata	SEGMENT
$pdata$?empty@?$vector@UDecryptInfo@DecryptAnalysis@Analysis@IronMan@@V?$allocator@UDecryptInfo@DecryptAnalysis@Analysis@IronMan@@@std@@@std@@QEBA_NXZ DD imagerel $LN5
	DD	imagerel $LN5+63
	DD	imagerel $unwind$?empty@?$vector@UDecryptInfo@DecryptAnalysis@Analysis@IronMan@@V?$allocator@UDecryptInfo@DecryptAnalysis@Analysis@IronMan@@@std@@@std@@QEBA_NXZ
pdata	ENDS
;	COMDAT pdata
pdata	SEGMENT
$pdata$?max_size@?$vector@UDecryptInfo@DecryptAnalysis@Analysis@IronMan@@V?$allocator@UDecryptInfo@DecryptAnalysis@Analysis@IronMan@@@std@@@std@@QEBA_KXZ DD imagerel $LN3
	DD	imagerel $LN3+65
	DD	imagerel $unwind$?max_size@?$vector@UDecryptInfo@DecryptAnalysis@Analysis@IronMan@@V?$allocator@UDecryptInfo@DecryptAnalysis@Analysis@IronMan@@@std@@@std@@QEBA_KXZ
pdata	ENDS
;	COMDAT pdata
pdata	SEGMENT
$pdata$?capacity@?$vector@UDecryptInfo@DecryptAnalysis@Analysis@IronMan@@V?$allocator@UDecryptInfo@DecryptAnalysis@Analysis@IronMan@@@std@@@std@@QEBA_KXZ DD imagerel $LN3
	DD	imagerel $LN3+51
	DD	imagerel $unwind$?capacity@?$vector@UDecryptInfo@DecryptAnalysis@Analysis@IronMan@@V?$allocator@UDecryptInfo@DecryptAnalysis@Analysis@IronMan@@@std@@@std@@QEBA_KXZ
pdata	ENDS
;	COMDAT pdata
pdata	SEGMENT
$pdata$?_Calculate_growth@?$vector@UDecryptInfo@DecryptAnalysis@Analysis@IronMan@@V?$allocator@UDecryptInfo@DecryptAnalysis@Analysis@IronMan@@@std@@@std@@AEBA_K_K@Z DD imagerel $LN5
	DD	imagerel $LN5+144
	DD	imagerel $unwind$?_Calculate_growth@?$vector@UDecryptInfo@DecryptAnalysis@Analysis@IronMan@@V?$allocator@UDecryptInfo@DecryptAnalysis@Analysis@IronMan@@@std@@@std@@AEBA_K_K@Z
pdata	ENDS
;	COMDAT pdata
pdata	SEGMENT
$pdata$?_Change_array@?$vector@UDecryptInfo@DecryptAnalysis@Analysis@IronMan@@V?$allocator@UDecryptInfo@DecryptAnalysis@Analysis@IronMan@@@std@@@std@@AEAAXQEAUDecryptInfo@DecryptAnalysis@Analysis@IronMan@@_K1@Z DD imagerel $LN4
	DD	imagerel $LN4+260
	DD	imagerel $unwind$?_Change_array@?$vector@UDecryptInfo@DecryptAnalysis@Analysis@IronMan@@V?$allocator@UDecryptInfo@DecryptAnalysis@Analysis@IronMan@@@std@@@std@@AEAAXQEAUDecryptInfo@DecryptAnalysis@Analysis@IronMan@@_K1@Z
pdata	ENDS
;	COMDAT pdata
pdata	SEGMENT
$pdata$?_Tidy@?$vector@UDecryptInfo@DecryptAnalysis@Analysis@IronMan@@V?$allocator@UDecryptInfo@DecryptAnalysis@Analysis@IronMan@@@std@@@std@@AEAAXXZ DD imagerel $LN4
	DD	imagerel $LN4+211
	DD	imagerel $unwind$?_Tidy@?$vector@UDecryptInfo@DecryptAnalysis@Analysis@IronMan@@V?$allocator@UDecryptInfo@DecryptAnalysis@Analysis@IronMan@@@std@@@std@@AEAAXXZ
pdata	ENDS
;	COMDAT pdata
pdata	SEGMENT
$pdata$?_Xlength@?$vector@UDecryptInfo@DecryptAnalysis@Analysis@IronMan@@V?$allocator@UDecryptInfo@DecryptAnalysis@Analysis@IronMan@@@std@@@std@@CAXXZ DD imagerel $LN3
	DD	imagerel $LN3+22
	DD	imagerel $unwind$?_Xlength@?$vector@UDecryptInfo@DecryptAnalysis@Analysis@IronMan@@V?$allocator@UDecryptInfo@DecryptAnalysis@Analysis@IronMan@@@std@@@std@@CAXXZ
pdata	ENDS
;	COMDAT pdata
pdata	SEGMENT
$pdata$?_Getal@?$vector@UDecryptInfo@DecryptAnalysis@Analysis@IronMan@@V?$allocator@UDecryptInfo@DecryptAnalysis@Analysis@IronMan@@@std@@@std@@AEAAAEAV?$allocator@UDecryptInfo@DecryptAnalysis@Analysis@IronMan@@@2@XZ DD imagerel $LN3
	DD	imagerel $LN3+27
	DD	imagerel $unwind$?_Getal@?$vector@UDecryptInfo@DecryptAnalysis@Analysis@IronMan@@V?$allocator@UDecryptInfo@DecryptAnalysis@Analysis@IronMan@@@std@@@std@@AEAAAEAV?$allocator@UDecryptInfo@DecryptAnalysis@Analysis@IronMan@@@2@XZ
pdata	ENDS
;	COMDAT pdata
pdata	SEGMENT
$pdata$?_Getal@?$vector@UDecryptInfo@DecryptAnalysis@Analysis@IronMan@@V?$allocator@UDecryptInfo@DecryptAnalysis@Analysis@IronMan@@@std@@@std@@AEBAAEBV?$allocator@UDecryptInfo@DecryptAnalysis@Analysis@IronMan@@@2@XZ DD imagerel $LN3
	DD	imagerel $LN3+27
	DD	imagerel $unwind$?_Getal@?$vector@UDecryptInfo@DecryptAnalysis@Analysis@IronMan@@V?$allocator@UDecryptInfo@DecryptAnalysis@Analysis@IronMan@@@std@@@std@@AEBAAEBV?$allocator@UDecryptInfo@DecryptAnalysis@Analysis@IronMan@@@2@XZ
pdata	ENDS
;	COMDAT pdata
pdata	SEGMENT
$pdata$??_GDecryptAnalysis@Analysis@IronMan@@UEAAPEAXI@Z DD imagerel $LN4
	DD	imagerel $LN4+60
	DD	imagerel $unwind$??_GDecryptAnalysis@Analysis@IronMan@@UEAAPEAXI@Z
pdata	ENDS
;	COMDAT pdata
pdata	SEGMENT
$pdata$?now@system_clock@chrono@std@@SA?AV?$time_point@Usystem_clock@chrono@std@@V?$duration@_JU?$ratio@$00$0JIJGIA@@std@@@23@@23@XZ DD imagerel $LN3
	DD	imagerel $LN3+58
	DD	imagerel $unwind$?now@system_clock@chrono@std@@SA?AV?$time_point@Usystem_clock@chrono@std@@V?$duration@_JU?$ratio@$00$0JIJGIA@@std@@@23@@23@XZ
pdata	ENDS
;	COMDAT pdata
pdata	SEGMENT
$pdata$??1BaseProcessInfo@IronMan@@QEAA@XZ DD imagerel $LN4
	DD	imagerel $LN4+32
	DD	imagerel $unwind$??1BaseProcessInfo@IronMan@@QEAA@XZ
pdata	ENDS
;	COMDAT pdata
pdata	SEGMENT
$pdata$?dtor$0@?0???1BaseProcessInfo@IronMan@@QEAA@XZ@4HA DD imagerel ?dtor$0@?0???1BaseProcessInfo@IronMan@@QEAA@XZ@4HA
	DD	imagerel ?dtor$0@?0???1BaseProcessInfo@IronMan@@QEAA@XZ@4HA+28
	DD	imagerel $unwind$?dtor$0@?0???1BaseProcessInfo@IronMan@@QEAA@XZ@4HA
pdata	ENDS
;	COMDAT pdata
pdata	SEGMENT
$pdata$??__E?UpdateStartTime@DMAHandler@IronMan@@0V?$time_point@Usystem_clock@chrono@std@@V?$duration@_JU?$ratio@$00$0JIJGIA@@std@@@23@@chrono@std@@A@@YAXXZ DD imagerel ??__E?UpdateStartTime@DMAHandler@IronMan@@0V?$time_point@Usystem_clock@chrono@std@@V?$duration@_JU?$ratio@$00$0JIJGIA@@std@@@23@@chrono@std@@A@@YAXXZ
	DD	imagerel ??__E?UpdateStartTime@DMAHandler@IronMan@@0V?$time_point@Usystem_clock@chrono@std@@V?$duration@_JU?$ratio@$00$0JIJGIA@@std@@@23@@chrono@std@@A@@YAXXZ+22
	DD	imagerel $unwind$??__E?UpdateStartTime@DMAHandler@IronMan@@0V?$time_point@Usystem_clock@chrono@std@@V?$duration@_JU?$ratio@$00$0JIJGIA@@std@@@23@@chrono@std@@A@@YAXXZ
pdata	ENDS
;	COMDAT pdata
pdata	SEGMENT
$pdata$?_Decref@?$_Ptr_base@V?$unordered_map@PEAXV?$vector@UScatterStruct@IronMan@@V?$allocator@UScatterStruct@IronMan@@@std@@@std@@U?$hash@PEAX@2@U?$equal_to@PEAX@2@V?$allocator@U?$pair@QEAXV?$vector@UScatterStruct@IronMan@@V?$allocator@UScatterStruct@IronMan@@@std@@@std@@@std@@@2@@std@@@std@@IEAAXXZ DD imagerel $LN4
	DD	imagerel $LN4+41
	DD	imagerel $unwind$?_Decref@?$_Ptr_base@V?$unordered_map@PEAXV?$vector@UScatterStruct@IronMan@@V?$allocator@UScatterStruct@IronMan@@@std@@@std@@U?$hash@PEAX@2@U?$equal_to@PEAX@2@V?$allocator@U?$pair@QEAXV?$vector@UScatterStruct@IronMan@@V?$allocator@UScatterStruct@IronMan@@@std@@@std@@@std@@@2@@std@@@std@@IEAAXXZ
pdata	ENDS
;	COMDAT pdata
pdata	SEGMENT
$pdata$??1?$shared_ptr@V?$unordered_map@PEAXV?$vector@UScatterStruct@IronMan@@V?$allocator@UScatterStruct@IronMan@@@std@@@std@@U?$hash@PEAX@2@U?$equal_to@PEAX@2@V?$allocator@U?$pair@QEAXV?$vector@UScatterStruct@IronMan@@V?$allocator@UScatterStruct@IronMan@@@std@@@std@@@std@@@2@@std@@@std@@QEAA@XZ DD imagerel $LN3
	DD	imagerel $LN3+25
	DD	imagerel $unwind$??1?$shared_ptr@V?$unordered_map@PEAXV?$vector@UScatterStruct@IronMan@@V?$allocator@UScatterStruct@IronMan@@@std@@@std@@U?$hash@PEAX@2@U?$equal_to@PEAX@2@V?$allocator@U?$pair@QEAXV?$vector@UScatterStruct@IronMan@@V?$allocator@UScatterStruct@IronMan@@@std@@@std@@@std@@@2@@std@@@std@@QEAA@XZ
pdata	ENDS
;	COMDAT pdata
pdata	SEGMENT
$pdata$??__E?ScatterWriteArray@DMAHandler@IronMan@@0V?$shared_ptr@V?$unordered_map@PEAXV?$vector@UScatterStruct@IronMan@@V?$allocator@UScatterStruct@IronMan@@@std@@@std@@U?$hash@PEAX@2@U?$equal_to@PEAX@2@V?$allocator@U?$pair@QEAXV?$vector@UScatterStruct@IronMan@@V?$allocator@UScatterStruct@IronMan@@@std@@@std@@@std@@@2@@std@@@std@@A@@YAXXZ DD imagerel ??__E?ScatterWriteArray@DMAHandler@IronMan@@0V?$shared_ptr@V?$unordered_map@PEAXV?$vector@UScatterStruct@IronMan@@V?$allocator@UScatterStruct@IronMan@@@std@@@std@@U?$hash@PEAX@2@U?$equal_to@PEAX@2@V?$allocator@U?$pair@QEAXV?$vector@UScatterStruct@IronMan@@V?$allocator@UScatterStruct@IronMan@@@std@@@std@@@std@@@2@@std@@@std@@A@@YAXXZ
	DD	imagerel ??__E?ScatterWriteArray@DMAHandler@IronMan@@0V?$shared_ptr@V?$unordered_map@PEAXV?$vector@UScatterStruct@IronMan@@V?$allocator@UScatterStruct@IronMan@@@std@@@std@@U?$hash@PEAX@2@U?$equal_to@PEAX@2@V?$allocator@U?$pair@QEAXV?$vector@UScatterStruct@IronMan@@V?$allocator@UScatterStruct@IronMan@@@std@@@std@@@std@@@2@@std@@@std@@A@@YAXXZ+22
	DD	imagerel $unwind$??__E?ScatterWriteArray@DMAHandler@IronMan@@0V?$shared_ptr@V?$unordered_map@PEAXV?$vector@UScatterStruct@IronMan@@V?$allocator@UScatterStruct@IronMan@@@std@@@std@@U?$hash@PEAX@2@U?$equal_to@PEAX@2@V?$allocator@U?$pair@QEAXV?$vector@UScatterStruct@IronMan@@V?$allocator@UScatterStruct@IronMan@@@std@@@std@@@std@@@2@@std@@@std@@A@@YAXXZ
pdata	ENDS
;	COMDAT pdata
pdata	SEGMENT
