; Listing generated by Microsoft (R) Optimizing Compiler Version 19.43.34810.0 

include listing.inc

INCLUDELIB LIBCMT
INCLUDELIB OLDNAMES

PUBLIC	??_C@_06GLKGGCJO@LcOpen@			; `string'
PUBLIC	??_C@_06GJPHNGFG@LcRead@			; `string'
PUBLIC	??_C@_0O@CBBNAKKC@LcReadScatter@		; `string'
PUBLIC	??_C@_07MBHEMNEL@LcWrite@			; `string'
PUBLIC	??_C@_0P@DAJMPOFM@LcWriteScatter@		; `string'
PUBLIC	??_C@_0M@HBBFEIGD@LcGetOption@			; `string'
PUBLIC	??_C@_0M@FPFAGJPB@LcSetOption@			; `string'
PUBLIC	??_C@_09DCHLEDFD@LcCommand@			; `string'
PUBLIC	??_C@_03HPADHAHE@N?1A@				; `string'
PUBLIC	??_C@_03HDGGCCPD@X86@				; `string'
PUBLIC	??_C@_06IDLKBMKC@X86PAE@			; `string'
PUBLIC	??_C@_03ELMOGNHL@X64@				; `string'
PUBLIC	??_C@_05DKFIPBAL@ARM64@				; `string'
PUBLIC	?Font16px@OverlayEngine@Core@IronMan@@2PEAUImFont@@EA ; IronMan::Core::OverlayEngine::Font16px
PUBLIC	?Font14px@OverlayEngine@Core@IronMan@@2PEAUImFont@@EA ; IronMan::Core::OverlayEngine::Font14px
PUBLIC	?Font18px@OverlayEngine@Core@IronMan@@2PEAUImFont@@EA ; IronMan::Core::OverlayEngine::Font18px
PUBLIC	?Font20px@OverlayEngine@Core@IronMan@@2PEAUImFont@@EA ; IronMan::Core::OverlayEngine::Font20px
PUBLIC	?Font30px@OverlayEngine@Core@IronMan@@2PEAUImFont@@EA ; IronMan::Core::OverlayEngine::Font30px
PUBLIC	?mDevice@OverlayEngine@Core@IronMan@@2PEAUID3D11Device@@EA ; IronMan::Core::OverlayEngine::mDevice
PUBLIC	?mSwapChain@OverlayEngine@Core@IronMan@@2PEAUIDXGISwapChain@@EA ; IronMan::Core::OverlayEngine::mSwapChain
PUBLIC	?mContext@OverlayEngine@Core@IronMan@@2PEAUID3D11DeviceContext@@EA ; IronMan::Core::OverlayEngine::mContext
PUBLIC	?mOverlayWindow@OverlayEngine@Core@IronMan@@2PEAUHWND__@@EA ; IronMan::Core::OverlayEngine::mOverlayWindow
PUBLIC	?mTargetScreenLeft@OverlayEngine@Core@IronMan@@2HA ; IronMan::Core::OverlayEngine::mTargetScreenLeft
PUBLIC	?mTargetScreenTop@OverlayEngine@Core@IronMan@@2HA ; IronMan::Core::OverlayEngine::mTargetScreenTop
PUBLIC	?mTargetScreenWidth@OverlayEngine@Core@IronMan@@2HA ; IronMan::Core::OverlayEngine::mTargetScreenWidth
PUBLIC	?mTargetScreenHeight@OverlayEngine@Core@IronMan@@2HA ; IronMan::Core::OverlayEngine::mTargetScreenHeight
PUBLIC	?mMainRenderTargetView@OverlayEngine@Core@IronMan@@2PEAUID3D11RenderTargetView@@EA ; IronMan::Core::OverlayEngine::mMainRenderTargetView
PUBLIC	?mKeyMap@OverlayEngine@Core@IronMan@@2PAW4KeyState@23@A ; IronMan::Core::OverlayEngine::mKeyMap
PUBLIC	?mApiKeyMap@OverlayEngine@Core@IronMan@@2PAGA	; IronMan::Core::OverlayEngine::mApiKeyMap
PUBLIC	?mApiKeyStateMap@OverlayEngine@Core@IronMan@@2PAW4KeyState@23@A ; IronMan::Core::OverlayEngine::mApiKeyStateMap
PUBLIC	CLSID_CUrlHistory
PUBLIC	CLSID_CUrlHistoryBoth
PUBLIC	??_C@_04PCJGBDOP@Zero@				; `string'
PUBLIC	??_C@_04HJMOFLDF@Free@				; `string'
PUBLIC	??_C@_07LNBDIIPN@Standby@			; `string'
PUBLIC	??_C@_07PFEKAJBJ@Modifiy@			; `string'
PUBLIC	??_C@_07DGKCKENG@ModNoWr@			; `string'
PUBLIC	??_C@_03KHCCLPOB@Bad@				; `string'
PUBLIC	??_C@_06MAFFGDO@Active@				; `string'
PUBLIC	??_C@_07KADDEKFE@Transit@			; `string'
PUBLIC	??_C@_01JOAMLHOP@?9@				; `string'
PUBLIC	??_C@_06CGLFEPBO@Unused@			; `string'
PUBLIC	??_C@_08LBAJPEDB@ProcPriv@			; `string'
PUBLIC	??_C@_09BGPMMIPE@PageTable@			; `string'
PUBLIC	??_C@_09MFCNICMF@LargePage@			; `string'
PUBLIC	??_C@_0L@DHBAIELD@DriverLock@			; `string'
PUBLIC	??_C@_09PKFILKGD@Shareable@			; `string'
PUBLIC	??_C@_04PBAHLACE@File@				; `string'
PUBLIC	c_DwmMaxQueuedBuffers
PUBLIC	c_DwmMaxMonitors
PUBLIC	c_DwmMaxAdapters
PUBLIC	_Avx2WmemEnabledWeakValue
PUBLIC	?g_XMSinCoefficients0@DirectX@@3UXMVECTORF32@1@B ; DirectX::g_XMSinCoefficients0
PUBLIC	?g_XMSinCoefficients1@DirectX@@3UXMVECTORF32@1@B ; DirectX::g_XMSinCoefficients1
PUBLIC	?g_XMCosCoefficients0@DirectX@@3UXMVECTORF32@1@B ; DirectX::g_XMCosCoefficients0
PUBLIC	?g_XMCosCoefficients1@DirectX@@3UXMVECTORF32@1@B ; DirectX::g_XMCosCoefficients1
PUBLIC	?g_XMTanCoefficients0@DirectX@@3UXMVECTORF32@1@B ; DirectX::g_XMTanCoefficients0
PUBLIC	?g_XMTanCoefficients1@DirectX@@3UXMVECTORF32@1@B ; DirectX::g_XMTanCoefficients1
PUBLIC	?g_XMTanCoefficients2@DirectX@@3UXMVECTORF32@1@B ; DirectX::g_XMTanCoefficients2
PUBLIC	?g_XMArcCoefficients0@DirectX@@3UXMVECTORF32@1@B ; DirectX::g_XMArcCoefficients0
PUBLIC	?g_XMArcCoefficients1@DirectX@@3UXMVECTORF32@1@B ; DirectX::g_XMArcCoefficients1
PUBLIC	?g_XMATanCoefficients0@DirectX@@3UXMVECTORF32@1@B ; DirectX::g_XMATanCoefficients0
PUBLIC	?g_XMATanCoefficients1@DirectX@@3UXMVECTORF32@1@B ; DirectX::g_XMATanCoefficients1
PUBLIC	?g_XMATanEstCoefficients0@DirectX@@3UXMVECTORF32@1@B ; DirectX::g_XMATanEstCoefficients0
PUBLIC	?g_XMATanEstCoefficients1@DirectX@@3UXMVECTORF32@1@B ; DirectX::g_XMATanEstCoefficients1
PUBLIC	?g_XMTanEstCoefficients@DirectX@@3UXMVECTORF32@1@B ; DirectX::g_XMTanEstCoefficients
PUBLIC	?g_XMArcEstCoefficients@DirectX@@3UXMVECTORF32@1@B ; DirectX::g_XMArcEstCoefficients
PUBLIC	?g_XMPiConstants0@DirectX@@3UXMVECTORF32@1@B	; DirectX::g_XMPiConstants0
PUBLIC	?g_XMIdentityR0@DirectX@@3UXMVECTORF32@1@B	; DirectX::g_XMIdentityR0
PUBLIC	?g_XMIdentityR1@DirectX@@3UXMVECTORF32@1@B	; DirectX::g_XMIdentityR1
PUBLIC	?g_XMIdentityR2@DirectX@@3UXMVECTORF32@1@B	; DirectX::g_XMIdentityR2
PUBLIC	?g_XMIdentityR3@DirectX@@3UXMVECTORF32@1@B	; DirectX::g_XMIdentityR3
PUBLIC	?g_XMNegIdentityR0@DirectX@@3UXMVECTORF32@1@B	; DirectX::g_XMNegIdentityR0
PUBLIC	?g_XMNegIdentityR1@DirectX@@3UXMVECTORF32@1@B	; DirectX::g_XMNegIdentityR1
PUBLIC	?g_XMNegIdentityR2@DirectX@@3UXMVECTORF32@1@B	; DirectX::g_XMNegIdentityR2
PUBLIC	?g_XMNegIdentityR3@DirectX@@3UXMVECTORF32@1@B	; DirectX::g_XMNegIdentityR3
PUBLIC	?g_XMNegativeZero@DirectX@@3UXMVECTORU32@1@B	; DirectX::g_XMNegativeZero
PUBLIC	?g_XMNegate3@DirectX@@3UXMVECTORU32@1@B		; DirectX::g_XMNegate3
PUBLIC	?g_XMMaskXY@DirectX@@3UXMVECTORU32@1@B		; DirectX::g_XMMaskXY
PUBLIC	?g_XMMask3@DirectX@@3UXMVECTORU32@1@B		; DirectX::g_XMMask3
PUBLIC	?g_XMMaskX@DirectX@@3UXMVECTORU32@1@B		; DirectX::g_XMMaskX
PUBLIC	?g_XMMaskY@DirectX@@3UXMVECTORU32@1@B		; DirectX::g_XMMaskY
PUBLIC	?g_XMMaskZ@DirectX@@3UXMVECTORU32@1@B		; DirectX::g_XMMaskZ
PUBLIC	?g_XMMaskW@DirectX@@3UXMVECTORU32@1@B		; DirectX::g_XMMaskW
PUBLIC	?g_XMOne@DirectX@@3UXMVECTORF32@1@B		; DirectX::g_XMOne
PUBLIC	?g_XMOne3@DirectX@@3UXMVECTORF32@1@B		; DirectX::g_XMOne3
PUBLIC	?g_XMZero@DirectX@@3UXMVECTORF32@1@B		; DirectX::g_XMZero
PUBLIC	?g_XMTwo@DirectX@@3UXMVECTORF32@1@B		; DirectX::g_XMTwo
PUBLIC	?g_XMFour@DirectX@@3UXMVECTORF32@1@B		; DirectX::g_XMFour
PUBLIC	?g_XMSix@DirectX@@3UXMVECTORF32@1@B		; DirectX::g_XMSix
PUBLIC	?g_XMNegativeOne@DirectX@@3UXMVECTORF32@1@B	; DirectX::g_XMNegativeOne
PUBLIC	?g_XMOneHalf@DirectX@@3UXMVECTORF32@1@B		; DirectX::g_XMOneHalf
PUBLIC	?g_XMNegativeOneHalf@DirectX@@3UXMVECTORF32@1@B	; DirectX::g_XMNegativeOneHalf
PUBLIC	?g_XMNegativeTwoPi@DirectX@@3UXMVECTORF32@1@B	; DirectX::g_XMNegativeTwoPi
PUBLIC	?g_XMNegativePi@DirectX@@3UXMVECTORF32@1@B	; DirectX::g_XMNegativePi
PUBLIC	?g_XMHalfPi@DirectX@@3UXMVECTORF32@1@B		; DirectX::g_XMHalfPi
PUBLIC	?g_XMPi@DirectX@@3UXMVECTORF32@1@B		; DirectX::g_XMPi
PUBLIC	?g_XMReciprocalPi@DirectX@@3UXMVECTORF32@1@B	; DirectX::g_XMReciprocalPi
PUBLIC	?g_XMTwoPi@DirectX@@3UXMVECTORF32@1@B		; DirectX::g_XMTwoPi
PUBLIC	?g_XMReciprocalTwoPi@DirectX@@3UXMVECTORF32@1@B	; DirectX::g_XMReciprocalTwoPi
PUBLIC	?g_XMEpsilon@DirectX@@3UXMVECTORF32@1@B		; DirectX::g_XMEpsilon
PUBLIC	?g_XMInfinity@DirectX@@3UXMVECTORI32@1@B	; DirectX::g_XMInfinity
PUBLIC	?g_XMQNaN@DirectX@@3UXMVECTORI32@1@B		; DirectX::g_XMQNaN
PUBLIC	?g_XMQNaNTest@DirectX@@3UXMVECTORI32@1@B	; DirectX::g_XMQNaNTest
PUBLIC	?g_XMAbsMask@DirectX@@3UXMVECTORI32@1@B		; DirectX::g_XMAbsMask
PUBLIC	?g_XMFltMin@DirectX@@3UXMVECTORI32@1@B		; DirectX::g_XMFltMin
PUBLIC	?g_XMFltMax@DirectX@@3UXMVECTORI32@1@B		; DirectX::g_XMFltMax
PUBLIC	?g_XMNegOneMask@DirectX@@3UXMVECTORU32@1@B	; DirectX::g_XMNegOneMask
PUBLIC	?g_XMMaskA8R8G8B8@DirectX@@3UXMVECTORU32@1@B	; DirectX::g_XMMaskA8R8G8B8
PUBLIC	?g_XMFlipA8R8G8B8@DirectX@@3UXMVECTORU32@1@B	; DirectX::g_XMFlipA8R8G8B8
PUBLIC	?g_XMFixAA8R8G8B8@DirectX@@3UXMVECTORF32@1@B	; DirectX::g_XMFixAA8R8G8B8
PUBLIC	?g_XMNormalizeA8R8G8B8@DirectX@@3UXMVECTORF32@1@B ; DirectX::g_XMNormalizeA8R8G8B8
PUBLIC	?g_XMMaskA2B10G10R10@DirectX@@3UXMVECTORU32@1@B	; DirectX::g_XMMaskA2B10G10R10
PUBLIC	?g_XMFlipA2B10G10R10@DirectX@@3UXMVECTORU32@1@B	; DirectX::g_XMFlipA2B10G10R10
PUBLIC	?g_XMFixAA2B10G10R10@DirectX@@3UXMVECTORF32@1@B	; DirectX::g_XMFixAA2B10G10R10
PUBLIC	?g_XMNormalizeA2B10G10R10@DirectX@@3UXMVECTORF32@1@B ; DirectX::g_XMNormalizeA2B10G10R10
PUBLIC	?g_XMMaskX16Y16@DirectX@@3UXMVECTORU32@1@B	; DirectX::g_XMMaskX16Y16
PUBLIC	?g_XMFlipX16Y16@DirectX@@3UXMVECTORI32@1@B	; DirectX::g_XMFlipX16Y16
PUBLIC	?g_XMFixX16Y16@DirectX@@3UXMVECTORF32@1@B	; DirectX::g_XMFixX16Y16
PUBLIC	?g_XMNormalizeX16Y16@DirectX@@3UXMVECTORF32@1@B	; DirectX::g_XMNormalizeX16Y16
PUBLIC	?g_XMMaskX16Y16Z16W16@DirectX@@3UXMVECTORU32@1@B ; DirectX::g_XMMaskX16Y16Z16W16
PUBLIC	?g_XMFlipX16Y16Z16W16@DirectX@@3UXMVECTORI32@1@B ; DirectX::g_XMFlipX16Y16Z16W16
PUBLIC	?g_XMFixX16Y16Z16W16@DirectX@@3UXMVECTORF32@1@B	; DirectX::g_XMFixX16Y16Z16W16
PUBLIC	?g_XMNormalizeX16Y16Z16W16@DirectX@@3UXMVECTORF32@1@B ; DirectX::g_XMNormalizeX16Y16Z16W16
PUBLIC	?g_XMNoFraction@DirectX@@3UXMVECTORF32@1@B	; DirectX::g_XMNoFraction
PUBLIC	?g_XMMaskByte@DirectX@@3UXMVECTORI32@1@B	; DirectX::g_XMMaskByte
PUBLIC	?g_XMNegateX@DirectX@@3UXMVECTORF32@1@B		; DirectX::g_XMNegateX
PUBLIC	?g_XMNegateY@DirectX@@3UXMVECTORF32@1@B		; DirectX::g_XMNegateY
PUBLIC	?g_XMNegateZ@DirectX@@3UXMVECTORF32@1@B		; DirectX::g_XMNegateZ
PUBLIC	?g_XMNegateW@DirectX@@3UXMVECTORF32@1@B		; DirectX::g_XMNegateW
PUBLIC	?g_XMSelect0101@DirectX@@3UXMVECTORU32@1@B	; DirectX::g_XMSelect0101
PUBLIC	?g_XMSelect1010@DirectX@@3UXMVECTORU32@1@B	; DirectX::g_XMSelect1010
PUBLIC	?g_XMOneHalfMinusEpsilon@DirectX@@3UXMVECTORI32@1@B ; DirectX::g_XMOneHalfMinusEpsilon
PUBLIC	?g_XMSelect1000@DirectX@@3UXMVECTORU32@1@B	; DirectX::g_XMSelect1000
PUBLIC	?g_XMSelect1100@DirectX@@3UXMVECTORU32@1@B	; DirectX::g_XMSelect1100
PUBLIC	?g_XMSelect1110@DirectX@@3UXMVECTORU32@1@B	; DirectX::g_XMSelect1110
PUBLIC	?g_XMSelect1011@DirectX@@3UXMVECTORU32@1@B	; DirectX::g_XMSelect1011
PUBLIC	?g_XMFixupY16@DirectX@@3UXMVECTORF32@1@B	; DirectX::g_XMFixupY16
PUBLIC	?g_XMFixupY16W16@DirectX@@3UXMVECTORF32@1@B	; DirectX::g_XMFixupY16W16
PUBLIC	?g_XMFlipY@DirectX@@3UXMVECTORU32@1@B		; DirectX::g_XMFlipY
PUBLIC	?g_XMFlipZ@DirectX@@3UXMVECTORU32@1@B		; DirectX::g_XMFlipZ
PUBLIC	?g_XMFlipW@DirectX@@3UXMVECTORU32@1@B		; DirectX::g_XMFlipW
PUBLIC	?g_XMFlipYZ@DirectX@@3UXMVECTORU32@1@B		; DirectX::g_XMFlipYZ
PUBLIC	?g_XMFlipZW@DirectX@@3UXMVECTORU32@1@B		; DirectX::g_XMFlipZW
PUBLIC	?g_XMFlipYW@DirectX@@3UXMVECTORU32@1@B		; DirectX::g_XMFlipYW
PUBLIC	?g_XMMaskDec4@DirectX@@3UXMVECTORI32@1@B	; DirectX::g_XMMaskDec4
PUBLIC	?g_XMXorDec4@DirectX@@3UXMVECTORI32@1@B		; DirectX::g_XMXorDec4
PUBLIC	?g_XMAddUDec4@DirectX@@3UXMVECTORF32@1@B	; DirectX::g_XMAddUDec4
PUBLIC	?g_XMAddDec4@DirectX@@3UXMVECTORF32@1@B		; DirectX::g_XMAddDec4
PUBLIC	?g_XMMulDec4@DirectX@@3UXMVECTORF32@1@B		; DirectX::g_XMMulDec4
PUBLIC	?g_XMMaskByte4@DirectX@@3UXMVECTORU32@1@B	; DirectX::g_XMMaskByte4
PUBLIC	?g_XMXorByte4@DirectX@@3UXMVECTORI32@1@B	; DirectX::g_XMXorByte4
PUBLIC	?g_XMAddByte4@DirectX@@3UXMVECTORF32@1@B	; DirectX::g_XMAddByte4
PUBLIC	?g_XMFixUnsigned@DirectX@@3UXMVECTORF32@1@B	; DirectX::g_XMFixUnsigned
PUBLIC	?g_XMMaxInt@DirectX@@3UXMVECTORF32@1@B		; DirectX::g_XMMaxInt
PUBLIC	?g_XMMaxUInt@DirectX@@3UXMVECTORF32@1@B		; DirectX::g_XMMaxUInt
PUBLIC	?g_XMUnsignedFix@DirectX@@3UXMVECTORF32@1@B	; DirectX::g_XMUnsignedFix
PUBLIC	?g_XMsrgbScale@DirectX@@3UXMVECTORF32@1@B	; DirectX::g_XMsrgbScale
PUBLIC	?g_XMsrgbA@DirectX@@3UXMVECTORF32@1@B		; DirectX::g_XMsrgbA
PUBLIC	?g_XMsrgbA1@DirectX@@3UXMVECTORF32@1@B		; DirectX::g_XMsrgbA1
PUBLIC	?g_XMExponentBias@DirectX@@3UXMVECTORI32@1@B	; DirectX::g_XMExponentBias
PUBLIC	?g_XMSubnormalExponent@DirectX@@3UXMVECTORI32@1@B ; DirectX::g_XMSubnormalExponent
PUBLIC	?g_XMNumTrailing@DirectX@@3UXMVECTORI32@1@B	; DirectX::g_XMNumTrailing
PUBLIC	?g_XMMinNormal@DirectX@@3UXMVECTORI32@1@B	; DirectX::g_XMMinNormal
PUBLIC	?g_XMNegInfinity@DirectX@@3UXMVECTORU32@1@B	; DirectX::g_XMNegInfinity
PUBLIC	?g_XMNegQNaN@DirectX@@3UXMVECTORU32@1@B		; DirectX::g_XMNegQNaN
PUBLIC	?g_XMBin128@DirectX@@3UXMVECTORI32@1@B		; DirectX::g_XMBin128
PUBLIC	?g_XMBinNeg150@DirectX@@3UXMVECTORU32@1@B	; DirectX::g_XMBinNeg150
PUBLIC	?g_XM253@DirectX@@3UXMVECTORI32@1@B		; DirectX::g_XM253
PUBLIC	?g_XMExpEst1@DirectX@@3UXMVECTORF32@1@B		; DirectX::g_XMExpEst1
PUBLIC	?g_XMExpEst2@DirectX@@3UXMVECTORF32@1@B		; DirectX::g_XMExpEst2
PUBLIC	?g_XMExpEst3@DirectX@@3UXMVECTORF32@1@B		; DirectX::g_XMExpEst3
PUBLIC	?g_XMExpEst4@DirectX@@3UXMVECTORF32@1@B		; DirectX::g_XMExpEst4
PUBLIC	?g_XMExpEst5@DirectX@@3UXMVECTORF32@1@B		; DirectX::g_XMExpEst5
PUBLIC	?g_XMExpEst6@DirectX@@3UXMVECTORF32@1@B		; DirectX::g_XMExpEst6
PUBLIC	?g_XMExpEst7@DirectX@@3UXMVECTORF32@1@B		; DirectX::g_XMExpEst7
PUBLIC	?g_XMLogEst0@DirectX@@3UXMVECTORF32@1@B		; DirectX::g_XMLogEst0
PUBLIC	?g_XMLogEst1@DirectX@@3UXMVECTORF32@1@B		; DirectX::g_XMLogEst1
PUBLIC	?g_XMLogEst2@DirectX@@3UXMVECTORF32@1@B		; DirectX::g_XMLogEst2
PUBLIC	?g_XMLogEst3@DirectX@@3UXMVECTORF32@1@B		; DirectX::g_XMLogEst3
PUBLIC	?g_XMLogEst4@DirectX@@3UXMVECTORF32@1@B		; DirectX::g_XMLogEst4
PUBLIC	?g_XMLogEst5@DirectX@@3UXMVECTORF32@1@B		; DirectX::g_XMLogEst5
PUBLIC	?g_XMLogEst6@DirectX@@3UXMVECTORF32@1@B		; DirectX::g_XMLogEst6
PUBLIC	?g_XMLogEst7@DirectX@@3UXMVECTORF32@1@B		; DirectX::g_XMLogEst7
PUBLIC	?g_XMLgE@DirectX@@3UXMVECTORF32@1@B		; DirectX::g_XMLgE
PUBLIC	?g_XMInvLgE@DirectX@@3UXMVECTORF32@1@B		; DirectX::g_XMInvLgE
PUBLIC	?g_XMLg10@DirectX@@3UXMVECTORF32@1@B		; DirectX::g_XMLg10
PUBLIC	?g_XMInvLg10@DirectX@@3UXMVECTORF32@1@B		; DirectX::g_XMInvLg10
PUBLIC	?g_UByteMax@DirectX@@3UXMVECTORF32@1@B		; DirectX::g_UByteMax
PUBLIC	?g_ByteMin@DirectX@@3UXMVECTORF32@1@B		; DirectX::g_ByteMin
PUBLIC	?g_ByteMax@DirectX@@3UXMVECTORF32@1@B		; DirectX::g_ByteMax
PUBLIC	?g_ShortMin@DirectX@@3UXMVECTORF32@1@B		; DirectX::g_ShortMin
PUBLIC	?g_ShortMax@DirectX@@3UXMVECTORF32@1@B		; DirectX::g_ShortMax
PUBLIC	?g_UShortMax@DirectX@@3UXMVECTORF32@1@B		; DirectX::g_UShortMax
PUBLIC	?AliceBlue@Colors@DirectX@@3UXMVECTORF32@2@B	; DirectX::Colors::AliceBlue
PUBLIC	?AntiqueWhite@Colors@DirectX@@3UXMVECTORF32@2@B	; DirectX::Colors::AntiqueWhite
PUBLIC	?Aqua@Colors@DirectX@@3UXMVECTORF32@2@B		; DirectX::Colors::Aqua
PUBLIC	?Aquamarine@Colors@DirectX@@3UXMVECTORF32@2@B	; DirectX::Colors::Aquamarine
PUBLIC	?Azure@Colors@DirectX@@3UXMVECTORF32@2@B	; DirectX::Colors::Azure
PUBLIC	?Beige@Colors@DirectX@@3UXMVECTORF32@2@B	; DirectX::Colors::Beige
PUBLIC	?Bisque@Colors@DirectX@@3UXMVECTORF32@2@B	; DirectX::Colors::Bisque
PUBLIC	?Black@Colors@DirectX@@3UXMVECTORF32@2@B	; DirectX::Colors::Black
PUBLIC	?BlanchedAlmond@Colors@DirectX@@3UXMVECTORF32@2@B ; DirectX::Colors::BlanchedAlmond
PUBLIC	?Blue@Colors@DirectX@@3UXMVECTORF32@2@B		; DirectX::Colors::Blue
PUBLIC	?BlueViolet@Colors@DirectX@@3UXMVECTORF32@2@B	; DirectX::Colors::BlueViolet
PUBLIC	?Brown@Colors@DirectX@@3UXMVECTORF32@2@B	; DirectX::Colors::Brown
PUBLIC	?BurlyWood@Colors@DirectX@@3UXMVECTORF32@2@B	; DirectX::Colors::BurlyWood
PUBLIC	?CadetBlue@Colors@DirectX@@3UXMVECTORF32@2@B	; DirectX::Colors::CadetBlue
PUBLIC	?Chartreuse@Colors@DirectX@@3UXMVECTORF32@2@B	; DirectX::Colors::Chartreuse
PUBLIC	?Chocolate@Colors@DirectX@@3UXMVECTORF32@2@B	; DirectX::Colors::Chocolate
PUBLIC	?Coral@Colors@DirectX@@3UXMVECTORF32@2@B	; DirectX::Colors::Coral
PUBLIC	?CornflowerBlue@Colors@DirectX@@3UXMVECTORF32@2@B ; DirectX::Colors::CornflowerBlue
PUBLIC	?Cornsilk@Colors@DirectX@@3UXMVECTORF32@2@B	; DirectX::Colors::Cornsilk
PUBLIC	?Crimson@Colors@DirectX@@3UXMVECTORF32@2@B	; DirectX::Colors::Crimson
PUBLIC	?Cyan@Colors@DirectX@@3UXMVECTORF32@2@B		; DirectX::Colors::Cyan
PUBLIC	?DarkBlue@Colors@DirectX@@3UXMVECTORF32@2@B	; DirectX::Colors::DarkBlue
PUBLIC	?DarkCyan@Colors@DirectX@@3UXMVECTORF32@2@B	; DirectX::Colors::DarkCyan
PUBLIC	?DarkGoldenrod@Colors@DirectX@@3UXMVECTORF32@2@B ; DirectX::Colors::DarkGoldenrod
PUBLIC	?DarkGray@Colors@DirectX@@3UXMVECTORF32@2@B	; DirectX::Colors::DarkGray
PUBLIC	?DarkGreen@Colors@DirectX@@3UXMVECTORF32@2@B	; DirectX::Colors::DarkGreen
PUBLIC	?DarkKhaki@Colors@DirectX@@3UXMVECTORF32@2@B	; DirectX::Colors::DarkKhaki
PUBLIC	?DarkMagenta@Colors@DirectX@@3UXMVECTORF32@2@B	; DirectX::Colors::DarkMagenta
PUBLIC	?DarkOliveGreen@Colors@DirectX@@3UXMVECTORF32@2@B ; DirectX::Colors::DarkOliveGreen
PUBLIC	?DarkOrange@Colors@DirectX@@3UXMVECTORF32@2@B	; DirectX::Colors::DarkOrange
PUBLIC	?DarkOrchid@Colors@DirectX@@3UXMVECTORF32@2@B	; DirectX::Colors::DarkOrchid
PUBLIC	?DarkRed@Colors@DirectX@@3UXMVECTORF32@2@B	; DirectX::Colors::DarkRed
PUBLIC	?DarkSalmon@Colors@DirectX@@3UXMVECTORF32@2@B	; DirectX::Colors::DarkSalmon
PUBLIC	?DarkSeaGreen@Colors@DirectX@@3UXMVECTORF32@2@B	; DirectX::Colors::DarkSeaGreen
PUBLIC	?DarkSlateBlue@Colors@DirectX@@3UXMVECTORF32@2@B ; DirectX::Colors::DarkSlateBlue
PUBLIC	?DarkSlateGray@Colors@DirectX@@3UXMVECTORF32@2@B ; DirectX::Colors::DarkSlateGray
PUBLIC	?DarkTurquoise@Colors@DirectX@@3UXMVECTORF32@2@B ; DirectX::Colors::DarkTurquoise
PUBLIC	?DarkViolet@Colors@DirectX@@3UXMVECTORF32@2@B	; DirectX::Colors::DarkViolet
PUBLIC	?DeepPink@Colors@DirectX@@3UXMVECTORF32@2@B	; DirectX::Colors::DeepPink
PUBLIC	?DeepSkyBlue@Colors@DirectX@@3UXMVECTORF32@2@B	; DirectX::Colors::DeepSkyBlue
PUBLIC	?DimGray@Colors@DirectX@@3UXMVECTORF32@2@B	; DirectX::Colors::DimGray
PUBLIC	?DodgerBlue@Colors@DirectX@@3UXMVECTORF32@2@B	; DirectX::Colors::DodgerBlue
PUBLIC	?Firebrick@Colors@DirectX@@3UXMVECTORF32@2@B	; DirectX::Colors::Firebrick
PUBLIC	?FloralWhite@Colors@DirectX@@3UXMVECTORF32@2@B	; DirectX::Colors::FloralWhite
PUBLIC	?ForestGreen@Colors@DirectX@@3UXMVECTORF32@2@B	; DirectX::Colors::ForestGreen
PUBLIC	?Fuchsia@Colors@DirectX@@3UXMVECTORF32@2@B	; DirectX::Colors::Fuchsia
PUBLIC	?Gainsboro@Colors@DirectX@@3UXMVECTORF32@2@B	; DirectX::Colors::Gainsboro
PUBLIC	?GhostWhite@Colors@DirectX@@3UXMVECTORF32@2@B	; DirectX::Colors::GhostWhite
PUBLIC	?Gold@Colors@DirectX@@3UXMVECTORF32@2@B		; DirectX::Colors::Gold
PUBLIC	?Goldenrod@Colors@DirectX@@3UXMVECTORF32@2@B	; DirectX::Colors::Goldenrod
PUBLIC	?Gray@Colors@DirectX@@3UXMVECTORF32@2@B		; DirectX::Colors::Gray
PUBLIC	?Green@Colors@DirectX@@3UXMVECTORF32@2@B	; DirectX::Colors::Green
PUBLIC	?GreenYellow@Colors@DirectX@@3UXMVECTORF32@2@B	; DirectX::Colors::GreenYellow
PUBLIC	?Honeydew@Colors@DirectX@@3UXMVECTORF32@2@B	; DirectX::Colors::Honeydew
PUBLIC	?HotPink@Colors@DirectX@@3UXMVECTORF32@2@B	; DirectX::Colors::HotPink
PUBLIC	?IndianRed@Colors@DirectX@@3UXMVECTORF32@2@B	; DirectX::Colors::IndianRed
PUBLIC	?Indigo@Colors@DirectX@@3UXMVECTORF32@2@B	; DirectX::Colors::Indigo
PUBLIC	?Ivory@Colors@DirectX@@3UXMVECTORF32@2@B	; DirectX::Colors::Ivory
PUBLIC	?Khaki@Colors@DirectX@@3UXMVECTORF32@2@B	; DirectX::Colors::Khaki
PUBLIC	?Lavender@Colors@DirectX@@3UXMVECTORF32@2@B	; DirectX::Colors::Lavender
PUBLIC	?LavenderBlush@Colors@DirectX@@3UXMVECTORF32@2@B ; DirectX::Colors::LavenderBlush
PUBLIC	?LawnGreen@Colors@DirectX@@3UXMVECTORF32@2@B	; DirectX::Colors::LawnGreen
PUBLIC	?LemonChiffon@Colors@DirectX@@3UXMVECTORF32@2@B	; DirectX::Colors::LemonChiffon
PUBLIC	?LightBlue@Colors@DirectX@@3UXMVECTORF32@2@B	; DirectX::Colors::LightBlue
PUBLIC	?LightCoral@Colors@DirectX@@3UXMVECTORF32@2@B	; DirectX::Colors::LightCoral
PUBLIC	?LightCyan@Colors@DirectX@@3UXMVECTORF32@2@B	; DirectX::Colors::LightCyan
PUBLIC	?LightGoldenrodYellow@Colors@DirectX@@3UXMVECTORF32@2@B ; DirectX::Colors::LightGoldenrodYellow
PUBLIC	?LightGray@Colors@DirectX@@3UXMVECTORF32@2@B	; DirectX::Colors::LightGray
PUBLIC	?LightGreen@Colors@DirectX@@3UXMVECTORF32@2@B	; DirectX::Colors::LightGreen
PUBLIC	?LightPink@Colors@DirectX@@3UXMVECTORF32@2@B	; DirectX::Colors::LightPink
PUBLIC	?LightSalmon@Colors@DirectX@@3UXMVECTORF32@2@B	; DirectX::Colors::LightSalmon
PUBLIC	?LightSeaGreen@Colors@DirectX@@3UXMVECTORF32@2@B ; DirectX::Colors::LightSeaGreen
PUBLIC	?LightSkyBlue@Colors@DirectX@@3UXMVECTORF32@2@B	; DirectX::Colors::LightSkyBlue
PUBLIC	?LightSlateGray@Colors@DirectX@@3UXMVECTORF32@2@B ; DirectX::Colors::LightSlateGray
PUBLIC	?LightSteelBlue@Colors@DirectX@@3UXMVECTORF32@2@B ; DirectX::Colors::LightSteelBlue
PUBLIC	?LightYellow@Colors@DirectX@@3UXMVECTORF32@2@B	; DirectX::Colors::LightYellow
PUBLIC	?Lime@Colors@DirectX@@3UXMVECTORF32@2@B		; DirectX::Colors::Lime
PUBLIC	?LimeGreen@Colors@DirectX@@3UXMVECTORF32@2@B	; DirectX::Colors::LimeGreen
PUBLIC	?Linen@Colors@DirectX@@3UXMVECTORF32@2@B	; DirectX::Colors::Linen
PUBLIC	?Magenta@Colors@DirectX@@3UXMVECTORF32@2@B	; DirectX::Colors::Magenta
PUBLIC	?Maroon@Colors@DirectX@@3UXMVECTORF32@2@B	; DirectX::Colors::Maroon
PUBLIC	?MediumAquamarine@Colors@DirectX@@3UXMVECTORF32@2@B ; DirectX::Colors::MediumAquamarine
PUBLIC	?MediumBlue@Colors@DirectX@@3UXMVECTORF32@2@B	; DirectX::Colors::MediumBlue
PUBLIC	?MediumOrchid@Colors@DirectX@@3UXMVECTORF32@2@B	; DirectX::Colors::MediumOrchid
PUBLIC	?MediumPurple@Colors@DirectX@@3UXMVECTORF32@2@B	; DirectX::Colors::MediumPurple
PUBLIC	?MediumSeaGreen@Colors@DirectX@@3UXMVECTORF32@2@B ; DirectX::Colors::MediumSeaGreen
PUBLIC	?MediumSlateBlue@Colors@DirectX@@3UXMVECTORF32@2@B ; DirectX::Colors::MediumSlateBlue
PUBLIC	?MediumSpringGreen@Colors@DirectX@@3UXMVECTORF32@2@B ; DirectX::Colors::MediumSpringGreen
PUBLIC	?MediumTurquoise@Colors@DirectX@@3UXMVECTORF32@2@B ; DirectX::Colors::MediumTurquoise
PUBLIC	?MediumVioletRed@Colors@DirectX@@3UXMVECTORF32@2@B ; DirectX::Colors::MediumVioletRed
PUBLIC	?MidnightBlue@Colors@DirectX@@3UXMVECTORF32@2@B	; DirectX::Colors::MidnightBlue
PUBLIC	?MintCream@Colors@DirectX@@3UXMVECTORF32@2@B	; DirectX::Colors::MintCream
PUBLIC	?MistyRose@Colors@DirectX@@3UXMVECTORF32@2@B	; DirectX::Colors::MistyRose
PUBLIC	?Moccasin@Colors@DirectX@@3UXMVECTORF32@2@B	; DirectX::Colors::Moccasin
PUBLIC	?NavajoWhite@Colors@DirectX@@3UXMVECTORF32@2@B	; DirectX::Colors::NavajoWhite
PUBLIC	?Navy@Colors@DirectX@@3UXMVECTORF32@2@B		; DirectX::Colors::Navy
PUBLIC	?OldLace@Colors@DirectX@@3UXMVECTORF32@2@B	; DirectX::Colors::OldLace
PUBLIC	?Olive@Colors@DirectX@@3UXMVECTORF32@2@B	; DirectX::Colors::Olive
PUBLIC	?OliveDrab@Colors@DirectX@@3UXMVECTORF32@2@B	; DirectX::Colors::OliveDrab
PUBLIC	?Orange@Colors@DirectX@@3UXMVECTORF32@2@B	; DirectX::Colors::Orange
PUBLIC	?OrangeRed@Colors@DirectX@@3UXMVECTORF32@2@B	; DirectX::Colors::OrangeRed
PUBLIC	?Orchid@Colors@DirectX@@3UXMVECTORF32@2@B	; DirectX::Colors::Orchid
PUBLIC	?PaleGoldenrod@Colors@DirectX@@3UXMVECTORF32@2@B ; DirectX::Colors::PaleGoldenrod
PUBLIC	?PaleGreen@Colors@DirectX@@3UXMVECTORF32@2@B	; DirectX::Colors::PaleGreen
PUBLIC	?PaleTurquoise@Colors@DirectX@@3UXMVECTORF32@2@B ; DirectX::Colors::PaleTurquoise
PUBLIC	?PaleVioletRed@Colors@DirectX@@3UXMVECTORF32@2@B ; DirectX::Colors::PaleVioletRed
PUBLIC	?PapayaWhip@Colors@DirectX@@3UXMVECTORF32@2@B	; DirectX::Colors::PapayaWhip
PUBLIC	?PeachPuff@Colors@DirectX@@3UXMVECTORF32@2@B	; DirectX::Colors::PeachPuff
PUBLIC	?Peru@Colors@DirectX@@3UXMVECTORF32@2@B		; DirectX::Colors::Peru
PUBLIC	?Pink@Colors@DirectX@@3UXMVECTORF32@2@B		; DirectX::Colors::Pink
PUBLIC	?Plum@Colors@DirectX@@3UXMVECTORF32@2@B		; DirectX::Colors::Plum
PUBLIC	?PowderBlue@Colors@DirectX@@3UXMVECTORF32@2@B	; DirectX::Colors::PowderBlue
PUBLIC	?Purple@Colors@DirectX@@3UXMVECTORF32@2@B	; DirectX::Colors::Purple
PUBLIC	?Red@Colors@DirectX@@3UXMVECTORF32@2@B		; DirectX::Colors::Red
PUBLIC	?RosyBrown@Colors@DirectX@@3UXMVECTORF32@2@B	; DirectX::Colors::RosyBrown
PUBLIC	?RoyalBlue@Colors@DirectX@@3UXMVECTORF32@2@B	; DirectX::Colors::RoyalBlue
PUBLIC	?SaddleBrown@Colors@DirectX@@3UXMVECTORF32@2@B	; DirectX::Colors::SaddleBrown
PUBLIC	?Salmon@Colors@DirectX@@3UXMVECTORF32@2@B	; DirectX::Colors::Salmon
PUBLIC	?SandyBrown@Colors@DirectX@@3UXMVECTORF32@2@B	; DirectX::Colors::SandyBrown
PUBLIC	?SeaGreen@Colors@DirectX@@3UXMVECTORF32@2@B	; DirectX::Colors::SeaGreen
PUBLIC	?SeaShell@Colors@DirectX@@3UXMVECTORF32@2@B	; DirectX::Colors::SeaShell
PUBLIC	?Sienna@Colors@DirectX@@3UXMVECTORF32@2@B	; DirectX::Colors::Sienna
PUBLIC	?Silver@Colors@DirectX@@3UXMVECTORF32@2@B	; DirectX::Colors::Silver
PUBLIC	?SkyBlue@Colors@DirectX@@3UXMVECTORF32@2@B	; DirectX::Colors::SkyBlue
PUBLIC	?SlateBlue@Colors@DirectX@@3UXMVECTORF32@2@B	; DirectX::Colors::SlateBlue
PUBLIC	?SlateGray@Colors@DirectX@@3UXMVECTORF32@2@B	; DirectX::Colors::SlateGray
PUBLIC	?Snow@Colors@DirectX@@3UXMVECTORF32@2@B		; DirectX::Colors::Snow
PUBLIC	?SpringGreen@Colors@DirectX@@3UXMVECTORF32@2@B	; DirectX::Colors::SpringGreen
PUBLIC	?SteelBlue@Colors@DirectX@@3UXMVECTORF32@2@B	; DirectX::Colors::SteelBlue
PUBLIC	?Tan@Colors@DirectX@@3UXMVECTORF32@2@B		; DirectX::Colors::Tan
PUBLIC	?Teal@Colors@DirectX@@3UXMVECTORF32@2@B		; DirectX::Colors::Teal
PUBLIC	?Thistle@Colors@DirectX@@3UXMVECTORF32@2@B	; DirectX::Colors::Thistle
PUBLIC	?Tomato@Colors@DirectX@@3UXMVECTORF32@2@B	; DirectX::Colors::Tomato
PUBLIC	?Transparent@Colors@DirectX@@3UXMVECTORF32@2@B	; DirectX::Colors::Transparent
PUBLIC	?Turquoise@Colors@DirectX@@3UXMVECTORF32@2@B	; DirectX::Colors::Turquoise
PUBLIC	?Violet@Colors@DirectX@@3UXMVECTORF32@2@B	; DirectX::Colors::Violet
PUBLIC	?Wheat@Colors@DirectX@@3UXMVECTORF32@2@B	; DirectX::Colors::Wheat
PUBLIC	?White@Colors@DirectX@@3UXMVECTORF32@2@B	; DirectX::Colors::White
PUBLIC	?WhiteSmoke@Colors@DirectX@@3UXMVECTORF32@2@B	; DirectX::Colors::WhiteSmoke
PUBLIC	?Yellow@Colors@DirectX@@3UXMVECTORF32@2@B	; DirectX::Colors::Yellow
PUBLIC	?YellowGreen@Colors@DirectX@@3UXMVECTORF32@2@B	; DirectX::Colors::YellowGreen
PUBLIC	?AliceBlue@ColorsLinear@DirectX@@3UXMVECTORF32@2@B ; DirectX::ColorsLinear::AliceBlue
PUBLIC	?AntiqueWhite@ColorsLinear@DirectX@@3UXMVECTORF32@2@B ; DirectX::ColorsLinear::AntiqueWhite
PUBLIC	?Aqua@ColorsLinear@DirectX@@3UXMVECTORF32@2@B	; DirectX::ColorsLinear::Aqua
PUBLIC	?Aquamarine@ColorsLinear@DirectX@@3UXMVECTORF32@2@B ; DirectX::ColorsLinear::Aquamarine
PUBLIC	?Azure@ColorsLinear@DirectX@@3UXMVECTORF32@2@B	; DirectX::ColorsLinear::Azure
PUBLIC	?Beige@ColorsLinear@DirectX@@3UXMVECTORF32@2@B	; DirectX::ColorsLinear::Beige
PUBLIC	?Bisque@ColorsLinear@DirectX@@3UXMVECTORF32@2@B	; DirectX::ColorsLinear::Bisque
PUBLIC	?Black@ColorsLinear@DirectX@@3UXMVECTORF32@2@B	; DirectX::ColorsLinear::Black
PUBLIC	?BlanchedAlmond@ColorsLinear@DirectX@@3UXMVECTORF32@2@B ; DirectX::ColorsLinear::BlanchedAlmond
PUBLIC	?Blue@ColorsLinear@DirectX@@3UXMVECTORF32@2@B	; DirectX::ColorsLinear::Blue
PUBLIC	?BlueViolet@ColorsLinear@DirectX@@3UXMVECTORF32@2@B ; DirectX::ColorsLinear::BlueViolet
PUBLIC	?Brown@ColorsLinear@DirectX@@3UXMVECTORF32@2@B	; DirectX::ColorsLinear::Brown
PUBLIC	?BurlyWood@ColorsLinear@DirectX@@3UXMVECTORF32@2@B ; DirectX::ColorsLinear::BurlyWood
PUBLIC	?CadetBlue@ColorsLinear@DirectX@@3UXMVECTORF32@2@B ; DirectX::ColorsLinear::CadetBlue
PUBLIC	?Chartreuse@ColorsLinear@DirectX@@3UXMVECTORF32@2@B ; DirectX::ColorsLinear::Chartreuse
PUBLIC	?Chocolate@ColorsLinear@DirectX@@3UXMVECTORF32@2@B ; DirectX::ColorsLinear::Chocolate
PUBLIC	?Coral@ColorsLinear@DirectX@@3UXMVECTORF32@2@B	; DirectX::ColorsLinear::Coral
PUBLIC	?CornflowerBlue@ColorsLinear@DirectX@@3UXMVECTORF32@2@B ; DirectX::ColorsLinear::CornflowerBlue
PUBLIC	?Cornsilk@ColorsLinear@DirectX@@3UXMVECTORF32@2@B ; DirectX::ColorsLinear::Cornsilk
PUBLIC	?Crimson@ColorsLinear@DirectX@@3UXMVECTORF32@2@B ; DirectX::ColorsLinear::Crimson
PUBLIC	?Cyan@ColorsLinear@DirectX@@3UXMVECTORF32@2@B	; DirectX::ColorsLinear::Cyan
PUBLIC	?DarkBlue@ColorsLinear@DirectX@@3UXMVECTORF32@2@B ; DirectX::ColorsLinear::DarkBlue
PUBLIC	?DarkCyan@ColorsLinear@DirectX@@3UXMVECTORF32@2@B ; DirectX::ColorsLinear::DarkCyan
PUBLIC	?DarkGoldenrod@ColorsLinear@DirectX@@3UXMVECTORF32@2@B ; DirectX::ColorsLinear::DarkGoldenrod
PUBLIC	?DarkGray@ColorsLinear@DirectX@@3UXMVECTORF32@2@B ; DirectX::ColorsLinear::DarkGray
PUBLIC	?DarkGreen@ColorsLinear@DirectX@@3UXMVECTORF32@2@B ; DirectX::ColorsLinear::DarkGreen
PUBLIC	?DarkKhaki@ColorsLinear@DirectX@@3UXMVECTORF32@2@B ; DirectX::ColorsLinear::DarkKhaki
PUBLIC	?DarkMagenta@ColorsLinear@DirectX@@3UXMVECTORF32@2@B ; DirectX::ColorsLinear::DarkMagenta
PUBLIC	?DarkOliveGreen@ColorsLinear@DirectX@@3UXMVECTORF32@2@B ; DirectX::ColorsLinear::DarkOliveGreen
PUBLIC	?DarkOrange@ColorsLinear@DirectX@@3UXMVECTORF32@2@B ; DirectX::ColorsLinear::DarkOrange
PUBLIC	?DarkOrchid@ColorsLinear@DirectX@@3UXMVECTORF32@2@B ; DirectX::ColorsLinear::DarkOrchid
PUBLIC	?DarkRed@ColorsLinear@DirectX@@3UXMVECTORF32@2@B ; DirectX::ColorsLinear::DarkRed
PUBLIC	?DarkSalmon@ColorsLinear@DirectX@@3UXMVECTORF32@2@B ; DirectX::ColorsLinear::DarkSalmon
PUBLIC	?DarkSeaGreen@ColorsLinear@DirectX@@3UXMVECTORF32@2@B ; DirectX::ColorsLinear::DarkSeaGreen
PUBLIC	?DarkSlateBlue@ColorsLinear@DirectX@@3UXMVECTORF32@2@B ; DirectX::ColorsLinear::DarkSlateBlue
PUBLIC	?DarkSlateGray@ColorsLinear@DirectX@@3UXMVECTORF32@2@B ; DirectX::ColorsLinear::DarkSlateGray
PUBLIC	?DarkTurquoise@ColorsLinear@DirectX@@3UXMVECTORF32@2@B ; DirectX::ColorsLinear::DarkTurquoise
PUBLIC	?DarkViolet@ColorsLinear@DirectX@@3UXMVECTORF32@2@B ; DirectX::ColorsLinear::DarkViolet
PUBLIC	?DeepPink@ColorsLinear@DirectX@@3UXMVECTORF32@2@B ; DirectX::ColorsLinear::DeepPink
PUBLIC	?DeepSkyBlue@ColorsLinear@DirectX@@3UXMVECTORF32@2@B ; DirectX::ColorsLinear::DeepSkyBlue
PUBLIC	?DimGray@ColorsLinear@DirectX@@3UXMVECTORF32@2@B ; DirectX::ColorsLinear::DimGray
PUBLIC	?DodgerBlue@ColorsLinear@DirectX@@3UXMVECTORF32@2@B ; DirectX::ColorsLinear::DodgerBlue
PUBLIC	?Firebrick@ColorsLinear@DirectX@@3UXMVECTORF32@2@B ; DirectX::ColorsLinear::Firebrick
PUBLIC	?FloralWhite@ColorsLinear@DirectX@@3UXMVECTORF32@2@B ; DirectX::ColorsLinear::FloralWhite
PUBLIC	?ForestGreen@ColorsLinear@DirectX@@3UXMVECTORF32@2@B ; DirectX::ColorsLinear::ForestGreen
PUBLIC	?Fuchsia@ColorsLinear@DirectX@@3UXMVECTORF32@2@B ; DirectX::ColorsLinear::Fuchsia
PUBLIC	?Gainsboro@ColorsLinear@DirectX@@3UXMVECTORF32@2@B ; DirectX::ColorsLinear::Gainsboro
PUBLIC	?GhostWhite@ColorsLinear@DirectX@@3UXMVECTORF32@2@B ; DirectX::ColorsLinear::GhostWhite
PUBLIC	?Gold@ColorsLinear@DirectX@@3UXMVECTORF32@2@B	; DirectX::ColorsLinear::Gold
PUBLIC	?Goldenrod@ColorsLinear@DirectX@@3UXMVECTORF32@2@B ; DirectX::ColorsLinear::Goldenrod
PUBLIC	?Gray@ColorsLinear@DirectX@@3UXMVECTORF32@2@B	; DirectX::ColorsLinear::Gray
PUBLIC	?Green@ColorsLinear@DirectX@@3UXMVECTORF32@2@B	; DirectX::ColorsLinear::Green
PUBLIC	?GreenYellow@ColorsLinear@DirectX@@3UXMVECTORF32@2@B ; DirectX::ColorsLinear::GreenYellow
PUBLIC	?Honeydew@ColorsLinear@DirectX@@3UXMVECTORF32@2@B ; DirectX::ColorsLinear::Honeydew
PUBLIC	?HotPink@ColorsLinear@DirectX@@3UXMVECTORF32@2@B ; DirectX::ColorsLinear::HotPink
PUBLIC	?IndianRed@ColorsLinear@DirectX@@3UXMVECTORF32@2@B ; DirectX::ColorsLinear::IndianRed
PUBLIC	?Indigo@ColorsLinear@DirectX@@3UXMVECTORF32@2@B	; DirectX::ColorsLinear::Indigo
PUBLIC	?Ivory@ColorsLinear@DirectX@@3UXMVECTORF32@2@B	; DirectX::ColorsLinear::Ivory
PUBLIC	?Khaki@ColorsLinear@DirectX@@3UXMVECTORF32@2@B	; DirectX::ColorsLinear::Khaki
PUBLIC	?Lavender@ColorsLinear@DirectX@@3UXMVECTORF32@2@B ; DirectX::ColorsLinear::Lavender
PUBLIC	?LavenderBlush@ColorsLinear@DirectX@@3UXMVECTORF32@2@B ; DirectX::ColorsLinear::LavenderBlush
PUBLIC	?LawnGreen@ColorsLinear@DirectX@@3UXMVECTORF32@2@B ; DirectX::ColorsLinear::LawnGreen
PUBLIC	?LemonChiffon@ColorsLinear@DirectX@@3UXMVECTORF32@2@B ; DirectX::ColorsLinear::LemonChiffon
PUBLIC	?LightBlue@ColorsLinear@DirectX@@3UXMVECTORF32@2@B ; DirectX::ColorsLinear::LightBlue
PUBLIC	?LightCoral@ColorsLinear@DirectX@@3UXMVECTORF32@2@B ; DirectX::ColorsLinear::LightCoral
PUBLIC	?LightCyan@ColorsLinear@DirectX@@3UXMVECTORF32@2@B ; DirectX::ColorsLinear::LightCyan
PUBLIC	?LightGoldenrodYellow@ColorsLinear@DirectX@@3UXMVECTORF32@2@B ; DirectX::ColorsLinear::LightGoldenrodYellow
PUBLIC	?LightGray@ColorsLinear@DirectX@@3UXMVECTORF32@2@B ; DirectX::ColorsLinear::LightGray
PUBLIC	?LightGreen@ColorsLinear@DirectX@@3UXMVECTORF32@2@B ; DirectX::ColorsLinear::LightGreen
PUBLIC	?LightPink@ColorsLinear@DirectX@@3UXMVECTORF32@2@B ; DirectX::ColorsLinear::LightPink
PUBLIC	?LightSalmon@ColorsLinear@DirectX@@3UXMVECTORF32@2@B ; DirectX::ColorsLinear::LightSalmon
PUBLIC	?LightSeaGreen@ColorsLinear@DirectX@@3UXMVECTORF32@2@B ; DirectX::ColorsLinear::LightSeaGreen
PUBLIC	?LightSkyBlue@ColorsLinear@DirectX@@3UXMVECTORF32@2@B ; DirectX::ColorsLinear::LightSkyBlue
PUBLIC	?LightSlateGray@ColorsLinear@DirectX@@3UXMVECTORF32@2@B ; DirectX::ColorsLinear::LightSlateGray
PUBLIC	?LightSteelBlue@ColorsLinear@DirectX@@3UXMVECTORF32@2@B ; DirectX::ColorsLinear::LightSteelBlue
PUBLIC	?LightYellow@ColorsLinear@DirectX@@3UXMVECTORF32@2@B ; DirectX::ColorsLinear::LightYellow
PUBLIC	?Lime@ColorsLinear@DirectX@@3UXMVECTORF32@2@B	; DirectX::ColorsLinear::Lime
PUBLIC	?LimeGreen@ColorsLinear@DirectX@@3UXMVECTORF32@2@B ; DirectX::ColorsLinear::LimeGreen
PUBLIC	?Linen@ColorsLinear@DirectX@@3UXMVECTORF32@2@B	; DirectX::ColorsLinear::Linen
PUBLIC	?Magenta@ColorsLinear@DirectX@@3UXMVECTORF32@2@B ; DirectX::ColorsLinear::Magenta
PUBLIC	?Maroon@ColorsLinear@DirectX@@3UXMVECTORF32@2@B	; DirectX::ColorsLinear::Maroon
PUBLIC	?MediumAquamarine@ColorsLinear@DirectX@@3UXMVECTORF32@2@B ; DirectX::ColorsLinear::MediumAquamarine
PUBLIC	?MediumBlue@ColorsLinear@DirectX@@3UXMVECTORF32@2@B ; DirectX::ColorsLinear::MediumBlue
PUBLIC	?MediumOrchid@ColorsLinear@DirectX@@3UXMVECTORF32@2@B ; DirectX::ColorsLinear::MediumOrchid
PUBLIC	?MediumPurple@ColorsLinear@DirectX@@3UXMVECTORF32@2@B ; DirectX::ColorsLinear::MediumPurple
PUBLIC	?MediumSeaGreen@ColorsLinear@DirectX@@3UXMVECTORF32@2@B ; DirectX::ColorsLinear::MediumSeaGreen
PUBLIC	?MediumSlateBlue@ColorsLinear@DirectX@@3UXMVECTORF32@2@B ; DirectX::ColorsLinear::MediumSlateBlue
PUBLIC	?MediumSpringGreen@ColorsLinear@DirectX@@3UXMVECTORF32@2@B ; DirectX::ColorsLinear::MediumSpringGreen
PUBLIC	?MediumTurquoise@ColorsLinear@DirectX@@3UXMVECTORF32@2@B ; DirectX::ColorsLinear::MediumTurquoise
PUBLIC	?MediumVioletRed@ColorsLinear@DirectX@@3UXMVECTORF32@2@B ; DirectX::ColorsLinear::MediumVioletRed
PUBLIC	?MidnightBlue@ColorsLinear@DirectX@@3UXMVECTORF32@2@B ; DirectX::ColorsLinear::MidnightBlue
PUBLIC	?MintCream@ColorsLinear@DirectX@@3UXMVECTORF32@2@B ; DirectX::ColorsLinear::MintCream
PUBLIC	?MistyRose@ColorsLinear@DirectX@@3UXMVECTORF32@2@B ; DirectX::ColorsLinear::MistyRose
PUBLIC	?Moccasin@ColorsLinear@DirectX@@3UXMVECTORF32@2@B ; DirectX::ColorsLinear::Moccasin
PUBLIC	?NavajoWhite@ColorsLinear@DirectX@@3UXMVECTORF32@2@B ; DirectX::ColorsLinear::NavajoWhite
PUBLIC	?Navy@ColorsLinear@DirectX@@3UXMVECTORF32@2@B	; DirectX::ColorsLinear::Navy
PUBLIC	?OldLace@ColorsLinear@DirectX@@3UXMVECTORF32@2@B ; DirectX::ColorsLinear::OldLace
PUBLIC	?Olive@ColorsLinear@DirectX@@3UXMVECTORF32@2@B	; DirectX::ColorsLinear::Olive
PUBLIC	?OliveDrab@ColorsLinear@DirectX@@3UXMVECTORF32@2@B ; DirectX::ColorsLinear::OliveDrab
PUBLIC	?Orange@ColorsLinear@DirectX@@3UXMVECTORF32@2@B	; DirectX::ColorsLinear::Orange
PUBLIC	?OrangeRed@ColorsLinear@DirectX@@3UXMVECTORF32@2@B ; DirectX::ColorsLinear::OrangeRed
PUBLIC	?Orchid@ColorsLinear@DirectX@@3UXMVECTORF32@2@B	; DirectX::ColorsLinear::Orchid
PUBLIC	?PaleGoldenrod@ColorsLinear@DirectX@@3UXMVECTORF32@2@B ; DirectX::ColorsLinear::PaleGoldenrod
PUBLIC	?PaleGreen@ColorsLinear@DirectX@@3UXMVECTORF32@2@B ; DirectX::ColorsLinear::PaleGreen
PUBLIC	?PaleTurquoise@ColorsLinear@DirectX@@3UXMVECTORF32@2@B ; DirectX::ColorsLinear::PaleTurquoise
PUBLIC	?PaleVioletRed@ColorsLinear@DirectX@@3UXMVECTORF32@2@B ; DirectX::ColorsLinear::PaleVioletRed
PUBLIC	?PapayaWhip@ColorsLinear@DirectX@@3UXMVECTORF32@2@B ; DirectX::ColorsLinear::PapayaWhip
PUBLIC	?PeachPuff@ColorsLinear@DirectX@@3UXMVECTORF32@2@B ; DirectX::ColorsLinear::PeachPuff
PUBLIC	?Peru@ColorsLinear@DirectX@@3UXMVECTORF32@2@B	; DirectX::ColorsLinear::Peru
PUBLIC	?Pink@ColorsLinear@DirectX@@3UXMVECTORF32@2@B	; DirectX::ColorsLinear::Pink
PUBLIC	?Plum@ColorsLinear@DirectX@@3UXMVECTORF32@2@B	; DirectX::ColorsLinear::Plum
PUBLIC	?PowderBlue@ColorsLinear@DirectX@@3UXMVECTORF32@2@B ; DirectX::ColorsLinear::PowderBlue
PUBLIC	?Purple@ColorsLinear@DirectX@@3UXMVECTORF32@2@B	; DirectX::ColorsLinear::Purple
PUBLIC	?Red@ColorsLinear@DirectX@@3UXMVECTORF32@2@B	; DirectX::ColorsLinear::Red
PUBLIC	?RosyBrown@ColorsLinear@DirectX@@3UXMVECTORF32@2@B ; DirectX::ColorsLinear::RosyBrown
PUBLIC	?RoyalBlue@ColorsLinear@DirectX@@3UXMVECTORF32@2@B ; DirectX::ColorsLinear::RoyalBlue
PUBLIC	?SaddleBrown@ColorsLinear@DirectX@@3UXMVECTORF32@2@B ; DirectX::ColorsLinear::SaddleBrown
PUBLIC	?Salmon@ColorsLinear@DirectX@@3UXMVECTORF32@2@B	; DirectX::ColorsLinear::Salmon
PUBLIC	?SandyBrown@ColorsLinear@DirectX@@3UXMVECTORF32@2@B ; DirectX::ColorsLinear::SandyBrown
PUBLIC	?SeaGreen@ColorsLinear@DirectX@@3UXMVECTORF32@2@B ; DirectX::ColorsLinear::SeaGreen
PUBLIC	?SeaShell@ColorsLinear@DirectX@@3UXMVECTORF32@2@B ; DirectX::ColorsLinear::SeaShell
PUBLIC	?Sienna@ColorsLinear@DirectX@@3UXMVECTORF32@2@B	; DirectX::ColorsLinear::Sienna
PUBLIC	?Silver@ColorsLinear@DirectX@@3UXMVECTORF32@2@B	; DirectX::ColorsLinear::Silver
PUBLIC	?SkyBlue@ColorsLinear@DirectX@@3UXMVECTORF32@2@B ; DirectX::ColorsLinear::SkyBlue
PUBLIC	?SlateBlue@ColorsLinear@DirectX@@3UXMVECTORF32@2@B ; DirectX::ColorsLinear::SlateBlue
PUBLIC	?SlateGray@ColorsLinear@DirectX@@3UXMVECTORF32@2@B ; DirectX::ColorsLinear::SlateGray
PUBLIC	?Snow@ColorsLinear@DirectX@@3UXMVECTORF32@2@B	; DirectX::ColorsLinear::Snow
PUBLIC	?SpringGreen@ColorsLinear@DirectX@@3UXMVECTORF32@2@B ; DirectX::ColorsLinear::SpringGreen
PUBLIC	?SteelBlue@ColorsLinear@DirectX@@3UXMVECTORF32@2@B ; DirectX::ColorsLinear::SteelBlue
PUBLIC	?Tan@ColorsLinear@DirectX@@3UXMVECTORF32@2@B	; DirectX::ColorsLinear::Tan
PUBLIC	?Teal@ColorsLinear@DirectX@@3UXMVECTORF32@2@B	; DirectX::ColorsLinear::Teal
PUBLIC	?Thistle@ColorsLinear@DirectX@@3UXMVECTORF32@2@B ; DirectX::ColorsLinear::Thistle
PUBLIC	?Tomato@ColorsLinear@DirectX@@3UXMVECTORF32@2@B	; DirectX::ColorsLinear::Tomato
PUBLIC	?Transparent@ColorsLinear@DirectX@@3UXMVECTORF32@2@B ; DirectX::ColorsLinear::Transparent
PUBLIC	?Turquoise@ColorsLinear@DirectX@@3UXMVECTORF32@2@B ; DirectX::ColorsLinear::Turquoise
PUBLIC	?Violet@ColorsLinear@DirectX@@3UXMVECTORF32@2@B	; DirectX::ColorsLinear::Violet
PUBLIC	?Wheat@ColorsLinear@DirectX@@3UXMVECTORF32@2@B	; DirectX::ColorsLinear::Wheat
PUBLIC	?White@ColorsLinear@DirectX@@3UXMVECTORF32@2@B	; DirectX::ColorsLinear::White
PUBLIC	?WhiteSmoke@ColorsLinear@DirectX@@3UXMVECTORF32@2@B ; DirectX::ColorsLinear::WhiteSmoke
PUBLIC	?Yellow@ColorsLinear@DirectX@@3UXMVECTORF32@2@B	; DirectX::ColorsLinear::Yellow
PUBLIC	?YellowGreen@ColorsLinear@DirectX@@3UXMVECTORF32@2@B ; DirectX::ColorsLinear::YellowGreen
EXTRN	?x86RegData@asmjit@@3UX86RegData@1@B:BYTE	; asmjit::x86RegData
_BSS	SEGMENT
?Font16px@OverlayEngine@Core@IronMan@@2PEAUImFont@@EA DQ 01H DUP (?) ; IronMan::Core::OverlayEngine::Font16px
?Font14px@OverlayEngine@Core@IronMan@@2PEAUImFont@@EA DQ 01H DUP (?) ; IronMan::Core::OverlayEngine::Font14px
?Font18px@OverlayEngine@Core@IronMan@@2PEAUImFont@@EA DQ 01H DUP (?) ; IronMan::Core::OverlayEngine::Font18px
?Font20px@OverlayEngine@Core@IronMan@@2PEAUImFont@@EA DQ 01H DUP (?) ; IronMan::Core::OverlayEngine::Font20px
?Font30px@OverlayEngine@Core@IronMan@@2PEAUImFont@@EA DQ 01H DUP (?) ; IronMan::Core::OverlayEngine::Font30px
?mDevice@OverlayEngine@Core@IronMan@@2PEAUID3D11Device@@EA DQ 01H DUP (?) ; IronMan::Core::OverlayEngine::mDevice
?mSwapChain@OverlayEngine@Core@IronMan@@2PEAUIDXGISwapChain@@EA DQ 01H DUP (?) ; IronMan::Core::OverlayEngine::mSwapChain
?mContext@OverlayEngine@Core@IronMan@@2PEAUID3D11DeviceContext@@EA DQ 01H DUP (?) ; IronMan::Core::OverlayEngine::mContext
?mOverlayWindow@OverlayEngine@Core@IronMan@@2PEAUHWND__@@EA DQ 01H DUP (?) ; IronMan::Core::OverlayEngine::mOverlayWindow
?mTargetScreenLeft@OverlayEngine@Core@IronMan@@2HA DD 01H DUP (?) ; IronMan::Core::OverlayEngine::mTargetScreenLeft
?mTargetScreenTop@OverlayEngine@Core@IronMan@@2HA DD 01H DUP (?) ; IronMan::Core::OverlayEngine::mTargetScreenTop
?mTargetScreenWidth@OverlayEngine@Core@IronMan@@2HA DD 01H DUP (?) ; IronMan::Core::OverlayEngine::mTargetScreenWidth
?mTargetScreenHeight@OverlayEngine@Core@IronMan@@2HA DD 01H DUP (?) ; IronMan::Core::OverlayEngine::mTargetScreenHeight
?mMainRenderTargetView@OverlayEngine@Core@IronMan@@2PEAUID3D11RenderTargetView@@EA DQ 01H DUP (?) ; IronMan::Core::OverlayEngine::mMainRenderTargetView
?mKeyMap@OverlayEngine@Core@IronMan@@2PAW4KeyState@23@A DD 0100H DUP (?) ; IronMan::Core::OverlayEngine::mKeyMap
?mApiKeyMap@OverlayEngine@Core@IronMan@@2PAGA DW 0100H DUP (?) ; IronMan::Core::OverlayEngine::mApiKeyMap
?mApiKeyStateMap@OverlayEngine@Core@IronMan@@2PAW4KeyState@23@A DD 0100H DUP (?) ; IronMan::Core::OverlayEngine::mApiKeyStateMap
_BSS	ENDS
;	COMDAT _Avx2WmemEnabledWeakValue
_BSS	SEGMENT
_Avx2WmemEnabledWeakValue DD 01H DUP (?)
_BSS	ENDS
;	COMDAT ?YellowGreen@ColorsLinear@DirectX@@3UXMVECTORF32@2@B
CONST	SEGMENT
?YellowGreen@ColorsLinear@DirectX@@3UXMVECTORF32@2@B DD 03ea57308r ; 0.323143 ; DirectX::ColorsLinear::YellowGreen
	DD	03f1c4973r			; 0.610496
	DD	03d02a56cr			; 0.031896
	DD	03f800000r			; 1
CONST	ENDS
;	COMDAT ?Yellow@ColorsLinear@DirectX@@3UXMVECTORF32@2@B
CONST	SEGMENT
?Yellow@ColorsLinear@DirectX@@3UXMVECTORF32@2@B DD 03f800000r ; 1 ; DirectX::ColorsLinear::Yellow
	DD	03f800000r			; 1
	DD	000000000r			; 0
	DD	03f800000r			; 1
CONST	ENDS
;	COMDAT ?WhiteSmoke@ColorsLinear@DirectX@@3UXMVECTORF32@2@B
CONST	SEGMENT
?WhiteSmoke@ColorsLinear@DirectX@@3UXMVECTORF32@2@B DD 03f69c0dbr ; 0.913099 ; DirectX::ColorsLinear::WhiteSmoke
	DD	03f69c0dbr			; 0.913099
	DD	03f69c0dbr			; 0.913099
	DD	03f800000r			; 1
CONST	ENDS
;	COMDAT ?White@ColorsLinear@DirectX@@3UXMVECTORF32@2@B
CONST	SEGMENT
?White@ColorsLinear@DirectX@@3UXMVECTORF32@2@B DD 03f800000r ; 1 ; DirectX::ColorsLinear::White
	DD	03f800000r			; 1
	DD	03f800000r			; 1
	DD	03f800000r			; 1
CONST	ENDS
;	COMDAT ?Wheat@ColorsLinear@DirectX@@3UXMVECTORF32@2@B
CONST	SEGMENT
?Wheat@ColorsLinear@DirectX@@3UXMVECTORF32@2@B DD 03f69c0dbr ; 0.913099 ; DirectX::ColorsLinear::Wheat
	DD	03f3aff7er			; 0.730461
	DD	03ee6cd67r			; 0.450786
	DD	03f800000r			; 1
CONST	ENDS
;	COMDAT ?Violet@ColorsLinear@DirectX@@3UXMVECTORF32@2@B
CONST	SEGMENT
?Violet@ColorsLinear@DirectX@@3UXMVECTORF32@2@B DD 03f5ae0cfr ; 0.854993 ; DirectX::ColorsLinear::Violet
	DD	03e6495e0r			; 0.223228
	DD	03f5ae0cfr			; 0.854993
	DD	03f800000r			; 1
CONST	ENDS
;	COMDAT ?Turquoise@ColorsLinear@DirectX@@3UXMVECTORF32@2@B
CONST	SEGMENT
?Turquoise@ColorsLinear@DirectX@@3UXMVECTORF32@2@B DD 03d51ffefr ; 0.0512695 ; DirectX::ColorsLinear::Turquoise
	DD	03f3ed2d4r			; 0.745404
	DD	03f217950r			; 0.630757
	DD	03f800000r			; 1
CONST	ENDS
;	COMDAT ?Transparent@ColorsLinear@DirectX@@3UXMVECTORF32@2@B
CONST	SEGMENT
?Transparent@ColorsLinear@DirectX@@3UXMVECTORF32@2@B DD 000000000r ; 0 ; DirectX::ColorsLinear::Transparent
	DD	000000000r			; 0
	DD	000000000r			; 0
	DD	000000000r			; 0
CONST	ENDS
;	COMDAT ?Tomato@ColorsLinear@DirectX@@3UXMVECTORF32@2@B
CONST	SEGMENT
?Tomato@ColorsLinear@DirectX@@3UXMVECTORF32@2@B DD 03f800000r ; 1 ; DirectX::ColorsLinear::Tomato
	DD	03dff8864r			; 0.124772
	DD	03d810b67r			; 0.06301
	DD	03f800000r			; 1
CONST	ENDS
;	COMDAT ?Thistle@ColorsLinear@DirectX@@3UXMVECTORF32@2@B
CONST	SEGMENT
?Thistle@ColorsLinear@DirectX@@3UXMVECTORF32@2@B DD 03f2fca9er ; 0.686685 ; DirectX::ColorsLinear::Thistle
	DD	03f055ff9r			; 0.520996
	DD	03f2fca9er			; 0.686685
	DD	03f800000r			; 1
CONST	ENDS
;	COMDAT ?Teal@ColorsLinear@DirectX@@3UXMVECTORF32@2@B
CONST	SEGMENT
?Teal@ColorsLinear@DirectX@@3UXMVECTORF32@2@B DD 000000000r ; 0 ; DirectX::ColorsLinear::Teal
	DD	03e5d0a8br			; 0.215861
	DD	03e5d0a8br			; 0.215861
	DD	03f800000r			; 1
CONST	ENDS
;	COMDAT ?Tan@ColorsLinear@DirectX@@3UXMVECTORF32@2@B
CONST	SEGMENT
?Tan@ColorsLinear@DirectX@@3UXMVECTORF32@2@B DD 03f24fca2r ; 0.64448 ; DirectX::ColorsLinear::Tan
	DD	03ee9aeb6r			; 0.456411
	DD	03e8645bar			; 0.262251
	DD	03f800000r			; 1
CONST	ENDS
;	COMDAT ?SteelBlue@ColorsLinear@DirectX@@3UXMVECTORF32@2@B
CONST	SEGMENT
?SteelBlue@ColorsLinear@DirectX@@3UXMVECTORF32@2@B DD 03d7add29r ; 0.0612461 ; DirectX::ColorsLinear::SteelBlue
	DD	03e6495e0r			; 0.223228
	DD	03ee9aeb6r			; 0.456411
	DD	03f800000r			; 1
CONST	ENDS
;	COMDAT ?SpringGreen@ColorsLinear@DirectX@@3UXMVECTORF32@2@B
CONST	SEGMENT
?SpringGreen@ColorsLinear@DirectX@@3UXMVECTORF32@2@B DD 000000000r ; 0 ; DirectX::ColorsLinear::SpringGreen
	DD	03f800000r			; 1
	DD	03e595307r			; 0.212231
	DD	03f800000r			; 1
CONST	ENDS
;	COMDAT ?Snow@ColorsLinear@DirectX@@3UXMVECTORF32@2@B
CONST	SEGMENT
?Snow@ColorsLinear@DirectX@@3UXMVECTORF32@2@B DD 03f800000r ; 1 ; DirectX::ColorsLinear::Snow
	DD	03f74baaer			; 0.955974
	DD	03f74baaer			; 0.955974
	DD	03f800000r			; 1
CONST	ENDS
;	COMDAT ?SlateGray@ColorsLinear@DirectX@@3UXMVECTORF32@2@B
CONST	SEGMENT
?SlateGray@ColorsLinear@DirectX@@3UXMVECTORF32@2@B DD 03e25eb0br ; 0.162029 ; DirectX::ColorsLinear::SlateGray
	DD	03e5d0a8br			; 0.215861
	DD	03e8ecb3dr			; 0.278894
	DD	03f800000r			; 1
CONST	ENDS
;	COMDAT ?SlateBlue@ColorsLinear@DirectX@@3UXMVECTORF32@2@B
CONST	SEGMENT
?SlateBlue@ColorsLinear@DirectX@@3UXMVECTORF32@2@B DD 03e13966cr ; 0.144129 ; DirectX::ColorsLinear::SlateBlue
	DD	03dd1641fr			; 0.102242
	DD	03f1c4973r			; 0.610496
	DD	03f800000r			; 1
CONST	ENDS
;	COMDAT ?SkyBlue@ColorsLinear@DirectX@@3UXMVECTORF32@2@B
CONST	SEGMENT
?SkyBlue@ColorsLinear@DirectX@@3UXMVECTORF32@2@B DD 03e781890r ; 0.242281 ; DirectX::ColorsLinear::SkyBlue
	DD	03f1e0143r			; 0.617207
	DD	03f54ad59r			; 0.83077
	DD	03f800000r			; 1
CONST	ENDS
;	COMDAT ?Silver@ColorsLinear@DirectX@@3UXMVECTORF32@2@B
CONST	SEGMENT
?Silver@ColorsLinear@DirectX@@3UXMVECTORF32@2@B DD 03f06f108r ; 0.527115 ; DirectX::ColorsLinear::Silver
	DD	03f06f108r			; 0.527115
	DD	03f06f108r			; 0.527115
	DD	03f800000r			; 1
CONST	ENDS
;	COMDAT ?Sienna@ColorsLinear@DirectX@@3UXMVECTORF32@2@B
CONST	SEGMENT
?Sienna@ColorsLinear@DirectX@@3UXMVECTORF32@2@B DD 03eb3fc18r ; 0.351533 ; DirectX::ColorsLinear::Sienna
	DD	03daccd70r			; 0.0843762
	DD	03cd6f7d5r			; 0.0262412
	DD	03f800000r			; 1
CONST	ENDS
;	COMDAT ?SeaShell@ColorsLinear@DirectX@@3UXMVECTORF32@2@B
CONST	SEGMENT
?SeaShell@ColorsLinear@DirectX@@3UXMVECTORF32@2@B DD 03f800000r ; 1 ; DirectX::ColorsLinear::SeaShell
	DD	03f69c0dbr			; 0.913099
	DD	03f5ae0cfr			; 0.854993
	DD	03f800000r			; 1
CONST	ENDS
;	COMDAT ?SeaGreen@ColorsLinear@DirectX@@3UXMVECTORF32@2@B
CONST	SEGMENT
?SeaGreen@ColorsLinear@DirectX@@3UXMVECTORF32@2@B DD 03cdfd010r ; 0.0273209 ; DirectX::ColorsLinear::SeaGreen
	DD	03e84308dr			; 0.258183
	DD	03dc33092r			; 0.0953075
	DD	03f800000r			; 1
CONST	ENDS
;	COMDAT ?SandyBrown@ColorsLinear@DirectX@@3UXMVECTORF32@2@B
CONST	SEGMENT
?SandyBrown@ColorsLinear@DirectX@@3UXMVECTORF32@2@B DD 03f6797e3r ; 0.904661 ; DirectX::ColorsLinear::SandyBrown
	DD	03ebe12e1r			; 0.371238
	DD	03def8e55r			; 0.116971
	DD	03f800000r			; 1
CONST	ENDS
;	COMDAT ?Salmon@ColorsLinear@DirectX@@3UXMVECTORF32@2@B
CONST	SEGMENT
?Salmon@ColorsLinear@DirectX@@3UXMVECTORF32@2@B DD 03f74baaer ; 0.955974 ; DirectX::ColorsLinear::Salmon
	DD	03e5d0a8br			; 0.215861
	DD	03e2c4ed4r			; 0.168269
	DD	03f800000r			; 1
CONST	ENDS
;	COMDAT ?SaddleBrown@ColorsLinear@DirectX@@3UXMVECTORF32@2@B
CONST	SEGMENT
?SaddleBrown@ColorsLinear@DirectX@@3UXMVECTORF32@2@B DD 03e84308dr ; 0.258183 ; DirectX::ColorsLinear::SaddleBrown
	DD	03d73c20fr			; 0.0595112
	DD	03bd56361r			; 0.00651209
	DD	03f800000r			; 1
CONST	ENDS
;	COMDAT ?RoyalBlue@ColorsLinear@DirectX@@3UXMVECTORF32@2@B
CONST	SEGMENT
?RoyalBlue@ColorsLinear@DirectX@@3UXMVECTORF32@2@B DD 03d58846ar ; 0.0528607 ; DirectX::ColorsLinear::RoyalBlue
	DD	03e10a755r			; 0.141263
	DD	03f40c0d6r			; 0.752942
	DD	03f800000r			; 1
CONST	ENDS
;	COMDAT ?RosyBrown@ColorsLinear@DirectX@@3UXMVECTORF32@2@B
CONST	SEGMENT
?RosyBrown@ColorsLinear@DirectX@@3UXMVECTORF32@2@B DD 03f00bd2dr ; 0.502887 ; DirectX::ColorsLinear::RosyBrown
	DD	03e8ca283r			; 0.274677
	DD	03e8ca283r			; 0.274677
	DD	03f800000r			; 1
CONST	ENDS
;	COMDAT ?Red@ColorsLinear@DirectX@@3UXMVECTORF32@2@B
CONST	SEGMENT
?Red@ColorsLinear@DirectX@@3UXMVECTORF32@2@B DD 03f800000r ; 1 ; DirectX::ColorsLinear::Red
	DD	000000000r			; 0
	DD	000000000r			; 0
	DD	03f800000r			; 1
CONST	ENDS
;	COMDAT ?Purple@ColorsLinear@DirectX@@3UXMVECTORF32@2@B
CONST	SEGMENT
?Purple@ColorsLinear@DirectX@@3UXMVECTORF32@2@B DD 03e5d0a8br ; 0.215861 ; DirectX::ColorsLinear::Purple
	DD	000000000r			; 0
	DD	03e5d0a8br			; 0.215861
	DD	03f800000r			; 1
CONST	ENDS
;	COMDAT ?PowderBlue@ColorsLinear@DirectX@@3UXMVECTORF32@2@B
CONST	SEGMENT
?PowderBlue@ColorsLinear@DirectX@@3UXMVECTORF32@2@B DD 03ede4965r ; 0.434154 ; DirectX::ColorsLinear::PowderBlue
	DD	03f3ed2d4r			; 0.745404
	DD	03f4a9284r			; 0.791298
	DD	03f800000r			; 1
CONST	ENDS
;	COMDAT ?Plum@ColorsLinear@DirectX@@3UXMVECTORF32@2@B
CONST	SEGMENT
?Plum@ColorsLinear@DirectX@@3UXMVECTORF32@2@B DD 03f391a28r ; 0.723055 ; DirectX::ColorsLinear::Plum
	DD	03eb3fc18r			; 0.351533
	DD	03f391a28r			; 0.723055
	DD	03f800000r			; 1
CONST	ENDS
;	COMDAT ?Pink@ColorsLinear@DirectX@@3UXMVECTORF32@2@B
CONST	SEGMENT
?Pink@ColorsLinear@DirectX@@3UXMVECTORF32@2@B DD 03f800000r ; 1 ; DirectX::ColorsLinear::Pink
	DD	03f06f108r			; 0.527115
	DD	03f18e23br			; 0.597202
	DD	03f800000r			; 1
CONST	ENDS
;	COMDAT ?Peru@ColorsLinear@DirectX@@3UXMVECTORF32@2@B
CONST	SEGMENT
?Peru@ColorsLinear@DirectX@@3UXMVECTORF32@2@B DD 03f1c4973r ; 0.610496 ; DirectX::ColorsLinear::Peru
	DD	03e702e0cr			; 0.234551
	DD	03d4b991fr			; 0.0497066
	DD	03f800000r			; 1
CONST	ENDS
;	COMDAT ?PeachPuff@ColorsLinear@DirectX@@3UXMVECTORF32@2@B
CONST	SEGMENT
?PeachPuff@ColorsLinear@DirectX@@3UXMVECTORF32@2@B DD 03f800000r ; 1 ; DirectX::ColorsLinear::PeachPuff
	DD	03f337b6er			; 0.701102
	DD	03ef86594r			; 0.48515
	DD	03f800000r			; 1
CONST	ENDS
;	COMDAT ?PapayaWhip@ColorsLinear@DirectX@@3UXMVECTORF32@2@B
CONST	SEGMENT
?PapayaWhip@ColorsLinear@DirectX@@3UXMVECTORF32@2@B DD 03f800000r ; 1 ; DirectX::ColorsLinear::PapayaWhip
	DD	03f5cf7e2r			; 0.863157
	DD	03f2a56d5r			; 0.665387
	DD	03f800000r			; 1
CONST	ENDS
;	COMDAT ?PaleVioletRed@ColorsLinear@DirectX@@3UXMVECTORF32@2@B
CONST	SEGMENT
?PaleVioletRed@ColorsLinear@DirectX@@3UXMVECTORF32@2@B DD 03f355822r ; 0.708376 ; DirectX::ColorsLinear::PaleVioletRed
	DD	03e25eb0br			; 0.162029
	DD	03e9562f8r			; 0.291771
	DD	03f800000r			; 1
CONST	ENDS
;	COMDAT ?PaleTurquoise@ColorsLinear@DirectX@@3UXMVECTORF32@2@B
CONST	SEGMENT
?PaleTurquoise@ColorsLinear@DirectX@@3UXMVECTORF32@2@B DD 03edb7d54r ; 0.428691 ; DirectX::ColorsLinear::PaleTurquoise
	DD	03f5ae0cfr			; 0.854993
	DD	03f5ae0cfr			; 0.854993
	DD	03f800000r			; 1
CONST	ENDS
;	COMDAT ?PaleGreen@ColorsLinear@DirectX@@3UXMVECTORF32@2@B
CONST	SEGMENT
?PaleGreen@ColorsLinear@DirectX@@3UXMVECTORF32@2@B DD 03ea0c322r ; 0.313989 ; DirectX::ColorsLinear::PaleGreen
	DD	03f76f5b3r			; 0.964687
	DD	03ea0c322r			; 0.313989
	DD	03f800000r			; 1
CONST	ENDS
;	COMDAT ?PaleGoldenrod@ColorsLinear@DirectX@@3UXMVECTORF32@2@B
CONST	SEGMENT
?PaleGoldenrod@ColorsLinear@DirectX@@3UXMVECTORF32@2@B DD 03f5ae0cfr ; 0.854993 ; DirectX::ColorsLinear::PaleGoldenrod
	DD	03f4e9470r			; 0.806952
	DD	03ecdd00br			; 0.401978
	DD	03f800000r			; 1
CONST	ENDS
;	COMDAT ?Orchid@ColorsLinear@DirectX@@3UXMVECTORF32@2@B
CONST	SEGMENT
?Orchid@ColorsLinear@DirectX@@3UXMVECTORF32@2@B DD 03f337b6er ; 0.701102 ; DirectX::ColorsLinear::Orchid
	DD	03e25eb0br			; 0.162029
	DD	03f2c253fr			; 0.672443
	DD	03f800000r			; 1
CONST	ENDS
;	COMDAT ?OrangeRed@ColorsLinear@DirectX@@3UXMVECTORF32@2@B
CONST	SEGMENT
?OrangeRed@ColorsLinear@DirectX@@3UXMVECTORF32@2@B DD 03f800000r ; 1 ; DirectX::ColorsLinear::OrangeRed
	DD	03d73c20fr			; 0.0595112
	DD	000000000r			; 0
	DD	03f800000r			; 1
CONST	ENDS
;	COMDAT ?Orange@ColorsLinear@DirectX@@3UXMVECTORF32@2@B
CONST	SEGMENT
?Orange@ColorsLinear@DirectX@@3UXMVECTORF32@2@B DD 03f800000r ; 1 ; DirectX::ColorsLinear::Orange
	DD	03ec0a571r			; 0.376262
	DD	000000000r			; 0
	DD	03f800000r			; 1
CONST	ENDS
;	COMDAT ?OliveDrab@ColorsLinear@DirectX@@3UXMVECTORF32@2@B
CONST	SEGMENT
?OliveDrab@ColorsLinear@DirectX@@3UXMVECTORF32@2@B DD 03e168e53r ; 0.147027 ; DirectX::ColorsLinear::OliveDrab
	DD	03e8a7eb2r			; 0.270498
	DD	03c89af9fr			; 0.0168074
	DD	03f800000r			; 1
CONST	ENDS
;	COMDAT ?Olive@ColorsLinear@DirectX@@3UXMVECTORF32@2@B
CONST	SEGMENT
?Olive@ColorsLinear@DirectX@@3UXMVECTORF32@2@B DD 03e5d0a8br ; 0.215861 ; DirectX::ColorsLinear::Olive
	DD	03e5d0a8br			; 0.215861
	DD	000000000r			; 0
	DD	03f800000r			; 1
CONST	ENDS
;	COMDAT ?OldLace@ColorsLinear@DirectX@@3UXMVECTORF32@2@B
CONST	SEGMENT
?OldLace@ColorsLinear@DirectX@@3UXMVECTORF32@2@B DD 03f7b74cbr ; 0.982251 ; DirectX::ColorsLinear::OldLace
	DD	03f69c0dbr			; 0.913099
	DD	03f4a9284r			; 0.791298
	DD	03f800000r			; 1
CONST	ENDS
;	COMDAT ?Navy@ColorsLinear@DirectX@@3UXMVECTORF32@2@B
CONST	SEGMENT
?Navy@ColorsLinear@DirectX@@3UXMVECTORF32@2@B DD 000000000r ; 0 ; DirectX::ColorsLinear::Navy
	DD	000000000r			; 0
	DD	03e5d0a8br			; 0.215861
	DD	03f800000r			; 1
CONST	ENDS
;	COMDAT ?NavajoWhite@ColorsLinear@DirectX@@3UXMVECTORF32@2@B
CONST	SEGMENT
?NavajoWhite@ColorsLinear@DirectX@@3UXMVECTORF32@2@B DD 03f800000r ; 1 ; DirectX::ColorsLinear::NavajoWhite
	DD	03f3aff7er			; 0.730461
	DD	03ed5f50br			; 0.417885
	DD	03f800000r			; 1
CONST	ENDS
;	COMDAT ?Moccasin@ColorsLinear@DirectX@@3UXMVECTORF32@2@B
CONST	SEGMENT
?Moccasin@ColorsLinear@DirectX@@3UXMVECTORF32@2@B DD 03f800000r ; 1 ; DirectX::ColorsLinear::Moccasin
	DD	03f469c4dr			; 0.775822
	DD	03eec955dr			; 0.462077
	DD	03f800000r			; 1
CONST	ENDS
;	COMDAT ?MistyRose@ColorsLinear@DirectX@@3UXMVECTORF32@2@B
CONST	SEGMENT
?MistyRose@ColorsLinear@DirectX@@3UXMVECTORF32@2@B DD 03f800000r ; 1 ; DirectX::ColorsLinear::MistyRose
	DD	03f469c4dr			; 0.775822
	DD	03f40c0d6r			; 0.752942
	DD	03f800000r			; 1
CONST	ENDS
;	COMDAT ?MintCream@ColorsLinear@DirectX@@3UXMVECTORF32@2@B
CONST	SEGMENT
?MintCream@ColorsLinear@DirectX@@3UXMVECTORF32@2@B DD 03f69c0dbr ; 0.913099 ; DirectX::ColorsLinear::MintCream
	DD	03f800000r			; 1
	DD	03f74baaer			; 0.955974
	DD	03f800000r			; 1
CONST	ENDS
;	COMDAT ?MidnightBlue@ColorsLinear@DirectX@@3UXMVECTORF32@2@B
CONST	SEGMENT
?MidnightBlue@ColorsLinear@DirectX@@3UXMVECTORF32@2@B DD 03c1f45ber ; 0.00972122 ; DirectX::ColorsLinear::MidnightBlue
	DD	03c1f45ber			; 0.00972122
	DD	03e25eb0br			; 0.162029
	DD	03f800000r			; 1
CONST	ENDS
;	COMDAT ?MediumVioletRed@ColorsLinear@DirectX@@3UXMVECTORF32@2@B
CONST	SEGMENT
?MediumVioletRed@ColorsLinear@DirectX@@3UXMVECTORF32@2@B DD 03f123540r ; 0.571125 ; DirectX::ColorsLinear::MediumVioletRed
	DD	03bf5ba71r			; 0.00749903
	DD	03e702e0cr			; 0.234551
	DD	03f800000r			; 1
CONST	ENDS
;	COMDAT ?MediumTurquoise@ColorsLinear@DirectX@@3UXMVECTORF32@2@B
CONST	SEGMENT
?MediumTurquoise@ColorsLinear@DirectX@@3UXMVECTORF32@2@B DD 03d84b795r ; 0.0648033 ; DirectX::ColorsLinear::MediumTurquoise
	DD	03f23398fr			; 0.637597
	DD	03f1a9471r			; 0.603828
	DD	03f800000r			; 1
CONST	ENDS
;	COMDAT ?MediumSpringGreen@ColorsLinear@DirectX@@3UXMVECTORF32@2@B
CONST	SEGMENT
?MediumSpringGreen@ColorsLinear@DirectX@@3UXMVECTORF32@2@B DD 000000000r ; 0 ; DirectX::ColorsLinear::MediumSpringGreen
	DD	03f74baaer			; 0.955974
	DD	03ea57308r			; 0.323143
	DD	03f800000r			; 1
CONST	ENDS
;	COMDAT ?MediumSlateBlue@ColorsLinear@DirectX@@3UXMVECTORF32@2@B
CONST	SEGMENT
?MediumSlateBlue@ColorsLinear@DirectX@@3UXMVECTORF32@2@B DD 03e4ad2b1r ; 0.198069 ; DirectX::ColorsLinear::MediumSlateBlue
	DD	03e0dc107r			; 0.138432
	DD	03f5ae0cfr			; 0.854993
	DD	03f800000r			; 1
CONST	ENDS
;	COMDAT ?MediumSeaGreen@ColorsLinear@DirectX@@3UXMVECTORF32@2@B
CONST	SEGMENT
?MediumSeaGreen@ColorsLinear@DirectX@@3UXMVECTORF32@2@B DD 03d39152er ; 0.0451862 ; DirectX::ColorsLinear::MediumSeaGreen
	DD	03ee6cd67r			; 0.450786
	DD	03e29186dr			; 0.165132
	DD	03f800000r			; 1
CONST	ENDS
;	COMDAT ?MediumPurple@ColorsLinear@DirectX@@3UXMVECTORF32@2@B
CONST	SEGMENT
?MediumPurple@ColorsLinear@DirectX@@3UXMVECTORF32@2@B DD 03e9562f8r ; 0.291771 ; DirectX::ColorsLinear::MediumPurple
	DD	03e25eb0br			; 0.162029
	DD	03f355822r			; 0.708376
	DD	03f800000r			; 1
CONST	ENDS
;	COMDAT ?MediumOrchid@ColorsLinear@DirectX@@3UXMVECTORF32@2@B
CONST	SEGMENT
?MediumOrchid@ColorsLinear@DirectX@@3UXMVECTORF32@2@B DD 03efb6717r ; 0.491021 ; DirectX::ColorsLinear::MediumOrchid
	DD	03dba0b3br			; 0.0908417
	DD	03f26c288r			; 0.651406
	DD	03f800000r			; 1
CONST	ENDS
;	COMDAT ?MediumBlue@ColorsLinear@DirectX@@3UXMVECTORF32@2@B
CONST	SEGMENT
?MediumBlue@ColorsLinear@DirectX@@3UXMVECTORF32@2@B DD 000000000r ; 0 ; DirectX::ColorsLinear::MediumBlue
	DD	000000000r			; 0
	DD	03f1c4973r			; 0.610496
	DD	03f800000r			; 1
CONST	ENDS
;	COMDAT ?MediumAquamarine@ColorsLinear@DirectX@@3UXMVECTORF32@2@B
CONST	SEGMENT
?MediumAquamarine@ColorsLinear@DirectX@@3UXMVECTORF32@2@B DD 03e080ea5r ; 0.132868 ; DirectX::ColorsLinear::MediumAquamarine
	DD	03f1c4973r			; 0.610496
	DD	03ecdd00br			; 0.401978
	DD	03f800000r			; 1
CONST	ENDS
;	COMDAT ?Maroon@ColorsLinear@DirectX@@3UXMVECTORF32@2@B
CONST	SEGMENT
?Maroon@ColorsLinear@DirectX@@3UXMVECTORF32@2@B DD 03e5d0a8br ; 0.215861 ; DirectX::ColorsLinear::Maroon
	DD	000000000r			; 0
	DD	000000000r			; 0
	DD	03f800000r			; 1
CONST	ENDS
;	COMDAT ?Magenta@ColorsLinear@DirectX@@3UXMVECTORF32@2@B
CONST	SEGMENT
?Magenta@ColorsLinear@DirectX@@3UXMVECTORF32@2@B DD 03f800000r ; 1 ; DirectX::ColorsLinear::Magenta
	DD	000000000r			; 0
	DD	03f800000r			; 1
	DD	03f800000r			; 1
CONST	ENDS
;	COMDAT ?Linen@ColorsLinear@DirectX@@3UXMVECTORF32@2@B
CONST	SEGMENT
?Linen@ColorsLinear@DirectX@@3UXMVECTORF32@2@B DD 03f74baaer ; 0.955974 ; DirectX::ColorsLinear::Linen
	DD	03f5f11eer			; 0.871367
	DD	03f4a9284r			; 0.791298
	DD	03f800000r			; 1
CONST	ENDS
;	COMDAT ?LimeGreen@ColorsLinear@DirectX@@3UXMVECTORF32@2@B
CONST	SEGMENT
?LimeGreen@ColorsLinear@DirectX@@3UXMVECTORF32@2@B DD 03d02a56cr ; 0.031896 ; DirectX::ColorsLinear::LimeGreen
	DD	03f1c4973r			; 0.610496
	DD	03d02a56cr			; 0.031896
	DD	03f800000r			; 1
CONST	ENDS
;	COMDAT ?Lime@ColorsLinear@DirectX@@3UXMVECTORF32@2@B
CONST	SEGMENT
?Lime@ColorsLinear@DirectX@@3UXMVECTORF32@2@B DD 000000000r ; 0 ; DirectX::ColorsLinear::Lime
	DD	03f800000r			; 1
	DD	000000000r			; 0
	DD	03f800000r			; 1
CONST	ENDS
;	COMDAT ?LightYellow@ColorsLinear@DirectX@@3UXMVECTORF32@2@B
CONST	SEGMENT
?LightYellow@ColorsLinear@DirectX@@3UXMVECTORF32@2@B DD 03f800000r ; 1 ; DirectX::ColorsLinear::LightYellow
	DD	03f800000r			; 1
	DD	03f3ed2d4r			; 0.745404
	DD	03f800000r			; 1
CONST	ENDS
;	COMDAT ?LightSteelBlue@ColorsLinear@DirectX@@3UXMVECTORF32@2@B
CONST	SEGMENT
?LightSteelBlue@ColorsLinear@DirectX@@3UXMVECTORF32@2@B DD 03ede4965r ; 0.434154 ; DirectX::ColorsLinear::LightSteelBlue
	DD	03f0d50a2r			; 0.552012
	DD	03f3aff7er			; 0.730461
	DD	03f800000r			; 1
CONST	ENDS
;	COMDAT ?LightSlateGray@ColorsLinear@DirectX@@3UXMVECTORF32@2@B
CONST	SEGMENT
?LightSlateGray@ColorsLinear@DirectX@@3UXMVECTORF32@2@B DD 03e3ce706r ; 0.184475 ; DirectX::ColorsLinear::LightSlateGray
	DD	03e7c1c38r			; 0.246201
	DD	03ea31892r			; 0.318547
	DD	03f800000r			; 1
CONST	ENDS
;	COMDAT ?LightSkyBlue@ColorsLinear@DirectX@@3UXMVECTORF32@2@B
CONST	SEGMENT
?LightSkyBlue@ColorsLinear@DirectX@@3UXMVECTORF32@2@B DD 03e781890r ; 0.242281 ; DirectX::ColorsLinear::LightSkyBlue
	DD	03f1e0143r			; 0.617207
	DD	03f74baaer			; 0.955974
	DD	03f800000r			; 1
CONST	ENDS
;	COMDAT ?LightSeaGreen@ColorsLinear@DirectX@@3UXMVECTORF32@2@B
CONST	SEGMENT
?LightSeaGreen@ColorsLinear@DirectX@@3UXMVECTORF32@2@B DD 03c6ca5dfr ; 0.0144438 ; DirectX::ColorsLinear::LightSeaGreen
	DD	03ee3f16br			; 0.445201
	DD	03ecdd00br			; 0.401978
	DD	03f800000r			; 1
CONST	ENDS
;	COMDAT ?LightSalmon@ColorsLinear@DirectX@@3UXMVECTORF32@2@B
CONST	SEGMENT
?LightSalmon@ColorsLinear@DirectX@@3UXMVECTORF32@2@B DD 03f800000r ; 1 ; DirectX::ColorsLinear::LightSalmon
	DD	03eb3fc18r			; 0.351533
	DD	03e4749e8r			; 0.194618
	DD	03f800000r			; 1
CONST	ENDS
;	COMDAT ?LightPink@ColorsLinear@DirectX@@3UXMVECTORF32@2@B
CONST	SEGMENT
?LightPink@ColorsLinear@DirectX@@3UXMVECTORF32@2@B DD 03f800000r ; 1 ; DirectX::ColorsLinear::LightPink
	DD	03eef815dr			; 0.467784
	DD	03f0884d1r			; 0.533277
	DD	03f800000r			; 1
CONST	ENDS
;	COMDAT ?LightGreen@ColorsLinear@DirectX@@3UXMVECTORF32@2@B
CONST	SEGMENT
?LightGreen@ColorsLinear@DirectX@@3UXMVECTORF32@2@B DD 03e8ecb3dr ; 0.278894 ; DirectX::ColorsLinear::LightGreen
	DD	03f5ae0cfr			; 0.854993
	DD	03e8ecb3dr			; 0.278894
	DD	03f800000r			; 1
CONST	ENDS
;	COMDAT ?LightGray@ColorsLinear@DirectX@@3UXMVECTORF32@2@B
CONST	SEGMENT
?LightGray@ColorsLinear@DirectX@@3UXMVECTORF32@2@B DD 03f26c288r ; 0.651406 ; DirectX::ColorsLinear::LightGray
	DD	03f26c288r			; 0.651406
	DD	03f26c288r			; 0.651406
	DD	03f800000r			; 1
CONST	ENDS
;	COMDAT ?LightGoldenrodYellow@ColorsLinear@DirectX@@3UXMVECTORF32@2@B
CONST	SEGMENT
?LightGoldenrodYellow@ColorsLinear@DirectX@@3UXMVECTORF32@2@B DD 03f74baaer ; 0.955974 ; DirectX::ColorsLinear::LightGoldenrodYellow
	DD	03f74baaer			; 0.955974
	DD	03f24fca2r			; 0.64448
	DD	03f800000r			; 1
CONST	ENDS
;	COMDAT ?LightCyan@ColorsLinear@DirectX@@3UXMVECTORF32@2@B
CONST	SEGMENT
?LightCyan@ColorsLinear@DirectX@@3UXMVECTORF32@2@B DD 03f3ed2d4r ; 0.745404 ; DirectX::ColorsLinear::LightCyan
	DD	03f800000r			; 1
	DD	03f800000r			; 1
	DD	03f800000r			; 1
CONST	ENDS
;	COMDAT ?LightCoral@ColorsLinear@DirectX@@3UXMVECTORF32@2@B
CONST	SEGMENT
?LightCoral@ColorsLinear@DirectX@@3UXMVECTORF32@2@B DD 03f5f11eer ; 0.871367 ; DirectX::ColorsLinear::LightCoral
	DD	03e5d0a8br			; 0.215861
	DD	03e5d0a8br			; 0.215861
	DD	03f800000r			; 1
CONST	ENDS
;	COMDAT ?LightBlue@ColorsLinear@DirectX@@3UXMVECTORF32@2@B
CONST	SEGMENT
?LightBlue@ColorsLinear@DirectX@@3UXMVECTORF32@2@B DD 03ed5f50br ; 0.417885 ; DirectX::ColorsLinear::LightBlue
	DD	03f2fca9er			; 0.686685
	DD	03f4a9284r			; 0.791298
	DD	03f800000r			; 1
CONST	ENDS
;	COMDAT ?LemonChiffon@ColorsLinear@DirectX@@3UXMVECTORF32@2@B
CONST	SEGMENT
?LemonChiffon@ColorsLinear@DirectX@@3UXMVECTORF32@2@B DD 03f800000r ; 1 ; DirectX::ColorsLinear::LemonChiffon
	DD	03f74baaer			; 0.955974
	DD	03f1c4973r			; 0.610496
	DD	03f800000r			; 1
CONST	ENDS
;	COMDAT ?LawnGreen@ColorsLinear@DirectX@@3UXMVECTORF32@2@B
CONST	SEGMENT
?LawnGreen@ColorsLinear@DirectX@@3UXMVECTORF32@2@B DD 03e4e64c6r ; 0.201556 ; DirectX::ColorsLinear::LawnGreen
	DD	03f7933b9r			; 0.973445
	DD	000000000r			; 0
	DD	03f800000r			; 1
CONST	ENDS
;	COMDAT ?LavenderBlush@ColorsLinear@DirectX@@3UXMVECTORF32@2@B
CONST	SEGMENT
?LavenderBlush@ColorsLinear@DirectX@@3UXMVECTORF32@2@B DD 03f800000r ; 1 ; DirectX::ColorsLinear::LavenderBlush
	DD	03f5f11eer			; 0.871367
	DD	03f69c0dbr			; 0.913099
	DD	03f800000r			; 1
CONST	ENDS
;	COMDAT ?Lavender@ColorsLinear@DirectX@@3UXMVECTORF32@2@B
CONST	SEGMENT
?Lavender@ColorsLinear@DirectX@@3UXMVECTORF32@2@B DD 03f4a9284r ; 0.791298 ; DirectX::ColorsLinear::Lavender
	DD	03f4a9284r			; 0.791298
	DD	03f74baaer			; 0.955974
	DD	03f800000r			; 1
CONST	ENDS
;	COMDAT ?Khaki@ColorsLinear@DirectX@@3UXMVECTORF32@2@B
CONST	SEGMENT
?Khaki@ColorsLinear@DirectX@@3UXMVECTORF32@2@B DD 03f5f11eer ; 0.871367 ; DirectX::ColorsLinear::Khaki
	DD	03f4a9284r			; 0.791298
	DD	03e8645bar			; 0.262251
	DD	03f800000r			; 1
CONST	ENDS
;	COMDAT ?Ivory@ColorsLinear@DirectX@@3UXMVECTORF32@2@B
CONST	SEGMENT
?Ivory@ColorsLinear@DirectX@@3UXMVECTORF32@2@B DD 03f800000r ; 1 ; DirectX::ColorsLinear::Ivory
	DD	03f800000r			; 1
	DD	03f5f11eer			; 0.871367
	DD	03f800000r			; 1
CONST	ENDS
;	COMDAT ?Indigo@ColorsLinear@DirectX@@3UXMVECTORF32@2@B
CONST	SEGMENT
?Indigo@ColorsLinear@DirectX@@3UXMVECTORF32@2@B DD 03d9018f6r ; 0.0703601 ; DirectX::ColorsLinear::Indigo
	DD	000000000r			; 0
	DD	03e6495e0r			; 0.223228
	DD	03f800000r			; 1
CONST	ENDS
;	COMDAT ?IndianRed@ColorsLinear@DirectX@@3UXMVECTORF32@2@B
CONST	SEGMENT
?IndianRed@ColorsLinear@DirectX@@3UXMVECTORF32@2@B DD 03f1c4973r ; 0.610496 ; DirectX::ColorsLinear::IndianRed
	DD	03ddb2eefr			; 0.107023
	DD	03ddb2eefr			; 0.107023
	DD	03f800000r			; 1
CONST	ENDS
;	COMDAT ?HotPink@ColorsLinear@DirectX@@3UXMVECTORF32@2@B
CONST	SEGMENT
?HotPink@ColorsLinear@DirectX@@3UXMVECTORF32@2@B DD 03f800000r ; 1 ; DirectX::ColorsLinear::HotPink
	DD	03e10a755r			; 0.141263
	DD	03ee9aeb6r			; 0.456411
	DD	03f800000r			; 1
CONST	ENDS
;	COMDAT ?Honeydew@ColorsLinear@DirectX@@3UXMVECTORF32@2@B
CONST	SEGMENT
?Honeydew@ColorsLinear@DirectX@@3UXMVECTORF32@2@B DD 03f5f11eer ; 0.871367 ; DirectX::ColorsLinear::Honeydew
	DD	03f800000r			; 1
	DD	03f5f11eer			; 0.871367
	DD	03f800000r			; 1
CONST	ENDS
;	COMDAT ?GreenYellow@ColorsLinear@DirectX@@3UXMVECTORF32@2@B
CONST	SEGMENT
?GreenYellow@ColorsLinear@DirectX@@3UXMVECTORF32@2@B DD 03ed5f50br ; 0.417885 ; DirectX::ColorsLinear::GreenYellow
	DD	03f800000r			; 1
	DD	03ce8ddb9r			; 0.028426
	DD	03f800000r			; 1
CONST	ENDS
;	COMDAT ?Green@ColorsLinear@DirectX@@3UXMVECTORF32@2@B
CONST	SEGMENT
?Green@ColorsLinear@DirectX@@3UXMVECTORF32@2@B DD 000000000r ; 0 ; DirectX::ColorsLinear::Green
	DD	03e5d0a8br			; 0.215861
	DD	000000000r			; 0
	DD	03f800000r			; 1
CONST	ENDS
;	COMDAT ?Gray@ColorsLinear@DirectX@@3UXMVECTORF32@2@B
CONST	SEGMENT
?Gray@ColorsLinear@DirectX@@3UXMVECTORF32@2@B DD 03e5d0a8br ; 0.215861 ; DirectX::ColorsLinear::Gray
	DD	03e5d0a8br			; 0.215861
	DD	03e5d0a8br			; 0.215861
	DD	03f800000r			; 1
CONST	ENDS
;	COMDAT ?Goldenrod@ColorsLinear@DirectX@@3UXMVECTORF32@2@B
CONST	SEGMENT
?Goldenrod@ColorsLinear@DirectX@@3UXMVECTORF32@2@B DD 03f337b6er ; 0.701102 ; DirectX::ColorsLinear::Goldenrod
	DD	03ec0a571r			; 0.376262
	DD	03c6ca5dfr			; 0.0144438
	DD	03f800000r			; 1
CONST	ENDS
;	COMDAT ?Gold@ColorsLinear@DirectX@@3UXMVECTORF32@2@B
CONST	SEGMENT
?Gold@ColorsLinear@DirectX@@3UXMVECTORF32@2@B DD 03f800000r ; 1 ; DirectX::ColorsLinear::Gold
	DD	03f2df681r			; 0.679543
	DD	000000000r			; 0
	DD	03f800000r			; 1
CONST	ENDS
;	COMDAT ?GhostWhite@ColorsLinear@DirectX@@3UXMVECTORF32@2@B
CONST	SEGMENT
?GhostWhite@ColorsLinear@DirectX@@3UXMVECTORF32@2@B DD 03f704db8r ; 0.938686 ; DirectX::ColorsLinear::GhostWhite
	DD	03f704db8r			; 0.938686
	DD	03f800000r			; 1
	DD	03f800000r			; 1
CONST	ENDS
;	COMDAT ?Gainsboro@ColorsLinear@DirectX@@3UXMVECTORF32@2@B
CONST	SEGMENT
?Gainsboro@ColorsLinear@DirectX@@3UXMVECTORF32@2@B DD 03f3737b5r ; 0.715694 ; DirectX::ColorsLinear::Gainsboro
	DD	03f3737b5r			; 0.715694
	DD	03f3737b5r			; 0.715694
	DD	03f800000r			; 1
CONST	ENDS
;	COMDAT ?Fuchsia@ColorsLinear@DirectX@@3UXMVECTORF32@2@B
CONST	SEGMENT
?Fuchsia@ColorsLinear@DirectX@@3UXMVECTORF32@2@B DD 03f800000r ; 1 ; DirectX::ColorsLinear::Fuchsia
	DD	000000000r			; 0
	DD	03f800000r			; 1
	DD	03f800000r			; 1
CONST	ENDS
;	COMDAT ?ForestGreen@ColorsLinear@DirectX@@3UXMVECTORF32@2@B
CONST	SEGMENT
?ForestGreen@ColorsLinear@DirectX@@3UXMVECTORF32@2@B DD 03c830aa8r ; 0.0159963 ; DirectX::ColorsLinear::ForestGreen
	DD	03e84308dr			; 0.258183
	DD	03c830aa8r			; 0.0159963
	DD	03f800000r			; 1
CONST	ENDS
;	COMDAT ?FloralWhite@ColorsLinear@DirectX@@3UXMVECTORF32@2@B
CONST	SEGMENT
?FloralWhite@ColorsLinear@DirectX@@3UXMVECTORF32@2@B DD 03f800000r ; 1 ; DirectX::ColorsLinear::FloralWhite
	DD	03f74baaer			; 0.955974
	DD	03f5f11eer			; 0.871367
	DD	03f800000r			; 1
CONST	ENDS
;	COMDAT ?Firebrick@ColorsLinear@DirectX@@3UXMVECTORF32@2@B
CONST	SEGMENT
?Firebrick@ColorsLinear@DirectX@@3UXMVECTORF32@2@B DD 03ee3f16br ; 0.445201 ; DirectX::ColorsLinear::Firebrick
	DD	03c830aa8r			; 0.0159963
	DD	03c830aa8r			; 0.0159963
	DD	03f800000r			; 1
CONST	ENDS
;	COMDAT ?DodgerBlue@ColorsLinear@DirectX@@3UXMVECTORF32@2@B
CONST	SEGMENT
?DodgerBlue@ColorsLinear@DirectX@@3UXMVECTORF32@2@B DD 03c54b6c7r ; 0.012983 ; DirectX::ColorsLinear::DodgerBlue
	DD	03e8ecb3dr			; 0.278894
	DD	03f800000r			; 1
	DD	03f800000r			; 1
CONST	ENDS
;	COMDAT ?DimGray@ColorsLinear@DirectX@@3UXMVECTORF32@2@B
CONST	SEGMENT
?DimGray@ColorsLinear@DirectX@@3UXMVECTORF32@2@B DD 03e10a755r ; 0.141263 ; DirectX::ColorsLinear::DimGray
	DD	03e10a755r			; 0.141263
	DD	03e10a755r			; 0.141263
	DD	03f800000r			; 1
CONST	ENDS
;	COMDAT ?DeepSkyBlue@ColorsLinear@DirectX@@3UXMVECTORF32@2@B
CONST	SEGMENT
?DeepSkyBlue@ColorsLinear@DirectX@@3UXMVECTORF32@2@B DD 000000000r ; 0 ; DirectX::ColorsLinear::DeepSkyBlue
	DD	03f055ff9r			; 0.520996
	DD	03f800000r			; 1
	DD	03f800000r			; 1
CONST	ENDS
;	COMDAT ?DeepPink@ColorsLinear@DirectX@@3UXMVECTORF32@2@B
CONST	SEGMENT
?DeepPink@ColorsLinear@DirectX@@3UXMVECTORF32@2@B DD 03f800000r ; 1 ; DirectX::ColorsLinear::DeepPink
	DD	03be539c1r			; 0.00699541
	DD	03e9562f8r			; 0.291771
	DD	03f800000r			; 1
CONST	ENDS
;	COMDAT ?DarkViolet@ColorsLinear@DirectX@@3UXMVECTORF32@2@B
CONST	SEGMENT
?DarkViolet@ColorsLinear@DirectX@@3UXMVECTORF32@2@B DD 03e979f71r ; 0.296138 ; DirectX::ColorsLinear::DarkViolet
	DD	000000000r			; 0
	DD	03f26c288r			; 0.651406
	DD	03f800000r			; 1
CONST	ENDS
;	COMDAT ?DarkTurquoise@ColorsLinear@DirectX@@3UXMVECTORF32@2@B
CONST	SEGMENT
?DarkTurquoise@ColorsLinear@DirectX@@3UXMVECTORF32@2@B DD 000000000r ; 0 ; DirectX::ColorsLinear::DarkTurquoise
	DD	03f1e0143r			; 0.617207
	DD	03f23398fr			; 0.637597
	DD	03f800000r			; 1
CONST	ENDS
;	COMDAT ?DarkSlateGray@ColorsLinear@DirectX@@3UXMVECTORF32@2@B
CONST	SEGMENT
?DarkSlateGray@ColorsLinear@DirectX@@3UXMVECTORF32@2@B DD 03ce8ddb9r ; 0.028426 ; DirectX::ColorsLinear::DarkSlateGray
	DD	03da020bbr			; 0.0781874
	DD	03da020bbr			; 0.0781874
	DD	03f800000r			; 1
CONST	ENDS
;	COMDAT ?DarkSlateBlue@ColorsLinear@DirectX@@3UXMVECTORF32@2@B
CONST	SEGMENT
?DarkSlateBlue@ColorsLinear@DirectX@@3UXMVECTORF32@2@B DD 03d84b795r ; 0.0648033 ; DirectX::ColorsLinear::DarkSlateBlue
	DD	03d3f23e6r			; 0.0466651
	DD	03e84308dr			; 0.258183
	DD	03f800000r			; 1
CONST	ENDS
;	COMDAT ?DarkSeaGreen@ColorsLinear@DirectX@@3UXMVECTORF32@2@B
CONST	SEGMENT
?DarkSeaGreen@ColorsLinear@DirectX@@3UXMVECTORF32@2@B DD 03e8ca283r ; 0.274677 ; DirectX::ColorsLinear::DarkSeaGreen
	DD	03f00bd2dr			; 0.502887
	DD	03e84308dr			; 0.258183
	DD	03f800000r			; 1
CONST	ENDS
;	COMDAT ?DarkSalmon@ColorsLinear@DirectX@@3UXMVECTORF32@2@B
CONST	SEGMENT
?DarkSalmon@ColorsLinear@DirectX@@3UXMVECTORF32@2@B DD 03f5099cdr ; 0.814847 ; DirectX::ColorsLinear::DarkSalmon
	DD	03e9c274er			; 0.304987
	DD	03e4749e8r			; 0.194618
	DD	03f800000r			; 1
CONST	ENDS
;	COMDAT ?DarkRed@ColorsLinear@DirectX@@3UXMVECTORF32@2@B
CONST	SEGMENT
?DarkRed@ColorsLinear@DirectX@@3UXMVECTORF32@2@B DD 03e84308dr ; 0.258183 ; DirectX::ColorsLinear::DarkRed
	DD	000000000r			; 0
	DD	000000000r			; 0
	DD	03f800000r			; 1
CONST	ENDS
;	COMDAT ?DarkOrchid@ColorsLinear@DirectX@@3UXMVECTORF32@2@B
CONST	SEGMENT
?DarkOrchid@ColorsLinear@DirectX@@3UXMVECTORF32@2@B DD 03ea31892r ; 0.318547 ; DirectX::ColorsLinear::DarkOrchid
	DD	03d02a56cr			; 0.031896
	DD	03f1a9471r			; 0.603828
	DD	03f800000r			; 1
CONST	ENDS
;	COMDAT ?DarkOrange@ColorsLinear@DirectX@@3UXMVECTORF32@2@B
CONST	SEGMENT
?DarkOrange@ColorsLinear@DirectX@@3UXMVECTORF32@2@B DD 03f800000r ; 1 ; DirectX::ColorsLinear::DarkOrange
	DD	03e8645bar			; 0.262251
	DD	000000000r			; 0
	DD	03f800000r			; 1
CONST	ENDS
;	COMDAT ?DarkOliveGreen@ColorsLinear@DirectX@@3UXMVECTORF32@2@B
CONST	SEGMENT
?DarkOliveGreen@ColorsLinear@DirectX@@3UXMVECTORF32@2@B DD 03dba0b3br ; 0.0908417 ; DirectX::ColorsLinear::DarkOliveGreen
	DD	03e168e53r			; 0.147027
	DD	03ce8ddb9r			; 0.028426
	DD	03f800000r			; 1
CONST	ENDS
;	COMDAT ?DarkMagenta@ColorsLinear@DirectX@@3UXMVECTORF32@2@B
CONST	SEGMENT
?DarkMagenta@ColorsLinear@DirectX@@3UXMVECTORF32@2@B DD 03e84308dr ; 0.258183 ; DirectX::ColorsLinear::DarkMagenta
	DD	000000000r			; 0
	DD	03e84308dr			; 0.258183
	DD	03f800000r			; 1
CONST	ENDS
;	COMDAT ?DarkKhaki@ColorsLinear@DirectX@@3UXMVECTORF32@2@B
CONST	SEGMENT
?DarkKhaki@ColorsLinear@DirectX@@3UXMVECTORF32@2@B DD 03f02460er ; 0.508881 ; DirectX::ColorsLinear::DarkKhaki
	DD	03ef272bar			; 0.473532
	DD	03e168e53r			; 0.147027
	DD	03f800000r			; 1
CONST	ENDS
;	COMDAT ?DarkGreen@ColorsLinear@DirectX@@3UXMVECTORF32@2@B
CONST	SEGMENT
?DarkGreen@ColorsLinear@DirectX@@3UXMVECTORF32@2@B DD 000000000r ; 0 ; DirectX::ColorsLinear::DarkGreen
	DD	03e027f09r			; 0.127438
	DD	000000000r			; 0
	DD	03f800000r			; 1
CONST	ENDS
;	COMDAT ?DarkGray@ColorsLinear@DirectX@@3UXMVECTORF32@2@B
CONST	SEGMENT
?DarkGray@ColorsLinear@DirectX@@3UXMVECTORF32@2@B DD 03ecb2383r ; 0.396755 ; DirectX::ColorsLinear::DarkGray
	DD	03ecb2383r			; 0.396755
	DD	03ecb2383r			; 0.396755
	DD	03f800000r			; 1
CONST	ENDS
;	COMDAT ?DarkGoldenrod@ColorsLinear@DirectX@@3UXMVECTORF32@2@B
CONST	SEGMENT
?DarkGoldenrod@ColorsLinear@DirectX@@3UXMVECTORF32@2@B DD 03ef56976r ; 0.47932 ; DirectX::ColorsLinear::DarkGoldenrod
	DD	03e741e84r			; 0.238398
	DD	03b5b518fr			; 0.00334654
	DD	03f800000r			; 1
CONST	ENDS
;	COMDAT ?DarkCyan@ColorsLinear@DirectX@@3UXMVECTORF32@2@B
CONST	SEGMENT
?DarkCyan@ColorsLinear@DirectX@@3UXMVECTORF32@2@B DD 000000000r ; 0 ; DirectX::ColorsLinear::DarkCyan
	DD	03e84308dr			; 0.258183
	DD	03e84308dr			; 0.258183
	DD	03f800000r			; 1
CONST	ENDS
;	COMDAT ?DarkBlue@ColorsLinear@DirectX@@3UXMVECTORF32@2@B
CONST	SEGMENT
?DarkBlue@ColorsLinear@DirectX@@3UXMVECTORF32@2@B DD 000000000r ; 0 ; DirectX::ColorsLinear::DarkBlue
	DD	000000000r			; 0
	DD	03e84308dr			; 0.258183
	DD	03f800000r			; 1
CONST	ENDS
;	COMDAT ?Cyan@ColorsLinear@DirectX@@3UXMVECTORF32@2@B
CONST	SEGMENT
?Cyan@ColorsLinear@DirectX@@3UXMVECTORF32@2@B DD 000000000r ; 0 ; DirectX::ColorsLinear::Cyan
	DD	03f800000r			; 1
	DD	03f800000r			; 1
	DD	03f800000r			; 1
CONST	ENDS
;	COMDAT ?Crimson@ColorsLinear@DirectX@@3UXMVECTORF32@2@B
CONST	SEGMENT
?Crimson@ColorsLinear@DirectX@@3UXMVECTORF32@2@B DD 03f3737b5r ; 0.715694 ; DirectX::ColorsLinear::Crimson
	DD	03be539c1r			; 0.00699541
	DD	03d39152er			; 0.0451862
	DD	03f800000r			; 1
CONST	ENDS
;	COMDAT ?Cornsilk@ColorsLinear@DirectX@@3UXMVECTORF32@2@B
CONST	SEGMENT
?Cornsilk@ColorsLinear@DirectX@@3UXMVECTORF32@2@B DD 03f800000r ; 1 ; DirectX::ColorsLinear::Cornsilk
	DD	03f704db8r			; 0.938686
	DD	03f3737b5r			; 0.715694
	DD	03f800000r			; 1
CONST	ENDS
;	COMDAT ?CornflowerBlue@ColorsLinear@DirectX@@3UXMVECTORF32@2@B
CONST	SEGMENT
?CornflowerBlue@ColorsLinear@DirectX@@3UXMVECTORF32@2@B DD 03e027f09r ; 0.127438 ; DirectX::ColorsLinear::CornflowerBlue
	DD	03e99e0e2r			; 0.300544
	DD	03f58ccb3r			; 0.846873
	DD	03f800000r			; 1
CONST	ENDS
;	COMDAT ?Coral@ColorsLinear@DirectX@@3UXMVECTORF32@2@B
CONST	SEGMENT
?Coral@ColorsLinear@DirectX@@3UXMVECTORF32@2@B DD 03f800000r ; 1 ; DirectX::ColorsLinear::Coral
	DD	03e595307r			; 0.212231
	DD	03da44a4br			; 0.0802198
	DD	03f800000r			; 1
CONST	ENDS
;	COMDAT ?Chocolate@ColorsLinear@DirectX@@3UXMVECTORF32@2@B
CONST	SEGMENT
?Chocolate@ColorsLinear@DirectX@@3UXMVECTORF32@2@B DD 03f24fca2r ; 0.64448 ; DirectX::ColorsLinear::Chocolate
	DD	03e10a755r			; 0.141263
	DD	03c54b6c7r			; 0.012983
	DD	03f800000r			; 1
CONST	ENDS
;	COMDAT ?Chartreuse@ColorsLinear@DirectX@@3UXMVECTORF32@2@B
CONST	SEGMENT
?Chartreuse@ColorsLinear@DirectX@@3UXMVECTORF32@2@B DD 03e595307r ; 0.212231 ; DirectX::ColorsLinear::Chartreuse
	DD	03f800000r			; 1
	DD	000000000r			; 0
	DD	03f800000r			; 1
CONST	ENDS
;	COMDAT ?CadetBlue@ColorsLinear@DirectX@@3UXMVECTORF32@2@B
CONST	SEGMENT
?CadetBlue@ColorsLinear@DirectX@@3UXMVECTORF32@2@B DD 03dea5d19r ; 0.114435 ; DirectX::ColorsLinear::CadetBlue
	DD	03eaf0f69r			; 0.341914
	DD	03eb3fc18r			; 0.351533
	DD	03f800000r			; 1
CONST	ENDS
;	COMDAT ?BurlyWood@ColorsLinear@DirectX@@3UXMVECTORF32@2@B
CONST	SEGMENT
?BurlyWood@ColorsLinear@DirectX@@3UXMVECTORF32@2@B DD 03f3aff7er ; 0.730461 ; DirectX::ColorsLinear::BurlyWood
	DD	03ef56976r			; 0.47932
	DD	03e781890r			; 0.242281
	DD	03f800000r			; 1
CONST	ENDS
;	COMDAT ?Brown@ColorsLinear@DirectX@@3UXMVECTORF32@2@B
CONST	SEGMENT
?Brown@ColorsLinear@DirectX@@3UXMVECTORF32@2@B DD 03ec0a571r ; 0.376262 ; DirectX::ColorsLinear::Brown
	DD	03cbdac20r			; 0.0231534
	DD	03cbdac20r			; 0.0231534
	DD	03f800000r			; 1
CONST	ENDS
;	COMDAT ?BlueViolet@ColorsLinear@DirectX@@3UXMVECTORF32@2@B
CONST	SEGMENT
?BlueViolet@ColorsLinear@DirectX@@3UXMVECTORF32@2@B DD 03e82203cr ; 0.254152 ; DirectX::ColorsLinear::BlueViolet
	DD	03cc5e639r			; 0.0241576
	DD	03f42b1c0r			; 0.760525
	DD	03f800000r			; 1
CONST	ENDS
;	COMDAT ?Blue@ColorsLinear@DirectX@@3UXMVECTORF32@2@B
CONST	SEGMENT
?Blue@ColorsLinear@DirectX@@3UXMVECTORF32@2@B DD 000000000r ; 0 ; DirectX::ColorsLinear::Blue
	DD	000000000r			; 0
	DD	03f800000r			; 1
	DD	03f800000r			; 1
CONST	ENDS
;	COMDAT ?BlanchedAlmond@ColorsLinear@DirectX@@3UXMVECTORF32@2@B
CONST	SEGMENT
?BlanchedAlmond@ColorsLinear@DirectX@@3UXMVECTORF32@2@B DD 03f800000r ; 1 ; DirectX::ColorsLinear::BlanchedAlmond
	DD	03f54ad59r			; 0.83077
	DD	03f1c4973r			; 0.610496
	DD	03f800000r			; 1
CONST	ENDS
;	COMDAT ?Black@ColorsLinear@DirectX@@3UXMVECTORF32@2@B
CONST	SEGMENT
?Black@ColorsLinear@DirectX@@3UXMVECTORF32@2@B DD 000000000r ; 0 ; DirectX::ColorsLinear::Black
	DD	000000000r			; 0
	DD	000000000r			; 0
	DD	03f800000r			; 1
CONST	ENDS
;	COMDAT ?Bisque@ColorsLinear@DirectX@@3UXMVECTORF32@2@B
CONST	SEGMENT
?Bisque@ColorsLinear@DirectX@@3UXMVECTORF32@2@B DD 03f800000r ; 1 ; DirectX::ColorsLinear::Bisque
	DD	03f469c4dr			; 0.775822
	DD	03f0d50a2r			; 0.552012
	DD	03f800000r			; 1
CONST	ENDS
;	COMDAT ?Beige@ColorsLinear@DirectX@@3UXMVECTORF32@2@B
CONST	SEGMENT
?Beige@ColorsLinear@DirectX@@3UXMVECTORF32@2@B DD 03f69c0dbr ; 0.913099 ; DirectX::ColorsLinear::Beige
	DD	03f69c0dbr			; 0.913099
	DD	03f3737b5r			; 0.715694
	DD	03f800000r			; 1
CONST	ENDS
;	COMDAT ?Azure@ColorsLinear@DirectX@@3UXMVECTORF32@2@B
CONST	SEGMENT
?Azure@ColorsLinear@DirectX@@3UXMVECTORF32@2@B DD 03f5f11eer ; 0.871367 ; DirectX::ColorsLinear::Azure
	DD	03f800000r			; 1
	DD	03f800000r			; 1
	DD	03f800000r			; 1
CONST	ENDS
;	COMDAT ?Aquamarine@ColorsLinear@DirectX@@3UXMVECTORF32@2@B
CONST	SEGMENT
?Aquamarine@ColorsLinear@DirectX@@3UXMVECTORF32@2@B DD 03e595307r ; 0.212231 ; DirectX::ColorsLinear::Aquamarine
	DD	03f800000r			; 1
	DD	03f288b43r			; 0.658375
	DD	03f800000r			; 1
CONST	ENDS
;	COMDAT ?Aqua@ColorsLinear@DirectX@@3UXMVECTORF32@2@B
CONST	SEGMENT
?Aqua@ColorsLinear@DirectX@@3UXMVECTORF32@2@B DD 000000000r ; 0 ; DirectX::ColorsLinear::Aqua
	DD	03f800000r			; 1
	DD	03f800000r			; 1
	DD	03f800000r			; 1
CONST	ENDS
;	COMDAT ?AntiqueWhite@ColorsLinear@DirectX@@3UXMVECTORF32@2@B
CONST	SEGMENT
?AntiqueWhite@ColorsLinear@DirectX@@3UXMVECTORF32@2@B DD 03f74baaer ; 0.955974 ; DirectX::ColorsLinear::AntiqueWhite
	DD	03f54ad59r			; 0.83077
	DD	03f2df681r			; 0.679543
	DD	03f800000r			; 1
CONST	ENDS
;	COMDAT ?AliceBlue@ColorsLinear@DirectX@@3UXMVECTORF32@2@B
CONST	SEGMENT
?AliceBlue@ColorsLinear@DirectX@@3UXMVECTORF32@2@B DD 03f5f11eer ; 0.871367 ; DirectX::ColorsLinear::AliceBlue
	DD	03f704db8r			; 0.938686
	DD	03f800000r			; 1
	DD	03f800000r			; 1
CONST	ENDS
;	COMDAT ?YellowGreen@Colors@DirectX@@3UXMVECTORF32@2@B
CONST	SEGMENT
?YellowGreen@Colors@DirectX@@3UXMVECTORF32@2@B DD 03f1a9a9br ; 0.603922 ; DirectX::Colors::YellowGreen
	DD	03f4dcdcfr			; 0.803922
	DD	03e48c8car			; 0.196078
	DD	03f800000r			; 1
CONST	ENDS
;	COMDAT ?Yellow@Colors@DirectX@@3UXMVECTORF32@2@B
CONST	SEGMENT
?Yellow@Colors@DirectX@@3UXMVECTORF32@2@B DD 03f800000r ; 1 ; DirectX::Colors::Yellow
	DD	03f800000r			; 1
	DD	000000000r			; 0
	DD	03f800000r			; 1
CONST	ENDS
;	COMDAT ?WhiteSmoke@Colors@DirectX@@3UXMVECTORF32@2@B
CONST	SEGMENT
?WhiteSmoke@Colors@DirectX@@3UXMVECTORF32@2@B DD 03f75f5f7r ; 0.960784 ; DirectX::Colors::WhiteSmoke
	DD	03f75f5f7r			; 0.960784
	DD	03f75f5f7r			; 0.960784
	DD	03f800000r			; 1
CONST	ENDS
;	COMDAT ?White@Colors@DirectX@@3UXMVECTORF32@2@B
CONST	SEGMENT
?White@Colors@DirectX@@3UXMVECTORF32@2@B DD 03f800000r ; 1 ; DirectX::Colors::White
	DD	03f800000r			; 1
	DD	03f800000r			; 1
	DD	03f800000r			; 1
CONST	ENDS
;	COMDAT ?Wheat@Colors@DirectX@@3UXMVECTORF32@2@B
CONST	SEGMENT
?Wheat@Colors@DirectX@@3UXMVECTORF32@2@B DD 03f75f5f7r ; 0.960784 ; DirectX::Colors::Wheat
	DD	03f5edee0r			; 0.870588
	DD	03f33b3b4r			; 0.701961
	DD	03f800000r			; 1
CONST	ENDS
;	COMDAT ?Violet@Colors@DirectX@@3UXMVECTORF32@2@B
CONST	SEGMENT
?Violet@Colors@DirectX@@3UXMVECTORF32@2@B DD 03f6eeef0r ; 0.933333 ; DirectX::Colors::Violet
	DD	03f028283r			; 0.509804
	DD	03f6eeef0r			; 0.933333
	DD	03f800000r			; 1
CONST	ENDS
;	COMDAT ?Turquoise@Colors@DirectX@@3UXMVECTORF32@2@B
CONST	SEGMENT
?Turquoise@Colors@DirectX@@3UXMVECTORF32@2@B DD 03e808081r ; 0.25098 ; DirectX::Colors::Turquoise
	DD	03f60e0e2r			; 0.878431
	DD	03f50d0d2r			; 0.815686
	DD	03f800000r			; 1
CONST	ENDS
;	COMDAT ?Transparent@Colors@DirectX@@3UXMVECTORF32@2@B
CONST	SEGMENT
?Transparent@Colors@DirectX@@3UXMVECTORF32@2@B DD 000000000r ; 0 ; DirectX::Colors::Transparent
	DD	000000000r			; 0
	DD	000000000r			; 0
	DD	000000000r			; 0
CONST	ENDS
;	COMDAT ?Tomato@Colors@DirectX@@3UXMVECTORF32@2@B
CONST	SEGMENT
?Tomato@Colors@DirectX@@3UXMVECTORF32@2@B DD 03f800000r ; 1 ; DirectX::Colors::Tomato
	DD	03ec6c6c8r			; 0.388235
	DD	03e8e8e8fr			; 0.278431
	DD	03f800000r			; 1
CONST	ENDS
;	COMDAT ?Thistle@Colors@DirectX@@3UXMVECTORF32@2@B
CONST	SEGMENT
?Thistle@Colors@DirectX@@3UXMVECTORF32@2@B DD 03f58d8dar ; 0.847059 ; DirectX::Colors::Thistle
	DD	03f3fbfc0r			; 0.74902
	DD	03f58d8dar			; 0.847059
	DD	03f800000r			; 1
CONST	ENDS
;	COMDAT ?Teal@Colors@DirectX@@3UXMVECTORF32@2@B
CONST	SEGMENT
?Teal@Colors@DirectX@@3UXMVECTORF32@2@B DD 000000000r ; 0 ; DirectX::Colors::Teal
	DD	03f008081r			; 0.501961
	DD	03f008081r			; 0.501961
	DD	03f800000r			; 1
CONST	ENDS
;	COMDAT ?Tan@Colors@DirectX@@3UXMVECTORF32@2@B
CONST	SEGMENT
?Tan@Colors@DirectX@@3UXMVECTORF32@2@B DD 03f52d2d4r ; 0.823529 ; DirectX::Colors::Tan
	DD	03f34b4b5r			; 0.705882
	DD	03f0c8c8dr			; 0.54902
	DD	03f800000r			; 1
CONST	ENDS
;	COMDAT ?SteelBlue@Colors@DirectX@@3UXMVECTORF32@2@B
CONST	SEGMENT
?SteelBlue@Colors@DirectX@@3UXMVECTORF32@2@B DD 03e8c8c8dr ; 0.27451 ; DirectX::Colors::SteelBlue
	DD	03f028283r			; 0.509804
	DD	03f34b4b5r			; 0.705882
	DD	03f800000r			; 1
CONST	ENDS
;	COMDAT ?SpringGreen@Colors@DirectX@@3UXMVECTORF32@2@B
CONST	SEGMENT
?SpringGreen@Colors@DirectX@@3UXMVECTORF32@2@B DD 000000000r ; 0 ; DirectX::Colors::SpringGreen
	DD	03f800000r			; 1
	DD	03efeff00r			; 0.498039
	DD	03f800000r			; 1
CONST	ENDS
;	COMDAT ?Snow@Colors@DirectX@@3UXMVECTORF32@2@B
CONST	SEGMENT
?Snow@Colors@DirectX@@3UXMVECTORF32@2@B DD 03f800000r ; 1 ; DirectX::Colors::Snow
	DD	03f7afafcr			; 0.980392
	DD	03f7afafcr			; 0.980392
	DD	03f800000r			; 1
CONST	ENDS
;	COMDAT ?SlateGray@Colors@DirectX@@3UXMVECTORF32@2@B
CONST	SEGMENT
?SlateGray@Colors@DirectX@@3UXMVECTORF32@2@B DD 03ee0e0e2r ; 0.439216 ; DirectX::Colors::SlateGray
	DD	03f008081r			; 0.501961
	DD	03f109091r			; 0.564706
	DD	03f800000r			; 1
CONST	ENDS
;	COMDAT ?SlateBlue@Colors@DirectX@@3UXMVECTORF32@2@B
CONST	SEGMENT
?SlateBlue@Colors@DirectX@@3UXMVECTORF32@2@B DD 03ed4d4d6r ; 0.415686 ; DirectX::Colors::SlateBlue
	DD	03eb4b4b5r			; 0.352941
	DD	03f4dcdcfr			; 0.803922
	DD	03f800000r			; 1
CONST	ENDS
;	COMDAT ?SkyBlue@Colors@DirectX@@3UXMVECTORF32@2@B
CONST	SEGMENT
?SkyBlue@Colors@DirectX@@3UXMVECTORF32@2@B DD 03f078788r ; 0.529412 ; DirectX::Colors::SkyBlue
	DD	03f4eced0r			; 0.807843
	DD	03f6bebedr			; 0.921569
	DD	03f800000r			; 1
CONST	ENDS
;	COMDAT ?Silver@Colors@DirectX@@3UXMVECTORF32@2@B
CONST	SEGMENT
?Silver@Colors@DirectX@@3UXMVECTORF32@2@B DD 03f40c0c2r ; 0.752941 ; DirectX::Colors::Silver
	DD	03f40c0c2r			; 0.752941
	DD	03f40c0c2r			; 0.752941
	DD	03f800000r			; 1
CONST	ENDS
;	COMDAT ?Sienna@Colors@DirectX@@3UXMVECTORF32@2@B
CONST	SEGMENT
?Sienna@Colors@DirectX@@3UXMVECTORF32@2@B DD 03f20a0a1r ; 0.627451 ; DirectX::Colors::Sienna
	DD	03ea4a4a5r			; 0.321569
	DD	03e34b4b5r			; 0.176471
	DD	03f800000r			; 1
CONST	ENDS
;	COMDAT ?SeaShell@Colors@DirectX@@3UXMVECTORF32@2@B
CONST	SEGMENT
?SeaShell@Colors@DirectX@@3UXMVECTORF32@2@B DD 03f800000r ; 1 ; DirectX::Colors::SeaShell
	DD	03f75f5f7r			; 0.960784
	DD	03f6eeef0r			; 0.933333
	DD	03f800000r			; 1
CONST	ENDS
;	COMDAT ?SeaGreen@Colors@DirectX@@3UXMVECTORF32@2@B
CONST	SEGMENT
?SeaGreen@Colors@DirectX@@3UXMVECTORF32@2@B DD 03e38b8b9r ; 0.180392 ; DirectX::Colors::SeaGreen
	DD	03f0b8b8cr			; 0.545098
	DD	03eaeaeafr			; 0.341176
	DD	03f800000r			; 1
CONST	ENDS
;	COMDAT ?SandyBrown@Colors@DirectX@@3UXMVECTORF32@2@B
CONST	SEGMENT
?SandyBrown@Colors@DirectX@@3UXMVECTORF32@2@B DD 03f74f4f6r ; 0.956863 ; DirectX::Colors::SandyBrown
	DD	03f24a4a5r			; 0.643137
	DD	03ec0c0c2r			; 0.376471
	DD	03f800000r			; 1
CONST	ENDS
;	COMDAT ?Salmon@Colors@DirectX@@3UXMVECTORF32@2@B
CONST	SEGMENT
?Salmon@Colors@DirectX@@3UXMVECTORF32@2@B DD 03f7afafcr ; 0.980392 ; DirectX::Colors::Salmon
	DD	03f008081r			; 0.501961
	DD	03ee4e4e6r			; 0.447059
	DD	03f800000r			; 1
CONST	ENDS
;	COMDAT ?SaddleBrown@Colors@DirectX@@3UXMVECTORF32@2@B
CONST	SEGMENT
?SaddleBrown@Colors@DirectX@@3UXMVECTORF32@2@B DD 03f0b8b8cr ; 0.545098 ; DirectX::Colors::SaddleBrown
	DD	03e8a8a8br			; 0.270588
	DD	03d989899r			; 0.0745098
	DD	03f800000r			; 1
CONST	ENDS
;	COMDAT ?RoyalBlue@Colors@DirectX@@3UXMVECTORF32@2@B
CONST	SEGMENT
?RoyalBlue@Colors@DirectX@@3UXMVECTORF32@2@B DD 03e828283r ; 0.254902 ; DirectX::Colors::RoyalBlue
	DD	03ed2d2d4r			; 0.411765
	DD	03f61e1e3r			; 0.882353
	DD	03f800000r			; 1
CONST	ENDS
;	COMDAT ?RosyBrown@Colors@DirectX@@3UXMVECTORF32@2@B
CONST	SEGMENT
?RosyBrown@Colors@DirectX@@3UXMVECTORF32@2@B DD 03f3cbcbdr ; 0.737255 ; DirectX::Colors::RosyBrown
	DD	03f0f8f90r			; 0.560784
	DD	03f0f8f90r			; 0.560784
	DD	03f800000r			; 1
CONST	ENDS
;	COMDAT ?Red@Colors@DirectX@@3UXMVECTORF32@2@B
CONST	SEGMENT
?Red@Colors@DirectX@@3UXMVECTORF32@2@B DD 03f800000r ; 1 ; DirectX::Colors::Red
	DD	000000000r			; 0
	DD	000000000r			; 0
	DD	03f800000r			; 1
CONST	ENDS
;	COMDAT ?Purple@Colors@DirectX@@3UXMVECTORF32@2@B
CONST	SEGMENT
?Purple@Colors@DirectX@@3UXMVECTORF32@2@B DD 03f008081r ; 0.501961 ; DirectX::Colors::Purple
	DD	000000000r			; 0
	DD	03f008081r			; 0.501961
	DD	03f800000r			; 1
CONST	ENDS
;	COMDAT ?PowderBlue@Colors@DirectX@@3UXMVECTORF32@2@B
CONST	SEGMENT
?PowderBlue@Colors@DirectX@@3UXMVECTORF32@2@B DD 03f30b0b1r ; 0.690196 ; DirectX::Colors::PowderBlue
	DD	03f60e0e2r			; 0.878431
	DD	03f66e6e8r			; 0.901961
	DD	03f800000r			; 1
CONST	ENDS
;	COMDAT ?Plum@Colors@DirectX@@3UXMVECTORF32@2@B
CONST	SEGMENT
?Plum@Colors@DirectX@@3UXMVECTORF32@2@B DD 03f5ddddfr ; 0.866667 ; DirectX::Colors::Plum
	DD	03f20a0a1r			; 0.627451
	DD	03f5ddddfr			; 0.866667
	DD	03f800000r			; 1
CONST	ENDS
;	COMDAT ?Pink@Colors@DirectX@@3UXMVECTORF32@2@B
CONST	SEGMENT
?Pink@Colors@DirectX@@3UXMVECTORF32@2@B DD 03f800000r ; 1 ; DirectX::Colors::Pink
	DD	03f40c0c2r			; 0.752941
	DD	03f4bcbcdr			; 0.796079
	DD	03f800000r			; 1
CONST	ENDS
;	COMDAT ?Peru@Colors@DirectX@@3UXMVECTORF32@2@B
CONST	SEGMENT
?Peru@Colors@DirectX@@3UXMVECTORF32@2@B DD 03f4dcdcfr ; 0.803922 ; DirectX::Colors::Peru
	DD	03f058586r			; 0.521569
	DD	03e7cfcfer			; 0.247059
	DD	03f800000r			; 1
CONST	ENDS
;	COMDAT ?PeachPuff@Colors@DirectX@@3UXMVECTORF32@2@B
CONST	SEGMENT
?PeachPuff@Colors@DirectX@@3UXMVECTORF32@2@B DD 03f800000r ; 1 ; DirectX::Colors::PeachPuff
	DD	03f5adadcr			; 0.854902
	DD	03f39b9bar			; 0.72549
	DD	03f800000r			; 1
CONST	ENDS
;	COMDAT ?PapayaWhip@Colors@DirectX@@3UXMVECTORF32@2@B
CONST	SEGMENT
?PapayaWhip@Colors@DirectX@@3UXMVECTORF32@2@B DD 03f800000r ; 1 ; DirectX::Colors::PapayaWhip
	DD	03f6feff1r			; 0.937255
	DD	03f55d5d7r			; 0.835294
	DD	03f800000r			; 1
CONST	ENDS
;	COMDAT ?PaleVioletRed@Colors@DirectX@@3UXMVECTORF32@2@B
CONST	SEGMENT
?PaleVioletRed@Colors@DirectX@@3UXMVECTORF32@2@B DD 03f5bdbddr ; 0.858824 ; DirectX::Colors::PaleVioletRed
	DD	03ee0e0e2r			; 0.439216
	DD	03f139394r			; 0.576471
	DD	03f800000r			; 1
CONST	ENDS
;	COMDAT ?PaleTurquoise@Colors@DirectX@@3UXMVECTORF32@2@B
CONST	SEGMENT
?PaleTurquoise@Colors@DirectX@@3UXMVECTORF32@2@B DD 03f2fafb0r ; 0.686275 ; DirectX::Colors::PaleTurquoise
	DD	03f6eeef0r			; 0.933333
	DD	03f6eeef0r			; 0.933333
	DD	03f800000r			; 1
CONST	ENDS
;	COMDAT ?PaleGreen@Colors@DirectX@@3UXMVECTORF32@2@B
CONST	SEGMENT
?PaleGreen@Colors@DirectX@@3UXMVECTORF32@2@B DD 03f189899r ; 0.596078 ; DirectX::Colors::PaleGreen
	DD	03f7bfbfdr			; 0.984314
	DD	03f189899r			; 0.596078
	DD	03f800000r			; 1
CONST	ENDS
;	COMDAT ?PaleGoldenrod@Colors@DirectX@@3UXMVECTORF32@2@B
CONST	SEGMENT
?PaleGoldenrod@Colors@DirectX@@3UXMVECTORF32@2@B DD 03f6eeef0r ; 0.933333 ; DirectX::Colors::PaleGoldenrod
	DD	03f68e8ear			; 0.909804
	DD	03f2aaaabr			; 0.666667
	DD	03f800000r			; 1
CONST	ENDS
;	COMDAT ?Orchid@Colors@DirectX@@3UXMVECTORF32@2@B
CONST	SEGMENT
?Orchid@Colors@DirectX@@3UXMVECTORF32@2@B DD 03f5adadcr ; 0.854902 ; DirectX::Colors::Orchid
	DD	03ee0e0e2r			; 0.439216
	DD	03f56d6d8r			; 0.839216
	DD	03f800000r			; 1
CONST	ENDS
;	COMDAT ?OrangeRed@Colors@DirectX@@3UXMVECTORF32@2@B
CONST	SEGMENT
?OrangeRed@Colors@DirectX@@3UXMVECTORF32@2@B DD 03f800000r ; 1 ; DirectX::Colors::OrangeRed
	DD	03e8a8a8br			; 0.270588
	DD	000000000r			; 0
	DD	03f800000r			; 1
CONST	ENDS
;	COMDAT ?Orange@Colors@DirectX@@3UXMVECTORF32@2@B
CONST	SEGMENT
?Orange@Colors@DirectX@@3UXMVECTORF32@2@B DD 03f800000r ; 1 ; DirectX::Colors::Orange
	DD	03f25a5a6r			; 0.647059
	DD	000000000r			; 0
	DD	03f800000r			; 1
CONST	ENDS
;	COMDAT ?OliveDrab@Colors@DirectX@@3UXMVECTORF32@2@B
CONST	SEGMENT
?OliveDrab@Colors@DirectX@@3UXMVECTORF32@2@B DD 03ed6d6d8r ; 0.419608 ; DirectX::Colors::OliveDrab
	DD	03f0e8e8fr			; 0.556863
	DD	03e0c8c8dr			; 0.137255
	DD	03f800000r			; 1
CONST	ENDS
;	COMDAT ?Olive@Colors@DirectX@@3UXMVECTORF32@2@B
CONST	SEGMENT
?Olive@Colors@DirectX@@3UXMVECTORF32@2@B DD 03f008081r ; 0.501961 ; DirectX::Colors::Olive
	DD	03f008081r			; 0.501961
	DD	000000000r			; 0
	DD	03f800000r			; 1
CONST	ENDS
;	COMDAT ?OldLace@Colors@DirectX@@3UXMVECTORF32@2@B
CONST	SEGMENT
?OldLace@Colors@DirectX@@3UXMVECTORF32@2@B DD 03f7dfdffr ; 0.992157 ; DirectX::Colors::OldLace
	DD	03f75f5f7r			; 0.960784
	DD	03f66e6e8r			; 0.901961
	DD	03f800000r			; 1
CONST	ENDS
;	COMDAT ?Navy@Colors@DirectX@@3UXMVECTORF32@2@B
CONST	SEGMENT
?Navy@Colors@DirectX@@3UXMVECTORF32@2@B DD 000000000r ; 0 ; DirectX::Colors::Navy
	DD	000000000r			; 0
	DD	03f008081r			; 0.501961
	DD	03f800000r			; 1
CONST	ENDS
;	COMDAT ?NavajoWhite@Colors@DirectX@@3UXMVECTORF32@2@B
CONST	SEGMENT
?NavajoWhite@Colors@DirectX@@3UXMVECTORF32@2@B DD 03f800000r ; 1 ; DirectX::Colors::NavajoWhite
	DD	03f5edee0r			; 0.870588
	DD	03f2dadaer			; 0.678431
	DD	03f800000r			; 1
CONST	ENDS
;	COMDAT ?Moccasin@Colors@DirectX@@3UXMVECTORF32@2@B
CONST	SEGMENT
?Moccasin@Colors@DirectX@@3UXMVECTORF32@2@B DD 03f800000r ; 1 ; DirectX::Colors::Moccasin
	DD	03f64e4e6r			; 0.894118
	DD	03f35b5b6r			; 0.709804
	DD	03f800000r			; 1
CONST	ENDS
;	COMDAT ?MistyRose@Colors@DirectX@@3UXMVECTORF32@2@B
CONST	SEGMENT
?MistyRose@Colors@DirectX@@3UXMVECTORF32@2@B DD 03f800000r ; 1 ; DirectX::Colors::MistyRose
	DD	03f64e4e6r			; 0.894118
	DD	03f61e1e3r			; 0.882353
	DD	03f800000r			; 1
CONST	ENDS
;	COMDAT ?MintCream@Colors@DirectX@@3UXMVECTORF32@2@B
CONST	SEGMENT
?MintCream@Colors@DirectX@@3UXMVECTORF32@2@B DD 03f75f5f7r ; 0.960784 ; DirectX::Colors::MintCream
	DD	03f800000r			; 1
	DD	03f7afafcr			; 0.980392
	DD	03f800000r			; 1
CONST	ENDS
;	COMDAT ?MidnightBlue@Colors@DirectX@@3UXMVECTORF32@2@B
CONST	SEGMENT
?MidnightBlue@Colors@DirectX@@3UXMVECTORF32@2@B DD 03dc8c8car ; 0.0980392 ; DirectX::Colors::MidnightBlue
	DD	03dc8c8car			; 0.0980392
	DD	03ee0e0e2r			; 0.439216
	DD	03f800000r			; 1
CONST	ENDS
;	COMDAT ?MediumVioletRed@Colors@DirectX@@3UXMVECTORF32@2@B
CONST	SEGMENT
?MediumVioletRed@Colors@DirectX@@3UXMVECTORF32@2@B DD 03f47c7c9r ; 0.780392 ; DirectX::Colors::MediumVioletRed
	DD	03da8a8a9r			; 0.0823529
	DD	03f058586r			; 0.521569
	DD	03f800000r			; 1
CONST	ENDS
;	COMDAT ?MediumTurquoise@Colors@DirectX@@3UXMVECTORF32@2@B
CONST	SEGMENT
?MediumTurquoise@Colors@DirectX@@3UXMVECTORF32@2@B DD 03e909091r ; 0.282353 ; DirectX::Colors::MediumTurquoise
	DD	03f51d1d3r			; 0.819608
	DD	03f4ccccer			; 0.8
	DD	03f800000r			; 1
CONST	ENDS
;	COMDAT ?MediumSpringGreen@Colors@DirectX@@3UXMVECTORF32@2@B
CONST	SEGMENT
?MediumSpringGreen@Colors@DirectX@@3UXMVECTORF32@2@B DD 000000000r ; 0 ; DirectX::Colors::MediumSpringGreen
	DD	03f7afafcr			; 0.980392
	DD	03f1a9a9br			; 0.603922
	DD	03f800000r			; 1
CONST	ENDS
;	COMDAT ?MediumSlateBlue@Colors@DirectX@@3UXMVECTORF32@2@B
CONST	SEGMENT
?MediumSlateBlue@Colors@DirectX@@3UXMVECTORF32@2@B DD 03ef6f6f8r ; 0.482353 ; DirectX::Colors::MediumSlateBlue
	DD	03ed0d0d2r			; 0.407843
	DD	03f6eeef0r			; 0.933333
	DD	03f800000r			; 1
CONST	ENDS
;	COMDAT ?MediumSeaGreen@Colors@DirectX@@3UXMVECTORF32@2@B
CONST	SEGMENT
?MediumSeaGreen@Colors@DirectX@@3UXMVECTORF32@2@B DD 03e70f0f2r ; 0.235294 ; DirectX::Colors::MediumSeaGreen
	DD	03f33b3b4r			; 0.701961
	DD	03ee2e2e4r			; 0.443137
	DD	03f800000r			; 1
CONST	ENDS
;	COMDAT ?MediumPurple@Colors@DirectX@@3UXMVECTORF32@2@B
CONST	SEGMENT
?MediumPurple@Colors@DirectX@@3UXMVECTORF32@2@B DD 03f139394r ; 0.576471 ; DirectX::Colors::MediumPurple
	DD	03ee0e0e2r			; 0.439216
	DD	03f5bdbddr			; 0.858824
	DD	03f800000r			; 1
CONST	ENDS
;	COMDAT ?MediumOrchid@Colors@DirectX@@3UXMVECTORF32@2@B
CONST	SEGMENT
?MediumOrchid@Colors@DirectX@@3UXMVECTORF32@2@B DD 03f3ababbr ; 0.729412 ; DirectX::Colors::MediumOrchid
	DD	03eaaaaabr			; 0.333333
	DD	03f53d3d5r			; 0.827451
	DD	03f800000r			; 1
CONST	ENDS
;	COMDAT ?MediumBlue@Colors@DirectX@@3UXMVECTORF32@2@B
CONST	SEGMENT
?MediumBlue@Colors@DirectX@@3UXMVECTORF32@2@B DD 000000000r ; 0 ; DirectX::Colors::MediumBlue
	DD	000000000r			; 0
	DD	03f4dcdcfr			; 0.803922
	DD	03f800000r			; 1
CONST	ENDS
;	COMDAT ?MediumAquamarine@Colors@DirectX@@3UXMVECTORF32@2@B
CONST	SEGMENT
?MediumAquamarine@Colors@DirectX@@3UXMVECTORF32@2@B DD 03ecccccer ; 0.4 ; DirectX::Colors::MediumAquamarine
	DD	03f4dcdcfr			; 0.803922
	DD	03f2aaaabr			; 0.666667
	DD	03f800000r			; 1
CONST	ENDS
;	COMDAT ?Maroon@Colors@DirectX@@3UXMVECTORF32@2@B
CONST	SEGMENT
?Maroon@Colors@DirectX@@3UXMVECTORF32@2@B DD 03f008081r ; 0.501961 ; DirectX::Colors::Maroon
	DD	000000000r			; 0
	DD	000000000r			; 0
	DD	03f800000r			; 1
CONST	ENDS
;	COMDAT ?Magenta@Colors@DirectX@@3UXMVECTORF32@2@B
CONST	SEGMENT
?Magenta@Colors@DirectX@@3UXMVECTORF32@2@B DD 03f800000r ; 1 ; DirectX::Colors::Magenta
	DD	000000000r			; 0
	DD	03f800000r			; 1
	DD	03f800000r			; 1
CONST	ENDS
;	COMDAT ?Linen@Colors@DirectX@@3UXMVECTORF32@2@B
CONST	SEGMENT
?Linen@Colors@DirectX@@3UXMVECTORF32@2@B DD 03f7afafcr ; 0.980392 ; DirectX::Colors::Linen
	DD	03f70f0f2r			; 0.941177
	DD	03f66e6e8r			; 0.901961
	DD	03f800000r			; 1
CONST	ENDS
;	COMDAT ?LimeGreen@Colors@DirectX@@3UXMVECTORF32@2@B
CONST	SEGMENT
?LimeGreen@Colors@DirectX@@3UXMVECTORF32@2@B DD 03e48c8car ; 0.196078 ; DirectX::Colors::LimeGreen
	DD	03f4dcdcfr			; 0.803922
	DD	03e48c8car			; 0.196078
	DD	03f800000r			; 1
CONST	ENDS
;	COMDAT ?Lime@Colors@DirectX@@3UXMVECTORF32@2@B
CONST	SEGMENT
?Lime@Colors@DirectX@@3UXMVECTORF32@2@B DD 000000000r ; 0 ; DirectX::Colors::Lime
	DD	03f800000r			; 1
	DD	000000000r			; 0
	DD	03f800000r			; 1
CONST	ENDS
;	COMDAT ?LightYellow@Colors@DirectX@@3UXMVECTORF32@2@B
CONST	SEGMENT
?LightYellow@Colors@DirectX@@3UXMVECTORF32@2@B DD 03f800000r ; 1 ; DirectX::Colors::LightYellow
	DD	03f800000r			; 1
	DD	03f60e0e2r			; 0.878431
	DD	03f800000r			; 1
CONST	ENDS
;	COMDAT ?LightSteelBlue@Colors@DirectX@@3UXMVECTORF32@2@B
CONST	SEGMENT
?LightSteelBlue@Colors@DirectX@@3UXMVECTORF32@2@B DD 03f30b0b1r ; 0.690196 ; DirectX::Colors::LightSteelBlue
	DD	03f44c4c6r			; 0.768628
	DD	03f5edee0r			; 0.870588
	DD	03f800000r			; 1
CONST	ENDS
;	COMDAT ?LightSlateGray@Colors@DirectX@@3UXMVECTORF32@2@B
CONST	SEGMENT
?LightSlateGray@Colors@DirectX@@3UXMVECTORF32@2@B DD 03eeeeef0r ; 0.466667 ; DirectX::Colors::LightSlateGray
	DD	03f088889r			; 0.533333
	DD	03f19999ar			; 0.6
	DD	03f800000r			; 1
CONST	ENDS
;	COMDAT ?LightSkyBlue@Colors@DirectX@@3UXMVECTORF32@2@B
CONST	SEGMENT
?LightSkyBlue@Colors@DirectX@@3UXMVECTORF32@2@B DD 03f078788r ; 0.529412 ; DirectX::Colors::LightSkyBlue
	DD	03f4eced0r			; 0.807843
	DD	03f7afafcr			; 0.980392
	DD	03f800000r			; 1
CONST	ENDS
;	COMDAT ?LightSeaGreen@Colors@DirectX@@3UXMVECTORF32@2@B
CONST	SEGMENT
?LightSeaGreen@Colors@DirectX@@3UXMVECTORF32@2@B DD 03e008081r ; 0.12549 ; DirectX::Colors::LightSeaGreen
	DD	03f32b2b3r			; 0.698039
	DD	03f2aaaabr			; 0.666667
	DD	03f800000r			; 1
CONST	ENDS
;	COMDAT ?LightSalmon@Colors@DirectX@@3UXMVECTORF32@2@B
CONST	SEGMENT
?LightSalmon@Colors@DirectX@@3UXMVECTORF32@2@B DD 03f800000r ; 1 ; DirectX::Colors::LightSalmon
	DD	03f20a0a1r			; 0.627451
	DD	03ef4f4f6r			; 0.478431
	DD	03f800000r			; 1
CONST	ENDS
;	COMDAT ?LightPink@Colors@DirectX@@3UXMVECTORF32@2@B
CONST	SEGMENT
?LightPink@Colors@DirectX@@3UXMVECTORF32@2@B DD 03f800000r ; 1 ; DirectX::Colors::LightPink
	DD	03f36b6b7r			; 0.713726
	DD	03f41c1c3r			; 0.756863
	DD	03f800000r			; 1
CONST	ENDS
;	COMDAT ?LightGreen@Colors@DirectX@@3UXMVECTORF32@2@B
CONST	SEGMENT
?LightGreen@Colors@DirectX@@3UXMVECTORF32@2@B DD 03f109091r ; 0.564706 ; DirectX::Colors::LightGreen
	DD	03f6eeef0r			; 0.933333
	DD	03f109091r			; 0.564706
	DD	03f800000r			; 1
CONST	ENDS
;	COMDAT ?LightGray@Colors@DirectX@@3UXMVECTORF32@2@B
CONST	SEGMENT
?LightGray@Colors@DirectX@@3UXMVECTORF32@2@B DD 03f53d3d5r ; 0.827451 ; DirectX::Colors::LightGray
	DD	03f53d3d5r			; 0.827451
	DD	03f53d3d5r			; 0.827451
	DD	03f800000r			; 1
CONST	ENDS
;	COMDAT ?LightGoldenrodYellow@Colors@DirectX@@3UXMVECTORF32@2@B
CONST	SEGMENT
?LightGoldenrodYellow@Colors@DirectX@@3UXMVECTORF32@2@B DD 03f7afafcr ; 0.980392 ; DirectX::Colors::LightGoldenrodYellow
	DD	03f7afafcr			; 0.980392
	DD	03f52d2d4r			; 0.823529
	DD	03f800000r			; 1
CONST	ENDS
;	COMDAT ?LightCyan@Colors@DirectX@@3UXMVECTORF32@2@B
CONST	SEGMENT
?LightCyan@Colors@DirectX@@3UXMVECTORF32@2@B DD 03f60e0e2r ; 0.878431 ; DirectX::Colors::LightCyan
	DD	03f800000r			; 1
	DD	03f800000r			; 1
	DD	03f800000r			; 1
CONST	ENDS
;	COMDAT ?LightCoral@Colors@DirectX@@3UXMVECTORF32@2@B
CONST	SEGMENT
?LightCoral@Colors@DirectX@@3UXMVECTORF32@2@B DD 03f70f0f2r ; 0.941177 ; DirectX::Colors::LightCoral
	DD	03f008081r			; 0.501961
	DD	03f008081r			; 0.501961
	DD	03f800000r			; 1
CONST	ENDS
;	COMDAT ?LightBlue@Colors@DirectX@@3UXMVECTORF32@2@B
CONST	SEGMENT
?LightBlue@Colors@DirectX@@3UXMVECTORF32@2@B DD 03f2dadaer ; 0.678431 ; DirectX::Colors::LightBlue
	DD	03f58d8dar			; 0.847059
	DD	03f66e6e8r			; 0.901961
	DD	03f800000r			; 1
CONST	ENDS
;	COMDAT ?LemonChiffon@Colors@DirectX@@3UXMVECTORF32@2@B
CONST	SEGMENT
?LemonChiffon@Colors@DirectX@@3UXMVECTORF32@2@B DD 03f800000r ; 1 ; DirectX::Colors::LemonChiffon
	DD	03f7afafcr			; 0.980392
	DD	03f4dcdcfr			; 0.803922
	DD	03f800000r			; 1
CONST	ENDS
;	COMDAT ?LawnGreen@Colors@DirectX@@3UXMVECTORF32@2@B
CONST	SEGMENT
?LawnGreen@Colors@DirectX@@3UXMVECTORF32@2@B DD 03ef8f8far ; 0.486275 ; DirectX::Colors::LawnGreen
	DD	03f7cfcfer			; 0.988235
	DD	000000000r			; 0
	DD	03f800000r			; 1
CONST	ENDS
;	COMDAT ?LavenderBlush@Colors@DirectX@@3UXMVECTORF32@2@B
CONST	SEGMENT
?LavenderBlush@Colors@DirectX@@3UXMVECTORF32@2@B DD 03f800000r ; 1 ; DirectX::Colors::LavenderBlush
	DD	03f70f0f2r			; 0.941177
	DD	03f75f5f7r			; 0.960784
	DD	03f800000r			; 1
CONST	ENDS
;	COMDAT ?Lavender@Colors@DirectX@@3UXMVECTORF32@2@B
CONST	SEGMENT
?Lavender@Colors@DirectX@@3UXMVECTORF32@2@B DD 03f66e6e8r ; 0.901961 ; DirectX::Colors::Lavender
	DD	03f66e6e8r			; 0.901961
	DD	03f7afafcr			; 0.980392
	DD	03f800000r			; 1
CONST	ENDS
;	COMDAT ?Khaki@Colors@DirectX@@3UXMVECTORF32@2@B
CONST	SEGMENT
?Khaki@Colors@DirectX@@3UXMVECTORF32@2@B DD 03f70f0f2r ; 0.941177 ; DirectX::Colors::Khaki
	DD	03f66e6e8r			; 0.901961
	DD	03f0c8c8dr			; 0.54902
	DD	03f800000r			; 1
CONST	ENDS
;	COMDAT ?Ivory@Colors@DirectX@@3UXMVECTORF32@2@B
CONST	SEGMENT
?Ivory@Colors@DirectX@@3UXMVECTORF32@2@B DD 03f800000r ; 1 ; DirectX::Colors::Ivory
	DD	03f800000r			; 1
	DD	03f70f0f2r			; 0.941177
	DD	03f800000r			; 1
CONST	ENDS
;	COMDAT ?Indigo@Colors@DirectX@@3UXMVECTORF32@2@B
CONST	SEGMENT
?Indigo@Colors@DirectX@@3UXMVECTORF32@2@B DD 03e969697r ; 0.294118 ; DirectX::Colors::Indigo
	DD	000000000r			; 0
	DD	03f028283r			; 0.509804
	DD	03f800000r			; 1
CONST	ENDS
;	COMDAT ?IndianRed@Colors@DirectX@@3UXMVECTORF32@2@B
CONST	SEGMENT
?IndianRed@Colors@DirectX@@3UXMVECTORF32@2@B DD 03f4dcdcfr ; 0.803922 ; DirectX::Colors::IndianRed
	DD	03eb8b8b9r			; 0.360784
	DD	03eb8b8b9r			; 0.360784
	DD	03f800000r			; 1
CONST	ENDS
;	COMDAT ?HotPink@Colors@DirectX@@3UXMVECTORF32@2@B
CONST	SEGMENT
?HotPink@Colors@DirectX@@3UXMVECTORF32@2@B DD 03f800000r ; 1 ; DirectX::Colors::HotPink
	DD	03ed2d2d4r			; 0.411765
	DD	03f34b4b5r			; 0.705882
	DD	03f800000r			; 1
CONST	ENDS
;	COMDAT ?Honeydew@Colors@DirectX@@3UXMVECTORF32@2@B
CONST	SEGMENT
?Honeydew@Colors@DirectX@@3UXMVECTORF32@2@B DD 03f70f0f2r ; 0.941177 ; DirectX::Colors::Honeydew
	DD	03f800000r			; 1
	DD	03f70f0f2r			; 0.941177
	DD	03f800000r			; 1
CONST	ENDS
;	COMDAT ?GreenYellow@Colors@DirectX@@3UXMVECTORF32@2@B
CONST	SEGMENT
?GreenYellow@Colors@DirectX@@3UXMVECTORF32@2@B DD 03f2dadaer ; 0.678431 ; DirectX::Colors::GreenYellow
	DD	03f800000r			; 1
	DD	03e3cbcbdr			; 0.184314
	DD	03f800000r			; 1
CONST	ENDS
;	COMDAT ?Green@Colors@DirectX@@3UXMVECTORF32@2@B
CONST	SEGMENT
?Green@Colors@DirectX@@3UXMVECTORF32@2@B DD 000000000r ; 0 ; DirectX::Colors::Green
	DD	03f008081r			; 0.501961
	DD	000000000r			; 0
	DD	03f800000r			; 1
CONST	ENDS
;	COMDAT ?Gray@Colors@DirectX@@3UXMVECTORF32@2@B
CONST	SEGMENT
?Gray@Colors@DirectX@@3UXMVECTORF32@2@B DD 03f008081r ; 0.501961 ; DirectX::Colors::Gray
	DD	03f008081r			; 0.501961
	DD	03f008081r			; 0.501961
	DD	03f800000r			; 1
CONST	ENDS
;	COMDAT ?Goldenrod@Colors@DirectX@@3UXMVECTORF32@2@B
CONST	SEGMENT
?Goldenrod@Colors@DirectX@@3UXMVECTORF32@2@B DD 03f5adadcr ; 0.854902 ; DirectX::Colors::Goldenrod
	DD	03f25a5a6r			; 0.647059
	DD	03e008081r			; 0.12549
	DD	03f800000r			; 1
CONST	ENDS
;	COMDAT ?Gold@Colors@DirectX@@3UXMVECTORF32@2@B
CONST	SEGMENT
?Gold@Colors@DirectX@@3UXMVECTORF32@2@B DD 03f800000r ; 1 ; DirectX::Colors::Gold
	DD	03f57d7d9r			; 0.843137
	DD	000000000r			; 0
	DD	03f800000r			; 1
CONST	ENDS
;	COMDAT ?GhostWhite@Colors@DirectX@@3UXMVECTORF32@2@B
CONST	SEGMENT
?GhostWhite@Colors@DirectX@@3UXMVECTORF32@2@B DD 03f78f8far ; 0.972549 ; DirectX::Colors::GhostWhite
	DD	03f78f8far			; 0.972549
	DD	03f800000r			; 1
	DD	03f800000r			; 1
CONST	ENDS
;	COMDAT ?Gainsboro@Colors@DirectX@@3UXMVECTORF32@2@B
CONST	SEGMENT
?Gainsboro@Colors@DirectX@@3UXMVECTORF32@2@B DD 03f5cdcder ; 0.862745 ; DirectX::Colors::Gainsboro
	DD	03f5cdcder			; 0.862745
	DD	03f5cdcder			; 0.862745
	DD	03f800000r			; 1
CONST	ENDS
;	COMDAT ?Fuchsia@Colors@DirectX@@3UXMVECTORF32@2@B
CONST	SEGMENT
?Fuchsia@Colors@DirectX@@3UXMVECTORF32@2@B DD 03f800000r ; 1 ; DirectX::Colors::Fuchsia
	DD	000000000r			; 0
	DD	03f800000r			; 1
	DD	03f800000r			; 1
CONST	ENDS
;	COMDAT ?ForestGreen@Colors@DirectX@@3UXMVECTORF32@2@B
CONST	SEGMENT
?ForestGreen@Colors@DirectX@@3UXMVECTORF32@2@B DD 03e088889r ; 0.133333 ; DirectX::Colors::ForestGreen
	DD	03f0b8b8cr			; 0.545098
	DD	03e088889r			; 0.133333
	DD	03f800000r			; 1
CONST	ENDS
;	COMDAT ?FloralWhite@Colors@DirectX@@3UXMVECTORF32@2@B
CONST	SEGMENT
?FloralWhite@Colors@DirectX@@3UXMVECTORF32@2@B DD 03f800000r ; 1 ; DirectX::Colors::FloralWhite
	DD	03f7afafcr			; 0.980392
	DD	03f70f0f2r			; 0.941177
	DD	03f800000r			; 1
CONST	ENDS
;	COMDAT ?Firebrick@Colors@DirectX@@3UXMVECTORF32@2@B
CONST	SEGMENT
?Firebrick@Colors@DirectX@@3UXMVECTORF32@2@B DD 03f32b2b3r ; 0.698039 ; DirectX::Colors::Firebrick
	DD	03e088889r			; 0.133333
	DD	03e088889r			; 0.133333
	DD	03f800000r			; 1
CONST	ENDS
;	COMDAT ?DodgerBlue@Colors@DirectX@@3UXMVECTORF32@2@B
CONST	SEGMENT
?DodgerBlue@Colors@DirectX@@3UXMVECTORF32@2@B DD 03df0f0f2r ; 0.117647 ; DirectX::Colors::DodgerBlue
	DD	03f109091r			; 0.564706
	DD	03f800000r			; 1
	DD	03f800000r			; 1
CONST	ENDS
;	COMDAT ?DimGray@Colors@DirectX@@3UXMVECTORF32@2@B
CONST	SEGMENT
?DimGray@Colors@DirectX@@3UXMVECTORF32@2@B DD 03ed2d2d4r ; 0.411765 ; DirectX::Colors::DimGray
	DD	03ed2d2d4r			; 0.411765
	DD	03ed2d2d4r			; 0.411765
	DD	03f800000r			; 1
CONST	ENDS
;	COMDAT ?DeepSkyBlue@Colors@DirectX@@3UXMVECTORF32@2@B
CONST	SEGMENT
?DeepSkyBlue@Colors@DirectX@@3UXMVECTORF32@2@B DD 000000000r ; 0 ; DirectX::Colors::DeepSkyBlue
	DD	03f3fbfc0r			; 0.74902
	DD	03f800000r			; 1
	DD	03f800000r			; 1
CONST	ENDS
;	COMDAT ?DeepPink@Colors@DirectX@@3UXMVECTORF32@2@B
CONST	SEGMENT
?DeepPink@Colors@DirectX@@3UXMVECTORF32@2@B DD 03f800000r ; 1 ; DirectX::Colors::DeepPink
	DD	03da0a0a1r			; 0.0784314
	DD	03f139394r			; 0.576471
	DD	03f800000r			; 1
CONST	ENDS
;	COMDAT ?DarkViolet@Colors@DirectX@@3UXMVECTORF32@2@B
CONST	SEGMENT
?DarkViolet@Colors@DirectX@@3UXMVECTORF32@2@B DD 03f149495r ; 0.580392 ; DirectX::Colors::DarkViolet
	DD	000000000r			; 0
	DD	03f53d3d5r			; 0.827451
	DD	03f800000r			; 1
CONST	ENDS
;	COMDAT ?DarkTurquoise@Colors@DirectX@@3UXMVECTORF32@2@B
CONST	SEGMENT
?DarkTurquoise@Colors@DirectX@@3UXMVECTORF32@2@B DD 000000000r ; 0 ; DirectX::Colors::DarkTurquoise
	DD	03f4eced0r			; 0.807843
	DD	03f51d1d3r			; 0.819608
	DD	03f800000r			; 1
CONST	ENDS
;	COMDAT ?DarkSlateGray@Colors@DirectX@@3UXMVECTORF32@2@B
CONST	SEGMENT
?DarkSlateGray@Colors@DirectX@@3UXMVECTORF32@2@B DD 03e3cbcbdr ; 0.184314 ; DirectX::Colors::DarkSlateGray
	DD	03e9e9e9fr			; 0.309804
	DD	03e9e9e9fr			; 0.309804
	DD	03f800000r			; 1
CONST	ENDS
;	COMDAT ?DarkSlateBlue@Colors@DirectX@@3UXMVECTORF32@2@B
CONST	SEGMENT
?DarkSlateBlue@Colors@DirectX@@3UXMVECTORF32@2@B DD 03e909091r ; 0.282353 ; DirectX::Colors::DarkSlateBlue
	DD	03e74f4f6r			; 0.239216
	DD	03f0b8b8cr			; 0.545098
	DD	03f800000r			; 1
CONST	ENDS
;	COMDAT ?DarkSeaGreen@Colors@DirectX@@3UXMVECTORF32@2@B
CONST	SEGMENT
?DarkSeaGreen@Colors@DirectX@@3UXMVECTORF32@2@B DD 03f0f8f90r ; 0.560784 ; DirectX::Colors::DarkSeaGreen
	DD	03f3cbcbdr			; 0.737255
	DD	03f0b8b8cr			; 0.545098
	DD	03f800000r			; 1
CONST	ENDS
;	COMDAT ?DarkSalmon@Colors@DirectX@@3UXMVECTORF32@2@B
CONST	SEGMENT
?DarkSalmon@Colors@DirectX@@3UXMVECTORF32@2@B DD 03f69e9ebr ; 0.913726 ; DirectX::Colors::DarkSalmon
	DD	03f169697r			; 0.588235
	DD	03ef4f4f6r			; 0.478431
	DD	03f800000r			; 1
CONST	ENDS
;	COMDAT ?DarkRed@Colors@DirectX@@3UXMVECTORF32@2@B
CONST	SEGMENT
?DarkRed@Colors@DirectX@@3UXMVECTORF32@2@B DD 03f0b8b8cr ; 0.545098 ; DirectX::Colors::DarkRed
	DD	000000000r			; 0
	DD	000000000r			; 0
	DD	03f800000r			; 1
CONST	ENDS
;	COMDAT ?DarkOrchid@Colors@DirectX@@3UXMVECTORF32@2@B
CONST	SEGMENT
?DarkOrchid@Colors@DirectX@@3UXMVECTORF32@2@B DD 03f19999ar ; 0.6 ; DirectX::Colors::DarkOrchid
	DD	03e48c8car			; 0.196078
	DD	03f4ccccer			; 0.8
	DD	03f800000r			; 1
CONST	ENDS
;	COMDAT ?DarkOrange@Colors@DirectX@@3UXMVECTORF32@2@B
CONST	SEGMENT
?DarkOrange@Colors@DirectX@@3UXMVECTORF32@2@B DD 03f800000r ; 1 ; DirectX::Colors::DarkOrange
	DD	03f0c8c8dr			; 0.54902
	DD	000000000r			; 0
	DD	03f800000r			; 1
CONST	ENDS
;	COMDAT ?DarkOliveGreen@Colors@DirectX@@3UXMVECTORF32@2@B
CONST	SEGMENT
?DarkOliveGreen@Colors@DirectX@@3UXMVECTORF32@2@B DD 03eaaaaabr ; 0.333333 ; DirectX::Colors::DarkOliveGreen
	DD	03ed6d6d8r			; 0.419608
	DD	03e3cbcbdr			; 0.184314
	DD	03f800000r			; 1
CONST	ENDS
;	COMDAT ?DarkMagenta@Colors@DirectX@@3UXMVECTORF32@2@B
CONST	SEGMENT
?DarkMagenta@Colors@DirectX@@3UXMVECTORF32@2@B DD 03f0b8b8cr ; 0.545098 ; DirectX::Colors::DarkMagenta
	DD	000000000r			; 0
	DD	03f0b8b8cr			; 0.545098
	DD	03f800000r			; 1
CONST	ENDS
;	COMDAT ?DarkKhaki@Colors@DirectX@@3UXMVECTORF32@2@B
CONST	SEGMENT
?DarkKhaki@Colors@DirectX@@3UXMVECTORF32@2@B DD 03f3dbdber ; 0.741176 ; DirectX::Colors::DarkKhaki
	DD	03f37b7b8r			; 0.717647
	DD	03ed6d6d8r			; 0.419608
	DD	03f800000r			; 1
CONST	ENDS
;	COMDAT ?DarkGreen@Colors@DirectX@@3UXMVECTORF32@2@B
CONST	SEGMENT
?DarkGreen@Colors@DirectX@@3UXMVECTORF32@2@B DD 000000000r ; 0 ; DirectX::Colors::DarkGreen
	DD	03ec8c8car			; 0.392157
	DD	000000000r			; 0
	DD	03f800000r			; 1
CONST	ENDS
;	COMDAT ?DarkGray@Colors@DirectX@@3UXMVECTORF32@2@B
CONST	SEGMENT
?DarkGray@Colors@DirectX@@3UXMVECTORF32@2@B DD 03f29a9aar ; 0.662745 ; DirectX::Colors::DarkGray
	DD	03f29a9aar			; 0.662745
	DD	03f29a9aar			; 0.662745
	DD	03f800000r			; 1
CONST	ENDS
;	COMDAT ?DarkGoldenrod@Colors@DirectX@@3UXMVECTORF32@2@B
CONST	SEGMENT
?DarkGoldenrod@Colors@DirectX@@3UXMVECTORF32@2@B DD 03f38b8b9r ; 0.721569 ; DirectX::Colors::DarkGoldenrod
	DD	03f068687r			; 0.52549
	DD	03d30b0b1r			; 0.0431373
	DD	03f800000r			; 1
CONST	ENDS
;	COMDAT ?DarkCyan@Colors@DirectX@@3UXMVECTORF32@2@B
CONST	SEGMENT
?DarkCyan@Colors@DirectX@@3UXMVECTORF32@2@B DD 000000000r ; 0 ; DirectX::Colors::DarkCyan
	DD	03f0b8b8cr			; 0.545098
	DD	03f0b8b8cr			; 0.545098
	DD	03f800000r			; 1
CONST	ENDS
;	COMDAT ?DarkBlue@Colors@DirectX@@3UXMVECTORF32@2@B
CONST	SEGMENT
?DarkBlue@Colors@DirectX@@3UXMVECTORF32@2@B DD 000000000r ; 0 ; DirectX::Colors::DarkBlue
	DD	000000000r			; 0
	DD	03f0b8b8cr			; 0.545098
	DD	03f800000r			; 1
CONST	ENDS
;	COMDAT ?Cyan@Colors@DirectX@@3UXMVECTORF32@2@B
CONST	SEGMENT
?Cyan@Colors@DirectX@@3UXMVECTORF32@2@B DD 000000000r ; 0 ; DirectX::Colors::Cyan
	DD	03f800000r			; 1
	DD	03f800000r			; 1
	DD	03f800000r			; 1
CONST	ENDS
;	COMDAT ?Crimson@Colors@DirectX@@3UXMVECTORF32@2@B
CONST	SEGMENT
?Crimson@Colors@DirectX@@3UXMVECTORF32@2@B DD 03f5cdcder ; 0.862745 ; DirectX::Colors::Crimson
	DD	03da0a0a1r			; 0.0784314
	DD	03e70f0f2r			; 0.235294
	DD	03f800000r			; 1
CONST	ENDS
;	COMDAT ?Cornsilk@Colors@DirectX@@3UXMVECTORF32@2@B
CONST	SEGMENT
?Cornsilk@Colors@DirectX@@3UXMVECTORF32@2@B DD 03f800000r ; 1 ; DirectX::Colors::Cornsilk
	DD	03f78f8far			; 0.972549
	DD	03f5cdcder			; 0.862745
	DD	03f800000r			; 1
CONST	ENDS
;	COMDAT ?CornflowerBlue@Colors@DirectX@@3UXMVECTORF32@2@B
CONST	SEGMENT
?CornflowerBlue@Colors@DirectX@@3UXMVECTORF32@2@B DD 03ec8c8car ; 0.392157 ; DirectX::Colors::CornflowerBlue
	DD	03f159596r			; 0.584314
	DD	03f6dedefr			; 0.929412
	DD	03f800000r			; 1
CONST	ENDS
;	COMDAT ?Coral@Colors@DirectX@@3UXMVECTORF32@2@B
CONST	SEGMENT
?Coral@Colors@DirectX@@3UXMVECTORF32@2@B DD 03f800000r ; 1 ; DirectX::Colors::Coral
	DD	03efeff00r			; 0.498039
	DD	03ea0a0a1r			; 0.313726
	DD	03f800000r			; 1
CONST	ENDS
;	COMDAT ?Chocolate@Colors@DirectX@@3UXMVECTORF32@2@B
CONST	SEGMENT
?Chocolate@Colors@DirectX@@3UXMVECTORF32@2@B DD 03f52d2d4r ; 0.823529 ; DirectX::Colors::Chocolate
	DD	03ed2d2d4r			; 0.411765
	DD	03df0f0f2r			; 0.117647
	DD	03f800000r			; 1
CONST	ENDS
;	COMDAT ?Chartreuse@Colors@DirectX@@3UXMVECTORF32@2@B
CONST	SEGMENT
?Chartreuse@Colors@DirectX@@3UXMVECTORF32@2@B DD 03efeff00r ; 0.498039 ; DirectX::Colors::Chartreuse
	DD	03f800000r			; 1
	DD	000000000r			; 0
	DD	03f800000r			; 1
CONST	ENDS
;	COMDAT ?CadetBlue@Colors@DirectX@@3UXMVECTORF32@2@B
CONST	SEGMENT
?CadetBlue@Colors@DirectX@@3UXMVECTORF32@2@B DD 03ebebebfr ; 0.372549 ; DirectX::Colors::CadetBlue
	DD	03f1e9e9fr			; 0.619608
	DD	03f20a0a1r			; 0.627451
	DD	03f800000r			; 1
CONST	ENDS
;	COMDAT ?BurlyWood@Colors@DirectX@@3UXMVECTORF32@2@B
CONST	SEGMENT
?BurlyWood@Colors@DirectX@@3UXMVECTORF32@2@B DD 03f5edee0r ; 0.870588 ; DirectX::Colors::BurlyWood
	DD	03f38b8b9r			; 0.721569
	DD	03f078788r			; 0.529412
	DD	03f800000r			; 1
CONST	ENDS
;	COMDAT ?Brown@Colors@DirectX@@3UXMVECTORF32@2@B
CONST	SEGMENT
?Brown@Colors@DirectX@@3UXMVECTORF32@2@B DD 03f25a5a6r ; 0.647059 ; DirectX::Colors::Brown
	DD	03e28a8a9r			; 0.164706
	DD	03e28a8a9r			; 0.164706
	DD	03f800000r			; 1
CONST	ENDS
;	COMDAT ?BlueViolet@Colors@DirectX@@3UXMVECTORF32@2@B
CONST	SEGMENT
?BlueViolet@Colors@DirectX@@3UXMVECTORF32@2@B DD 03f0a8a8br ; 0.541176 ; DirectX::Colors::BlueViolet
	DD	03e2cacadr			; 0.168627
	DD	03f62e2e4r			; 0.886275
	DD	03f800000r			; 1
CONST	ENDS
;	COMDAT ?Blue@Colors@DirectX@@3UXMVECTORF32@2@B
CONST	SEGMENT
?Blue@Colors@DirectX@@3UXMVECTORF32@2@B DD 000000000r ; 0 ; DirectX::Colors::Blue
	DD	000000000r			; 0
	DD	03f800000r			; 1
	DD	03f800000r			; 1
CONST	ENDS
;	COMDAT ?BlanchedAlmond@Colors@DirectX@@3UXMVECTORF32@2@B
CONST	SEGMENT
?BlanchedAlmond@Colors@DirectX@@3UXMVECTORF32@2@B DD 03f800000r ; 1 ; DirectX::Colors::BlanchedAlmond
	DD	03f6bebedr			; 0.921569
	DD	03f4dcdcfr			; 0.803922
	DD	03f800000r			; 1
CONST	ENDS
;	COMDAT ?Black@Colors@DirectX@@3UXMVECTORF32@2@B
CONST	SEGMENT
?Black@Colors@DirectX@@3UXMVECTORF32@2@B DD 000000000r ; 0 ; DirectX::Colors::Black
	DD	000000000r			; 0
	DD	000000000r			; 0
	DD	03f800000r			; 1
CONST	ENDS
;	COMDAT ?Bisque@Colors@DirectX@@3UXMVECTORF32@2@B
CONST	SEGMENT
?Bisque@Colors@DirectX@@3UXMVECTORF32@2@B DD 03f800000r ; 1 ; DirectX::Colors::Bisque
	DD	03f64e4e6r			; 0.894118
	DD	03f44c4c6r			; 0.768628
	DD	03f800000r			; 1
CONST	ENDS
;	COMDAT ?Beige@Colors@DirectX@@3UXMVECTORF32@2@B
CONST	SEGMENT
?Beige@Colors@DirectX@@3UXMVECTORF32@2@B DD 03f75f5f7r ; 0.960784 ; DirectX::Colors::Beige
	DD	03f75f5f7r			; 0.960784
	DD	03f5cdcder			; 0.862745
	DD	03f800000r			; 1
CONST	ENDS
;	COMDAT ?Azure@Colors@DirectX@@3UXMVECTORF32@2@B
CONST	SEGMENT
?Azure@Colors@DirectX@@3UXMVECTORF32@2@B DD 03f70f0f2r ; 0.941177 ; DirectX::Colors::Azure
	DD	03f800000r			; 1
	DD	03f800000r			; 1
	DD	03f800000r			; 1
CONST	ENDS
;	COMDAT ?Aquamarine@Colors@DirectX@@3UXMVECTORF32@2@B
CONST	SEGMENT
?Aquamarine@Colors@DirectX@@3UXMVECTORF32@2@B DD 03efeff00r ; 0.498039 ; DirectX::Colors::Aquamarine
	DD	03f800000r			; 1
	DD	03f54d4d6r			; 0.831373
	DD	03f800000r			; 1
CONST	ENDS
;	COMDAT ?Aqua@Colors@DirectX@@3UXMVECTORF32@2@B
CONST	SEGMENT
?Aqua@Colors@DirectX@@3UXMVECTORF32@2@B DD 000000000r ; 0 ; DirectX::Colors::Aqua
	DD	03f800000r			; 1
	DD	03f800000r			; 1
	DD	03f800000r			; 1
CONST	ENDS
;	COMDAT ?AntiqueWhite@Colors@DirectX@@3UXMVECTORF32@2@B
CONST	SEGMENT
?AntiqueWhite@Colors@DirectX@@3UXMVECTORF32@2@B DD 03f7afafcr ; 0.980392 ; DirectX::Colors::AntiqueWhite
	DD	03f6bebedr			; 0.921569
	DD	03f57d7d9r			; 0.843137
	DD	03f800000r			; 1
CONST	ENDS
;	COMDAT ?AliceBlue@Colors@DirectX@@3UXMVECTORF32@2@B
CONST	SEGMENT
?AliceBlue@Colors@DirectX@@3UXMVECTORF32@2@B DD 03f70f0f2r ; 0.941177 ; DirectX::Colors::AliceBlue
	DD	03f78f8far			; 0.972549
	DD	03f800000r			; 1
	DD	03f800000r			; 1
CONST	ENDS
;	COMDAT ?g_UShortMax@DirectX@@3UXMVECTORF32@1@B
CONST	SEGMENT
?g_UShortMax@DirectX@@3UXMVECTORF32@1@B DD 0477fff00r ; 65535 ; DirectX::g_UShortMax
	DD	0477fff00r			; 65535
	DD	0477fff00r			; 65535
	DD	0477fff00r			; 65535
CONST	ENDS
;	COMDAT ?g_ShortMax@DirectX@@3UXMVECTORF32@1@B
CONST	SEGMENT
?g_ShortMax@DirectX@@3UXMVECTORF32@1@B DD 046fffe00r ; 32767 ; DirectX::g_ShortMax
	DD	046fffe00r			; 32767
	DD	046fffe00r			; 32767
	DD	046fffe00r			; 32767
CONST	ENDS
;	COMDAT ?g_ShortMin@DirectX@@3UXMVECTORF32@1@B
CONST	SEGMENT
?g_ShortMin@DirectX@@3UXMVECTORF32@1@B DD 0c6fffe00r ; -32767 ; DirectX::g_ShortMin
	DD	0c6fffe00r			; -32767
	DD	0c6fffe00r			; -32767
	DD	0c6fffe00r			; -32767
CONST	ENDS
;	COMDAT ?g_ByteMax@DirectX@@3UXMVECTORF32@1@B
CONST	SEGMENT
?g_ByteMax@DirectX@@3UXMVECTORF32@1@B DD 042fe0000r ; 127 ; DirectX::g_ByteMax
	DD	042fe0000r			; 127
	DD	042fe0000r			; 127
	DD	042fe0000r			; 127
CONST	ENDS
;	COMDAT ?g_ByteMin@DirectX@@3UXMVECTORF32@1@B
CONST	SEGMENT
?g_ByteMin@DirectX@@3UXMVECTORF32@1@B DD 0c2fe0000r ; -127 ; DirectX::g_ByteMin
	DD	0c2fe0000r			; -127
	DD	0c2fe0000r			; -127
	DD	0c2fe0000r			; -127
CONST	ENDS
;	COMDAT ?g_UByteMax@DirectX@@3UXMVECTORF32@1@B
CONST	SEGMENT
?g_UByteMax@DirectX@@3UXMVECTORF32@1@B DD 0437f0000r ; 255 ; DirectX::g_UByteMax
	DD	0437f0000r			; 255
	DD	0437f0000r			; 255
	DD	0437f0000r			; 255
CONST	ENDS
;	COMDAT ?g_XMInvLg10@DirectX@@3UXMVECTORF32@1@B
CONST	SEGMENT
?g_XMInvLg10@DirectX@@3UXMVECTORF32@1@B DD 03e9a209br ; 0.30103 ; DirectX::g_XMInvLg10
	DD	03e9a209br			; 0.30103
	DD	03e9a209br			; 0.30103
	DD	03e9a209br			; 0.30103
CONST	ENDS
;	COMDAT ?g_XMLg10@DirectX@@3UXMVECTORF32@1@B
CONST	SEGMENT
?g_XMLg10@DirectX@@3UXMVECTORF32@1@B DD 040549a78r ; 3.32193 ; DirectX::g_XMLg10
	DD	040549a78r			; 3.32193
	DD	040549a78r			; 3.32193
	DD	040549a78r			; 3.32193
CONST	ENDS
;	COMDAT ?g_XMInvLgE@DirectX@@3UXMVECTORF32@1@B
CONST	SEGMENT
?g_XMInvLgE@DirectX@@3UXMVECTORF32@1@B DD 03f317218r ; 0.693147 ; DirectX::g_XMInvLgE
	DD	03f317218r			; 0.693147
	DD	03f317218r			; 0.693147
	DD	03f317218r			; 0.693147
CONST	ENDS
;	COMDAT ?g_XMLgE@DirectX@@3UXMVECTORF32@1@B
CONST	SEGMENT
?g_XMLgE@DirectX@@3UXMVECTORF32@1@B DD 03fb8aa3br ; 1.4427 ; DirectX::g_XMLgE
	DD	03fb8aa3br			; 1.4427
	DD	03fb8aa3br			; 1.4427
	DD	03fb8aa3br			; 1.4427
CONST	ENDS
;	COMDAT ?g_XMLogEst7@DirectX@@3UXMVECTORF32@1@B
CONST	SEGMENT
?g_XMLogEst7@DirectX@@3UXMVECTORF32@1@B DD 0bc2d4f59r ; -0.010578 ; DirectX::g_XMLogEst7
	DD	0bc2d4f59r			; -0.010578
	DD	0bc2d4f59r			; -0.010578
	DD	0bc2d4f59r			; -0.010578
CONST	ENDS
;	COMDAT ?g_XMLogEst6@DirectX@@3UXMVECTORF32@1@B
CONST	SEGMENT
?g_XMLogEst6@DirectX@@3UXMVECTORF32@1@B DD 03d6a1405r ; 0.057148 ; DirectX::g_XMLogEst6
	DD	03d6a1405r			; 0.057148
	DD	03d6a1405r			; 0.057148
	DD	03d6a1405r			; 0.057148
CONST	ENDS
;	COMDAT ?g_XMLogEst5@DirectX@@3UXMVECTORF32@1@B
CONST	SEGMENT
?g_XMLogEst5@DirectX@@3UXMVECTORF32@1@B DD 0be153261r ; -0.1457 ; DirectX::g_XMLogEst5
	DD	0be153261r			; -0.1457
	DD	0be153261r			; -0.1457
	DD	0be153261r			; -0.1457
CONST	ENDS
;	COMDAT ?g_XMLogEst4@DirectX@@3UXMVECTORF32@1@B
CONST	SEGMENT
?g_XMLogEst4@DirectX@@3UXMVECTORF32@1@B DD 03e7e8e61r ; 0.24859 ; DirectX::g_XMLogEst4
	DD	03e7e8e61r			; 0.24859
	DD	03e7e8e61r			; 0.24859
	DD	03e7e8e61r			; 0.24859
CONST	ENDS
;	COMDAT ?g_XMLogEst3@DirectX@@3UXMVECTORF32@1@B
CONST	SEGMENT
?g_XMLogEst3@DirectX@@3UXMVECTORF32@1@B DD 0beb359der ; -0.350295 ; DirectX::g_XMLogEst3
	DD	0beb359der			; -0.350295
	DD	0beb359der			; -0.350295
	DD	0beb359der			; -0.350295
CONST	ENDS
;	COMDAT ?g_XMLogEst2@DirectX@@3UXMVECTORF32@1@B
CONST	SEGMENT
?g_XMLogEst2@DirectX@@3UXMVECTORF32@1@B DD 03ef571d2r ; 0.479384 ; DirectX::g_XMLogEst2
	DD	03ef571d2r			; 0.479384
	DD	03ef571d2r			; 0.479384
	DD	03ef571d2r			; 0.479384
CONST	ENDS
;	COMDAT ?g_XMLogEst1@DirectX@@3UXMVECTORF32@1@B
CONST	SEGMENT
?g_XMLogEst1@DirectX@@3UXMVECTORF32@1@B DD 0bf38a351r ; -0.721242 ; DirectX::g_XMLogEst1
	DD	0bf38a351r			; -0.721242
	DD	0bf38a351r			; -0.721242
	DD	0bf38a351r			; -0.721242
CONST	ENDS
;	COMDAT ?g_XMLogEst0@DirectX@@3UXMVECTORF32@1@B
CONST	SEGMENT
?g_XMLogEst0@DirectX@@3UXMVECTORF32@1@B DD 03fb8aa2ar ; 1.44269 ; DirectX::g_XMLogEst0
	DD	03fb8aa2ar			; 1.44269
	DD	03fb8aa2ar			; 1.44269
	DD	03fb8aa2ar			; 1.44269
CONST	ENDS
;	COMDAT ?g_XMExpEst7@DirectX@@3UXMVECTORF32@1@B
CONST	SEGMENT
?g_XMExpEst7@DirectX@@3UXMVECTORF32@1@B DD 0b7364261r ; -1.08635e-05 ; DirectX::g_XMExpEst7
	DD	0b7364261r			; -1.08635e-05
	DD	0b7364261r			; -1.08635e-05
	DD	0b7364261r			; -1.08635e-05
CONST	ENDS
;	COMDAT ?g_XMExpEst6@DirectX@@3UXMVECTORF32@1@B
CONST	SEGMENT
?g_XMExpEst6@DirectX@@3UXMVECTORF32@1@B DD 0391aa7d7r ; 0.000147491 ; DirectX::g_XMExpEst6
	DD	0391aa7d7r			; 0.000147491
	DD	0391aa7d7r			; 0.000147491
	DD	0391aa7d7r			; 0.000147491
CONST	ENDS
;	COMDAT ?g_XMExpEst5@DirectX@@3UXMVECTORF32@1@B
CONST	SEGMENT
?g_XMExpEst5@DirectX@@3UXMVECTORF32@1@B DD 0baae1854r ; -0.00132824 ; DirectX::g_XMExpEst5
	DD	0baae1854r			; -0.00132824
	DD	0baae1854r			; -0.00132824
	DD	0baae1854r			; -0.00132824
CONST	ENDS
;	COMDAT ?g_XMExpEst4@DirectX@@3UXMVECTORF32@1@B
CONST	SEGMENT
?g_XMExpEst4@DirectX@@3UXMVECTORF32@1@B DD 03c1d8c54r ; 0.00961598 ; DirectX::g_XMExpEst4
	DD	03c1d8c54r			; 0.00961598
	DD	03c1d8c54r			; 0.00961598
	DD	03c1d8c54r			; 0.00961598
CONST	ENDS
;	COMDAT ?g_XMExpEst3@DirectX@@3UXMVECTORF32@1@B
CONST	SEGMENT
?g_XMExpEst3@DirectX@@3UXMVECTORF32@1@B DD 0bd6357car ; -0.0555036 ; DirectX::g_XMExpEst3
	DD	0bd6357car			; -0.0555036
	DD	0bd6357car			; -0.0555036
	DD	0bd6357car			; -0.0555036
CONST	ENDS
;	COMDAT ?g_XMExpEst2@DirectX@@3UXMVECTORF32@1@B
CONST	SEGMENT
?g_XMExpEst2@DirectX@@3UXMVECTORF32@1@B DD 03e75fdedr ; 0.240226 ; DirectX::g_XMExpEst2
	DD	03e75fdedr			; 0.240226
	DD	03e75fdedr			; 0.240226
	DD	03e75fdedr			; 0.240226
CONST	ENDS
;	COMDAT ?g_XMExpEst1@DirectX@@3UXMVECTORF32@1@B
CONST	SEGMENT
?g_XMExpEst1@DirectX@@3UXMVECTORF32@1@B DD 0bf317218r ; -0.693147 ; DirectX::g_XMExpEst1
	DD	0bf317218r			; -0.693147
	DD	0bf317218r			; -0.693147
	DD	0bf317218r			; -0.693147
CONST	ENDS
;	COMDAT ?g_XM253@DirectX@@3UXMVECTORI32@1@B
CONST	SEGMENT
?g_XM253@DirectX@@3UXMVECTORI32@1@B DD 0fdH		; DirectX::g_XM253
	DD	0fdH
	DD	0fdH
	DD	0fdH
CONST	ENDS
;	COMDAT ?g_XMBinNeg150@DirectX@@3UXMVECTORU32@1@B
CONST	SEGMENT
?g_XMBinNeg150@DirectX@@3UXMVECTORU32@1@B DD 0c3160000H	; DirectX::g_XMBinNeg150
	DD	0c3160000H
	DD	0c3160000H
	DD	0c3160000H
CONST	ENDS
;	COMDAT ?g_XMBin128@DirectX@@3UXMVECTORI32@1@B
CONST	SEGMENT
?g_XMBin128@DirectX@@3UXMVECTORI32@1@B DD 043000000H	; DirectX::g_XMBin128
	DD	043000000H
	DD	043000000H
	DD	043000000H
CONST	ENDS
;	COMDAT ?g_XMNegQNaN@DirectX@@3UXMVECTORU32@1@B
CONST	SEGMENT
?g_XMNegQNaN@DirectX@@3UXMVECTORU32@1@B DD 0ffc00000H	; DirectX::g_XMNegQNaN
	DD	0ffc00000H
	DD	0ffc00000H
	DD	0ffc00000H
CONST	ENDS
;	COMDAT ?g_XMNegInfinity@DirectX@@3UXMVECTORU32@1@B
CONST	SEGMENT
?g_XMNegInfinity@DirectX@@3UXMVECTORU32@1@B DD 0ff800000H ; DirectX::g_XMNegInfinity
	DD	0ff800000H
	DD	0ff800000H
	DD	0ff800000H
CONST	ENDS
;	COMDAT ?g_XMMinNormal@DirectX@@3UXMVECTORI32@1@B
CONST	SEGMENT
?g_XMMinNormal@DirectX@@3UXMVECTORI32@1@B DD 0800000H	; DirectX::g_XMMinNormal
	DD	0800000H
	DD	0800000H
	DD	0800000H
CONST	ENDS
;	COMDAT ?g_XMNumTrailing@DirectX@@3UXMVECTORI32@1@B
CONST	SEGMENT
?g_XMNumTrailing@DirectX@@3UXMVECTORI32@1@B DD 017H	; DirectX::g_XMNumTrailing
	DD	017H
	DD	017H
	DD	017H
CONST	ENDS
;	COMDAT ?g_XMSubnormalExponent@DirectX@@3UXMVECTORI32@1@B
CONST	SEGMENT
?g_XMSubnormalExponent@DirectX@@3UXMVECTORI32@1@B DD 0ffffff82H ; DirectX::g_XMSubnormalExponent
	DD	0ffffff82H
	DD	0ffffff82H
	DD	0ffffff82H
CONST	ENDS
;	COMDAT ?g_XMExponentBias@DirectX@@3UXMVECTORI32@1@B
CONST	SEGMENT
?g_XMExponentBias@DirectX@@3UXMVECTORI32@1@B DD 07fH	; DirectX::g_XMExponentBias
	DD	07fH
	DD	07fH
	DD	07fH
CONST	ENDS
;	COMDAT ?g_XMsrgbA1@DirectX@@3UXMVECTORF32@1@B
CONST	SEGMENT
?g_XMsrgbA1@DirectX@@3UXMVECTORF32@1@B DD 03f870a3dr ; 1.055 ; DirectX::g_XMsrgbA1
	DD	03f870a3dr			; 1.055
	DD	03f870a3dr			; 1.055
	DD	03f800000r			; 1
CONST	ENDS
;	COMDAT ?g_XMsrgbA@DirectX@@3UXMVECTORF32@1@B
CONST	SEGMENT
?g_XMsrgbA@DirectX@@3UXMVECTORF32@1@B DD 03d6147aer ; 0.055 ; DirectX::g_XMsrgbA
	DD	03d6147aer			; 0.055
	DD	03d6147aer			; 0.055
	DD	000000000r			; 0
CONST	ENDS
;	COMDAT ?g_XMsrgbScale@DirectX@@3UXMVECTORF32@1@B
CONST	SEGMENT
?g_XMsrgbScale@DirectX@@3UXMVECTORF32@1@B DD 0414eb852r ; 12.92 ; DirectX::g_XMsrgbScale
	DD	0414eb852r			; 12.92
	DD	0414eb852r			; 12.92
	DD	03f800000r			; 1
CONST	ENDS
;	COMDAT ?g_XMUnsignedFix@DirectX@@3UXMVECTORF32@1@B
CONST	SEGMENT
?g_XMUnsignedFix@DirectX@@3UXMVECTORF32@1@B DD 04f000000r ; 2.14748e+09 ; DirectX::g_XMUnsignedFix
	DD	04f000000r			; 2.14748e+09
	DD	04f000000r			; 2.14748e+09
	DD	04f000000r			; 2.14748e+09
CONST	ENDS
;	COMDAT ?g_XMMaxUInt@DirectX@@3UXMVECTORF32@1@B
CONST	SEGMENT
?g_XMMaxUInt@DirectX@@3UXMVECTORF32@1@B DD 04f7fffffr ; 4.29497e+09 ; DirectX::g_XMMaxUInt
	DD	04f7fffffr			; 4.29497e+09
	DD	04f7fffffr			; 4.29497e+09
	DD	04f7fffffr			; 4.29497e+09
CONST	ENDS
;	COMDAT ?g_XMMaxInt@DirectX@@3UXMVECTORF32@1@B
CONST	SEGMENT
?g_XMMaxInt@DirectX@@3UXMVECTORF32@1@B DD 04effffffr ; 2.14748e+09 ; DirectX::g_XMMaxInt
	DD	04effffffr			; 2.14748e+09
	DD	04effffffr			; 2.14748e+09
	DD	04effffffr			; 2.14748e+09
CONST	ENDS
;	COMDAT ?g_XMFixUnsigned@DirectX@@3UXMVECTORF32@1@B
CONST	SEGMENT
?g_XMFixUnsigned@DirectX@@3UXMVECTORF32@1@B DD 04f000000r ; 2.14748e+09 ; DirectX::g_XMFixUnsigned
	DD	04f000000r			; 2.14748e+09
	DD	04f000000r			; 2.14748e+09
	DD	04f000000r			; 2.14748e+09
CONST	ENDS
;	COMDAT ?g_XMAddByte4@DirectX@@3UXMVECTORF32@1@B
CONST	SEGMENT
?g_XMAddByte4@DirectX@@3UXMVECTORF32@1@B DD 0c3000000r ; -128 ; DirectX::g_XMAddByte4
	DD	0c7000000r			; -32768
	DD	0cb000000r			; -8.38861e+06
	DD	000000000r			; 0
CONST	ENDS
;	COMDAT ?g_XMXorByte4@DirectX@@3UXMVECTORI32@1@B
CONST	SEGMENT
?g_XMXorByte4@DirectX@@3UXMVECTORI32@1@B DD 080H	; DirectX::g_XMXorByte4
	DD	08000H
	DD	0800000H
	DD	00H
CONST	ENDS
;	COMDAT ?g_XMMaskByte4@DirectX@@3UXMVECTORU32@1@B
CONST	SEGMENT
?g_XMMaskByte4@DirectX@@3UXMVECTORU32@1@B DD 0ffH	; DirectX::g_XMMaskByte4
	DD	0ff00H
	DD	0ff0000H
	DD	0ff000000H
CONST	ENDS
;	COMDAT ?g_XMMulDec4@DirectX@@3UXMVECTORF32@1@B
CONST	SEGMENT
?g_XMMulDec4@DirectX@@3UXMVECTORF32@1@B DD 03f800000r ; 1 ; DirectX::g_XMMulDec4
	DD	03a800000r			; 0.000976562
	DD	035800000r			; 9.53674e-07
	DD	030800000r			; 9.31323e-10
CONST	ENDS
;	COMDAT ?g_XMAddDec4@DirectX@@3UXMVECTORF32@1@B
CONST	SEGMENT
?g_XMAddDec4@DirectX@@3UXMVECTORF32@1@B DD 0c4000000r ; -512 ; DirectX::g_XMAddDec4
	DD	0c9000000r			; -524288
	DD	0ce000000r			; -5.36871e+08
	DD	000000000r			; 0
CONST	ENDS
;	COMDAT ?g_XMAddUDec4@DirectX@@3UXMVECTORF32@1@B
CONST	SEGMENT
?g_XMAddUDec4@DirectX@@3UXMVECTORF32@1@B DD 000000000r ; 0 ; DirectX::g_XMAddUDec4
	DD	000000000r			; 0
	DD	000000000r			; 0
	DD	04f000000r			; 2.14748e+09
CONST	ENDS
;	COMDAT ?g_XMXorDec4@DirectX@@3UXMVECTORI32@1@B
CONST	SEGMENT
?g_XMXorDec4@DirectX@@3UXMVECTORI32@1@B DD 0200H	; DirectX::g_XMXorDec4
	DD	080000H
	DD	020000000H
	DD	00H
CONST	ENDS
;	COMDAT ?g_XMMaskDec4@DirectX@@3UXMVECTORI32@1@B
CONST	SEGMENT
?g_XMMaskDec4@DirectX@@3UXMVECTORI32@1@B DD 03ffH	; DirectX::g_XMMaskDec4
	DD	0ffc00H
	DD	03ff00000H
	DD	0c0000000H
CONST	ENDS
;	COMDAT ?g_XMFlipYW@DirectX@@3UXMVECTORU32@1@B
CONST	SEGMENT
?g_XMFlipYW@DirectX@@3UXMVECTORU32@1@B DD 00H		; DirectX::g_XMFlipYW
	DD	080000000H
	DD	00H
	DD	080000000H
CONST	ENDS
;	COMDAT ?g_XMFlipZW@DirectX@@3UXMVECTORU32@1@B
CONST	SEGMENT
?g_XMFlipZW@DirectX@@3UXMVECTORU32@1@B DD 00H		; DirectX::g_XMFlipZW
	DD	00H
	DD	080000000H
	DD	080000000H
CONST	ENDS
;	COMDAT ?g_XMFlipYZ@DirectX@@3UXMVECTORU32@1@B
CONST	SEGMENT
?g_XMFlipYZ@DirectX@@3UXMVECTORU32@1@B DD 00H		; DirectX::g_XMFlipYZ
	DD	080000000H
	DD	080000000H
	DD	00H
CONST	ENDS
;	COMDAT ?g_XMFlipW@DirectX@@3UXMVECTORU32@1@B
CONST	SEGMENT
?g_XMFlipW@DirectX@@3UXMVECTORU32@1@B DD 00H		; DirectX::g_XMFlipW
	DD	00H
	DD	00H
	DD	080000000H
CONST	ENDS
;	COMDAT ?g_XMFlipZ@DirectX@@3UXMVECTORU32@1@B
CONST	SEGMENT
?g_XMFlipZ@DirectX@@3UXMVECTORU32@1@B DD 00H		; DirectX::g_XMFlipZ
	DD	00H
	DD	080000000H
	DD	00H
CONST	ENDS
;	COMDAT ?g_XMFlipY@DirectX@@3UXMVECTORU32@1@B
CONST	SEGMENT
?g_XMFlipY@DirectX@@3UXMVECTORU32@1@B DD 00H		; DirectX::g_XMFlipY
	DD	080000000H
	DD	00H
	DD	00H
CONST	ENDS
;	COMDAT ?g_XMFixupY16W16@DirectX@@3UXMVECTORF32@1@B
CONST	SEGMENT
?g_XMFixupY16W16@DirectX@@3UXMVECTORF32@1@B DD 03f800000r ; 1 ; DirectX::g_XMFixupY16W16
	DD	03f800000r			; 1
	DD	037800000r			; 1.52588e-05
	DD	037800000r			; 1.52588e-05
CONST	ENDS
;	COMDAT ?g_XMFixupY16@DirectX@@3UXMVECTORF32@1@B
CONST	SEGMENT
?g_XMFixupY16@DirectX@@3UXMVECTORF32@1@B DD 03f800000r ; 1 ; DirectX::g_XMFixupY16
	DD	037800000r			; 1.52588e-05
	DD	000000000r			; 0
	DD	000000000r			; 0
CONST	ENDS
;	COMDAT ?g_XMSelect1011@DirectX@@3UXMVECTORU32@1@B
CONST	SEGMENT
?g_XMSelect1011@DirectX@@3UXMVECTORU32@1@B DD 0ffffffffH ; DirectX::g_XMSelect1011
	DD	00H
	DD	0ffffffffH
	DD	0ffffffffH
CONST	ENDS
;	COMDAT ?g_XMSelect1110@DirectX@@3UXMVECTORU32@1@B
CONST	SEGMENT
?g_XMSelect1110@DirectX@@3UXMVECTORU32@1@B DD 0ffffffffH ; DirectX::g_XMSelect1110
	DD	0ffffffffH
	DD	0ffffffffH
	DD	00H
CONST	ENDS
;	COMDAT ?g_XMSelect1100@DirectX@@3UXMVECTORU32@1@B
CONST	SEGMENT
?g_XMSelect1100@DirectX@@3UXMVECTORU32@1@B DD 0ffffffffH ; DirectX::g_XMSelect1100
	DD	0ffffffffH
	DD	00H
	DD	00H
CONST	ENDS
;	COMDAT ?g_XMSelect1000@DirectX@@3UXMVECTORU32@1@B
CONST	SEGMENT
?g_XMSelect1000@DirectX@@3UXMVECTORU32@1@B DD 0ffffffffH ; DirectX::g_XMSelect1000
	DD	00H
	DD	00H
	DD	00H
CONST	ENDS
;	COMDAT ?g_XMOneHalfMinusEpsilon@DirectX@@3UXMVECTORI32@1@B
CONST	SEGMENT
?g_XMOneHalfMinusEpsilon@DirectX@@3UXMVECTORI32@1@B DD 03efffffdH ; DirectX::g_XMOneHalfMinusEpsilon
	DD	03efffffdH
	DD	03efffffdH
	DD	03efffffdH
CONST	ENDS
;	COMDAT ?g_XMSelect1010@DirectX@@3UXMVECTORU32@1@B
CONST	SEGMENT
?g_XMSelect1010@DirectX@@3UXMVECTORU32@1@B DD 0ffffffffH ; DirectX::g_XMSelect1010
	DD	00H
	DD	0ffffffffH
	DD	00H
CONST	ENDS
;	COMDAT ?g_XMSelect0101@DirectX@@3UXMVECTORU32@1@B
CONST	SEGMENT
?g_XMSelect0101@DirectX@@3UXMVECTORU32@1@B DD 00H	; DirectX::g_XMSelect0101
	DD	0ffffffffH
	DD	00H
	DD	0ffffffffH
CONST	ENDS
;	COMDAT ?g_XMNegateW@DirectX@@3UXMVECTORF32@1@B
CONST	SEGMENT
?g_XMNegateW@DirectX@@3UXMVECTORF32@1@B DD 03f800000r ; 1 ; DirectX::g_XMNegateW
	DD	03f800000r			; 1
	DD	03f800000r			; 1
	DD	0bf800000r			; -1
CONST	ENDS
;	COMDAT ?g_XMNegateZ@DirectX@@3UXMVECTORF32@1@B
CONST	SEGMENT
?g_XMNegateZ@DirectX@@3UXMVECTORF32@1@B DD 03f800000r ; 1 ; DirectX::g_XMNegateZ
	DD	03f800000r			; 1
	DD	0bf800000r			; -1
	DD	03f800000r			; 1
CONST	ENDS
;	COMDAT ?g_XMNegateY@DirectX@@3UXMVECTORF32@1@B
CONST	SEGMENT
?g_XMNegateY@DirectX@@3UXMVECTORF32@1@B DD 03f800000r ; 1 ; DirectX::g_XMNegateY
	DD	0bf800000r			; -1
	DD	03f800000r			; 1
	DD	03f800000r			; 1
CONST	ENDS
;	COMDAT ?g_XMNegateX@DirectX@@3UXMVECTORF32@1@B
CONST	SEGMENT
?g_XMNegateX@DirectX@@3UXMVECTORF32@1@B DD 0bf800000r ; -1 ; DirectX::g_XMNegateX
	DD	03f800000r			; 1
	DD	03f800000r			; 1
	DD	03f800000r			; 1
CONST	ENDS
;	COMDAT ?g_XMMaskByte@DirectX@@3UXMVECTORI32@1@B
CONST	SEGMENT
?g_XMMaskByte@DirectX@@3UXMVECTORI32@1@B DD 0ffH	; DirectX::g_XMMaskByte
	DD	0ffH
	DD	0ffH
	DD	0ffH
CONST	ENDS
;	COMDAT ?g_XMNoFraction@DirectX@@3UXMVECTORF32@1@B
CONST	SEGMENT
?g_XMNoFraction@DirectX@@3UXMVECTORF32@1@B DD 04b000000r ; 8.38861e+06 ; DirectX::g_XMNoFraction
	DD	04b000000r			; 8.38861e+06
	DD	04b000000r			; 8.38861e+06
	DD	04b000000r			; 8.38861e+06
CONST	ENDS
;	COMDAT ?g_XMNormalizeX16Y16Z16W16@DirectX@@3UXMVECTORF32@1@B
CONST	SEGMENT
?g_XMNormalizeX16Y16Z16W16@DirectX@@3UXMVECTORF32@1@B DD 038000100r ; 3.05185e-05 ; DirectX::g_XMNormalizeX16Y16Z16W16
	DD	038000100r			; 3.05185e-05
	DD	030000100r			; 4.65675e-10
	DD	030000100r			; 4.65675e-10
CONST	ENDS
;	COMDAT ?g_XMFixX16Y16Z16W16@DirectX@@3UXMVECTORF32@1@B
CONST	SEGMENT
?g_XMFixX16Y16Z16W16@DirectX@@3UXMVECTORF32@1@B DD 0c7000000r ; -32768 ; DirectX::g_XMFixX16Y16Z16W16
	DD	0c7000000r			; -32768
	DD	000000000r			; 0
	DD	000000000r			; 0
CONST	ENDS
;	COMDAT ?g_XMFlipX16Y16Z16W16@DirectX@@3UXMVECTORI32@1@B
CONST	SEGMENT
?g_XMFlipX16Y16Z16W16@DirectX@@3UXMVECTORI32@1@B DD 08000H ; DirectX::g_XMFlipX16Y16Z16W16
	DD	08000H
	DD	00H
	DD	00H
CONST	ENDS
;	COMDAT ?g_XMMaskX16Y16Z16W16@DirectX@@3UXMVECTORU32@1@B
CONST	SEGMENT
?g_XMMaskX16Y16Z16W16@DirectX@@3UXMVECTORU32@1@B DD 0ffffH ; DirectX::g_XMMaskX16Y16Z16W16
	DD	0ffffH
	DD	0ffff0000H
	DD	0ffff0000H
CONST	ENDS
;	COMDAT ?g_XMNormalizeX16Y16@DirectX@@3UXMVECTORF32@1@B
CONST	SEGMENT
?g_XMNormalizeX16Y16@DirectX@@3UXMVECTORF32@1@B DD 038000100r ; 3.05185e-05 ; DirectX::g_XMNormalizeX16Y16
	DD	030000100r			; 4.65675e-10
	DD	000000000r			; 0
	DD	000000000r			; 0
CONST	ENDS
;	COMDAT ?g_XMFixX16Y16@DirectX@@3UXMVECTORF32@1@B
CONST	SEGMENT
?g_XMFixX16Y16@DirectX@@3UXMVECTORF32@1@B DD 0c7000000r ; -32768 ; DirectX::g_XMFixX16Y16
	DD	000000000r			; 0
	DD	000000000r			; 0
	DD	000000000r			; 0
CONST	ENDS
;	COMDAT ?g_XMFlipX16Y16@DirectX@@3UXMVECTORI32@1@B
CONST	SEGMENT
?g_XMFlipX16Y16@DirectX@@3UXMVECTORI32@1@B DD 08000H	; DirectX::g_XMFlipX16Y16
	DD	00H
	DD	00H
	DD	00H
CONST	ENDS
;	COMDAT ?g_XMMaskX16Y16@DirectX@@3UXMVECTORU32@1@B
CONST	SEGMENT
?g_XMMaskX16Y16@DirectX@@3UXMVECTORU32@1@B DD 0ffffH	; DirectX::g_XMMaskX16Y16
	DD	0ffff0000H
	DD	00H
	DD	00H
CONST	ENDS
;	COMDAT ?g_XMNormalizeA2B10G10R10@DirectX@@3UXMVECTORF32@1@B
CONST	SEGMENT
?g_XMNormalizeA2B10G10R10@DirectX@@3UXMVECTORF32@1@B DD 03b004020r ; 0.00195695 ; DirectX::g_XMNormalizeA2B10G10R10
	DD	036004020r			; 1.91108e-06
	DD	031004020r			; 1.86629e-09
	DD	02faaaaabr			; 3.10441e-10
CONST	ENDS
;	COMDAT ?g_XMFixAA2B10G10R10@DirectX@@3UXMVECTORF32@1@B
CONST	SEGMENT
?g_XMFixAA2B10G10R10@DirectX@@3UXMVECTORF32@1@B DD 0c4000000r ; -512 ; DirectX::g_XMFixAA2B10G10R10
	DD	0c9000000r			; -524288
	DD	0ce000000r			; -5.36871e+08
	DD	04f000000r			; 2.14748e+09
CONST	ENDS
;	COMDAT ?g_XMFlipA2B10G10R10@DirectX@@3UXMVECTORU32@1@B
CONST	SEGMENT
?g_XMFlipA2B10G10R10@DirectX@@3UXMVECTORU32@1@B DD 0200H ; DirectX::g_XMFlipA2B10G10R10
	DD	080000H
	DD	020000000H
	DD	080000000H
CONST	ENDS
;	COMDAT ?g_XMMaskA2B10G10R10@DirectX@@3UXMVECTORU32@1@B
CONST	SEGMENT
?g_XMMaskA2B10G10R10@DirectX@@3UXMVECTORU32@1@B DD 03ffH ; DirectX::g_XMMaskA2B10G10R10
	DD	0ffc00H
	DD	03ff00000H
	DD	0c0000000H
CONST	ENDS
;	COMDAT ?g_XMNormalizeA8R8G8B8@DirectX@@3UXMVECTORF32@1@B
CONST	SEGMENT
?g_XMNormalizeA8R8G8B8@DirectX@@3UXMVECTORF32@1@B DD 033808081r ; 5.98384e-08 ; DirectX::g_XMNormalizeA8R8G8B8
	DD	037808081r			; 1.53186e-05
	DD	03b808081r			; 0.00392157
	DD	02f808081r			; 2.33744e-10
CONST	ENDS
;	COMDAT ?g_XMFixAA8R8G8B8@DirectX@@3UXMVECTORF32@1@B
CONST	SEGMENT
?g_XMFixAA8R8G8B8@DirectX@@3UXMVECTORF32@1@B DD 000000000r ; 0 ; DirectX::g_XMFixAA8R8G8B8
	DD	000000000r			; 0
	DD	000000000r			; 0
	DD	04f000000r			; 2.14748e+09
CONST	ENDS
;	COMDAT ?g_XMFlipA8R8G8B8@DirectX@@3UXMVECTORU32@1@B
CONST	SEGMENT
?g_XMFlipA8R8G8B8@DirectX@@3UXMVECTORU32@1@B DD 00H	; DirectX::g_XMFlipA8R8G8B8
	DD	00H
	DD	00H
	DD	080000000H
CONST	ENDS
;	COMDAT ?g_XMMaskA8R8G8B8@DirectX@@3UXMVECTORU32@1@B
CONST	SEGMENT
?g_XMMaskA8R8G8B8@DirectX@@3UXMVECTORU32@1@B DD 0ff0000H ; DirectX::g_XMMaskA8R8G8B8
	DD	0ff00H
	DD	0ffH
	DD	0ff000000H
CONST	ENDS
;	COMDAT ?g_XMNegOneMask@DirectX@@3UXMVECTORU32@1@B
CONST	SEGMENT
?g_XMNegOneMask@DirectX@@3UXMVECTORU32@1@B DD 0ffffffffH ; DirectX::g_XMNegOneMask
	DD	0ffffffffH
	DD	0ffffffffH
	DD	0ffffffffH
CONST	ENDS
;	COMDAT ?g_XMFltMax@DirectX@@3UXMVECTORI32@1@B
CONST	SEGMENT
?g_XMFltMax@DirectX@@3UXMVECTORI32@1@B DD 07f7fffffH	; DirectX::g_XMFltMax
	DD	07f7fffffH
	DD	07f7fffffH
	DD	07f7fffffH
CONST	ENDS
;	COMDAT ?g_XMFltMin@DirectX@@3UXMVECTORI32@1@B
CONST	SEGMENT
?g_XMFltMin@DirectX@@3UXMVECTORI32@1@B DD 0800000H	; DirectX::g_XMFltMin
	DD	0800000H
	DD	0800000H
	DD	0800000H
CONST	ENDS
;	COMDAT ?g_XMAbsMask@DirectX@@3UXMVECTORI32@1@B
CONST	SEGMENT
?g_XMAbsMask@DirectX@@3UXMVECTORI32@1@B DD 07fffffffH	; DirectX::g_XMAbsMask
	DD	07fffffffH
	DD	07fffffffH
	DD	07fffffffH
CONST	ENDS
;	COMDAT ?g_XMQNaNTest@DirectX@@3UXMVECTORI32@1@B
CONST	SEGMENT
?g_XMQNaNTest@DirectX@@3UXMVECTORI32@1@B DD 07fffffH	; DirectX::g_XMQNaNTest
	DD	07fffffH
	DD	07fffffH
	DD	07fffffH
CONST	ENDS
;	COMDAT ?g_XMQNaN@DirectX@@3UXMVECTORI32@1@B
CONST	SEGMENT
?g_XMQNaN@DirectX@@3UXMVECTORI32@1@B DD 07fc00000H	; DirectX::g_XMQNaN
	DD	07fc00000H
	DD	07fc00000H
	DD	07fc00000H
CONST	ENDS
;	COMDAT ?g_XMInfinity@DirectX@@3UXMVECTORI32@1@B
CONST	SEGMENT
?g_XMInfinity@DirectX@@3UXMVECTORI32@1@B DD 07f800000H	; DirectX::g_XMInfinity
	DD	07f800000H
	DD	07f800000H
	DD	07f800000H
CONST	ENDS
;	COMDAT ?g_XMEpsilon@DirectX@@3UXMVECTORF32@1@B
CONST	SEGMENT
?g_XMEpsilon@DirectX@@3UXMVECTORF32@1@B DD 034000000r ; 1.19209e-07 ; DirectX::g_XMEpsilon
	DD	034000000r			; 1.19209e-07
	DD	034000000r			; 1.19209e-07
	DD	034000000r			; 1.19209e-07
CONST	ENDS
;	COMDAT ?g_XMReciprocalTwoPi@DirectX@@3UXMVECTORF32@1@B
CONST	SEGMENT
?g_XMReciprocalTwoPi@DirectX@@3UXMVECTORF32@1@B DD 03e22f983r ; 0.159155 ; DirectX::g_XMReciprocalTwoPi
	DD	03e22f983r			; 0.159155
	DD	03e22f983r			; 0.159155
	DD	03e22f983r			; 0.159155
CONST	ENDS
;	COMDAT ?g_XMTwoPi@DirectX@@3UXMVECTORF32@1@B
CONST	SEGMENT
?g_XMTwoPi@DirectX@@3UXMVECTORF32@1@B DD 040c90fdbr ; 6.28319 ; DirectX::g_XMTwoPi
	DD	040c90fdbr			; 6.28319
	DD	040c90fdbr			; 6.28319
	DD	040c90fdbr			; 6.28319
CONST	ENDS
;	COMDAT ?g_XMReciprocalPi@DirectX@@3UXMVECTORF32@1@B
CONST	SEGMENT
?g_XMReciprocalPi@DirectX@@3UXMVECTORF32@1@B DD 03ea2f983r ; 0.31831 ; DirectX::g_XMReciprocalPi
	DD	03ea2f983r			; 0.31831
	DD	03ea2f983r			; 0.31831
	DD	03ea2f983r			; 0.31831
CONST	ENDS
;	COMDAT ?g_XMPi@DirectX@@3UXMVECTORF32@1@B
CONST	SEGMENT
?g_XMPi@DirectX@@3UXMVECTORF32@1@B DD 040490fdbr ; 3.14159 ; DirectX::g_XMPi
	DD	040490fdbr			; 3.14159
	DD	040490fdbr			; 3.14159
	DD	040490fdbr			; 3.14159
CONST	ENDS
;	COMDAT ?g_XMHalfPi@DirectX@@3UXMVECTORF32@1@B
CONST	SEGMENT
?g_XMHalfPi@DirectX@@3UXMVECTORF32@1@B DD 03fc90fdbr ; 1.5708 ; DirectX::g_XMHalfPi
	DD	03fc90fdbr			; 1.5708
	DD	03fc90fdbr			; 1.5708
	DD	03fc90fdbr			; 1.5708
CONST	ENDS
;	COMDAT ?g_XMNegativePi@DirectX@@3UXMVECTORF32@1@B
CONST	SEGMENT
?g_XMNegativePi@DirectX@@3UXMVECTORF32@1@B DD 0c0490fdbr ; -3.14159 ; DirectX::g_XMNegativePi
	DD	0c0490fdbr			; -3.14159
	DD	0c0490fdbr			; -3.14159
	DD	0c0490fdbr			; -3.14159
CONST	ENDS
;	COMDAT ?g_XMNegativeTwoPi@DirectX@@3UXMVECTORF32@1@B
CONST	SEGMENT
?g_XMNegativeTwoPi@DirectX@@3UXMVECTORF32@1@B DD 0c0c90fdbr ; -6.28319 ; DirectX::g_XMNegativeTwoPi
	DD	0c0c90fdbr			; -6.28319
	DD	0c0c90fdbr			; -6.28319
	DD	0c0c90fdbr			; -6.28319
CONST	ENDS
;	COMDAT ?g_XMNegativeOneHalf@DirectX@@3UXMVECTORF32@1@B
CONST	SEGMENT
?g_XMNegativeOneHalf@DirectX@@3UXMVECTORF32@1@B DD 0bf000000r ; -0.5 ; DirectX::g_XMNegativeOneHalf
	DD	0bf000000r			; -0.5
	DD	0bf000000r			; -0.5
	DD	0bf000000r			; -0.5
CONST	ENDS
;	COMDAT ?g_XMOneHalf@DirectX@@3UXMVECTORF32@1@B
CONST	SEGMENT
?g_XMOneHalf@DirectX@@3UXMVECTORF32@1@B DD 03f000000r ; 0.5 ; DirectX::g_XMOneHalf
	DD	03f000000r			; 0.5
	DD	03f000000r			; 0.5
	DD	03f000000r			; 0.5
CONST	ENDS
;	COMDAT ?g_XMNegativeOne@DirectX@@3UXMVECTORF32@1@B
CONST	SEGMENT
?g_XMNegativeOne@DirectX@@3UXMVECTORF32@1@B DD 0bf800000r ; -1 ; DirectX::g_XMNegativeOne
	DD	0bf800000r			; -1
	DD	0bf800000r			; -1
	DD	0bf800000r			; -1
CONST	ENDS
;	COMDAT ?g_XMSix@DirectX@@3UXMVECTORF32@1@B
CONST	SEGMENT
?g_XMSix@DirectX@@3UXMVECTORF32@1@B DD 040c00000r ; 6	; DirectX::g_XMSix
	DD	040c00000r			; 6
	DD	040c00000r			; 6
	DD	040c00000r			; 6
CONST	ENDS
;	COMDAT ?g_XMFour@DirectX@@3UXMVECTORF32@1@B
CONST	SEGMENT
?g_XMFour@DirectX@@3UXMVECTORF32@1@B DD 040800000r ; 4	; DirectX::g_XMFour
	DD	040800000r			; 4
	DD	040800000r			; 4
	DD	040800000r			; 4
CONST	ENDS
;	COMDAT ?g_XMTwo@DirectX@@3UXMVECTORF32@1@B
CONST	SEGMENT
?g_XMTwo@DirectX@@3UXMVECTORF32@1@B DD 040000000r ; 2	; DirectX::g_XMTwo
	DD	040000000r			; 2
	DD	040000000r			; 2
	DD	040000000r			; 2
CONST	ENDS
;	COMDAT ?g_XMZero@DirectX@@3UXMVECTORF32@1@B
CONST	SEGMENT
?g_XMZero@DirectX@@3UXMVECTORF32@1@B DD 000000000r ; 0	; DirectX::g_XMZero
	DD	000000000r			; 0
	DD	000000000r			; 0
	DD	000000000r			; 0
CONST	ENDS
;	COMDAT ?g_XMOne3@DirectX@@3UXMVECTORF32@1@B
CONST	SEGMENT
?g_XMOne3@DirectX@@3UXMVECTORF32@1@B DD 03f800000r ; 1	; DirectX::g_XMOne3
	DD	03f800000r			; 1
	DD	03f800000r			; 1
	DD	000000000r			; 0
CONST	ENDS
;	COMDAT ?g_XMOne@DirectX@@3UXMVECTORF32@1@B
CONST	SEGMENT
?g_XMOne@DirectX@@3UXMVECTORF32@1@B DD 03f800000r ; 1	; DirectX::g_XMOne
	DD	03f800000r			; 1
	DD	03f800000r			; 1
	DD	03f800000r			; 1
CONST	ENDS
;	COMDAT ?g_XMMaskW@DirectX@@3UXMVECTORU32@1@B
CONST	SEGMENT
?g_XMMaskW@DirectX@@3UXMVECTORU32@1@B DD 00H		; DirectX::g_XMMaskW
	DD	00H
	DD	00H
	DD	0ffffffffH
CONST	ENDS
;	COMDAT ?g_XMMaskZ@DirectX@@3UXMVECTORU32@1@B
CONST	SEGMENT
?g_XMMaskZ@DirectX@@3UXMVECTORU32@1@B DD 00H		; DirectX::g_XMMaskZ
	DD	00H
	DD	0ffffffffH
	DD	00H
CONST	ENDS
;	COMDAT ?g_XMMaskY@DirectX@@3UXMVECTORU32@1@B
CONST	SEGMENT
?g_XMMaskY@DirectX@@3UXMVECTORU32@1@B DD 00H		; DirectX::g_XMMaskY
	DD	0ffffffffH
	DD	00H
	DD	00H
CONST	ENDS
;	COMDAT ?g_XMMaskX@DirectX@@3UXMVECTORU32@1@B
CONST	SEGMENT
?g_XMMaskX@DirectX@@3UXMVECTORU32@1@B DD 0ffffffffH	; DirectX::g_XMMaskX
	DD	00H
	DD	00H
	DD	00H
CONST	ENDS
;	COMDAT ?g_XMMask3@DirectX@@3UXMVECTORU32@1@B
CONST	SEGMENT
?g_XMMask3@DirectX@@3UXMVECTORU32@1@B DD 0ffffffffH	; DirectX::g_XMMask3
	DD	0ffffffffH
	DD	0ffffffffH
	DD	00H
CONST	ENDS
;	COMDAT ?g_XMMaskXY@DirectX@@3UXMVECTORU32@1@B
CONST	SEGMENT
?g_XMMaskXY@DirectX@@3UXMVECTORU32@1@B DD 0ffffffffH	; DirectX::g_XMMaskXY
	DD	0ffffffffH
	DD	00H
	DD	00H
CONST	ENDS
;	COMDAT ?g_XMNegate3@DirectX@@3UXMVECTORU32@1@B
CONST	SEGMENT
?g_XMNegate3@DirectX@@3UXMVECTORU32@1@B DD 080000000H	; DirectX::g_XMNegate3
	DD	080000000H
	DD	080000000H
	DD	00H
CONST	ENDS
;	COMDAT ?g_XMNegativeZero@DirectX@@3UXMVECTORU32@1@B
CONST	SEGMENT
?g_XMNegativeZero@DirectX@@3UXMVECTORU32@1@B DD 080000000H ; DirectX::g_XMNegativeZero
	DD	080000000H
	DD	080000000H
	DD	080000000H
CONST	ENDS
;	COMDAT ?g_XMNegIdentityR3@DirectX@@3UXMVECTORF32@1@B
CONST	SEGMENT
?g_XMNegIdentityR3@DirectX@@3UXMVECTORF32@1@B DD 000000000r ; 0 ; DirectX::g_XMNegIdentityR3
	DD	000000000r			; 0
	DD	000000000r			; 0
	DD	0bf800000r			; -1
CONST	ENDS
;	COMDAT ?g_XMNegIdentityR2@DirectX@@3UXMVECTORF32@1@B
CONST	SEGMENT
?g_XMNegIdentityR2@DirectX@@3UXMVECTORF32@1@B DD 000000000r ; 0 ; DirectX::g_XMNegIdentityR2
	DD	000000000r			; 0
	DD	0bf800000r			; -1
	DD	000000000r			; 0
CONST	ENDS
;	COMDAT ?g_XMNegIdentityR1@DirectX@@3UXMVECTORF32@1@B
CONST	SEGMENT
?g_XMNegIdentityR1@DirectX@@3UXMVECTORF32@1@B DD 000000000r ; 0 ; DirectX::g_XMNegIdentityR1
	DD	0bf800000r			; -1
	DD	000000000r			; 0
	DD	000000000r			; 0
CONST	ENDS
;	COMDAT ?g_XMNegIdentityR0@DirectX@@3UXMVECTORF32@1@B
CONST	SEGMENT
?g_XMNegIdentityR0@DirectX@@3UXMVECTORF32@1@B DD 0bf800000r ; -1 ; DirectX::g_XMNegIdentityR0
	DD	000000000r			; 0
	DD	000000000r			; 0
	DD	000000000r			; 0
CONST	ENDS
;	COMDAT ?g_XMIdentityR3@DirectX@@3UXMVECTORF32@1@B
CONST	SEGMENT
?g_XMIdentityR3@DirectX@@3UXMVECTORF32@1@B DD 000000000r ; 0 ; DirectX::g_XMIdentityR3
	DD	000000000r			; 0
	DD	000000000r			; 0
	DD	03f800000r			; 1
CONST	ENDS
;	COMDAT ?g_XMIdentityR2@DirectX@@3UXMVECTORF32@1@B
CONST	SEGMENT
?g_XMIdentityR2@DirectX@@3UXMVECTORF32@1@B DD 000000000r ; 0 ; DirectX::g_XMIdentityR2
	DD	000000000r			; 0
	DD	03f800000r			; 1
	DD	000000000r			; 0
CONST	ENDS
;	COMDAT ?g_XMIdentityR1@DirectX@@3UXMVECTORF32@1@B
CONST	SEGMENT
?g_XMIdentityR1@DirectX@@3UXMVECTORF32@1@B DD 000000000r ; 0 ; DirectX::g_XMIdentityR1
	DD	03f800000r			; 1
	DD	000000000r			; 0
	DD	000000000r			; 0
CONST	ENDS
;	COMDAT ?g_XMIdentityR0@DirectX@@3UXMVECTORF32@1@B
CONST	SEGMENT
?g_XMIdentityR0@DirectX@@3UXMVECTORF32@1@B DD 03f800000r ; 1 ; DirectX::g_XMIdentityR0
	DD	000000000r			; 0
	DD	000000000r			; 0
	DD	000000000r			; 0
CONST	ENDS
;	COMDAT ?g_XMPiConstants0@DirectX@@3UXMVECTORF32@1@B
CONST	SEGMENT
?g_XMPiConstants0@DirectX@@3UXMVECTORF32@1@B DD 040490fdbr ; 3.14159 ; DirectX::g_XMPiConstants0
	DD	040c90fdbr			; 6.28319
	DD	03ea2f983r			; 0.31831
	DD	03e22f983r			; 0.159155
CONST	ENDS
;	COMDAT ?g_XMArcEstCoefficients@DirectX@@3UXMVECTORF32@1@B
CONST	SEGMENT
?g_XMArcEstCoefficients@DirectX@@3UXMVECTORF32@1@B DD 03fc90da4r ; 1.57073 ; DirectX::g_XMArcEstCoefficients
	DD	0be593484r			; -0.212114
	DD	03d981627r			; 0.074261
	DD	0bc996e30r			; -0.0187293
CONST	ENDS
;	COMDAT ?g_XMTanEstCoefficients@DirectX@@3UXMVECTORF32@1@B
CONST	SEGMENT
?g_XMTanEstCoefficients@DirectX@@3UXMVECTORF32@1@B DD 0401ef9dbr ; 2.484 ; DirectX::g_XMTanEstCoefficients
	DD	0be482f23r			; -0.195492
	DD	0401de9e6r			; 2.4674
	DD	03ea2f983r			; 0.31831
CONST	ENDS
;	COMDAT ?g_XMATanEstCoefficients1@DirectX@@3UXMVECTORF32@1@B
CONST	SEGMENT
?g_XMATanEstCoefficients1@DirectX@@3UXMVECTORF32@1@B DD 0bea91d04r ; -0.330299 ; DirectX::g_XMATanEstCoefficients1
	DD	03e3876e2r			; 0.180141
	DD	0bdae5a36r			; -0.085133
	DD	03caaae5fr			; 0.0208351
CONST	ENDS
;	COMDAT ?g_XMATanEstCoefficients0@DirectX@@3UXMVECTORF32@1@B
CONST	SEGMENT
?g_XMATanEstCoefficients0@DirectX@@3UXMVECTORF32@1@B DD 03f7ff738r ; 0.999866 ; DirectX::g_XMATanEstCoefficients0
	DD	03f7ff738r			; 0.999866
	DD	03f7ff738r			; 0.999866
	DD	03f7ff738r			; 0.999866
CONST	ENDS
;	COMDAT ?g_XMATanCoefficients1@DirectX@@3UXMVECTORF32@1@B
CONST	SEGMENT
?g_XMATanCoefficients1@DirectX@@3UXMVECTORF32@1@B DD 0bd9a3174r ; -0.0752896 ; DirectX::g_XMATanCoefficients1
	DD	03d2fc1fer			; 0.0429096
	DD	0bc846e02r			; -0.0161657
	DD	03b3bd74ar			; 0.00286623
CONST	ENDS
;	COMDAT ?g_XMATanCoefficients0@DirectX@@3UXMVECTORF32@1@B
CONST	SEGMENT
?g_XMATanCoefficients0@DirectX@@3UXMVECTORF32@1@B DD 0beaaaa6cr ; -0.333331 ; DirectX::g_XMATanCoefficients0
	DD	03e4cbbe5r			; 0.199936
	DD	0be117fc7r			; -0.142089
	DD	03dda3d83r			; 0.106563
CONST	ENDS
;	COMDAT ?g_XMArcCoefficients1@DirectX@@3UXMVECTORF32@1@B
CONST	SEGMENT
?g_XMArcCoefficients1@DirectX@@3UXMVECTORF32@1@B DD 03cfd10f8r ; 0.0308919 ; DirectX::g_XMArcCoefficients1
	DD	0bc8bfc66r			; -0.0170881
	DD	03bda90c5r			; 0.00667009
	DD	0baa57a2cr			; -0.00126249
CONST	ENDS
;	COMDAT ?g_XMArcCoefficients0@DirectX@@3UXMVECTORF32@1@B
CONST	SEGMENT
?g_XMArcCoefficients0@DirectX@@3UXMVECTORF32@1@B DD 03fc90fdar ; 1.5708 ; DirectX::g_XMArcCoefficients0
	DD	0be5bbfcar			; -0.214599
	DD	03db63a9er			; 0.088979
	DD	0bd4d8392r			; -0.0501743
CONST	ENDS
;	COMDAT ?g_XMTanCoefficients2@DirectX@@3UXMVECTORF32@1@B
CONST	SEGMENT
?g_XMTanCoefficients2@DirectX@@3UXMVECTORF32@1@B DD 03a1aac12r ; 0.000590027 ; DirectX::g_XMTanCoefficients2
	DD	0397abeb9r			; 0.000239129
	DD	038cb3f0cr			; 9.69154e-05
	DD	03824bec9r			; 3.92783e-05
CONST	ENDS
;	COMDAT ?g_XMTanCoefficients1@DirectX@@3UXMVECTORF32@1@B
CONST	SEGMENT
?g_XMTanCoefficients1@DirectX@@3UXMVECTORF32@1@B DD 03cb327a4r ; 0.0218695 ; DirectX::g_XMTanCoefficients1
	DD	03c11371br			; 0.00886324
	DD	03b6b69e9r			; 0.00359213
	DD	03abed1b3r			; 0.00145583
CONST	ENDS
;	COMDAT ?g_XMTanCoefficients0@DirectX@@3UXMVECTORF32@1@B
CONST	SEGMENT
?g_XMTanCoefficients0@DirectX@@3UXMVECTORF32@1@B DD 03f800000r ; 1 ; DirectX::g_XMTanCoefficients0
	DD	03eaaaaabr			; 0.333333
	DD	03e088889r			; 0.133333
	DD	03d5d0dd1r			; 0.0539683
CONST	ENDS
;	COMDAT ?g_XMCosCoefficients1@DirectX@@3UXMVECTORF32@1@B
CONST	SEGMENT
?g_XMCosCoefficients1@DirectX@@3UXMVECTORF32@1@B DD 0b48bdd11r ; -2.60516e-07 ; DirectX::g_XMCosCoefficients1
	DD	0befff67er			; -0.499927
	DD	03d29f587r			; 0.0414939
	DD	0baa69fdbr			; -0.00127124
CONST	ENDS
;	COMDAT ?g_XMCosCoefficients0@DirectX@@3UXMVECTORF32@1@B
CONST	SEGMENT
?g_XMCosCoefficients0@DirectX@@3UXMVECTORF32@1@B DD 0bf000000r ; -0.5 ; DirectX::g_XMCosCoefficients0
	DD	03d2aaaa3r			; 0.0416666
	DD	0bab609aar			; -0.00138884
	DD	037cfb4c2r			; 2.47605e-05
CONST	ENDS
;	COMDAT ?g_XMSinCoefficients1@DirectX@@3UXMVECTORF32@1@B
CONST	SEGMENT
?g_XMSinCoefficients1@DirectX@@3UXMVECTORF32@1@B DD 0b2cd365br ; -2.38899e-08 ; DirectX::g_XMSinCoefficients1
	DD	0be2aa888r			; -0.166659
	DD	03c08373cr			; 0.00831395
	DD	0b9423ec8r			; -0.000185247
CONST	ENDS
;	COMDAT ?g_XMSinCoefficients0@DirectX@@3UXMVECTORF32@1@B
CONST	SEGMENT
?g_XMSinCoefficients0@DirectX@@3UXMVECTORF32@1@B DD 0be2aaaabr ; -0.166667 ; DirectX::g_XMSinCoefficients0
	DD	03c088886r			; 0.00833333
	DD	0b9500bf1r			; -0.000198409
	DD	03638b88er			; 2.75256e-06
CONST	ENDS
;	COMDAT c_DwmMaxAdapters
CONST	SEGMENT
c_DwmMaxAdapters DD 010H
CONST	ENDS
;	COMDAT c_DwmMaxMonitors
CONST	SEGMENT
c_DwmMaxMonitors DD 010H
CONST	ENDS
;	COMDAT c_DwmMaxQueuedBuffers
CONST	SEGMENT
c_DwmMaxQueuedBuffers DD 08H
CONST	ENDS
;	COMDAT ??_C@_04PBAHLACE@File@
CONST	SEGMENT
??_C@_04PBAHLACE@File@ DB 'File', 00H			; `string'
CONST	ENDS
;	COMDAT ??_C@_09PKFILKGD@Shareable@
CONST	SEGMENT
??_C@_09PKFILKGD@Shareable@ DB 'Shareable', 00H		; `string'
CONST	ENDS
;	COMDAT ??_C@_0L@DHBAIELD@DriverLock@
CONST	SEGMENT
??_C@_0L@DHBAIELD@DriverLock@ DB 'DriverLock', 00H	; `string'
CONST	ENDS
;	COMDAT ??_C@_09MFCNICMF@LargePage@
CONST	SEGMENT
??_C@_09MFCNICMF@LargePage@ DB 'LargePage', 00H		; `string'
CONST	ENDS
;	COMDAT ??_C@_09BGPMMIPE@PageTable@
CONST	SEGMENT
??_C@_09BGPMMIPE@PageTable@ DB 'PageTable', 00H		; `string'
CONST	ENDS
;	COMDAT ??_C@_08LBAJPEDB@ProcPriv@
CONST	SEGMENT
??_C@_08LBAJPEDB@ProcPriv@ DB 'ProcPriv', 00H		; `string'
CONST	ENDS
;	COMDAT ??_C@_06CGLFEPBO@Unused@
CONST	SEGMENT
??_C@_06CGLFEPBO@Unused@ DB 'Unused', 00H		; `string'
CONST	ENDS
;	COMDAT ??_C@_01JOAMLHOP@?9@
CONST	SEGMENT
??_C@_01JOAMLHOP@?9@ DB '-', 00H			; `string'
CONST	ENDS
;	COMDAT ??_C@_07KADDEKFE@Transit@
CONST	SEGMENT
??_C@_07KADDEKFE@Transit@ DB 'Transit', 00H		; `string'
CONST	ENDS
;	COMDAT ??_C@_06MAFFGDO@Active@
CONST	SEGMENT
??_C@_06MAFFGDO@Active@ DB 'Active', 00H		; `string'
CONST	ENDS
;	COMDAT ??_C@_03KHCCLPOB@Bad@
CONST	SEGMENT
??_C@_03KHCCLPOB@Bad@ DB 'Bad', 00H			; `string'
CONST	ENDS
;	COMDAT ??_C@_07DGKCKENG@ModNoWr@
CONST	SEGMENT
??_C@_07DGKCKENG@ModNoWr@ DB 'ModNoWr', 00H		; `string'
CONST	ENDS
;	COMDAT ??_C@_07PFEKAJBJ@Modifiy@
CONST	SEGMENT
??_C@_07PFEKAJBJ@Modifiy@ DB 'Modifiy', 00H		; `string'
CONST	ENDS
;	COMDAT ??_C@_07LNBDIIPN@Standby@
CONST	SEGMENT
??_C@_07LNBDIIPN@Standby@ DB 'Standby', 00H		; `string'
CONST	ENDS
;	COMDAT ??_C@_04HJMOFLDF@Free@
CONST	SEGMENT
??_C@_04HJMOFLDF@Free@ DB 'Free', 00H			; `string'
CONST	ENDS
;	COMDAT ??_C@_04PCJGBDOP@Zero@
CONST	SEGMENT
??_C@_04PCJGBDOP@Zero@ DB 'Zero', 00H			; `string'
CONST	ENDS
;	COMDAT CLSID_CUrlHistoryBoth
CONST	SEGMENT
CLSID_CUrlHistoryBoth DD 06659983cH
	DW	08476H
	DW	04eb4H
	DB	0b7H
	DB	08cH
	DB	0e5H
	DB	096H
	DB	08fH
	DB	032H
	DB	06bH
	DB	0a0H
CONST	ENDS
;	COMDAT CLSID_CUrlHistory
CONST	SEGMENT
CLSID_CUrlHistory DD 03c374a40H
	DW	0bae4H
	DW	011cfH
	DB	0bfH
	DB	07dH
	DB	00H
	DB	0aaH
	DB	00H
	DB	069H
	DB	046H
	DB	0eeH
CONST	ENDS
;	COMDAT ??_C@_05DKFIPBAL@ARM64@
CONST	SEGMENT
??_C@_05DKFIPBAL@ARM64@ DB 'ARM64', 00H			; `string'
CONST	ENDS
;	COMDAT ??_C@_03ELMOGNHL@X64@
CONST	SEGMENT
??_C@_03ELMOGNHL@X64@ DB 'X64', 00H			; `string'
CONST	ENDS
;	COMDAT ??_C@_06IDLKBMKC@X86PAE@
CONST	SEGMENT
??_C@_06IDLKBMKC@X86PAE@ DB 'X86PAE', 00H		; `string'
CONST	ENDS
;	COMDAT ??_C@_03HDGGCCPD@X86@
CONST	SEGMENT
??_C@_03HDGGCCPD@X86@ DB 'X86', 00H			; `string'
CONST	ENDS
;	COMDAT ??_C@_03HPADHAHE@N?1A@
CONST	SEGMENT
??_C@_03HPADHAHE@N?1A@ DB 'N/A', 00H			; `string'
CONST	ENDS
;	COMDAT ??_C@_09DCHLEDFD@LcCommand@
CONST	SEGMENT
??_C@_09DCHLEDFD@LcCommand@ DB 'LcCommand', 00H		; `string'
CONST	ENDS
;	COMDAT ??_C@_0M@FPFAGJPB@LcSetOption@
CONST	SEGMENT
??_C@_0M@FPFAGJPB@LcSetOption@ DB 'LcSetOption', 00H	; `string'
CONST	ENDS
;	COMDAT ??_C@_0M@HBBFEIGD@LcGetOption@
CONST	SEGMENT
??_C@_0M@HBBFEIGD@LcGetOption@ DB 'LcGetOption', 00H	; `string'
CONST	ENDS
;	COMDAT ??_C@_0P@DAJMPOFM@LcWriteScatter@
CONST	SEGMENT
??_C@_0P@DAJMPOFM@LcWriteScatter@ DB 'LcWriteScatter', 00H ; `string'
CONST	ENDS
;	COMDAT ??_C@_07MBHEMNEL@LcWrite@
CONST	SEGMENT
??_C@_07MBHEMNEL@LcWrite@ DB 'LcWrite', 00H		; `string'
CONST	ENDS
;	COMDAT ??_C@_0O@CBBNAKKC@LcReadScatter@
CONST	SEGMENT
??_C@_0O@CBBNAKKC@LcReadScatter@ DB 'LcReadScatter', 00H ; `string'
CONST	ENDS
;	COMDAT ??_C@_06GJPHNGFG@LcRead@
CONST	SEGMENT
??_C@_06GJPHNGFG@LcRead@ DB 'LcRead', 00H		; `string'
CONST	ENDS
;	COMDAT ??_C@_06GLKGGCJO@LcOpen@
CONST	SEGMENT
??_C@_06GLKGGCJO@LcOpen@ DB 'LcOpen', 00H		; `string'
CONST	ENDS
CONST	SEGMENT
?stbi__jbias@@3QBHB DD 00H				; stbi__jbias
	DD	0ffffffffH
	DD	0fffffffdH
	DD	0fffffff9H
	DD	0fffffff1H
	DD	0ffffffe1H
	DD	0ffffffc1H
	DD	0ffffff81H
	DD	0ffffff01H
	DD	0fffffe01H
	DD	0fffffc01H
	DD	0fffff801H
	DD	0fffff001H
	DD	0ffffe001H
	DD	0ffffc001H
	DD	0ffff8001H
?NoInit@asmjit@@3U_NoInit@1@B	ORG $+1			; asmjit::NoInit
CONST	ENDS
PUBLIC	??_H@YAXPEAX_K1P6APEAX0@Z@Z			; `vector constructor iterator'
PUBLIC	??2@YAPEAX_KPEAX@Z				; operator new
PUBLIC	?_Fnv1a_append_bytes@std@@YA_K_KQEBE_K@Z	; std::_Fnv1a_append_bytes
PUBLIC	ldexpf
PUBLIC	?assign@?$_Narrow_char_traits@DH@std@@SAXAEADAEBD@Z ; std::_Narrow_char_traits<char,int>::assign
PUBLIC	??0exception@std@@QEAA@QEBDH@Z			; std::exception::exception
PUBLIC	??0exception@std@@QEAA@AEBV01@@Z		; std::exception::exception
PUBLIC	??1exception@std@@UEAA@XZ			; std::exception::~exception
PUBLIC	?what@exception@std@@UEBAPEBDXZ			; std::exception::what
PUBLIC	??_Gexception@std@@UEAAPEAXI@Z			; std::exception::`scalar deleting destructor'
PUBLIC	??0bad_alloc@std@@AEAA@QEBD@Z			; std::bad_alloc::bad_alloc
PUBLIC	??1bad_alloc@std@@UEAA@XZ			; std::bad_alloc::~bad_alloc
PUBLIC	??0bad_alloc@std@@QEAA@AEBV01@@Z		; std::bad_alloc::bad_alloc
PUBLIC	??_Gbad_alloc@std@@UEAAPEAXI@Z			; std::bad_alloc::`scalar deleting destructor'
PUBLIC	??0bad_array_new_length@std@@QEAA@XZ		; std::bad_array_new_length::bad_array_new_length
PUBLIC	??1bad_array_new_length@std@@UEAA@XZ		; std::bad_array_new_length::~bad_array_new_length
PUBLIC	??0bad_array_new_length@std@@QEAA@AEBV01@@Z	; std::bad_array_new_length::bad_array_new_length
PUBLIC	??_Gbad_array_new_length@std@@UEAAPEAXI@Z	; std::bad_array_new_length::`scalar deleting destructor'
PUBLIC	?_Throw_bad_array_new_length@std@@YAXXZ		; std::_Throw_bad_array_new_length
PUBLIC	?_Allocate@_Default_allocate_traits@std@@SAPEAX_K@Z ; std::_Default_allocate_traits::_Allocate
PUBLIC	?_Adjust_manually_vector_aligned@std@@YAXAEAPEAXAEA_K@Z ; std::_Adjust_manually_vector_aligned
PUBLIC	?_Orphan_all@_Container_base0@std@@QEAAXXZ	; std::_Container_base0::_Orphan_all
PUBLIC	?_Alloc_proxy@_Container_base0@std@@QEAAXAEBU_Fake_allocator@2@@Z ; std::_Container_base0::_Alloc_proxy
PUBLIC	?_Adopt@_Iterator_base0@std@@QEAAXPEBX@Z	; std::_Iterator_base0::_Adopt
PUBLIC	??0_Fake_proxy_ptr_impl@std@@QEAA@AEBU_Fake_allocator@1@AEBU_Container_base0@1@@Z ; std::_Fake_proxy_ptr_impl::_Fake_proxy_ptr_impl
PUBLIC	?_Release@_Fake_proxy_ptr_impl@std@@QEAAXXZ	; std::_Fake_proxy_ptr_impl::_Release
PUBLIC	??0?$tuple@$$V@std@@QEAA@AEBV01@@Z		; std::tuple<>::tuple<>
PUBLIC	??0?$allocator@D@std@@QEAA@XZ			; std::allocator<char>::allocator<char>
PUBLIC	?deallocate@?$allocator@D@std@@QEAAXQEAD_K@Z	; std::allocator<char>::deallocate
PUBLIC	??0?$_String_val@U?$_Simple_types@D@std@@@std@@QEAA@XZ ; std::_String_val<std::_Simple_types<char> >::_String_val<std::_Simple_types<char> >
PUBLIC	?_Myptr@?$_String_val@U?$_Simple_types@D@std@@@std@@QEBAPEBDXZ ; std::_String_val<std::_Simple_types<char> >::_Myptr
PUBLIC	?_Large_mode_engaged@?$_String_val@U?$_Simple_types@D@std@@@std@@QEBA_NXZ ; std::_String_val<std::_Simple_types<char> >::_Large_mode_engaged
PUBLIC	?_Activate_SSO_buffer@?$_String_val@U?$_Simple_types@D@std@@@std@@QEAAXXZ ; std::_String_val<std::_Simple_types<char> >::_Activate_SSO_buffer
PUBLIC	??0_Bxty@?$_String_val@U?$_Simple_types@D@std@@@std@@QEAA@XZ ; std::_String_val<std::_Simple_types<char> >::_Bxty::_Bxty
PUBLIC	??1_Bxty@?$_String_val@U?$_Simple_types@D@std@@@std@@QEAA@XZ ; std::_String_val<std::_Simple_types<char> >::_Bxty::~_Bxty
PUBLIC	?_Switch_to_buf@_Bxty@?$_String_val@U?$_Simple_types@D@std@@@std@@QEAAXXZ ; std::_String_val<std::_Simple_types<char> >::_Bxty::_Switch_to_buf
PUBLIC	??1?$_String_val@U?$_Simple_types@D@std@@@std@@QEAA@XZ ; std::_String_val<std::_Simple_types<char> >::~_String_val<std::_Simple_types<char> >
PUBLIC	??0?$basic_string@DU?$char_traits@D@std@@V?$allocator@D@2@@std@@QEAA@XZ ; std::basic_string<char,std::char_traits<char>,std::allocator<char> >::basic_string<char,std::char_traits<char>,std::allocator<char> >
PUBLIC	?_Deallocate_for_capacity@?$basic_string@DU?$char_traits@D@std@@V?$allocator@D@2@@std@@CAXAEAV?$allocator@D@2@QEAD_K@Z ; std::basic_string<char,std::char_traits<char>,std::allocator<char> >::_Deallocate_for_capacity
PUBLIC	?_Construct_empty@?$basic_string@DU?$char_traits@D@std@@V?$allocator@D@2@@std@@AEAAXXZ ; std::basic_string<char,std::char_traits<char>,std::allocator<char> >::_Construct_empty
PUBLIC	??1?$basic_string@DU?$char_traits@D@std@@V?$allocator@D@2@@std@@QEAA@XZ ; std::basic_string<char,std::char_traits<char>,std::allocator<char> >::~basic_string<char,std::char_traits<char>,std::allocator<char> >
PUBLIC	?c_str@?$basic_string@DU?$char_traits@D@std@@V?$allocator@D@2@@std@@QEBAPEBDXZ ; std::basic_string<char,std::char_traits<char>,std::allocator<char> >::c_str
PUBLIC	?_Tidy_deallocate@?$basic_string@DU?$char_traits@D@std@@V?$allocator@D@2@@std@@AEAAXXZ ; std::basic_string<char,std::char_traits<char>,std::allocator<char> >::_Tidy_deallocate
PUBLIC	?_Getal@?$basic_string@DU?$char_traits@D@std@@V?$allocator@D@2@@std@@AEAAAEAV?$allocator@D@2@XZ ; std::basic_string<char,std::char_traits<char>,std::allocator<char> >::_Getal
PUBLIC	?_Get_first@?$_Compressed_pair@V?$allocator@D@std@@V?$_String_val@U?$_Simple_types@D@std@@@2@$00@std@@QEAAAEAV?$allocator@D@2@XZ ; std::_Compressed_pair<std::allocator<char>,std::_String_val<std::_Simple_types<char> >,1>::_Get_first
PUBLIC	??1?$_Compressed_pair@V?$allocator@D@std@@V?$_String_val@U?$_Simple_types@D@std@@@2@$00@std@@QEAA@XZ ; std::_Compressed_pair<std::allocator<char>,std::_String_val<std::_Simple_types<char> >,1>::~_Compressed_pair<std::allocator<char>,std::_String_val<std::_Simple_types<char> >,1>
PUBLIC	?_Decref@_Ref_count_base@std@@QEAAXXZ		; std::_Ref_count_base::_Decref
PUBLIC	?_Decwref@_Ref_count_base@std@@QEAAXXZ		; std::_Ref_count_base::_Decwref
PUBLIC	?ldexp@@YAMMH@Z					; ldexp
PUBLIC	?pow@@YAMMM@Z					; pow
PUBLIC	?_Floor_of_log_2@std@@YAK_K@Z			; std::_Floor_of_log_2
PUBLIC	?_Ceiling_of_log_2@std@@YAK_K@Z			; std::_Ceiling_of_log_2
PUBLIC	??R?$_Conditionally_enabled_hash@H$00@std@@QEBA_KAEBH@Z ; std::_Conditionally_enabled_hash<int,1>::operator()
PUBLIC	?_Do_hash@?$hash@H@std@@SA_KAEBH@Z		; std::hash<int>::_Do_hash
PUBLIC	?_Throw_tree_length_error@std@@YAXXZ		; std::_Throw_tree_length_error
PUBLIC	??0?$_Func_class@X$$V@std@@QEAA@XZ		; std::_Func_class<void>::_Func_class<void>
PUBLIC	??R?$_Func_class@X$$V@std@@QEBAXXZ		; std::_Func_class<void>::operator()
PUBLIC	??1?$_Func_class@X$$V@std@@QEAA@XZ		; std::_Func_class<void>::~_Func_class<void>
PUBLIC	?_Empty@?$_Func_class@X$$V@std@@IEBA_NXZ	; std::_Func_class<void>::_Empty
PUBLIC	?_Reset_copy@?$_Func_class@X$$V@std@@IEAAXAEBV12@@Z ; std::_Func_class<void>::_Reset_copy
PUBLIC	?_Reset_move@?$_Func_class@X$$V@std@@IEAAX$$QEAV12@@Z ; std::_Func_class<void>::_Reset_move
PUBLIC	?_Tidy@?$_Func_class@X$$V@std@@IEAAXXZ		; std::_Func_class<void>::_Tidy
PUBLIC	?_Local@?$_Func_class@X$$V@std@@AEBA_NXZ	; std::_Func_class<void>::_Local
PUBLIC	?_Getimpl@?$_Func_class@X$$V@std@@AEBAPEAV?$_Func_base@X$$V@2@XZ ; std::_Func_class<void>::_Getimpl
PUBLIC	?_Set@?$_Func_class@X$$V@std@@AEAAXPEAV?$_Func_base@X$$V@2@@Z ; std::_Func_class<void>::_Set
PUBLIC	??0?$function@$$A6AXXZ@std@@QEAA@AEBV01@@Z	; std::function<void __cdecl(void)>::function<void __cdecl(void)>
PUBLIC	??0?$function@$$A6AXXZ@std@@QEAA@$$QEAV01@@Z	; std::function<void __cdecl(void)>::function<void __cdecl(void)>
PUBLIC	??B?$function@$$A6AXXZ@std@@QEBA_NXZ		; std::function<void __cdecl(void)>::operator bool
PUBLIC	??1?$function@$$A6AXXZ@std@@QEAA@XZ		; std::function<void __cdecl(void)>::~function<void __cdecl(void)>
PUBLIC	??_G?$function@$$A6AXXZ@std@@QEAAPEAXI@Z	; std::function<void __cdecl(void)>::`scalar deleting destructor'
PUBLIC	??$move@AEAV?$function@$$A6AXXZ@std@@@std@@YA$$QEAV?$function@$$A6AXXZ@0@AEAV10@@Z ; std::move<std::function<void __cdecl(void)> &>
PUBLIC	??0?$allocator@V?$function@$$A6AXXZ@std@@@std@@QEAA@XZ ; std::allocator<std::function<void __cdecl(void)> >::allocator<std::function<void __cdecl(void)> >
PUBLIC	?deallocate@?$allocator@V?$function@$$A6AXXZ@std@@@std@@QEAAXQEAV?$function@$$A6AXXZ@2@_K@Z ; std::allocator<std::function<void __cdecl(void)> >::deallocate
PUBLIC	?allocate@?$allocator@V?$function@$$A6AXXZ@std@@@std@@QEAAPEAV?$function@$$A6AXXZ@2@_K@Z ; std::allocator<std::function<void __cdecl(void)> >::allocate
PUBLIC	?max_size@?$_Default_allocator_traits@V?$allocator@V?$function@$$A6AXXZ@std@@@std@@@std@@SA_KAEBV?$allocator@V?$function@$$A6AXXZ@std@@@2@@Z ; std::_Default_allocator_traits<std::allocator<std::function<void __cdecl(void)> > >::max_size
PUBLIC	??0?$allocator@U?$_List_node@V?$function@$$A6AXXZ@std@@PEAX@std@@@std@@QEAA@XZ ; std::allocator<std::_List_node<std::function<void __cdecl(void)>,void *> >::allocator<std::_List_node<std::function<void __cdecl(void)>,void *> >
PUBLIC	?allocate@?$allocator@U?$_List_node@V?$function@$$A6AXXZ@std@@PEAX@std@@@std@@QEAAPEAU?$_List_node@V?$function@$$A6AXXZ@std@@PEAX@2@_K@Z ; std::allocator<std::_List_node<std::function<void __cdecl(void)>,void *> >::allocate
PUBLIC	?deallocate@?$_Default_allocator_traits@V?$allocator@U?$_List_node@V?$function@$$A6AXXZ@std@@PEAX@std@@@std@@@std@@SAXAEAV?$allocator@U?$_List_node@V?$function@$$A6AXXZ@std@@PEAX@std@@@2@QEAU?$_List_node@V?$function@$$A6AXXZ@std@@PEAX@2@_K@Z ; std::_Default_allocator_traits<std::allocator<std::_List_node<std::function<void __cdecl(void)>,void *> > >::deallocate
PUBLIC	??0?$list@V?$function@$$A6AXXZ@std@@V?$allocator@V?$function@$$A6AXXZ@std@@@2@@std@@QEAA@XZ ; std::list<std::function<void __cdecl(void)>,std::allocator<std::function<void __cdecl(void)> > >::list<std::function<void __cdecl(void)>,std::allocator<std::function<void __cdecl(void)> > >
PUBLIC	??1?$list@V?$function@$$A6AXXZ@std@@V?$allocator@V?$function@$$A6AXXZ@std@@@2@@std@@QEAA@XZ ; std::list<std::function<void __cdecl(void)>,std::allocator<std::function<void __cdecl(void)> > >::~list<std::function<void __cdecl(void)>,std::allocator<std::function<void __cdecl(void)> > >
PUBLIC	?begin@?$list@V?$function@$$A6AXXZ@std@@V?$allocator@V?$function@$$A6AXXZ@std@@@2@@std@@QEAA?AV?$_List_iterator@V?$_List_val@U?$_List_simple_types@V?$function@$$A6AXXZ@std@@@std@@@std@@@2@XZ ; std::list<std::function<void __cdecl(void)>,std::allocator<std::function<void __cdecl(void)> > >::begin
PUBLIC	?end@?$list@V?$function@$$A6AXXZ@std@@V?$allocator@V?$function@$$A6AXXZ@std@@@2@@std@@QEAA?AV?$_List_iterator@V?$_List_val@U?$_List_simple_types@V?$function@$$A6AXXZ@std@@@std@@@std@@@2@XZ ; std::list<std::function<void __cdecl(void)>,std::allocator<std::function<void __cdecl(void)> > >::end
PUBLIC	?clear@?$list@V?$function@$$A6AXXZ@std@@V?$allocator@V?$function@$$A6AXXZ@std@@@2@@std@@QEAAXXZ ; std::list<std::function<void __cdecl(void)>,std::allocator<std::function<void __cdecl(void)> > >::clear
PUBLIC	?_Tidy@?$list@V?$function@$$A6AXXZ@std@@V?$allocator@V?$function@$$A6AXXZ@std@@@2@@std@@AEAAXXZ ; std::list<std::function<void __cdecl(void)>,std::allocator<std::function<void __cdecl(void)> > >::_Tidy
PUBLIC	?_Alloc_sentinel_and_proxy@?$list@V?$function@$$A6AXXZ@std@@V?$allocator@V?$function@$$A6AXXZ@std@@@2@@std@@AEAAXXZ ; std::list<std::function<void __cdecl(void)>,std::allocator<std::function<void __cdecl(void)> > >::_Alloc_sentinel_and_proxy
PUBLIC	?_Getal@?$list@V?$function@$$A6AXXZ@std@@V?$allocator@V?$function@$$A6AXXZ@std@@@2@@std@@AEAAAEAV?$allocator@U?$_List_node@V?$function@$$A6AXXZ@std@@PEAX@std@@@2@XZ ; std::list<std::function<void __cdecl(void)>,std::allocator<std::function<void __cdecl(void)> > >::_Getal
PUBLIC	??0?$_List_val@U?$_List_simple_types@V?$function@$$A6AXXZ@std@@@std@@@std@@QEAA@XZ ; std::_List_val<std::_List_simple_types<std::function<void __cdecl(void)> > >::_List_val<std::_List_simple_types<std::function<void __cdecl(void)> > >
PUBLIC	?_Orphan_non_end@?$_List_val@U?$_List_simple_types@V?$function@$$A6AXXZ@std@@@std@@@std@@QEAAXXZ ; std::_List_val<std::_List_simple_types<std::function<void __cdecl(void)> > >::_Orphan_non_end
PUBLIC	?_Get_first@?$_Compressed_pair@V?$allocator@U?$_List_node@V?$function@$$A6AXXZ@std@@PEAX@std@@@std@@V?$_List_val@U?$_List_simple_types@V?$function@$$A6AXXZ@std@@@std@@@2@$00@std@@QEAAAEAV?$allocator@U?$_List_node@V?$function@$$A6AXXZ@std@@PEAX@std@@@2@XZ ; std::_Compressed_pair<std::allocator<std::_List_node<std::function<void __cdecl(void)>,void *> >,std::_List_val<std::_List_simple_types<std::function<void __cdecl(void)> > >,1>::_Get_first
PUBLIC	??$min@_K@std@@YAAEB_KAEB_K0@Z			; std::min<unsigned __int64>
PUBLIC	??0WSInit@detail@httplib@@QEAA@XZ		; httplib::detail::WSInit::WSInit
PUBLIC	??1WSInit@detail@httplib@@QEAA@XZ		; httplib::detail::WSInit::~WSInit
PUBLIC	??0SSLInit@detail@httplib@@QEAA@XZ		; httplib::detail::SSLInit::SSLInit
PUBLIC	?MakeVectorRegister@Math@Core@IronMan@@YA?AT__m128@@IIII@Z ; IronMan::Core::Math::MakeVectorRegister
PUBLIC	?MakeVectorRegister@Math@Core@IronMan@@YA?AT__m128@@MMMM@Z ; IronMan::Core::Math::MakeVectorRegister
PUBLIC	??0ImVec2@@QEAA@MM@Z				; ImVec2::ImVec2
PUBLIC	??0ImVec4@@QEAA@XZ				; ImVec4::ImVec4
PUBLIC	??0ImVec4@@QEAA@MMMM@Z				; ImVec4::ImVec4
PUBLIC	??0ImColor@@QEAA@HHHH@Z				; ImColor::ImColor
PUBLIC	??BImColor@@QEBA?AUImVec4@@XZ			; ImColor::operator ImVec4
PUBLIC	?Initialize@OverlayEngine@Core@IronMan@@SA_NXZ	; IronMan::Core::OverlayEngine::Initialize
PUBLIC	?InitWindow@OverlayEngine@Core@IronMan@@SAXXZ	; IronMan::Core::OverlayEngine::InitWindow
PUBLIC	?HideWindow@OverlayEngine@Core@IronMan@@SAXXZ	; IronMan::Core::OverlayEngine::HideWindow
PUBLIC	?Start@OverlayEngine@Core@IronMan@@SAXXZ	; IronMan::Core::OverlayEngine::Start
PUBLIC	?Shutdown@OverlayEngine@Core@IronMan@@SAXXZ	; IronMan::Core::OverlayEngine::Shutdown
PUBLIC	?bInitSuccess@OverlayEngine@Core@IronMan@@SA_NXZ ; IronMan::Core::OverlayEngine::bInitSuccess
PUBLIC	?UpdateTargetWindow@OverlayEngine@Core@IronMan@@SAXXZ ; IronMan::Core::OverlayEngine::UpdateTargetWindow
PUBLIC	?Transparent@OverlayEngine@Core@IronMan@@SAXXZ	; IronMan::Core::OverlayEngine::Transparent
PUBLIC	?UnTransparent@OverlayEngine@Core@IronMan@@SAXXZ ; IronMan::Core::OverlayEngine::UnTransparent
PUBLIC	?GetKeyState@OverlayEngine@Core@IronMan@@SAFI@Z	; IronMan::Core::OverlayEngine::GetKeyState
PUBLIC	?IsKeyDown@OverlayEngine@Core@IronMan@@SA_NI@Z	; IronMan::Core::OverlayEngine::IsKeyDown
PUBLIC	?WasKeyPressed@OverlayEngine@Core@IronMan@@SA_NI@Z ; IronMan::Core::OverlayEngine::WasKeyPressed
PUBLIC	?SetKeyPressed@OverlayEngine@Core@IronMan@@SAXI_N@Z ; IronMan::Core::OverlayEngine::SetKeyPressed
PUBLIC	?UpdateKeyState@OverlayEngine@Core@IronMan@@SAXXZ ; IronMan::Core::OverlayEngine::UpdateKeyState
PUBLIC	?RegisterHotkey@OverlayEngine@Core@IronMan@@SAXIV?$function@$$A6AXXZ@std@@@Z ; IronMan::Core::OverlayEngine::RegisterHotkey
PUBLIC	?RemoveHotkey@OverlayEngine@Core@IronMan@@SAXI@Z ; IronMan::Core::OverlayEngine::RemoveHotkey
PUBLIC	?ActiveWindow@OverlayEngine@Core@IronMan@@SAXPEAUHWND__@@@Z ; IronMan::Core::OverlayEngine::ActiveWindow
PUBLIC	?CreateTexture@OverlayEngine@Core@IronMan@@SAPEAXPEBD_K@Z ; IronMan::Core::OverlayEngine::CreateTexture
PUBLIC	?GetViewPort@OverlayEngine@Core@IronMan@@SA?AUImVec2@@XZ ; IronMan::Core::OverlayEngine::GetViewPort
PUBLIC	?ProcessFunction@OverlayEngine@Core@IronMan@@SAXXZ ; IronMan::Core::OverlayEngine::ProcessFunction
PUBLIC	?SetupWindow@OverlayEngine@Core@IronMan@@CA_NXZ	; IronMan::Core::OverlayEngine::SetupWindow
PUBLIC	?CreateDirect3D@OverlayEngine@Core@IronMan@@CA_NXZ ; IronMan::Core::OverlayEngine::CreateDirect3D
PUBLIC	?InitializeImgui@OverlayEngine@Core@IronMan@@CA_NXZ ; IronMan::Core::OverlayEngine::InitializeImgui
PUBLIC	?Update@OverlayEngine@Core@IronMan@@CAXXZ	; IronMan::Core::OverlayEngine::Update
PUBLIC	?Tick@OverlayEngine@Core@IronMan@@CAXXZ		; IronMan::Core::OverlayEngine::Tick
PUBLIC	?Render@OverlayEngine@Core@IronMan@@CAXXZ	; IronMan::Core::OverlayEngine::Render
PUBLIC	?CreateRenderTarget@OverlayEngine@Core@IronMan@@CAXXZ ; IronMan::Core::OverlayEngine::CreateRenderTarget
PUBLIC	?CleanupRenderTarget@OverlayEngine@Core@IronMan@@CAXXZ ; IronMan::Core::OverlayEngine::CleanupRenderTarget
PUBLIC	?WindowProc@OverlayEngine@Core@IronMan@@CA_JPEAUHWND__@@I_K_J@Z ; IronMan::Core::OverlayEngine::WindowProc
PUBLIC	?ProcessMessage@OverlayEngine@Core@IronMan@@CA_NI_K_J@Z ; IronMan::Core::OverlayEngine::ProcessMessage
PUBLIC	?ProcessMouseMessage@OverlayEngine@Core@IronMan@@CA_NI_K_J@Z ; IronMan::Core::OverlayEngine::ProcessMouseMessage
PUBLIC	?ProcessKeybdMessage@OverlayEngine@Core@IronMan@@CA_NI_K_J@Z ; IronMan::Core::OverlayEngine::ProcessKeybdMessage
PUBLIC	?now@system_clock@chrono@std@@SA?AV?$time_point@Usystem_clock@chrono@std@@V?$duration@_JU?$ratio@$00$0JIJGIA@@std@@@23@@23@XZ ; std::chrono::system_clock::now
PUBLIC	??0?$time_point@Usystem_clock@chrono@std@@V?$duration@_JU?$ratio@$00$0JIJGIA@@std@@@23@@chrono@std@@QEAA@AEBV?$duration@_JU?$ratio@$00$0JIJGIA@@std@@@12@@Z ; std::chrono::time_point<std::chrono::system_clock,std::chrono::duration<__int64,std::ratio<1,10000000> > >::time_point<std::chrono::system_clock,std::chrono::duration<__int64,std::ratio<1,10000000> > >
PUBLIC	??$?0_J$0A@@?$duration@_JU?$ratio@$00$0JIJGIA@@std@@@chrono@std@@QEAA@AEB_J@Z ; std::chrono::duration<__int64,std::ratio<1,10000000> >::duration<__int64,std::ratio<1,10000000> ><__int64,0>
PUBLIC	??1BaseProcessInfo@IronMan@@QEAA@XZ		; IronMan::BaseProcessInfo::~BaseProcessInfo
PUBLIC	?_Decref@?$_Ptr_base@V?$unordered_map@PEAXV?$vector@UScatterStruct@IronMan@@V?$allocator@UScatterStruct@IronMan@@@std@@@std@@U?$hash@PEAX@2@U?$equal_to@PEAX@2@V?$allocator@U?$pair@QEAXV?$vector@UScatterStruct@IronMan@@V?$allocator@UScatterStruct@IronMan@@@std@@@std@@@std@@@2@@std@@@std@@IEAAXXZ ; std::_Ptr_base<std::unordered_map<void *,std::vector<IronMan::ScatterStruct,std::allocator<IronMan::ScatterStruct> >,std::hash<void *>,std::equal_to<void *>,std::allocator<std::pair<void * const,std::vector<IronMan::ScatterStruct,std::allocator<IronMan::ScatterStruct> > > > > >::_Decref
PUBLIC	??1?$shared_ptr@V?$unordered_map@PEAXV?$vector@UScatterStruct@IronMan@@V?$allocator@UScatterStruct@IronMan@@@std@@@std@@U?$hash@PEAX@2@U?$equal_to@PEAX@2@V?$allocator@U?$pair@QEAXV?$vector@UScatterStruct@IronMan@@V?$allocator@UScatterStruct@IronMan@@@std@@@std@@@std@@@2@@std@@@std@@QEAA@XZ ; std::shared_ptr<std::unordered_map<void *,std::vector<IronMan::ScatterStruct,std::allocator<IronMan::ScatterStruct> >,std::hash<void *>,std::equal_to<void *>,std::allocator<std::pair<void * const,std::vector<IronMan::ScatterStruct,std::allocator<IronMan::ScatterStruct> > > > > >::~shared_ptr<std::unordered_map<void *,std::vector<IronMan::ScatterStruct,std::allocator<IronMan::ScatterStruct> >,std::hash<void *>,std::equal_to<void *>,std::allocator<std::pair<void * const,std::vector<IronMan::ScatterStruct,std::allocator<IronMan::ScatterStruct> > > > > >
PUBLIC	?GetDMA@IronMan@@YAAEAVDMAHandler@1@XZ		; IronMan::GetDMA
PUBLIC	??0FName@SDK@Core@IronMan@@QEAA@H@Z		; IronMan::Core::SDK::FName::FName
PUBLIC	??R?$less@H@std@@QEBA_NAEBH0@Z			; std::less<int>::operator()
PUBLIC	??$move@AEAH@std@@YA$$QEAHAEAH@Z		; std::move<int &>
PUBLIC	stbi_load
PUBLIC	stbi_load_from_memory
PUBLIC	stbi_load_from_callbacks
PUBLIC	stbi_load_from_file
PUBLIC	stbi_loadf
PUBLIC	stbi_loadf_from_memory
PUBLIC	stbi_loadf_from_callbacks
PUBLIC	stbi_loadf_from_file
PUBLIC	stbi_hdr_to_ldr_gamma
PUBLIC	stbi_hdr_to_ldr_scale
PUBLIC	stbi_ldr_to_hdr_gamma
PUBLIC	stbi_ldr_to_hdr_scale
PUBLIC	stbi_is_hdr_from_callbacks
PUBLIC	stbi_is_hdr_from_memory
PUBLIC	stbi_is_hdr
PUBLIC	stbi_is_hdr_from_file
PUBLIC	stbi_failure_reason
PUBLIC	stbi_image_free
PUBLIC	stbi_info_from_memory
PUBLIC	stbi_info_from_callbacks
PUBLIC	stbi_info
PUBLIC	stbi_info_from_file
PUBLIC	stbi_set_unpremultiply_on_load
PUBLIC	stbi_convert_iphone_png_to_rgb
PUBLIC	stbi_set_flip_vertically_on_load
PUBLIC	stbi_zlib_decode_malloc_guesssize
PUBLIC	stbi_zlib_decode_malloc_guesssize_headerflag
PUBLIC	stbi_zlib_decode_malloc
PUBLIC	stbi_zlib_decode_buffer
PUBLIC	stbi_zlib_decode_noheader_malloc
PUBLIC	stbi_zlib_decode_noheader_buffer
PUBLIC	??BXMVECTORF32@DirectX@@QEBAPEBMXZ		; DirectX::XMVECTORF32::operator float const *
PUBLIC	??0?$delegate@$$A6AXXZ@@QEAA@XZ			; delegate<void __cdecl(void)>::delegate<void __cdecl(void)>
PUBLIC	??1?$delegate@$$A6AXXZ@@QEAA@XZ			; delegate<void __cdecl(void)>::~delegate<void __cdecl(void)>
PUBLIC	??R?$delegate@$$A6AXXZ@@QEAAXXZ			; delegate<void __cdecl(void)>::operator()
PUBLIC	??0?$delegate@$$A6AXAEAUWndEventArgs@Core@IronMan@@@Z@@QEAA@XZ ; delegate<void __cdecl(IronMan::Core::WndEventArgs &)>::delegate<void __cdecl(IronMan::Core::WndEventArgs &)>
PUBLIC	??1?$delegate@$$A6AXAEAUWndEventArgs@Core@IronMan@@@Z@@QEAA@XZ ; delegate<void __cdecl(IronMan::Core::WndEventArgs &)>::~delegate<void __cdecl(IronMan::Core::WndEventArgs &)>
PUBLIC	??0?$allocator@U?$_List_node@V?$function@$$A6AXAEAUWndEventArgs@Core@IronMan@@@Z@std@@PEAX@std@@@std@@QEAA@XZ ; std::allocator<std::_List_node<std::function<void __cdecl(IronMan::Core::WndEventArgs &)>,void *> >::allocator<std::_List_node<std::function<void __cdecl(IronMan::Core::WndEventArgs &)>,void *> >
PUBLIC	?allocate@?$allocator@U?$_List_node@V?$function@$$A6AXAEAUWndEventArgs@Core@IronMan@@@Z@std@@PEAX@std@@@std@@QEAAPEAU?$_List_node@V?$function@$$A6AXAEAUWndEventArgs@Core@IronMan@@@Z@std@@PEAX@2@_K@Z ; std::allocator<std::_List_node<std::function<void __cdecl(IronMan::Core::WndEventArgs &)>,void *> >::allocate
PUBLIC	?deallocate@?$_Default_allocator_traits@V?$allocator@U?$_List_node@V?$function@$$A6AXAEAUWndEventArgs@Core@IronMan@@@Z@std@@PEAX@std@@@std@@@std@@SAXAEAV?$allocator@U?$_List_node@V?$function@$$A6AXAEAUWndEventArgs@Core@IronMan@@@Z@std@@PEAX@std@@@2@QEAU?$_List_node@V?$function@$$A6AXAEAUWndEventArgs@Core@IronMan@@@Z@std@@PEAX@2@_K@Z ; std::_Default_allocator_traits<std::allocator<std::_List_node<std::function<void __cdecl(IronMan::Core::WndEventArgs &)>,void *> > >::deallocate
PUBLIC	??0?$list@V?$function@$$A6AXAEAUWndEventArgs@Core@IronMan@@@Z@std@@V?$allocator@V?$function@$$A6AXAEAUWndEventArgs@Core@IronMan@@@Z@std@@@2@@std@@QEAA@XZ ; std::list<std::function<void __cdecl(IronMan::Core::WndEventArgs &)>,std::allocator<std::function<void __cdecl(IronMan::Core::WndEventArgs &)> > >::list<std::function<void __cdecl(IronMan::Core::WndEventArgs &)>,std::allocator<std::function<void __cdecl(IronMan::Core::WndEventArgs &)> > >
PUBLIC	??1?$list@V?$function@$$A6AXAEAUWndEventArgs@Core@IronMan@@@Z@std@@V?$allocator@V?$function@$$A6AXAEAUWndEventArgs@Core@IronMan@@@Z@std@@@2@@std@@QEAA@XZ ; std::list<std::function<void __cdecl(IronMan::Core::WndEventArgs &)>,std::allocator<std::function<void __cdecl(IronMan::Core::WndEventArgs &)> > >::~list<std::function<void __cdecl(IronMan::Core::WndEventArgs &)>,std::allocator<std::function<void __cdecl(IronMan::Core::WndEventArgs &)> > >
PUBLIC	?_Unchecked_begin@?$list@V?$function@$$A6AXAEAUWndEventArgs@Core@IronMan@@@Z@std@@V?$allocator@V?$function@$$A6AXAEAUWndEventArgs@Core@IronMan@@@Z@std@@@2@@std@@QEAA?AV?$_List_unchecked_iterator@V?$_List_val@U?$_List_simple_types@V?$function@$$A6AXAEAUWndEventArgs@Core@IronMan@@@Z@std@@@std@@@std@@@2@XZ ; std::list<std::function<void __cdecl(IronMan::Core::WndEventArgs &)>,std::allocator<std::function<void __cdecl(IronMan::Core::WndEventArgs &)> > >::_Unchecked_begin
PUBLIC	?_Unchecked_end@?$list@V?$function@$$A6AXAEAUWndEventArgs@Core@IronMan@@@Z@std@@V?$allocator@V?$function@$$A6AXAEAUWndEventArgs@Core@IronMan@@@Z@std@@@2@@std@@QEAA?AV?$_List_unchecked_iterator@V?$_List_val@U?$_List_simple_types@V?$function@$$A6AXAEAUWndEventArgs@Core@IronMan@@@Z@std@@@std@@@std@@@2@XZ ; std::list<std::function<void __cdecl(IronMan::Core::WndEventArgs &)>,std::allocator<std::function<void __cdecl(IronMan::Core::WndEventArgs &)> > >::_Unchecked_end
PUBLIC	?clear@?$list@V?$function@$$A6AXAEAUWndEventArgs@Core@IronMan@@@Z@std@@V?$allocator@V?$function@$$A6AXAEAUWndEventArgs@Core@IronMan@@@Z@std@@@2@@std@@QEAAXXZ ; std::list<std::function<void __cdecl(IronMan::Core::WndEventArgs &)>,std::allocator<std::function<void __cdecl(IronMan::Core::WndEventArgs &)> > >::clear
PUBLIC	?_Tidy@?$list@V?$function@$$A6AXAEAUWndEventArgs@Core@IronMan@@@Z@std@@V?$allocator@V?$function@$$A6AXAEAUWndEventArgs@Core@IronMan@@@Z@std@@@2@@std@@AEAAXXZ ; std::list<std::function<void __cdecl(IronMan::Core::WndEventArgs &)>,std::allocator<std::function<void __cdecl(IronMan::Core::WndEventArgs &)> > >::_Tidy
PUBLIC	?_Alloc_sentinel_and_proxy@?$list@V?$function@$$A6AXAEAUWndEventArgs@Core@IronMan@@@Z@std@@V?$allocator@V?$function@$$A6AXAEAUWndEventArgs@Core@IronMan@@@Z@std@@@2@@std@@AEAAXXZ ; std::list<std::function<void __cdecl(IronMan::Core::WndEventArgs &)>,std::allocator<std::function<void __cdecl(IronMan::Core::WndEventArgs &)> > >::_Alloc_sentinel_and_proxy
PUBLIC	?_Getal@?$list@V?$function@$$A6AXAEAUWndEventArgs@Core@IronMan@@@Z@std@@V?$allocator@V?$function@$$A6AXAEAUWndEventArgs@Core@IronMan@@@Z@std@@@2@@std@@AEAAAEAV?$allocator@U?$_List_node@V?$function@$$A6AXAEAUWndEventArgs@Core@IronMan@@@Z@std@@PEAX@std@@@2@XZ ; std::list<std::function<void __cdecl(IronMan::Core::WndEventArgs &)>,std::allocator<std::function<void __cdecl(IronMan::Core::WndEventArgs &)> > >::_Getal
PUBLIC	??0?$_List_val@U?$_List_simple_types@V?$function@$$A6AXAEAUWndEventArgs@Core@IronMan@@@Z@std@@@std@@@std@@QEAA@XZ ; std::_List_val<std::_List_simple_types<std::function<void __cdecl(IronMan::Core::WndEventArgs &)> > >::_List_val<std::_List_simple_types<std::function<void __cdecl(IronMan::Core::WndEventArgs &)> > >
PUBLIC	?_Orphan_non_end@?$_List_val@U?$_List_simple_types@V?$function@$$A6AXAEAUWndEventArgs@Core@IronMan@@@Z@std@@@std@@@std@@QEAAXXZ ; std::_List_val<std::_List_simple_types<std::function<void __cdecl(IronMan::Core::WndEventArgs &)> > >::_Orphan_non_end
PUBLIC	?_Get_first@?$_Compressed_pair@V?$allocator@U?$_List_node@V?$function@$$A6AXAEAUWndEventArgs@Core@IronMan@@@Z@std@@PEAX@std@@@std@@V?$_List_val@U?$_List_simple_types@V?$function@$$A6AXAEAUWndEventArgs@Core@IronMan@@@Z@std@@@std@@@2@$00@std@@QEAAAEAV?$allocator@U?$_List_node@V?$function@$$A6AXAEAUWndEventArgs@Core@IronMan@@@Z@std@@PEAX@std@@@2@XZ ; std::_Compressed_pair<std::allocator<std::_List_node<std::function<void __cdecl(IronMan::Core::WndEventArgs &)>,void *> >,std::_List_val<std::_List_simple_types<std::function<void __cdecl(IronMan::Core::WndEventArgs &)> > >,1>::_Get_first
PUBLIC	??0?$allocator@U?$_Tree_node@U?$pair@$$CBHV?$vector@V?$function@$$A6AXXZ@std@@V?$allocator@V?$function@$$A6AXXZ@std@@@2@@std@@@std@@PEAX@std@@@std@@QEAA@XZ ; std::allocator<std::_Tree_node<std::pair<int const ,std::vector<std::function<void __cdecl(void)>,std::allocator<std::function<void __cdecl(void)> > > >,void *> >::allocator<std::_Tree_node<std::pair<int const ,std::vector<std::function<void __cdecl(void)>,std::allocator<std::function<void __cdecl(void)> > > >,void *> >
PUBLIC	?deallocate@?$allocator@U?$_Tree_node@U?$pair@$$CBHV?$vector@V?$function@$$A6AXXZ@std@@V?$allocator@V?$function@$$A6AXXZ@std@@@2@@std@@@std@@PEAX@std@@@std@@QEAAXQEAU?$_Tree_node@U?$pair@$$CBHV?$vector@V?$function@$$A6AXXZ@std@@V?$allocator@V?$function@$$A6AXXZ@std@@@2@@std@@@std@@PEAX@2@_K@Z ; std::allocator<std::_Tree_node<std::pair<int const ,std::vector<std::function<void __cdecl(void)>,std::allocator<std::function<void __cdecl(void)> > > >,void *> >::deallocate
PUBLIC	?allocate@?$allocator@U?$_Tree_node@U?$pair@$$CBHV?$vector@V?$function@$$A6AXXZ@std@@V?$allocator@V?$function@$$A6AXXZ@std@@@2@@std@@@std@@PEAX@std@@@std@@QEAAPEAU?$_Tree_node@U?$pair@$$CBHV?$vector@V?$function@$$A6AXXZ@std@@V?$allocator@V?$function@$$A6AXXZ@std@@@2@@std@@@std@@PEAX@2@_K@Z ; std::allocator<std::_Tree_node<std::pair<int const ,std::vector<std::function<void __cdecl(void)>,std::allocator<std::function<void __cdecl(void)> > > >,void *> >::allocate
PUBLIC	?deallocate@?$_Default_allocator_traits@V?$allocator@U?$_Tree_node@U?$pair@$$CBHV?$vector@V?$function@$$A6AXXZ@std@@V?$allocator@V?$function@$$A6AXXZ@std@@@2@@std@@@std@@PEAX@std@@@std@@@std@@SAXAEAV?$allocator@U?$_Tree_node@U?$pair@$$CBHV?$vector@V?$function@$$A6AXXZ@std@@V?$allocator@V?$function@$$A6AXXZ@std@@@2@@std@@@std@@PEAX@std@@@2@QEAU?$_Tree_node@U?$pair@$$CBHV?$vector@V?$function@$$A6AXXZ@std@@V?$allocator@V?$function@$$A6AXXZ@std@@@2@@std@@@std@@PEAX@2@_K@Z ; std::_Default_allocator_traits<std::allocator<std::_Tree_node<std::pair<int const ,std::vector<std::function<void __cdecl(void)>,std::allocator<std::function<void __cdecl(void)> > > >,void *> > >::deallocate
PUBLIC	?max_size@?$_Default_allocator_traits@V?$allocator@U?$_Tree_node@U?$pair@$$CBHV?$vector@V?$function@$$A6AXXZ@std@@V?$allocator@V?$function@$$A6AXXZ@std@@@2@@std@@@std@@PEAX@std@@@std@@@std@@SA_KAEBV?$allocator@U?$_Tree_node@U?$pair@$$CBHV?$vector@V?$function@$$A6AXXZ@std@@V?$allocator@V?$function@$$A6AXXZ@std@@@2@@std@@@std@@PEAX@std@@@2@@Z ; std::_Default_allocator_traits<std::allocator<std::_Tree_node<std::pair<int const ,std::vector<std::function<void __cdecl(void)>,std::allocator<std::function<void __cdecl(void)> > > >,void *> > >::max_size
PUBLIC	??0?$_Tree@V?$_Tmap_traits@HV?$vector@V?$function@$$A6AXXZ@std@@V?$allocator@V?$function@$$A6AXXZ@std@@@2@@std@@U?$less@H@2@V?$allocator@U?$pair@$$CBHV?$vector@V?$function@$$A6AXXZ@std@@V?$allocator@V?$function@$$A6AXXZ@std@@@2@@std@@@std@@@2@$0A@@std@@@std@@QEAA@AEBU?$less@H@1@@Z ; std::_Tree<std::_Tmap_traits<int,std::vector<std::function<void __cdecl(void)>,std::allocator<std::function<void __cdecl(void)> > >,std::less<int>,std::allocator<std::pair<int const ,std::vector<std::function<void __cdecl(void)>,std::allocator<std::function<void __cdecl(void)> > > > >,0> >::_Tree<std::_Tmap_traits<int,std::vector<std::function<void __cdecl(void)>,std::allocator<std::function<void __cdecl(void)> > >,std::less<int>,std::allocator<std::pair<int const ,std::vector<std::function<void __cdecl(void)>,std::allocator<std::function<void __cdecl(void)> > > > >,0> >
PUBLIC	??1?$_Tree@V?$_Tmap_traits@HV?$vector@V?$function@$$A6AXXZ@std@@V?$allocator@V?$function@$$A6AXXZ@std@@@2@@std@@U?$less@H@2@V?$allocator@U?$pair@$$CBHV?$vector@V?$function@$$A6AXXZ@std@@V?$allocator@V?$function@$$A6AXXZ@std@@@2@@std@@@std@@@2@$0A@@std@@@std@@QEAA@XZ ; std::_Tree<std::_Tmap_traits<int,std::vector<std::function<void __cdecl(void)>,std::allocator<std::function<void __cdecl(void)> > >,std::less<int>,std::allocator<std::pair<int const ,std::vector<std::function<void __cdecl(void)>,std::allocator<std::function<void __cdecl(void)> > > > >,0> >::~_Tree<std::_Tmap_traits<int,std::vector<std::function<void __cdecl(void)>,std::allocator<std::function<void __cdecl(void)> > >,std::less<int>,std::allocator<std::pair<int const ,std::vector<std::function<void __cdecl(void)>,std::allocator<std::function<void __cdecl(void)> > > > >,0> >
PUBLIC	?end@?$_Tree@V?$_Tmap_traits@HV?$vector@V?$function@$$A6AXXZ@std@@V?$allocator@V?$function@$$A6AXXZ@std@@@2@@std@@U?$less@H@2@V?$allocator@U?$pair@$$CBHV?$vector@V?$function@$$A6AXXZ@std@@V?$allocator@V?$function@$$A6AXXZ@std@@@2@@std@@@std@@@2@$0A@@std@@@std@@QEAA?AV?$_Tree_iterator@V?$_Tree_val@U?$_Tree_simple_types@U?$pair@$$CBHV?$vector@V?$function@$$A6AXXZ@std@@V?$allocator@V?$function@$$A6AXXZ@std@@@2@@std@@@std@@@std@@@std@@@2@XZ ; std::_Tree<std::_Tmap_traits<int,std::vector<std::function<void __cdecl(void)>,std::allocator<std::function<void __cdecl(void)> > >,std::less<int>,std::allocator<std::pair<int const ,std::vector<std::function<void __cdecl(void)>,std::allocator<std::function<void __cdecl(void)> > > > >,0> >::end
PUBLIC	?max_size@?$_Tree@V?$_Tmap_traits@HV?$vector@V?$function@$$A6AXXZ@std@@V?$allocator@V?$function@$$A6AXXZ@std@@@2@@std@@U?$less@H@2@V?$allocator@U?$pair@$$CBHV?$vector@V?$function@$$A6AXXZ@std@@V?$allocator@V?$function@$$A6AXXZ@std@@@2@@std@@@std@@@2@$0A@@std@@@std@@QEBA_KXZ ; std::_Tree<std::_Tmap_traits<int,std::vector<std::function<void __cdecl(void)>,std::allocator<std::function<void __cdecl(void)> > >,std::less<int>,std::allocator<std::pair<int const ,std::vector<std::function<void __cdecl(void)>,std::allocator<std::function<void __cdecl(void)> > > > >,0> >::max_size
PUBLIC	?find@?$_Tree@V?$_Tmap_traits@HV?$vector@V?$function@$$A6AXXZ@std@@V?$allocator@V?$function@$$A6AXXZ@std@@@2@@std@@U?$less@H@2@V?$allocator@U?$pair@$$CBHV?$vector@V?$function@$$A6AXXZ@std@@V?$allocator@V?$function@$$A6AXXZ@std@@@2@@std@@@std@@@2@$0A@@std@@@std@@QEAA?AV?$_Tree_iterator@V?$_Tree_val@U?$_Tree_simple_types@U?$pair@$$CBHV?$vector@V?$function@$$A6AXXZ@std@@V?$allocator@V?$function@$$A6AXXZ@std@@@2@@std@@@std@@@std@@@std@@@2@AEBH@Z ; std::_Tree<std::_Tmap_traits<int,std::vector<std::function<void __cdecl(void)>,std::allocator<std::function<void __cdecl(void)> > >,std::less<int>,std::allocator<std::pair<int const ,std::vector<std::function<void __cdecl(void)>,std::allocator<std::function<void __cdecl(void)> > > > >,0> >::find
PUBLIC	?_Check_grow_by_1@?$_Tree@V?$_Tmap_traits@HV?$vector@V?$function@$$A6AXXZ@std@@V?$allocator@V?$function@$$A6AXXZ@std@@@2@@std@@U?$less@H@2@V?$allocator@U?$pair@$$CBHV?$vector@V?$function@$$A6AXXZ@std@@V?$allocator@V?$function@$$A6AXXZ@std@@@2@@std@@@std@@@2@$0A@@std@@@std@@IEAAXXZ ; std::_Tree<std::_Tmap_traits<int,std::vector<std::function<void __cdecl(void)>,std::allocator<std::function<void __cdecl(void)> > >,std::less<int>,std::allocator<std::pair<int const ,std::vector<std::function<void __cdecl(void)>,std::allocator<std::function<void __cdecl(void)> > > > >,0> >::_Check_grow_by_1
PUBLIC	?_Alloc_sentinel_and_proxy@?$_Tree@V?$_Tmap_traits@HV?$vector@V?$function@$$A6AXXZ@std@@V?$allocator@V?$function@$$A6AXXZ@std@@@2@@std@@U?$less@H@2@V?$allocator@U?$pair@$$CBHV?$vector@V?$function@$$A6AXXZ@std@@V?$allocator@V?$function@$$A6AXXZ@std@@@2@@std@@@std@@@2@$0A@@std@@@std@@IEAAXXZ ; std::_Tree<std::_Tmap_traits<int,std::vector<std::function<void __cdecl(void)>,std::allocator<std::function<void __cdecl(void)> > >,std::less<int>,std::allocator<std::pair<int const ,std::vector<std::function<void __cdecl(void)>,std::allocator<std::function<void __cdecl(void)> > > > >,0> >::_Alloc_sentinel_and_proxy
PUBLIC	?_Getcomp@?$_Tree@V?$_Tmap_traits@HV?$vector@V?$function@$$A6AXXZ@std@@V?$allocator@V?$function@$$A6AXXZ@std@@@2@@std@@U?$less@H@2@V?$allocator@U?$pair@$$CBHV?$vector@V?$function@$$A6AXXZ@std@@V?$allocator@V?$function@$$A6AXXZ@std@@@2@@std@@@std@@@2@$0A@@std@@@std@@IEBAAEBU?$less@H@2@XZ ; std::_Tree<std::_Tmap_traits<int,std::vector<std::function<void __cdecl(void)>,std::allocator<std::function<void __cdecl(void)> > >,std::less<int>,std::allocator<std::pair<int const ,std::vector<std::function<void __cdecl(void)>,std::allocator<std::function<void __cdecl(void)> > > > >,0> >::_Getcomp
PUBLIC	?_Getal@?$_Tree@V?$_Tmap_traits@HV?$vector@V?$function@$$A6AXXZ@std@@V?$allocator@V?$function@$$A6AXXZ@std@@@2@@std@@U?$less@H@2@V?$allocator@U?$pair@$$CBHV?$vector@V?$function@$$A6AXXZ@std@@V?$allocator@V?$function@$$A6AXXZ@std@@@2@@std@@@std@@@2@$0A@@std@@@std@@IEAAAEAV?$allocator@U?$_Tree_node@U?$pair@$$CBHV?$vector@V?$function@$$A6AXXZ@std@@V?$allocator@V?$function@$$A6AXXZ@std@@@2@@std@@@std@@PEAX@std@@@2@XZ ; std::_Tree<std::_Tmap_traits<int,std::vector<std::function<void __cdecl(void)>,std::allocator<std::function<void __cdecl(void)> > >,std::less<int>,std::allocator<std::pair<int const ,std::vector<std::function<void __cdecl(void)>,std::allocator<std::function<void __cdecl(void)> > > > >,0> >::_Getal
PUBLIC	?_Getal@?$_Tree@V?$_Tmap_traits@HV?$vector@V?$function@$$A6AXXZ@std@@V?$allocator@V?$function@$$A6AXXZ@std@@@2@@std@@U?$less@H@2@V?$allocator@U?$pair@$$CBHV?$vector@V?$function@$$A6AXXZ@std@@V?$allocator@V?$function@$$A6AXXZ@std@@@2@@std@@@std@@@2@$0A@@std@@@std@@IEBAAEBV?$allocator@U?$_Tree_node@U?$pair@$$CBHV?$vector@V?$function@$$A6AXXZ@std@@V?$allocator@V?$function@$$A6AXXZ@std@@@2@@std@@@std@@PEAX@std@@@2@XZ ; std::_Tree<std::_Tmap_traits<int,std::vector<std::function<void __cdecl(void)>,std::allocator<std::function<void __cdecl(void)> > >,std::less<int>,std::allocator<std::pair<int const ,std::vector<std::function<void __cdecl(void)>,std::allocator<std::function<void __cdecl(void)> > > > >,0> >::_Getal
PUBLIC	?_Get_scary@?$_Tree@V?$_Tmap_traits@HV?$vector@V?$function@$$A6AXXZ@std@@V?$allocator@V?$function@$$A6AXXZ@std@@@2@@std@@U?$less@H@2@V?$allocator@U?$pair@$$CBHV?$vector@V?$function@$$A6AXXZ@std@@V?$allocator@V?$function@$$A6AXXZ@std@@@2@@std@@@std@@@2@$0A@@std@@@std@@IEAAPEAV?$_Tree_val@U?$_Tree_simple_types@U?$pair@$$CBHV?$vector@V?$function@$$A6AXXZ@std@@V?$allocator@V?$function@$$A6AXXZ@std@@@2@@std@@@std@@@std@@@2@XZ ; std::_Tree<std::_Tmap_traits<int,std::vector<std::function<void __cdecl(void)>,std::allocator<std::function<void __cdecl(void)> > >,std::less<int>,std::allocator<std::pair<int const ,std::vector<std::function<void __cdecl(void)>,std::allocator<std::function<void __cdecl(void)> > > > >,0> >::_Get_scary
PUBLIC	?_Get_scary@?$_Tree@V?$_Tmap_traits@HV?$vector@V?$function@$$A6AXXZ@std@@V?$allocator@V?$function@$$A6AXXZ@std@@@2@@std@@U?$less@H@2@V?$allocator@U?$pair@$$CBHV?$vector@V?$function@$$A6AXXZ@std@@V?$allocator@V?$function@$$A6AXXZ@std@@@2@@std@@@std@@@2@$0A@@std@@@std@@IEBAPEBV?$_Tree_val@U?$_Tree_simple_types@U?$pair@$$CBHV?$vector@V?$function@$$A6AXXZ@std@@V?$allocator@V?$function@$$A6AXXZ@std@@@2@@std@@@std@@@std@@@2@XZ ; std::_Tree<std::_Tmap_traits<int,std::vector<std::function<void __cdecl(void)>,std::allocator<std::function<void __cdecl(void)> > >,std::less<int>,std::allocator<std::pair<int const ,std::vector<std::function<void __cdecl(void)>,std::allocator<std::function<void __cdecl(void)> > > > >,0> >::_Get_scary
PUBLIC	??0?$_Tree_val@U?$_Tree_simple_types@U?$pair@$$CBHV?$vector@V?$function@$$A6AXXZ@std@@V?$allocator@V?$function@$$A6AXXZ@std@@@2@@std@@@std@@@std@@@std@@QEAA@XZ ; std::_Tree_val<std::_Tree_simple_types<std::pair<int const ,std::vector<std::function<void __cdecl(void)>,std::allocator<std::function<void __cdecl(void)> > > > > >::_Tree_val<std::_Tree_simple_types<std::pair<int const ,std::vector<std::function<void __cdecl(void)>,std::allocator<std::function<void __cdecl(void)> > > > > >
PUBLIC	?_Lrotate@?$_Tree_val@U?$_Tree_simple_types@U?$pair@$$CBHV?$vector@V?$function@$$A6AXXZ@std@@V?$allocator@V?$function@$$A6AXXZ@std@@@2@@std@@@std@@@std@@@std@@QEAAXPEAU?$_Tree_node@U?$pair@$$CBHV?$vector@V?$function@$$A6AXXZ@std@@V?$allocator@V?$function@$$A6AXXZ@std@@@2@@std@@@std@@PEAX@2@@Z ; std::_Tree_val<std::_Tree_simple_types<std::pair<int const ,std::vector<std::function<void __cdecl(void)>,std::allocator<std::function<void __cdecl(void)> > > > > >::_Lrotate
PUBLIC	?_Rrotate@?$_Tree_val@U?$_Tree_simple_types@U?$pair@$$CBHV?$vector@V?$function@$$A6AXXZ@std@@V?$allocator@V?$function@$$A6AXXZ@std@@@2@@std@@@std@@@std@@@std@@QEAAXPEAU?$_Tree_node@U?$pair@$$CBHV?$vector@V?$function@$$A6AXXZ@std@@V?$allocator@V?$function@$$A6AXXZ@std@@@2@@std@@@std@@PEAX@2@@Z ; std::_Tree_val<std::_Tree_simple_types<std::pair<int const ,std::vector<std::function<void __cdecl(void)>,std::allocator<std::function<void __cdecl(void)> > > > > >::_Rrotate
PUBLIC	?_Insert_node@?$_Tree_val@U?$_Tree_simple_types@U?$pair@$$CBHV?$vector@V?$function@$$A6AXXZ@std@@V?$allocator@V?$function@$$A6AXXZ@std@@@2@@std@@@std@@@std@@@std@@QEAAPEAU?$_Tree_node@U?$pair@$$CBHV?$vector@V?$function@$$A6AXXZ@std@@V?$allocator@V?$function@$$A6AXXZ@std@@@2@@std@@@std@@PEAX@2@U?$_Tree_id@PEAU?$_Tree_node@U?$pair@$$CBHV?$vector@V?$function@$$A6AXXZ@std@@V?$allocator@V?$function@$$A6AXXZ@std@@@2@@std@@@std@@PEAX@std@@@2@QEAU32@@Z ; std::_Tree_val<std::_Tree_simple_types<std::pair<int const ,std::vector<std::function<void __cdecl(void)>,std::allocator<std::function<void __cdecl(void)> > > > > >::_Insert_node
PUBLIC	?_Get_first@?$_Compressed_pair@V?$allocator@U?$_Tree_node@U?$pair@$$CBHV?$vector@V?$function@$$A6AXXZ@std@@V?$allocator@V?$function@$$A6AXXZ@std@@@2@@std@@@std@@PEAX@std@@@std@@V?$_Tree_val@U?$_Tree_simple_types@U?$pair@$$CBHV?$vector@V?$function@$$A6AXXZ@std@@V?$allocator@V?$function@$$A6AXXZ@std@@@2@@std@@@std@@@std@@@2@$00@std@@QEAAAEAV?$allocator@U?$_Tree_node@U?$pair@$$CBHV?$vector@V?$function@$$A6AXXZ@std@@V?$allocator@V?$function@$$A6AXXZ@std@@@2@@std@@@std@@PEAX@std@@@2@XZ ; std::_Compressed_pair<std::allocator<std::_Tree_node<std::pair<int const ,std::vector<std::function<void __cdecl(void)>,std::allocator<std::function<void __cdecl(void)> > > >,void *> >,std::_Tree_val<std::_Tree_simple_types<std::pair<int const ,std::vector<std::function<void __cdecl(void)>,std::allocator<std::function<void __cdecl(void)> > > > > >,1>::_Get_first
PUBLIC	?_Get_first@?$_Compressed_pair@V?$allocator@U?$_Tree_node@U?$pair@$$CBHV?$vector@V?$function@$$A6AXXZ@std@@V?$allocator@V?$function@$$A6AXXZ@std@@@2@@std@@@std@@PEAX@std@@@std@@V?$_Tree_val@U?$_Tree_simple_types@U?$pair@$$CBHV?$vector@V?$function@$$A6AXXZ@std@@V?$allocator@V?$function@$$A6AXXZ@std@@@2@@std@@@std@@@std@@@2@$00@std@@QEBAAEBV?$allocator@U?$_Tree_node@U?$pair@$$CBHV?$vector@V?$function@$$A6AXXZ@std@@V?$allocator@V?$function@$$A6AXXZ@std@@@2@@std@@@std@@PEAX@std@@@2@XZ ; std::_Compressed_pair<std::allocator<std::_Tree_node<std::pair<int const ,std::vector<std::function<void __cdecl(void)>,std::allocator<std::function<void __cdecl(void)> > > >,void *> >,std::_Tree_val<std::_Tree_simple_types<std::pair<int const ,std::vector<std::function<void __cdecl(void)>,std::allocator<std::function<void __cdecl(void)> > > > > >,1>::_Get_first
PUBLIC	?_Get_first@?$_Compressed_pair@U?$less@H@std@@V?$_Compressed_pair@V?$allocator@U?$_Tree_node@U?$pair@$$CBHV?$vector@V?$function@$$A6AXXZ@std@@V?$allocator@V?$function@$$A6AXXZ@std@@@2@@std@@@std@@PEAX@std@@@std@@V?$_Tree_val@U?$_Tree_simple_types@U?$pair@$$CBHV?$vector@V?$function@$$A6AXXZ@std@@V?$allocator@V?$function@$$A6AXXZ@std@@@2@@std@@@std@@@std@@@2@$00@2@$00@std@@QEBAAEBU?$less@H@2@XZ ; std::_Compressed_pair<std::less<int>,std::_Compressed_pair<std::allocator<std::_Tree_node<std::pair<int const ,std::vector<std::function<void __cdecl(void)>,std::allocator<std::function<void __cdecl(void)> > > >,void *> >,std::_Tree_val<std::_Tree_simple_types<std::pair<int const ,std::vector<std::function<void __cdecl(void)>,std::allocator<std::function<void __cdecl(void)> > > > > >,1>,1>::_Get_first
PUBLIC	??0?$map@HV?$vector@V?$function@$$A6AXXZ@std@@V?$allocator@V?$function@$$A6AXXZ@std@@@2@@std@@U?$less@H@2@V?$allocator@U?$pair@$$CBHV?$vector@V?$function@$$A6AXXZ@std@@V?$allocator@V?$function@$$A6AXXZ@std@@@2@@std@@@std@@@2@@std@@QEAA@XZ ; std::map<int,std::vector<std::function<void __cdecl(void)>,std::allocator<std::function<void __cdecl(void)> > >,std::less<int>,std::allocator<std::pair<int const ,std::vector<std::function<void __cdecl(void)>,std::allocator<std::function<void __cdecl(void)> > > > > >::map<int,std::vector<std::function<void __cdecl(void)>,std::allocator<std::function<void __cdecl(void)> > >,std::less<int>,std::allocator<std::pair<int const ,std::vector<std::function<void __cdecl(void)>,std::allocator<std::function<void __cdecl(void)> > > > > >
PUBLIC	??A?$map@HV?$vector@V?$function@$$A6AXXZ@std@@V?$allocator@V?$function@$$A6AXXZ@std@@@2@@std@@U?$less@H@2@V?$allocator@U?$pair@$$CBHV?$vector@V?$function@$$A6AXXZ@std@@V?$allocator@V?$function@$$A6AXXZ@std@@@2@@std@@@std@@@2@@std@@QEAAAEAV?$vector@V?$function@$$A6AXXZ@std@@V?$allocator@V?$function@$$A6AXXZ@std@@@2@@1@$$QEAH@Z ; std::map<int,std::vector<std::function<void __cdecl(void)>,std::allocator<std::function<void __cdecl(void)> > >,std::less<int>,std::allocator<std::pair<int const ,std::vector<std::function<void __cdecl(void)>,std::allocator<std::function<void __cdecl(void)> > > > > >::operator[]
PUBLIC	??1?$map@HV?$vector@V?$function@$$A6AXXZ@std@@V?$allocator@V?$function@$$A6AXXZ@std@@@2@@std@@U?$less@H@2@V?$allocator@U?$pair@$$CBHV?$vector@V?$function@$$A6AXXZ@std@@V?$allocator@V?$function@$$A6AXXZ@std@@@2@@std@@@std@@@2@@std@@QEAA@XZ ; std::map<int,std::vector<std::function<void __cdecl(void)>,std::allocator<std::function<void __cdecl(void)> > >,std::less<int>,std::allocator<std::pair<int const ,std::vector<std::function<void __cdecl(void)>,std::allocator<std::function<void __cdecl(void)> > > > > >::~map<int,std::vector<std::function<void __cdecl(void)>,std::allocator<std::function<void __cdecl(void)> > >,std::less<int>,std::allocator<std::pair<int const ,std::vector<std::function<void __cdecl(void)>,std::allocator<std::function<void __cdecl(void)> > > > > >
PUBLIC	?ThreadInitGui@Core@IronMan@@YAKPEAX@Z		; IronMan::Core::ThreadInitGui
PUBLIC	??0?$_List_unchecked_const_iterator@V?$_List_val@U?$_List_simple_types@V?$function@$$A6AXAEAUWndEventArgs@Core@IronMan@@@Z@std@@@std@@@std@@U_Iterator_base0@2@@std@@QEAA@PEAU?$_List_node@V?$function@$$A6AXAEAUWndEventArgs@Core@IronMan@@@Z@std@@PEAX@1@PEBV?$_List_val@U?$_List_simple_types@V?$function@$$A6AXAEAUWndEventArgs@Core@IronMan@@@Z@std@@@std@@@1@@Z ; std::_List_unchecked_const_iterator<std::_List_val<std::_List_simple_types<std::function<void __cdecl(IronMan::Core::WndEventArgs &)> > >,std::_Iterator_base0>::_List_unchecked_const_iterator<std::_List_val<std::_List_simple_types<std::function<void __cdecl(IronMan::Core::WndEventArgs &)> > >,std::_Iterator_base0>
PUBLIC	??D?$_List_unchecked_const_iterator@V?$_List_val@U?$_List_simple_types@V?$function@$$A6AXAEAUWndEventArgs@Core@IronMan@@@Z@std@@@std@@@std@@U_Iterator_base0@2@@std@@QEBAAEBV?$function@$$A6AXAEAUWndEventArgs@Core@IronMan@@@Z@1@XZ ; std::_List_unchecked_const_iterator<std::_List_val<std::_List_simple_types<std::function<void __cdecl(IronMan::Core::WndEventArgs &)> > >,std::_Iterator_base0>::operator*
PUBLIC	??E?$_List_unchecked_const_iterator@V?$_List_val@U?$_List_simple_types@V?$function@$$A6AXAEAUWndEventArgs@Core@IronMan@@@Z@std@@@std@@@std@@U_Iterator_base0@2@@std@@QEAAAEAV01@XZ ; std::_List_unchecked_const_iterator<std::_List_val<std::_List_simple_types<std::function<void __cdecl(IronMan::Core::WndEventArgs &)> > >,std::_Iterator_base0>::operator++
PUBLIC	??8?$_List_unchecked_const_iterator@V?$_List_val@U?$_List_simple_types@V?$function@$$A6AXAEAUWndEventArgs@Core@IronMan@@@Z@std@@@std@@@std@@U_Iterator_base0@2@@std@@QEBA_NAEBV01@@Z ; std::_List_unchecked_const_iterator<std::_List_val<std::_List_simple_types<std::function<void __cdecl(IronMan::Core::WndEventArgs &)> > >,std::_Iterator_base0>::operator==
PUBLIC	??9?$_List_unchecked_const_iterator@V?$_List_val@U?$_List_simple_types@V?$function@$$A6AXAEAUWndEventArgs@Core@IronMan@@@Z@std@@@std@@@std@@U_Iterator_base0@2@@std@@QEBA_NAEBV01@@Z ; std::_List_unchecked_const_iterator<std::_List_val<std::_List_simple_types<std::function<void __cdecl(IronMan::Core::WndEventArgs &)> > >,std::_Iterator_base0>::operator!=
PUBLIC	??D?$_List_unchecked_iterator@V?$_List_val@U?$_List_simple_types@V?$function@$$A6AXAEAUWndEventArgs@Core@IronMan@@@Z@std@@@std@@@std@@@std@@QEBAAEAV?$function@$$A6AXAEAUWndEventArgs@Core@IronMan@@@Z@1@XZ ; std::_List_unchecked_iterator<std::_List_val<std::_List_simple_types<std::function<void __cdecl(IronMan::Core::WndEventArgs &)> > > >::operator*
PUBLIC	??E?$_List_unchecked_iterator@V?$_List_val@U?$_List_simple_types@V?$function@$$A6AXAEAUWndEventArgs@Core@IronMan@@@Z@std@@@std@@@std@@@std@@QEAAAEAV01@XZ ; std::_List_unchecked_iterator<std::_List_val<std::_List_simple_types<std::function<void __cdecl(IronMan::Core::WndEventArgs &)> > > >::operator++
PUBLIC	??0?$_List_unchecked_iterator@V?$_List_val@U?$_List_simple_types@V?$function@$$A6AXAEAUWndEventArgs@Core@IronMan@@@Z@std@@@std@@@std@@@std@@QEAA@PEAU?$_List_node@V?$function@$$A6AXAEAUWndEventArgs@Core@IronMan@@@Z@std@@PEAX@1@PEBV?$_List_val@U?$_List_simple_types@V?$function@$$A6AXAEAUWndEventArgs@Core@IronMan@@@Z@std@@@std@@@1@@Z ; std::_List_unchecked_iterator<std::_List_val<std::_List_simple_types<std::function<void __cdecl(IronMan::Core::WndEventArgs &)> > > >::_List_unchecked_iterator<std::_List_val<std::_List_simple_types<std::function<void __cdecl(IronMan::Core::WndEventArgs &)> > > >
PUBLIC	??R?$_Func_class@XAEAUWndEventArgs@Core@IronMan@@@std@@QEBAXAEAUWndEventArgs@Core@IronMan@@@Z ; std::_Func_class<void,IronMan::Core::WndEventArgs &>::operator()
PUBLIC	??1?$_Func_class@XAEAUWndEventArgs@Core@IronMan@@@std@@QEAA@XZ ; std::_Func_class<void,IronMan::Core::WndEventArgs &>::~_Func_class<void,IronMan::Core::WndEventArgs &>
PUBLIC	?_Empty@?$_Func_class@XAEAUWndEventArgs@Core@IronMan@@@std@@IEBA_NXZ ; std::_Func_class<void,IronMan::Core::WndEventArgs &>::_Empty
PUBLIC	?_Tidy@?$_Func_class@XAEAUWndEventArgs@Core@IronMan@@@std@@IEAAXXZ ; std::_Func_class<void,IronMan::Core::WndEventArgs &>::_Tidy
PUBLIC	?_Local@?$_Func_class@XAEAUWndEventArgs@Core@IronMan@@@std@@AEBA_NXZ ; std::_Func_class<void,IronMan::Core::WndEventArgs &>::_Local
PUBLIC	?_Getimpl@?$_Func_class@XAEAUWndEventArgs@Core@IronMan@@@std@@AEBAPEAV?$_Func_base@XAEAUWndEventArgs@Core@IronMan@@@2@XZ ; std::_Func_class<void,IronMan::Core::WndEventArgs &>::_Getimpl
PUBLIC	?_Set@?$_Func_class@XAEAUWndEventArgs@Core@IronMan@@@std@@AEAAXPEAV?$_Func_base@XAEAUWndEventArgs@Core@IronMan@@@2@@Z ; std::_Func_class<void,IronMan::Core::WndEventArgs &>::_Set
PUBLIC	??1?$function@$$A6AXAEAUWndEventArgs@Core@IronMan@@@Z@std@@QEAA@XZ ; std::function<void __cdecl(IronMan::Core::WndEventArgs &)>::~function<void __cdecl(IronMan::Core::WndEventArgs &)>
PUBLIC	??_G?$function@$$A6AXAEAUWndEventArgs@Core@IronMan@@@Z@std@@QEAAPEAXI@Z ; std::function<void __cdecl(IronMan::Core::WndEventArgs &)>::`scalar deleting destructor'
PUBLIC	??0?$vector@V?$function@$$A6AXXZ@std@@V?$allocator@V?$function@$$A6AXXZ@std@@@2@@std@@QEAA@XZ ; std::vector<std::function<void __cdecl(void)>,std::allocator<std::function<void __cdecl(void)> > >::vector<std::function<void __cdecl(void)>,std::allocator<std::function<void __cdecl(void)> > >
PUBLIC	??1?$vector@V?$function@$$A6AXXZ@std@@V?$allocator@V?$function@$$A6AXXZ@std@@@2@@std@@QEAA@XZ ; std::vector<std::function<void __cdecl(void)>,std::allocator<std::function<void __cdecl(void)> > >::~vector<std::function<void __cdecl(void)>,std::allocator<std::function<void __cdecl(void)> > >
PUBLIC	?push_back@?$vector@V?$function@$$A6AXXZ@std@@V?$allocator@V?$function@$$A6AXXZ@std@@@2@@std@@QEAAXAEBV?$function@$$A6AXXZ@2@@Z ; std::vector<std::function<void __cdecl(void)>,std::allocator<std::function<void __cdecl(void)> > >::push_back
PUBLIC	?clear@?$vector@V?$function@$$A6AXXZ@std@@V?$allocator@V?$function@$$A6AXXZ@std@@@2@@std@@QEAAXXZ ; std::vector<std::function<void __cdecl(void)>,std::allocator<std::function<void __cdecl(void)> > >::clear
PUBLIC	?_Unchecked_begin@?$vector@V?$function@$$A6AXXZ@std@@V?$allocator@V?$function@$$A6AXXZ@std@@@2@@std@@QEAAPEAV?$function@$$A6AXXZ@2@XZ ; std::vector<std::function<void __cdecl(void)>,std::allocator<std::function<void __cdecl(void)> > >::_Unchecked_begin
PUBLIC	?_Unchecked_end@?$vector@V?$function@$$A6AXXZ@std@@V?$allocator@V?$function@$$A6AXXZ@std@@@2@@std@@QEAAPEAV?$function@$$A6AXXZ@2@XZ ; std::vector<std::function<void __cdecl(void)>,std::allocator<std::function<void __cdecl(void)> > >::_Unchecked_end
PUBLIC	?max_size@?$vector@V?$function@$$A6AXXZ@std@@V?$allocator@V?$function@$$A6AXXZ@std@@@2@@std@@QEBA_KXZ ; std::vector<std::function<void __cdecl(void)>,std::allocator<std::function<void __cdecl(void)> > >::max_size
PUBLIC	?capacity@?$vector@V?$function@$$A6AXXZ@std@@V?$allocator@V?$function@$$A6AXXZ@std@@@2@@std@@QEBA_KXZ ; std::vector<std::function<void __cdecl(void)>,std::allocator<std::function<void __cdecl(void)> > >::capacity
PUBLIC	?_Calculate_growth@?$vector@V?$function@$$A6AXXZ@std@@V?$allocator@V?$function@$$A6AXXZ@std@@@2@@std@@AEBA_K_K@Z ; std::vector<std::function<void __cdecl(void)>,std::allocator<std::function<void __cdecl(void)> > >::_Calculate_growth
PUBLIC	?_Change_array@?$vector@V?$function@$$A6AXXZ@std@@V?$allocator@V?$function@$$A6AXXZ@std@@@2@@std@@AEAAXQEAV?$function@$$A6AXXZ@2@_K1@Z ; std::vector<std::function<void __cdecl(void)>,std::allocator<std::function<void __cdecl(void)> > >::_Change_array
PUBLIC	?_Tidy@?$vector@V?$function@$$A6AXXZ@std@@V?$allocator@V?$function@$$A6AXXZ@std@@@2@@std@@AEAAXXZ ; std::vector<std::function<void __cdecl(void)>,std::allocator<std::function<void __cdecl(void)> > >::_Tidy
PUBLIC	?_Xlength@?$vector@V?$function@$$A6AXXZ@std@@V?$allocator@V?$function@$$A6AXXZ@std@@@2@@std@@CAXXZ ; std::vector<std::function<void __cdecl(void)>,std::allocator<std::function<void __cdecl(void)> > >::_Xlength
PUBLIC	?_Orphan_range@?$vector@V?$function@$$A6AXXZ@std@@V?$allocator@V?$function@$$A6AXXZ@std@@@2@@std@@AEBAXPEAV?$function@$$A6AXXZ@2@0@Z ; std::vector<std::function<void __cdecl(void)>,std::allocator<std::function<void __cdecl(void)> > >::_Orphan_range
PUBLIC	?_Getal@?$vector@V?$function@$$A6AXXZ@std@@V?$allocator@V?$function@$$A6AXXZ@std@@@2@@std@@AEAAAEAV?$allocator@V?$function@$$A6AXXZ@std@@@2@XZ ; std::vector<std::function<void __cdecl(void)>,std::allocator<std::function<void __cdecl(void)> > >::_Getal
PUBLIC	?_Getal@?$vector@V?$function@$$A6AXXZ@std@@V?$allocator@V?$function@$$A6AXXZ@std@@@2@@std@@AEBAAEBV?$allocator@V?$function@$$A6AXXZ@std@@@2@XZ ; std::vector<std::function<void __cdecl(void)>,std::allocator<std::function<void __cdecl(void)> > >::_Getal
PUBLIC	??0?$_Vector_val@U?$_Simple_types@V?$function@$$A6AXXZ@std@@@std@@@std@@QEAA@XZ ; std::_Vector_val<std::_Simple_types<std::function<void __cdecl(void)> > >::_Vector_val<std::_Simple_types<std::function<void __cdecl(void)> > >
PUBLIC	?_Get_first@?$_Compressed_pair@V?$allocator@V?$function@$$A6AXXZ@std@@@std@@V?$_Vector_val@U?$_Simple_types@V?$function@$$A6AXXZ@std@@@std@@@2@$00@std@@QEAAAEAV?$allocator@V?$function@$$A6AXXZ@std@@@2@XZ ; std::_Compressed_pair<std::allocator<std::function<void __cdecl(void)> >,std::_Vector_val<std::_Simple_types<std::function<void __cdecl(void)> > >,1>::_Get_first
PUBLIC	?_Get_first@?$_Compressed_pair@V?$allocator@V?$function@$$A6AXXZ@std@@@std@@V?$_Vector_val@U?$_Simple_types@V?$function@$$A6AXXZ@std@@@std@@@2@$00@std@@QEBAAEBV?$allocator@V?$function@$$A6AXXZ@std@@@2@XZ ; std::_Compressed_pair<std::allocator<std::function<void __cdecl(void)> >,std::_Vector_val<std::_Simple_types<std::function<void __cdecl(void)> > >,1>::_Get_first
PUBLIC	??0?$_Uhash_compare@HU?$hash@H@std@@U?$equal_to@H@2@@std@@QEAA@XZ ; std::_Uhash_compare<int,std::hash<int>,std::equal_to<int> >::_Uhash_compare<int,std::hash<int>,std::equal_to<int> >
PUBLIC	?_Get_max_bucket_size@?$_Uhash_compare@HU?$hash@H@std@@U?$equal_to@H@2@@std@@QEAAAEAMXZ ; std::_Uhash_compare<int,std::hash<int>,std::equal_to<int> >::_Get_max_bucket_size
PUBLIC	?_Get_max_bucket_size@?$_Uhash_compare@HU?$hash@H@std@@U?$equal_to@H@2@@std@@QEBAAEBMXZ ; std::_Uhash_compare<int,std::hash<int>,std::equal_to<int> >::_Get_max_bucket_size
PUBLIC	??R?$equal_to@H@std@@QEBA_NAEBH0@Z		; std::equal_to<int>::operator()
PUBLIC	?_Get_first@?$_Compressed_pair@U?$equal_to@H@std@@M$00@std@@QEBAAEBU?$equal_to@H@2@XZ ; std::_Compressed_pair<std::equal_to<int>,float,1>::_Get_first
PUBLIC	?_Get_first@?$_Compressed_pair@U?$hash@H@std@@V?$_Compressed_pair@U?$equal_to@H@std@@M$00@2@$00@std@@QEBAAEBU?$hash@H@2@XZ ; std::_Compressed_pair<std::hash<int>,std::_Compressed_pair<std::equal_to<int>,float,1>,1>::_Get_first
PUBLIC	??0?$allocator@U?$pair@$$CBH_N@std@@@std@@QEAA@XZ ; std::allocator<std::pair<int const ,bool> >::allocator<std::pair<int const ,bool> >
PUBLIC	??0?$_Umap_traits@H_NV?$_Uhash_compare@HU?$hash@H@std@@U?$equal_to@H@2@@std@@V?$allocator@U?$pair@$$CBH_N@std@@@2@$0A@@std@@QEAA@AEBV?$_Uhash_compare@HU?$hash@H@std@@U?$equal_to@H@2@@1@@Z ; std::_Umap_traits<int,bool,std::_Uhash_compare<int,std::hash<int>,std::equal_to<int> >,std::allocator<std::pair<int const ,bool> >,0>::_Umap_traits<int,bool,std::_Uhash_compare<int,std::hash<int>,std::equal_to<int> >,std::allocator<std::pair<int const ,bool> >,0>
PUBLIC	?deallocate@?$allocator@U?$_List_node@U?$pair@$$CBH_N@std@@PEAX@std@@@std@@QEAAXQEAU?$_List_node@U?$pair@$$CBH_N@std@@PEAX@2@_K@Z ; std::allocator<std::_List_node<std::pair<int const ,bool>,void *> >::deallocate
PUBLIC	?allocate@?$allocator@U?$_List_node@U?$pair@$$CBH_N@std@@PEAX@std@@@std@@QEAAPEAU?$_List_node@U?$pair@$$CBH_N@std@@PEAX@2@_K@Z ; std::allocator<std::_List_node<std::pair<int const ,bool>,void *> >::allocate
PUBLIC	?deallocate@?$_Default_allocator_traits@V?$allocator@U?$_List_node@U?$pair@$$CBH_N@std@@PEAX@std@@@std@@@std@@SAXAEAV?$allocator@U?$_List_node@U?$pair@$$CBH_N@std@@PEAX@std@@@2@QEAU?$_List_node@U?$pair@$$CBH_N@std@@PEAX@2@_K@Z ; std::_Default_allocator_traits<std::allocator<std::_List_node<std::pair<int const ,bool>,void *> > >::deallocate
PUBLIC	?max_size@?$_Default_allocator_traits@V?$allocator@U?$_List_node@U?$pair@$$CBH_N@std@@PEAX@std@@@std@@@std@@SA_KAEBV?$allocator@U?$_List_node@U?$pair@$$CBH_N@std@@PEAX@std@@@2@@Z ; std::_Default_allocator_traits<std::allocator<std::_List_node<std::pair<int const ,bool>,void *> > >::max_size
PUBLIC	??0?$list@U?$pair@$$CBH_N@std@@V?$allocator@U?$pair@$$CBH_N@std@@@2@@std@@QEAA@AEBV?$allocator@U?$pair@$$CBH_N@std@@@1@@Z ; std::list<std::pair<int const ,bool>,std::allocator<std::pair<int const ,bool> > >::list<std::pair<int const ,bool>,std::allocator<std::pair<int const ,bool> > >
PUBLIC	??1?$list@U?$pair@$$CBH_N@std@@V?$allocator@U?$pair@$$CBH_N@std@@@2@@std@@QEAA@XZ ; std::list<std::pair<int const ,bool>,std::allocator<std::pair<int const ,bool> > >::~list<std::pair<int const ,bool>,std::allocator<std::pair<int const ,bool> > >
PUBLIC	?end@?$list@U?$pair@$$CBH_N@std@@V?$allocator@U?$pair@$$CBH_N@std@@@2@@std@@QEAA?AV?$_List_iterator@V?$_List_val@U?$_List_simple_types@U?$pair@$$CBH_N@std@@@std@@@std@@@2@XZ ; std::list<std::pair<int const ,bool>,std::allocator<std::pair<int const ,bool> > >::end
PUBLIC	?_Unchecked_begin@?$list@U?$pair@$$CBH_N@std@@V?$allocator@U?$pair@$$CBH_N@std@@@2@@std@@QEAA?AV?$_List_unchecked_iterator@V?$_List_val@U?$_List_simple_types@U?$pair@$$CBH_N@std@@@std@@@std@@@2@XZ ; std::list<std::pair<int const ,bool>,std::allocator<std::pair<int const ,bool> > >::_Unchecked_begin
PUBLIC	?_Unchecked_end@?$list@U?$pair@$$CBH_N@std@@V?$allocator@U?$pair@$$CBH_N@std@@@2@@std@@QEAA?AV?$_List_unchecked_iterator@V?$_List_val@U?$_List_simple_types@U?$pair@$$CBH_N@std@@@std@@@std@@@2@XZ ; std::list<std::pair<int const ,bool>,std::allocator<std::pair<int const ,bool> > >::_Unchecked_end
PUBLIC	?_Make_iter@?$list@U?$pair@$$CBH_N@std@@V?$allocator@U?$pair@$$CBH_N@std@@@2@@std@@QEBA?AV?$_List_iterator@V?$_List_val@U?$_List_simple_types@U?$pair@$$CBH_N@std@@@std@@@std@@@2@PEAU?$_List_node@U?$pair@$$CBH_N@std@@PEAX@2@@Z ; std::list<std::pair<int const ,bool>,std::allocator<std::pair<int const ,bool> > >::_Make_iter
PUBLIC	?max_size@?$list@U?$pair@$$CBH_N@std@@V?$allocator@U?$pair@$$CBH_N@std@@@2@@std@@QEBA_KXZ ; std::list<std::pair<int const ,bool>,std::allocator<std::pair<int const ,bool> > >::max_size
PUBLIC	?clear@?$list@U?$pair@$$CBH_N@std@@V?$allocator@U?$pair@$$CBH_N@std@@@2@@std@@QEAAXXZ ; std::list<std::pair<int const ,bool>,std::allocator<std::pair<int const ,bool> > >::clear
PUBLIC	?_Tidy@?$list@U?$pair@$$CBH_N@std@@V?$allocator@U?$pair@$$CBH_N@std@@@2@@std@@AEAAXXZ ; std::list<std::pair<int const ,bool>,std::allocator<std::pair<int const ,bool> > >::_Tidy
PUBLIC	?_Alloc_sentinel_and_proxy@?$list@U?$pair@$$CBH_N@std@@V?$allocator@U?$pair@$$CBH_N@std@@@2@@std@@AEAAXXZ ; std::list<std::pair<int const ,bool>,std::allocator<std::pair<int const ,bool> > >::_Alloc_sentinel_and_proxy
PUBLIC	?_Getal@?$list@U?$pair@$$CBH_N@std@@V?$allocator@U?$pair@$$CBH_N@std@@@2@@std@@AEAAAEAV?$allocator@U?$_List_node@U?$pair@$$CBH_N@std@@PEAX@std@@@2@XZ ; std::list<std::pair<int const ,bool>,std::allocator<std::pair<int const ,bool> > >::_Getal
PUBLIC	?_Getal@?$list@U?$pair@$$CBH_N@std@@V?$allocator@U?$pair@$$CBH_N@std@@@2@@std@@AEBAAEBV?$allocator@U?$_List_node@U?$pair@$$CBH_N@std@@PEAX@std@@@2@XZ ; std::list<std::pair<int const ,bool>,std::allocator<std::pair<int const ,bool> > >::_Getal
PUBLIC	??0?$_List_val@U?$_List_simple_types@U?$pair@$$CBH_N@std@@@std@@@std@@QEAA@XZ ; std::_List_val<std::_List_simple_types<std::pair<int const ,bool> > >::_List_val<std::_List_simple_types<std::pair<int const ,bool> > >
PUBLIC	?_Orphan_non_end@?$_List_val@U?$_List_simple_types@U?$pair@$$CBH_N@std@@@std@@@std@@QEAAXXZ ; std::_List_val<std::_List_simple_types<std::pair<int const ,bool> > >::_Orphan_non_end
PUBLIC	?_Unchecked_splice@?$_List_val@U?$_List_simple_types@U?$pair@$$CBH_N@std@@@std@@@std@@SAPEAU?$_List_node@U?$pair@$$CBH_N@std@@PEAX@2@QEAU32@00@Z ; std::_List_val<std::_List_simple_types<std::pair<int const ,bool> > >::_Unchecked_splice
PUBLIC	?_Get_first@?$_Compressed_pair@V?$allocator@U?$_List_node@U?$pair@$$CBH_N@std@@PEAX@std@@@std@@V?$_List_val@U?$_List_simple_types@U?$pair@$$CBH_N@std@@@std@@@2@$00@std@@QEAAAEAV?$allocator@U?$_List_node@U?$pair@$$CBH_N@std@@PEAX@std@@@2@XZ ; std::_Compressed_pair<std::allocator<std::_List_node<std::pair<int const ,bool>,void *> >,std::_List_val<std::_List_simple_types<std::pair<int const ,bool> > >,1>::_Get_first
PUBLIC	?_Get_first@?$_Compressed_pair@V?$allocator@U?$_List_node@U?$pair@$$CBH_N@std@@PEAX@std@@@std@@V?$_List_val@U?$_List_simple_types@U?$pair@$$CBH_N@std@@@std@@@2@$00@std@@QEBAAEBV?$allocator@U?$_List_node@U?$pair@$$CBH_N@std@@PEAX@std@@@2@XZ ; std::_Compressed_pair<std::allocator<std::_List_node<std::pair<int const ,bool>,void *> >,std::_List_val<std::_List_simple_types<std::pair<int const ,bool> > >,1>::_Get_first
PUBLIC	??0?$_Hash@V?$_Umap_traits@H_NV?$_Uhash_compare@HU?$hash@H@std@@U?$equal_to@H@2@@std@@V?$allocator@U?$pair@$$CBH_N@std@@@2@$0A@@std@@@std@@IEAA@AEBV?$_Uhash_compare@HU?$hash@H@std@@U?$equal_to@H@2@@1@AEBV?$allocator@U?$pair@$$CBH_N@std@@@1@@Z ; std::_Hash<std::_Umap_traits<int,bool,std::_Uhash_compare<int,std::hash<int>,std::equal_to<int> >,std::allocator<std::pair<int const ,bool> >,0> >::_Hash<std::_Umap_traits<int,bool,std::_Uhash_compare<int,std::hash<int>,std::equal_to<int> >,std::allocator<std::pair<int const ,bool> >,0> >
PUBLIC	?end@?$_Hash@V?$_Umap_traits@H_NV?$_Uhash_compare@HU?$hash@H@std@@U?$equal_to@H@2@@std@@V?$allocator@U?$pair@$$CBH_N@std@@@2@$0A@@std@@@std@@QEAA?AV?$_List_iterator@V?$_List_val@U?$_List_simple_types@U?$pair@$$CBH_N@std@@@std@@@std@@@2@XZ ; std::_Hash<std::_Umap_traits<int,bool,std::_Uhash_compare<int,std::hash<int>,std::equal_to<int> >,std::allocator<std::pair<int const ,bool> >,0> >::end
PUBLIC	?_Unchecked_begin@?$_Hash@V?$_Umap_traits@H_NV?$_Uhash_compare@HU?$hash@H@std@@U?$equal_to@H@2@@std@@V?$allocator@U?$pair@$$CBH_N@std@@@2@$0A@@std@@@std@@QEAA?AV?$_List_unchecked_iterator@V?$_List_val@U?$_List_simple_types@U?$pair@$$CBH_N@std@@@std@@@std@@@2@XZ ; std::_Hash<std::_Umap_traits<int,bool,std::_Uhash_compare<int,std::hash<int>,std::equal_to<int> >,std::allocator<std::pair<int const ,bool> >,0> >::_Unchecked_begin
PUBLIC	?_Unchecked_end@?$_Hash@V?$_Umap_traits@H_NV?$_Uhash_compare@HU?$hash@H@std@@U?$equal_to@H@2@@std@@V?$allocator@U?$pair@$$CBH_N@std@@@2@$0A@@std@@@std@@QEAA?AV?$_List_unchecked_iterator@V?$_List_val@U?$_List_simple_types@U?$pair@$$CBH_N@std@@@std@@@std@@@2@XZ ; std::_Hash<std::_Umap_traits<int,bool,std::_Uhash_compare<int,std::hash<int>,std::equal_to<int> >,std::allocator<std::pair<int const ,bool> >,0> >::_Unchecked_end
PUBLIC	?bucket_count@?$_Hash@V?$_Umap_traits@H_NV?$_Uhash_compare@HU?$hash@H@std@@U?$equal_to@H@2@@std@@V?$allocator@U?$pair@$$CBH_N@std@@@2@$0A@@std@@@std@@QEBA_KXZ ; std::_Hash<std::_Umap_traits<int,bool,std::_Uhash_compare<int,std::hash<int>,std::equal_to<int> >,std::allocator<std::pair<int const ,bool> >,0> >::bucket_count
PUBLIC	?bucket@?$_Hash@V?$_Umap_traits@H_NV?$_Uhash_compare@HU?$hash@H@std@@U?$equal_to@H@2@@std@@V?$allocator@U?$pair@$$CBH_N@std@@@2@$0A@@std@@@std@@QEBA_KAEBH@Z ; std::_Hash<std::_Umap_traits<int,bool,std::_Uhash_compare<int,std::hash<int>,std::equal_to<int> >,std::allocator<std::pair<int const ,bool> >,0> >::bucket
PUBLIC	?max_load_factor@?$_Hash@V?$_Umap_traits@H_NV?$_Uhash_compare@HU?$hash@H@std@@U?$equal_to@H@2@@std@@V?$allocator@U?$pair@$$CBH_N@std@@@2@$0A@@std@@@std@@QEBAMXZ ; std::_Hash<std::_Umap_traits<int,bool,std::_Uhash_compare<int,std::hash<int>,std::equal_to<int> >,std::allocator<std::pair<int const ,bool> >,0> >::max_load_factor
PUBLIC	?_Unchecked_erase@?$_Hash@V?$_Umap_traits@H_NV?$_Uhash_compare@HU?$hash@H@std@@U?$equal_to@H@2@@std@@V?$allocator@U?$pair@$$CBH_N@std@@@2@$0A@@std@@@std@@AEAAPEAU?$_List_node@U?$pair@$$CBH_N@std@@PEAX@2@PEAU32@QEAU32@@Z ; std::_Hash<std::_Umap_traits<int,bool,std::_Uhash_compare<int,std::hash<int>,std::equal_to<int> >,std::allocator<std::pair<int const ,bool> >,0> >::_Unchecked_erase
PUBLIC	?clear@?$_Hash@V?$_Umap_traits@H_NV?$_Uhash_compare@HU?$hash@H@std@@U?$equal_to@H@2@@std@@V?$allocator@U?$pair@$$CBH_N@std@@@2@$0A@@std@@@std@@QEAAXXZ ; std::_Hash<std::_Umap_traits<int,bool,std::_Uhash_compare<int,std::hash<int>,std::equal_to<int> >,std::allocator<std::pair<int const ,bool> >,0> >::clear
PUBLIC	?_Insert_new_node_before@?$_Hash@V?$_Umap_traits@H_NV?$_Uhash_compare@HU?$hash@H@std@@U?$equal_to@H@2@@std@@V?$allocator@U?$pair@$$CBH_N@std@@@2@$0A@@std@@@std@@IEAAPEAU?$_List_node@U?$pair@$$CBH_N@std@@PEAX@2@_KQEAU32@1@Z ; std::_Hash<std::_Umap_traits<int,bool,std::_Uhash_compare<int,std::hash<int>,std::equal_to<int> >,std::allocator<std::pair<int const ,bool> >,0> >::_Insert_new_node_before
PUBLIC	?_Check_max_size@?$_Hash@V?$_Umap_traits@H_NV?$_Uhash_compare@HU?$hash@H@std@@U?$equal_to@H@2@@std@@V?$allocator@U?$pair@$$CBH_N@std@@@2@$0A@@std@@@std@@IEBAXXZ ; std::_Hash<std::_Umap_traits<int,bool,std::_Uhash_compare<int,std::hash<int>,std::equal_to<int> >,std::allocator<std::pair<int const ,bool> >,0> >::_Check_max_size
PUBLIC	?_Check_rehash_required_1@?$_Hash@V?$_Umap_traits@H_NV?$_Uhash_compare@HU?$hash@H@std@@U?$equal_to@H@2@@std@@V?$allocator@U?$pair@$$CBH_N@std@@@2@$0A@@std@@@std@@IEBA_NXZ ; std::_Hash<std::_Umap_traits<int,bool,std::_Uhash_compare<int,std::hash<int>,std::equal_to<int> >,std::allocator<std::pair<int const ,bool> >,0> >::_Check_rehash_required_1
PUBLIC	?_Rehash_for_1@?$_Hash@V?$_Umap_traits@H_NV?$_Uhash_compare@HU?$hash@H@std@@U?$equal_to@H@2@@std@@V?$allocator@U?$pair@$$CBH_N@std@@@2@$0A@@std@@@std@@IEAAXXZ ; std::_Hash<std::_Umap_traits<int,bool,std::_Uhash_compare<int,std::hash<int>,std::equal_to<int> >,std::allocator<std::pair<int const ,bool> >,0> >::_Rehash_for_1
PUBLIC	?_Min_load_factor_buckets@?$_Hash@V?$_Umap_traits@H_NV?$_Uhash_compare@HU?$hash@H@std@@U?$equal_to@H@2@@std@@V?$allocator@U?$pair@$$CBH_N@std@@@2@$0A@@std@@@std@@IEBA_K_K@Z ; std::_Hash<std::_Umap_traits<int,bool,std::_Uhash_compare<int,std::hash<int>,std::equal_to<int> >,std::allocator<std::pair<int const ,bool> >,0> >::_Min_load_factor_buckets
PUBLIC	?_Desired_grow_bucket_count@?$_Hash@V?$_Umap_traits@H_NV?$_Uhash_compare@HU?$hash@H@std@@U?$equal_to@H@2@@std@@V?$allocator@U?$pair@$$CBH_N@std@@@2@$0A@@std@@@std@@IEBA_K_K@Z ; std::_Hash<std::_Umap_traits<int,bool,std::_Uhash_compare<int,std::hash<int>,std::equal_to<int> >,std::allocator<std::pair<int const ,bool> >,0> >::_Desired_grow_bucket_count
PUBLIC	?_Forced_rehash@?$_Hash@V?$_Umap_traits@H_NV?$_Uhash_compare@HU?$hash@H@std@@U?$equal_to@H@2@@std@@V?$allocator@U?$pair@$$CBH_N@std@@@2@$0A@@std@@@std@@IEAAX_K@Z ; std::_Hash<std::_Umap_traits<int,bool,std::_Uhash_compare<int,std::hash<int>,std::equal_to<int> >,std::allocator<std::pair<int const ,bool> >,0> >::_Forced_rehash
PUBLIC	?_Max_bucket_size@?$_Hash@V?$_Umap_traits@H_NV?$_Uhash_compare@HU?$hash@H@std@@U?$equal_to@H@2@@std@@V?$allocator@U?$pair@$$CBH_N@std@@@2@$0A@@std@@@std@@IEAAAEAMXZ ; std::_Hash<std::_Umap_traits<int,bool,std::_Uhash_compare<int,std::hash<int>,std::equal_to<int> >,std::allocator<std::pair<int const ,bool> >,0> >::_Max_bucket_size
PUBLIC	?_Max_bucket_size@?$_Hash@V?$_Umap_traits@H_NV?$_Uhash_compare@HU?$hash@H@std@@U?$equal_to@H@2@@std@@V?$allocator@U?$pair@$$CBH_N@std@@@2@$0A@@std@@@std@@IEBAAEBMXZ ; std::_Hash<std::_Umap_traits<int,bool,std::_Uhash_compare<int,std::hash<int>,std::equal_to<int> >,std::allocator<std::pair<int const ,bool> >,0> >::_Max_bucket_size
PUBLIC	?deallocate@?$allocator@V?$_List_unchecked_iterator@V?$_List_val@U?$_List_simple_types@U?$pair@$$CBH_N@std@@@std@@@std@@@std@@@std@@QEAAXQEAV?$_List_unchecked_iterator@V?$_List_val@U?$_List_simple_types@U?$pair@$$CBH_N@std@@@std@@@std@@@2@_K@Z ; std::allocator<std::_List_unchecked_iterator<std::_List_val<std::_List_simple_types<std::pair<int const ,bool> > > > >::deallocate
PUBLIC	?allocate@?$allocator@V?$_List_unchecked_iterator@V?$_List_val@U?$_List_simple_types@U?$pair@$$CBH_N@std@@@std@@@std@@@std@@@std@@QEAAPEAV?$_List_unchecked_iterator@V?$_List_val@U?$_List_simple_types@U?$pair@$$CBH_N@std@@@std@@@std@@@2@_K@Z ; std::allocator<std::_List_unchecked_iterator<std::_List_val<std::_List_simple_types<std::pair<int const ,bool> > > > >::allocate
PUBLIC	?max_size@?$_Default_allocator_traits@V?$allocator@V?$_List_unchecked_iterator@V?$_List_val@U?$_List_simple_types@U?$pair@$$CBH_N@std@@@std@@@std@@@std@@@std@@@std@@SA_KAEBV?$allocator@V?$_List_unchecked_iterator@V?$_List_val@U?$_List_simple_types@U?$pair@$$CBH_N@std@@@std@@@std@@@std@@@2@@Z ; std::_Default_allocator_traits<std::allocator<std::_List_unchecked_iterator<std::_List_val<std::_List_simple_types<std::pair<int const ,bool> > > > > >::max_size
PUBLIC	?size@?$_Hash_vec@V?$allocator@V?$_List_unchecked_iterator@V?$_List_val@U?$_List_simple_types@U?$pair@$$CBH_N@std@@@std@@@std@@@std@@@std@@@std@@QEBA_KXZ ; std::_Hash_vec<std::allocator<std::_List_unchecked_iterator<std::_List_val<std::_List_simple_types<std::pair<int const ,bool> > > > > >::size
PUBLIC	?max_size@?$_Hash_vec@V?$allocator@V?$_List_unchecked_iterator@V?$_List_val@U?$_List_simple_types@U?$pair@$$CBH_N@std@@@std@@@std@@@std@@@std@@@std@@QEBA_KXZ ; std::_Hash_vec<std::allocator<std::_List_unchecked_iterator<std::_List_val<std::_List_simple_types<std::pair<int const ,bool> > > > > >::max_size
PUBLIC	?capacity@?$_Hash_vec@V?$allocator@V?$_List_unchecked_iterator@V?$_List_val@U?$_List_simple_types@U?$pair@$$CBH_N@std@@@std@@@std@@@std@@@std@@@std@@QEBA_KXZ ; std::_Hash_vec<std::allocator<std::_List_unchecked_iterator<std::_List_val<std::_List_simple_types<std::pair<int const ,bool> > > > > >::capacity
PUBLIC	?_Assign_grow@?$_Hash_vec@V?$allocator@V?$_List_unchecked_iterator@V?$_List_val@U?$_List_simple_types@U?$pair@$$CBH_N@std@@@std@@@std@@@std@@@std@@@std@@QEAAX_KV?$_List_unchecked_iterator@V?$_List_val@U?$_List_simple_types@U?$pair@$$CBH_N@std@@@std@@@std@@@2@@Z ; std::_Hash_vec<std::allocator<std::_List_unchecked_iterator<std::_List_val<std::_List_simple_types<std::pair<int const ,bool> > > > > >::_Assign_grow
PUBLIC	?_Tidy@?$_Hash_vec@V?$allocator@V?$_List_unchecked_iterator@V?$_List_val@U?$_List_simple_types@U?$pair@$$CBH_N@std@@@std@@@std@@@std@@@std@@@std@@QEAAXXZ ; std::_Hash_vec<std::allocator<std::_List_unchecked_iterator<std::_List_val<std::_List_simple_types<std::pair<int const ,bool> > > > > >::_Tidy
PUBLIC	??1?$_Hash_vec@V?$allocator@V?$_List_unchecked_iterator@V?$_List_val@U?$_List_simple_types@U?$pair@$$CBH_N@std@@@std@@@std@@@std@@@std@@@std@@QEAA@XZ ; std::_Hash_vec<std::allocator<std::_List_unchecked_iterator<std::_List_val<std::_List_simple_types<std::pair<int const ,bool> > > > > >::~_Hash_vec<std::allocator<std::_List_unchecked_iterator<std::_List_val<std::_List_simple_types<std::pair<int const ,bool> > > > > >
PUBLIC	??0?$_Vector_val@U?$_Simple_types@V?$_List_unchecked_iterator@V?$_List_val@U?$_List_simple_types@U?$pair@$$CBH_N@std@@@std@@@std@@@std@@@std@@@std@@QEAA@XZ ; std::_Vector_val<std::_Simple_types<std::_List_unchecked_iterator<std::_List_val<std::_List_simple_types<std::pair<int const ,bool> > > > > >::_Vector_val<std::_Simple_types<std::_List_unchecked_iterator<std::_List_val<std::_List_simple_types<std::pair<int const ,bool> > > > > >
PUBLIC	?_Get_first@?$_Compressed_pair@V?$allocator@V?$_List_unchecked_iterator@V?$_List_val@U?$_List_simple_types@U?$pair@$$CBH_N@std@@@std@@@std@@@std@@@std@@V?$_Vector_val@U?$_Simple_types@V?$_List_unchecked_iterator@V?$_List_val@U?$_List_simple_types@U?$pair@$$CBH_N@std@@@std@@@std@@@std@@@std@@@2@$00@std@@QEAAAEAV?$allocator@V?$_List_unchecked_iterator@V?$_List_val@U?$_List_simple_types@U?$pair@$$CBH_N@std@@@std@@@std@@@std@@@2@XZ ; std::_Compressed_pair<std::allocator<std::_List_unchecked_iterator<std::_List_val<std::_List_simple_types<std::pair<int const ,bool> > > > >,std::_Vector_val<std::_Simple_types<std::_List_unchecked_iterator<std::_List_val<std::_List_simple_types<std::pair<int const ,bool> > > > > >,1>::_Get_first
PUBLIC	?_Get_first@?$_Compressed_pair@V?$allocator@V?$_List_unchecked_iterator@V?$_List_val@U?$_List_simple_types@U?$pair@$$CBH_N@std@@@std@@@std@@@std@@@std@@V?$_Vector_val@U?$_Simple_types@V?$_List_unchecked_iterator@V?$_List_val@U?$_List_simple_types@U?$pair@$$CBH_N@std@@@std@@@std@@@std@@@std@@@2@$00@std@@QEBAAEBV?$allocator@V?$_List_unchecked_iterator@V?$_List_val@U?$_List_simple_types@U?$pair@$$CBH_N@std@@@std@@@std@@@std@@@2@XZ ; std::_Compressed_pair<std::allocator<std::_List_unchecked_iterator<std::_List_val<std::_List_simple_types<std::pair<int const ,bool> > > > >,std::_Vector_val<std::_Simple_types<std::_List_unchecked_iterator<std::_List_val<std::_List_simple_types<std::pair<int const ,bool> > > > > >,1>::_Get_first
PUBLIC	??1?$_Hash@V?$_Umap_traits@H_NV?$_Uhash_compare@HU?$hash@H@std@@U?$equal_to@H@2@@std@@V?$allocator@U?$pair@$$CBH_N@std@@@2@$0A@@std@@@std@@QEAA@XZ ; std::_Hash<std::_Umap_traits<int,bool,std::_Uhash_compare<int,std::hash<int>,std::equal_to<int> >,std::allocator<std::pair<int const ,bool> >,0> >::~_Hash<std::_Umap_traits<int,bool,std::_Uhash_compare<int,std::hash<int>,std::equal_to<int> >,std::allocator<std::pair<int const ,bool> >,0> >
PUBLIC	??0?$unordered_map@H_NU?$hash@H@std@@U?$equal_to@H@2@V?$allocator@U?$pair@$$CBH_N@std@@@2@@std@@QEAA@XZ ; std::unordered_map<int,bool,std::hash<int>,std::equal_to<int>,std::allocator<std::pair<int const ,bool> > >::unordered_map<int,bool,std::hash<int>,std::equal_to<int>,std::allocator<std::pair<int const ,bool> > >
PUBLIC	??1?$unordered_map@H_NU?$hash@H@std@@U?$equal_to@H@2@V?$allocator@U?$pair@$$CBH_N@std@@@2@@std@@QEAA@XZ ; std::unordered_map<int,bool,std::hash<int>,std::equal_to<int>,std::allocator<std::pair<int const ,bool> > >::~unordered_map<int,bool,std::hash<int>,std::equal_to<int>,std::allocator<std::pair<int const ,bool> > >
PUBLIC	??0?$_Tree_unchecked_const_iterator@V?$_Tree_val@U?$_Tree_simple_types@U?$pair@$$CBHV?$vector@V?$function@$$A6AXXZ@std@@V?$allocator@V?$function@$$A6AXXZ@std@@@2@@std@@@std@@@std@@@std@@U_Iterator_base0@2@@std@@QEAA@PEAU?$_Tree_node@U?$pair@$$CBHV?$vector@V?$function@$$A6AXXZ@std@@V?$allocator@V?$function@$$A6AXXZ@std@@@2@@std@@@std@@PEAX@1@PEBV?$_Tree_val@U?$_Tree_simple_types@U?$pair@$$CBHV?$vector@V?$function@$$A6AXXZ@std@@V?$allocator@V?$function@$$A6AXXZ@std@@@2@@std@@@std@@@std@@@1@@Z ; std::_Tree_unchecked_const_iterator<std::_Tree_val<std::_Tree_simple_types<std::pair<int const ,std::vector<std::function<void __cdecl(void)>,std::allocator<std::function<void __cdecl(void)> > > > > >,std::_Iterator_base0>::_Tree_unchecked_const_iterator<std::_Tree_val<std::_Tree_simple_types<std::pair<int const ,std::vector<std::function<void __cdecl(void)>,std::allocator<std::function<void __cdecl(void)> > > > > >,std::_Iterator_base0>
PUBLIC	??D?$_Tree_const_iterator@V?$_Tree_val@U?$_Tree_simple_types@U?$pair@$$CBHV?$vector@V?$function@$$A6AXXZ@std@@V?$allocator@V?$function@$$A6AXXZ@std@@@2@@std@@@std@@@std@@@std@@@std@@QEBAAEBU?$pair@$$CBHV?$vector@V?$function@$$A6AXXZ@std@@V?$allocator@V?$function@$$A6AXXZ@std@@@2@@std@@@1@XZ ; std::_Tree_const_iterator<std::_Tree_val<std::_Tree_simple_types<std::pair<int const ,std::vector<std::function<void __cdecl(void)>,std::allocator<std::function<void __cdecl(void)> > > > > > >::operator*
PUBLIC	??8?$_Tree_const_iterator@V?$_Tree_val@U?$_Tree_simple_types@U?$pair@$$CBHV?$vector@V?$function@$$A6AXXZ@std@@V?$allocator@V?$function@$$A6AXXZ@std@@@2@@std@@@std@@@std@@@std@@@std@@QEBA_NAEBV01@@Z ; std::_Tree_const_iterator<std::_Tree_val<std::_Tree_simple_types<std::pair<int const ,std::vector<std::function<void __cdecl(void)>,std::allocator<std::function<void __cdecl(void)> > > > > > >::operator==
PUBLIC	??9?$_Tree_const_iterator@V?$_Tree_val@U?$_Tree_simple_types@U?$pair@$$CBHV?$vector@V?$function@$$A6AXXZ@std@@V?$allocator@V?$function@$$A6AXXZ@std@@@2@@std@@@std@@@std@@@std@@@std@@QEBA_NAEBV01@@Z ; std::_Tree_const_iterator<std::_Tree_val<std::_Tree_simple_types<std::pair<int const ,std::vector<std::function<void __cdecl(void)>,std::allocator<std::function<void __cdecl(void)> > > > > > >::operator!=
PUBLIC	??0?$_Tree_const_iterator@V?$_Tree_val@U?$_Tree_simple_types@U?$pair@$$CBHV?$vector@V?$function@$$A6AXXZ@std@@V?$allocator@V?$function@$$A6AXXZ@std@@@2@@std@@@std@@@std@@@std@@@std@@QEAA@PEAU?$_Tree_node@U?$pair@$$CBHV?$vector@V?$function@$$A6AXXZ@std@@V?$allocator@V?$function@$$A6AXXZ@std@@@2@@std@@@std@@PEAX@1@PEBV?$_Tree_val@U?$_Tree_simple_types@U?$pair@$$CBHV?$vector@V?$function@$$A6AXXZ@std@@V?$allocator@V?$function@$$A6AXXZ@std@@@2@@std@@@std@@@std@@@1@@Z ; std::_Tree_const_iterator<std::_Tree_val<std::_Tree_simple_types<std::pair<int const ,std::vector<std::function<void __cdecl(void)>,std::allocator<std::function<void __cdecl(void)> > > > > > >::_Tree_const_iterator<std::_Tree_val<std::_Tree_simple_types<std::pair<int const ,std::vector<std::function<void __cdecl(void)>,std::allocator<std::function<void __cdecl(void)> > > > > > >
PUBLIC	??D?$_Tree_iterator@V?$_Tree_val@U?$_Tree_simple_types@U?$pair@$$CBHV?$vector@V?$function@$$A6AXXZ@std@@V?$allocator@V?$function@$$A6AXXZ@std@@@2@@std@@@std@@@std@@@std@@@std@@QEBAAEAU?$pair@$$CBHV?$vector@V?$function@$$A6AXXZ@std@@V?$allocator@V?$function@$$A6AXXZ@std@@@2@@std@@@1@XZ ; std::_Tree_iterator<std::_Tree_val<std::_Tree_simple_types<std::pair<int const ,std::vector<std::function<void __cdecl(void)>,std::allocator<std::function<void __cdecl(void)> > > > > > >::operator*
PUBLIC	??C?$_Tree_iterator@V?$_Tree_val@U?$_Tree_simple_types@U?$pair@$$CBHV?$vector@V?$function@$$A6AXXZ@std@@V?$allocator@V?$function@$$A6AXXZ@std@@@2@@std@@@std@@@std@@@std@@@std@@QEBAPEAU?$pair@$$CBHV?$vector@V?$function@$$A6AXXZ@std@@V?$allocator@V?$function@$$A6AXXZ@std@@@2@@std@@@1@XZ ; std::_Tree_iterator<std::_Tree_val<std::_Tree_simple_types<std::pair<int const ,std::vector<std::function<void __cdecl(void)>,std::allocator<std::function<void __cdecl(void)> > > > > > >::operator->
PUBLIC	??0?$_Tree_iterator@V?$_Tree_val@U?$_Tree_simple_types@U?$pair@$$CBHV?$vector@V?$function@$$A6AXXZ@std@@V?$allocator@V?$function@$$A6AXXZ@std@@@2@@std@@@std@@@std@@@std@@@std@@QEAA@PEAU?$_Tree_node@U?$pair@$$CBHV?$vector@V?$function@$$A6AXXZ@std@@V?$allocator@V?$function@$$A6AXXZ@std@@@2@@std@@@std@@PEAX@1@PEBV?$_Tree_val@U?$_Tree_simple_types@U?$pair@$$CBHV?$vector@V?$function@$$A6AXXZ@std@@V?$allocator@V?$function@$$A6AXXZ@std@@@2@@std@@@std@@@std@@@1@@Z ; std::_Tree_iterator<std::_Tree_val<std::_Tree_simple_types<std::pair<int const ,std::vector<std::function<void __cdecl(void)>,std::allocator<std::function<void __cdecl(void)> > > > > > >::_Tree_iterator<std::_Tree_val<std::_Tree_simple_types<std::pair<int const ,std::vector<std::function<void __cdecl(void)>,std::allocator<std::function<void __cdecl(void)> > > > > > >
PUBLIC	??1?$pair@$$CBHV?$vector@V?$function@$$A6AXXZ@std@@V?$allocator@V?$function@$$A6AXXZ@std@@@2@@std@@@std@@QEAA@XZ ; std::pair<int const ,std::vector<std::function<void __cdecl(void)>,std::allocator<std::function<void __cdecl(void)> > > >::~pair<int const ,std::vector<std::function<void __cdecl(void)>,std::allocator<std::function<void __cdecl(void)> > > >
PUBLIC	??_G?$pair@$$CBHV?$vector@V?$function@$$A6AXXZ@std@@V?$allocator@V?$function@$$A6AXXZ@std@@@2@@std@@@std@@QEAAPEAXI@Z ; std::pair<int const ,std::vector<std::function<void __cdecl(void)>,std::allocator<std::function<void __cdecl(void)> > > >::`scalar deleting destructor'
PUBLIC	??$find@X@?$_Hash@V?$_Umap_traits@H_NV?$_Uhash_compare@HU?$hash@H@std@@U?$equal_to@H@2@@std@@V?$allocator@U?$pair@$$CBH_N@std@@@2@$0A@@std@@@std@@QEAA?AV?$_List_iterator@V?$_List_val@U?$_List_simple_types@U?$pair@$$CBH_N@std@@@std@@@std@@@1@AEBH@Z ; std::_Hash<std::_Umap_traits<int,bool,std::_Uhash_compare<int,std::hash<int>,std::equal_to<int> >,std::allocator<std::pair<int const ,bool> >,0> >::find<void>
PUBLIC	??0?$_List_unchecked_const_iterator@V?$_List_val@U?$_List_simple_types@U?$pair@$$CBH_N@std@@@std@@@std@@U_Iterator_base0@2@@std@@QEAA@PEAU?$_List_node@U?$pair@$$CBH_N@std@@PEAX@1@PEBV?$_List_val@U?$_List_simple_types@U?$pair@$$CBH_N@std@@@std@@@1@@Z ; std::_List_unchecked_const_iterator<std::_List_val<std::_List_simple_types<std::pair<int const ,bool> > >,std::_Iterator_base0>::_List_unchecked_const_iterator<std::_List_val<std::_List_simple_types<std::pair<int const ,bool> > >,std::_Iterator_base0>
PUBLIC	??D?$_List_unchecked_const_iterator@V?$_List_val@U?$_List_simple_types@U?$pair@$$CBH_N@std@@@std@@@std@@U_Iterator_base0@2@@std@@QEBAAEBU?$pair@$$CBH_N@1@XZ ; std::_List_unchecked_const_iterator<std::_List_val<std::_List_simple_types<std::pair<int const ,bool> > >,std::_Iterator_base0>::operator*
PUBLIC	??E?$_List_unchecked_const_iterator@V?$_List_val@U?$_List_simple_types@U?$pair@$$CBH_N@std@@@std@@@std@@U_Iterator_base0@2@@std@@QEAAAEAV01@XZ ; std::_List_unchecked_const_iterator<std::_List_val<std::_List_simple_types<std::pair<int const ,bool> > >,std::_Iterator_base0>::operator++
PUBLIC	??F?$_List_unchecked_const_iterator@V?$_List_val@U?$_List_simple_types@U?$pair@$$CBH_N@std@@@std@@@std@@U_Iterator_base0@2@@std@@QEAAAEAV01@XZ ; std::_List_unchecked_const_iterator<std::_List_val<std::_List_simple_types<std::pair<int const ,bool> > >,std::_Iterator_base0>::operator--
PUBLIC	??8?$_List_unchecked_const_iterator@V?$_List_val@U?$_List_simple_types@U?$pair@$$CBH_N@std@@@std@@@std@@U_Iterator_base0@2@@std@@QEBA_NAEBV01@@Z ; std::_List_unchecked_const_iterator<std::_List_val<std::_List_simple_types<std::pair<int const ,bool> > >,std::_Iterator_base0>::operator==
PUBLIC	??9?$_List_unchecked_const_iterator@V?$_List_val@U?$_List_simple_types@U?$pair@$$CBH_N@std@@@std@@@std@@U_Iterator_base0@2@@std@@QEBA_NAEBV01@@Z ; std::_List_unchecked_const_iterator<std::_List_val<std::_List_simple_types<std::pair<int const ,bool> > >,std::_Iterator_base0>::operator!=
PUBLIC	??D?$_List_const_iterator@V?$_List_val@U?$_List_simple_types@U?$pair@$$CBH_N@std@@@std@@@std@@@std@@QEBAAEBU?$pair@$$CBH_N@1@XZ ; std::_List_const_iterator<std::_List_val<std::_List_simple_types<std::pair<int const ,bool> > > >::operator*
PUBLIC	??8?$_List_const_iterator@V?$_List_val@U?$_List_simple_types@U?$pair@$$CBH_N@std@@@std@@@std@@@std@@QEBA_NAEBV01@@Z ; std::_List_const_iterator<std::_List_val<std::_List_simple_types<std::pair<int const ,bool> > > >::operator==
PUBLIC	??0?$_List_const_iterator@V?$_List_val@U?$_List_simple_types@U?$pair@$$CBH_N@std@@@std@@@std@@@std@@QEAA@PEAU?$_List_node@U?$pair@$$CBH_N@std@@PEAX@1@PEBV?$_List_val@U?$_List_simple_types@U?$pair@$$CBH_N@std@@@std@@@1@@Z ; std::_List_const_iterator<std::_List_val<std::_List_simple_types<std::pair<int const ,bool> > > >::_List_const_iterator<std::_List_val<std::_List_simple_types<std::pair<int const ,bool> > > >
PUBLIC	??D?$_List_iterator@V?$_List_val@U?$_List_simple_types@U?$pair@$$CBH_N@std@@@std@@@std@@@std@@QEBAAEAU?$pair@$$CBH_N@1@XZ ; std::_List_iterator<std::_List_val<std::_List_simple_types<std::pair<int const ,bool> > > >::operator*
PUBLIC	??C?$_List_iterator@V?$_List_val@U?$_List_simple_types@U?$pair@$$CBH_N@std@@@std@@@std@@@std@@QEBAPEAU?$pair@$$CBH_N@1@XZ ; std::_List_iterator<std::_List_val<std::_List_simple_types<std::pair<int const ,bool> > > >::operator->
PUBLIC	??0?$_List_iterator@V?$_List_val@U?$_List_simple_types@U?$pair@$$CBH_N@std@@@std@@@std@@@std@@QEAA@PEAU?$_List_node@U?$pair@$$CBH_N@std@@PEAX@1@PEBV?$_List_val@U?$_List_simple_types@U?$pair@$$CBH_N@std@@@std@@@1@@Z ; std::_List_iterator<std::_List_val<std::_List_simple_types<std::pair<int const ,bool> > > >::_List_iterator<std::_List_val<std::_List_simple_types<std::pair<int const ,bool> > > >
PUBLIC	??$emplace@AEBH_N@?$_Hash@V?$_Umap_traits@H_NV?$_Uhash_compare@HU?$hash@H@std@@U?$equal_to@H@2@@std@@V?$allocator@U?$pair@$$CBH_N@std@@@2@$0A@@std@@@std@@QEAA?AU?$pair@V?$_List_iterator@V?$_List_val@U?$_List_simple_types@U?$pair@$$CBH_N@std@@@std@@@std@@@std@@_N@1@AEBH$$QEA_N@Z ; std::_Hash<std::_Umap_traits<int,bool,std::_Uhash_compare<int,std::hash<int>,std::equal_to<int> >,std::allocator<std::pair<int const ,bool> >,0> >::emplace<int const &,bool>
PUBLIC	??$constHash@$0?BGNOOJIGFPHBLFGF@@@YA_KXZ	; constHash<-1648011277000357221>
PUBLIC	?pointer_to@?$pointer_traits@PEAU?$pair@$$CBH_N@std@@@std@@SAPEAU?$pair@$$CBH_N@2@AEAU32@@Z ; std::pointer_traits<std::pair<int const ,bool> *>::pointer_to
PUBLIC	?pointer_to@?$pointer_traits@PEAU?$pair@$$CBHV?$vector@V?$function@$$A6AXXZ@std@@V?$allocator@V?$function@$$A6AXXZ@std@@@2@@std@@@std@@@std@@SAPEAU?$pair@$$CBHV?$vector@V?$function@$$A6AXXZ@std@@V?$allocator@V?$function@$$A6AXXZ@std@@@2@@std@@@2@AEAU32@@Z ; std::pointer_traits<std::pair<int const ,std::vector<std::function<void __cdecl(void)>,std::allocator<std::function<void __cdecl(void)> > > > *>::pointer_to
PUBLIC	??$_Unfancy_maybe_null@V?$function@$$A6AXXZ@std@@@std@@YAPEAV?$function@$$A6AXXZ@0@PEAV10@@Z ; std::_Unfancy_maybe_null<std::function<void __cdecl(void)> >
PUBLIC	??$_Destroy_range@V?$allocator@V?$function@$$A6AXXZ@std@@@std@@@std@@YAXPEAV?$function@$$A6AXXZ@0@QEAV10@AEAV?$allocator@V?$function@$$A6AXXZ@std@@@0@@Z ; std::_Destroy_range<std::allocator<std::function<void __cdecl(void)> > >
PUBLIC	??$_Emplace_one_at_back@AEBV?$function@$$A6AXXZ@std@@@?$vector@V?$function@$$A6AXXZ@std@@V?$allocator@V?$function@$$A6AXXZ@std@@@2@@std@@AEAAAEAV?$function@$$A6AXXZ@1@AEBV21@@Z ; std::vector<std::function<void __cdecl(void)>,std::allocator<std::function<void __cdecl(void)> > >::_Emplace_one_at_back<std::function<void __cdecl(void)> const &>
PUBLIC	??$forward@AEAUWndEventArgs@Core@IronMan@@@std@@YAAEAUWndEventArgs@Core@IronMan@@AEAU123@@Z ; std::forward<IronMan::Core::WndEventArgs &>
PUBLIC	??$_Try_emplace@H$$V@?$map@HV?$vector@V?$function@$$A6AXXZ@std@@V?$allocator@V?$function@$$A6AXXZ@std@@@2@@std@@U?$less@H@2@V?$allocator@U?$pair@$$CBHV?$vector@V?$function@$$A6AXXZ@std@@V?$allocator@V?$function@$$A6AXXZ@std@@@2@@std@@@std@@@2@@std@@AEAA?AU?$pair@PEAU?$_Tree_node@U?$pair@$$CBHV?$vector@V?$function@$$A6AXXZ@std@@V?$allocator@V?$function@$$A6AXXZ@std@@@2@@std@@@std@@PEAX@std@@_N@1@$$QEAH@Z ; std::map<int,std::vector<std::function<void __cdecl(void)>,std::allocator<std::function<void __cdecl(void)> > >,std::less<int>,std::allocator<std::pair<int const ,std::vector<std::function<void __cdecl(void)>,std::allocator<std::function<void __cdecl(void)> > > > > >::_Try_emplace<int>
PUBLIC	??$_Find@H@?$_Tree@V?$_Tmap_traits@HV?$vector@V?$function@$$A6AXXZ@std@@V?$allocator@V?$function@$$A6AXXZ@std@@@2@@std@@U?$less@H@2@V?$allocator@U?$pair@$$CBHV?$vector@V?$function@$$A6AXXZ@std@@V?$allocator@V?$function@$$A6AXXZ@std@@@2@@std@@@std@@@2@$0A@@std@@@std@@AEBAPEAU?$_Tree_node@U?$pair@$$CBHV?$vector@V?$function@$$A6AXXZ@std@@V?$allocator@V?$function@$$A6AXXZ@std@@@2@@std@@@std@@PEAX@1@AEBH@Z ; std::_Tree<std::_Tmap_traits<int,std::vector<std::function<void __cdecl(void)>,std::allocator<std::function<void __cdecl(void)> > >,std::less<int>,std::allocator<std::pair<int const ,std::vector<std::function<void __cdecl(void)>,std::allocator<std::function<void __cdecl(void)> > > > >,0> >::_Find<int>
PUBLIC	??$_Erase_head@V?$allocator@U?$_Tree_node@U?$pair@$$CBHV?$vector@V?$function@$$A6AXXZ@std@@V?$allocator@V?$function@$$A6AXXZ@std@@@2@@std@@@std@@PEAX@std@@@std@@@?$_Tree_val@U?$_Tree_simple_types@U?$pair@$$CBHV?$vector@V?$function@$$A6AXXZ@std@@V?$allocator@V?$function@$$A6AXXZ@std@@@2@@std@@@std@@@std@@@std@@QEAAXAEAV?$allocator@U?$_Tree_node@U?$pair@$$CBHV?$vector@V?$function@$$A6AXXZ@std@@V?$allocator@V?$function@$$A6AXXZ@std@@@2@@std@@@std@@PEAX@std@@@1@@Z ; std::_Tree_val<std::_Tree_simple_types<std::pair<int const ,std::vector<std::function<void __cdecl(void)>,std::allocator<std::function<void __cdecl(void)> > > > > >::_Erase_head<std::allocator<std::_Tree_node<std::pair<int const ,std::vector<std::function<void __cdecl(void)>,std::allocator<std::function<void __cdecl(void)> > > >,void *> > >
PUBLIC	??0?$_List_unchecked_const_iterator@V?$_List_val@U?$_List_simple_types@V?$function@$$A6AXXZ@std@@@std@@@std@@U_Iterator_base0@2@@std@@QEAA@PEAU?$_List_node@V?$function@$$A6AXXZ@std@@PEAX@1@PEBV?$_List_val@U?$_List_simple_types@V?$function@$$A6AXXZ@std@@@std@@@1@@Z ; std::_List_unchecked_const_iterator<std::_List_val<std::_List_simple_types<std::function<void __cdecl(void)> > >,std::_Iterator_base0>::_List_unchecked_const_iterator<std::_List_val<std::_List_simple_types<std::function<void __cdecl(void)> > >,std::_Iterator_base0>
PUBLIC	??D?$_List_const_iterator@V?$_List_val@U?$_List_simple_types@V?$function@$$A6AXXZ@std@@@std@@@std@@@std@@QEBAAEBV?$function@$$A6AXXZ@1@XZ ; std::_List_const_iterator<std::_List_val<std::_List_simple_types<std::function<void __cdecl(void)> > > >::operator*
PUBLIC	??E?$_List_const_iterator@V?$_List_val@U?$_List_simple_types@V?$function@$$A6AXXZ@std@@@std@@@std@@@std@@QEAAAEAV01@XZ ; std::_List_const_iterator<std::_List_val<std::_List_simple_types<std::function<void __cdecl(void)> > > >::operator++
PUBLIC	??8?$_List_const_iterator@V?$_List_val@U?$_List_simple_types@V?$function@$$A6AXXZ@std@@@std@@@std@@@std@@QEBA_NAEBV01@@Z ; std::_List_const_iterator<std::_List_val<std::_List_simple_types<std::function<void __cdecl(void)> > > >::operator==
PUBLIC	??9?$_List_const_iterator@V?$_List_val@U?$_List_simple_types@V?$function@$$A6AXXZ@std@@@std@@@std@@@std@@QEBA_NAEBV01@@Z ; std::_List_const_iterator<std::_List_val<std::_List_simple_types<std::function<void __cdecl(void)> > > >::operator!=
PUBLIC	??0?$_List_const_iterator@V?$_List_val@U?$_List_simple_types@V?$function@$$A6AXXZ@std@@@std@@@std@@@std@@QEAA@PEAU?$_List_node@V?$function@$$A6AXXZ@std@@PEAX@1@PEBV?$_List_val@U?$_List_simple_types@V?$function@$$A6AXXZ@std@@@std@@@1@@Z ; std::_List_const_iterator<std::_List_val<std::_List_simple_types<std::function<void __cdecl(void)> > > >::_List_const_iterator<std::_List_val<std::_List_simple_types<std::function<void __cdecl(void)> > > >
PUBLIC	??D?$_List_iterator@V?$_List_val@U?$_List_simple_types@V?$function@$$A6AXXZ@std@@@std@@@std@@@std@@QEBAAEAV?$function@$$A6AXXZ@1@XZ ; std::_List_iterator<std::_List_val<std::_List_simple_types<std::function<void __cdecl(void)> > > >::operator*
PUBLIC	??E?$_List_iterator@V?$_List_val@U?$_List_simple_types@V?$function@$$A6AXXZ@std@@@std@@@std@@@std@@QEAA?AV01@H@Z ; std::_List_iterator<std::_List_val<std::_List_simple_types<std::function<void __cdecl(void)> > > >::operator++
PUBLIC	??0?$_List_iterator@V?$_List_val@U?$_List_simple_types@V?$function@$$A6AXXZ@std@@@std@@@std@@@std@@QEAA@PEAU?$_List_node@V?$function@$$A6AXXZ@std@@PEAX@1@PEBV?$_List_val@U?$_List_simple_types@V?$function@$$A6AXXZ@std@@@std@@@1@@Z ; std::_List_iterator<std::_List_val<std::_List_simple_types<std::function<void __cdecl(void)> > > >::_List_iterator<std::_List_val<std::_List_simple_types<std::function<void __cdecl(void)> > > >
PUBLIC	??$?0$$V@?$_Compressed_pair@V?$allocator@U?$_List_node@V?$function@$$A6AXXZ@std@@PEAX@std@@@std@@V?$_List_val@U?$_List_simple_types@V?$function@$$A6AXXZ@std@@@std@@@2@$00@std@@QEAA@U_Zero_then_variadic_args_t@1@@Z ; std::_Compressed_pair<std::allocator<std::_List_node<std::function<void __cdecl(void)>,void *> >,std::_List_val<std::_List_simple_types<std::function<void __cdecl(void)> > >,1>::_Compressed_pair<std::allocator<std::_List_node<std::function<void __cdecl(void)>,void *> >,std::_List_val<std::_List_simple_types<std::function<void __cdecl(void)> > >,1><>
PUBLIC	??$forward@_N@std@@YA$$QEA_NAEA_N@Z		; std::forward<bool>
PUBLIC	??$_Unfancy@D@std@@YAPEADPEAD@Z			; std::_Unfancy<char>
PUBLIC	??$max@_K@std@@YAAEB_KAEB_K0@Z			; std::max<unsigned __int64>
PUBLIC	??$_Max_limit@_J@std@@YA_JXZ			; std::_Max_limit<__int64>
PUBLIC	??$?0$$V@?$_Compressed_pair@V?$allocator@D@std@@V?$_String_val@U?$_Simple_types@D@std@@@2@$00@std@@QEAA@U_Zero_then_variadic_args_t@1@@Z ; std::_Compressed_pair<std::allocator<char>,std::_String_val<std::_Simple_types<char> >,1>::_Compressed_pair<std::allocator<char>,std::_String_val<std::_Simple_types<char> >,1><>
PUBLIC	??$addressof@U?$pair@$$CBHV?$vector@V?$function@$$A6AXXZ@std@@V?$allocator@V?$function@$$A6AXXZ@std@@@2@@std@@@std@@@std@@YAPEAU?$pair@$$CBHV?$vector@V?$function@$$A6AXXZ@std@@V?$allocator@V?$function@$$A6AXXZ@std@@@2@@std@@@0@AEAU10@@Z ; std::addressof<std::pair<int const ,std::vector<std::function<void __cdecl(void)>,std::allocator<std::function<void __cdecl(void)> > > > >
PUBLIC	??$addressof@U?$pair@$$CBH_N@std@@@std@@YAPEAU?$pair@$$CBH_N@0@AEAU10@@Z ; std::addressof<std::pair<int const ,bool> >
PUBLIC	??D?$_List_unchecked_iterator@V?$_List_val@U?$_List_simple_types@U?$pair@$$CBH_N@std@@@std@@@std@@@std@@QEBAAEAU?$pair@$$CBH_N@1@XZ ; std::_List_unchecked_iterator<std::_List_val<std::_List_simple_types<std::pair<int const ,bool> > > >::operator*
PUBLIC	??E?$_List_unchecked_iterator@V?$_List_val@U?$_List_simple_types@U?$pair@$$CBH_N@std@@@std@@@std@@@std@@QEAAAEAV01@XZ ; std::_List_unchecked_iterator<std::_List_val<std::_List_simple_types<std::pair<int const ,bool> > > >::operator++
PUBLIC	??0?$_List_unchecked_iterator@V?$_List_val@U?$_List_simple_types@U?$pair@$$CBH_N@std@@@std@@@std@@@std@@QEAA@PEAU?$_List_node@U?$pair@$$CBH_N@std@@PEAX@1@PEBV?$_List_val@U?$_List_simple_types@U?$pair@$$CBH_N@std@@@std@@@1@@Z ; std::_List_unchecked_iterator<std::_List_val<std::_List_simple_types<std::pair<int const ,bool> > > >::_List_unchecked_iterator<std::_List_val<std::_List_simple_types<std::pair<int const ,bool> > > >
PUBLIC	??$_Destroy_range@PEAV?$_List_unchecked_iterator@V?$_List_val@U?$_List_simple_types@U?$pair@$$CBH_N@std@@@std@@@std@@@std@@PEAV12@@std@@YAXPEAV?$_List_unchecked_iterator@V?$_List_val@U?$_List_simple_types@U?$pair@$$CBH_N@std@@@std@@@std@@@0@QEAV10@@Z ; std::_Destroy_range<std::_List_unchecked_iterator<std::_List_val<std::_List_simple_types<std::pair<int const ,bool> > > > *,std::_List_unchecked_iterator<std::_List_val<std::_List_simple_types<std::pair<int const ,bool> > > > *>
PUBLIC	??$?0AEBV?$allocator@U?$pair@$$CBH_N@std@@@std@@$0A@@?$_Hash_vec@V?$allocator@V?$_List_unchecked_iterator@V?$_List_val@U?$_List_simple_types@U?$pair@$$CBH_N@std@@@std@@@std@@@std@@@std@@@std@@QEAA@AEBV?$allocator@U?$pair@$$CBH_N@std@@@1@@Z ; std::_Hash_vec<std::allocator<std::_List_unchecked_iterator<std::_List_val<std::_List_simple_types<std::pair<int const ,bool> > > > > >::_Hash_vec<std::allocator<std::_List_unchecked_iterator<std::_List_val<std::_List_simple_types<std::pair<int const ,bool> > > > > ><std::allocator<std::pair<int const ,bool> > const &,0>
PUBLIC	??$_Free_non_head@V?$allocator@U?$_List_node@U?$pair@$$CBH_N@std@@PEAX@std@@@std@@@?$_List_node@U?$pair@$$CBH_N@std@@PEAX@std@@SAXAEAV?$allocator@U?$_List_node@U?$pair@$$CBH_N@std@@PEAX@std@@@1@PEAU01@@Z ; std::_List_node<std::pair<int const ,bool>,void *>::_Free_non_head<std::allocator<std::_List_node<std::pair<int const ,bool>,void *> > >
PUBLIC	??$_Freenode0@V?$allocator@U?$_List_node@U?$pair@$$CBH_N@std@@PEAX@std@@@std@@@?$_List_node@U?$pair@$$CBH_N@std@@PEAX@std@@SAXAEAV?$allocator@U?$_List_node@U?$pair@$$CBH_N@std@@PEAX@std@@@1@PEAU01@@Z ; std::_List_node<std::pair<int const ,bool>,void *>::_Freenode0<std::allocator<std::_List_node<std::pair<int const ,bool>,void *> > >
PUBLIC	??$addressof@V?$_List_val@U?$_List_simple_types@U?$pair@$$CBH_N@std@@@std@@@std@@@std@@YAPEAV?$_List_val@U?$_List_simple_types@U?$pair@$$CBH_N@std@@@std@@@0@AEAV10@@Z ; std::addressof<std::_List_val<std::_List_simple_types<std::pair<int const ,bool> > > >
PUBLIC	??$?0U_Zero_then_variadic_args_t@std@@M@?$_Compressed_pair@U?$hash@H@std@@V?$_Compressed_pair@U?$equal_to@H@std@@M$00@2@$00@std@@QEAA@U_Zero_then_variadic_args_t@1@$$QEAU21@$$QEAM@Z ; std::_Compressed_pair<std::hash<int>,std::_Compressed_pair<std::equal_to<int>,float,1>,1>::_Compressed_pair<std::hash<int>,std::_Compressed_pair<std::equal_to<int>,float,1>,1><std::_Zero_then_variadic_args_t,float>
PUBLIC	??$?0M@?$_Compressed_pair@U?$equal_to@H@std@@M$00@std@@QEAA@U_Zero_then_variadic_args_t@1@$$QEAM@Z ; std::_Compressed_pair<std::equal_to<int>,float,1>::_Compressed_pair<std::equal_to<int>,float,1><float>
PUBLIC	??$addressof@V?$_Tree_val@U?$_Tree_simple_types@U?$pair@$$CBHV?$vector@V?$function@$$A6AXXZ@std@@V?$allocator@V?$function@$$A6AXXZ@std@@@2@@std@@@std@@@std@@@std@@@std@@YAPEAV?$_Tree_val@U?$_Tree_simple_types@U?$pair@$$CBHV?$vector@V?$function@$$A6AXXZ@std@@V?$allocator@V?$function@$$A6AXXZ@std@@@2@@std@@@std@@@std@@@0@AEAV10@@Z ; std::addressof<std::_Tree_val<std::_Tree_simple_types<std::pair<int const ,std::vector<std::function<void __cdecl(void)>,std::allocator<std::function<void __cdecl(void)> > > > > > >
PUBLIC	??$?0AEBU?$less@H@std@@U_Zero_then_variadic_args_t@1@@?$_Compressed_pair@U?$less@H@std@@V?$_Compressed_pair@V?$allocator@U?$_Tree_node@U?$pair@$$CBHV?$vector@V?$function@$$A6AXXZ@std@@V?$allocator@V?$function@$$A6AXXZ@std@@@2@@std@@@std@@PEAX@std@@@std@@V?$_Tree_val@U?$_Tree_simple_types@U?$pair@$$CBHV?$vector@V?$function@$$A6AXXZ@std@@V?$allocator@V?$function@$$A6AXXZ@std@@@2@@std@@@std@@@std@@@2@$00@2@$00@std@@QEAA@U_One_then_variadic_args_t@1@AEBU?$less@H@1@$$QEAU_Zero_then_variadic_args_t@1@@Z ; std::_Compressed_pair<std::less<int>,std::_Compressed_pair<std::allocator<std::_Tree_node<std::pair<int const ,std::vector<std::function<void __cdecl(void)>,std::allocator<std::function<void __cdecl(void)> > > >,void *> >,std::_Tree_val<std::_Tree_simple_types<std::pair<int const ,std::vector<std::function<void __cdecl(void)>,std::allocator<std::function<void __cdecl(void)> > > > > >,1>,1>::_Compressed_pair<std::less<int>,std::_Compressed_pair<std::allocator<std::_Tree_node<std::pair<int const ,std::vector<std::function<void __cdecl(void)>,std::allocator<std::function<void __cdecl(void)> > > >,void *> >,std::_Tree_val<std::_Tree_simple_types<std::pair<int const ,std::vector<std::function<void __cdecl(void)>,std::allocator<std::function<void __cdecl(void)> > > > > >,1>,1><std::less<int> const &,std::_Zero_then_variadic_args_t>
PUBLIC	??$?0$$V@?$_Compressed_pair@V?$allocator@U?$_Tree_node@U?$pair@$$CBHV?$vector@V?$function@$$A6AXXZ@std@@V?$allocator@V?$function@$$A6AXXZ@std@@@2@@std@@@std@@PEAX@std@@@std@@V?$_Tree_val@U?$_Tree_simple_types@U?$pair@$$CBHV?$vector@V?$function@$$A6AXXZ@std@@V?$allocator@V?$function@$$A6AXXZ@std@@@2@@std@@@std@@@std@@@2@$00@std@@QEAA@U_Zero_then_variadic_args_t@1@@Z ; std::_Compressed_pair<std::allocator<std::_Tree_node<std::pair<int const ,std::vector<std::function<void __cdecl(void)>,std::allocator<std::function<void __cdecl(void)> > > >,void *> >,std::_Tree_val<std::_Tree_simple_types<std::pair<int const ,std::vector<std::function<void __cdecl(void)>,std::allocator<std::function<void __cdecl(void)> > > > > >,1>::_Compressed_pair<std::allocator<std::_Tree_node<std::pair<int const ,std::vector<std::function<void __cdecl(void)>,std::allocator<std::function<void __cdecl(void)> > > >,void *> >,std::_Tree_val<std::_Tree_simple_types<std::pair<int const ,std::vector<std::function<void __cdecl(void)>,std::allocator<std::function<void __cdecl(void)> > > > > >,1><>
