; Listing generated by Microsoft (R) Optimizing Compiler Version 19.43.34810.0 

include listing.inc

INCLUDELIB LIBCMT
INCLUDELIB OLDNAMES

PUBLIC	??0ErrorHandler@asmjit@@QEAA@XZ			; asmjit::ErrorHandler::ErrorHandler
PUBLIC	??1ErrorHandler@asmjit@@UEAA@XZ			; asmjit::ErrorHandler::~ErrorHandler
PUBLIC	?addRef@ErrorHandler@asmjit@@UEBAPEAU12@XZ	; asmjit::ErrorHandler::addRef
PUBLIC	?release@ErrorHandler@asmjit@@UEAAXXZ		; asmjit::ErrorHandler::release
PUBLIC	??_GErrorHandler@asmjit@@UEAAPEAXI@Z		; asmjit::ErrorHandler::`scalar deleting destructor'
PUBLIC	??_7ErrorHandler@asmjit@@6B@			; asmjit::ErrorHandler::`vftable'
PUBLIC	??_R4ErrorHandler@asmjit@@6B@			; asmjit::ErrorHandler::`RTTI Complete Object Locator'
PUBLIC	??_R0?AUErrorHandler@asmjit@@@8			; asmjit::ErrorHandler `RTTI Type Descriptor'
PUBLIC	??_R3ErrorHandler@asmjit@@8			; asmjit::ErrorHandler::`RTTI Class Hierarchy Descriptor'
PUBLIC	??_R2ErrorHandler@asmjit@@8			; asmjit::ErrorHandler::`RTTI Base Class Array'
PUBLIC	??_R1A@?0A@EA@ErrorHandler@asmjit@@8		; asmjit::ErrorHandler::`RTTI Base Class Descriptor at (0,-1,0,64)'
EXTRN	_purecall:PROC
EXTRN	??3@YAXPEAX_K@Z:PROC				; operator delete
EXTRN	??_EErrorHandler@asmjit@@UEAAPEAXI@Z:PROC	; asmjit::ErrorHandler::`vector deleting destructor'
EXTRN	??_7type_info@@6B@:BYTE				; type_info::`vftable'
;	COMDAT pdata
pdata	SEGMENT
$pdata$??_GErrorHandler@asmjit@@UEAAPEAXI@Z DD imagerel $LN4
	DD	imagerel $LN4+60
	DD	imagerel $unwind$??_GErrorHandler@asmjit@@UEAAPEAXI@Z
pdata	ENDS
;	COMDAT ??_R1A@?0A@EA@ErrorHandler@asmjit@@8
rdata$r	SEGMENT
??_R1A@?0A@EA@ErrorHandler@asmjit@@8 DD imagerel ??_R0?AUErrorHandler@asmjit@@@8 ; asmjit::ErrorHandler::`RTTI Base Class Descriptor at (0,-1,0,64)'
	DD	00H
	DD	00H
	DD	0ffffffffH
	DD	00H
	DD	040H
	DD	imagerel ??_R3ErrorHandler@asmjit@@8
rdata$r	ENDS
;	COMDAT ??_R2ErrorHandler@asmjit@@8
rdata$r	SEGMENT
??_R2ErrorHandler@asmjit@@8 DD imagerel ??_R1A@?0A@EA@ErrorHandler@asmjit@@8 ; asmjit::ErrorHandler::`RTTI Base Class Array'
	ORG $+3
rdata$r	ENDS
;	COMDAT ??_R3ErrorHandler@asmjit@@8
rdata$r	SEGMENT
??_R3ErrorHandler@asmjit@@8 DD 00H			; asmjit::ErrorHandler::`RTTI Class Hierarchy Descriptor'
	DD	00H
	DD	01H
	DD	imagerel ??_R2ErrorHandler@asmjit@@8
rdata$r	ENDS
;	COMDAT ??_R0?AUErrorHandler@asmjit@@@8
data$rs	SEGMENT
??_R0?AUErrorHandler@asmjit@@@8 DQ FLAT:??_7type_info@@6B@ ; asmjit::ErrorHandler `RTTI Type Descriptor'
	DQ	0000000000000000H
	DB	'.?AUErrorHandler@asmjit@@', 00H
data$rs	ENDS
;	COMDAT ??_R4ErrorHandler@asmjit@@6B@
rdata$r	SEGMENT
??_R4ErrorHandler@asmjit@@6B@ DD 01H			; asmjit::ErrorHandler::`RTTI Complete Object Locator'
	DD	00H
	DD	00H
	DD	imagerel ??_R0?AUErrorHandler@asmjit@@@8
	DD	imagerel ??_R3ErrorHandler@asmjit@@8
	DD	imagerel ??_R4ErrorHandler@asmjit@@6B@
rdata$r	ENDS
;	COMDAT ??_7ErrorHandler@asmjit@@6B@
CONST	SEGMENT
??_7ErrorHandler@asmjit@@6B@ DQ FLAT:??_R4ErrorHandler@asmjit@@6B@ ; asmjit::ErrorHandler::`vftable'
	DQ	FLAT:??_EErrorHandler@asmjit@@UEAAPEAXI@Z
	DQ	FLAT:?addRef@ErrorHandler@asmjit@@UEBAPEAU12@XZ
	DQ	FLAT:?release@ErrorHandler@asmjit@@UEAAXXZ
	DQ	FLAT:_purecall
CONST	ENDS
;	COMDAT xdata
xdata	SEGMENT
$unwind$??_GErrorHandler@asmjit@@UEAAPEAXI@Z DD 010d01H
	DD	0420dH
xdata	ENDS
; Function compile flags: /Odtp
;	COMDAT ??_GErrorHandler@asmjit@@UEAAPEAXI@Z
_TEXT	SEGMENT
this$ = 48
__flags$ = 56
??_GErrorHandler@asmjit@@UEAAPEAXI@Z PROC		; asmjit::ErrorHandler::`scalar deleting destructor', COMDAT
$LN4:
	mov	DWORD PTR [rsp+16], edx
	mov	QWORD PTR [rsp+8], rcx
	sub	rsp, 40					; 00000028H
	mov	rcx, QWORD PTR this$[rsp]
	call	??1ErrorHandler@asmjit@@UEAA@XZ		; asmjit::ErrorHandler::~ErrorHandler
	mov	eax, DWORD PTR __flags$[rsp]
	and	eax, 1
	test	eax, eax
	je	SHORT $LN2@scalar
	mov	edx, 8
	mov	rcx, QWORD PTR this$[rsp]
	call	??3@YAXPEAX_K@Z				; operator delete
	npad	1
$LN2@scalar:
	mov	rax, QWORD PTR this$[rsp]
	add	rsp, 40					; 00000028H
	ret	0
??_GErrorHandler@asmjit@@UEAAPEAXI@Z ENDP		; asmjit::ErrorHandler::`scalar deleting destructor'
_TEXT	ENDS
; Function compile flags: /Odtp
; File D:\c++\paoda\ThirdParty\AsmJit\base\error.cpp
_TEXT	SEGMENT
this$ = 8
?release@ErrorHandler@asmjit@@UEAAXXZ PROC		; asmjit::ErrorHandler::release

; 34   : void ErrorHandler::release() {}

	mov	QWORD PTR [rsp+8], rcx
	ret	0
?release@ErrorHandler@asmjit@@UEAAXXZ ENDP		; asmjit::ErrorHandler::release
_TEXT	ENDS
; Function compile flags: /Odtp
; File D:\c++\paoda\ThirdParty\AsmJit\base\error.cpp
_TEXT	SEGMENT
this$ = 8
?addRef@ErrorHandler@asmjit@@UEBAPEAU12@XZ PROC		; asmjit::ErrorHandler::addRef

; 30   : ErrorHandler* ErrorHandler::addRef() const {

	mov	QWORD PTR [rsp+8], rcx

; 31   :   return const_cast<ErrorHandler*>(this);

	mov	rax, QWORD PTR this$[rsp]

; 32   : }

	ret	0
?addRef@ErrorHandler@asmjit@@UEBAPEAU12@XZ ENDP		; asmjit::ErrorHandler::addRef
_TEXT	ENDS
; Function compile flags: /Odtp
; File D:\c++\paoda\ThirdParty\AsmJit\base\error.cpp
_TEXT	SEGMENT
this$ = 8
??1ErrorHandler@asmjit@@UEAA@XZ PROC			; asmjit::ErrorHandler::~ErrorHandler

; 24   : ErrorHandler::~ErrorHandler() {}

	mov	QWORD PTR [rsp+8], rcx
	mov	rax, QWORD PTR this$[rsp]
	lea	rcx, OFFSET FLAT:??_7ErrorHandler@asmjit@@6B@
	mov	QWORD PTR [rax], rcx
	ret	0
??1ErrorHandler@asmjit@@UEAA@XZ ENDP			; asmjit::ErrorHandler::~ErrorHandler
_TEXT	ENDS
; Function compile flags: /Odtp
; File D:\c++\paoda\ThirdParty\AsmJit\base\error.cpp
_TEXT	SEGMENT
this$ = 8
??0ErrorHandler@asmjit@@QEAA@XZ PROC			; asmjit::ErrorHandler::ErrorHandler

; 23   : ErrorHandler::ErrorHandler() {}

	mov	QWORD PTR [rsp+8], rcx
	mov	rax, QWORD PTR this$[rsp]
	lea	rcx, OFFSET FLAT:??_7ErrorHandler@asmjit@@6B@
	mov	QWORD PTR [rax], rcx
	mov	rax, QWORD PTR this$[rsp]
	ret	0
??0ErrorHandler@asmjit@@QEAA@XZ ENDP			; asmjit::ErrorHandler::ErrorHandler
_TEXT	ENDS
END
