; Listing generated by Microsoft (R) Optimizing Compiler Version 19.43.34810.0 

include listing.inc

INCLUDELIB LIBCMT
INCLUDELIB OLDNAMES

PUBLIC	__local_stdio_printf_options
PUBLIC	_vfprintf_l
PUBLIC	fprintf
PUBLIC	?assertionFailed@asmjit@@YAXPEBD0H@Z		; asmjit::assertionFailed
PUBLIC	?_OptionsStorage@?1??__local_stdio_printf_options@@9@4_KA ; `__local_stdio_printf_options'::`2'::_OptionsStorage
PUBLIC	??_C@_0CJ@GJOMDGPG@Assertion?5failed?3?5?$CFs?6?0?5file?5?$CFs?0@ ; `string'
EXTRN	__acrt_iob_func:PROC
EXTRN	__stdio_common_vfprintf:PROC
EXTRN	abort:PROC
;	COMDAT ?_OptionsStorage@?1??__local_stdio_printf_options@@9@4_KA
_BSS	SEGMENT
?_OptionsStorage@?1??__local_stdio_printf_options@@9@4_KA DQ 01H DUP (?) ; `__local_stdio_printf_options'::`2'::_OptionsStorage
_BSS	ENDS
;	COMDAT pdata
pdata	SEGMENT
$pdata$_vfprintf_l DD imagerel $LN3
	DD	imagerel $LN3+67
	DD	imagerel $unwind$_vfprintf_l
pdata	ENDS
;	COMDAT pdata
pdata	SEGMENT
$pdata$fprintf DD imagerel $LN3
	DD	imagerel $LN3+79
	DD	imagerel $unwind$fprintf
pdata	ENDS
pdata	SEGMENT
$pdata$?assertionFailed@asmjit@@YAXPEBD0H@Z DD imagerel $LN3
	DD	imagerel $LN3+73
	DD	imagerel $unwind$?assertionFailed@asmjit@@YAXPEBD0H@Z
pdata	ENDS
;	COMDAT ??_C@_0CJ@GJOMDGPG@Assertion?5failed?3?5?$CFs?6?0?5file?5?$CFs?0@
CONST	SEGMENT
??_C@_0CJ@GJOMDGPG@Assertion?5failed?3?5?$CFs?6?0?5file?5?$CFs?0@ DB 'Ass'
	DB	'ertion failed: %s', 0aH, ', file %s, line %d', 0aH, 00H ; `string'
CONST	ENDS
xdata	SEGMENT
$unwind$?assertionFailed@asmjit@@YAXPEBD0H@Z DD 011301H
	DD	06213H
xdata	ENDS
;	COMDAT xdata
xdata	SEGMENT
$unwind$fprintf DD 011801H
	DD	06218H
xdata	ENDS
;	COMDAT xdata
xdata	SEGMENT
$unwind$_vfprintf_l DD 011801H
	DD	06218H
xdata	ENDS
; Function compile flags: /Odtp
; File D:\c++\paoda\ThirdParty\AsmJit\base\globals.cpp
_TEXT	SEGMENT
exp$ = 64
file$ = 72
line$ = 80
?assertionFailed@asmjit@@YAXPEBD0H@Z PROC		; asmjit::assertionFailed

; 22   : void assertionFailed(const char* exp, const char* file, int line) {

$LN3:
	mov	DWORD PTR [rsp+24], r8d
	mov	QWORD PTR [rsp+16], rdx
	mov	QWORD PTR [rsp+8], rcx
	sub	rsp, 56					; 00000038H

; 23   :   ::fprintf(stderr, "Assertion failed: %s\n, file %s, line %d\n", exp, file, line);

	mov	ecx, 2
	call	__acrt_iob_func
	mov	ecx, DWORD PTR line$[rsp]
	mov	DWORD PTR [rsp+32], ecx
	mov	r9, QWORD PTR file$[rsp]
	mov	r8, QWORD PTR exp$[rsp]
	lea	rdx, OFFSET FLAT:??_C@_0CJ@GJOMDGPG@Assertion?5failed?3?5?$CFs?6?0?5file?5?$CFs?0@
	mov	rcx, rax
	call	fprintf

; 24   :   ::abort();

	call	abort
	npad	1
$LN2@assertionF:

; 25   : }

	add	rsp, 56					; 00000038H
	ret	0
?assertionFailed@asmjit@@YAXPEBD0H@Z ENDP		; asmjit::assertionFailed
_TEXT	ENDS
; Function compile flags: /Odtp
; File C:\Program Files (x86)\Windows Kits\10\Include\10.0.26100.0\ucrt\stdio.h
;	COMDAT fprintf
_TEXT	SEGMENT
_Result$ = 32
_ArgList$ = 40
_Stream$ = 64
_Format$ = 72
fprintf	PROC						; COMDAT

; 837  :     {

$LN3:
	mov	QWORD PTR [rsp+16], rdx
	mov	QWORD PTR [rsp+8], rcx
	mov	QWORD PTR [rsp+24], r8
	mov	QWORD PTR [rsp+32], r9
	sub	rsp, 56					; 00000038H

; 838  :         int _Result;
; 839  :         va_list _ArgList;
; 840  :         __crt_va_start(_ArgList, _Format);

	lea	rax, QWORD PTR _Format$[rsp+8]
	mov	QWORD PTR _ArgList$[rsp], rax

; 841  :         _Result = _vfprintf_l(_Stream, _Format, NULL, _ArgList);

	mov	r9, QWORD PTR _ArgList$[rsp]
	xor	r8d, r8d
	mov	rdx, QWORD PTR _Format$[rsp]
	mov	rcx, QWORD PTR _Stream$[rsp]
	call	_vfprintf_l
	mov	DWORD PTR _Result$[rsp], eax

; 842  :         __crt_va_end(_ArgList);

	mov	QWORD PTR _ArgList$[rsp], 0

; 843  :         return _Result;

	mov	eax, DWORD PTR _Result$[rsp]

; 844  :     }

	add	rsp, 56					; 00000038H
	ret	0
fprintf	ENDP
_TEXT	ENDS
; Function compile flags: /Odtp
; File C:\Program Files (x86)\Windows Kits\10\Include\10.0.26100.0\ucrt\stdio.h
;	COMDAT _vfprintf_l
_TEXT	SEGMENT
_Stream$ = 64
_Format$ = 72
_Locale$ = 80
_ArgList$ = 88
_vfprintf_l PROC					; COMDAT

; 644  :     {

$LN3:
	mov	QWORD PTR [rsp+32], r9
	mov	QWORD PTR [rsp+24], r8
	mov	QWORD PTR [rsp+16], rdx
	mov	QWORD PTR [rsp+8], rcx
	sub	rsp, 56					; 00000038H

; 645  :         return __stdio_common_vfprintf(_CRT_INTERNAL_LOCAL_PRINTF_OPTIONS, _Stream, _Format, _Locale, _ArgList);

	call	__local_stdio_printf_options
	mov	rcx, QWORD PTR _ArgList$[rsp]
	mov	QWORD PTR [rsp+32], rcx
	mov	r9, QWORD PTR _Locale$[rsp]
	mov	r8, QWORD PTR _Format$[rsp]
	mov	rdx, QWORD PTR _Stream$[rsp]
	mov	rcx, QWORD PTR [rax]
	call	__stdio_common_vfprintf

; 646  :     }

	add	rsp, 56					; 00000038H
	ret	0
_vfprintf_l ENDP
_TEXT	ENDS
; Function compile flags: /Odtp
; File C:\Program Files (x86)\Windows Kits\10\Include\10.0.26100.0\ucrt\corecrt_stdio_config.h
;	COMDAT __local_stdio_printf_options
_TEXT	SEGMENT
__local_stdio_printf_options PROC			; COMDAT

; 91   :         static unsigned __int64 _OptionsStorage;
; 92   :         return &_OptionsStorage;

	lea	rax, OFFSET FLAT:?_OptionsStorage@?1??__local_stdio_printf_options@@9@4_KA ; `__local_stdio_printf_options'::`2'::_OptionsStorage

; 93   :     }

	ret	0
__local_stdio_printf_options ENDP
_TEXT	ENDS
END
