; Listing generated by Microsoft (R) Optimizing Compiler Version 19.43.34810.0 

include listing.inc

INCLUDELIB LIBCMT
INCLUDELIB OLDNAMES

PUBLIC	??_C@_06GLKGGCJO@LcOpen@			; `string'
PUBLIC	??_C@_06GJPHNGFG@LcRead@			; `string'
PUBLIC	??_C@_0O@CBBNAKKC@LcReadScatter@		; `string'
PUBLIC	??_C@_07MBHEMNEL@LcWrite@			; `string'
PUBLIC	??_C@_0P@DAJMPOFM@LcWriteScatter@		; `string'
PUBLIC	??_C@_0M@HBBFEIGD@LcGetOption@			; `string'
PUBLIC	??_C@_0M@FPFAGJPB@LcSetOption@			; `string'
PUBLIC	??_C@_09DCHLEDFD@LcCommand@			; `string'
PUBLIC	??_C@_03HPADHAHE@N?1A@				; `string'
PUBLIC	??_C@_03HDGGCCPD@X86@				; `string'
PUBLIC	??_C@_06IDLKBMKC@X86PAE@			; `string'
PUBLIC	??_C@_03ELMOGNHL@X64@				; `string'
PUBLIC	??_C@_05DKFIPBAL@ARM64@				; `string'
PUBLIC	??_C@_04PCJGBDOP@Zero@				; `string'
PUBLIC	??_C@_04HJMOFLDF@Free@				; `string'
PUBLIC	??_C@_07LNBDIIPN@Standby@			; `string'
PUBLIC	??_C@_07PFEKAJBJ@Modifiy@			; `string'
PUBLIC	??_C@_07DGKCKENG@ModNoWr@			; `string'
PUBLIC	??_C@_03KHCCLPOB@Bad@				; `string'
PUBLIC	??_C@_06MAFFGDO@Active@				; `string'
PUBLIC	??_C@_07KADDEKFE@Transit@			; `string'
PUBLIC	??_C@_01JOAMLHOP@?9@				; `string'
PUBLIC	??_C@_06CGLFEPBO@Unused@			; `string'
PUBLIC	??_C@_08LBAJPEDB@ProcPriv@			; `string'
PUBLIC	??_C@_09BGPMMIPE@PageTable@			; `string'
PUBLIC	??_C@_09MFCNICMF@LargePage@			; `string'
PUBLIC	??_C@_0L@DHBAIELD@DriverLock@			; `string'
PUBLIC	??_C@_09PKFILKGD@Shareable@			; `string'
PUBLIC	??_C@_04PBAHLACE@File@				; `string'
PUBLIC	_Avx2WmemEnabledWeakValue
;	COMDAT _Avx2WmemEnabledWeakValue
_BSS	SEGMENT
_Avx2WmemEnabledWeakValue DD 01H DUP (?)
_BSS	ENDS
CONST	SEGMENT
?FONT_ATLAS_DEFAULT_TEX_DATA_PIXELS@@3QBDB DB '..-         -XXXXXXX-    X'
	DB	'    -           X           -XXXXXXX          -          XXXX'
	DB	'XXX-     XX          ..-         -X.....X-   X.X   -         '
	DB	' X.X          -X.....X          -          X.....X-    X..X  '
	DB	'       ---         -XXX.XXX-  X...X  -         X...X         '
	DB	'-X....X           -           X....X-    X..X         X      '
	DB	'     -  X.X  - X.....X -        X.....X        -X...X        '
	DB	'    -            X...X-    X..X         XX          -  X.X  -'
	DB	'X.......X-       X.......X       -X..X.X           -         '
	DB	'  X.X..X-    X..X         X.X         -  X.X  -XXXX.XXXX-    '
	DB	'   XXXX.XXXX       -X.X X.X          -          X.X X.X-    X'
	DB	'..XXX       X..X        -  X.X  -   X.X   -          X.X     '
	DB	'     -XX   X.X         -         X.X   XX-    X..X..XXX    X.'
	DB	'..X       -  X.X  -   X.X   -    XX    X.X    XX    -      X.'
	DB	'X        -        X.X      -    X..X..X..XX  X....X      -  X'
	DB	'.X  -   X.X   -   X.X    X.X    X.X   -       X.X       -    '
	DB	'   X.X       -    X..X..X..X.X X.....X     -  X.X  -   X.X   '
	DB	'-  X..X    X.X    X..X  -        X.X      -      X.X        -'
	DB	'XXX X..X..X..X..XX......X    -  X.X  -   X.X   - X...XXXXXX.X'
	DB	'XXXXX...X -         X.X   XX-XX   X.X         -X..XX........X'
	DB	'..XX.......X   -  X.X  -   X.X   -X.....................X-   '
	DB	'       X.X X.X-X.X X.X          -X...X...........XX........X '
	DB	' -  X.X  -   X.X   - X...XXXXXX.XXXXXX...X -           X.X..X'
	DB	'-X..X.X           - X..............XX.........X -XXX.XXX-   X'
	DB	'.X   -  X..X    X.X    X..X  -            X...X-X...X        '
	DB	'    -  X.............XX..........X-X.....X-   X.X   -   X.X  '
	DB	'  X.X    X.X   -           X....X-X....X           -  X......'
	DB	'.......XX......XXXXX-XXXXXXX-   X.X   -    XX    X.X    XX   '
	DB	' -          X.....X-X.....X          -   X............XX...X.'
	DB	'.X    ---------   X.X   -          X.X          -          XX'
	DB	'XXXXX-XXXXXXX          -   X...........X X..X X..X   -       '
	DB	'-XXXX.XXXX-       XXXX.XXXX       ---------------------------'
	DB	'----------    X..........X X.X  X..X   -       -X.......X-   '
	DB	'    X.......X       -    XX           XX    -           -    '
	DB	'X..........X XX    X..X  -       - X.....X -        X.....X  '
	DB	'      -   X.X           X.X   -           -     X........X   '
	DB	'     X..X          -  X...X  -         X...X         -  X..X '
	DB	'          X..X  -           -     X........X         XX      '
	DB	'     -   X.X   -          X.X          - X...XXXXXXXXXXXXX...'
	DB	'X -           -     XXXXXXXXXX  ------------        -    X   '
	DB	' -           X           -X.....................X-           '
	DB	'------------------                    -----------------------'
	DB	'------------ X...XXXXXXXXXXXXX...X -                         '
	DB	'                                                          -  '
	DB	'X..X           X..X  -                                       '
	DB	'                                            -   X.X          '
	DB	' X.X   -                                                     '
	DB	'                              -    XX           XX    -      '
	DB	'                       ', 00H		; FONT_ATLAS_DEFAULT_TEX_DATA_PIXELS
CONST	ENDS
;	COMDAT ??_C@_04PBAHLACE@File@
CONST	SEGMENT
??_C@_04PBAHLACE@File@ DB 'File', 00H			; `string'
CONST	ENDS
;	COMDAT ??_C@_09PKFILKGD@Shareable@
CONST	SEGMENT
??_C@_09PKFILKGD@Shareable@ DB 'Shareable', 00H		; `string'
CONST	ENDS
;	COMDAT ??_C@_0L@DHBAIELD@DriverLock@
CONST	SEGMENT
??_C@_0L@DHBAIELD@DriverLock@ DB 'DriverLock', 00H	; `string'
CONST	ENDS
;	COMDAT ??_C@_09MFCNICMF@LargePage@
CONST	SEGMENT
??_C@_09MFCNICMF@LargePage@ DB 'LargePage', 00H		; `string'
CONST	ENDS
;	COMDAT ??_C@_09BGPMMIPE@PageTable@
CONST	SEGMENT
??_C@_09BGPMMIPE@PageTable@ DB 'PageTable', 00H		; `string'
CONST	ENDS
;	COMDAT ??_C@_08LBAJPEDB@ProcPriv@
CONST	SEGMENT
??_C@_08LBAJPEDB@ProcPriv@ DB 'ProcPriv', 00H		; `string'
CONST	ENDS
;	COMDAT ??_C@_06CGLFEPBO@Unused@
CONST	SEGMENT
??_C@_06CGLFEPBO@Unused@ DB 'Unused', 00H		; `string'
CONST	ENDS
;	COMDAT ??_C@_01JOAMLHOP@?9@
CONST	SEGMENT
??_C@_01JOAMLHOP@?9@ DB '-', 00H			; `string'
CONST	ENDS
;	COMDAT ??_C@_07KADDEKFE@Transit@
CONST	SEGMENT
??_C@_07KADDEKFE@Transit@ DB 'Transit', 00H		; `string'
CONST	ENDS
;	COMDAT ??_C@_06MAFFGDO@Active@
CONST	SEGMENT
??_C@_06MAFFGDO@Active@ DB 'Active', 00H		; `string'
CONST	ENDS
;	COMDAT ??_C@_03KHCCLPOB@Bad@
CONST	SEGMENT
??_C@_03KHCCLPOB@Bad@ DB 'Bad', 00H			; `string'
CONST	ENDS
;	COMDAT ??_C@_07DGKCKENG@ModNoWr@
CONST	SEGMENT
??_C@_07DGKCKENG@ModNoWr@ DB 'ModNoWr', 00H		; `string'
CONST	ENDS
;	COMDAT ??_C@_07PFEKAJBJ@Modifiy@
CONST	SEGMENT
??_C@_07PFEKAJBJ@Modifiy@ DB 'Modifiy', 00H		; `string'
CONST	ENDS
;	COMDAT ??_C@_07LNBDIIPN@Standby@
CONST	SEGMENT
??_C@_07LNBDIIPN@Standby@ DB 'Standby', 00H		; `string'
CONST	ENDS
;	COMDAT ??_C@_04HJMOFLDF@Free@
CONST	SEGMENT
??_C@_04HJMOFLDF@Free@ DB 'Free', 00H			; `string'
CONST	ENDS
;	COMDAT ??_C@_04PCJGBDOP@Zero@
CONST	SEGMENT
??_C@_04PCJGBDOP@Zero@ DB 'Zero', 00H			; `string'
CONST	ENDS
;	COMDAT ??_C@_05DKFIPBAL@ARM64@
CONST	SEGMENT
??_C@_05DKFIPBAL@ARM64@ DB 'ARM64', 00H			; `string'
CONST	ENDS
;	COMDAT ??_C@_03ELMOGNHL@X64@
CONST	SEGMENT
??_C@_03ELMOGNHL@X64@ DB 'X64', 00H			; `string'
CONST	ENDS
;	COMDAT ??_C@_06IDLKBMKC@X86PAE@
CONST	SEGMENT
??_C@_06IDLKBMKC@X86PAE@ DB 'X86PAE', 00H		; `string'
CONST	ENDS
;	COMDAT ??_C@_03HDGGCCPD@X86@
CONST	SEGMENT
??_C@_03HDGGCCPD@X86@ DB 'X86', 00H			; `string'
CONST	ENDS
;	COMDAT ??_C@_03HPADHAHE@N?1A@
CONST	SEGMENT
??_C@_03HPADHAHE@N?1A@ DB 'N/A', 00H			; `string'
CONST	ENDS
;	COMDAT ??_C@_09DCHLEDFD@LcCommand@
CONST	SEGMENT
??_C@_09DCHLEDFD@LcCommand@ DB 'LcCommand', 00H		; `string'
CONST	ENDS
;	COMDAT ??_C@_0M@FPFAGJPB@LcSetOption@
CONST	SEGMENT
??_C@_0M@FPFAGJPB@LcSetOption@ DB 'LcSetOption', 00H	; `string'
CONST	ENDS
;	COMDAT ??_C@_0M@HBBFEIGD@LcGetOption@
CONST	SEGMENT
??_C@_0M@HBBFEIGD@LcGetOption@ DB 'LcGetOption', 00H	; `string'
CONST	ENDS
;	COMDAT ??_C@_0P@DAJMPOFM@LcWriteScatter@
CONST	SEGMENT
??_C@_0P@DAJMPOFM@LcWriteScatter@ DB 'LcWriteScatter', 00H ; `string'
CONST	ENDS
;	COMDAT ??_C@_07MBHEMNEL@LcWrite@
CONST	SEGMENT
??_C@_07MBHEMNEL@LcWrite@ DB 'LcWrite', 00H		; `string'
CONST	ENDS
;	COMDAT ??_C@_0O@CBBNAKKC@LcReadScatter@
CONST	SEGMENT
??_C@_0O@CBBNAKKC@LcReadScatter@ DB 'LcReadScatter', 00H ; `string'
CONST	ENDS
;	COMDAT ??_C@_06GJPHNGFG@LcRead@
CONST	SEGMENT
??_C@_06GJPHNGFG@LcRead@ DB 'LcRead', 00H		; `string'
CONST	ENDS
;	COMDAT ??_C@_06GLKGGCJO@LcOpen@
CONST	SEGMENT
??_C@_06GLKGGCJO@LcOpen@ DB 'LcOpen', 00H		; `string'
CONST	ENDS
PUBLIC	??_H@YAXPEAX_K1P6APEAX0@Z@Z			; `vector constructor iterator'
PUBLIC	__local_stdio_printf_options
PUBLIC	_vsnprintf_s_l
PUBLIC	_vsnprintf_s
PUBLIC	_MarkAllocaS
PUBLIC	_MallocaComputeSize
PUBLIC	fabsf
PUBLIC	?round@@YAMM@Z					; round
PUBLIC	??0WSInit@detail@httplib@@QEAA@XZ		; httplib::detail::WSInit::WSInit
PUBLIC	??1WSInit@detail@httplib@@QEAA@XZ		; httplib::detail::WSInit::~WSInit
PUBLIC	??0SSLInit@detail@httplib@@QEAA@XZ		; httplib::detail::SSLInit::SSLInit
PUBLIC	?MakeVectorRegister@Math@Core@IronMan@@YA?AT__m128@@IIII@Z ; IronMan::Core::Math::MakeVectorRegister
PUBLIC	?MakeVectorRegister@Math@Core@IronMan@@YA?AT__m128@@MMMM@Z ; IronMan::Core::Math::MakeVectorRegister
PUBLIC	??0ImVec2@@QEAA@XZ				; ImVec2::ImVec2
PUBLIC	??0ImVec2@@QEAA@MM@Z				; ImVec2::ImVec2
PUBLIC	??0ImVec4@@QEAA@XZ				; ImVec4::ImVec4
PUBLIC	??0ImVec4@@QEAA@MMMM@Z				; ImVec4::ImVec4
PUBLIC	?StyleColorsDark@ImGui@@YAXPEAUImGuiStyle@@@Z	; ImGui::StyleColorsDark
PUBLIC	?StyleColorsClassic@ImGui@@YAXPEAUImGuiStyle@@@Z ; ImGui::StyleColorsClassic
PUBLIC	?StyleColorsLight@ImGui@@YAXPEAUImGuiStyle@@@Z	; ImGui::StyleColorsLight
PUBLIC	??0?$ImVector@G@@QEAA@XZ			; ImVector<unsigned short>::ImVector<unsigned short>
PUBLIC	??4?$ImVector@G@@QEAAAEAU0@AEBU0@@Z		; ImVector<unsigned short>::operator=
PUBLIC	??1?$ImVector@G@@QEAA@XZ			; ImVector<unsigned short>::~ImVector<unsigned short>
PUBLIC	?empty@?$ImVector@G@@QEBA_NXZ			; ImVector<unsigned short>::empty
PUBLIC	??A?$ImVector@G@@QEAAAEAGH@Z			; ImVector<unsigned short>::operator[]
PUBLIC	?clear@?$ImVector@G@@QEAAXXZ			; ImVector<unsigned short>::clear
PUBLIC	?_grow_capacity@?$ImVector@G@@QEBAHH@Z		; ImVector<unsigned short>::_grow_capacity
PUBLIC	?resize@?$ImVector@G@@QEAAXH@Z			; ImVector<unsigned short>::resize
PUBLIC	?resize@?$ImVector@G@@QEAAXHAEBG@Z		; ImVector<unsigned short>::resize
PUBLIC	?reserve@?$ImVector@G@@QEAAXH@Z			; ImVector<unsigned short>::reserve
PUBLIC	?push_back@?$ImVector@G@@QEAAXAEBG@Z		; ImVector<unsigned short>::push_back
PUBLIC	??2@YAPEAX_KUImNewDummy@@PEAX@Z			; operator new
PUBLIC	??3@YAXPEAXUImNewDummy@@0@Z			; operator delete
PUBLIC	??0ImDrawCmd@@QEAA@XZ				; ImDrawCmd::ImDrawCmd
PUBLIC	??0?$ImVector@UImDrawCmd@@@@QEAA@XZ		; ImVector<ImDrawCmd>::ImVector<ImDrawCmd>
PUBLIC	??4?$ImVector@UImDrawCmd@@@@QEAAAEAU0@AEBU0@@Z	; ImVector<ImDrawCmd>::operator=
PUBLIC	??1?$ImVector@UImDrawCmd@@@@QEAA@XZ		; ImVector<ImDrawCmd>::~ImVector<ImDrawCmd>
PUBLIC	??A?$ImVector@UImDrawCmd@@@@QEAAAEAUImDrawCmd@@H@Z ; ImVector<ImDrawCmd>::operator[]
PUBLIC	?clear@?$ImVector@UImDrawCmd@@@@QEAAXXZ		; ImVector<ImDrawCmd>::clear
PUBLIC	?back@?$ImVector@UImDrawCmd@@@@QEAAAEAUImDrawCmd@@XZ ; ImVector<ImDrawCmd>::back
PUBLIC	?_grow_capacity@?$ImVector@UImDrawCmd@@@@QEBAHH@Z ; ImVector<ImDrawCmd>::_grow_capacity
PUBLIC	?resize@?$ImVector@UImDrawCmd@@@@QEAAXH@Z	; ImVector<ImDrawCmd>::resize
PUBLIC	?reserve@?$ImVector@UImDrawCmd@@@@QEAAXH@Z	; ImVector<ImDrawCmd>::reserve
PUBLIC	?push_back@?$ImVector@UImDrawCmd@@@@QEAAXAEBUImDrawCmd@@@Z ; ImVector<ImDrawCmd>::push_back
PUBLIC	?pop_back@?$ImVector@UImDrawCmd@@@@QEAAXXZ	; ImVector<ImDrawCmd>::pop_back
PUBLIC	??0ImDrawChannel@@QEAA@XZ			; ImDrawChannel::ImDrawChannel
PUBLIC	??0?$ImVector@UImDrawVert@@@@QEAA@XZ		; ImVector<ImDrawVert>::ImVector<ImDrawVert>
PUBLIC	??4?$ImVector@UImDrawVert@@@@QEAAAEAU0@AEBU0@@Z	; ImVector<ImDrawVert>::operator=
PUBLIC	??1?$ImVector@UImDrawVert@@@@QEAA@XZ		; ImVector<ImDrawVert>::~ImVector<ImDrawVert>
PUBLIC	??A?$ImVector@UImDrawVert@@@@QEAAAEAUImDrawVert@@H@Z ; ImVector<ImDrawVert>::operator[]
PUBLIC	?clear@?$ImVector@UImDrawVert@@@@QEAAXXZ	; ImVector<ImDrawVert>::clear
PUBLIC	?swap@?$ImVector@UImDrawVert@@@@QEAAXAEAU1@@Z	; ImVector<ImDrawVert>::swap
PUBLIC	?_grow_capacity@?$ImVector@UImDrawVert@@@@QEBAHH@Z ; ImVector<ImDrawVert>::_grow_capacity
PUBLIC	?resize@?$ImVector@UImDrawVert@@@@QEAAXH@Z	; ImVector<ImDrawVert>::resize
PUBLIC	?reserve@?$ImVector@UImDrawVert@@@@QEAAXH@Z	; ImVector<ImDrawVert>::reserve
PUBLIC	??0?$ImVector@UImDrawChannel@@@@QEAA@XZ		; ImVector<ImDrawChannel>::ImVector<ImDrawChannel>
PUBLIC	??1?$ImVector@UImDrawChannel@@@@QEAA@XZ		; ImVector<ImDrawChannel>::~ImVector<ImDrawChannel>
PUBLIC	??A?$ImVector@UImDrawChannel@@@@QEAAAEAUImDrawChannel@@H@Z ; ImVector<ImDrawChannel>::operator[]
PUBLIC	?clear@?$ImVector@UImDrawChannel@@@@QEAAXXZ	; ImVector<ImDrawChannel>::clear
PUBLIC	?_grow_capacity@?$ImVector@UImDrawChannel@@@@QEBAHH@Z ; ImVector<ImDrawChannel>::_grow_capacity
PUBLIC	?resize@?$ImVector@UImDrawChannel@@@@QEAAXH@Z	; ImVector<ImDrawChannel>::resize
PUBLIC	?reserve@?$ImVector@UImDrawChannel@@@@QEAAXH@Z	; ImVector<ImDrawChannel>::reserve
PUBLIC	??0?$ImVector@UImVec4@@@@QEAA@XZ		; ImVector<ImVec4>::ImVector<ImVec4>
PUBLIC	??1?$ImVector@UImVec4@@@@QEAA@XZ		; ImVector<ImVec4>::~ImVector<ImVec4>
PUBLIC	?clear@?$ImVector@UImVec4@@@@QEAAXXZ		; ImVector<ImVec4>::clear
PUBLIC	?back@?$ImVector@UImVec4@@@@QEAAAEAUImVec4@@XZ	; ImVector<ImVec4>::back
PUBLIC	?_grow_capacity@?$ImVector@UImVec4@@@@QEBAHH@Z	; ImVector<ImVec4>::_grow_capacity
PUBLIC	?resize@?$ImVector@UImVec4@@@@QEAAXH@Z		; ImVector<ImVec4>::resize
PUBLIC	?reserve@?$ImVector@UImVec4@@@@QEAAXH@Z		; ImVector<ImVec4>::reserve
PUBLIC	?push_back@?$ImVector@UImVec4@@@@QEAAXAEBUImVec4@@@Z ; ImVector<ImVec4>::push_back
PUBLIC	?pop_back@?$ImVector@UImVec4@@@@QEAAXXZ		; ImVector<ImVec4>::pop_back
PUBLIC	??0?$ImVector@PEAX@@QEAA@XZ			; ImVector<void *>::ImVector<void *>
PUBLIC	??1?$ImVector@PEAX@@QEAA@XZ			; ImVector<void *>::~ImVector<void *>
PUBLIC	?empty@?$ImVector@PEAX@@QEBA_NXZ		; ImVector<void *>::empty
PUBLIC	?clear@?$ImVector@PEAX@@QEAAXXZ			; ImVector<void *>::clear
PUBLIC	?back@?$ImVector@PEAX@@QEAAAEAPEAXXZ		; ImVector<void *>::back
PUBLIC	?_grow_capacity@?$ImVector@PEAX@@QEBAHH@Z	; ImVector<void *>::_grow_capacity
PUBLIC	?resize@?$ImVector@PEAX@@QEAAXH@Z		; ImVector<void *>::resize
PUBLIC	?reserve@?$ImVector@PEAX@@QEAAXH@Z		; ImVector<void *>::reserve
PUBLIC	?push_back@?$ImVector@PEAX@@QEAAXAEBQEAX@Z	; ImVector<void *>::push_back
PUBLIC	?pop_back@?$ImVector@PEAX@@QEAAXXZ		; ImVector<void *>::pop_back
PUBLIC	??0?$ImVector@UImVec2@@@@QEAA@XZ		; ImVector<ImVec2>::ImVector<ImVec2>
PUBLIC	??1?$ImVector@UImVec2@@@@QEAA@XZ		; ImVector<ImVec2>::~ImVector<ImVec2>
PUBLIC	?clear@?$ImVector@UImVec2@@@@QEAAXXZ		; ImVector<ImVec2>::clear
PUBLIC	?back@?$ImVector@UImVec2@@@@QEAAAEAUImVec2@@XZ	; ImVector<ImVec2>::back
PUBLIC	?_grow_capacity@?$ImVector@UImVec2@@@@QEBAHH@Z	; ImVector<ImVec2>::_grow_capacity
PUBLIC	?resize@?$ImVector@UImVec2@@@@QEAAXH@Z		; ImVector<ImVec2>::resize
PUBLIC	?reserve@?$ImVector@UImVec2@@@@QEAAXH@Z		; ImVector<ImVec2>::reserve
PUBLIC	?push_back@?$ImVector@UImVec2@@@@QEAAXAEBUImVec2@@@Z ; ImVector<ImVec2>::push_back
PUBLIC	??0ImDrawList@@QEAA@PEBUImDrawListSharedData@@@Z ; ImDrawList::ImDrawList
PUBLIC	?PushClipRect@ImDrawList@@QEAAXUImVec2@@0_N@Z	; ImDrawList::PushClipRect
PUBLIC	?PushClipRectFullScreen@ImDrawList@@QEAAXXZ	; ImDrawList::PushClipRectFullScreen
PUBLIC	?PopClipRect@ImDrawList@@QEAAXXZ		; ImDrawList::PopClipRect
PUBLIC	?PushTextureID@ImDrawList@@QEAAXPEAX@Z		; ImDrawList::PushTextureID
PUBLIC	?PopTextureID@ImDrawList@@QEAAXXZ		; ImDrawList::PopTextureID
PUBLIC	?DrawBox_S@ImDrawList@@QEAAXAEBUImVec2@@0IMM@Z	; ImDrawList::DrawBox_S
PUBLIC	?DrawHealthBar@ImDrawList@@QEAAXAEBUImVec2@@0MM@Z ; ImDrawList::DrawHealthBar
PUBLIC	?AddLine@ImDrawList@@QEAAXAEBUImVec2@@0IM@Z	; ImDrawList::AddLine
PUBLIC	?AddRect@ImDrawList@@QEAAXAEBUImVec2@@0IMHM@Z	; ImDrawList::AddRect
PUBLIC	?AddRectFilled@ImDrawList@@QEAAXAEBUImVec2@@0IMH@Z ; ImDrawList::AddRectFilled
PUBLIC	?AddRectFilledMultiColor@ImDrawList@@QEAAXAEBUImVec2@@0IIII@Z ; ImDrawList::AddRectFilledMultiColor
PUBLIC	?AddQuad@ImDrawList@@QEAAXAEBUImVec2@@000IM@Z	; ImDrawList::AddQuad
PUBLIC	?AddQuadFilled@ImDrawList@@QEAAXAEBUImVec2@@000I@Z ; ImDrawList::AddQuadFilled
PUBLIC	?AddTriangle@ImDrawList@@QEAAXAEBUImVec2@@00IM@Z ; ImDrawList::AddTriangle
PUBLIC	?AddTriangleFilled@ImDrawList@@QEAAXAEBUImVec2@@00I@Z ; ImDrawList::AddTriangleFilled
PUBLIC	?AddCircle@ImDrawList@@QEAAXAEBUImVec2@@MIHM@Z	; ImDrawList::AddCircle
PUBLIC	?AddCircleFilled@ImDrawList@@QEAAXAEBUImVec2@@MIH@Z ; ImDrawList::AddCircleFilled
PUBLIC	?AddText@ImDrawList@@QEAAXAEBUImVec2@@IPEBD1@Z	; ImDrawList::AddText
PUBLIC	?AddText@ImDrawList@@QEAAXPEBUImFont@@MAEBUImVec2@@IPEBD2MPEBUImVec4@@@Z ; ImDrawList::AddText
PUBLIC	?AddImage@ImDrawList@@QEAAXPEAXAEBUImVec2@@111I@Z ; ImDrawList::AddImage
PUBLIC	?AddImageQuad@ImDrawList@@QEAAXPEAXAEBUImVec2@@1111111I@Z ; ImDrawList::AddImageQuad
PUBLIC	?AddImageRounded@ImDrawList@@QEAAXPEAXAEBUImVec2@@111IMH@Z ; ImDrawList::AddImageRounded
PUBLIC	?AddPolyline@ImDrawList@@QEAAXPEBUImVec2@@HI_NM@Z ; ImDrawList::AddPolyline
PUBLIC	?AddConvexPolyFilled@ImDrawList@@QEAAXPEBUImVec2@@HI@Z ; ImDrawList::AddConvexPolyFilled
PUBLIC	?AddBezierCurve@ImDrawList@@QEAAXAEBUImVec2@@000IMH@Z ; ImDrawList::AddBezierCurve
PUBLIC	?DrawTextOutline@ImDrawList@@QEAA?AUImVec2@@PEBUImFont@@MMU2@IIKPEBDZZ ; ImDrawList::DrawTextOutline
PUBLIC	?PathLineTo@ImDrawList@@QEAAXAEBUImVec2@@@Z	; ImDrawList::PathLineTo
PUBLIC	?PathFillConvex@ImDrawList@@QEAAXI@Z		; ImDrawList::PathFillConvex
PUBLIC	?PathStroke@ImDrawList@@QEAAXI_NM@Z		; ImDrawList::PathStroke
PUBLIC	?PathArcTo@ImDrawList@@QEAAXAEBUImVec2@@MMMH@Z	; ImDrawList::PathArcTo
PUBLIC	?PathArcToFast@ImDrawList@@QEAAXAEBUImVec2@@MHH@Z ; ImDrawList::PathArcToFast
PUBLIC	?PathBezierCurveTo@ImDrawList@@QEAAXAEBUImVec2@@00H@Z ; ImDrawList::PathBezierCurveTo
PUBLIC	?PathRect@ImDrawList@@QEAAXAEBUImVec2@@0MH@Z	; ImDrawList::PathRect
PUBLIC	?ChannelsSplit@ImDrawList@@QEAAXH@Z		; ImDrawList::ChannelsSplit
PUBLIC	?ChannelsMerge@ImDrawList@@QEAAXXZ		; ImDrawList::ChannelsMerge
PUBLIC	?ChannelsSetCurrent@ImDrawList@@QEAAXH@Z	; ImDrawList::ChannelsSetCurrent
PUBLIC	?AddCallback@ImDrawList@@QEAAXP6AXPEBU1@PEBUImDrawCmd@@@ZPEAX@Z ; ImDrawList::AddCallback
PUBLIC	?AddDrawCmd@ImDrawList@@QEAAXXZ			; ImDrawList::AddDrawCmd
PUBLIC	?CloneOutput@ImDrawList@@QEBAPEAU1@XZ		; ImDrawList::CloneOutput
PUBLIC	?Clear@ImDrawList@@QEAAXXZ			; ImDrawList::Clear
PUBLIC	?ClearFreeMemory@ImDrawList@@QEAAXXZ		; ImDrawList::ClearFreeMemory
PUBLIC	?PrimReserve@ImDrawList@@QEAAXHH@Z		; ImDrawList::PrimReserve
PUBLIC	?PrimRect@ImDrawList@@QEAAXAEBUImVec2@@0I@Z	; ImDrawList::PrimRect
PUBLIC	?PrimRectUV@ImDrawList@@QEAAXAEBUImVec2@@000I@Z	; ImDrawList::PrimRectUV
PUBLIC	?PrimQuadUV@ImDrawList@@QEAAXAEBUImVec2@@0000000I@Z ; ImDrawList::PrimQuadUV
PUBLIC	?PrimWriteVtx@ImDrawList@@QEAAXAEBUImVec2@@0I@Z	; ImDrawList::PrimWriteVtx
PUBLIC	?PrimWriteIdx@ImDrawList@@QEAAXG@Z		; ImDrawList::PrimWriteIdx
PUBLIC	?UpdateClipRect@ImDrawList@@QEAAXXZ		; ImDrawList::UpdateClipRect
PUBLIC	?UpdateTextureID@ImDrawList@@QEAAXXZ		; ImDrawList::UpdateTextureID
PUBLIC	?DeIndexAllBuffers@ImDrawData@@QEAAXXZ		; ImDrawData::DeIndexAllBuffers
PUBLIC	?ScaleClipRects@ImDrawData@@QEAAXAEBUImVec2@@@Z	; ImDrawData::ScaleClipRects
PUBLIC	??0ImFontConfig@@QEAA@XZ			; ImFontConfig::ImFontConfig
PUBLIC	??1?$ImVector@H@@QEAA@XZ			; ImVector<int>::~ImVector<int>
PUBLIC	?empty@?$ImVector@H@@QEBA_NXZ			; ImVector<int>::empty
PUBLIC	??A?$ImVector@H@@QEAAAEAHH@Z			; ImVector<int>::operator[]
PUBLIC	??A?$ImVector@H@@QEBAAEBHH@Z			; ImVector<int>::operator[]
PUBLIC	?clear@?$ImVector@H@@QEAAXXZ			; ImVector<int>::clear
PUBLIC	?begin@?$ImVector@H@@QEBAPEBHXZ			; ImVector<int>::begin
PUBLIC	?end@?$ImVector@H@@QEBAPEBHXZ			; ImVector<int>::end
PUBLIC	?_grow_capacity@?$ImVector@H@@QEBAHH@Z		; ImVector<int>::_grow_capacity
PUBLIC	?resize@?$ImVector@H@@QEAAXH@Z			; ImVector<int>::resize
PUBLIC	?reserve@?$ImVector@H@@QEAAXH@Z			; ImVector<int>::reserve
PUBLIC	?push_back@?$ImVector@H@@QEAAXAEBH@Z		; ImVector<int>::push_back
PUBLIC	?GetBit@ImFontGlyphRangesBuilder@@QEBA_NH@Z	; ImFontGlyphRangesBuilder::GetBit
PUBLIC	?SetBit@ImFontGlyphRangesBuilder@@QEAAXH@Z	; ImFontGlyphRangesBuilder::SetBit
PUBLIC	?AddChar@ImFontGlyphRangesBuilder@@QEAAXG@Z	; ImFontGlyphRangesBuilder::AddChar
PUBLIC	?AddText@ImFontGlyphRangesBuilder@@QEAAXPEBD0@Z	; ImFontGlyphRangesBuilder::AddText
PUBLIC	?AddRanges@ImFontGlyphRangesBuilder@@QEAAXPEBG@Z ; ImFontGlyphRangesBuilder::AddRanges
PUBLIC	?BuildRanges@ImFontGlyphRangesBuilder@@QEAAXPEAU?$ImVector@G@@@Z ; ImFontGlyphRangesBuilder::BuildRanges
PUBLIC	??0ImFontAtlas@@QEAA@XZ				; ImFontAtlas::ImFontAtlas
PUBLIC	??1ImFontAtlas@@QEAA@XZ				; ImFontAtlas::~ImFontAtlas
PUBLIC	?AddFont@ImFontAtlas@@QEAAPEAUImFont@@PEBUImFontConfig@@@Z ; ImFontAtlas::AddFont
PUBLIC	?AddFontFromFileTTF@ImFontAtlas@@QEAAPEAUImFont@@PEBDMPEBUImFontConfig@@PEBG@Z ; ImFontAtlas::AddFontFromFileTTF
PUBLIC	?AddFontFromMemoryTTF@ImFontAtlas@@QEAAPEAUImFont@@PEAXHMPEBUImFontConfig@@PEBG@Z ; ImFontAtlas::AddFontFromMemoryTTF
PUBLIC	?AddFontFromMemoryCompressedTTF@ImFontAtlas@@QEAAPEAUImFont@@PEBXHMPEBUImFontConfig@@PEBG@Z ; ImFontAtlas::AddFontFromMemoryCompressedTTF
PUBLIC	?AddFontFromMemoryCompressedBase85TTF@ImFontAtlas@@QEAAPEAUImFont@@PEBDMPEBUImFontConfig@@PEBG@Z ; ImFontAtlas::AddFontFromMemoryCompressedBase85TTF
PUBLIC	?ClearInputData@ImFontAtlas@@QEAAXXZ		; ImFontAtlas::ClearInputData
PUBLIC	?ClearTexData@ImFontAtlas@@QEAAXXZ		; ImFontAtlas::ClearTexData
PUBLIC	?ClearFonts@ImFontAtlas@@QEAAXXZ		; ImFontAtlas::ClearFonts
PUBLIC	?Clear@ImFontAtlas@@QEAAXXZ			; ImFontAtlas::Clear
PUBLIC	?Build@ImFontAtlas@@QEAA_NXZ			; ImFontAtlas::Build
PUBLIC	?GetTexDataAsAlpha8@ImFontAtlas@@QEAAXPEAPEAEPEAH11@Z ; ImFontAtlas::GetTexDataAsAlpha8
PUBLIC	?GetTexDataAsRGBA32@ImFontAtlas@@QEAAXPEAPEAEPEAH11@Z ; ImFontAtlas::GetTexDataAsRGBA32
PUBLIC	?GetGlyphRangesDefault@ImFontAtlas@@QEAAPEBGXZ	; ImFontAtlas::GetGlyphRangesDefault
PUBLIC	?GetGlyphRangesKorean@ImFontAtlas@@QEAAPEBGXZ	; ImFontAtlas::GetGlyphRangesKorean
PUBLIC	?GetGlyphRangesJapanese@ImFontAtlas@@QEAAPEBGXZ	; ImFontAtlas::GetGlyphRangesJapanese
PUBLIC	?GetGlyphRangesChineseFull@ImFontAtlas@@QEAAPEBGXZ ; ImFontAtlas::GetGlyphRangesChineseFull
PUBLIC	?GetGlyphRangesChineseSimplifiedCommon@ImFontAtlas@@QEAAPEBGXZ ; ImFontAtlas::GetGlyphRangesChineseSimplifiedCommon
PUBLIC	?GetGlyphRangesCyrillic@ImFontAtlas@@QEAAPEBGXZ	; ImFontAtlas::GetGlyphRangesCyrillic
PUBLIC	?GetGlyphRangesThai@ImFontAtlas@@QEAAPEBGXZ	; ImFontAtlas::GetGlyphRangesThai
PUBLIC	??0CustomRect@ImFontAtlas@@QEAA@XZ		; ImFontAtlas::CustomRect::CustomRect
PUBLIC	?AddCustomRectRegular@ImFontAtlas@@QEAAHIHH@Z	; ImFontAtlas::AddCustomRectRegular
PUBLIC	?AddCustomRectFontGlyph@ImFontAtlas@@QEAAHPEAUImFont@@GHHMAEBUImVec2@@@Z ; ImFontAtlas::AddCustomRectFontGlyph
PUBLIC	?CalcCustomRectUV@ImFontAtlas@@QEAAXPEBUCustomRect@1@PEAUImVec2@@1@Z ; ImFontAtlas::CalcCustomRectUV
PUBLIC	?GetMouseCursorTexData@ImFontAtlas@@QEAA_NHPEAUImVec2@@0QEAU2@1@Z ; ImFontAtlas::GetMouseCursorTexData
PUBLIC	??0?$ImVector@PEAUImFont@@@@QEAA@XZ		; ImVector<ImFont *>::ImVector<ImFont *>
PUBLIC	??1?$ImVector@PEAUImFont@@@@QEAA@XZ		; ImVector<ImFont *>::~ImVector<ImFont *>
PUBLIC	??A?$ImVector@PEAUImFont@@@@QEAAAEAPEAUImFont@@H@Z ; ImVector<ImFont *>::operator[]
PUBLIC	?clear@?$ImVector@PEAUImFont@@@@QEAAXXZ		; ImVector<ImFont *>::clear
PUBLIC	?back@?$ImVector@PEAUImFont@@@@QEAAAEAPEAUImFont@@XZ ; ImVector<ImFont *>::back
PUBLIC	?_grow_capacity@?$ImVector@PEAUImFont@@@@QEBAHH@Z ; ImVector<ImFont *>::_grow_capacity
PUBLIC	?reserve@?$ImVector@PEAUImFont@@@@QEAAXH@Z	; ImVector<ImFont *>::reserve
PUBLIC	?push_back@?$ImVector@PEAUImFont@@@@QEAAXAEBQEAUImFont@@@Z ; ImVector<ImFont *>::push_back
PUBLIC	??0?$ImVector@UCustomRect@ImFontAtlas@@@@QEAA@XZ ; ImVector<ImFontAtlas::CustomRect>::ImVector<ImFontAtlas::CustomRect>
PUBLIC	??1?$ImVector@UCustomRect@ImFontAtlas@@@@QEAA@XZ ; ImVector<ImFontAtlas::CustomRect>::~ImVector<ImFontAtlas::CustomRect>
PUBLIC	??A?$ImVector@UCustomRect@ImFontAtlas@@@@QEAAAEAUCustomRect@ImFontAtlas@@H@Z ; ImVector<ImFontAtlas::CustomRect>::operator[]
PUBLIC	?clear@?$ImVector@UCustomRect@ImFontAtlas@@@@QEAAXXZ ; ImVector<ImFontAtlas::CustomRect>::clear
PUBLIC	?_grow_capacity@?$ImVector@UCustomRect@ImFontAtlas@@@@QEBAHH@Z ; ImVector<ImFontAtlas::CustomRect>::_grow_capacity
PUBLIC	?reserve@?$ImVector@UCustomRect@ImFontAtlas@@@@QEAAXH@Z ; ImVector<ImFontAtlas::CustomRect>::reserve
PUBLIC	?push_back@?$ImVector@UCustomRect@ImFontAtlas@@@@QEAAXAEBUCustomRect@ImFontAtlas@@@Z ; ImVector<ImFontAtlas::CustomRect>::push_back
PUBLIC	??0?$ImVector@UImFontConfig@@@@QEAA@XZ		; ImVector<ImFontConfig>::ImVector<ImFontConfig>
PUBLIC	??1?$ImVector@UImFontConfig@@@@QEAA@XZ		; ImVector<ImFontConfig>::~ImVector<ImFontConfig>
PUBLIC	??A?$ImVector@UImFontConfig@@@@QEAAAEAUImFontConfig@@H@Z ; ImVector<ImFontConfig>::operator[]
PUBLIC	?clear@?$ImVector@UImFontConfig@@@@QEAAXXZ	; ImVector<ImFontConfig>::clear
PUBLIC	?back@?$ImVector@UImFontConfig@@@@QEAAAEAUImFontConfig@@XZ ; ImVector<ImFontConfig>::back
PUBLIC	?_grow_capacity@?$ImVector@UImFontConfig@@@@QEBAHH@Z ; ImVector<ImFontConfig>::_grow_capacity
PUBLIC	?reserve@?$ImVector@UImFontConfig@@@@QEAAXH@Z	; ImVector<ImFontConfig>::reserve
PUBLIC	?push_back@?$ImVector@UImFontConfig@@@@QEAAXAEBUImFontConfig@@@Z ; ImVector<ImFontConfig>::push_back
PUBLIC	??0?$ImVector@M@@QEAA@XZ			; ImVector<float>::ImVector<float>
PUBLIC	??1?$ImVector@M@@QEAA@XZ			; ImVector<float>::~ImVector<float>
PUBLIC	??A?$ImVector@M@@QEAAAEAMH@Z			; ImVector<float>::operator[]
PUBLIC	?clear@?$ImVector@M@@QEAAXXZ			; ImVector<float>::clear
PUBLIC	?_grow_capacity@?$ImVector@M@@QEBAHH@Z		; ImVector<float>::_grow_capacity
PUBLIC	?resize@?$ImVector@M@@QEAAXHAEBM@Z		; ImVector<float>::resize
PUBLIC	?reserve@?$ImVector@M@@QEAAXH@Z			; ImVector<float>::reserve
PUBLIC	??0?$ImVector@UImFontGlyph@@@@QEAA@XZ		; ImVector<ImFontGlyph>::ImVector<ImFontGlyph>
PUBLIC	??1?$ImVector@UImFontGlyph@@@@QEAA@XZ		; ImVector<ImFontGlyph>::~ImVector<ImFontGlyph>
PUBLIC	??A?$ImVector@UImFontGlyph@@@@QEAAAEAUImFontGlyph@@H@Z ; ImVector<ImFontGlyph>::operator[]
PUBLIC	?clear@?$ImVector@UImFontGlyph@@@@QEAAXXZ	; ImVector<ImFontGlyph>::clear
PUBLIC	?back@?$ImVector@UImFontGlyph@@@@QEAAAEAUImFontGlyph@@XZ ; ImVector<ImFontGlyph>::back
PUBLIC	?_grow_capacity@?$ImVector@UImFontGlyph@@@@QEBAHH@Z ; ImVector<ImFontGlyph>::_grow_capacity
PUBLIC	?resize@?$ImVector@UImFontGlyph@@@@QEAAXH@Z	; ImVector<ImFontGlyph>::resize
PUBLIC	?reserve@?$ImVector@UImFontGlyph@@@@QEAAXH@Z	; ImVector<ImFontGlyph>::reserve
PUBLIC	??0ImFont@@QEAA@XZ				; ImFont::ImFont
PUBLIC	??1ImFont@@QEAA@XZ				; ImFont::~ImFont
PUBLIC	?FindGlyph@ImFont@@QEBAPEBUImFontGlyph@@G@Z	; ImFont::FindGlyph
PUBLIC	?FindGlyphNoFallback@ImFont@@QEBAPEBUImFontGlyph@@G@Z ; ImFont::FindGlyphNoFallback
PUBLIC	?CalcTextSizeA@ImFont@@QEBA?AUImVec2@@MMMPEBD0PEAPEBD@Z ; ImFont::CalcTextSizeA
PUBLIC	?CalcWordWrapPositionA@ImFont@@QEBAPEBDMPEBD0M@Z ; ImFont::CalcWordWrapPositionA
PUBLIC	?RenderChar@ImFont@@QEBAXPEAUImDrawList@@MUImVec2@@IG@Z ; ImFont::RenderChar
PUBLIC	?RenderText@ImFont@@QEBAXPEAUImDrawList@@MUImVec2@@IAEBUImVec4@@PEBD3M_N@Z ; ImFont::RenderText
PUBLIC	?BuildLookupTable@ImFont@@QEAAXXZ		; ImFont::BuildLookupTable
PUBLIC	?ClearOutputData@ImFont@@QEAAXXZ		; ImFont::ClearOutputData
PUBLIC	?GrowIndex@ImFont@@QEAAXH@Z			; ImFont::GrowIndex
PUBLIC	?AddGlyph@ImFont@@QEAAXGMMMMMMMMM@Z		; ImFont::AddGlyph
PUBLIC	?AddRemapChar@ImFont@@QEAAXGG_N@Z		; ImFont::AddRemapChar
PUBLIC	?SetFallbackChar@ImFont@@QEAAXG@Z		; ImFont::SetFallbackChar
PUBLIC	??_GImFont@@QEAAPEAXI@Z				; ImFont::`scalar deleting destructor'
PUBLIC	?Resize@ImBoolVector@@QEAAXH@Z			; ImBoolVector::Resize
PUBLIC	?Clear@ImBoolVector@@QEAAXXZ			; ImBoolVector::Clear
PUBLIC	?GetBit@ImBoolVector@@QEBA_NH@Z			; ImBoolVector::GetBit
PUBLIC	?SetBit@ImBoolVector@@QEAAXH_N@Z		; ImBoolVector::SetBit
PUBLIC	??1ImBoolVector@@QEAA@XZ			; ImBoolVector::~ImBoolVector
PUBLIC	??0ImDrawListSharedData@@QEAA@XZ		; ImDrawListSharedData::ImDrawListSharedData
PUBLIC	?RenderMouseCursor@ImGui@@YAXPEAUImDrawList@@UImVec2@@MH@Z ; ImGui::RenderMouseCursor
PUBLIC	?RenderArrowPointingAt@ImGui@@YAXPEAUImDrawList@@UImVec2@@1HI@Z ; ImGui::RenderArrowPointingAt
PUBLIC	?RenderRectFilledRangeH@ImGui@@YAXPEAUImDrawList@@AEBUImRect@@IMMM@Z ; ImGui::RenderRectFilledRangeH
PUBLIC	?RenderPixelEllipsis@ImGui@@YAXPEAUImDrawList@@UImVec2@@HI@Z ; ImGui::RenderPixelEllipsis
PUBLIC	?ShadeVertsLinearColorGradientKeepAlpha@ImGui@@YAXPEAUImDrawList@@HHUImVec2@@1II@Z ; ImGui::ShadeVertsLinearColorGradientKeepAlpha
PUBLIC	?ShadeVertsLinearUV@ImGui@@YAXPEAUImDrawList@@HHAEBUImVec2@@111_N@Z ; ImGui::ShadeVertsLinearUV
PUBLIC	?ImFontAtlasBuildWithStbTruetype@@YA_NPEAUImFontAtlas@@@Z ; ImFontAtlasBuildWithStbTruetype
PUBLIC	?ImFontAtlasBuildRegisterDefaultCustomRects@@YAXPEAUImFontAtlas@@@Z ; ImFontAtlasBuildRegisterDefaultCustomRects
PUBLIC	?ImFontAtlasBuildSetupFont@@YAXPEAUImFontAtlas@@PEAUImFont@@PEAUImFontConfig@@MM@Z ; ImFontAtlasBuildSetupFont
PUBLIC	?ImFontAtlasBuildPackCustomRects@@YAXPEAUImFontAtlas@@PEAX@Z ; ImFontAtlasBuildPackCustomRects
PUBLIC	?ImFontAtlasBuildFinish@@YAXPEAUImFontAtlas@@@Z	; ImFontAtlasBuildFinish
PUBLIC	?ImFontAtlasBuildMultiplyCalcLookupTable@@YAXQEAEM@Z ; ImFontAtlasBuildMultiplyCalcLookupTable
PUBLIC	?ImFontAtlasBuildMultiplyRectAlpha8@@YAXQEBEPEAEHHHHH@Z ; ImFontAtlasBuildMultiplyRectAlpha8
PUBLIC	??$_vsnprintf_s@$0EAA@@@YAHAEAY0EAA@D_KPEBDPEAD@Z ; _vsnprintf_s<1024>
PUBLIC	??$IM_DELETE@UImFont@@@@YAXPEAUImFont@@@Z	; IM_DELETE<ImFont>
PUBLIC	??1ImFontBuildSrcData@@QEAA@XZ			; ImFontBuildSrcData::~ImFontBuildSrcData
PUBLIC	??_GImFontBuildSrcData@@QEAAPEAXI@Z		; ImFontBuildSrcData::`scalar deleting destructor'
PUBLIC	??0?$ImVector@UImFontBuildSrcData@@@@QEAA@XZ	; ImVector<ImFontBuildSrcData>::ImVector<ImFontBuildSrcData>
PUBLIC	??1?$ImVector@UImFontBuildSrcData@@@@QEAA@XZ	; ImVector<ImFontBuildSrcData>::~ImVector<ImFontBuildSrcData>
PUBLIC	?size_in_bytes@?$ImVector@UImFontBuildSrcData@@@@QEBAHXZ ; ImVector<ImFontBuildSrcData>::size_in_bytes
PUBLIC	??A?$ImVector@UImFontBuildSrcData@@@@QEAAAEAUImFontBuildSrcData@@H@Z ; ImVector<ImFontBuildSrcData>::operator[]
PUBLIC	?_grow_capacity@?$ImVector@UImFontBuildSrcData@@@@QEBAHH@Z ; ImVector<ImFontBuildSrcData>::_grow_capacity
PUBLIC	?resize@?$ImVector@UImFontBuildSrcData@@@@QEAAXH@Z ; ImVector<ImFontBuildSrcData>::resize
PUBLIC	?reserve@?$ImVector@UImFontBuildSrcData@@@@QEAAXH@Z ; ImVector<ImFontBuildSrcData>::reserve
PUBLIC	??0?$ImVector@UImFontBuildDstData@@@@QEAA@XZ	; ImVector<ImFontBuildDstData>::ImVector<ImFontBuildDstData>
PUBLIC	??1?$ImVector@UImFontBuildDstData@@@@QEAA@XZ	; ImVector<ImFontBuildDstData>::~ImVector<ImFontBuildDstData>
PUBLIC	?size_in_bytes@?$ImVector@UImFontBuildDstData@@@@QEBAHXZ ; ImVector<ImFontBuildDstData>::size_in_bytes
PUBLIC	??A?$ImVector@UImFontBuildDstData@@@@QEAAAEAUImFontBuildDstData@@H@Z ; ImVector<ImFontBuildDstData>::operator[]
PUBLIC	?clear@?$ImVector@UImFontBuildDstData@@@@QEAAXXZ ; ImVector<ImFontBuildDstData>::clear
PUBLIC	?_grow_capacity@?$ImVector@UImFontBuildDstData@@@@QEBAHH@Z ; ImVector<ImFontBuildDstData>::_grow_capacity
PUBLIC	?resize@?$ImVector@UImFontBuildDstData@@@@QEAAXH@Z ; ImVector<ImFontBuildDstData>::resize
PUBLIC	?reserve@?$ImVector@UImFontBuildDstData@@@@QEAAXH@Z ; ImVector<ImFontBuildDstData>::reserve
PUBLIC	??0?$ImVector@Ustbrp_rect@@@@QEAA@XZ		; ImVector<stbrp_rect>::ImVector<stbrp_rect>
PUBLIC	??1?$ImVector@Ustbrp_rect@@@@QEAA@XZ		; ImVector<stbrp_rect>::~ImVector<stbrp_rect>
PUBLIC	?size_in_bytes@?$ImVector@Ustbrp_rect@@@@QEBAHXZ ; ImVector<stbrp_rect>::size_in_bytes
PUBLIC	??A?$ImVector@Ustbrp_rect@@@@QEAAAEAUstbrp_rect@@H@Z ; ImVector<stbrp_rect>::operator[]
PUBLIC	?clear@?$ImVector@Ustbrp_rect@@@@QEAAXXZ	; ImVector<stbrp_rect>::clear
PUBLIC	?_grow_capacity@?$ImVector@Ustbrp_rect@@@@QEBAHH@Z ; ImVector<stbrp_rect>::_grow_capacity
PUBLIC	?resize@?$ImVector@Ustbrp_rect@@@@QEAAXH@Z	; ImVector<stbrp_rect>::resize
PUBLIC	?reserve@?$ImVector@Ustbrp_rect@@@@QEAAXH@Z	; ImVector<stbrp_rect>::reserve
PUBLIC	??0?$ImVector@Ustbtt_packedchar@@@@QEAA@XZ	; ImVector<stbtt_packedchar>::ImVector<stbtt_packedchar>
PUBLIC	??1?$ImVector@Ustbtt_packedchar@@@@QEAA@XZ	; ImVector<stbtt_packedchar>::~ImVector<stbtt_packedchar>
PUBLIC	?size_in_bytes@?$ImVector@Ustbtt_packedchar@@@@QEBAHXZ ; ImVector<stbtt_packedchar>::size_in_bytes
PUBLIC	??A?$ImVector@Ustbtt_packedchar@@@@QEAAAEAUstbtt_packedchar@@H@Z ; ImVector<stbtt_packedchar>::operator[]
PUBLIC	?_grow_capacity@?$ImVector@Ustbtt_packedchar@@@@QEBAHH@Z ; ImVector<stbtt_packedchar>::_grow_capacity
PUBLIC	?resize@?$ImVector@Ustbtt_packedchar@@@@QEAAXH@Z ; ImVector<stbtt_packedchar>::resize
PUBLIC	?reserve@?$ImVector@Ustbtt_packedchar@@@@QEAAXH@Z ; ImVector<stbtt_packedchar>::reserve
PUBLIC	??$?0$0A@@id@locale@std@@QEAA@XZ		; std::locale::id::id<0>
PUBLIC	?_OptionsStorage@?1??__local_stdio_printf_options@@9@4_KA ; `__local_stdio_printf_options'::`2'::_OptionsStorage
PUBLIC	??_C@_04LOAJBDKD@true@				; `string'
PUBLIC	??_C@_04LBBEMOBJ@typ1@				; `string'
PUBLIC	??_C@_04LLEFIKCJ@OTTO@				; `string'
PUBLIC	??_C@_04KIOEMAHO@ttcf@				; `string'
PUBLIC	??_C@_04EICJPCEA@cmap@				; `string'
PUBLIC	??_C@_04DACNFKGE@loca@				; `string'
PUBLIC	??_C@_04NEODDMOL@head@				; `string'
PUBLIC	??_C@_04LLIHEPK@glyf@				; `string'
PUBLIC	??_C@_04FMPHLIKP@hhea@				; `string'
PUBLIC	??_C@_04ONMNCIMC@hmtx@				; `string'
PUBLIC	??_C@_04HHMMLDJI@kern@				; `string'
PUBLIC	??_C@_04PCFDEHHD@GPOS@				; `string'
PUBLIC	??_C@_04HJGCPIEK@CFF?5@				; `string'
PUBLIC	??_C@_04KODIGLGG@maxp@				; `string'
PUBLIC	??_C@_02JDPG@rb@				; `string'
PUBLIC	??_C@_0L@EPCGLJHG@?$CFs?0?5?$CF?40fpx@		; `string'
PUBLIC	?id@?$num_put@DV?$ostreambuf_iterator@DU?$char_traits@D@std@@@std@@@std@@2V0locale@2@A ; std::num_put<char,std::ostreambuf_iterator<char,std::char_traits<char> > >::id
PUBLIC	?id@?$codecvt@DDU_Mbstatet@@@std@@2V0locale@2@A	; std::codecvt<char,char,_Mbstatet>::id
PUBLIC	?id@?$numpunct@D@std@@2V0locale@2@A		; std::numpunct<char>::id
PUBLIC	?id@?$collate@D@std@@2V0locale@2@A		; std::collate<char>::id
PUBLIC	__real@00000000
PUBLIC	__real@358637bd
PUBLIC	__real@3ca3d70a
PUBLIC	__real@3d23d70a
PUBLIC	__real@3d75c28f
PUBLIC	__real@3da3d70a
PUBLIC	__real@3dcccccd
PUBLIC	__real@3de147ae
PUBLIC	__real@3e0f5c29
PUBLIC	__real@3e23d70a
PUBLIC	__real@3e4ccccd
PUBLIC	__real@3e75c28f
PUBLIC	__real@3e800000
PUBLIC	__real@3e851eb8
PUBLIC	__real@3e8a3d71
PUBLIC	__real@3e947ae1
PUBLIC	__real@3e99999a
PUBLIC	__real@3e9eb852
PUBLIC	__real@3ea3d70a
PUBLIC	__real@3eb33333
PUBLIC	__real@3ec7ae14
PUBLIC	__real@3ecccccd
PUBLIC	__real@3ed1eb85
PUBLIC	__real@3ed70a3d
PUBLIC	__real@3edc28f6
PUBLIC	__real@3ee147ae
PUBLIC	__real@3ee66666
PUBLIC	__real@3eeb851f
PUBLIC	__real@3ef0a3d7
PUBLIC	__real@3ef5c28f
PUBLIC	__real@3efae148
PUBLIC	__real@3f000000
PUBLIC	__real@3f028f5c
PUBLIC	__real@3f051eb8
PUBLIC	__real@3f07ae14
PUBLIC	__real@3f0a3d71
PUBLIC	__real@3f0ccccd
PUBLIC	__real@3f0f5c29
PUBLIC	__real@3f170a3d
PUBLIC	__real@3f19999a
PUBLIC	__real@3f1c28f6
PUBLIC	__real@3f1eb852
PUBLIC	__real@3f2147ae
PUBLIC	__real@3f23d70a
PUBLIC	__real@3f2b851f
PUBLIC	__real@3f30a3d7
PUBLIC	__real@3f333333
PUBLIC	__real@3f35c28f
PUBLIC	__real@3f400000
PUBLIC	__real@3f47ae14
PUBLIC	__real@3f4a3d71
PUBLIC	__real@3f4ccccd
PUBLIC	__real@3f51eb85
PUBLIC	__real@3f547ae1
PUBLIC	__real@3f5c28f6
PUBLIC	__real@3f5eb852
PUBLIC	__real@3f6147ae
PUBLIC	__real@3f666666
PUBLIC	__real@3f6b851f
PUBLIC	__real@3f70a3d7
PUBLIC	__real@3f733333
PUBLIC	__real@3f75c28f
PUBLIC	__real@3f7ae148
PUBLIC	__real@3f800000
PUBLIC	__real@3fc00000
PUBLIC	__real@3fc90fdb
PUBLIC	__real@3ffeb852
PUBLIC	__real@40000000
PUBLIC	__real@40400000
PUBLIC	__real@40490fdb
PUBLIC	__real@40800000
PUBLIC	__real@40a00000
PUBLIC	__real@40c90fdb
PUBLIC	__real@40e00000
PUBLIC	__real@41000000
PUBLIC	__real@41100000
PUBLIC	__real@41200000
PUBLIC	__real@41300000
PUBLIC	__real@41400000
PUBLIC	__real@41500000
PUBLIC	__real@41800000
PUBLIC	__real@41880000
PUBLIC	__real@41900000
PUBLIC	__real@41980000
PUBLIC	__real@41a80000
PUBLIC	__real@41b00000
PUBLIC	__real@41b80000
PUBLIC	__real@41f80000
PUBLIC	__real@425c0000
PUBLIC	__real@42920000
PUBLIC	__real@42b60000
PUBLIC	__real@42c80000
PUBLIC	__real@42da0000
PUBLIC	__real@437f0000
PUBLIC	__real@44333333
PUBLIC	__real@44b33333
PUBLIC	__real@45333333
PUBLIC	__real@46000000
PUBLIC	__real@46800000
PUBLIC	__real@47800000
PUBLIC	__real@7f7fffff
PUBLIC	__real@bf800000
PUBLIC	__real@c6000000
PUBLIC	__xmm@80000000800000008000000080000000
EXTRN	??3@YAXPEAX_K@Z:PROC				; operator delete
EXTRN	atexit:PROC
EXTRN	__stdio_common_vsnprintf_s:PROC
EXTRN	memchr:PROC
EXTRN	memcmp:PROC
EXTRN	memcpy:PROC
EXTRN	memset:PROC
EXTRN	strlen:PROC
EXTRN	malloc:PROC
EXTRN	fabs:PROC
EXTRN	acosf:PROC
EXTRN	ceilf:PROC
EXTRN	cosf:PROC
EXTRN	floorf:PROC
EXTRN	sinf:PROC
EXTRN	sqrtf:PROC
EXTRN	qsort:PROC
EXTRN	__imp_WSAStartup:PROC
EXTRN	__imp_WSACleanup:PROC
EXTRN	OPENSSL_init_ssl:PROC
EXTRN	?GetStyle@ImGui@@YAAEAUImGuiStyle@@XZ:PROC	; ImGui::GetStyle
EXTRN	?GetColorU32@ImGui@@YAIAEBUImVec4@@@Z:PROC	; ImGui::GetColorU32
EXTRN	?GetColorU32@ImGui@@YAII@Z:PROC			; ImGui::GetColorU32
EXTRN	?GetOverlayDrawList@ImGui@@YAPEAUImDrawList@@XZ:PROC ; ImGui::GetOverlayDrawList
EXTRN	?MemAlloc@ImGui@@YAPEAX_K@Z:PROC		; ImGui::MemAlloc
EXTRN	?MemFree@ImGui@@YAXPEAX@Z:PROC			; ImGui::MemFree
EXTRN	?ImTextCharFromUtf8@@YAHPEAIPEBD1@Z:PROC	; ImTextCharFromUtf8
EXTRN	?ImFileLoadToMemory@@YAPEAXPEBD0PEA_KH@Z:PROC	; ImFileLoadToMemory
EXTRN	?ImFormatString@@YAHPEAD_KPEBDZZ:PROC		; ImFormatString
EXTRN	__CxxFrameHandler4:PROC
EXTRN	__GSHandlerCheck:PROC
EXTRN	__GSHandlerCheck_EH4:PROC
EXTRN	__chkstk:PROC
EXTRN	__security_check_cookie:PROC
EXTRN	roundf:PROC
EXTRN	__ImageBase:BYTE
EXTRN	__security_cookie:QWORD
EXTRN	_fltused:DWORD
;	COMDAT ?_OptionsStorage@?1??__local_stdio_printf_options@@9@4_KA
_BSS	SEGMENT
?_OptionsStorage@?1??__local_stdio_printf_options@@9@4_KA DQ 01H DUP (?) ; `__local_stdio_printf_options'::`2'::_OptionsStorage
_BSS	ENDS
_BSS	SEGMENT
?wsinit_@detail@httplib@@3VWSInit@12@A DB 01H DUP (?)	; httplib::detail::wsinit_
	ALIGN	4

?sslinit_@detail@httplib@@3VSSLInit@12@A DB 01H DUP (?)	; httplib::detail::sslinit_
	ALIGN	8

?XYZMask@Math@Core@IronMan@@3T__m128@@B DB 010H DUP (?)	; IronMan::Core::Math::XYZMask
?QINV_SIGN_MASK@Math@Core@IronMan@@3T__m128@@B DB 010H DUP (?) ; IronMan::Core::Math::QINV_SIGN_MASK
?FONT_ATLAS_DEFAULT_TEX_CURSOR_DATA@@3QAY02$$CBUImVec2@@A DQ 018H DUP (?) ; FONT_ATLAS_DEFAULT_TEX_CURSOR_DATA
_BSS	ENDS
;	COMDAT ?full_ranges@?1??GetGlyphRangesChineseSimplifiedCommon@ImFontAtlas@@QEAAPEBGXZ@4PAGA
_BSS	SEGMENT
?full_ranges@?1??GetGlyphRangesChineseSimplifiedCommon@ImFontAtlas@@QEAAPEBGXZ@4PAGA DW 01393H DUP (?) ; `ImFontAtlas::GetGlyphRangesChineseSimplifiedCommon'::`2'::full_ranges
_BSS	ENDS
;	COMDAT ?full_ranges@?1??GetGlyphRangesJapanese@ImFontAtlas@@QEAAPEBGXZ@4PAGA
_BSS	SEGMENT
?full_ranges@?1??GetGlyphRangesJapanese@ImFontAtlas@@QEAAPEBGXZ@4PAGA DW 0f3dH DUP (?) ; `ImFontAtlas::GetGlyphRangesJapanese'::`2'::full_ranges
_BSS	ENDS
_BSS	SEGMENT
?stb__barrier_out_e@@3PEAEEA DQ 01H DUP (?)		; stb__barrier_out_e
?stb__barrier_out_b@@3PEAEEA DQ 01H DUP (?)		; stb__barrier_out_b
?stb__barrier_in_b@@3PEBEEB DQ 01H DUP (?)		; stb__barrier_in_b
?stb__dout@@3PEAEEA DQ 01H DUP (?)			; stb__dout
_BSS	ENDS
;	COMDAT ?id@?$num_put@DV?$ostreambuf_iterator@DU?$char_traits@D@std@@@std@@@std@@2V0locale@2@A
_BSS	SEGMENT
?id@?$num_put@DV?$ostreambuf_iterator@DU?$char_traits@D@std@@@std@@@std@@2V0locale@2@A DQ 01H DUP (?) ; std::num_put<char,std::ostreambuf_iterator<char,std::char_traits<char> > >::id
_BSS	ENDS
;	COMDAT ?id@?$codecvt@DDU_Mbstatet@@@std@@2V0locale@2@A
_BSS	SEGMENT
?id@?$codecvt@DDU_Mbstatet@@@std@@2V0locale@2@A DQ 01H DUP (?) ; std::codecvt<char,char,_Mbstatet>::id
_BSS	ENDS
;	COMDAT ?id@?$numpunct@D@std@@2V0locale@2@A
_BSS	SEGMENT
?id@?$numpunct@D@std@@2V0locale@2@A DQ 01H DUP (?)	; std::numpunct<char>::id
_BSS	ENDS
;	COMDAT ?id@?$collate@D@std@@2V0locale@2@A
_BSS	SEGMENT
?id@?$collate@D@std@@2V0locale@2@A DQ 01H DUP (?)	; std::collate<char>::id
_BSS	ENDS
;	COMDAT pdata
pdata	SEGMENT
$pdata$??_H@YAXPEAX_K1P6APEAX0@Z@Z DD imagerel $LN5
	DD	imagerel $LN5+102
	DD	imagerel $unwind$??_H@YAXPEAX_K1P6APEAX0@Z@Z
pdata	ENDS
;	COMDAT pdata
pdata	SEGMENT
$pdata$_vsnprintf_s_l DD imagerel $LN5
	DD	imagerel $LN5+126
	DD	imagerel $unwind$_vsnprintf_s_l
pdata	ENDS
;	COMDAT pdata
pdata	SEGMENT
$pdata$_vsnprintf_s DD imagerel $LN3
	DD	imagerel $LN3+73
	DD	imagerel $unwind$_vsnprintf_s
pdata	ENDS
;	COMDAT pdata
pdata	SEGMENT
$pdata$_MallocaComputeSize DD imagerel $LN5
	DD	imagerel $LN5+63
	DD	imagerel $unwind$_MallocaComputeSize
pdata	ENDS
;	COMDAT pdata
pdata	SEGMENT
$pdata$fabsf DD	imagerel $LN3
	DD	imagerel $LN3+30
	DD	imagerel $unwind$fabsf
pdata	ENDS
;	COMDAT pdata
pdata	SEGMENT
$pdata$?round@@YAMM@Z DD imagerel $LN3
	DD	imagerel $LN3+26
	DD	imagerel $unwind$?round@@YAMM@Z
pdata	ENDS
;	COMDAT pdata
pdata	SEGMENT
$pdata$??0WSInit@detail@httplib@@QEAA@XZ DD imagerel $LN4
	DD	imagerel $LN4+103
	DD	imagerel $unwind$??0WSInit@detail@httplib@@QEAA@XZ
pdata	ENDS
;	COMDAT pdata
pdata	SEGMENT
$pdata$??1WSInit@detail@httplib@@QEAA@XZ DD imagerel $LN4
	DD	imagerel $LN4+33
	DD	imagerel $unwind$??1WSInit@detail@httplib@@QEAA@XZ
pdata	ENDS
;	COMDAT pdata
pdata	SEGMENT
$pdata$??__Ewsinit_@detail@httplib@@YAXXZ DD imagerel ??__Ewsinit_@detail@httplib@@YAXXZ
	DD	imagerel ??__Ewsinit_@detail@httplib@@YAXXZ+34
	DD	imagerel $unwind$??__Ewsinit_@detail@httplib@@YAXXZ
pdata	ENDS
;	COMDAT pdata
pdata	SEGMENT
$pdata$??__Fwsinit_@detail@httplib@@YAXXZ DD imagerel ??__Fwsinit_@detail@httplib@@YAXXZ
	DD	imagerel ??__Fwsinit_@detail@httplib@@YAXXZ+22
	DD	imagerel $unwind$??__Fwsinit_@detail@httplib@@YAXXZ
pdata	ENDS
;	COMDAT pdata
pdata	SEGMENT
$pdata$??0SSLInit@detail@httplib@@QEAA@XZ DD imagerel $LN3
	DD	imagerel $LN3+32
	DD	imagerel $unwind$??0SSLInit@detail@httplib@@QEAA@XZ
pdata	ENDS
;	COMDAT pdata
pdata	SEGMENT
$pdata$??__Esslinit_@detail@httplib@@YAXXZ DD imagerel ??__Esslinit_@detail@httplib@@YAXXZ
	DD	imagerel ??__Esslinit_@detail@httplib@@YAXXZ+22
	DD	imagerel $unwind$??__Esslinit_@detail@httplib@@YAXXZ
pdata	ENDS
;	COMDAT pdata
pdata	SEGMENT
$pdata$?MakeVectorRegister@Math@Core@IronMan@@YA?AT__m128@@IIII@Z DD imagerel $LN3
	DD	imagerel $LN3+116
	DD	imagerel $unwind$?MakeVectorRegister@Math@Core@IronMan@@YA?AT__m128@@IIII@Z
pdata	ENDS
;	COMDAT pdata
pdata	SEGMENT
$pdata$?MakeVectorRegister@Math@Core@IronMan@@YA?AT__m128@@MMMM@Z DD imagerel $LN3
	DD	imagerel $LN3+77
	DD	imagerel $unwind$?MakeVectorRegister@Math@Core@IronMan@@YA?AT__m128@@MMMM@Z
pdata	ENDS
;	COMDAT pdata
pdata	SEGMENT
$pdata$??__EXYZMask@Math@Core@IronMan@@YAXXZ DD imagerel ??__EXYZMask@Math@Core@IronMan@@YAXXZ
	DD	imagerel ??__EXYZMask@Math@Core@IronMan@@YAXXZ+40
	DD	imagerel $unwind$??__EXYZMask@Math@Core@IronMan@@YAXXZ
pdata	ENDS
;	COMDAT pdata
pdata	SEGMENT
$pdata$??__EQINV_SIGN_MASK@Math@Core@IronMan@@YAXXZ DD imagerel ??__EQINV_SIGN_MASK@Math@Core@IronMan@@YAXXZ
	DD	imagerel ??__EQINV_SIGN_MASK@Math@Core@IronMan@@YAXXZ+53
	DD	imagerel $unwind$??__EQINV_SIGN_MASK@Math@Core@IronMan@@YAXXZ
pdata	ENDS
pdata	SEGMENT
$pdata$?StyleColorsDark@ImGui@@YAXPEAUImGuiStyle@@@Z DD imagerel $LN5
	DD	imagerel $LN5+3811
	DD	imagerel $unwind$?StyleColorsDark@ImGui@@YAXPEAUImGuiStyle@@@Z
$pdata$?StyleColorsClassic@ImGui@@YAXPEAUImGuiStyle@@@Z DD imagerel $LN5
	DD	imagerel $LN5+3796
	DD	imagerel $unwind$?StyleColorsClassic@ImGui@@YAXPEAUImGuiStyle@@@Z
$pdata$?StyleColorsLight@ImGui@@YAXPEAUImGuiStyle@@@Z DD imagerel $LN5
	DD	imagerel $LN5+3801
	DD	imagerel $unwind$?StyleColorsLight@ImGui@@YAXPEAUImGuiStyle@@@Z
pdata	ENDS
;	COMDAT pdata
pdata	SEGMENT
$pdata$??4?$ImVector@G@@QEAAAEAU0@AEBU0@@Z DD imagerel $LN3
	DD	imagerel $LN3+88
	DD	imagerel $unwind$??4?$ImVector@G@@QEAAAEAU0@AEBU0@@Z
pdata	ENDS
;	COMDAT pdata
pdata	SEGMENT
$pdata$??1?$ImVector@G@@QEAA@XZ DD imagerel $LN4
	DD	imagerel $LN4+41
	DD	imagerel $unwind$??1?$ImVector@G@@QEAA@XZ
pdata	ENDS
;	COMDAT pdata
pdata	SEGMENT
$pdata$?empty@?$ImVector@G@@QEBA_NXZ DD imagerel $LN5
	DD	imagerel $LN5+44
	DD	imagerel $unwind$?empty@?$ImVector@G@@QEBA_NXZ
pdata	ENDS
;	COMDAT pdata
pdata	SEGMENT
$pdata$?clear@?$ImVector@G@@QEAAXXZ DD imagerel $LN4
	DD	imagerel $LN4+76
	DD	imagerel $unwind$?clear@?$ImVector@G@@QEAAXXZ
pdata	ENDS
;	COMDAT pdata
pdata	SEGMENT
$pdata$?_grow_capacity@?$ImVector@G@@QEBAHH@Z DD imagerel $LN7
	DD	imagerel $LN7+101
	DD	imagerel $unwind$?_grow_capacity@?$ImVector@G@@QEBAHH@Z
pdata	ENDS
;	COMDAT pdata
pdata	SEGMENT
$pdata$?resize@?$ImVector@G@@QEAAXH@Z DD imagerel $LN4
	DD	imagerel $LN4+70
	DD	imagerel $unwind$?resize@?$ImVector@G@@QEAAXH@Z
pdata	ENDS
;	COMDAT pdata
pdata	SEGMENT
$pdata$?resize@?$ImVector@G@@QEAAXHAEBG@Z DD imagerel $LN8
	DD	imagerel $LN8+161
	DD	imagerel $unwind$?resize@?$ImVector@G@@QEAAXHAEBG@Z
pdata	ENDS
;	COMDAT pdata
pdata	SEGMENT
$pdata$?reserve@?$ImVector@G@@QEAAXH@Z DD imagerel $LN5
	DD	imagerel $LN5+141
	DD	imagerel $unwind$?reserve@?$ImVector@G@@QEAAXH@Z
pdata	ENDS
;	COMDAT pdata
pdata	SEGMENT
$pdata$?push_back@?$ImVector@G@@QEAAXAEBG@Z DD imagerel $LN4
	DD	imagerel $LN4+126
	DD	imagerel $unwind$?push_back@?$ImVector@G@@QEAAXAEBG@Z
pdata	ENDS
;	COMDAT pdata
pdata	SEGMENT
$pdata$??0ImDrawCmd@@QEAA@XZ DD imagerel $LN3
	DD	imagerel $LN3+138
	DD	imagerel $unwind$??0ImDrawCmd@@QEAA@XZ
pdata	ENDS
;	COMDAT pdata
pdata	SEGMENT
$pdata$??4?$ImVector@UImDrawCmd@@@@QEAAAEAU0@AEBU0@@Z DD imagerel $LN3
	DD	imagerel $LN3+89
	DD	imagerel $unwind$??4?$ImVector@UImDrawCmd@@@@QEAAAEAU0@AEBU0@@Z
pdata	ENDS
;	COMDAT pdata
pdata	SEGMENT
$pdata$??1?$ImVector@UImDrawCmd@@@@QEAA@XZ DD imagerel $LN4
	DD	imagerel $LN4+41
	DD	imagerel $unwind$??1?$ImVector@UImDrawCmd@@@@QEAA@XZ
pdata	ENDS
;	COMDAT pdata
pdata	SEGMENT
$pdata$?clear@?$ImVector@UImDrawCmd@@@@QEAAXXZ DD imagerel $LN4
	DD	imagerel $LN4+76
	DD	imagerel $unwind$?clear@?$ImVector@UImDrawCmd@@@@QEAAXXZ
pdata	ENDS
;	COMDAT pdata
pdata	SEGMENT
$pdata$?_grow_capacity@?$ImVector@UImDrawCmd@@@@QEBAHH@Z DD imagerel $LN7
	DD	imagerel $LN7+101
	DD	imagerel $unwind$?_grow_capacity@?$ImVector@UImDrawCmd@@@@QEBAHH@Z
pdata	ENDS
;	COMDAT pdata
pdata	SEGMENT
$pdata$?resize@?$ImVector@UImDrawCmd@@@@QEAAXH@Z DD imagerel $LN4
	DD	imagerel $LN4+70
	DD	imagerel $unwind$?resize@?$ImVector@UImDrawCmd@@@@QEAAXH@Z
pdata	ENDS
;	COMDAT pdata
pdata	SEGMENT
$pdata$?reserve@?$ImVector@UImDrawCmd@@@@QEAAXH@Z DD imagerel $LN5
	DD	imagerel $LN5+143
	DD	imagerel $unwind$?reserve@?$ImVector@UImDrawCmd@@@@QEAAXH@Z
pdata	ENDS
;	COMDAT pdata
pdata	SEGMENT
$pdata$?push_back@?$ImVector@UImDrawCmd@@@@QEAAXAEBUImDrawCmd@@@Z DD imagerel $LN4
	DD	imagerel $LN4+126
	DD	imagerel $unwind$?push_back@?$ImVector@UImDrawCmd@@@@QEAAXAEBUImDrawCmd@@@Z
pdata	ENDS
;	COMDAT pdata
pdata	SEGMENT
$pdata$??0ImDrawChannel@@QEAA@XZ DD imagerel $LN5
	DD	imagerel $LN5+51
	DD	imagerel $unwind$??0ImDrawChannel@@QEAA@XZ
pdata	ENDS
;	COMDAT pdata
pdata	SEGMENT
$pdata$?dtor$0@?0???0ImDrawChannel@@QEAA@XZ@4HA DD imagerel ?dtor$0@?0???0ImDrawChannel@@QEAA@XZ@4HA
	DD	imagerel ?dtor$0@?0???0ImDrawChannel@@QEAA@XZ@4HA+24
	DD	imagerel $unwind$?dtor$0@?0???0ImDrawChannel@@QEAA@XZ@4HA
pdata	ENDS
;	COMDAT pdata
pdata	SEGMENT
$pdata$?dtor$1@?0???0ImDrawChannel@@QEAA@XZ@4HA DD imagerel ?dtor$1@?0???0ImDrawChannel@@QEAA@XZ@4HA
	DD	imagerel ?dtor$1@?0???0ImDrawChannel@@QEAA@XZ@4HA+28
	DD	imagerel $unwind$?dtor$1@?0???0ImDrawChannel@@QEAA@XZ@4HA
pdata	ENDS
;	COMDAT pdata
pdata	SEGMENT
$pdata$??4?$ImVector@UImDrawVert@@@@QEAAAEAU0@AEBU0@@Z DD imagerel $LN3
	DD	imagerel $LN3+89
	DD	imagerel $unwind$??4?$ImVector@UImDrawVert@@@@QEAAAEAU0@AEBU0@@Z
pdata	ENDS
;	COMDAT pdata
pdata	SEGMENT
$pdata$??1?$ImVector@UImDrawVert@@@@QEAA@XZ DD imagerel $LN4
	DD	imagerel $LN4+41
	DD	imagerel $unwind$??1?$ImVector@UImDrawVert@@@@QEAA@XZ
pdata	ENDS
;	COMDAT pdata
pdata	SEGMENT
$pdata$?clear@?$ImVector@UImDrawVert@@@@QEAAXXZ DD imagerel $LN4
	DD	imagerel $LN4+76
	DD	imagerel $unwind$?clear@?$ImVector@UImDrawVert@@@@QEAAXXZ
pdata	ENDS
;	COMDAT pdata
pdata	SEGMENT
$pdata$?swap@?$ImVector@UImDrawVert@@@@QEAAXAEAU1@@Z DD imagerel $LN3
	DD	imagerel $LN3+139
	DD	imagerel $unwind$?swap@?$ImVector@UImDrawVert@@@@QEAAXAEAU1@@Z
pdata	ENDS
;	COMDAT pdata
pdata	SEGMENT
$pdata$?_grow_capacity@?$ImVector@UImDrawVert@@@@QEBAHH@Z DD imagerel $LN7
	DD	imagerel $LN7+101
	DD	imagerel $unwind$?_grow_capacity@?$ImVector@UImDrawVert@@@@QEBAHH@Z
pdata	ENDS
;	COMDAT pdata
pdata	SEGMENT
$pdata$?resize@?$ImVector@UImDrawVert@@@@QEAAXH@Z DD imagerel $LN4
	DD	imagerel $LN4+70
	DD	imagerel $unwind$?resize@?$ImVector@UImDrawVert@@@@QEAAXH@Z
pdata	ENDS
;	COMDAT pdata
pdata	SEGMENT
$pdata$?reserve@?$ImVector@UImDrawVert@@@@QEAAXH@Z DD imagerel $LN5
	DD	imagerel $LN5+143
	DD	imagerel $unwind$?reserve@?$ImVector@UImDrawVert@@@@QEAAXH@Z
pdata	ENDS
;	COMDAT pdata
pdata	SEGMENT
$pdata$??1?$ImVector@UImDrawChannel@@@@QEAA@XZ DD imagerel $LN4
	DD	imagerel $LN4+41
	DD	imagerel $unwind$??1?$ImVector@UImDrawChannel@@@@QEAA@XZ
pdata	ENDS
;	COMDAT pdata
pdata	SEGMENT
$pdata$?clear@?$ImVector@UImDrawChannel@@@@QEAAXXZ DD imagerel $LN4
	DD	imagerel $LN4+76
	DD	imagerel $unwind$?clear@?$ImVector@UImDrawChannel@@@@QEAAXXZ
pdata	ENDS
;	COMDAT pdata
pdata	SEGMENT
$pdata$?_grow_capacity@?$ImVector@UImDrawChannel@@@@QEBAHH@Z DD imagerel $LN7
	DD	imagerel $LN7+101
	DD	imagerel $unwind$?_grow_capacity@?$ImVector@UImDrawChannel@@@@QEBAHH@Z
pdata	ENDS
;	COMDAT pdata
pdata	SEGMENT
$pdata$?resize@?$ImVector@UImDrawChannel@@@@QEAAXH@Z DD imagerel $LN4
	DD	imagerel $LN4+70
	DD	imagerel $unwind$?resize@?$ImVector@UImDrawChannel@@@@QEAAXH@Z
pdata	ENDS
;	COMDAT pdata
pdata	SEGMENT
$pdata$?reserve@?$ImVector@UImDrawChannel@@@@QEAAXH@Z DD imagerel $LN5
	DD	imagerel $LN5+143
	DD	imagerel $unwind$?reserve@?$ImVector@UImDrawChannel@@@@QEAAXH@Z
pdata	ENDS
;	COMDAT pdata
pdata	SEGMENT
$pdata$??1?$ImVector@UImVec4@@@@QEAA@XZ DD imagerel $LN4
	DD	imagerel $LN4+41
	DD	imagerel $unwind$??1?$ImVector@UImVec4@@@@QEAA@XZ
pdata	ENDS
;	COMDAT pdata
pdata	SEGMENT
$pdata$?clear@?$ImVector@UImVec4@@@@QEAAXXZ DD imagerel $LN4
	DD	imagerel $LN4+76
	DD	imagerel $unwind$?clear@?$ImVector@UImVec4@@@@QEAAXXZ
pdata	ENDS
;	COMDAT pdata
pdata	SEGMENT
$pdata$?_grow_capacity@?$ImVector@UImVec4@@@@QEBAHH@Z DD imagerel $LN7
	DD	imagerel $LN7+101
	DD	imagerel $unwind$?_grow_capacity@?$ImVector@UImVec4@@@@QEBAHH@Z
pdata	ENDS
;	COMDAT pdata
pdata	SEGMENT
$pdata$?resize@?$ImVector@UImVec4@@@@QEAAXH@Z DD imagerel $LN4
	DD	imagerel $LN4+70
	DD	imagerel $unwind$?resize@?$ImVector@UImVec4@@@@QEAAXH@Z
pdata	ENDS
;	COMDAT pdata
pdata	SEGMENT
$pdata$?reserve@?$ImVector@UImVec4@@@@QEAAXH@Z DD imagerel $LN5
	DD	imagerel $LN5+143
	DD	imagerel $unwind$?reserve@?$ImVector@UImVec4@@@@QEAAXH@Z
pdata	ENDS
;	COMDAT pdata
pdata	SEGMENT
$pdata$?push_back@?$ImVector@UImVec4@@@@QEAAXAEBUImVec4@@@Z DD imagerel $LN4
	DD	imagerel $LN4+126
	DD	imagerel $unwind$?push_back@?$ImVector@UImVec4@@@@QEAAXAEBUImVec4@@@Z
pdata	ENDS
;	COMDAT pdata
pdata	SEGMENT
$pdata$??1?$ImVector@PEAX@@QEAA@XZ DD imagerel $LN4
	DD	imagerel $LN4+41
	DD	imagerel $unwind$??1?$ImVector@PEAX@@QEAA@XZ
pdata	ENDS
;	COMDAT pdata
pdata	SEGMENT
$pdata$?empty@?$ImVector@PEAX@@QEBA_NXZ DD imagerel $LN5
	DD	imagerel $LN5+44
	DD	imagerel $unwind$?empty@?$ImVector@PEAX@@QEBA_NXZ
pdata	ENDS
;	COMDAT pdata
pdata	SEGMENT
$pdata$?clear@?$ImVector@PEAX@@QEAAXXZ DD imagerel $LN4
	DD	imagerel $LN4+76
	DD	imagerel $unwind$?clear@?$ImVector@PEAX@@QEAAXXZ
pdata	ENDS
;	COMDAT pdata
pdata	SEGMENT
$pdata$?_grow_capacity@?$ImVector@PEAX@@QEBAHH@Z DD imagerel $LN7
	DD	imagerel $LN7+101
	DD	imagerel $unwind$?_grow_capacity@?$ImVector@PEAX@@QEBAHH@Z
pdata	ENDS
;	COMDAT pdata
pdata	SEGMENT
$pdata$?resize@?$ImVector@PEAX@@QEAAXH@Z DD imagerel $LN4
	DD	imagerel $LN4+70
	DD	imagerel $unwind$?resize@?$ImVector@PEAX@@QEAAXH@Z
pdata	ENDS
;	COMDAT pdata
pdata	SEGMENT
$pdata$?reserve@?$ImVector@PEAX@@QEAAXH@Z DD imagerel $LN5
	DD	imagerel $LN5+143
	DD	imagerel $unwind$?reserve@?$ImVector@PEAX@@QEAAXH@Z
pdata	ENDS
;	COMDAT pdata
pdata	SEGMENT
$pdata$?push_back@?$ImVector@PEAX@@QEAAXAEBQEAX@Z DD imagerel $LN4
	DD	imagerel $LN4+126
	DD	imagerel $unwind$?push_back@?$ImVector@PEAX@@QEAAXAEBQEAX@Z
pdata	ENDS
;	COMDAT pdata
pdata	SEGMENT
$pdata$??1?$ImVector@UImVec2@@@@QEAA@XZ DD imagerel $LN4
	DD	imagerel $LN4+41
	DD	imagerel $unwind$??1?$ImVector@UImVec2@@@@QEAA@XZ
pdata	ENDS
;	COMDAT pdata
pdata	SEGMENT
$pdata$?clear@?$ImVector@UImVec2@@@@QEAAXXZ DD imagerel $LN4
	DD	imagerel $LN4+76
	DD	imagerel $unwind$?clear@?$ImVector@UImVec2@@@@QEAAXXZ
pdata	ENDS
;	COMDAT pdata
pdata	SEGMENT
$pdata$?_grow_capacity@?$ImVector@UImVec2@@@@QEBAHH@Z DD imagerel $LN7
	DD	imagerel $LN7+101
	DD	imagerel $unwind$?_grow_capacity@?$ImVector@UImVec2@@@@QEBAHH@Z
pdata	ENDS
;	COMDAT pdata
pdata	SEGMENT
$pdata$?resize@?$ImVector@UImVec2@@@@QEAAXH@Z DD imagerel $LN4
	DD	imagerel $LN4+70
	DD	imagerel $unwind$?resize@?$ImVector@UImVec2@@@@QEAAXH@Z
pdata	ENDS
;	COMDAT pdata
pdata	SEGMENT
$pdata$?reserve@?$ImVector@UImVec2@@@@QEAAXH@Z DD imagerel $LN5
	DD	imagerel $LN5+143
	DD	imagerel $unwind$?reserve@?$ImVector@UImVec2@@@@QEAAXH@Z
pdata	ENDS
;	COMDAT pdata
pdata	SEGMENT
$pdata$?push_back@?$ImVector@UImVec2@@@@QEAAXAEBUImVec2@@@Z DD imagerel $LN4
	DD	imagerel $LN4+126
	DD	imagerel $unwind$?push_back@?$ImVector@UImVec2@@@@QEAAXAEBUImVec2@@@Z
pdata	ENDS
;	COMDAT pdata
pdata	SEGMENT
$pdata$??0ImDrawList@@QEAA@PEBUImDrawListSharedData@@@Z DD imagerel $LN10
	DD	imagerel $LN10+188
	DD	imagerel $unwind$??0ImDrawList@@QEAA@PEBUImDrawListSharedData@@@Z
pdata	ENDS
;	COMDAT pdata
pdata	SEGMENT
$pdata$?dtor$0@?0???0ImDrawList@@QEAA@PEBUImDrawListSharedData@@@Z@4HA DD imagerel ?dtor$0@?0???0ImDrawList@@QEAA@PEBUImDrawListSharedData@@@Z@4HA
	DD	imagerel ?dtor$0@?0???0ImDrawList@@QEAA@PEBUImDrawListSharedData@@@Z@4HA+24
	DD	imagerel $unwind$?dtor$0@?0???0ImDrawList@@QEAA@PEBUImDrawListSharedData@@@Z@4HA
pdata	ENDS
;	COMDAT pdata
pdata	SEGMENT
$pdata$?dtor$1@?0???0ImDrawList@@QEAA@PEBUImDrawListSharedData@@@Z@4HA DD imagerel ?dtor$1@?0???0ImDrawList@@QEAA@PEBUImDrawListSharedData@@@Z@4HA
	DD	imagerel ?dtor$1@?0???0ImDrawList@@QEAA@PEBUImDrawListSharedData@@@Z@4HA+28
	DD	imagerel $unwind$?dtor$1@?0???0ImDrawList@@QEAA@PEBUImDrawListSharedData@@@Z@4HA
pdata	ENDS
;	COMDAT pdata
pdata	SEGMENT
$pdata$?dtor$2@?0???0ImDrawList@@QEAA@PEBUImDrawListSharedData@@@Z@4HA DD imagerel ?dtor$2@?0???0ImDrawList@@QEAA@PEBUImDrawListSharedData@@@Z@4HA
	DD	imagerel ?dtor$2@?0???0ImDrawList@@QEAA@PEBUImDrawListSharedData@@@Z@4HA+28
	DD	imagerel $unwind$?dtor$2@?0???0ImDrawList@@QEAA@PEBUImDrawListSharedData@@@Z@4HA
pdata	ENDS
;	COMDAT pdata
pdata	SEGMENT
$pdata$?dtor$3@?0???0ImDrawList@@QEAA@PEBUImDrawListSharedData@@@Z@4HA DD imagerel ?dtor$3@?0???0ImDrawList@@QEAA@PEBUImDrawListSharedData@@@Z@4HA
	DD	imagerel ?dtor$3@?0???0ImDrawList@@QEAA@PEBUImDrawListSharedData@@@Z@4HA+28
	DD	imagerel $unwind$?dtor$3@?0???0ImDrawList@@QEAA@PEBUImDrawListSharedData@@@Z@4HA
pdata	ENDS
;	COMDAT pdata
pdata	SEGMENT
$pdata$?dtor$4@?0???0ImDrawList@@QEAA@PEBUImDrawListSharedData@@@Z@4HA DD imagerel ?dtor$4@?0???0ImDrawList@@QEAA@PEBUImDrawListSharedData@@@Z@4HA
	DD	imagerel ?dtor$4@?0???0ImDrawList@@QEAA@PEBUImDrawListSharedData@@@Z@4HA+28
	DD	imagerel $unwind$?dtor$4@?0???0ImDrawList@@QEAA@PEBUImDrawListSharedData@@@Z@4HA
pdata	ENDS
;	COMDAT pdata
pdata	SEGMENT
$pdata$?dtor$5@?0???0ImDrawList@@QEAA@PEBUImDrawListSharedData@@@Z@4HA DD imagerel ?dtor$5@?0???0ImDrawList@@QEAA@PEBUImDrawListSharedData@@@Z@4HA
	DD	imagerel ?dtor$5@?0???0ImDrawList@@QEAA@PEBUImDrawListSharedData@@@Z@4HA+31
	DD	imagerel $unwind$?dtor$5@?0???0ImDrawList@@QEAA@PEBUImDrawListSharedData@@@Z@4HA
pdata	ENDS
;	COMDAT pdata
pdata	SEGMENT
$pdata$?dtor$6@?0???0ImDrawList@@QEAA@PEBUImDrawListSharedData@@@Z@4HA DD imagerel ?dtor$6@?0???0ImDrawList@@QEAA@PEBUImDrawListSharedData@@@Z@4HA
	DD	imagerel ?dtor$6@?0???0ImDrawList@@QEAA@PEBUImDrawListSharedData@@@Z@4HA+31
	DD	imagerel $unwind$?dtor$6@?0???0ImDrawList@@QEAA@PEBUImDrawListSharedData@@@Z@4HA
pdata	ENDS
pdata	SEGMENT
$pdata$?PushClipRect@ImDrawList@@QEAAXUImVec2@@0_N@Z DD imagerel $LN8
	DD	imagerel $LN8+365
	DD	imagerel $unwind$?PushClipRect@ImDrawList@@QEAAXUImVec2@@0_N@Z
$pdata$?PushClipRectFullScreen@ImDrawList@@QEAAXXZ DD imagerel $LN3
	DD	imagerel $LN3+130
	DD	imagerel $unwind$?PushClipRectFullScreen@ImDrawList@@QEAAXXZ
$pdata$?PopClipRect@ImDrawList@@QEAAXXZ DD imagerel $LN3
	DD	imagerel $LN3+42
	DD	imagerel $unwind$?PopClipRect@ImDrawList@@QEAAXXZ
$pdata$?PushTextureID@ImDrawList@@QEAAXPEAX@Z DD imagerel $LN3
	DD	imagerel $LN3+61
	DD	imagerel $unwind$?PushTextureID@ImDrawList@@QEAAXPEAX@Z
$pdata$?PopTextureID@ImDrawList@@QEAAXXZ DD imagerel $LN3
	DD	imagerel $LN3+44
	DD	imagerel $unwind$?PopTextureID@ImDrawList@@QEAAXXZ
$pdata$?DrawBox_S@ImDrawList@@QEAAXAEBUImVec2@@0IMM@Z DD imagerel $LN3
	DD	imagerel $LN3+10230
	DD	imagerel $unwind$?DrawBox_S@ImDrawList@@QEAAXAEBUImVec2@@0IMM@Z
$pdata$?DrawHealthBar@ImDrawList@@QEAAXAEBUImVec2@@0MM@Z DD imagerel $LN28
	DD	imagerel $LN28+1750
	DD	imagerel $unwind$?DrawHealthBar@ImDrawList@@QEAAXAEBUImVec2@@0MM@Z
$pdata$?AddLine@ImDrawList@@QEAAXAEBUImVec2@@0IM@Z DD imagerel $LN4
	DD	imagerel $LN4+187
	DD	imagerel $unwind$?AddLine@ImDrawList@@QEAAXAEBUImVec2@@0IM@Z
$pdata$?AddRect@ImDrawList@@QEAAXAEBUImVec2@@0IMHM@Z DD imagerel $LN6
	DD	imagerel $LN6+418
	DD	imagerel $unwind$?AddRect@ImDrawList@@QEAAXAEBUImVec2@@0IMHM@Z
$pdata$?AddRectFilled@ImDrawList@@QEAAXAEBUImVec2@@0IMH@Z DD imagerel $LN6
	DD	imagerel $LN6+157
	DD	imagerel $unwind$?AddRectFilled@ImDrawList@@QEAAXAEBUImVec2@@0IMH@Z
$pdata$?AddRectFilledMultiColor@ImDrawList@@QEAAXAEBUImVec2@@0IIII@Z DD imagerel $LN4
	DD	imagerel $LN4+398
	DD	imagerel $unwind$?AddRectFilledMultiColor@ImDrawList@@QEAAXAEBUImVec2@@0IIII@Z
$pdata$?AddQuad@ImDrawList@@QEAAXAEBUImVec2@@000IM@Z DD imagerel $LN4
	DD	imagerel $LN4+128
	DD	imagerel $unwind$?AddQuad@ImDrawList@@QEAAXAEBUImVec2@@000IM@Z
$pdata$?AddQuadFilled@ImDrawList@@QEAAXAEBUImVec2@@000I@Z DD imagerel $LN4
	DD	imagerel $LN4+119
	DD	imagerel $unwind$?AddQuadFilled@ImDrawList@@QEAAXAEBUImVec2@@000I@Z
$pdata$?AddTriangle@ImDrawList@@QEAAXAEBUImVec2@@00IM@Z DD imagerel $LN4
	DD	imagerel $LN4+113
	DD	imagerel $unwind$?AddTriangle@ImDrawList@@QEAAXAEBUImVec2@@00IM@Z
$pdata$?AddTriangleFilled@ImDrawList@@QEAAXAEBUImVec2@@00I@Z DD imagerel $LN4
	DD	imagerel $LN4+104
	DD	imagerel $unwind$?AddTriangleFilled@ImDrawList@@QEAAXAEBUImVec2@@00I@Z
$pdata$?AddCircle@ImDrawList@@QEAAXAEBUImVec2@@MIHM@Z DD imagerel $LN5
	DD	imagerel $LN5+178
	DD	imagerel $unwind$?AddCircle@ImDrawList@@QEAAXAEBUImVec2@@MIHM@Z
$pdata$?AddCircleFilled@ImDrawList@@QEAAXAEBUImVec2@@MIH@Z DD imagerel $LN5
	DD	imagerel $LN5+158
	DD	imagerel $unwind$?AddCircleFilled@ImDrawList@@QEAAXAEBUImVec2@@MIH@Z
$pdata$?AddText@ImDrawList@@QEAAXAEBUImVec2@@IPEBD1@Z DD imagerel $LN3
	DD	imagerel $LN3+99
	DD	imagerel $unwind$?AddText@ImDrawList@@QEAAXAEBUImVec2@@IPEBD1@Z
$pdata$?AddText@ImDrawList@@QEAAXPEBUImFont@@MAEBUImVec2@@IPEBD2MPEBUImVec4@@@Z DD imagerel $LN11
	DD	imagerel $LN11+509
	DD	imagerel $unwind$?AddText@ImDrawList@@QEAAXPEBUImFont@@MAEBUImVec2@@IPEBD2MPEBUImVec4@@@Z
$pdata$?AddImage@ImDrawList@@QEAAXPEAXAEBUImVec2@@111I@Z DD imagerel $LN8
	DD	imagerel $LN8+239
	DD	imagerel $unwind$?AddImage@ImDrawList@@QEAAXPEAXAEBUImVec2@@111I@Z
$pdata$?AddImageQuad@ImDrawList@@QEAAXPEAXAEBUImVec2@@1111111I@Z DD imagerel $LN8
	DD	imagerel $LN8+303
	DD	imagerel $unwind$?AddImageQuad@ImDrawList@@QEAAXPEAXAEBUImVec2@@1111111I@Z
$pdata$?AddImageRounded@ImDrawList@@QEAAXPEAXAEBUImVec2@@111IMH@Z DD imagerel $LN10
	DD	imagerel $LN10+411
	DD	imagerel $unwind$?AddImageRounded@ImDrawList@@QEAAXPEAXAEBUImVec2@@111IMH@Z
$pdata$?AddPolyline@ImDrawList@@QEAAXPEBUImVec2@@HI_NM@Z DD imagerel $LN57
	DD	imagerel $LN57+6723
	DD	imagerel $unwind$?AddPolyline@ImDrawList@@QEAAXPEBUImVec2@@HI_NM@Z
$pdata$?AddConvexPolyFilled@ImDrawList@@QEAAXPEBUImVec2@@HI@Z DD imagerel $LN25
	DD	imagerel $LN25+2068
	DD	imagerel $unwind$?AddConvexPolyFilled@ImDrawList@@QEAAXPEBUImVec2@@HI@Z
$pdata$?AddBezierCurve@ImDrawList@@QEAAXAEBUImVec2@@000IMH@Z DD imagerel $LN4
	DD	imagerel $LN4+116
	DD	imagerel $unwind$?AddBezierCurve@ImDrawList@@QEAAXAEBUImVec2@@000IMH@Z
$pdata$?DrawTextOutline@ImDrawList@@QEAA?AUImVec2@@PEBUImFont@@MMU2@IIKPEBDZZ DD imagerel $LN14
	DD	imagerel $LN14+1347
	DD	imagerel $unwind$?DrawTextOutline@ImDrawList@@QEAA?AUImVec2@@PEBUImFont@@MMU2@IIKPEBDZZ
pdata	ENDS
;	COMDAT pdata
pdata	SEGMENT
$pdata$?PathLineTo@ImDrawList@@QEAAXAEBUImVec2@@@Z DD imagerel $LN3
	DD	imagerel $LN3+51
	DD	imagerel $unwind$?PathLineTo@ImDrawList@@QEAAXAEBUImVec2@@@Z
pdata	ENDS
;	COMDAT pdata
pdata	SEGMENT
$pdata$?PathFillConvex@ImDrawList@@QEAAXI@Z DD imagerel $LN3
	DD	imagerel $LN3+72
	DD	imagerel $unwind$?PathFillConvex@ImDrawList@@QEAAXI@Z
pdata	ENDS
;	COMDAT pdata
pdata	SEGMENT
$pdata$?PathStroke@ImDrawList@@QEAAXI_NM@Z DD imagerel $LN3
	DD	imagerel $LN3+104
	DD	imagerel $unwind$?PathStroke@ImDrawList@@QEAAXI_NM@Z
pdata	ENDS
pdata	SEGMENT
$pdata$?PathArcTo@ImDrawList@@QEAAXAEBUImVec2@@MMMH@Z DD imagerel $LN7
	DD	imagerel $LN7+366
	DD	imagerel $unwind$?PathArcTo@ImDrawList@@QEAAXAEBUImVec2@@MMMH@Z
$pdata$?PathArcToFast@ImDrawList@@QEAAXAEBUImVec2@@MHH@Z DD imagerel $LN9
	DD	imagerel $LN9+368
	DD	imagerel $unwind$?PathArcToFast@ImDrawList@@QEAAXAEBUImVec2@@MHH@Z
$pdata$?PathBezierCurveTo@ImDrawList@@QEAAXAEBUImVec2@@00H@Z DD imagerel $LN8
	DD	imagerel $LN8+717
	DD	imagerel $unwind$?PathBezierCurveTo@ImDrawList@@QEAAXAEBUImVec2@@00H@Z
$pdata$?PathRect@ImDrawList@@QEAAXAEBUImVec2@@0MH@Z DD imagerel $LN18
	DD	imagerel $LN18+1032
	DD	imagerel $unwind$?PathRect@ImDrawList@@QEAAXAEBUImVec2@@0MH@Z
$pdata$?ChannelsSplit@ImDrawList@@QEAAXH@Z DD imagerel $LN13
	DD	imagerel $LN13+655
	DD	imagerel $unwind$?ChannelsSplit@ImDrawList@@QEAAXH@Z
pdata	ENDS
pdata	SEGMENT
$pdata$?dtor$0@?0??ChannelsSplit@ImDrawList@@QEAAXH@Z@4HA DD imagerel ?dtor$0@?0??ChannelsSplit@ImDrawList@@QEAAXH@Z@4HA
	DD	imagerel ?dtor$0@?0??ChannelsSplit@ImDrawList@@QEAAXH@Z@4HA+35
	DD	imagerel $unwind$?dtor$0@?0??ChannelsSplit@ImDrawList@@QEAAXH@Z@4HA
pdata	ENDS
pdata	SEGMENT
$pdata$?ChannelsMerge@ImDrawList@@QEAAXXZ DD imagerel $LN14
	DD	imagerel $LN14+749
	DD	imagerel $unwind$?ChannelsMerge@ImDrawList@@QEAAXXZ
$pdata$?ChannelsSetCurrent@ImDrawList@@QEAAXH@Z DD imagerel $LN4
	DD	imagerel $LN4+282
	DD	imagerel $unwind$?ChannelsSetCurrent@ImDrawList@@QEAAXH@Z
$pdata$?AddCallback@ImDrawList@@QEAAXP6AXPEBU1@PEBUImDrawCmd@@@ZPEAX@Z DD imagerel $LN7
	DD	imagerel $LN7+180
	DD	imagerel $unwind$?AddCallback@ImDrawList@@QEAAXP6AXPEBU1@PEBUImDrawCmd@@@ZPEAX@Z
$pdata$?AddDrawCmd@ImDrawList@@QEAAXXZ DD imagerel $LN7
	DD	imagerel $LN7+248
	DD	imagerel $unwind$?AddDrawCmd@ImDrawList@@QEAAXXZ
$pdata$?CloneOutput@ImDrawList@@QEBAPEAU1@XZ DD imagerel $LN6
	DD	imagerel $LN6+214
	DD	imagerel $unwind$?CloneOutput@ImDrawList@@QEBAPEAU1@XZ
pdata	ENDS
pdata	SEGMENT
$pdata$?dtor$0@?0??CloneOutput@ImDrawList@@QEBAPEAU1@XZ@4HA DD imagerel ?dtor$0@?0??CloneOutput@ImDrawList@@QEBAPEAU1@XZ@4HA
	DD	imagerel ?dtor$0@?0??CloneOutput@ImDrawList@@QEBAPEAU1@XZ@4HA+35
	DD	imagerel $unwind$?dtor$0@?0??CloneOutput@ImDrawList@@QEBAPEAU1@XZ@4HA
pdata	ENDS
pdata	SEGMENT
$pdata$?Clear@ImDrawList@@QEAAXXZ DD imagerel $LN3
	DD	imagerel $LN3+244
	DD	imagerel $unwind$?Clear@ImDrawList@@QEAAXXZ
$pdata$?ClearFreeMemory@ImDrawList@@QEAAXXZ DD imagerel $LN7
	DD	imagerel $LN7+366
	DD	imagerel $unwind$?ClearFreeMemory@ImDrawList@@QEAAXXZ
$pdata$?PrimReserve@ImDrawList@@QEAAXHH@Z DD imagerel $LN3
	DD	imagerel $LN3+222
	DD	imagerel $unwind$?PrimReserve@ImDrawList@@QEAAXHH@Z
$pdata$?PrimRect@ImDrawList@@QEAAXAEBUImVec2@@0I@Z DD imagerel $LN3
	DD	imagerel $LN3+684
	DD	imagerel $unwind$?PrimRect@ImDrawList@@QEAAXAEBUImVec2@@0I@Z
$pdata$?PrimRectUV@ImDrawList@@QEAAXAEBUImVec2@@000I@Z DD imagerel $LN3
	DD	imagerel $LN3+752
	DD	imagerel $unwind$?PrimRectUV@ImDrawList@@QEAAXAEBUImVec2@@000I@Z
$pdata$?PrimQuadUV@ImDrawList@@QEAAXAEBUImVec2@@0000000I@Z DD imagerel $LN3
	DD	imagerel $LN3+620
	DD	imagerel $unwind$?PrimQuadUV@ImDrawList@@QEAAXAEBUImVec2@@0000000I@Z
$pdata$?UpdateClipRect@ImDrawList@@QEAAXXZ DD imagerel $LN16
	DD	imagerel $LN16+529
	DD	imagerel $unwind$?UpdateClipRect@ImDrawList@@QEAAXXZ
$pdata$?UpdateTextureID@ImDrawList@@QEAAXXZ DD imagerel $LN16
	DD	imagerel $LN16+444
	DD	imagerel $unwind$?UpdateTextureID@ImDrawList@@QEAAXXZ
$pdata$?DeIndexAllBuffers@ImDrawData@@QEAAXXZ DD imagerel $LN11
	DD	imagerel $LN11+415
	DD	imagerel $unwind$?DeIndexAllBuffers@ImDrawData@@QEAAXXZ
pdata	ENDS
pdata	SEGMENT
$pdata$?dtor$0@?0??DeIndexAllBuffers@ImDrawData@@QEAAXXZ@4HA DD imagerel ?dtor$0@?0??DeIndexAllBuffers@ImDrawData@@QEAAXXZ@4HA
	DD	imagerel ?dtor$0@?0??DeIndexAllBuffers@ImDrawData@@QEAAXXZ@4HA+24
	DD	imagerel $unwind$?dtor$0@?0??DeIndexAllBuffers@ImDrawData@@QEAAXXZ@4HA
pdata	ENDS
pdata	SEGMENT
$pdata$?ScaleClipRects@ImDrawData@@QEAAXAEBUImVec2@@@Z DD imagerel $LN9
	DD	imagerel $LN9+314
	DD	imagerel $unwind$?ScaleClipRects@ImDrawData@@QEAAXAEBUImVec2@@@Z
$pdata$??0ImFontConfig@@QEAA@XZ DD imagerel $LN3
	DD	imagerel $LN3+321
	DD	imagerel $unwind$??0ImFontConfig@@QEAA@XZ
pdata	ENDS
;	COMDAT pdata
pdata	SEGMENT
$pdata$??1?$ImVector@H@@QEAA@XZ DD imagerel $LN4
	DD	imagerel $LN4+41
	DD	imagerel $unwind$??1?$ImVector@H@@QEAA@XZ
pdata	ENDS
;	COMDAT pdata
pdata	SEGMENT
$pdata$?empty@?$ImVector@H@@QEBA_NXZ DD imagerel $LN5
	DD	imagerel $LN5+44
	DD	imagerel $unwind$?empty@?$ImVector@H@@QEBA_NXZ
pdata	ENDS
;	COMDAT pdata
pdata	SEGMENT
$pdata$?clear@?$ImVector@H@@QEAAXXZ DD imagerel $LN4
	DD	imagerel $LN4+76
	DD	imagerel $unwind$?clear@?$ImVector@H@@QEAAXXZ
pdata	ENDS
;	COMDAT pdata
pdata	SEGMENT
$pdata$?_grow_capacity@?$ImVector@H@@QEBAHH@Z DD imagerel $LN7
	DD	imagerel $LN7+101
	DD	imagerel $unwind$?_grow_capacity@?$ImVector@H@@QEBAHH@Z
pdata	ENDS
;	COMDAT pdata
pdata	SEGMENT
$pdata$?resize@?$ImVector@H@@QEAAXH@Z DD imagerel $LN4
	DD	imagerel $LN4+70
	DD	imagerel $unwind$?resize@?$ImVector@H@@QEAAXH@Z
pdata	ENDS
;	COMDAT pdata
pdata	SEGMENT
$pdata$?reserve@?$ImVector@H@@QEAAXH@Z DD imagerel $LN5
	DD	imagerel $LN5+143
	DD	imagerel $unwind$?reserve@?$ImVector@H@@QEAAXH@Z
pdata	ENDS
;	COMDAT pdata
pdata	SEGMENT
$pdata$?push_back@?$ImVector@H@@QEAAXAEBH@Z DD imagerel $LN4
	DD	imagerel $LN4+126
	DD	imagerel $unwind$?push_back@?$ImVector@H@@QEAAXAEBH@Z
pdata	ENDS
;	COMDAT pdata
pdata	SEGMENT
$pdata$?GetBit@ImFontGlyphRangesBuilder@@QEBA_NH@Z DD imagerel $LN5
	DD	imagerel $LN5+117
	DD	imagerel $unwind$?GetBit@ImFontGlyphRangesBuilder@@QEBA_NH@Z
pdata	ENDS
;	COMDAT pdata
pdata	SEGMENT
$pdata$?SetBit@ImFontGlyphRangesBuilder@@QEAAXH@Z DD imagerel $LN3
	DD	imagerel $LN3+107
	DD	imagerel $unwind$?SetBit@ImFontGlyphRangesBuilder@@QEAAXH@Z
pdata	ENDS
;	COMDAT pdata
pdata	SEGMENT
$pdata$?AddChar@ImFontGlyphRangesBuilder@@QEAAXG@Z DD imagerel $LN3
	DD	imagerel $LN3+37
	DD	imagerel $unwind$?AddChar@ImFontGlyphRangesBuilder@@QEAAXG@Z
pdata	ENDS
pdata	SEGMENT
$pdata$?AddText@ImFontGlyphRangesBuilder@@QEAAXPEBD0@Z DD imagerel $LN11
	DD	imagerel $LN11+184
	DD	imagerel $unwind$?AddText@ImFontGlyphRangesBuilder@@QEAAXPEBD0@Z
$pdata$?AddRanges@ImFontGlyphRangesBuilder@@QEAAXPEBG@Z DD imagerel $LN9
	DD	imagerel $LN9+142
	DD	imagerel $unwind$?AddRanges@ImFontGlyphRangesBuilder@@QEAAXPEBG@Z
$pdata$?BuildRanges@ImFontGlyphRangesBuilder@@QEAAXPEAU?$ImVector@G@@@Z DD imagerel $LN9
	DD	imagerel $LN9+197
	DD	imagerel $unwind$?BuildRanges@ImFontGlyphRangesBuilder@@QEAAXPEAU?$ImVector@G@@@Z
$pdata$??0ImFontAtlas@@QEAA@XZ DD imagerel $LN9
	DD	imagerel $LN9+317
	DD	imagerel $unwind$??0ImFontAtlas@@QEAA@XZ
pdata	ENDS
pdata	SEGMENT
$pdata$?dtor$0@?0???0ImFontAtlas@@QEAA@XZ@4HA DD imagerel ?dtor$0@?0???0ImFontAtlas@@QEAA@XZ@4HA
	DD	imagerel ?dtor$0@?0???0ImFontAtlas@@QEAA@XZ@4HA+28
	DD	imagerel $unwind$?dtor$0@?0???0ImFontAtlas@@QEAA@XZ@4HA
$pdata$?dtor$1@?0???0ImFontAtlas@@QEAA@XZ@4HA DD imagerel ?dtor$1@?0???0ImFontAtlas@@QEAA@XZ@4HA
	DD	imagerel ?dtor$1@?0???0ImFontAtlas@@QEAA@XZ@4HA+28
	DD	imagerel $unwind$?dtor$1@?0???0ImFontAtlas@@QEAA@XZ@4HA
$pdata$?dtor$2@?0???0ImFontAtlas@@QEAA@XZ@4HA DD imagerel ?dtor$2@?0???0ImFontAtlas@@QEAA@XZ@4HA
	DD	imagerel ?dtor$2@?0???0ImFontAtlas@@QEAA@XZ@4HA+28
	DD	imagerel $unwind$?dtor$2@?0???0ImFontAtlas@@QEAA@XZ@4HA
pdata	ENDS
pdata	SEGMENT
$pdata$??1ImFontAtlas@@QEAA@XZ DD imagerel $LN6
	DD	imagerel $LN6+79
	DD	imagerel $unwind$??1ImFontAtlas@@QEAA@XZ
pdata	ENDS
pdata	SEGMENT
$pdata$?dtor$0@?0???1ImFontAtlas@@QEAA@XZ@4HA DD imagerel ?dtor$0@?0???1ImFontAtlas@@QEAA@XZ@4HA
	DD	imagerel ?dtor$0@?0???1ImFontAtlas@@QEAA@XZ@4HA+28
	DD	imagerel $unwind$?dtor$0@?0???1ImFontAtlas@@QEAA@XZ@4HA
$pdata$?dtor$1@?0???1ImFontAtlas@@QEAA@XZ@4HA DD imagerel ?dtor$1@?0???1ImFontAtlas@@QEAA@XZ@4HA
	DD	imagerel ?dtor$1@?0???1ImFontAtlas@@QEAA@XZ@4HA+28
	DD	imagerel $unwind$?dtor$1@?0???1ImFontAtlas@@QEAA@XZ@4HA
$pdata$?dtor$2@?0???1ImFontAtlas@@QEAA@XZ@4HA DD imagerel ?dtor$2@?0???1ImFontAtlas@@QEAA@XZ@4HA
	DD	imagerel ?dtor$2@?0???1ImFontAtlas@@QEAA@XZ@4HA+28
	DD	imagerel $unwind$?dtor$2@?0???1ImFontAtlas@@QEAA@XZ@4HA
pdata	ENDS
pdata	SEGMENT
$pdata$?AddFont@ImFontAtlas@@QEAAPEAUImFont@@PEBUImFontConfig@@@Z DD imagerel $LN10
	DD	imagerel $LN10+390
	DD	imagerel $unwind$?AddFont@ImFontAtlas@@QEAAPEAUImFont@@PEBUImFontConfig@@@Z
pdata	ENDS
pdata	SEGMENT
$pdata$?dtor$0@?0??AddFont@ImFontAtlas@@QEAAPEAUImFont@@PEBUImFontConfig@@@Z@4HA DD imagerel ?dtor$0@?0??AddFont@ImFontAtlas@@QEAAPEAUImFont@@PEBUImFontConfig@@@Z@4HA
	DD	imagerel ?dtor$0@?0??AddFont@ImFontAtlas@@QEAAPEAUImFont@@PEBUImFontConfig@@@Z@4HA+35
	DD	imagerel $unwind$?dtor$0@?0??AddFont@ImFontAtlas@@QEAAPEAUImFont@@PEBUImFontConfig@@@Z@4HA
pdata	ENDS
pdata	SEGMENT
$pdata$?AddFontFromFileTTF@ImFontAtlas@@QEAAPEAUImFont@@PEBDMPEBUImFontConfig@@PEBG@Z DD imagerel $LN10
	DD	imagerel $LN10+467
	DD	imagerel $unwind$?AddFontFromFileTTF@ImFontAtlas@@QEAAPEAUImFont@@PEBDMPEBUImFontConfig@@PEBG@Z
$pdata$?AddFontFromMemoryTTF@ImFontAtlas@@QEAAPEAUImFont@@PEAXHMPEBUImFontConfig@@PEBG@Z DD imagerel $LN6
	DD	imagerel $LN6+255
	DD	imagerel $unwind$?AddFontFromMemoryTTF@ImFontAtlas@@QEAAPEAUImFont@@PEAXHMPEBUImFontConfig@@PEBG@Z
$pdata$?AddFontFromMemoryCompressedTTF@ImFontAtlas@@QEAAPEAUImFont@@PEBXHMPEBUImFontConfig@@PEBG@Z DD imagerel $LN5
	DD	imagerel $LN5+294
	DD	imagerel $unwind$?AddFontFromMemoryCompressedTTF@ImFontAtlas@@QEAAPEAUImFont@@PEBXHMPEBUImFontConfig@@PEBG@Z
$pdata$?AddFontFromMemoryCompressedBase85TTF@ImFontAtlas@@QEAAPEAUImFont@@PEBDMPEBUImFontConfig@@PEBG@Z DD imagerel $LN3
	DD	imagerel $LN3+160
	DD	imagerel $unwind$?AddFontFromMemoryCompressedBase85TTF@ImFontAtlas@@QEAAPEAUImFont@@PEBDMPEBUImFontConfig@@PEBG@Z
$pdata$?ClearInputData@ImFontAtlas@@QEAAXXZ DD imagerel $LN14
	DD	imagerel $LN14+561
	DD	imagerel $unwind$?ClearInputData@ImFontAtlas@@QEAAXXZ
$pdata$?ClearTexData@ImFontAtlas@@QEAAXXZ DD imagerel $LN5
	DD	imagerel $LN5+94
	DD	imagerel $unwind$?ClearTexData@ImFontAtlas@@QEAAXXZ
$pdata$?ClearFonts@ImFontAtlas@@QEAAXXZ DD imagerel $LN6
	DD	imagerel $LN6+105
	DD	imagerel $unwind$?ClearFonts@ImFontAtlas@@QEAAXXZ
$pdata$?Clear@ImFontAtlas@@QEAAXXZ DD imagerel $LN3
	DD	imagerel $LN3+45
	DD	imagerel $unwind$?Clear@ImFontAtlas@@QEAAXXZ
$pdata$?Build@ImFontAtlas@@QEAA_NXZ DD imagerel $LN3
	DD	imagerel $LN3+24
	DD	imagerel $unwind$?Build@ImFontAtlas@@QEAA_NXZ
$pdata$?GetTexDataAsAlpha8@ImFontAtlas@@QEAAXPEAPEAEPEAH11@Z DD imagerel $LN7
	DD	imagerel $LN7+134
	DD	imagerel $unwind$?GetTexDataAsAlpha8@ImFontAtlas@@QEAAXPEAPEAEPEAH11@Z
$pdata$?GetTexDataAsRGBA32@ImFontAtlas@@QEAAXPEAPEAEPEAH11@Z DD imagerel $LN11
	DD	imagerel $LN11+362
	DD	imagerel $unwind$?GetTexDataAsRGBA32@ImFontAtlas@@QEAAXPEAPEAEPEAH11@Z
$pdata$?GetGlyphRangesJapanese@ImFontAtlas@@QEAAPEBGXZ DD imagerel $LN4
	DD	imagerel $LN4+123
	DD	imagerel $unwind$?GetGlyphRangesJapanese@ImFontAtlas@@QEAAPEBGXZ
$pdata$?GetGlyphRangesChineseSimplifiedCommon@ImFontAtlas@@QEAAPEBGXZ DD imagerel $LN4
	DD	imagerel $LN4+123
	DD	imagerel $unwind$?GetGlyphRangesChineseSimplifiedCommon@ImFontAtlas@@QEAAPEBGXZ
pdata	ENDS
;	COMDAT pdata
pdata	SEGMENT
$pdata$??0CustomRect@ImFontAtlas@@QEAA@XZ DD imagerel $LN3
	DD	imagerel $LN3+151
	DD	imagerel $unwind$??0CustomRect@ImFontAtlas@@QEAA@XZ
pdata	ENDS
pdata	SEGMENT
$pdata$?AddCustomRectRegular@ImFontAtlas@@QEAAHIHH@Z DD imagerel $LN3
	DD	imagerel $LN3+105
	DD	imagerel $unwind$?AddCustomRectRegular@ImFontAtlas@@QEAAHIHH@Z
$pdata$?AddCustomRectFontGlyph@ImFontAtlas@@QEAAHPEAUImFont@@GHHMAEBUImVec2@@@Z DD imagerel $LN3
	DD	imagerel $LN3+152
	DD	imagerel $unwind$?AddCustomRectFontGlyph@ImFontAtlas@@QEAAHPEAUImFont@@GHHMAEBUImVec2@@@Z
$pdata$?CalcCustomRectUV@ImFontAtlas@@QEAAXPEBUCustomRect@1@PEAUImVec2@@1@Z DD imagerel $LN3
	DD	imagerel $LN3+189
	DD	imagerel $unwind$?CalcCustomRectUV@ImFontAtlas@@QEAAXPEBUCustomRect@1@PEAUImVec2@@1@Z
$pdata$?GetMouseCursorTexData@ImFontAtlas@@QEAA_NHPEAUImVec2@@0QEAU2@1@Z DD imagerel $LN6
	DD	imagerel $LN6+636
	DD	imagerel $unwind$?GetMouseCursorTexData@ImFontAtlas@@QEAA_NHPEAUImVec2@@0QEAU2@1@Z
pdata	ENDS
;	COMDAT pdata
pdata	SEGMENT
$pdata$??1?$ImVector@PEAUImFont@@@@QEAA@XZ DD imagerel $LN4
	DD	imagerel $LN4+41
	DD	imagerel $unwind$??1?$ImVector@PEAUImFont@@@@QEAA@XZ
pdata	ENDS
;	COMDAT pdata
pdata	SEGMENT
$pdata$?clear@?$ImVector@PEAUImFont@@@@QEAAXXZ DD imagerel $LN4
	DD	imagerel $LN4+76
	DD	imagerel $unwind$?clear@?$ImVector@PEAUImFont@@@@QEAAXXZ
pdata	ENDS
;	COMDAT pdata
pdata	SEGMENT
$pdata$?_grow_capacity@?$ImVector@PEAUImFont@@@@QEBAHH@Z DD imagerel $LN7
	DD	imagerel $LN7+101
	DD	imagerel $unwind$?_grow_capacity@?$ImVector@PEAUImFont@@@@QEBAHH@Z
pdata	ENDS
;	COMDAT pdata
pdata	SEGMENT
$pdata$?reserve@?$ImVector@PEAUImFont@@@@QEAAXH@Z DD imagerel $LN5
	DD	imagerel $LN5+143
	DD	imagerel $unwind$?reserve@?$ImVector@PEAUImFont@@@@QEAAXH@Z
pdata	ENDS
;	COMDAT pdata
pdata	SEGMENT
$pdata$?push_back@?$ImVector@PEAUImFont@@@@QEAAXAEBQEAUImFont@@@Z DD imagerel $LN4
	DD	imagerel $LN4+126
	DD	imagerel $unwind$?push_back@?$ImVector@PEAUImFont@@@@QEAAXAEBQEAUImFont@@@Z
pdata	ENDS
;	COMDAT pdata
pdata	SEGMENT
$pdata$??1?$ImVector@UCustomRect@ImFontAtlas@@@@QEAA@XZ DD imagerel $LN4
	DD	imagerel $LN4+41
	DD	imagerel $unwind$??1?$ImVector@UCustomRect@ImFontAtlas@@@@QEAA@XZ
pdata	ENDS
;	COMDAT pdata
pdata	SEGMENT
$pdata$?clear@?$ImVector@UCustomRect@ImFontAtlas@@@@QEAAXXZ DD imagerel $LN4
	DD	imagerel $LN4+76
	DD	imagerel $unwind$?clear@?$ImVector@UCustomRect@ImFontAtlas@@@@QEAAXXZ
pdata	ENDS
;	COMDAT pdata
pdata	SEGMENT
$pdata$?_grow_capacity@?$ImVector@UCustomRect@ImFontAtlas@@@@QEBAHH@Z DD imagerel $LN7
	DD	imagerel $LN7+101
	DD	imagerel $unwind$?_grow_capacity@?$ImVector@UCustomRect@ImFontAtlas@@@@QEBAHH@Z
pdata	ENDS
;	COMDAT pdata
pdata	SEGMENT
$pdata$?reserve@?$ImVector@UCustomRect@ImFontAtlas@@@@QEAAXH@Z DD imagerel $LN5
	DD	imagerel $LN5+143
	DD	imagerel $unwind$?reserve@?$ImVector@UCustomRect@ImFontAtlas@@@@QEAAXH@Z
pdata	ENDS
;	COMDAT pdata
pdata	SEGMENT
$pdata$?push_back@?$ImVector@UCustomRect@ImFontAtlas@@@@QEAAXAEBUCustomRect@ImFontAtlas@@@Z DD imagerel $LN4
	DD	imagerel $LN4+126
	DD	imagerel $unwind$?push_back@?$ImVector@UCustomRect@ImFontAtlas@@@@QEAAXAEBUCustomRect@ImFontAtlas@@@Z
pdata	ENDS
;	COMDAT pdata
pdata	SEGMENT
$pdata$??1?$ImVector@UImFontConfig@@@@QEAA@XZ DD imagerel $LN4
	DD	imagerel $LN4+41
	DD	imagerel $unwind$??1?$ImVector@UImFontConfig@@@@QEAA@XZ
pdata	ENDS
;	COMDAT pdata
pdata	SEGMENT
$pdata$?clear@?$ImVector@UImFontConfig@@@@QEAAXXZ DD imagerel $LN4
	DD	imagerel $LN4+76
	DD	imagerel $unwind$?clear@?$ImVector@UImFontConfig@@@@QEAAXXZ
pdata	ENDS
;	COMDAT pdata
pdata	SEGMENT
$pdata$?_grow_capacity@?$ImVector@UImFontConfig@@@@QEBAHH@Z DD imagerel $LN7
	DD	imagerel $LN7+101
	DD	imagerel $unwind$?_grow_capacity@?$ImVector@UImFontConfig@@@@QEBAHH@Z
pdata	ENDS
;	COMDAT pdata
pdata	SEGMENT
$pdata$?reserve@?$ImVector@UImFontConfig@@@@QEAAXH@Z DD imagerel $LN5
	DD	imagerel $LN5+149
	DD	imagerel $unwind$?reserve@?$ImVector@UImFontConfig@@@@QEAAXH@Z
pdata	ENDS
;	COMDAT pdata
pdata	SEGMENT
$pdata$?push_back@?$ImVector@UImFontConfig@@@@QEAAXAEBUImFontConfig@@@Z DD imagerel $LN4
	DD	imagerel $LN4+129
	DD	imagerel $unwind$?push_back@?$ImVector@UImFontConfig@@@@QEAAXAEBUImFontConfig@@@Z
pdata	ENDS
;	COMDAT pdata
pdata	SEGMENT
$pdata$??1?$ImVector@M@@QEAA@XZ DD imagerel $LN4
	DD	imagerel $LN4+41
	DD	imagerel $unwind$??1?$ImVector@M@@QEAA@XZ
pdata	ENDS
;	COMDAT pdata
pdata	SEGMENT
$pdata$?clear@?$ImVector@M@@QEAAXXZ DD imagerel $LN4
	DD	imagerel $LN4+76
	DD	imagerel $unwind$?clear@?$ImVector@M@@QEAAXXZ
pdata	ENDS
;	COMDAT pdata
pdata	SEGMENT
$pdata$?_grow_capacity@?$ImVector@M@@QEBAHH@Z DD imagerel $LN7
	DD	imagerel $LN7+101
	DD	imagerel $unwind$?_grow_capacity@?$ImVector@M@@QEBAHH@Z
pdata	ENDS
;	COMDAT pdata
pdata	SEGMENT
$pdata$?resize@?$ImVector@M@@QEAAXHAEBM@Z DD imagerel $LN8
	DD	imagerel $LN8+161
	DD	imagerel $unwind$?resize@?$ImVector@M@@QEAAXHAEBM@Z
pdata	ENDS
;	COMDAT pdata
pdata	SEGMENT
$pdata$?reserve@?$ImVector@M@@QEAAXH@Z DD imagerel $LN5
	DD	imagerel $LN5+143
	DD	imagerel $unwind$?reserve@?$ImVector@M@@QEAAXH@Z
pdata	ENDS
;	COMDAT pdata
pdata	SEGMENT
$pdata$??1?$ImVector@UImFontGlyph@@@@QEAA@XZ DD imagerel $LN4
	DD	imagerel $LN4+41
	DD	imagerel $unwind$??1?$ImVector@UImFontGlyph@@@@QEAA@XZ
pdata	ENDS
;	COMDAT pdata
pdata	SEGMENT
$pdata$?clear@?$ImVector@UImFontGlyph@@@@QEAAXXZ DD imagerel $LN4
	DD	imagerel $LN4+76
	DD	imagerel $unwind$?clear@?$ImVector@UImFontGlyph@@@@QEAAXXZ
pdata	ENDS
;	COMDAT pdata
pdata	SEGMENT
$pdata$?_grow_capacity@?$ImVector@UImFontGlyph@@@@QEBAHH@Z DD imagerel $LN7
	DD	imagerel $LN7+101
	DD	imagerel $unwind$?_grow_capacity@?$ImVector@UImFontGlyph@@@@QEBAHH@Z
pdata	ENDS
;	COMDAT pdata
pdata	SEGMENT
$pdata$?resize@?$ImVector@UImFontGlyph@@@@QEAAXH@Z DD imagerel $LN4
	DD	imagerel $LN4+70
	DD	imagerel $unwind$?resize@?$ImVector@UImFontGlyph@@@@QEAAXH@Z
pdata	ENDS
;	COMDAT pdata
pdata	SEGMENT
$pdata$?reserve@?$ImVector@UImFontGlyph@@@@QEAAXH@Z DD imagerel $LN5
	DD	imagerel $LN5+143
	DD	imagerel $unwind$?reserve@?$ImVector@UImFontGlyph@@@@QEAAXH@Z
pdata	ENDS
pdata	SEGMENT
$pdata$??0ImFont@@QEAA@XZ DD imagerel $LN6
	DD	imagerel $LN6+269
	DD	imagerel $unwind$??0ImFont@@QEAA@XZ
pdata	ENDS
pdata	SEGMENT
$pdata$?dtor$0@?0???0ImFont@@QEAA@XZ@4HA DD imagerel ?dtor$0@?0???0ImFont@@QEAA@XZ@4HA
	DD	imagerel ?dtor$0@?0???0ImFont@@QEAA@XZ@4HA+24
	DD	imagerel $unwind$?dtor$0@?0???0ImFont@@QEAA@XZ@4HA
$pdata$?dtor$1@?0???0ImFont@@QEAA@XZ@4HA DD imagerel ?dtor$1@?0???0ImFont@@QEAA@XZ@4HA
	DD	imagerel ?dtor$1@?0???0ImFont@@QEAA@XZ@4HA+28
	DD	imagerel $unwind$?dtor$1@?0???0ImFont@@QEAA@XZ@4HA
$pdata$?dtor$2@?0???0ImFont@@QEAA@XZ@4HA DD imagerel ?dtor$2@?0???0ImFont@@QEAA@XZ@4HA
	DD	imagerel ?dtor$2@?0???0ImFont@@QEAA@XZ@4HA+28
	DD	imagerel $unwind$?dtor$2@?0???0ImFont@@QEAA@XZ@4HA
pdata	ENDS
pdata	SEGMENT
$pdata$??1ImFont@@QEAA@XZ DD imagerel $LN6
	DD	imagerel $LN6+75
	DD	imagerel $unwind$??1ImFont@@QEAA@XZ
pdata	ENDS
pdata	SEGMENT
$pdata$?dtor$0@?0???1ImFont@@QEAA@XZ@4HA DD imagerel ?dtor$0@?0???1ImFont@@QEAA@XZ@4HA
	DD	imagerel ?dtor$0@?0???1ImFont@@QEAA@XZ@4HA+24
	DD	imagerel $unwind$?dtor$0@?0???1ImFont@@QEAA@XZ@4HA
$pdata$?dtor$1@?0???1ImFont@@QEAA@XZ@4HA DD imagerel ?dtor$1@?0???1ImFont@@QEAA@XZ@4HA
	DD	imagerel ?dtor$1@?0???1ImFont@@QEAA@XZ@4HA+28
	DD	imagerel $unwind$?dtor$1@?0???1ImFont@@QEAA@XZ@4HA
$pdata$?dtor$2@?0???1ImFont@@QEAA@XZ@4HA DD imagerel ?dtor$2@?0???1ImFont@@QEAA@XZ@4HA
	DD	imagerel ?dtor$2@?0???1ImFont@@QEAA@XZ@4HA+28
	DD	imagerel $unwind$?dtor$2@?0???1ImFont@@QEAA@XZ@4HA
pdata	ENDS
pdata	SEGMENT
$pdata$?FindGlyph@ImFont@@QEBAPEBUImFontGlyph@@G@Z DD imagerel $LN5
	DD	imagerel $LN5+106
	DD	imagerel $unwind$?FindGlyph@ImFont@@QEBAPEBUImFontGlyph@@G@Z
$pdata$?FindGlyphNoFallback@ImFont@@QEBAPEBUImFontGlyph@@G@Z DD imagerel $LN5
	DD	imagerel $LN5+92
	DD	imagerel $unwind$?FindGlyphNoFallback@ImFont@@QEBAPEBUImFontGlyph@@G@Z
$pdata$?CalcTextSizeA@ImFont@@QEBA?AUImVec2@@MMMPEBD0PEAPEBD@Z DD imagerel $LN35
	DD	imagerel $LN35+953
	DD	imagerel $unwind$?CalcTextSizeA@ImFont@@QEBA?AUImVec2@@MMMPEBD0PEAPEBD@Z
$pdata$?CalcWordWrapPositionA@ImFont@@QEBAPEBDMPEBD0M@Z DD imagerel $LN26
	DD	imagerel $LN26+758
	DD	imagerel $unwind$?CalcWordWrapPositionA@ImFont@@QEBAPEBDMPEBD0M@Z
$pdata$?RenderChar@ImFont@@QEBAXPEAUImDrawList@@MUImVec2@@IG@Z DD imagerel $LN8
	DD	imagerel $LN8+587
	DD	imagerel $unwind$?RenderChar@ImFont@@QEBAXPEAUImDrawList@@MUImVec2@@IG@Z
$pdata$?RenderText@ImFont@@QEBAXPEAUImDrawList@@MUImVec2@@IAEBUImVec4@@PEBD3M_N@Z DD imagerel $LN50
	DD	imagerel $LN50+3493
	DD	imagerel $unwind$?RenderText@ImFont@@QEBAXPEAUImDrawList@@MUImVec2@@IAEBUImVec4@@PEBD3M_N@Z
$pdata$?BuildLookupTable@ImFont@@QEAAXXZ DD imagerel $LN17
	DD	imagerel $LN17+970
	DD	imagerel $unwind$?BuildLookupTable@ImFont@@QEAAXXZ
$pdata$?ClearOutputData@ImFont@@QEAAXXZ DD imagerel $LN3
	DD	imagerel $LN3+160
	DD	imagerel $unwind$?ClearOutputData@ImFont@@QEAAXXZ
$pdata$?GrowIndex@ImFont@@QEAAXH@Z DD imagerel $LN4
	DD	imagerel $LN4+122
	DD	imagerel $unwind$?GrowIndex@ImFont@@QEAAXH@Z
$pdata$?AddGlyph@ImFont@@QEAAXGMMMMMMMMM@Z DD imagerel $LN4
	DD	imagerel $LN4+448
	DD	imagerel $unwind$?AddGlyph@ImFont@@QEAAXGMMMMMMMMM@Z
$pdata$?AddRemapChar@ImFont@@QEAAXGG_N@Z DD imagerel $LN9
	DD	imagerel $LN9+312
	DD	imagerel $unwind$?AddRemapChar@ImFont@@QEAAXGG_N@Z
$pdata$?SetFallbackChar@ImFont@@QEAAXG@Z DD imagerel $LN3
	DD	imagerel $LN3+44
	DD	imagerel $unwind$?SetFallbackChar@ImFont@@QEAAXG@Z
pdata	ENDS
;	COMDAT pdata
pdata	SEGMENT
$pdata$??_GImFont@@QEAAPEAXI@Z DD imagerel $LN4
	DD	imagerel $LN4+60
	DD	imagerel $unwind$??_GImFont@@QEAAPEAXI@Z
pdata	ENDS
pdata	SEGMENT
$pdata$?ImCharIsBlankA@@YA_ND@Z DD imagerel ?ImCharIsBlankA@@YA_ND@Z
	DD	imagerel ?ImCharIsBlankA@@YA_ND@Z+53
	DD	imagerel $unwind$?ImCharIsBlankA@@YA_ND@Z
$pdata$?ImCharIsBlankW@@YA_NI@Z DD imagerel ?ImCharIsBlankW@@YA_NI@Z
	DD	imagerel ?ImCharIsBlankW@@YA_NI@Z+57
	DD	imagerel $unwind$?ImCharIsBlankW@@YA_NI@Z
$pdata$??D@YA?AUImVec2@@AEBU0@M@Z DD imagerel ??D@YA?AUImVec2@@AEBU0@M@Z
	DD	imagerel ??D@YA?AUImVec2@@AEBU0@M@Z+74
	DD	imagerel $unwind$??D@YA?AUImVec2@@AEBU0@M@Z
$pdata$??H@YA?AUImVec2@@AEBU0@0@Z DD imagerel ??H@YA?AUImVec2@@AEBU0@0@Z
	DD	imagerel ??H@YA?AUImVec2@@AEBU0@0@Z+80
	DD	imagerel $unwind$??H@YA?AUImVec2@@AEBU0@0@Z
$pdata$??G@YA?AUImVec2@@AEBU0@0@Z DD imagerel ??G@YA?AUImVec2@@AEBU0@0@Z
	DD	imagerel ??G@YA?AUImVec2@@AEBU0@0@Z+80
	DD	imagerel $unwind$??G@YA?AUImVec2@@AEBU0@0@Z
$pdata$??D@YA?AUImVec2@@AEBU0@0@Z DD imagerel ??D@YA?AUImVec2@@AEBU0@0@Z
	DD	imagerel ??D@YA?AUImVec2@@AEBU0@0@Z+80
	DD	imagerel $unwind$??D@YA?AUImVec2@@AEBU0@0@Z
$pdata$?ImFabs@@YAMM@Z DD imagerel ?ImFabs@@YAMM@Z
	DD	imagerel ?ImFabs@@YAMM@Z+26
	DD	imagerel $unwind$?ImFabs@@YAMM@Z
$pdata$?ImSqrt@@YAMM@Z DD imagerel ?ImSqrt@@YAMM@Z
	DD	imagerel ?ImSqrt@@YAMM@Z+26
	DD	imagerel $unwind$?ImSqrt@@YAMM@Z
$pdata$?ImCos@@YAMM@Z DD imagerel ?ImCos@@YAMM@Z
	DD	imagerel ?ImCos@@YAMM@Z+26
	DD	imagerel $unwind$?ImCos@@YAMM@Z
$pdata$?ImSin@@YAMM@Z DD imagerel ?ImSin@@YAMM@Z
	DD	imagerel ?ImSin@@YAMM@Z+26
	DD	imagerel $unwind$?ImSin@@YAMM@Z
$pdata$?ImAcos@@YAMM@Z DD imagerel ?ImAcos@@YAMM@Z
	DD	imagerel ?ImAcos@@YAMM@Z+26
	DD	imagerel $unwind$?ImAcos@@YAMM@Z
$pdata$?ImFloorStd@@YAMM@Z DD imagerel ?ImFloorStd@@YAMM@Z
	DD	imagerel ?ImFloorStd@@YAMM@Z+26
	DD	imagerel $unwind$?ImFloorStd@@YAMM@Z
$pdata$?ImCeil@@YAMM@Z DD imagerel ?ImCeil@@YAMM@Z
	DD	imagerel ?ImCeil@@YAMM@Z+26
	DD	imagerel $unwind$?ImCeil@@YAMM@Z
$pdata$?ImMin@@YA?AUImVec2@@AEBU1@0@Z DD imagerel ?ImMin@@YA?AUImVec2@@AEBU1@0@Z
	DD	imagerel ?ImMin@@YA?AUImVec2@@AEBU1@0@Z+157
	DD	imagerel $unwind$?ImMin@@YA?AUImVec2@@AEBU1@0@Z
$pdata$?ImMax@@YA?AUImVec2@@AEBU1@0@Z DD imagerel ?ImMax@@YA?AUImVec2@@AEBU1@0@Z
	DD	imagerel ?ImMax@@YA?AUImVec2@@AEBU1@0@Z+157
	DD	imagerel $unwind$?ImMax@@YA?AUImVec2@@AEBU1@0@Z
$pdata$?ImClamp@@YA?AUImVec2@@AEBU1@0U1@@Z DD imagerel ?ImClamp@@YA?AUImVec2@@AEBU1@0U1@@Z
	DD	imagerel ?ImClamp@@YA?AUImVec2@@AEBU1@0U1@@Z+247
	DD	imagerel $unwind$?ImClamp@@YA?AUImVec2@@AEBU1@0U1@@Z
$pdata$?ImLerp@@YA?AUImVec4@@AEBU1@0M@Z DD imagerel ?ImLerp@@YA?AUImVec4@@AEBU1@0M@Z
	DD	imagerel ?ImLerp@@YA?AUImVec4@@AEBU1@0M@Z+238
	DD	imagerel $unwind$?ImLerp@@YA?AUImVec4@@AEBU1@0M@Z
$pdata$??$ImMin@M@@YAMMM@Z DD imagerel ??$ImMin@M@@YAMMM@Z
	DD	imagerel ??$ImMin@M@@YAMMM@Z+63
	DD	imagerel $unwind$??$ImMin@M@@YAMMM@Z
$pdata$??$ImMax@M@@YAMMM@Z DD imagerel ??$ImMax@M@@YAMMM@Z
	DD	imagerel ??$ImMax@M@@YAMMM@Z+63
	DD	imagerel $unwind$??$ImMax@M@@YAMMM@Z
$pdata$?ImMul@@YA?AUImVec2@@AEBU1@0@Z DD imagerel ?ImMul@@YA?AUImVec2@@AEBU1@0@Z
	DD	imagerel ?ImMul@@YA?AUImVec2@@AEBU1@0@Z+80
	DD	imagerel $unwind$?ImMul@@YA?AUImVec2@@AEBU1@0@Z
pdata	ENDS
;	COMDAT pdata
pdata	SEGMENT
$pdata$?Resize@ImBoolVector@@QEAAXH@Z DD imagerel $LN3
	DD	imagerel $LN3+82
	DD	imagerel $unwind$?Resize@ImBoolVector@@QEAAXH@Z
pdata	ENDS
;	COMDAT pdata
pdata	SEGMENT
$pdata$?Clear@ImBoolVector@@QEAAXXZ DD imagerel $LN3
	DD	imagerel $LN3+28
	DD	imagerel $unwind$?Clear@ImBoolVector@@QEAAXXZ
pdata	ENDS
;	COMDAT pdata
pdata	SEGMENT
$pdata$?GetBit@ImBoolVector@@QEBA_NH@Z DD imagerel $LN5
	DD	imagerel $LN5+117
	DD	imagerel $unwind$?GetBit@ImBoolVector@@QEBA_NH@Z
pdata	ENDS
;	COMDAT pdata
pdata	SEGMENT
$pdata$?SetBit@ImBoolVector@@QEAAXH_N@Z DD imagerel $LN5
	DD	imagerel $LN5+176
	DD	imagerel $unwind$?SetBit@ImBoolVector@@QEAAXH_N@Z
pdata	ENDS
;	COMDAT pdata
pdata	SEGMENT
$pdata$??1ImBoolVector@@QEAA@XZ DD imagerel $LN4
	DD	imagerel $LN4+28
	DD	imagerel $unwind$??1ImBoolVector@@QEAA@XZ
pdata	ENDS
;	COMDAT pdata
pdata	SEGMENT
$pdata$?dtor$0@?0???1ImBoolVector@@QEAA@XZ@4HA DD imagerel ?dtor$0@?0???1ImBoolVector@@QEAA@XZ@4HA
	DD	imagerel ?dtor$0@?0???1ImBoolVector@@QEAA@XZ@4HA+24
	DD	imagerel $unwind$?dtor$0@?0???1ImBoolVector@@QEAA@XZ@4HA
pdata	ENDS
pdata	SEGMENT
$pdata$??0ImDrawListSharedData@@QEAA@XZ DD imagerel $LN6
	DD	imagerel $LN6+363
	DD	imagerel $unwind$??0ImDrawListSharedData@@QEAA@XZ
$pdata$?RenderMouseCursor@ImGui@@YAXPEAUImDrawList@@UImVec2@@MH@Z DD imagerel $LN5
	DD	imagerel $LN5+1293
	DD	imagerel $unwind$?RenderMouseCursor@ImGui@@YAXPEAUImDrawList@@UImVec2@@MH@Z
$pdata$?RenderArrowPointingAt@ImGui@@YAXPEAUImDrawList@@UImVec2@@1HI@Z DD imagerel $LN11
	DD	imagerel $LN11+731
	DD	imagerel $unwind$?RenderArrowPointingAt@ImGui@@YAXPEAUImDrawList@@UImVec2@@1HI@Z
$pdata$?RenderRectFilledRangeH@ImGui@@YAXPEAUImDrawList@@AEBUImRect@@IMMM@Z DD imagerel $LN15
	DD	imagerel $LN15+1962
	DD	imagerel $unwind$?RenderRectFilledRangeH@ImGui@@YAXPEAUImDrawList@@AEBUImRect@@IMMM@Z
$pdata$?RenderPixelEllipsis@ImGui@@YAXPEAUImDrawList@@UImVec2@@HI@Z DD imagerel $LN6
	DD	imagerel $LN6+359
	DD	imagerel $unwind$?RenderPixelEllipsis@ImGui@@YAXPEAUImDrawList@@UImVec2@@HI@Z
$pdata$?ShadeVertsLinearColorGradientKeepAlpha@ImGui@@YAXPEAUImDrawList@@HHUImVec2@@1II@Z DD imagerel $LN6
	DD	imagerel $LN6+455
	DD	imagerel $unwind$?ShadeVertsLinearColorGradientKeepAlpha@ImGui@@YAXPEAUImDrawList@@HHUImVec2@@1II@Z
$pdata$?ShadeVertsLinearUV@ImGui@@YAXPEAUImDrawList@@HHAEBUImVec2@@111_N@Z DD imagerel $LN17
	DD	imagerel $LN17+691
	DD	imagerel $unwind$?ShadeVertsLinearUV@ImGui@@YAXPEAUImDrawList@@HHAEBUImVec2@@111_N@Z
$pdata$?ImFontAtlasBuildWithStbTruetype@@YA_NPEAUImFontAtlas@@@Z DD imagerel $LN94
	DD	imagerel $LN94+6183
	DD	imagerel $unwind$?ImFontAtlasBuildWithStbTruetype@@YA_NPEAUImFontAtlas@@@Z
pdata	ENDS
pdata	SEGMENT
$pdata$?dtor$0@?0??ImFontAtlasBuildWithStbTruetype@@YA_NPEAUImFontAtlas@@@Z@4HA DD imagerel ?dtor$0@?0??ImFontAtlasBuildWithStbTruetype@@YA_NPEAUImFontAtlas@@@Z@4HA
	DD	imagerel ?dtor$0@?0??ImFontAtlasBuildWithStbTruetype@@YA_NPEAUImFontAtlas@@@Z@4HA+27
	DD	imagerel $unwind$?dtor$0@?0??ImFontAtlasBuildWithStbTruetype@@YA_NPEAUImFontAtlas@@@Z@4HA
$pdata$?dtor$1@?0??ImFontAtlasBuildWithStbTruetype@@YA_NPEAUImFontAtlas@@@Z@4HA DD imagerel ?dtor$1@?0??ImFontAtlasBuildWithStbTruetype@@YA_NPEAUImFontAtlas@@@Z@4HA
	DD	imagerel ?dtor$1@?0??ImFontAtlasBuildWithStbTruetype@@YA_NPEAUImFontAtlas@@@Z@4HA+27
	DD	imagerel $unwind$?dtor$1@?0??ImFontAtlasBuildWithStbTruetype@@YA_NPEAUImFontAtlas@@@Z@4HA
$pdata$?dtor$2@?0??ImFontAtlasBuildWithStbTruetype@@YA_NPEAUImFontAtlas@@@Z@4HA DD imagerel ?dtor$2@?0??ImFontAtlasBuildWithStbTruetype@@YA_NPEAUImFontAtlas@@@Z@4HA
	DD	imagerel ?dtor$2@?0??ImFontAtlasBuildWithStbTruetype@@YA_NPEAUImFontAtlas@@@Z@4HA+27
	DD	imagerel $unwind$?dtor$2@?0??ImFontAtlasBuildWithStbTruetype@@YA_NPEAUImFontAtlas@@@Z@4HA
$pdata$?dtor$3@?0??ImFontAtlasBuildWithStbTruetype@@YA_NPEAUImFontAtlas@@@Z@4HA DD imagerel ?dtor$3@?0??ImFontAtlasBuildWithStbTruetype@@YA_NPEAUImFontAtlas@@@Z@4HA
	DD	imagerel ?dtor$3@?0??ImFontAtlasBuildWithStbTruetype@@YA_NPEAUImFontAtlas@@@Z@4HA+27
	DD	imagerel $unwind$?dtor$3@?0??ImFontAtlasBuildWithStbTruetype@@YA_NPEAUImFontAtlas@@@Z@4HA
pdata	ENDS
pdata	SEGMENT
$pdata$?ImFontAtlasBuildRegisterDefaultCustomRects@@YAXPEAUImFontAtlas@@@Z DD imagerel $LN6
	DD	imagerel $LN6+144
	DD	imagerel $unwind$?ImFontAtlasBuildRegisterDefaultCustomRects@@YAXPEAUImFontAtlas@@@Z
$pdata$?ImFontAtlasBuildSetupFont@@YAXPEAUImFontAtlas@@PEAUImFont@@PEAUImFontConfig@@MM@Z DD imagerel $LN4
	DD	imagerel $LN4+154
	DD	imagerel $unwind$?ImFontAtlasBuildSetupFont@@YAXPEAUImFontAtlas@@PEAUImFont@@PEAUImFontConfig@@MM@Z
$pdata$?ImFontAtlasBuildPackCustomRects@@YAXPEAUImFontAtlas@@PEAX@Z DD imagerel $LN11
	DD	imagerel $LN11+507
	DD	imagerel $unwind$?ImFontAtlasBuildPackCustomRects@@YAXPEAUImFontAtlas@@PEAX@Z
pdata	ENDS
pdata	SEGMENT
$pdata$?dtor$0@?0??ImFontAtlasBuildPackCustomRects@@YAXPEAUImFontAtlas@@PEAX@Z@4HA DD imagerel ?dtor$0@?0??ImFontAtlasBuildPackCustomRects@@YAXPEAUImFontAtlas@@PEAX@Z@4HA
	DD	imagerel ?dtor$0@?0??ImFontAtlasBuildPackCustomRects@@YAXPEAUImFontAtlas@@PEAX@Z@4HA+24
	DD	imagerel $unwind$?dtor$0@?0??ImFontAtlasBuildPackCustomRects@@YAXPEAUImFontAtlas@@PEAX@Z@4HA
pdata	ENDS
pdata	SEGMENT
$pdata$?ImFontAtlasBuildFinish@@YAXPEAUImFontAtlas@@@Z DD imagerel $LN12
	DD	imagerel $LN12+527
	DD	imagerel $unwind$?ImFontAtlasBuildFinish@@YAXPEAUImFontAtlas@@@Z
$pdata$?ImFontAtlasBuildMultiplyCalcLookupTable@@YAXQEAEM@Z DD imagerel $LN8
	DD	imagerel $LN8+120
	DD	imagerel $unwind$?ImFontAtlasBuildMultiplyCalcLookupTable@@YAXQEAEM@Z
$pdata$?ImFontAtlasBuildMultiplyRectAlpha8@@YAXQEBEPEAEHHHHH@Z DD imagerel $LN9
	DD	imagerel $LN9+178
	DD	imagerel $unwind$?ImFontAtlasBuildMultiplyRectAlpha8@@YAXQEBEPEAEHHHHH@Z
$pdata$stbrp_pack_rects DD imagerel stbrp_pack_rects
	DD	imagerel stbrp_pack_rects+644
	DD	imagerel $unwind$stbrp_pack_rects
$pdata$stbrp_init_target DD imagerel stbrp_init_target
	DD	imagerel stbrp_init_target+406
	DD	imagerel $unwind$stbrp_init_target
$pdata$?stbrp__skyline_find_min_y@@YAHPEAUstbrp_context@@PEAUstbrp_node@@HHPEAH@Z DD imagerel ?stbrp__skyline_find_min_y@@YAHPEAUstbrp_context@@PEAUstbrp_node@@HHPEAH@Z
	DD	imagerel ?stbrp__skyline_find_min_y@@YAHPEAUstbrp_context@@PEAUstbrp_node@@HHPEAH@Z+377
	DD	imagerel $unwind$?stbrp__skyline_find_min_y@@YAHPEAUstbrp_context@@PEAUstbrp_node@@HHPEAH@Z
$pdata$?stbrp__skyline_find_best_pos@@YA?AUstbrp__findresult@@PEAUstbrp_context@@HH@Z DD imagerel ?stbrp__skyline_find_best_pos@@YA?AUstbrp__findresult@@PEAUstbrp_context@@HH@Z
	DD	imagerel ?stbrp__skyline_find_best_pos@@YA?AUstbrp__findresult@@PEAUstbrp_context@@HH@Z+867
	DD	imagerel $unwind$?stbrp__skyline_find_best_pos@@YA?AUstbrp__findresult@@PEAUstbrp_context@@HH@Z
$pdata$?stbrp__skyline_pack_rectangle@@YA?AUstbrp__findresult@@PEAUstbrp_context@@HH@Z DD imagerel ?stbrp__skyline_pack_rectangle@@YA?AUstbrp__findresult@@PEAUstbrp_context@@HH@Z
	DD	imagerel ?stbrp__skyline_pack_rectangle@@YA?AUstbrp__findresult@@PEAUstbrp_context@@HH@Z+538
	DD	imagerel $unwind$?stbrp__skyline_pack_rectangle@@YA?AUstbrp__findresult@@PEAUstbrp_context@@HH@Z
$pdata$?rect_height_compare@@YAHPEBX0@Z DD imagerel ?rect_height_compare@@YAHPEBX0@Z
	DD	imagerel ?rect_height_compare@@YAHPEBX0@Z+178
	DD	imagerel $unwind$?rect_height_compare@@YAHPEBX0@Z
$pdata$?rect_original_order@@YAHPEBX0@Z DD imagerel ?rect_original_order@@YAHPEBX0@Z
	DD	imagerel ?rect_original_order@@YAHPEBX0@Z+112
	DD	imagerel $unwind$?rect_original_order@@YAHPEBX0@Z
$pdata$stbtt_PackBegin DD imagerel stbtt_PackBegin
	DD	imagerel stbtt_PackBegin+421
	DD	imagerel $unwind$stbtt_PackBegin
$pdata$stbtt_PackEnd DD imagerel stbtt_PackEnd
	DD	imagerel stbtt_PackEnd+43
	DD	imagerel $unwind$stbtt_PackEnd
$pdata$stbtt_GetPackedQuad DD imagerel stbtt_GetPackedQuad
	DD	imagerel stbtt_GetPackedQuad+612
	DD	imagerel $unwind$stbtt_GetPackedQuad
$pdata$stbtt_PackFontRangesRenderIntoRects DD imagerel stbtt_PackFontRangesRenderIntoRects
	DD	imagerel stbtt_PackFontRangesRenderIntoRects+1948
	DD	imagerel $unwind$stbtt_PackFontRangesRenderIntoRects
$pdata$stbtt_GetFontOffsetForIndex DD imagerel stbtt_GetFontOffsetForIndex
	DD	imagerel stbtt_GetFontOffsetForIndex+32
	DD	imagerel $unwind$stbtt_GetFontOffsetForIndex
$pdata$stbtt_InitFont DD imagerel stbtt_InitFont
	DD	imagerel stbtt_InitFont+44
	DD	imagerel $unwind$stbtt_InitFont
$pdata$stbtt_FindGlyphIndex DD imagerel stbtt_FindGlyphIndex
	DD	imagerel stbtt_FindGlyphIndex+1417
	DD	imagerel $unwind$stbtt_FindGlyphIndex
$pdata$stbtt_ScaleForPixelHeight DD imagerel stbtt_ScaleForPixelHeight
	DD	imagerel stbtt_ScaleForPixelHeight+116
	DD	imagerel $unwind$stbtt_ScaleForPixelHeight
$pdata$stbtt_ScaleForMappingEmToPixels DD imagerel stbtt_ScaleForMappingEmToPixels
	DD	imagerel stbtt_ScaleForMappingEmToPixels+77
	DD	imagerel $unwind$stbtt_ScaleForMappingEmToPixels
$pdata$stbtt_GetFontVMetrics DD imagerel stbtt_GetFontVMetrics
	DD	imagerel stbtt_GetFontVMetrics+170
	DD	imagerel $unwind$stbtt_GetFontVMetrics
$pdata$stbtt_GetGlyphHMetrics DD imagerel stbtt_GetGlyphHMetrics
	DD	imagerel stbtt_GetGlyphHMetrics+357
	DD	imagerel $unwind$stbtt_GetGlyphHMetrics
$pdata$stbtt_GetGlyphBox DD imagerel stbtt_GetGlyphBox
	DD	imagerel stbtt_GetGlyphBox+298
	DD	imagerel $unwind$stbtt_GetGlyphBox
$pdata$stbtt_GetGlyphShape DD imagerel stbtt_GetGlyphShape
	DD	imagerel stbtt_GetGlyphShape+76
	DD	imagerel $unwind$stbtt_GetGlyphShape
$pdata$stbtt_MakeGlyphBitmapSubpixel DD imagerel stbtt_MakeGlyphBitmapSubpixel
	DD	imagerel stbtt_MakeGlyphBitmapSubpixel+384
	DD	imagerel $unwind$stbtt_MakeGlyphBitmapSubpixel
$pdata$stbtt_GetGlyphBitmapBox DD imagerel stbtt_GetGlyphBitmapBox
	DD	imagerel stbtt_GetGlyphBitmapBox+127
	DD	imagerel $unwind$stbtt_GetGlyphBitmapBox
$pdata$stbtt_GetGlyphBitmapBoxSubpixel DD imagerel stbtt_GetGlyphBitmapBoxSubpixel
	DD	imagerel stbtt_GetGlyphBitmapBoxSubpixel+399
	DD	imagerel $unwind$stbtt_GetGlyphBitmapBoxSubpixel
$pdata$stbtt_Rasterize DD imagerel stbtt_Rasterize
	DD	imagerel stbtt_Rasterize+354
	DD	imagerel $unwind$stbtt_Rasterize
$pdata$?stbtt__buf_get8@@YAEPEAUstbtt__buf@@@Z DD imagerel ?stbtt__buf_get8@@YAEPEAUstbtt__buf@@@Z
	DD	imagerel ?stbtt__buf_get8@@YAEPEAUstbtt__buf@@@Z+82
	DD	imagerel $unwind$?stbtt__buf_get8@@YAEPEAUstbtt__buf@@@Z
$pdata$?stbtt__buf_seek@@YAXPEAUstbtt__buf@@H@Z DD imagerel ?stbtt__buf_seek@@YAXPEAUstbtt__buf@@H@Z
	DD	imagerel ?stbtt__buf_seek@@YAXPEAUstbtt__buf@@H@Z+70
	DD	imagerel $unwind$?stbtt__buf_seek@@YAXPEAUstbtt__buf@@H@Z
$pdata$?stbtt__buf_skip@@YAXPEAUstbtt__buf@@H@Z DD imagerel ?stbtt__buf_skip@@YAXPEAUstbtt__buf@@H@Z
	DD	imagerel ?stbtt__buf_skip@@YAXPEAUstbtt__buf@@H@Z+43
	DD	imagerel $unwind$?stbtt__buf_skip@@YAXPEAUstbtt__buf@@H@Z
$pdata$?stbtt__buf_get@@YAIPEAUstbtt__buf@@H@Z DD imagerel ?stbtt__buf_get@@YAIPEAUstbtt__buf@@H@Z
	DD	imagerel ?stbtt__buf_get@@YAIPEAUstbtt__buf@@H@Z+98
	DD	imagerel $unwind$?stbtt__buf_get@@YAIPEAUstbtt__buf@@H@Z
$pdata$?stbtt__new_buf@@YA?AUstbtt__buf@@PEBX_K@Z DD imagerel ?stbtt__new_buf@@YA?AUstbtt__buf@@PEBX_K@Z
	DD	imagerel ?stbtt__new_buf@@YA?AUstbtt__buf@@PEBX_K@Z+77
	DD	imagerel $unwind$?stbtt__new_buf@@YA?AUstbtt__buf@@PEBX_K@Z
$pdata$?stbtt__buf_range@@YA?AUstbtt__buf@@PEBU1@HH@Z DD imagerel ?stbtt__buf_range@@YA?AUstbtt__buf@@PEBU1@HH@Z
	DD	imagerel ?stbtt__buf_range@@YA?AUstbtt__buf@@PEBU1@HH@Z+192
	DD	imagerel $unwind$?stbtt__buf_range@@YA?AUstbtt__buf@@PEBU1@HH@Z
$pdata$?stbtt__cff_get_index@@YA?AUstbtt__buf@@PEAU1@@Z DD imagerel ?stbtt__cff_get_index@@YA?AUstbtt__buf@@PEAU1@@Z
	DD	imagerel ?stbtt__cff_get_index@@YA?AUstbtt__buf@@PEAU1@@Z+208
	DD	imagerel $unwind$?stbtt__cff_get_index@@YA?AUstbtt__buf@@PEAU1@@Z
$pdata$?stbtt__cff_int@@YAIPEAUstbtt__buf@@@Z DD imagerel ?stbtt__cff_int@@YAIPEAUstbtt__buf@@@Z
	DD	imagerel ?stbtt__cff_int@@YAIPEAUstbtt__buf@@@Z+252
	DD	imagerel $unwind$?stbtt__cff_int@@YAIPEAUstbtt__buf@@@Z
$pdata$?stbtt__cff_skip_operand@@YAXPEAUstbtt__buf@@@Z DD imagerel ?stbtt__cff_skip_operand@@YAXPEAUstbtt__buf@@@Z
	DD	imagerel ?stbtt__cff_skip_operand@@YAXPEAUstbtt__buf@@@Z+130
	DD	imagerel $unwind$?stbtt__cff_skip_operand@@YAXPEAUstbtt__buf@@@Z
$pdata$?stbtt__dict_get@@YA?AUstbtt__buf@@PEAU1@H@Z DD imagerel ?stbtt__dict_get@@YA?AUstbtt__buf@@PEAU1@H@Z
	DD	imagerel ?stbtt__dict_get@@YA?AUstbtt__buf@@PEAU1@H@Z+370
	DD	imagerel $unwind$?stbtt__dict_get@@YA?AUstbtt__buf@@PEAU1@H@Z
$pdata$?stbtt__dict_get_ints@@YAXPEAUstbtt__buf@@HHPEAI@Z DD imagerel ?stbtt__dict_get_ints@@YAXPEAUstbtt__buf@@HHPEAI@Z
	DD	imagerel ?stbtt__dict_get_ints@@YAXPEAUstbtt__buf@@HHPEAI@Z+141
	DD	imagerel $unwind$?stbtt__dict_get_ints@@YAXPEAUstbtt__buf@@HHPEAI@Z
$pdata$?stbtt__cff_index_count@@YAHPEAUstbtt__buf@@@Z DD imagerel ?stbtt__cff_index_count@@YAHPEAUstbtt__buf@@@Z
	DD	imagerel ?stbtt__cff_index_count@@YAHPEAUstbtt__buf@@@Z+41
	DD	imagerel $unwind$?stbtt__cff_index_count@@YAHPEAUstbtt__buf@@@Z
$pdata$?stbtt__cff_index_get@@YA?AUstbtt__buf@@U1@H@Z DD imagerel ?stbtt__cff_index_get@@YA?AUstbtt__buf@@U1@H@Z
	DD	imagerel ?stbtt__cff_index_get@@YA?AUstbtt__buf@@U1@H@Z+231
	DD	imagerel $unwind$?stbtt__cff_index_get@@YA?AUstbtt__buf@@U1@H@Z
$pdata$?stbtt__find_table@@YAIPEAEIPEBD@Z DD imagerel ?stbtt__find_table@@YAIPEAEIPEBD@Z
	DD	imagerel ?stbtt__find_table@@YAIPEAEIPEBD@Z+349
	DD	imagerel $unwind$?stbtt__find_table@@YAIPEAEIPEBD@Z
$pdata$?stbtt_GetFontOffsetForIndex_internal@@YAHPEAEH@Z DD imagerel ?stbtt_GetFontOffsetForIndex_internal@@YAHPEAEH@Z
	DD	imagerel ?stbtt_GetFontOffsetForIndex_internal@@YAHPEAEH@Z+366
	DD	imagerel $unwind$?stbtt_GetFontOffsetForIndex_internal@@YAHPEAEH@Z
$pdata$?stbtt__get_subrs@@YA?AUstbtt__buf@@U1@0@Z DD imagerel ?stbtt__get_subrs@@YA?AUstbtt__buf@@U1@0@Z
	DD	imagerel ?stbtt__get_subrs@@YA?AUstbtt__buf@@U1@0@Z+488
	DD	imagerel $unwind$?stbtt__get_subrs@@YA?AUstbtt__buf@@U1@0@Z
$pdata$?stbtt_InitFont_internal@@YAHPEAUstbtt_fontinfo@@PEAEH@Z DD imagerel ?stbtt_InitFont_internal@@YAHPEAUstbtt_fontinfo@@PEAEH@Z
	DD	imagerel ?stbtt_InitFont_internal@@YAHPEAUstbtt_fontinfo@@PEAEH@Z+2232
	DD	imagerel $unwind$?stbtt_InitFont_internal@@YAHPEAUstbtt_fontinfo@@PEAEH@Z
$pdata$?stbtt__GetGlyfOffset@@YAHPEBUstbtt_fontinfo@@H@Z DD imagerel ?stbtt__GetGlyfOffset@@YAHPEBUstbtt_fontinfo@@H@Z
	DD	imagerel ?stbtt__GetGlyfOffset@@YAHPEBUstbtt_fontinfo@@H@Z+354
	DD	imagerel $unwind$?stbtt__GetGlyfOffset@@YAHPEBUstbtt_fontinfo@@H@Z
$pdata$?stbtt__GetGlyphInfoT2@@YAHPEBUstbtt_fontinfo@@HPEAH111@Z DD imagerel ?stbtt__GetGlyphInfoT2@@YAHPEBUstbtt_fontinfo@@HPEAH111@Z
	DD	imagerel ?stbtt__GetGlyphInfoT2@@YAHPEBUstbtt_fontinfo@@HPEAH111@Z+387
	DD	imagerel $unwind$?stbtt__GetGlyphInfoT2@@YAHPEBUstbtt_fontinfo@@HPEAH111@Z
$pdata$?stbtt__close_shape@@YAHPEAUstbtt_vertex@@HHHHHHHHH@Z DD imagerel ?stbtt__close_shape@@YAHPEAUstbtt_vertex@@HHHHHHHHH@Z
	DD	imagerel ?stbtt__close_shape@@YAHPEAUstbtt_vertex@@HHHHHHHHH@Z+420
	DD	imagerel $unwind$?stbtt__close_shape@@YAHPEAUstbtt_vertex@@HHHHHHHHH@Z
$pdata$?stbtt__GetGlyphShapeTT@@YAHPEBUstbtt_fontinfo@@HPEAPEAUstbtt_vertex@@@Z DD imagerel ?stbtt__GetGlyphShapeTT@@YAHPEBUstbtt_fontinfo@@HPEAPEAUstbtt_vertex@@@Z
	DD	imagerel ?stbtt__GetGlyphShapeTT@@YAHPEBUstbtt_fontinfo@@HPEAPEAUstbtt_vertex@@@Z+5047
	DD	imagerel $unwind$?stbtt__GetGlyphShapeTT@@YAHPEBUstbtt_fontinfo@@HPEAPEAUstbtt_vertex@@@Z
$pdata$?stbtt__csctx_v@@YAXPEAUstbtt__csctx@@EHHHHHH@Z DD imagerel ?stbtt__csctx_v@@YAXPEAUstbtt__csctx@@EHHHHHH@Z
	DD	imagerel ?stbtt__csctx_v@@YAXPEAUstbtt__csctx@@EHHHHHH@Z+252
	DD	imagerel $unwind$?stbtt__csctx_v@@YAXPEAUstbtt__csctx@@EHHHHHH@Z
$pdata$?stbtt__csctx_close_shape@@YAXPEAUstbtt__csctx@@@Z DD imagerel ?stbtt__csctx_close_shape@@YAXPEAUstbtt__csctx@@@Z
	DD	imagerel ?stbtt__csctx_close_shape@@YAXPEAUstbtt__csctx@@@Z+131
	DD	imagerel $unwind$?stbtt__csctx_close_shape@@YAXPEAUstbtt__csctx@@@Z
$pdata$?stbtt__csctx_rmove_to@@YAXPEAUstbtt__csctx@@MM@Z DD imagerel ?stbtt__csctx_rmove_to@@YAXPEAUstbtt__csctx@@MM@Z
	DD	imagerel ?stbtt__csctx_rmove_to@@YAXPEAUstbtt__csctx@@MM@Z+215
	DD	imagerel $unwind$?stbtt__csctx_rmove_to@@YAXPEAUstbtt__csctx@@MM@Z
$pdata$?stbtt__csctx_rline_to@@YAXPEAUstbtt__csctx@@MM@Z DD imagerel ?stbtt__csctx_rline_to@@YAXPEAUstbtt__csctx@@MM@Z
	DD	imagerel ?stbtt__csctx_rline_to@@YAXPEAUstbtt__csctx@@MM@Z+149
	DD	imagerel $unwind$?stbtt__csctx_rline_to@@YAXPEAUstbtt__csctx@@MM@Z
$pdata$?stbtt__csctx_rccurve_to@@YAXPEAUstbtt__csctx@@MMMMMM@Z DD imagerel ?stbtt__csctx_rccurve_to@@YAXPEAUstbtt__csctx@@MMMMMM@Z
	DD	imagerel ?stbtt__csctx_rccurve_to@@YAXPEAUstbtt__csctx@@MMMMMM@Z+245
	DD	imagerel $unwind$?stbtt__csctx_rccurve_to@@YAXPEAUstbtt__csctx@@MMMMMM@Z
$pdata$?stbtt__get_subr@@YA?AUstbtt__buf@@U1@H@Z DD imagerel ?stbtt__get_subr@@YA?AUstbtt__buf@@U1@H@Z
	DD	imagerel ?stbtt__get_subr@@YA?AUstbtt__buf@@U1@H@Z+303
	DD	imagerel $unwind$?stbtt__get_subr@@YA?AUstbtt__buf@@U1@H@Z
$pdata$?stbtt__cid_get_glyph_subrs@@YA?AUstbtt__buf@@PEBUstbtt_fontinfo@@H@Z DD imagerel ?stbtt__cid_get_glyph_subrs@@YA?AUstbtt__buf@@PEBUstbtt_fontinfo@@H@Z
	DD	imagerel ?stbtt__cid_get_glyph_subrs@@YA?AUstbtt__buf@@PEBUstbtt_fontinfo@@H@Z+559
	DD	imagerel $unwind$?stbtt__cid_get_glyph_subrs@@YA?AUstbtt__buf@@PEBUstbtt_fontinfo@@H@Z
$pdata$?stbtt__run_charstring@@YAHPEBUstbtt_fontinfo@@HPEAUstbtt__csctx@@@Z DD imagerel ?stbtt__run_charstring@@YAHPEBUstbtt_fontinfo@@HPEAUstbtt__csctx@@@Z
	DD	imagerel ?stbtt__run_charstring@@YAHPEBUstbtt_fontinfo@@HPEAUstbtt__csctx@@@Z+5184
	DD	imagerel $unwind$?stbtt__run_charstring@@YAHPEBUstbtt_fontinfo@@HPEAUstbtt__csctx@@@Z
$pdata$?stbtt__GetGlyphShapeT2@@YAHPEBUstbtt_fontinfo@@HPEAPEAUstbtt_vertex@@@Z DD imagerel ?stbtt__GetGlyphShapeT2@@YAHPEBUstbtt_fontinfo@@HPEAPEAUstbtt_vertex@@@Z
	DD	imagerel ?stbtt__GetGlyphShapeT2@@YAHPEBUstbtt_fontinfo@@HPEAPEAUstbtt_vertex@@@Z+365
	DD	imagerel $unwind$?stbtt__GetGlyphShapeT2@@YAHPEBUstbtt_fontinfo@@HPEAPEAUstbtt_vertex@@@Z
$pdata$?stbtt__hheap_alloc@@YAPEAXPEAUstbtt__hheap@@_KPEAX@Z DD imagerel ?stbtt__hheap_alloc@@YAPEAXPEAUstbtt__hheap@@_KPEAX@Z
	DD	imagerel ?stbtt__hheap_alloc@@YAPEAXPEAUstbtt__hheap@@_KPEAX@Z+299
	DD	imagerel $unwind$?stbtt__hheap_alloc@@YAPEAXPEAUstbtt__hheap@@_KPEAX@Z
$pdata$?stbtt__hheap_cleanup@@YAXPEAUstbtt__hheap@@PEAX@Z DD imagerel ?stbtt__hheap_cleanup@@YAXPEAUstbtt__hheap@@PEAX@Z
	DD	imagerel ?stbtt__hheap_cleanup@@YAXPEAUstbtt__hheap@@PEAX@Z+75
	DD	imagerel $unwind$?stbtt__hheap_cleanup@@YAXPEAUstbtt__hheap@@PEAX@Z
$pdata$?stbtt__new_active@@YAPEAUstbtt__active_edge@@PEAUstbtt__hheap@@PEAUstbtt__edge@@HMPEAX@Z DD imagerel ?stbtt__new_active@@YAPEAUstbtt__active_edge@@PEAUstbtt__hheap@@PEAUstbtt__edge@@HMPEAX@Z
	DD	imagerel ?stbtt__new_active@@YAPEAUstbtt__active_edge@@PEAUstbtt__hheap@@PEAUstbtt__edge@@HMPEAX@Z+404
	DD	imagerel $unwind$?stbtt__new_active@@YAPEAUstbtt__active_edge@@PEAUstbtt__hheap@@PEAUstbtt__edge@@HMPEAX@Z
$pdata$?stbtt__fill_active_edges_new@@YAXPEAM0HPEAUstbtt__active_edge@@M@Z DD imagerel ?stbtt__fill_active_edges_new@@YAXPEAM0HPEAUstbtt__active_edge@@M@Z
	DD	imagerel ?stbtt__fill_active_edges_new@@YAXPEAM0HPEAUstbtt__active_edge@@M@Z+3564
	DD	imagerel $unwind$?stbtt__fill_active_edges_new@@YAXPEAM0HPEAUstbtt__active_edge@@M@Z
$pdata$?stbtt__rasterize_sorted_edges@@YAXPEAUstbtt__bitmap@@PEAUstbtt__edge@@HHHHPEAX@Z DD imagerel ?stbtt__rasterize_sorted_edges@@YAXPEAUstbtt__bitmap@@PEAUstbtt__edge@@HHHHPEAX@Z
	DD	imagerel ?stbtt__rasterize_sorted_edges@@YAXPEAUstbtt__bitmap@@PEAUstbtt__edge@@HHHHPEAX@Z+1183
	DD	imagerel $unwind$?stbtt__rasterize_sorted_edges@@YAXPEAUstbtt__bitmap@@PEAUstbtt__edge@@HHHHPEAX@Z
$pdata$?stbtt__sort_edges_ins_sort@@YAXPEAUstbtt__edge@@H@Z DD imagerel ?stbtt__sort_edges_ins_sort@@YAXPEAUstbtt__edge@@H@Z
	DD	imagerel ?stbtt__sort_edges_ins_sort@@YAXPEAUstbtt__edge@@H@Z+340
	DD	imagerel $unwind$?stbtt__sort_edges_ins_sort@@YAXPEAUstbtt__edge@@H@Z
$pdata$?stbtt__sort_edges_quicksort@@YAXPEAUstbtt__edge@@H@Z DD imagerel ?stbtt__sort_edges_quicksort@@YAXPEAUstbtt__edge@@H@Z
	DD	imagerel ?stbtt__sort_edges_quicksort@@YAXPEAUstbtt__edge@@H@Z+1114
	DD	imagerel $unwind$?stbtt__sort_edges_quicksort@@YAXPEAUstbtt__edge@@H@Z
$pdata$?stbtt__sort_edges@@YAXPEAUstbtt__edge@@H@Z DD imagerel ?stbtt__sort_edges@@YAXPEAUstbtt__edge@@H@Z
	DD	imagerel ?stbtt__sort_edges@@YAXPEAUstbtt__edge@@H@Z+47
	DD	imagerel $unwind$?stbtt__sort_edges@@YAXPEAUstbtt__edge@@H@Z
$pdata$?stbtt__rasterize@@YAXPEAUstbtt__bitmap@@PEAUstbtt__point@@PEAHHMMMMHHHPEAX@Z DD imagerel ?stbtt__rasterize@@YAXPEAUstbtt__bitmap@@PEAUstbtt__point@@PEAHHMMMMHHHPEAX@Z
	DD	imagerel ?stbtt__rasterize@@YAXPEAUstbtt__bitmap@@PEAUstbtt__point@@PEAHHMMMMHHHPEAX@Z+1003
	DD	imagerel $unwind$?stbtt__rasterize@@YAXPEAUstbtt__bitmap@@PEAUstbtt__point@@PEAHHMMMMHHHPEAX@Z
$pdata$?stbtt__tesselate_curve@@YAHPEAUstbtt__point@@PEAHMMMMMMMH@Z DD imagerel ?stbtt__tesselate_curve@@YAHPEAUstbtt__point@@PEAHMMMMMMMH@Z
	DD	imagerel ?stbtt__tesselate_curve@@YAHPEAUstbtt__point@@PEAHMMMMMMMH@Z+638
	DD	imagerel $unwind$?stbtt__tesselate_curve@@YAHPEAUstbtt__point@@PEAHMMMMMMMH@Z
$pdata$?stbtt__tesselate_cubic@@YAXPEAUstbtt__point@@PEAHMMMMMMMMMH@Z DD imagerel ?stbtt__tesselate_cubic@@YAXPEAUstbtt__point@@PEAHMMMMMMMMMH@Z
	DD	imagerel ?stbtt__tesselate_cubic@@YAXPEAUstbtt__point@@PEAHMMMMMMMMMH@Z+1322
	DD	imagerel $unwind$?stbtt__tesselate_cubic@@YAXPEAUstbtt__point@@PEAHMMMMMMMMMH@Z
$pdata$?stbtt_FlattenCurves@@YAPEAUstbtt__point@@PEAUstbtt_vertex@@HMPEAPEAHPEAHPEAX@Z DD imagerel ?stbtt_FlattenCurves@@YAPEAUstbtt__point@@PEAUstbtt_vertex@@HMPEAPEAHPEAHPEAX@Z
	DD	imagerel ?stbtt_FlattenCurves@@YAPEAUstbtt__point@@PEAUstbtt_vertex@@HMPEAPEAHPEAHPEAX@Z+1481
	DD	imagerel $unwind$?stbtt_FlattenCurves@@YAPEAUstbtt__point@@PEAUstbtt_vertex@@HMPEAPEAHPEAHPEAX@Z
$pdata$?stbtt__h_prefilter@@YAXPEAEHHHI@Z DD imagerel ?stbtt__h_prefilter@@YAXPEAEHHHI@Z
	DD	imagerel ?stbtt__h_prefilter@@YAXPEAEHHHI@Z+1046
	DD	imagerel $unwind$?stbtt__h_prefilter@@YAXPEAEHHHI@Z
$pdata$?stbtt__v_prefilter@@YAXPEAEHHHI@Z DD imagerel ?stbtt__v_prefilter@@YAXPEAEHHHI@Z
	DD	imagerel ?stbtt__v_prefilter@@YAXPEAEHHHI@Z+1160
	DD	imagerel $unwind$?stbtt__v_prefilter@@YAXPEAEHHHI@Z
$pdata$?PathBezierToCasteljau@@YAXPEAU?$ImVector@UImVec2@@@@MMMMMMMMMH@Z DD imagerel ?PathBezierToCasteljau@@YAXPEAU?$ImVector@UImVec2@@@@MMMMMMMMMH@Z
	DD	imagerel ?PathBezierToCasteljau@@YAXPEAU?$ImVector@UImVec2@@@@MMMMMMMMMH@Z+1155
	DD	imagerel $unwind$?PathBezierToCasteljau@@YAXPEAU?$ImVector@UImVec2@@@@MMMMMMMMMH@Z
pdata	ENDS
;	COMDAT pdata
pdata	SEGMENT
$pdata$??$_vsnprintf_s@$0EAA@@@YAHAEAY0EAA@D_KPEBDPEAD@Z DD imagerel $LN3
	DD	imagerel $LN3+65
	DD	imagerel $unwind$??$_vsnprintf_s@$0EAA@@@YAHAEAY0EAA@D_KPEBDPEAD@Z
pdata	ENDS
pdata	SEGMENT
$pdata$??$ImClamp@M@@YAMMMM@Z DD imagerel ??$ImClamp@M@@YAMMMM@Z
	DD	imagerel ??$ImClamp@M@@YAMMMM@Z+108
	DD	imagerel $unwind$??$ImClamp@M@@YAMMMM@Z
pdata	ENDS
;	COMDAT pdata
pdata	SEGMENT
$pdata$??__EFONT_ATLAS_DEFAULT_TEX_CURSOR_DATA@@YAXXZ DD imagerel ??__EFONT_ATLAS_DEFAULT_TEX_CURSOR_DATA@@YAXXZ
	DD	imagerel ??__EFONT_ATLAS_DEFAULT_TEX_CURSOR_DATA@@YAXXZ+632
	DD	imagerel $unwind$??__EFONT_ATLAS_DEFAULT_TEX_CURSOR_DATA@@YAXXZ
pdata	ENDS
;	COMDAT pdata
pdata	SEGMENT
$pdata$??$IM_DELETE@UImFont@@@@YAXPEAUImFont@@@Z DD imagerel $LN4
	DD	imagerel $LN4+45
	DD	imagerel $unwind$??$IM_DELETE@UImFont@@@@YAXPEAUImFont@@@Z
pdata	ENDS
pdata	SEGMENT
$pdata$?stb_decompress@@YAIPEAEPEBEI@Z DD imagerel ?stb_decompress@@YAIPEAEPEBEI@Z
	DD	imagerel ?stb_decompress@@YAIPEAEPEBEI@Z+603
	DD	imagerel $unwind$?stb_decompress@@YAIPEAEPEBEI@Z
$pdata$?Decode85Byte@@YAID@Z DD imagerel ?Decode85Byte@@YAID@Z
	DD	imagerel ?Decode85Byte@@YAID@Z+50
	DD	imagerel $unwind$?Decode85Byte@@YAID@Z
$pdata$?Decode85@@YAXPEBEPEAE@Z DD imagerel ?Decode85@@YAXPEBEPEAE@Z
	DD	imagerel ?Decode85@@YAXPEBEPEAE@Z+360
	DD	imagerel $unwind$?Decode85@@YAXPEBEPEAE@Z
pdata	ENDS
;	COMDAT pdata
pdata	SEGMENT
$pdata$??1ImFontBuildSrcData@@QEAA@XZ DD imagerel $LN5
	DD	imagerel $LN5+54
	DD	imagerel $unwind$??1ImFontBuildSrcData@@QEAA@XZ
pdata	ENDS
;	COMDAT pdata
pdata	SEGMENT
$pdata$?dtor$0@?0???1ImFontBuildSrcData@@QEAA@XZ@4HA DD imagerel ?dtor$0@?0???1ImFontBuildSrcData@@QEAA@XZ@4HA
	DD	imagerel ?dtor$0@?0???1ImFontBuildSrcData@@QEAA@XZ@4HA+31
	DD	imagerel $unwind$?dtor$0@?0???1ImFontBuildSrcData@@QEAA@XZ@4HA
pdata	ENDS
;	COMDAT pdata
pdata	SEGMENT
$pdata$?dtor$1@?0???1ImFontBuildSrcData@@QEAA@XZ@4HA DD imagerel ?dtor$1@?0???1ImFontBuildSrcData@@QEAA@XZ@4HA
	DD	imagerel ?dtor$1@?0???1ImFontBuildSrcData@@QEAA@XZ@4HA+31
	DD	imagerel $unwind$?dtor$1@?0???1ImFontBuildSrcData@@QEAA@XZ@4HA
pdata	ENDS
;	COMDAT pdata
pdata	SEGMENT
$pdata$??_GImFontBuildSrcData@@QEAAPEAXI@Z DD imagerel $LN4
	DD	imagerel $LN4+60
	DD	imagerel $unwind$??_GImFontBuildSrcData@@QEAAPEAXI@Z
pdata	ENDS
pdata	SEGMENT
$pdata$?UnpackBoolVectorToFlatIndexList@@YAXPEBUImBoolVector@@PEAU?$ImVector@H@@@Z DD imagerel ?UnpackBoolVectorToFlatIndexList@@YAXPEBUImBoolVector@@PEAU?$ImVector@H@@@Z
	DD	imagerel ?UnpackBoolVectorToFlatIndexList@@YAXPEBUImBoolVector@@PEAU?$ImVector@H@@@Z+231
	DD	imagerel $unwind$?UnpackBoolVectorToFlatIndexList@@YAXPEBUImBoolVector@@PEAU?$ImVector@H@@@Z
pdata	ENDS
;	COMDAT pdata
pdata	SEGMENT
$pdata$??1?$ImVector@UImFontBuildSrcData@@@@QEAA@XZ DD imagerel $LN4
	DD	imagerel $LN4+41
	DD	imagerel $unwind$??1?$ImVector@UImFontBuildSrcData@@@@QEAA@XZ
pdata	ENDS
;	COMDAT pdata
pdata	SEGMENT
$pdata$?_grow_capacity@?$ImVector@UImFontBuildSrcData@@@@QEBAHH@Z DD imagerel $LN7
	DD	imagerel $LN7+101
	DD	imagerel $unwind$?_grow_capacity@?$ImVector@UImFontBuildSrcData@@@@QEBAHH@Z
pdata	ENDS
;	COMDAT pdata
pdata	SEGMENT
$pdata$?resize@?$ImVector@UImFontBuildSrcData@@@@QEAAXH@Z DD imagerel $LN4
	DD	imagerel $LN4+70
	DD	imagerel $unwind$?resize@?$ImVector@UImFontBuildSrcData@@@@QEAAXH@Z
pdata	ENDS
;	COMDAT pdata
pdata	SEGMENT
$pdata$?reserve@?$ImVector@UImFontBuildSrcData@@@@QEAAXH@Z DD imagerel $LN5
	DD	imagerel $LN5+149
	DD	imagerel $unwind$?reserve@?$ImVector@UImFontBuildSrcData@@@@QEAAXH@Z
pdata	ENDS
;	COMDAT pdata
pdata	SEGMENT
$pdata$??1?$ImVector@UImFontBuildDstData@@@@QEAA@XZ DD imagerel $LN4
	DD	imagerel $LN4+41
	DD	imagerel $unwind$??1?$ImVector@UImFontBuildDstData@@@@QEAA@XZ
pdata	ENDS
;	COMDAT pdata
pdata	SEGMENT
$pdata$?clear@?$ImVector@UImFontBuildDstData@@@@QEAAXXZ DD imagerel $LN4
	DD	imagerel $LN4+76
	DD	imagerel $unwind$?clear@?$ImVector@UImFontBuildDstData@@@@QEAAXXZ
pdata	ENDS
;	COMDAT pdata
pdata	SEGMENT
$pdata$?_grow_capacity@?$ImVector@UImFontBuildDstData@@@@QEBAHH@Z DD imagerel $LN7
	DD	imagerel $LN7+101
	DD	imagerel $unwind$?_grow_capacity@?$ImVector@UImFontBuildDstData@@@@QEBAHH@Z
pdata	ENDS
;	COMDAT pdata
pdata	SEGMENT
$pdata$?resize@?$ImVector@UImFontBuildDstData@@@@QEAAXH@Z DD imagerel $LN4
	DD	imagerel $LN4+70
	DD	imagerel $unwind$?resize@?$ImVector@UImFontBuildDstData@@@@QEAAXH@Z
pdata	ENDS
;	COMDAT pdata
pdata	SEGMENT
$pdata$?reserve@?$ImVector@UImFontBuildDstData@@@@QEAAXH@Z DD imagerel $LN5
	DD	imagerel $LN5+143
	DD	imagerel $unwind$?reserve@?$ImVector@UImFontBuildDstData@@@@QEAAXH@Z
pdata	ENDS
pdata	SEGMENT
$pdata$??$ImMax@H@@YAHHH@Z DD imagerel ??$ImMax@H@@YAHHH@Z
	DD	imagerel ??$ImMax@H@@YAHHH@Z+46
	DD	imagerel $unwind$??$ImMax@H@@YAHHH@Z
pdata	ENDS
;	COMDAT pdata
pdata	SEGMENT
$pdata$??1?$ImVector@Ustbrp_rect@@@@QEAA@XZ DD imagerel $LN4
	DD	imagerel $LN4+41
	DD	imagerel $unwind$??1?$ImVector@Ustbrp_rect@@@@QEAA@XZ
pdata	ENDS
;	COMDAT pdata
pdata	SEGMENT
$pdata$?clear@?$ImVector@Ustbrp_rect@@@@QEAAXXZ DD imagerel $LN4
	DD	imagerel $LN4+76
	DD	imagerel $unwind$?clear@?$ImVector@Ustbrp_rect@@@@QEAAXXZ
pdata	ENDS
;	COMDAT pdata
pdata	SEGMENT
$pdata$?_grow_capacity@?$ImVector@Ustbrp_rect@@@@QEBAHH@Z DD imagerel $LN7
	DD	imagerel $LN7+101
	DD	imagerel $unwind$?_grow_capacity@?$ImVector@Ustbrp_rect@@@@QEBAHH@Z
pdata	ENDS
;	COMDAT pdata
pdata	SEGMENT
$pdata$?resize@?$ImVector@Ustbrp_rect@@@@QEAAXH@Z DD imagerel $LN4
	DD	imagerel $LN4+70
	DD	imagerel $unwind$?resize@?$ImVector@Ustbrp_rect@@@@QEAAXH@Z
pdata	ENDS
;	COMDAT pdata
pdata	SEGMENT
$pdata$?reserve@?$ImVector@Ustbrp_rect@@@@QEAAXH@Z DD imagerel $LN5
	DD	imagerel $LN5+143
	DD	imagerel $unwind$?reserve@?$ImVector@Ustbrp_rect@@@@QEAAXH@Z
pdata	ENDS
;	COMDAT pdata
pdata	SEGMENT
$pdata$??1?$ImVector@Ustbtt_packedchar@@@@QEAA@XZ DD imagerel $LN4
	DD	imagerel $LN4+41
	DD	imagerel $unwind$??1?$ImVector@Ustbtt_packedchar@@@@QEAA@XZ
pdata	ENDS
;	COMDAT pdata
pdata	SEGMENT
$pdata$?_grow_capacity@?$ImVector@Ustbtt_packedchar@@@@QEBAHH@Z DD imagerel $LN7
	DD	imagerel $LN7+101
	DD	imagerel $unwind$?_grow_capacity@?$ImVector@Ustbtt_packedchar@@@@QEBAHH@Z
pdata	ENDS
;	COMDAT pdata
pdata	SEGMENT
$pdata$?resize@?$ImVector@Ustbtt_packedchar@@@@QEAAXH@Z DD imagerel $LN4
	DD	imagerel $LN4+70
	DD	imagerel $unwind$?resize@?$ImVector@Ustbtt_packedchar@@@@QEAAXH@Z
pdata	ENDS
;	COMDAT pdata
pdata	SEGMENT
$pdata$?reserve@?$ImVector@Ustbtt_packedchar@@@@QEAAXH@Z DD imagerel $LN5
	DD	imagerel $LN5+143
	DD	imagerel $unwind$?reserve@?$ImVector@Ustbtt_packedchar@@@@QEAAXH@Z
pdata	ENDS
pdata	SEGMENT
$pdata$?ImFontAtlasBuildRenderDefaultTexData@@YAXPEAUImFontAtlas@@@Z DD imagerel ?ImFontAtlasBuildRenderDefaultTexData@@YAXPEAUImFontAtlas@@@Z
	DD	imagerel ?ImFontAtlasBuildRenderDefaultTexData@@YAXPEAUImFontAtlas@@@Z+560
	DD	imagerel $unwind$?ImFontAtlasBuildRenderDefaultTexData@@YAXPEAUImFontAtlas@@@Z
$pdata$?UnpackAccumulativeOffsetsIntoRanges@@YAXHPEBFHPEAG@Z DD imagerel ?UnpackAccumulativeOffsetsIntoRanges@@YAXHPEBFHPEAG@Z
	DD	imagerel ?UnpackAccumulativeOffsetsIntoRanges@@YAXHPEBFHPEAG@Z+184
	DD	imagerel $unwind$?UnpackAccumulativeOffsetsIntoRanges@@YAXHPEBFHPEAG@Z
$pdata$?ImAcos01@@YAMM@Z DD imagerel ?ImAcos01@@YAMM@Z
	DD	imagerel ?ImAcos01@@YAMM@Z+66
	DD	imagerel $unwind$?ImAcos01@@YAMM@Z
$pdata$??$ImSwap@M@@YAXAEAM0@Z DD imagerel ??$ImSwap@M@@YAXAEAM0@Z
	DD	imagerel ??$ImSwap@M@@YAXAEAM0@Z+65
	DD	imagerel $unwind$??$ImSwap@M@@YAXAEAM0@Z
$pdata$?stb__match@@YAXPEBEI@Z DD imagerel ?stb__match@@YAXPEBEI@Z
	DD	imagerel ?stb__match@@YAXPEBEI@Z+184
	DD	imagerel $unwind$?stb__match@@YAXPEBEI@Z
$pdata$?stb__lit@@YAXPEBEI@Z DD imagerel ?stb__lit@@YAXPEBEI@Z
	DD	imagerel ?stb__lit@@YAXPEBEI@Z+151
	DD	imagerel $unwind$?stb__lit@@YAXPEBEI@Z
$pdata$?stb_decompress_token@@YAPEBEPEBE@Z DD imagerel ?stb_decompress_token@@YAPEBEPEBE@Z
	DD	imagerel ?stb_decompress_token@@YAPEBEPEBE@Z+1260
	DD	imagerel $unwind$?stb_decompress_token@@YAPEBEPEBE@Z
$pdata$?stb_adler32@@YAIIPEAEI@Z DD imagerel ?stb_adler32@@YAIIPEAEI@Z
	DD	imagerel ?stb_adler32@@YAIIPEAEI@Z+638
	DD	imagerel $unwind$?stb_adler32@@YAIIPEAEI@Z
pdata	ENDS
;	COMDAT pdata
pdata	SEGMENT
$pdata$??__E?id@?$codecvt@DDU_Mbstatet@@@std@@2V0locale@2@A@@YAXXZ DD imagerel ??__E?id@?$codecvt@DDU_Mbstatet@@@std@@2V0locale@2@A@@YAXXZ
	DD	imagerel ??__E?id@?$codecvt@DDU_Mbstatet@@@std@@2V0locale@2@A@@YAXXZ+22
	DD	imagerel $unwind$??__E?id@?$codecvt@DDU_Mbstatet@@@std@@2V0locale@2@A@@YAXXZ
pdata	ENDS
;	COMDAT pdata
pdata	SEGMENT
$pdata$??__E?id@?$num_put@DV?$ostreambuf_iterator@DU?$char_traits@D@std@@@std@@@std@@2V0locale@2@A@@YAXXZ DD imagerel ??__E?id@?$num_put@DV?$ostreambuf_iterator@DU?$char_traits@D@std@@@std@@@std@@2V0locale@2@A@@YAXXZ
	DD	imagerel ??__E?id@?$num_put@DV?$ostreambuf_iterator@DU?$char_traits@D@std@@@std@@@std@@2V0locale@2@A@@YAXXZ+22
	DD	imagerel $unwind$??__E?id@?$num_put@DV?$ostreambuf_iterator@DU?$char_traits@D@std@@@std@@@std@@2V0locale@2@A@@YAXXZ
pdata	ENDS
;	COMDAT pdata
pdata	SEGMENT
$pdata$??__E?id@?$collate@D@std@@2V0locale@2@A@@YAXXZ DD imagerel ??__E?id@?$collate@D@std@@2V0locale@2@A@@YAXXZ
	DD	imagerel ??__E?id@?$collate@D@std@@2V0locale@2@A@@YAXXZ+22
	DD	imagerel $unwind$??__E?id@?$collate@D@std@@2V0locale@2@A@@YAXXZ
pdata	ENDS
;	COMDAT pdata
pdata	SEGMENT
$pdata$??__E?id@?$numpunct@D@std@@2V0locale@2@A@@YAXXZ DD imagerel ??__E?id@?$numpunct@D@std@@2V0locale@2@A@@YAXXZ
	DD	imagerel ??__E?id@?$numpunct@D@std@@2V0locale@2@A@@YAXXZ+22
	DD	imagerel $unwind$??__E?id@?$numpunct@D@std@@2V0locale@2@A@@YAXXZ
pdata	ENDS
CRT$XCU	SEGMENT
?wsinit_$initializer$@detail@httplib@@3P6AXXZEA DQ FLAT:??__Ewsinit_@detail@httplib@@YAXXZ ; httplib::detail::wsinit_$initializer$
CRT$XCU	ENDS
;	COMDAT __xmm@80000000800000008000000080000000
CONST	SEGMENT
__xmm@80000000800000008000000080000000 DB 00H, 00H, 00H, 080H, 00H, 00H, 00H
	DB	080H, 00H, 00H, 00H, 080H, 00H, 00H, 00H, 080H
CONST	ENDS
;	COMDAT __real@c6000000
CONST	SEGMENT
__real@c6000000 DD 0c6000000r			; -8192
CONST	ENDS
;	COMDAT __real@bf800000
CONST	SEGMENT
__real@bf800000 DD 0bf800000r			; -1
CONST	ENDS
;	COMDAT __real@7f7fffff
CONST	SEGMENT
__real@7f7fffff DD 07f7fffffr			; 3.40282e+38
CONST	ENDS
;	COMDAT __real@47800000
CONST	SEGMENT
__real@47800000 DD 047800000r			; 65536
CONST	ENDS
;	COMDAT __real@46800000
CONST	SEGMENT
__real@46800000 DD 046800000r			; 16384
CONST	ENDS
;	COMDAT __real@46000000
CONST	SEGMENT
__real@46000000 DD 046000000r			; 8192
CONST	ENDS
;	COMDAT __real@45333333
CONST	SEGMENT
__real@45333333 DD 045333333r			; 2867.2
CONST	ENDS
;	COMDAT __real@44b33333
CONST	SEGMENT
__real@44b33333 DD 044b33333r			; 1433.6
CONST	ENDS
;	COMDAT __real@44333333
CONST	SEGMENT
__real@44333333 DD 044333333r			; 716.8
CONST	ENDS
;	COMDAT __real@437f0000
CONST	SEGMENT
__real@437f0000 DD 0437f0000r			; 255
CONST	ENDS
;	COMDAT __real@42da0000
CONST	SEGMENT
__real@42da0000 DD 042da0000r			; 109
CONST	ENDS
;	COMDAT __real@42c80000
CONST	SEGMENT
__real@42c80000 DD 042c80000r			; 100
CONST	ENDS
;	COMDAT __real@42b60000
CONST	SEGMENT
__real@42b60000 DD 042b60000r			; 91
CONST	ENDS
;	COMDAT __real@42920000
CONST	SEGMENT
__real@42920000 DD 042920000r			; 73
CONST	ENDS
;	COMDAT __real@425c0000
CONST	SEGMENT
__real@425c0000 DD 0425c0000r			; 55
CONST	ENDS
;	COMDAT __real@41f80000
CONST	SEGMENT
__real@41f80000 DD 041f80000r			; 31
CONST	ENDS
;	COMDAT __real@41b80000
CONST	SEGMENT
__real@41b80000 DD 041b80000r			; 23
CONST	ENDS
;	COMDAT __real@41b00000
CONST	SEGMENT
__real@41b00000 DD 041b00000r			; 22
CONST	ENDS
;	COMDAT __real@41a80000
CONST	SEGMENT
__real@41a80000 DD 041a80000r			; 21
CONST	ENDS
;	COMDAT __real@41980000
CONST	SEGMENT
__real@41980000 DD 041980000r			; 19
CONST	ENDS
;	COMDAT __real@41900000
CONST	SEGMENT
__real@41900000 DD 041900000r			; 18
CONST	ENDS
;	COMDAT __real@41880000
CONST	SEGMENT
__real@41880000 DD 041880000r			; 17
CONST	ENDS
;	COMDAT __real@41800000
CONST	SEGMENT
__real@41800000 DD 041800000r			; 16
CONST	ENDS
;	COMDAT __real@41500000
CONST	SEGMENT
__real@41500000 DD 041500000r			; 13
CONST	ENDS
;	COMDAT __real@41400000
CONST	SEGMENT
__real@41400000 DD 041400000r			; 12
CONST	ENDS
;	COMDAT __real@41300000
CONST	SEGMENT
__real@41300000 DD 041300000r			; 11
CONST	ENDS
;	COMDAT __real@41200000
CONST	SEGMENT
__real@41200000 DD 041200000r			; 10
CONST	ENDS
;	COMDAT __real@41100000
CONST	SEGMENT
__real@41100000 DD 041100000r			; 9
CONST	ENDS
;	COMDAT __real@41000000
CONST	SEGMENT
__real@41000000 DD 041000000r			; 8
CONST	ENDS
;	COMDAT __real@40e00000
CONST	SEGMENT
__real@40e00000 DD 040e00000r			; 7
CONST	ENDS
;	COMDAT __real@40c90fdb
CONST	SEGMENT
__real@40c90fdb DD 040c90fdbr			; 6.28319
CONST	ENDS
;	COMDAT __real@40a00000
CONST	SEGMENT
__real@40a00000 DD 040a00000r			; 5
CONST	ENDS
;	COMDAT __real@40800000
CONST	SEGMENT
__real@40800000 DD 040800000r			; 4
CONST	ENDS
;	COMDAT __real@40490fdb
CONST	SEGMENT
__real@40490fdb DD 040490fdbr			; 3.14159
CONST	ENDS
;	COMDAT __real@40400000
CONST	SEGMENT
__real@40400000 DD 040400000r			; 3
CONST	ENDS
;	COMDAT __real@40000000
CONST	SEGMENT
__real@40000000 DD 040000000r			; 2
CONST	ENDS
;	COMDAT __real@3ffeb852
CONST	SEGMENT
__real@3ffeb852 DD 03ffeb852r			; 1.99
CONST	ENDS
;	COMDAT __real@3fc90fdb
CONST	SEGMENT
__real@3fc90fdb DD 03fc90fdbr			; 1.5708
CONST	ENDS
;	COMDAT __real@3fc00000
CONST	SEGMENT
__real@3fc00000 DD 03fc00000r			; 1.5
CONST	ENDS
;	COMDAT __real@3f800000
CONST	SEGMENT
__real@3f800000 DD 03f800000r			; 1
CONST	ENDS
;	COMDAT __real@3f7ae148
CONST	SEGMENT
__real@3f7ae148 DD 03f7ae148r			; 0.98
CONST	ENDS
;	COMDAT __real@3f75c28f
CONST	SEGMENT
__real@3f75c28f DD 03f75c28fr			; 0.96
CONST	ENDS
;	COMDAT __real@3f733333
CONST	SEGMENT
__real@3f733333 DD 03f733333r			; 0.95
CONST	ENDS
;	COMDAT __real@3f70a3d7
CONST	SEGMENT
__real@3f70a3d7 DD 03f70a3d7r			; 0.94
CONST	ENDS
;	COMDAT __real@3f6b851f
CONST	SEGMENT
__real@3f6b851f DD 03f6b851fr			; 0.92
CONST	ENDS
;	COMDAT __real@3f666666
CONST	SEGMENT
__real@3f666666 DD 03f666666r			; 0.9
CONST	ENDS
;	COMDAT __real@3f6147ae
CONST	SEGMENT
__real@3f6147ae DD 03f6147aer			; 0.88
CONST	ENDS
;	COMDAT __real@3f5eb852
CONST	SEGMENT
__real@3f5eb852 DD 03f5eb852r			; 0.87
CONST	ENDS
;	COMDAT __real@3f5c28f6
CONST	SEGMENT
__real@3f5c28f6 DD 03f5c28f6r			; 0.86
CONST	ENDS
;	COMDAT __real@3f547ae1
CONST	SEGMENT
__real@3f547ae1 DD 03f547ae1r			; 0.83
CONST	ENDS
;	COMDAT __real@3f51eb85
CONST	SEGMENT
__real@3f51eb85 DD 03f51eb85r			; 0.82
CONST	ENDS
;	COMDAT __real@3f4ccccd
CONST	SEGMENT
__real@3f4ccccd DD 03f4ccccdr			; 0.8
CONST	ENDS
;	COMDAT __real@3f4a3d71
CONST	SEGMENT
__real@3f4a3d71 DD 03f4a3d71r			; 0.79
CONST	ENDS
;	COMDAT __real@3f47ae14
CONST	SEGMENT
__real@3f47ae14 DD 03f47ae14r			; 0.78
CONST	ENDS
;	COMDAT __real@3f400000
CONST	SEGMENT
__real@3f400000 DD 03f400000r			; 0.75
CONST	ENDS
;	COMDAT __real@3f35c28f
CONST	SEGMENT
__real@3f35c28f DD 03f35c28fr			; 0.71
CONST	ENDS
;	COMDAT __real@3f333333
CONST	SEGMENT
__real@3f333333 DD 03f333333r			; 0.7
CONST	ENDS
;	COMDAT __real@3f30a3d7
CONST	SEGMENT
__real@3f30a3d7 DD 03f30a3d7r			; 0.69
CONST	ENDS
;	COMDAT __real@3f2b851f
CONST	SEGMENT
__real@3f2b851f DD 03f2b851fr			; 0.67
CONST	ENDS
;	COMDAT __real@3f23d70a
CONST	SEGMENT
__real@3f23d70a DD 03f23d70ar			; 0.64
CONST	ENDS
;	COMDAT __real@3f2147ae
CONST	SEGMENT
__real@3f2147ae DD 03f2147aer			; 0.63
CONST	ENDS
;	COMDAT __real@3f1eb852
CONST	SEGMENT
__real@3f1eb852 DD 03f1eb852r			; 0.62
CONST	ENDS
;	COMDAT __real@3f1c28f6
CONST	SEGMENT
__real@3f1c28f6 DD 03f1c28f6r			; 0.61
CONST	ENDS
;	COMDAT __real@3f19999a
CONST	SEGMENT
__real@3f19999a DD 03f19999ar			; 0.6
CONST	ENDS
;	COMDAT __real@3f170a3d
CONST	SEGMENT
__real@3f170a3d DD 03f170a3dr			; 0.59
CONST	ENDS
;	COMDAT __real@3f0f5c29
CONST	SEGMENT
__real@3f0f5c29 DD 03f0f5c29r			; 0.56
CONST	ENDS
;	COMDAT __real@3f0ccccd
CONST	SEGMENT
__real@3f0ccccd DD 03f0ccccdr			; 0.55
CONST	ENDS
;	COMDAT __real@3f0a3d71
CONST	SEGMENT
__real@3f0a3d71 DD 03f0a3d71r			; 0.54
CONST	ENDS
;	COMDAT __real@3f07ae14
CONST	SEGMENT
__real@3f07ae14 DD 03f07ae14r			; 0.53
CONST	ENDS
;	COMDAT __real@3f051eb8
CONST	SEGMENT
__real@3f051eb8 DD 03f051eb8r			; 0.52
CONST	ENDS
;	COMDAT __real@3f028f5c
CONST	SEGMENT
__real@3f028f5c DD 03f028f5cr			; 0.51
CONST	ENDS
;	COMDAT __real@3f000000
CONST	SEGMENT
__real@3f000000 DD 03f000000r			; 0.5
CONST	ENDS
;	COMDAT __real@3efae148
CONST	SEGMENT
__real@3efae148 DD 03efae148r			; 0.49
CONST	ENDS
;	COMDAT __real@3ef5c28f
CONST	SEGMENT
__real@3ef5c28f DD 03ef5c28fr			; 0.48
CONST	ENDS
;	COMDAT __real@3ef0a3d7
CONST	SEGMENT
__real@3ef0a3d7 DD 03ef0a3d7r			; 0.47
CONST	ENDS
;	COMDAT __real@3eeb851f
CONST	SEGMENT
__real@3eeb851f DD 03eeb851fr			; 0.46
CONST	ENDS
;	COMDAT __real@3ee66666
CONST	SEGMENT
__real@3ee66666 DD 03ee66666r			; 0.45
CONST	ENDS
;	COMDAT __real@3ee147ae
CONST	SEGMENT
__real@3ee147ae DD 03ee147aer			; 0.44
CONST	ENDS
;	COMDAT __real@3edc28f6
CONST	SEGMENT
__real@3edc28f6 DD 03edc28f6r			; 0.43
CONST	ENDS
;	COMDAT __real@3ed70a3d
CONST	SEGMENT
__real@3ed70a3d DD 03ed70a3dr			; 0.42
CONST	ENDS
;	COMDAT __real@3ed1eb85
CONST	SEGMENT
__real@3ed1eb85 DD 03ed1eb85r			; 0.41
CONST	ENDS
;	COMDAT __real@3ecccccd
CONST	SEGMENT
__real@3ecccccd DD 03ecccccdr			; 0.4
CONST	ENDS
;	COMDAT __real@3ec7ae14
CONST	SEGMENT
__real@3ec7ae14 DD 03ec7ae14r			; 0.39
CONST	ENDS
;	COMDAT __real@3eb33333
CONST	SEGMENT
__real@3eb33333 DD 03eb33333r			; 0.35
CONST	ENDS
;	COMDAT __real@3ea3d70a
CONST	SEGMENT
__real@3ea3d70a DD 03ea3d70ar			; 0.32
CONST	ENDS
;	COMDAT __real@3e9eb852
CONST	SEGMENT
__real@3e9eb852 DD 03e9eb852r			; 0.31
CONST	ENDS
;	COMDAT __real@3e99999a
CONST	SEGMENT
__real@3e99999a DD 03e99999ar			; 0.3
CONST	ENDS
;	COMDAT __real@3e947ae1
CONST	SEGMENT
__real@3e947ae1 DD 03e947ae1r			; 0.29
CONST	ENDS
;	COMDAT __real@3e8a3d71
CONST	SEGMENT
__real@3e8a3d71 DD 03e8a3d71r			; 0.27
CONST	ENDS
;	COMDAT __real@3e851eb8
CONST	SEGMENT
__real@3e851eb8 DD 03e851eb8r			; 0.26
CONST	ENDS
;	COMDAT __real@3e800000
CONST	SEGMENT
__real@3e800000 DD 03e800000r			; 0.25
CONST	ENDS
;	COMDAT __real@3e75c28f
CONST	SEGMENT
__real@3e75c28f DD 03e75c28fr			; 0.24
CONST	ENDS
;	COMDAT __real@3e4ccccd
CONST	SEGMENT
__real@3e4ccccd DD 03e4ccccdr			; 0.2
CONST	ENDS
;	COMDAT __real@3e23d70a
CONST	SEGMENT
__real@3e23d70a DD 03e23d70ar			; 0.16
CONST	ENDS
;	COMDAT __real@3e0f5c29
CONST	SEGMENT
__real@3e0f5c29 DD 03e0f5c29r			; 0.14
CONST	ENDS
;	COMDAT __real@3de147ae
CONST	SEGMENT
__real@3de147ae DD 03de147aer			; 0.11
CONST	ENDS
;	COMDAT __real@3dcccccd
CONST	SEGMENT
__real@3dcccccd DD 03dcccccdr			; 0.1
CONST	ENDS
;	COMDAT __real@3da3d70a
CONST	SEGMENT
__real@3da3d70a DD 03da3d70ar			; 0.08
CONST	ENDS
;	COMDAT __real@3d75c28f
CONST	SEGMENT
__real@3d75c28f DD 03d75c28fr			; 0.06
CONST	ENDS
;	COMDAT __real@3d23d70a
CONST	SEGMENT
__real@3d23d70a DD 03d23d70ar			; 0.04
CONST	ENDS
;	COMDAT __real@3ca3d70a
CONST	SEGMENT
__real@3ca3d70a DD 03ca3d70ar			; 0.02
CONST	ENDS
;	COMDAT __real@358637bd
CONST	SEGMENT
__real@358637bd DD 0358637bdr			; 1e-06
CONST	ENDS
;	COMDAT __real@00000000
CONST	SEGMENT
__real@00000000 DD 000000000r			; 0
CONST	ENDS
;	COMDAT ?ranges@?1??GetGlyphRangesThai@ImFontAtlas@@QEAAPEBGXZ@4QBGB
CONST	SEGMENT
?ranges@?1??GetGlyphRangesThai@ImFontAtlas@@QEAAPEBGXZ@4QBGB DW 020H ; `ImFontAtlas::GetGlyphRangesThai'::`2'::ranges
	DW	0ffH
	DW	02010H
	DW	0205eH
	DW	0e00H
	DW	0e7fH
	DW	00H
CONST	ENDS
;	COMDAT ?ranges@?1??GetGlyphRangesCyrillic@ImFontAtlas@@QEAAPEBGXZ@4QBGB
CONST	SEGMENT
?ranges@?1??GetGlyphRangesCyrillic@ImFontAtlas@@QEAAPEBGXZ@4QBGB DW 020H ; `ImFontAtlas::GetGlyphRangesCyrillic'::`2'::ranges
	DW	0ffH
	DW	0400H
	DW	052fH
	DW	02de0H
	DW	02dffH
	DW	0a640H
	DW	0a69fH
	DW	00H
CONST	ENDS
;	COMDAT ?base_ranges@?1??GetGlyphRangesJapanese@ImFontAtlas@@QEAAPEBGXZ@4PAGA
_DATA	SEGMENT
?base_ranges@?1??GetGlyphRangesJapanese@ImFontAtlas@@QEAAPEBGXZ@4PAGA DW 020H ; `ImFontAtlas::GetGlyphRangesJapanese'::`2'::base_ranges
	DW	0ffH
	DW	03000H
	DW	030ffH
	DW	031f0H
	DW	031ffH
	DW	0ff00H
	DW	0ffefH
_DATA	ENDS
;	COMDAT ?accumulative_offsets_from_0x4E00@?1??GetGlyphRangesJapanese@ImFontAtlas@@QEAAPEBGXZ@4QBFB
CONST	SEGMENT
?accumulative_offsets_from_0x4E00@?1??GetGlyphRangesJapanese@ImFontAtlas@@QEAAPEBGXZ@4QBFB DW 00H ; `ImFontAtlas::GetGlyphRangesJapanese'::`2'::accumulative_offsets_from_0x4E00
	DW	01H
	DW	02H
	DW	04H
	DW	01H
	DW	01H
	DW	01H
	DW	01H
	DW	02H
	DW	01H
	DW	06H
	DW	02H
	DW	02H
	DW	01H
	DW	08H
	DW	05H
	DW	07H
	DW	0bH
	DW	01H
	DW	02H
	DW	0aH
	DW	0aH
	DW	08H
	DW	02H
	DW	04H
	DW	014H
	DW	02H
	DW	0bH
	DW	08H
	DW	02H
	DW	01H
	DW	02H
	DW	01H
	DW	06H
	DW	02H
	DW	01H
	DW	07H
	DW	05H
	DW	03H
	DW	07H
	DW	01H
	DW	01H
	DW	0dH
	DW	07H
	DW	09H
	DW	01H
	DW	04H
	DW	06H
	DW	01H
	DW	02H
	DW	01H
	DW	0aH
	DW	01H
	DW	01H
	DW	09H
	DW	02H
	DW	02H
	DW	04H
	DW	05H
	DW	06H
	DW	0eH
	DW	01H
	DW	01H
	DW	09H
	DW	03H
	DW	012H
	DW	05H
	DW	04H
	DW	02H
	DW	02H
	DW	0aH
	DW	07H
	DW	01H
	DW	01H
	DW	01H
	DW	03H
	DW	02H
	DW	04H
	DW	03H
	DW	017H
	DW	02H
	DW	0aH
	DW	0cH
	DW	02H
	DW	0eH
	DW	02H
	DW	04H
	DW	0dH
	DW	01H
	DW	06H
	DW	0aH
	DW	03H
	DW	01H
	DW	07H
	DW	0dH
	DW	06H
	DW	04H
	DW	0dH
	DW	05H
	DW	02H
	DW	03H
	DW	011H
	DW	02H
	DW	02H
	DW	05H
	DW	07H
	DW	06H
	DW	04H
	DW	01H
	DW	07H
	DW	0eH
	DW	010H
	DW	06H
	DW	0dH
	DW	09H
	DW	0fH
	DW	01H
	DW	01H
	DW	07H
	DW	010H
	DW	04H
	DW	07H
	DW	01H
	DW	013H
	DW	09H
	DW	02H
	DW	07H
	DW	0fH
	DW	02H
	DW	06H
	DW	05H
	DW	0dH
	DW	019H
	DW	04H
	DW	0eH
	DW	0dH
	DW	0bH
	DW	019H
	DW	01H
	DW	01H
	DW	01H
	DW	02H
	DW	01H
	DW	02H
	DW	02H
	DW	03H
	DW	0aH
	DW	0bH
	DW	03H
	DW	03H
	DW	01H
	DW	01H
	DW	04H
	DW	04H
	DW	02H
	DW	01H
	DW	04H
	DW	09H
	DW	01H
	DW	04H
	DW	03H
	DW	05H
	DW	05H
	DW	02H
	DW	07H
	DW	0cH
	DW	0bH
	DW	0fH
	DW	07H
	DW	010H
	DW	04H
	DW	05H
	DW	010H
	DW	02H
	DW	01H
	DW	01H
	DW	06H
	DW	03H
	DW	03H
	DW	01H
	DW	01H
	DW	02H
	DW	07H
	DW	06H
	DW	06H
	DW	07H
	DW	01H
	DW	04H
	DW	07H
	DW	06H
	DW	01H
	DW	01H
	DW	02H
	DW	01H
	DW	0cH
	DW	03H
	DW	03H
	DW	09H
	DW	05H
	DW	08H
	DW	01H
	DW	0bH
	DW	01H
	DW	02H
	DW	03H
	DW	012H
	DW	014H
	DW	04H
	DW	01H
	DW	03H
	DW	06H
	DW	01H
	DW	07H
	DW	03H
	DW	05H
	DW	05H
	DW	07H
	DW	02H
	DW	02H
	DW	0cH
	DW	03H
	DW	01H
	DW	04H
	DW	02H
	DW	03H
	DW	02H
	DW	03H
	DW	0bH
	DW	08H
	DW	07H
	DW	04H
	DW	011H
	DW	01H
	DW	09H
	DW	019H
	DW	01H
	DW	01H
	DW	04H
	DW	02H
	DW	02H
	DW	04H
	DW	01H
	DW	02H
	DW	07H
	DW	01H
	DW	01H
	DW	01H
	DW	03H
	DW	01H
	DW	02H
	DW	06H
	DW	010H
	DW	01H
	DW	02H
	DW	01H
	DW	01H
	DW	03H
	DW	0cH
	DW	014H
	DW	02H
	DW	05H
	DW	014H
	DW	08H
	DW	07H
	DW	06H
	DW	02H
	DW	01H
	DW	01H
	DW	01H
	DW	01H
	DW	06H
	DW	02H
	DW	01H
	DW	02H
	DW	0aH
	DW	01H
	DW	01H
	DW	06H
	DW	01H
	DW	03H
	DW	01H
	DW	02H
	DW	01H
	DW	04H
	DW	01H
	DW	0cH
	DW	04H
	DW	01H
	DW	03H
	DW	01H
	DW	01H
	DW	01H
	DW	01H
	DW	01H
	DW	0aH
	DW	04H
	DW	07H
	DW	05H
	DW	0dH
	DW	01H
	DW	0fH
	DW	01H
	DW	01H
	DW	01eH
	DW	0bH
	DW	09H
	DW	01H
	DW	0fH
	DW	026H
	DW	0eH
	DW	01H
	DW	020H
	DW	011H
	DW	014H
	DW	01H
	DW	09H
	DW	01fH
	DW	02H
	DW	015H
	DW	09H
	DW	04H
	DW	031H
	DW	016H
	DW	02H
	DW	01H
	DW	0dH
	DW	01H
	DW	0bH
	DW	02dH
	DW	023H
	DW	02bH
	DW	037H
	DW	0cH
	DW	013H
	DW	053H
	DW	01H
	DW	03H
	DW	02H
	DW	03H
	DW	0dH
	DW	02H
	DW	01H
	DW	07H
	DW	03H
	DW	012H
	DW	03H
	DW	0dH
	DW	08H
	DW	01H
	DW	08H
	DW	012H
	DW	05H
	DW	03H
	DW	07H
	DW	019H
	DW	018H
	DW	09H
	DW	018H
	DW	028H
	DW	03H
	DW	011H
	DW	018H
	DW	02H
	DW	01H
	DW	06H
	DW	02H
	DW	03H
	DW	010H
	DW	0fH
	DW	06H
	DW	07H
	DW	03H
	DW	0cH
	DW	01H
	DW	09H
	DW	07H
	DW	03H
	DW	03H
	DW	03H
	DW	0fH
	DW	015H
	DW	05H
	DW	010H
	DW	04H
	DW	05H
	DW	0cH
	DW	0bH
	DW	0bH
	DW	03H
	DW	06H
	DW	03H
	DW	02H
	DW	01fH
	DW	03H
	DW	02H
	DW	01H
	DW	01H
	DW	017H
	DW	06H
	DW	06H
	DW	01H
	DW	04H
	DW	02H
	DW	06H
	DW	05H
	DW	02H
	DW	01H
	DW	01H
	DW	03H
	DW	03H
	DW	016H
	DW	02H
	DW	06H
	DW	02H
	DW	03H
	DW	011H
	DW	03H
	DW	02H
	DW	04H
	DW	05H
	DW	01H
	DW	09H
	DW	05H
	DW	01H
	DW	01H
	DW	06H
	DW	0fH
	DW	0cH
	DW	03H
	DW	011H
	DW	02H
	DW	0eH
	DW	02H
	DW	08H
	DW	01H
	DW	017H
	DW	010H
	DW	04H
	DW	02H
	DW	017H
	DW	08H
	DW	0fH
	DW	017H
	DW	014H
	DW	0cH
	DW	019H
	DW	013H
	DW	02fH
	DW	0bH
	DW	015H
	DW	041H
	DW	02eH
	DW	04H
	DW	03H
	DW	01H
	DW	05H
	DW	06H
	DW	01H
	DW	02H
	DW	05H
	DW	01aH
	DW	02H
	DW	01H
	DW	01H
	DW	03H
	DW	0bH
	DW	01H
	DW	01H
	DW	01H
	DW	02H
	DW	01H
	DW	02H
	DW	03H
	DW	01H
	DW	01H
	DW	0aH
	DW	02H
	DW	03H
	DW	01H
	DW	01H
	DW	01H
	DW	03H
	DW	06H
	DW	03H
	DW	02H
	DW	02H
	DW	06H
	DW	06H
	DW	09H
	DW	02H
	DW	02H
	DW	02H
	DW	06H
	DW	02H
	DW	05H
	DW	0aH
	DW	02H
	DW	04H
	DW	01H
	DW	02H
	DW	01H
	DW	02H
	DW	02H
	DW	03H
	DW	01H
	DW	01H
	DW	03H
	DW	01H
	DW	02H
	DW	09H
	DW	017H
	DW	09H
	DW	02H
	DW	01H
	DW	01H
	DW	01H
	DW	01H
	DW	05H
	DW	03H
	DW	02H
	DW	01H
	DW	0aH
	DW	09H
	DW	06H
	DW	01H
	DW	0aH
	DW	02H
	DW	01fH
	DW	019H
	DW	03H
	DW	07H
	DW	05H
	DW	028H
	DW	01H
	DW	0fH
	DW	06H
	DW	011H
	DW	07H
	DW	01bH
	DW	0b4H
	DW	01H
	DW	03H
	DW	02H
	DW	02H
	DW	01H
	DW	01H
	DW	01H
	DW	06H
	DW	03H
	DW	0aH
	DW	07H
	DW	01H
	DW	03H
	DW	06H
	DW	011H
	DW	08H
	DW	06H
	DW	02H
	DW	02H
	DW	01H
	DW	03H
	DW	05H
	DW	05H
	DW	08H
	DW	010H
	DW	0eH
	DW	0fH
	DW	01H
	DW	01H
	DW	04H
	DW	01H
	DW	02H
	DW	01H
	DW	01H
	DW	01H
	DW	03H
	DW	02H
	DW	07H
	DW	05H
	DW	06H
	DW	02H
	DW	05H
	DW	0aH
	DW	01H
	DW	04H
	DW	02H
	DW	09H
	DW	01H
	DW	01H
	DW	0bH
	DW	06H
	DW	01H
	DW	02cH
	DW	01H
	DW	03H
	DW	07H
	DW	09H
	DW	05H
	DW	01H
	DW	03H
	DW	01H
	DW	01H
	DW	0aH
	DW	07H
	DW	01H
	DW	0aH
	DW	04H
	DW	02H
	DW	07H
	DW	015H
	DW	0fH
	DW	07H
	DW	02H
	DW	05H
	DW	01H
	DW	08H
	DW	03H
	DW	04H
	DW	01H
	DW	03H
	DW	01H
	DW	06H
	DW	01H
	DW	04H
	DW	02H
	DW	01H
	DW	04H
	DW	0aH
	DW	08H
	DW	01H
	DW	04H
	DW	05H
	DW	01H
	DW	05H
	DW	0aH
	DW	02H
	DW	07H
	DW	01H
	DW	0aH
	DW	01H
	DW	01H
	DW	03H
	DW	04H
	DW	0bH
	DW	0aH
	DW	01dH
	DW	04H
	DW	07H
	DW	03H
	DW	05H
	DW	02H
	DW	03H
	DW	021H
	DW	05H
	DW	02H
	DW	013H
	DW	03H
	DW	01H
	DW	04H
	DW	02H
	DW	06H
	DW	01fH
	DW	0bH
	DW	01H
	DW	03H
	DW	03H
	DW	03H
	DW	01H
	DW	08H
	DW	0aH
	DW	09H
	DW	0cH
	DW	0bH
	DW	0cH
	DW	08H
	DW	03H
	DW	0eH
	DW	08H
	DW	06H
	DW	0bH
	DW	01H
	DW	04H
	DW	029H
	DW	03H
	DW	01H
	DW	02H
	DW	07H
	DW	0dH
	DW	01H
	DW	05H
	DW	06H
	DW	02H
	DW	06H
	DW	0cH
	DW	0cH
	DW	016H
	DW	05H
	DW	09H
	DW	04H
	DW	08H
	DW	09H
	DW	09H
	DW	022H
	DW	06H
	DW	018H
	DW	01H
	DW	01H
	DW	014H
	DW	09H
	DW	09H
	DW	03H
	DW	04H
	DW	01H
	DW	07H
	DW	02H
	DW	02H
	DW	02H
	DW	06H
	DW	02H
	DW	01cH
	DW	05H
	DW	03H
	DW	06H
	DW	01H
	DW	04H
	DW	06H
	DW	07H
	DW	04H
	DW	02H
	DW	01H
	DW	04H
	DW	02H
	DW	0dH
	DW	06H
	DW	04H
	DW	04H
	DW	03H
	DW	01H
	DW	08H
	DW	08H
	DW	03H
	DW	02H
	DW	01H
	DW	05H
	DW	01H
	DW	02H
	DW	02H
	DW	03H
	DW	01H
	DW	0bH
	DW	0bH
	DW	07H
	DW	03H
	DW	06H
	DW	0aH
	DW	08H
	DW	06H
	DW	010H
	DW	010H
	DW	016H
	DW	07H
	DW	0cH
	DW	06H
	DW	015H
	DW	05H
	DW	04H
	DW	06H
	DW	06H
	DW	03H
	DW	06H
	DW	01H
	DW	03H
	DW	02H
	DW	01H
	DW	02H
	DW	08H
	DW	01dH
	DW	01H
	DW	0aH
	DW	01H
	DW	06H
	DW	0dH
	DW	06H
	DW	06H
	DW	013H
	DW	01fH
	DW	01H
	DW	0dH
	DW	04H
	DW	04H
	DW	016H
	DW	011H
	DW	01aH
	DW	021H
	DW	0aH
	DW	04H
	DW	0fH
	DW	0cH
	DW	019H
	DW	06H
	DW	043H
	DW	0aH
	DW	02H
	DW	03H
	DW	01H
	DW	06H
	DW	0aH
	DW	02H
	DW	06H
	DW	02H
	DW	09H
	DW	01H
	DW	09H
	DW	04H
	DW	04H
	DW	01H
	DW	02H
	DW	010H
	DW	02H
	DW	05H
	DW	09H
	DW	02H
	DW	03H
	DW	08H
	DW	01H
	DW	08H
	DW	03H
	DW	09H
	DW	04H
	DW	08H
	DW	06H
	DW	04H
	DW	08H
	DW	0bH
	DW	03H
	DW	02H
	DW	01H
	DW	01H
	DW	03H
	DW	01aH
	DW	01H
	DW	07H
	DW	05H
	DW	01H
	DW	0bH
	DW	01H
	DW	05H
	DW	03H
	DW	05H
	DW	02H
	DW	0dH
	DW	06H
	DW	027H
	DW	05H
	DW	01H
	DW	05H
	DW	02H
	DW	0bH
	DW	06H
	DW	0aH
	DW	05H
	DW	01H
	DW	0fH
	DW	05H
	DW	03H
	DW	06H
	DW	013H
	DW	015H
	DW	016H
	DW	02H
	DW	04H
	DW	01H
	DW	06H
	DW	01H
	DW	08H
	DW	01H
	DW	04H
	DW	08H
	DW	02H
	DW	04H
	DW	02H
	DW	02H
	DW	09H
	DW	02H
	DW	01H
	DW	01H
	DW	01H
	DW	04H
	DW	03H
	DW	06H
	DW	03H
	DW	0cH
	DW	07H
	DW	01H
	DW	0eH
	DW	02H
	DW	04H
	DW	0aH
	DW	02H
	DW	0dH
	DW	01H
	DW	011H
	DW	07H
	DW	03H
	DW	02H
	DW	01H
	DW	03H
	DW	02H
	DW	0dH
	DW	07H
	DW	0eH
	DW	0cH
	DW	03H
	DW	01H
	DW	01dH
	DW	02H
	DW	08H
	DW	09H
	DW	0fH
	DW	0eH
	DW	09H
	DW	0eH
	DW	01H
	DW	03H
	DW	01H
	DW	06H
	DW	05H
	DW	09H
	DW	0bH
	DW	03H
	DW	026H
	DW	02bH
	DW	014H
	DW	07H
	DW	07H
	DW	08H
	DW	05H
	DW	0fH
	DW	0cH
	DW	013H
	DW	0fH
	DW	051H
	DW	08H
	DW	07H
	DW	01H
	DW	05H
	DW	049H
	DW	0dH
	DW	025H
	DW	01cH
	DW	08H
	DW	08H
	DW	01H
	DW	0fH
	DW	012H
	DW	014H
	DW	0a5H
	DW	01cH
	DW	01H
	DW	06H
	DW	0bH
	DW	08H
	DW	04H
	DW	0eH
	DW	07H
	DW	0fH
	DW	01H
	DW	03H
	DW	03H
	DW	06H
	DW	04H
	DW	01H
	DW	07H
	DW	0eH
	DW	01H
	DW	01H
	DW	0bH
	DW	01eH
	DW	01H
	DW	05H
	DW	01H
	DW	04H
	DW	0eH
	DW	01H
	DW	04H
	DW	02H
	DW	07H
	DW	034H
	DW	02H
	DW	06H
	DW	01dH
	DW	03H
	DW	01H
	DW	09H
	DW	01H
	DW	015H
	DW	03H
	DW	05H
	DW	01H
	DW	01aH
	DW	03H
	DW	0bH
	DW	0eH
	DW	0bH
	DW	01H
	DW	011H
	DW	05H
	DW	01H
	DW	02H
	DW	01H
	DW	03H
	DW	02H
	DW	08H
	DW	01H
	DW	02H
	DW	09H
	DW	0cH
	DW	01H
	DW	01H
	DW	02H
	DW	03H
	DW	08H
	DW	03H
	DW	018H
	DW	0cH
	DW	07H
	DW	07H
	DW	05H
	DW	011H
	DW	03H
	DW	03H
	DW	03H
	DW	01H
	DW	017H
	DW	0aH
	DW	04H
	DW	04H
	DW	06H
	DW	03H
	DW	01H
	DW	010H
	DW	011H
	DW	016H
	DW	03H
	DW	0aH
	DW	015H
	DW	010H
	DW	010H
	DW	06H
	DW	04H
	DW	0aH
	DW	02H
	DW	01H
	DW	01H
	DW	02H
	DW	08H
	DW	08H
	DW	06H
	DW	05H
	DW	03H
	DW	03H
	DW	03H
	DW	027H
	DW	019H
	DW	0fH
	DW	01H
	DW	01H
	DW	010H
	DW	06H
	DW	07H
	DW	019H
	DW	0fH
	DW	06H
	DW	06H
	DW	0cH
	DW	01H
	DW	016H
	DW	0dH
	DW	01H
	DW	04H
	DW	09H
	DW	05H
	DW	0cH
	DW	02H
	DW	09H
	DW	01H
	DW	0cH
	DW	01cH
	DW	08H
	DW	03H
	DW	05H
	DW	0aH
	DW	016H
	DW	03cH
	DW	01H
	DW	02H
	DW	028H
	DW	04H
	DW	03dH
	DW	03fH
	DW	04H
	DW	01H
	DW	0dH
	DW	0cH
	DW	01H
	DW	04H
	DW	01fH
	DW	0cH
	DW	01H
	DW	0eH
	DW	059H
	DW	05H
	DW	010H
	DW	06H
	DW	01dH
	DW	0eH
	DW	02H
	DW	05H
	DW	031H
	DW	012H
	DW	012H
	DW	05H
	DW	01dH
	DW	021H
	DW	02fH
	DW	01H
	DW	011H
	DW	01H
	DW	013H
	DW	0cH
	DW	02H
	DW	09H
	DW	07H
	DW	027H
	DW	0cH
	DW	03H
	DW	07H
	DW	0cH
	DW	027H
	DW	03H
	DW	01H
	DW	02eH
	DW	04H
	DW	0cH
	DW	03H
	DW	08H
	DW	09H
	DW	05H
	DW	01fH
	DW	0fH
	DW	012H
	DW	03H
	DW	02H
	DW	02H
	DW	042H
	DW	013H
	DW	0dH
	DW	011H
	DW	05H
	DW	03H
	DW	02eH
	DW	07cH
	DW	0dH
	DW	039H
	DW	022H
	DW	02H
	DW	05H
	DW	04H
	DW	05H
	DW	08H
	DW	01H
	DW	01H
	DW	01H
	DW	04H
	DW	03H
	DW	01H
	DW	011H
	DW	05H
	DW	03H
	DW	05H
	DW	03H
	DW	01H
	DW	08H
	DW	05H
	DW	06H
	DW	03H
	DW	01bH
	DW	03H
	DW	01aH
	DW	07H
	DW	0cH
	DW	07H
	DW	02H
	DW	011H
	DW	03H
	DW	07H
	DW	012H
	DW	04eH
	DW	010H
	DW	04H
	DW	024H
	DW	01H
	DW	02H
	DW	01H
	DW	06H
	DW	02H
	DW	01H
	DW	027H
	DW	011H
	DW	07H
	DW	04H
	DW	0dH
	DW	04H
	DW	04H
	DW	04H
	DW	01H
	DW	0aH
	DW	04H
	DW	02H
	DW	04H
	DW	06H
	DW	03H
	DW	0aH
	DW	01H
	DW	013H
	DW	01H
	DW	01aH
	DW	02H
	DW	04H
	DW	021H
	DW	02H
	DW	049H
	DW	02fH
	DW	07H
	DW	03H
	DW	08H
	DW	02H
	DW	04H
	DW	0fH
	DW	012H
	DW	01H
	DW	01dH
	DW	02H
	DW	029H
	DW	0eH
	DW	01H
	DW	015H
	DW	010H
	DW	029H
	DW	07H
	DW	027H
	DW	019H
	DW	0dH
	DW	02cH
	DW	02H
	DW	02H
	DW	0aH
	DW	01H
	DW	0dH
	DW	07H
	DW	01H
	DW	07H
	DW	03H
	DW	05H
	DW	014H
	DW	04H
	DW	08H
	DW	02H
	DW	031H
	DW	01H
	DW	0aH
	DW	06H
	DW	01H
	DW	06H
	DW	07H
	DW	0aH
	DW	07H
	DW	0bH
	DW	010H
	DW	03H
	DW	0cH
	DW	014H
	DW	04H
	DW	0aH
	DW	03H
	DW	01H
	DW	02H
	DW	0bH
	DW	02H
	DW	01cH
	DW	09H
	DW	02H
	DW	04H
	DW	07H
	DW	02H
	DW	0fH
	DW	01H
	DW	01bH
	DW	01H
	DW	01cH
	DW	011H
	DW	04H
	DW	05H
	DW	0aH
	DW	07H
	DW	03H
	DW	018H
	DW	0aH
	DW	0bH
	DW	06H
	DW	01aH
	DW	03H
	DW	02H
	DW	07H
	DW	02H
	DW	02H
	DW	031H
	DW	010H
	DW	0aH
	DW	010H
	DW	0fH
	DW	04H
	DW	05H
	DW	01bH
	DW	03dH
	DW	01eH
	DW	0eH
	DW	026H
	DW	016H
	DW	02H
	DW	07H
	DW	05H
	DW	01H
	DW	03H
	DW	0cH
	DW	017H
	DW	018H
	DW	011H
	DW	011H
	DW	03H
	DW	03H
	DW	02H
	DW	04H
	DW	01H
	DW	06H
	DW	02H
	DW	07H
	DW	05H
	DW	01H
	DW	01H
	DW	05H
	DW	01H
	DW	01H
	DW	09H
	DW	04H
	DW	01H
	DW	03H
	DW	06H
	DW	01H
	DW	08H
	DW	02H
	DW	08H
	DW	04H
	DW	0eH
	DW	03H
	DW	05H
	DW	0bH
	DW	04H
	DW	01H
	DW	03H
	DW	020H
	DW	01H
	DW	013H
	DW	04H
	DW	01H
	DW	0dH
	DW	0bH
	DW	05H
	DW	02H
	DW	01H
	DW	08H
	DW	06H
	DW	08H
	DW	01H
	DW	06H
	DW	05H
	DW	0dH
	DW	03H
	DW	017H
	DW	0bH
	DW	05H
	DW	03H
	DW	010H
	DW	03H
	DW	09H
	DW	0aH
	DW	01H
	DW	018H
	DW	03H
	DW	0c6H
	DW	034H
	DW	04H
	DW	02H
	DW	02H
	DW	05H
	DW	0eH
	DW	05H
	DW	04H
	DW	016H
	DW	05H
	DW	014H
	DW	04H
	DW	0bH
	DW	06H
	DW	029H
	DW	01H
	DW	05H
	DW	02H
	DW	02H
	DW	0bH
	DW	05H
	DW	02H
	DW	01cH
	DW	023H
	DW	08H
	DW	016H
	DW	03H
	DW	012H
	DW	03H
	DW	0aH
	DW	07H
	DW	05H
	DW	03H
	DW	04H
	DW	01H
	DW	05H
	DW	03H
	DW	08H
	DW	09H
	DW	03H
	DW	06H
	DW	02H
	DW	010H
	DW	016H
	DW	04H
	DW	05H
	DW	05H
	DW	03H
	DW	03H
	DW	012H
	DW	017H
	DW	02H
	DW	06H
	DW	017H
	DW	05H
	DW	01bH
	DW	08H
	DW	01H
	DW	021H
	DW	02H
	DW	0cH
	DW	02bH
	DW	010H
	DW	05H
	DW	02H
	DW	03H
	DW	06H
	DW	01H
	DW	014H
	DW	04H
	DW	02H
	DW	09H
	DW	07H
	DW	01H
	DW	0bH
	DW	02H
	DW	0aH
	DW	03H
	DW	0eH
	DW	01fH
	DW	09H
	DW	03H
	DW	019H
	DW	012H
	DW	014H
	DW	02H
	DW	05H
	DW	05H
	DW	01aH
	DW	0eH
	DW	01H
	DW	0bH
	DW	011H
	DW	0cH
	DW	028H
	DW	013H
	DW	09H
	DW	06H
	DW	01fH
	DW	053H
	DW	02H
	DW	07H
	DW	09H
	DW	013H
	DW	04eH
	DW	0cH
	DW	0eH
	DW	015H
	DW	04cH
	DW	0cH
	DW	071H
	DW	04fH
	DW	022H
	DW	04H
	DW	01H
	DW	01H
	DW	03dH
	DW	012H
	DW	055H
	DW	0aH
	DW	02H
	DW	02H
	DW	0dH
	DW	01fH
	DW	0bH
	DW	032H
	DW	06H
	DW	021H
	DW	09fH
	DW	0b3H
	DW	06H
	DW	06H
	DW	07H
	DW	04H
	DW	04H
	DW	02H
	DW	04H
	DW	02H
	DW	05H
	DW	08H
	DW	07H
	DW	014H
	DW	020H
	DW	016H
	DW	01H
	DW	03H
	DW	0aH
	DW	06H
	DW	07H
	DW	01cH
	DW	05H
	DW	0aH
	DW	09H
	DW	02H
	DW	04dH
	DW	013H
	DW	0dH
	DW	02H
	DW	05H
	DW	01H
	DW	04H
	DW	04H
	DW	07H
	DW	04H
	DW	0dH
	DW	03H
	DW	09H
	DW	01fH
	DW	011H
	DW	03H
	DW	01aH
	DW	02H
	DW	06H
	DW	06H
	DW	05H
	DW	04H
	DW	01H
	DW	07H
	DW	0bH
	DW	03H
	DW	04H
	DW	02H
	DW	01H
	DW	06H
	DW	02H
	DW	014H
	DW	04H
	DW	01H
	DW	09H
	DW	02H
	DW	06H
	DW	03H
	DW	07H
	DW	01H
	DW	01H
	DW	01H
	DW	014H
	DW	02H
	DW	03H
	DW	01H
	DW	06H
	DW	02H
	DW	03H
	DW	06H
	DW	02H
	DW	04H
	DW	08H
	DW	01H
	DW	05H
	DW	0dH
	DW	08H
	DW	04H
	DW	0bH
	DW	017H
	DW	01H
	DW	0aH
	DW	06H
	DW	02H
	DW	01H
	DW	03H
	DW	015H
	DW	02H
	DW	02H
	DW	04H
	DW	018H
	DW	01fH
	DW	04H
	DW	0aH
	DW	0aH
	DW	02H
	DW	05H
	DW	0c0H
	DW	0fH
	DW	04H
	DW	010H
	DW	07H
	DW	09H
	DW	033H
	DW	01H
	DW	02H
	DW	01H
	DW	01H
	DW	05H
	DW	01H
	DW	01H
	DW	02H
	DW	01H
	DW	03H
	DW	05H
	DW	03H
	DW	01H
	DW	03H
	DW	04H
	DW	01H
	DW	03H
	DW	01H
	DW	03H
	DW	03H
	DW	09H
	DW	08H
	DW	01H
	DW	02H
	DW	02H
	DW	02H
	DW	04H
	DW	04H
	DW	012H
	DW	0cH
	DW	05cH
	DW	02H
	DW	0aH
	DW	04H
	DW	03H
	DW	0eH
	DW	05H
	DW	019H
	DW	010H
	DW	02aH
	DW	04H
	DW	0eH
	DW	04H
	DW	02H
	DW	015H
	DW	05H
	DW	07eH
	DW	01eH
	DW	01fH
	DW	02H
	DW	01H
	DW	05H
	DW	0dH
	DW	03H
	DW	016H
	DW	05H
	DW	06H
	DW	06H
	DW	014H
	DW	0cH
	DW	01H
	DW	0eH
	DW	0cH
	DW	057H
	DW	03H
	DW	013H
	DW	01H
	DW	08H
	DW	02H
	DW	09H
	DW	09H
	DW	03H
	DW	03H
	DW	017H
	DW	02H
	DW	03H
	DW	07H
	DW	06H
	DW	03H
	DW	01H
	DW	02H
	DW	03H
	DW	09H
	DW	01H
	DW	03H
	DW	01H
	DW	06H
	DW	03H
	DW	02H
	DW	01H
	DW	03H
	DW	0bH
	DW	03H
	DW	01H
	DW	06H
	DW	0aH
	DW	03H
	DW	02H
	DW	03H
	DW	01H
	DW	02H
	DW	01H
	DW	05H
	DW	01H
	DW	01H
	DW	0bH
	DW	03H
	DW	06H
	DW	04H
	DW	01H
	DW	07H
	DW	02H
	DW	01H
	DW	02H
	DW	05H
	DW	05H
	DW	022H
	DW	04H
	DW	0eH
	DW	012H
	DW	04H
	DW	013H
	DW	07H
	DW	05H
	DW	08H
	DW	02H
	DW	06H
	DW	04fH
	DW	01H
	DW	05H
	DW	02H
	DW	0eH
	DW	08H
	DW	02H
	DW	09H
	DW	02H
	DW	01H
	DW	024H
	DW	01cH
	DW	010H
	DW	04H
	DW	01H
	DW	01H
	DW	01H
	DW	02H
	DW	0cH
	DW	06H
	DW	02aH
	DW	027H
	DW	010H
	DW	017H
	DW	07H
	DW	0fH
	DW	0fH
	DW	03H
	DW	02H
	DW	0cH
	DW	07H
	DW	015H
	DW	040H
	DW	06H
	DW	09H
	DW	01cH
	DW	08H
	DW	0cH
	DW	03H
	DW	03H
	DW	029H
	DW	03bH
	DW	018H
	DW	033H
	DW	037H
	DW	039H
	DW	0126H
	DW	09H
	DW	09H
	DW	02H
	DW	06H
	DW	02H
	DW	0fH
	DW	01H
	DW	02H
	DW	0dH
	DW	026H
	DW	05aH
	DW	09H
	DW	09H
	DW	09H
	DW	03H
	DW	0bH
	DW	07H
	DW	01H
	DW	01H
	DW	01H
	DW	05H
	DW	06H
	DW	03H
	DW	02H
	DW	01H
	DW	02H
	DW	02H
	DW	03H
	DW	08H
	DW	01H
	DW	04H
	DW	04H
	DW	01H
	DW	05H
	DW	07H
	DW	01H
	DW	04H
	DW	03H
	DW	014H
	DW	04H
	DW	09H
	DW	01H
	DW	01H
	DW	01H
	DW	05H
	DW	05H
	DW	011H
	DW	01H
	DW	05H
	DW	02H
	DW	06H
	DW	02H
	DW	04H
	DW	01H
	DW	04H
	DW	05H
	DW	07H
	DW	03H
	DW	012H
	DW	0bH
	DW	0bH
	DW	020H
	DW	07H
	DW	05H
	DW	04H
	DW	07H
	DW	0bH
	DW	07fH
	DW	08H
	DW	04H
	DW	03H
	DW	03H
	DW	01H
	DW	0aH
	DW	01H
	DW	01H
	DW	06H
	DW	015H
	DW	0eH
	DW	01H
	DW	010H
	DW	01H
	DW	07H
	DW	01H
	DW	03H
	DW	06H
	DW	09H
	DW	041H
	DW	033H
	DW	04H
	DW	03H
	DW	0dH
	DW	03H
	DW	0aH
	DW	01H
	DW	01H
	DW	0cH
	DW	09H
	DW	015H
	DW	06eH
	DW	03H
	DW	013H
	DW	018H
	DW	01H
	DW	01H
	DW	0aH
	DW	03eH
	DW	04H
	DW	01H
	DW	01dH
	DW	02aH
	DW	04eH
	DW	01cH
	DW	014H
	DW	012H
	DW	052H
	DW	06H
	DW	03H
	DW	0fH
	DW	06H
	DW	054H
	DW	03aH
	DW	0fdH
	DW	0fH
	DW	09bH
	DW	0108H
	DW	0fH
	DW	015H
	DW	09H
	DW	0eH
	DW	07H
	DW	03aH
	DW	028H
	DW	027H
CONST	ENDS
;	COMDAT ?base_ranges@?1??GetGlyphRangesChineseSimplifiedCommon@ImFontAtlas@@QEAAPEBGXZ@4PAGA
_DATA	SEGMENT
?base_ranges@?1??GetGlyphRangesChineseSimplifiedCommon@ImFontAtlas@@QEAAPEBGXZ@4PAGA DW 020H ; `ImFontAtlas::GetGlyphRangesChineseSimplifiedCommon'::`2'::base_ranges
	DW	0ffH
	DW	02000H
	DW	0206fH
	DW	03000H
	DW	030ffH
	DW	031f0H
	DW	031ffH
	DW	0ff00H
	DW	0ffefH
_DATA	ENDS
;	COMDAT ?accumulative_offsets_from_0x4E00@?1??GetGlyphRangesChineseSimplifiedCommon@ImFontAtlas@@QEAAPEBGXZ@4QBFB
CONST	SEGMENT
?accumulative_offsets_from_0x4E00@?1??GetGlyphRangesChineseSimplifiedCommon@ImFontAtlas@@QEAAPEBGXZ@4QBFB DW 00H ; `ImFontAtlas::GetGlyphRangesChineseSimplifiedCommon'::`2'::accumulative_offsets_from_0x4E00
	DW	01H
	DW	02H
	DW	04H
	DW	01H
	DW	01H
	DW	01H
	DW	01H
	DW	02H
	DW	01H
	DW	03H
	DW	02H
	DW	01H
	DW	02H
	DW	02H
	DW	01H
	DW	01H
	DW	01H
	DW	01H
	DW	01H
	DW	05H
	DW	02H
	DW	01H
	DW	02H
	DW	03H
	DW	03H
	DW	03H
	DW	02H
	DW	02H
	DW	04H
	DW	01H
	DW	01H
	DW	01H
	DW	02H
	DW	01H
	DW	05H
	DW	02H
	DW	03H
	DW	01H
	DW	02H
	DW	01H
	DW	02H
	DW	01H
	DW	01H
	DW	02H
	DW	01H
	DW	01H
	DW	02H
	DW	02H
	DW	01H
	DW	04H
	DW	01H
	DW	01H
	DW	01H
	DW	01H
	DW	05H
	DW	0aH
	DW	01H
	DW	02H
	DW	013H
	DW	02H
	DW	01H
	DW	02H
	DW	01H
	DW	02H
	DW	01H
	DW	02H
	DW	01H
	DW	02H
	DW	01H
	DW	05H
	DW	01H
	DW	06H
	DW	03H
	DW	02H
	DW	01H
	DW	02H
	DW	02H
	DW	01H
	DW	01H
	DW	01H
	DW	04H
	DW	08H
	DW	05H
	DW	01H
	DW	01H
	DW	04H
	DW	01H
	DW	01H
	DW	03H
	DW	01H
	DW	02H
	DW	01H
	DW	05H
	DW	01H
	DW	02H
	DW	01H
	DW	01H
	DW	01H
	DW	0aH
	DW	01H
	DW	01H
	DW	05H
	DW	02H
	DW	04H
	DW	06H
	DW	01H
	DW	04H
	DW	02H
	DW	02H
	DW	02H
	DW	0cH
	DW	02H
	DW	01H
	DW	01H
	DW	06H
	DW	01H
	DW	01H
	DW	01H
	DW	04H
	DW	01H
	DW	01H
	DW	04H
	DW	06H
	DW	05H
	DW	01H
	DW	04H
	DW	02H
	DW	02H
	DW	04H
	DW	0aH
	DW	07H
	DW	01H
	DW	01H
	DW	04H
	DW	02H
	DW	04H
	DW	02H
	DW	01H
	DW	04H
	DW	03H
	DW	06H
	DW	0aH
	DW	0cH
	DW	05H
	DW	07H
	DW	02H
	DW	0eH
	DW	02H
	DW	09H
	DW	01H
	DW	01H
	DW	06H
	DW	07H
	DW	0aH
	DW	04H
	DW	07H
	DW	0dH
	DW	01H
	DW	05H
	DW	04H
	DW	08H
	DW	04H
	DW	01H
	DW	01H
	DW	02H
	DW	01cH
	DW	05H
	DW	06H
	DW	01H
	DW	01H
	DW	05H
	DW	02H
	DW	05H
	DW	014H
	DW	02H
	DW	02H
	DW	09H
	DW	08H
	DW	0bH
	DW	02H
	DW	09H
	DW	011H
	DW	01H
	DW	08H
	DW	06H
	DW	08H
	DW	01bH
	DW	04H
	DW	06H
	DW	09H
	DW	014H
	DW	0bH
	DW	01bH
	DW	06H
	DW	044H
	DW	02H
	DW	02H
	DW	01H
	DW	01H
	DW	01H
	DW	02H
	DW	01H
	DW	02H
	DW	02H
	DW	07H
	DW	06H
	DW	0bH
	DW	03H
	DW	03H
	DW	01H
	DW	01H
	DW	03H
	DW	01H
	DW	02H
	DW	01H
	DW	01H
	DW	01H
	DW	01H
	DW	01H
	DW	03H
	DW	01H
	DW	01H
	DW	08H
	DW	03H
	DW	04H
	DW	01H
	DW	05H
	DW	07H
	DW	02H
	DW	01H
	DW	04H
	DW	04H
	DW	08H
	DW	04H
	DW	02H
	DW	01H
	DW	02H
	DW	01H
	DW	01H
	DW	04H
	DW	05H
	DW	06H
	DW	03H
	DW	06H
	DW	02H
	DW	0cH
	DW	03H
	DW	01H
	DW	03H
	DW	09H
	DW	02H
	DW	04H
	DW	03H
	DW	04H
	DW	01H
	DW	05H
	DW	03H
	DW	03H
	DW	01H
	DW	03H
	DW	07H
	DW	01H
	DW	05H
	DW	01H
	DW	01H
	DW	01H
	DW	01H
	DW	02H
	DW	03H
	DW	04H
	DW	05H
	DW	02H
	DW	03H
	DW	02H
	DW	06H
	DW	01H
	DW	01H
	DW	02H
	DW	01H
	DW	07H
	DW	01H
	DW	07H
	DW	03H
	DW	04H
	DW	05H
	DW	0fH
	DW	02H
	DW	02H
	DW	01H
	DW	05H
	DW	03H
	DW	016H
	DW	013H
	DW	02H
	DW	01H
	DW	01H
	DW	01H
	DW	01H
	DW	02H
	DW	05H
	DW	01H
	DW	01H
	DW	01H
	DW	06H
	DW	01H
	DW	01H
	DW	0cH
	DW	08H
	DW	02H
	DW	09H
	DW	012H
	DW	016H
	DW	04H
	DW	01H
	DW	01H
	DW	05H
	DW	01H
	DW	010H
	DW	01H
	DW	02H
	DW	07H
	DW	0aH
	DW	0fH
	DW	01H
	DW	01H
	DW	06H
	DW	02H
	DW	04H
	DW	01H
	DW	02H
	DW	04H
	DW	01H
	DW	06H
	DW	01H
	DW	01H
	DW	03H
	DW	02H
	DW	04H
	DW	01H
	DW	06H
	DW	04H
	DW	05H
	DW	01H
	DW	02H
	DW	01H
	DW	01H
	DW	02H
	DW	01H
	DW	0aH
	DW	03H
	DW	01H
	DW	03H
	DW	02H
	DW	01H
	DW	09H
	DW	03H
	DW	02H
	DW	05H
	DW	07H
	DW	02H
	DW	013H
	DW	04H
	DW	03H
	DW	06H
	DW	01H
	DW	01H
	DW	01H
	DW	01H
	DW	01H
	DW	04H
	DW	03H
	DW	02H
	DW	01H
	DW	01H
	DW	01H
	DW	02H
	DW	05H
	DW	03H
	DW	01H
	DW	01H
	DW	01H
	DW	02H
	DW	02H
	DW	01H
	DW	01H
	DW	02H
	DW	01H
	DW	01H
	DW	02H
	DW	01H
	DW	03H
	DW	01H
	DW	01H
	DW	01H
	DW	03H
	DW	07H
	DW	01H
	DW	04H
	DW	01H
	DW	01H
	DW	02H
	DW	01H
	DW	01H
	DW	02H
	DW	01H
	DW	02H
	DW	04H
	DW	04H
	DW	03H
	DW	08H
	DW	01H
	DW	01H
	DW	01H
	DW	02H
	DW	01H
	DW	03H
	DW	05H
	DW	01H
	DW	03H
	DW	01H
	DW	03H
	DW	04H
	DW	06H
	DW	02H
	DW	02H
	DW	0eH
	DW	04H
	DW	06H
	DW	06H
	DW	0bH
	DW	09H
	DW	01H
	DW	0fH
	DW	03H
	DW	01H
	DW	01cH
	DW	05H
	DW	02H
	DW	05H
	DW	05H
	DW	03H
	DW	01H
	DW	03H
	DW	04H
	DW	05H
	DW	04H
	DW	06H
	DW	0eH
	DW	03H
	DW	02H
	DW	03H
	DW	05H
	DW	015H
	DW	02H
	DW	07H
	DW	014H
	DW	0aH
	DW	01H
	DW	02H
	DW	013H
	DW	02H
	DW	04H
	DW	01cH
	DW	01cH
	DW	02H
	DW	03H
	DW	02H
	DW	01H
	DW	0eH
	DW	04H
	DW	01H
	DW	01aH
	DW	01cH
	DW	02aH
	DW	0cH
	DW	028H
	DW	03H
	DW	034H
	DW	04fH
	DW	05H
	DW	0eH
	DW	011H
	DW	03H
	DW	02H
	DW	02H
	DW	0bH
	DW	03H
	DW	04H
	DW	06H
	DW	03H
	DW	01H
	DW	08H
	DW	02H
	DW	017H
	DW	04H
	DW	05H
	DW	08H
	DW	0aH
	DW	04H
	DW	02H
	DW	07H
	DW	03H
	DW	05H
	DW	01H
	DW	01H
	DW	06H
	DW	03H
	DW	01H
	DW	02H
	DW	02H
	DW	02H
	DW	05H
	DW	01cH
	DW	01H
	DW	01H
	DW	07H
	DW	07H
	DW	014H
	DW	05H
	DW	03H
	DW	01dH
	DW	03H
	DW	011H
	DW	01aH
	DW	01H
	DW	08H
	DW	04H
	DW	01bH
	DW	03H
	DW	06H
	DW	0bH
	DW	017H
	DW	05H
	DW	03H
	DW	04H
	DW	06H
	DW	0dH
	DW	018H
	DW	010H
	DW	06H
	DW	05H
	DW	0aH
	DW	019H
	DW	023H
	DW	07H
	DW	03H
	DW	02H
	DW	03H
	DW	03H
	DW	0eH
	DW	03H
	DW	06H
	DW	02H
	DW	06H
	DW	01H
	DW	04H
	DW	02H
	DW	03H
	DW	08H
	DW	02H
	DW	01H
	DW	01H
	DW	03H
	DW	03H
	DW	03H
	DW	04H
	DW	01H
	DW	01H
	DW	0dH
	DW	02H
	DW	02H
	DW	04H
	DW	05H
	DW	02H
	DW	01H
	DW	0eH
	DW	0eH
	DW	01H
	DW	02H
	DW	02H
	DW	01H
	DW	04H
	DW	05H
	DW	02H
	DW	03H
	DW	01H
	DW	0eH
	DW	03H
	DW	0cH
	DW	03H
	DW	011H
	DW	02H
	DW	010H
	DW	05H
	DW	01H
	DW	02H
	DW	01H
	DW	08H
	DW	09H
	DW	03H
	DW	013H
	DW	04H
	DW	02H
	DW	02H
	DW	04H
	DW	011H
	DW	019H
	DW	015H
	DW	014H
	DW	01cH
	DW	04bH
	DW	01H
	DW	0aH
	DW	01dH
	DW	067H
	DW	04H
	DW	01H
	DW	02H
	DW	01H
	DW	01H
	DW	04H
	DW	02H
	DW	04H
	DW	01H
	DW	02H
	DW	03H
	DW	018H
	DW	02H
	DW	02H
	DW	02H
	DW	01H
	DW	01H
	DW	02H
	DW	01H
	DW	03H
	DW	08H
	DW	01H
	DW	01H
	DW	01H
	DW	02H
	DW	01H
	DW	01H
	DW	03H
	DW	01H
	DW	01H
	DW	01H
	DW	06H
	DW	01H
	DW	05H
	DW	03H
	DW	01H
	DW	01H
	DW	01H
	DW	03H
	DW	04H
	DW	01H
	DW	01H
	DW	05H
	DW	02H
	DW	01H
	DW	05H
	DW	06H
	DW	0dH
	DW	09H
	DW	010H
	DW	01H
	DW	01H
	DW	01H
	DW	01H
	DW	03H
	DW	02H
	DW	03H
	DW	02H
	DW	04H
	DW	05H
	DW	02H
	DW	05H
	DW	02H
	DW	02H
	DW	03H
	DW	07H
	DW	0dH
	DW	07H
	DW	02H
	DW	02H
	DW	01H
	DW	01H
	DW	01H
	DW	01H
	DW	02H
	DW	03H
	DW	03H
	DW	02H
	DW	01H
	DW	06H
	DW	04H
	DW	09H
	DW	02H
	DW	01H
	DW	0eH
	DW	02H
	DW	0eH
	DW	02H
	DW	01H
	DW	012H
	DW	03H
	DW	04H
	DW	0eH
	DW	04H
	DW	0bH
	DW	029H
	DW	0fH
	DW	017H
	DW	0fH
	DW	017H
	DW	0b0H
	DW	01H
	DW	03H
	DW	04H
	DW	01H
	DW	01H
	DW	01H
	DW	01H
	DW	05H
	DW	03H
	DW	01H
	DW	02H
	DW	03H
	DW	07H
	DW	03H
	DW	01H
	DW	01H
	DW	02H
	DW	01H
	DW	02H
	DW	04H
	DW	04H
	DW	06H
	DW	02H
	DW	04H
	DW	01H
	DW	09H
	DW	07H
	DW	01H
	DW	0aH
	DW	05H
	DW	08H
	DW	010H
	DW	01dH
	DW	01H
	DW	01H
	DW	02H
	DW	02H
	DW	03H
	DW	01H
	DW	03H
	DW	05H
	DW	02H
	DW	04H
	DW	05H
	DW	04H
	DW	01H
	DW	01H
	DW	02H
	DW	02H
	DW	03H
	DW	03H
	DW	07H
	DW	01H
	DW	06H
	DW	0aH
	DW	01H
	DW	011H
	DW	01H
	DW	02cH
	DW	04H
	DW	06H
	DW	02H
	DW	01H
	DW	01H
	DW	06H
	DW	05H
	DW	04H
	DW	02H
	DW	0aH
	DW	01H
	DW	06H
	DW	09H
	DW	02H
	DW	08H
	DW	01H
	DW	018H
	DW	01H
	DW	02H
	DW	0dH
	DW	07H
	DW	08H
	DW	08H
	DW	02H
	DW	01H
	DW	04H
	DW	01H
	DW	03H
	DW	01H
	DW	03H
	DW	03H
	DW	05H
	DW	02H
	DW	05H
	DW	0aH
	DW	09H
	DW	04H
	DW	09H
	DW	0cH
	DW	02H
	DW	01H
	DW	06H
	DW	01H
	DW	0aH
	DW	01H
	DW	01H
	DW	07H
	DW	07H
	DW	04H
	DW	0aH
	DW	08H
	DW	03H
	DW	01H
	DW	0dH
	DW	04H
	DW	03H
	DW	01H
	DW	06H
	DW	01H
	DW	03H
	DW	05H
	DW	02H
	DW	01H
	DW	02H
	DW	011H
	DW	010H
	DW	05H
	DW	02H
	DW	010H
	DW	06H
	DW	01H
	DW	04H
	DW	02H
	DW	01H
	DW	03H
	DW	03H
	DW	06H
	DW	08H
	DW	05H
	DW	0bH
	DW	0bH
	DW	01H
	DW	03H
	DW	03H
	DW	02H
	DW	04H
	DW	06H
	DW	0aH
	DW	09H
	DW	05H
	DW	07H
	DW	04H
	DW	07H
	DW	04H
	DW	07H
	DW	01H
	DW	01H
	DW	04H
	DW	02H
	DW	01H
	DW	03H
	DW	06H
	DW	08H
	DW	07H
	DW	01H
	DW	06H
	DW	0bH
	DW	05H
	DW	05H
	DW	03H
	DW	018H
	DW	09H
	DW	04H
	DW	02H
	DW	07H
	DW	0dH
	DW	05H
	DW	01H
	DW	08H
	DW	052H
	DW	010H
	DW	03dH
	DW	01H
	DW	01H
	DW	01H
	DW	04H
	DW	02H
	DW	02H
	DW	010H
	DW	0aH
	DW	03H
	DW	08H
	DW	01H
	DW	01H
	DW	06H
	DW	04H
	DW	02H
	DW	01H
	DW	03H
	DW	01H
	DW	01H
	DW	01H
	DW	04H
	DW	03H
	DW	08H
	DW	04H
	DW	02H
	DW	02H
	DW	01H
	DW	01H
	DW	01H
	DW	01H
	DW	01H
	DW	06H
	DW	03H
	DW	05H
	DW	01H
	DW	01H
	DW	04H
	DW	06H
	DW	09H
	DW	02H
	DW	01H
	DW	01H
	DW	01H
	DW	02H
	DW	01H
	DW	07H
	DW	02H
	DW	01H
	DW	06H
	DW	01H
	DW	05H
	DW	04H
	DW	04H
	DW	03H
	DW	01H
	DW	08H
	DW	01H
	DW	03H
	DW	03H
	DW	01H
	DW	03H
	DW	02H
	DW	02H
	DW	02H
	DW	02H
	DW	03H
	DW	01H
	DW	06H
	DW	01H
	DW	02H
	DW	01H
	DW	02H
	DW	01H
	DW	03H
	DW	07H
	DW	01H
	DW	08H
	DW	02H
	DW	01H
	DW	02H
	DW	01H
	DW	05H
	DW	02H
	DW	05H
	DW	03H
	DW	05H
	DW	0aH
	DW	01H
	DW	02H
	DW	01H
	DW	01H
	DW	03H
	DW	02H
	DW	05H
	DW	0bH
	DW	03H
	DW	09H
	DW	03H
	DW	05H
	DW	01H
	DW	01H
	DW	05H
	DW	09H
	DW	01H
	DW	02H
	DW	01H
	DW	05H
	DW	07H
	DW	09H
	DW	09H
	DW	08H
	DW	01H
	DW	03H
	DW	03H
	DW	03H
	DW	06H
	DW	08H
	DW	02H
	DW	03H
	DW	02H
	DW	01H
	DW	01H
	DW	020H
	DW	06H
	DW	01H
	DW	02H
	DW	0fH
	DW	09H
	DW	03H
	DW	07H
	DW	0dH
	DW	01H
	DW	03H
	DW	0aH
	DW	0dH
	DW	02H
	DW	0eH
	DW	01H
	DW	0dH
	DW	0aH
	DW	02H
	DW	01H
	DW	03H
	DW	0aH
	DW	04H
	DW	0fH
	DW	02H
	DW	0fH
	DW	0fH
	DW	0aH
	DW	01H
	DW	03H
	DW	09H
	DW	06H
	DW	09H
	DW	020H
	DW	019H
	DW	01aH
	DW	02fH
	DW	07H
	DW	03H
	DW	02H
	DW	03H
	DW	01H
	DW	06H
	DW	03H
	DW	04H
	DW	03H
	DW	02H
	DW	08H
	DW	05H
	DW	04H
	DW	01H
	DW	09H
	DW	04H
	DW	02H
	DW	02H
	DW	013H
	DW	0aH
	DW	06H
	DW	02H
	DW	03H
	DW	08H
	DW	01H
	DW	02H
	DW	02H
	DW	04H
	DW	02H
	DW	01H
	DW	09H
	DW	04H
	DW	04H
	DW	04H
	DW	06H
	DW	04H
	DW	08H
	DW	09H
	DW	02H
	DW	03H
	DW	01H
	DW	01H
	DW	01H
	DW	01H
	DW	03H
	DW	05H
	DW	05H
	DW	01H
	DW	03H
	DW	08H
	DW	04H
	DW	06H
	DW	02H
	DW	01H
	DW	04H
	DW	0cH
	DW	01H
	DW	05H
	DW	03H
	DW	07H
	DW	0dH
	DW	02H
	DW	05H
	DW	08H
	DW	01H
	DW	06H
	DW	01H
	DW	02H
	DW	05H
	DW	0eH
	DW	06H
	DW	01H
	DW	05H
	DW	02H
	DW	04H
	DW	08H
	DW	0fH
	DW	05H
	DW	01H
	DW	017H
	DW	06H
	DW	03eH
	DW	02H
	DW	0aH
	DW	01H
	DW	01H
	DW	08H
	DW	01H
	DW	02H
	DW	02H
	DW	0aH
	DW	04H
	DW	02H
	DW	02H
	DW	09H
	DW	02H
	DW	01H
	DW	01H
	DW	03H
	DW	02H
	DW	03H
	DW	01H
	DW	05H
	DW	03H
	DW	03H
	DW	02H
	DW	01H
	DW	03H
	DW	08H
	DW	01H
	DW	01H
	DW	01H
	DW	0bH
	DW	03H
	DW	01H
	DW	01H
	DW	04H
	DW	03H
	DW	07H
	DW	01H
	DW	0eH
	DW	01H
	DW	02H
	DW	03H
	DW	0cH
	DW	05H
	DW	02H
	DW	05H
	DW	01H
	DW	06H
	DW	07H
	DW	05H
	DW	07H
	DW	0eH
	DW	0bH
	DW	01H
	DW	03H
	DW	01H
	DW	08H
	DW	09H
	DW	0cH
	DW	02H
	DW	01H
	DW	0bH
	DW	08H
	DW	04H
	DW	04H
	DW	02H
	DW	06H
	DW	0aH
	DW	09H
	DW	0dH
	DW	01H
	DW	01H
	DW	03H
	DW	01H
	DW	05H
	DW	01H
	DW	03H
	DW	02H
	DW	04H
	DW	04H
	DW	01H
	DW	012H
	DW	02H
	DW	03H
	DW	0eH
	DW	0bH
	DW	04H
	DW	01dH
	DW	04H
	DW	02H
	DW	07H
	DW	01H
	DW	03H
	DW	0dH
	DW	09H
	DW	02H
	DW	02H
	DW	05H
	DW	03H
	DW	05H
	DW	014H
	DW	07H
	DW	010H
	DW	08H
	DW	05H
	DW	048H
	DW	022H
	DW	06H
	DW	04H
	DW	016H
	DW	0cH
	DW	0cH
	DW	01cH
	DW	02dH
	DW	024H
	DW	09H
	DW	07H
	DW	027H
	DW	09H
	DW	0bfH
	DW	01H
	DW	01H
	DW	01H
	DW	04H
	DW	0bH
	DW	08H
	DW	04H
	DW	09H
	DW	02H
	DW	03H
	DW	016H
	DW	01H
	DW	01H
	DW	01H
	DW	01H
	DW	04H
	DW	011H
	DW	01H
	DW	07H
	DW	07H
	DW	01H
	DW	0bH
	DW	01fH
	DW	0aH
	DW	02H
	DW	04H
	DW	08H
	DW	02H
	DW	03H
	DW	02H
	DW	01H
	DW	04H
	DW	02H
	DW	010H
	DW	04H
	DW	020H
	DW	02H
	DW	03H
	DW	013H
	DW	0dH
	DW	04H
	DW	09H
	DW	01H
	DW	05H
	DW	02H
	DW	0eH
	DW	08H
	DW	01H
	DW	01H
	DW	03H
	DW	06H
	DW	013H
	DW	06H
	DW	05H
	DW	01H
	DW	010H
	DW	06H
	DW	02H
	DW	0aH
	DW	08H
	DW	05H
	DW	01H
	DW	02H
	DW	03H
	DW	01H
	DW	05H
	DW	05H
	DW	01H
	DW	0bH
	DW	06H
	DW	06H
	DW	01H
	DW	03H
	DW	03H
	DW	02H
	DW	06H
	DW	03H
	DW	08H
	DW	01H
	DW	01H
	DW	04H
	DW	0aH
	DW	07H
	DW	05H
	DW	07H
	DW	07H
	DW	05H
	DW	08H
	DW	09H
	DW	02H
	DW	01H
	DW	03H
	DW	04H
	DW	01H
	DW	01H
	DW	03H
	DW	01H
	DW	03H
	DW	03H
	DW	02H
	DW	06H
	DW	010H
	DW	01H
	DW	04H
	DW	06H
	DW	03H
	DW	01H
	DW	0aH
	DW	06H
	DW	01H
	DW	03H
	DW	0fH
	DW	02H
	DW	09H
	DW	02H
	DW	0aH
	DW	019H
	DW	0dH
	DW	09H
	DW	010H
	DW	06H
	DW	02H
	DW	02H
	DW	0aH
	DW	0bH
	DW	04H
	DW	03H
	DW	09H
	DW	01H
	DW	02H
	DW	06H
	DW	06H
	DW	05H
	DW	04H
	DW	01eH
	DW	028H
	DW	01H
	DW	0aH
	DW	07H
	DW	0cH
	DW	0eH
	DW	021H
	DW	06H
	DW	03H
	DW	06H
	DW	07H
	DW	03H
	DW	01H
	DW	03H
	DW	01H
	DW	0bH
	DW	0eH
	DW	04H
	DW	09H
	DW	05H
	DW	0cH
	DW	0bH
	DW	031H
	DW	012H
	DW	033H
	DW	01fH
	DW	08cH
	DW	01fH
	DW	02H
	DW	02H
	DW	01H
	DW	05H
	DW	01H
	DW	08H
	DW	01H
	DW	0aH
	DW	01H
	DW	04H
	DW	04H
	DW	03H
	DW	018H
	DW	01H
	DW	0aH
	DW	01H
	DW	03H
	DW	06H
	DW	06H
	DW	010H
	DW	03H
	DW	04H
	DW	05H
	DW	02H
	DW	01H
	DW	04H
	DW	02H
	DW	039H
	DW	0aH
	DW	06H
	DW	016H
	DW	02H
	DW	016H
	DW	03H
	DW	07H
	DW	016H
	DW	06H
	DW	0aH
	DW	0bH
	DW	024H
	DW	012H
	DW	010H
	DW	021H
	DW	024H
	DW	02H
	DW	05H
	DW	05H
	DW	01H
	DW	01H
	DW	01H
	DW	04H
	DW	0aH
	DW	01H
	DW	04H
	DW	0dH
	DW	02H
	DW	07H
	DW	05H
	DW	02H
	DW	09H
	DW	03H
	DW	04H
	DW	01H
	DW	07H
	DW	02bH
	DW	03H
	DW	07H
	DW	03H
	DW	09H
	DW	0eH
	DW	07H
	DW	09H
	DW	01H
	DW	0bH
	DW	01H
	DW	01H
	DW	03H
	DW	07H
	DW	04H
	DW	012H
	DW	0dH
	DW	01H
	DW	0eH
	DW	01H
	DW	03H
	DW	06H
	DW	0aH
	DW	049H
	DW	02H
	DW	02H
	DW	01eH
	DW	06H
	DW	01H
	DW	0bH
	DW	012H
	DW	013H
	DW	0dH
	DW	016H
	DW	03H
	DW	02eH
	DW	02aH
	DW	025H
	DW	059H
	DW	07H
	DW	03H
	DW	010H
	DW	022H
	DW	02H
	DW	02H
	DW	03H
	DW	09H
	DW	01H
	DW	07H
	DW	01H
	DW	01H
	DW	01H
	DW	02H
	DW	02H
	DW	04H
	DW	0aH
	DW	07H
	DW	03H
	DW	0aH
	DW	03H
	DW	09H
	DW	05H
	DW	01cH
	DW	09H
	DW	02H
	DW	06H
	DW	0dH
	DW	07H
	DW	03H
	DW	01H
	DW	03H
	DW	0aH
	DW	02H
	DW	07H
	DW	02H
	DW	0bH
	DW	03H
	DW	06H
	DW	015H
	DW	036H
	DW	055H
	DW	02H
	DW	01H
	DW	04H
	DW	02H
	DW	02H
	DW	01H
	DW	027H
	DW	03H
	DW	015H
	DW	02H
	DW	02H
	DW	05H
	DW	01H
	DW	01H
	DW	01H
	DW	04H
	DW	01H
	DW	01H
	DW	03H
	DW	04H
	DW	0fH
	DW	01H
	DW	03H
	DW	02H
	DW	04H
	DW	04H
	DW	02H
	DW	03H
	DW	08H
	DW	02H
	DW	014H
	DW	01H
	DW	08H
	DW	07H
	DW	0dH
	DW	04H
	DW	01H
	DW	01aH
	DW	06H
	DW	02H
	DW	09H
	DW	022H
	DW	04H
	DW	015H
	DW	034H
	DW	0aH
	DW	04H
	DW	04H
	DW	01H
	DW	05H
	DW	0cH
	DW	02H
	DW	0bH
	DW	01H
	DW	07H
	DW	02H
	DW	01eH
	DW	0cH
	DW	02cH
	DW	02H
	DW	01eH
	DW	01H
	DW	01H
	DW	03H
	DW	06H
	DW	010H
	DW	09H
	DW	011H
	DW	027H
	DW	052H
	DW	02H
	DW	02H
	DW	018H
	DW	07H
	DW	01H
	DW	07H
	DW	03H
	DW	010H
	DW	09H
	DW	0eH
	DW	02cH
	DW	02H
	DW	01H
	DW	02H
	DW	01H
	DW	02H
	DW	03H
	DW	05H
	DW	02H
	DW	04H
	DW	01H
	DW	06H
	DW	07H
	DW	05H
	DW	03H
	DW	02H
	DW	06H
	DW	01H
	DW	0bH
	DW	05H
	DW	0bH
	DW	02H
	DW	01H
	DW	012H
	DW	013H
	DW	08H
	DW	01H
	DW	03H
	DW	018H
	DW	01dH
	DW	02H
	DW	01H
	DW	03H
	DW	05H
	DW	02H
	DW	02H
	DW	01H
	DW	0dH
	DW	06H
	DW	05H
	DW	01H
	DW	02eH
	DW	0bH
	DW	03H
	DW	05H
	DW	01H
	DW	01H
	DW	05H
	DW	08H
	DW	02H
	DW	0aH
	DW	06H
	DW	0cH
	DW	06H
	DW	03H
	DW	07H
	DW	0bH
	DW	02H
	DW	04H
	DW	010H
	DW	0dH
	DW	02H
	DW	05H
	DW	01H
	DW	01H
	DW	02H
	DW	02H
	DW	05H
	DW	02H
	DW	01cH
	DW	05H
	DW	02H
	DW	017H
	DW	0aH
	DW	08H
	DW	04H
	DW	04H
	DW	016H
	DW	027H
	DW	05fH
	DW	026H
	DW	08H
	DW	0eH
	DW	09H
	DW	05H
	DW	01H
	DW	0dH
	DW	05H
	DW	04H
	DW	03H
	DW	0dH
	DW	0cH
	DW	0bH
	DW	01H
	DW	09H
	DW	01H
	DW	01bH
	DW	025H
	DW	02H
	DW	05H
	DW	04H
	DW	04H
	DW	03fH
	DW	0d3H
	DW	05fH
	DW	02H
	DW	02H
	DW	02H
	DW	01H
	DW	03H
	DW	05H
	DW	02H
	DW	01H
	DW	01H
	DW	02H
	DW	02H
	DW	01H
	DW	01H
	DW	01H
	DW	03H
	DW	02H
	DW	04H
	DW	01H
	DW	02H
	DW	01H
	DW	01H
	DW	05H
	DW	02H
	DW	02H
	DW	01H
	DW	01H
	DW	02H
	DW	03H
	DW	01H
	DW	03H
	DW	01H
	DW	01H
	DW	01H
	DW	03H
	DW	01H
	DW	04H
	DW	02H
	DW	01H
	DW	03H
	DW	06H
	DW	01H
	DW	01H
	DW	03H
	DW	07H
	DW	0fH
	DW	05H
	DW	03H
	DW	02H
	DW	05H
	DW	03H
	DW	09H
	DW	0bH
	DW	04H
	DW	02H
	DW	016H
	DW	01H
	DW	06H
	DW	03H
	DW	08H
	DW	07H
	DW	01H
	DW	04H
	DW	01cH
	DW	04H
	DW	010H
	DW	03H
	DW	03H
	DW	019H
	DW	04H
	DW	04H
	DW	01bH
	DW	01bH
	DW	01H
	DW	04H
	DW	01H
	DW	02H
	DW	02H
	DW	07H
	DW	01H
	DW	03H
	DW	05H
	DW	02H
	DW	01cH
	DW	08H
	DW	02H
	DW	0eH
	DW	01H
	DW	08H
	DW	06H
	DW	010H
	DW	019H
	DW	03H
	DW	03H
	DW	03H
	DW	0eH
	DW	03H
	DW	03H
	DW	01H
	DW	01H
	DW	02H
	DW	01H
	DW	04H
	DW	06H
	DW	03H
	DW	08H
	DW	04H
	DW	01H
	DW	01H
	DW	01H
	DW	02H
	DW	03H
	DW	06H
	DW	0aH
	DW	06H
	DW	02H
	DW	03H
	DW	012H
	DW	03H
	DW	02H
	DW	05H
	DW	05H
	DW	04H
	DW	03H
	DW	01H
	DW	05H
	DW	02H
	DW	05H
	DW	04H
	DW	017H
	DW	07H
	DW	06H
	DW	0cH
	DW	06H
	DW	04H
	DW	011H
	DW	0bH
	DW	09H
	DW	05H
	DW	01H
	DW	01H
	DW	0aH
	DW	05H
	DW	0cH
	DW	01H
	DW	01H
	DW	0bH
	DW	01aH
	DW	021H
	DW	07H
	DW	03H
	DW	06H
	DW	01H
	DW	011H
	DW	07H
	DW	01H
	DW	05H
	DW	0cH
	DW	01H
	DW	0bH
	DW	02H
	DW	04H
	DW	01H
	DW	08H
	DW	0eH
	DW	011H
	DW	017H
	DW	01H
	DW	02H
	DW	01H
	DW	07H
	DW	08H
	DW	010H
	DW	0bH
	DW	09H
	DW	06H
	DW	05H
	DW	02H
	DW	06H
	DW	04H
	DW	010H
	DW	02H
	DW	08H
	DW	0eH
	DW	01H
	DW	0bH
	DW	08H
	DW	09H
	DW	01H
	DW	01H
	DW	01H
	DW	09H
	DW	019H
	DW	04H
	DW	0bH
	DW	013H
	DW	07H
	DW	02H
	DW	0fH
	DW	02H
	DW	0cH
	DW	08H
	DW	034H
	DW	07H
	DW	05H
	DW	013H
	DW	02H
	DW	010H
	DW	04H
	DW	024H
	DW	08H
	DW	01H
	DW	010H
	DW	08H
	DW	018H
	DW	01aH
	DW	04H
	DW	06H
	DW	02H
	DW	09H
	DW	05H
	DW	04H
	DW	024H
	DW	03H
	DW	01cH
	DW	0cH
	DW	019H
	DW	0fH
	DW	025H
	DW	01bH
	DW	011H
	DW	0cH
	DW	03bH
	DW	026H
	DW	05H
	DW	020H
	DW	07fH
	DW	01H
	DW	02H
	DW	09H
	DW	011H
	DW	0eH
	DW	04H
	DW	01H
	DW	02H
	DW	01H
	DW	01H
	DW	08H
	DW	0bH
	DW	032H
	DW	04H
	DW	0eH
	DW	02H
	DW	013H
	DW	010H
	DW	04H
	DW	011H
	DW	05H
	DW	04H
	DW	05H
	DW	01aH
	DW	0cH
	DW	02dH
	DW	02H
	DW	017H
	DW	02dH
	DW	068H
	DW	01eH
	DW	0cH
	DW	08H
	DW	03H
	DW	0aH
	DW	02H
	DW	02H
	DW	03H
	DW	03H
	DW	01H
	DW	04H
	DW	014H
	DW	07H
	DW	02H
	DW	09H
	DW	06H
	DW	0fH
	DW	02H
	DW	014H
	DW	01H
	DW	03H
	DW	010H
	DW	04H
	DW	0bH
	DW	0fH
	DW	06H
	DW	086H
	DW	02H
	DW	05H
	DW	03bH
	DW	01H
	DW	02H
	DW	02H
	DW	02H
	DW	01H
	DW	09H
	DW	011H
	DW	03H
	DW	01aH
	DW	089H
	DW	0aH
	DW	0d3H
	DW	03bH
	DW	01H
	DW	02H
	DW	04H
	DW	01H
	DW	04H
	DW	01H
	DW	01H
	DW	01H
	DW	02H
	DW	06H
	DW	02H
	DW	03H
	DW	01H
	DW	01H
	DW	02H
	DW	03H
	DW	02H
	DW	03H
	DW	01H
	DW	03H
	DW	04H
	DW	04H
	DW	02H
	DW	03H
	DW	03H
	DW	01H
	DW	04H
	DW	03H
	DW	01H
	DW	07H
	DW	02H
	DW	02H
	DW	03H
	DW	01H
	DW	02H
	DW	01H
	DW	03H
	DW	03H
	DW	03H
	DW	02H
	DW	02H
	DW	03H
	DW	02H
	DW	01H
	DW	03H
	DW	0eH
	DW	06H
	DW	01H
	DW	03H
	DW	02H
	DW	09H
	DW	06H
	DW	0fH
	DW	01bH
	DW	09H
	DW	022H
	DW	091H
	DW	01H
	DW	01H
	DW	02H
	DW	01H
	DW	01H
	DW	01H
	DW	01H
	DW	02H
	DW	01H
	DW	01H
	DW	01H
	DW	01H
	DW	02H
	DW	02H
	DW	02H
	DW	03H
	DW	01H
	DW	02H
	DW	01H
	DW	01H
	DW	01H
	DW	02H
	DW	03H
	DW	05H
	DW	08H
	DW	03H
	DW	05H
	DW	02H
	DW	04H
	DW	01H
	DW	03H
	DW	02H
	DW	02H
	DW	02H
	DW	0cH
	DW	04H
	DW	01H
	DW	01H
	DW	01H
	DW	0aH
	DW	04H
	DW	05H
	DW	01H
	DW	014H
	DW	04H
	DW	010H
	DW	01H
	DW	0fH
	DW	09H
	DW	05H
	DW	0cH
	DW	02H
	DW	09H
	DW	02H
	DW	05H
	DW	04H
	DW	02H
	DW	01aH
	DW	013H
	DW	07H
	DW	01H
	DW	01aH
	DW	04H
	DW	01eH
	DW	0cH
	DW	0fH
	DW	02aH
	DW	01H
	DW	06H
	DW	08H
	DW	0acH
	DW	01H
	DW	01H
	DW	04H
	DW	02H
	DW	01H
	DW	01H
	DW	0bH
	DW	02H
	DW	02H
	DW	04H
	DW	02H
	DW	01H
	DW	02H
	DW	01H
	DW	0aH
	DW	08H
	DW	01H
	DW	02H
	DW	01H
	DW	04H
	DW	05H
	DW	01H
	DW	02H
	DW	05H
	DW	01H
	DW	08H
	DW	04H
	DW	01H
	DW	03H
	DW	04H
	DW	02H
	DW	01H
	DW	06H
	DW	02H
	DW	01H
	DW	03H
	DW	04H
	DW	01H
	DW	02H
	DW	01H
	DW	01H
	DW	01H
	DW	01H
	DW	0cH
	DW	05H
	DW	07H
	DW	02H
	DW	04H
	DW	03H
	DW	01H
	DW	01H
	DW	01H
	DW	03H
	DW	03H
	DW	06H
	DW	01H
	DW	02H
	DW	02H
	DW	03H
	DW	03H
	DW	03H
	DW	02H
	DW	01H
	DW	02H
	DW	0cH
	DW	0eH
	DW	0bH
	DW	06H
	DW	06H
	DW	04H
	DW	0cH
	DW	02H
	DW	08H
	DW	01H
	DW	07H
	DW	0aH
	DW	01H
	DW	023H
	DW	07H
	DW	04H
	DW	0dH
	DW	0fH
	DW	04H
	DW	03H
	DW	017H
	DW	015H
	DW	01cH
	DW	034H
	DW	05H
	DW	01aH
	DW	05H
	DW	06H
	DW	01H
	DW	07H
	DW	0aH
	DW	02H
	DW	07H
	DW	035H
	DW	03H
	DW	02H
	DW	01H
	DW	01H
	DW	01H
	DW	02H
	DW	0a3H
	DW	0214H
	DW	01H
	DW	0aH
	DW	0bH
	DW	01H
	DW	03H
	DW	03H
	DW	04H
	DW	08H
	DW	02H
	DW	08H
	DW	06H
	DW	02H
	DW	02H
	DW	017H
	DW	016H
	DW	04H
	DW	02H
	DW	02H
	DW	04H
	DW	02H
	DW	01H
	DW	03H
	DW	01H
	DW	03H
	DW	03H
	DW	05H
	DW	09H
	DW	08H
	DW	02H
	DW	01H
	DW	02H
	DW	08H
	DW	01H
	DW	0aH
	DW	02H
	DW	0cH
	DW	015H
	DW	014H
	DW	0fH
	DW	069H
	DW	02H
	DW	03H
	DW	01H
	DW	01H
	DW	03H
	DW	02H
	DW	03H
	DW	01H
	DW	01H
	DW	02H
	DW	05H
	DW	01H
	DW	04H
	DW	0fH
	DW	0bH
	DW	013H
	DW	01H
	DW	01H
	DW	01H
	DW	01H
	DW	05H
	DW	04H
	DW	05H
	DW	01H
	DW	01H
	DW	02H
	DW	05H
	DW	03H
	DW	05H
	DW	0cH
	DW	01H
	DW	02H
	DW	05H
	DW	01H
	DW	0bH
	DW	01H
	DW	01H
	DW	0fH
	DW	09H
	DW	01H
	DW	04H
	DW	05H
	DW	03H
	DW	01aH
	DW	08H
	DW	02H
	DW	01H
	DW	03H
	DW	01H
	DW	01H
	DW	0fH
	DW	013H
	DW	02H
	DW	0cH
	DW	01H
	DW	02H
	DW	05H
	DW	02H
	DW	07H
	DW	02H
	DW	013H
	DW	02H
	DW	014H
	DW	06H
	DW	01aH
	DW	07H
	DW	05H
	DW	02H
	DW	02H
	DW	07H
	DW	022H
	DW	015H
	DW	0dH
	DW	046H
	DW	02H
	DW	080H
	DW	01H
	DW	01H
	DW	02H
	DW	01H
	DW	01H
	DW	02H
	DW	01H
	DW	01H
	DW	03H
	DW	02H
	DW	02H
	DW	02H
	DW	0fH
	DW	01H
	DW	04H
	DW	01H
	DW	03H
	DW	04H
	DW	02aH
	DW	0aH
	DW	06H
	DW	01H
	DW	031H
	DW	055H
	DW	08H
	DW	01H
	DW	02H
	DW	01H
	DW	01H
	DW	04H
	DW	04H
	DW	02H
	DW	03H
	DW	06H
	DW	01H
	DW	05H
	DW	07H
	DW	04H
	DW	03H
	DW	0d3H
	DW	04H
	DW	01H
	DW	02H
	DW	01H
	DW	02H
	DW	05H
	DW	01H
	DW	02H
	DW	04H
	DW	02H
	DW	02H
	DW	06H
	DW	05H
	DW	06H
	DW	0aH
	DW	03H
	DW	04H
	DW	030H
	DW	064H
	DW	06H
	DW	02H
	DW	010H
	DW	0128H
	DW	05H
	DW	01bH
	DW	0183H
	DW	02H
	DW	02H
	DW	03H
	DW	07H
	DW	010H
	DW	08H
	DW	05H
	DW	026H
	DW	0fH
	DW	027H
	DW	015H
	DW	09H
	DW	0aH
	DW	03H
	DW	07H
	DW	03bH
	DW	0dH
	DW	01bH
	DW	015H
	DW	02fH
	DW	05H
	DW	015H
	DW	06H
CONST	ENDS
;	COMDAT ?ranges@?1??GetGlyphRangesChineseFull@ImFontAtlas@@QEAAPEBGXZ@4QBGB
CONST	SEGMENT
?ranges@?1??GetGlyphRangesChineseFull@ImFontAtlas@@QEAAPEBGXZ@4QBGB DW 020H ; `ImFontAtlas::GetGlyphRangesChineseFull'::`2'::ranges
	DW	0ffH
	DW	02000H
	DW	0206fH
	DW	03000H
	DW	030ffH
	DW	031f0H
	DW	031ffH
	DW	0ff00H
	DW	0ffefH
	DW	04e00H
	DW	09fafH
	DW	00H
CONST	ENDS
;	COMDAT ?ranges@?1??GetGlyphRangesKorean@ImFontAtlas@@QEAAPEBGXZ@4QBGB
CONST	SEGMENT
?ranges@?1??GetGlyphRangesKorean@ImFontAtlas@@QEAAPEBGXZ@4QBGB DW 020H ; `ImFontAtlas::GetGlyphRangesKorean'::`2'::ranges
	DW	0ffH
	DW	03131H
	DW	03163H
	DW	0ac00H
	DW	0d79dH
	DW	00H
CONST	ENDS
;	COMDAT ?ranges@?1??GetGlyphRangesDefault@ImFontAtlas@@QEAAPEBGXZ@4QBGB
CONST	SEGMENT
?ranges@?1??GetGlyphRangesDefault@ImFontAtlas@@QEAAPEBGXZ@4QBGB DW 020H ; `ImFontAtlas::GetGlyphRangesDefault'::`2'::ranges
	DW	0ffH
	DW	00H
CONST	ENDS
;	COMDAT ??_C@_0L@EPCGLJHG@?$CFs?0?5?$CF?40fpx@
CONST	SEGMENT
??_C@_0L@EPCGLJHG@?$CFs?0?5?$CF?40fpx@ DB '%s, %.0fpx', 00H ; `string'
CONST	ENDS
;	COMDAT ??_C@_02JDPG@rb@
CONST	SEGMENT
??_C@_02JDPG@rb@ DB 'rb', 00H				; `string'
CONST	ENDS
;	COMDAT ??_C@_04KODIGLGG@maxp@
CONST	SEGMENT
??_C@_04KODIGLGG@maxp@ DB 'maxp', 00H			; `string'
CONST	ENDS
;	COMDAT ??_C@_04HJGCPIEK@CFF?5@
CONST	SEGMENT
??_C@_04HJGCPIEK@CFF?5@ DB 'CFF ', 00H			; `string'
CONST	ENDS
;	COMDAT ??_C@_04PCFDEHHD@GPOS@
CONST	SEGMENT
??_C@_04PCFDEHHD@GPOS@ DB 'GPOS', 00H			; `string'
CONST	ENDS
;	COMDAT ??_C@_04HHMMLDJI@kern@
CONST	SEGMENT
??_C@_04HHMMLDJI@kern@ DB 'kern', 00H			; `string'
CONST	ENDS
;	COMDAT ??_C@_04ONMNCIMC@hmtx@
CONST	SEGMENT
??_C@_04ONMNCIMC@hmtx@ DB 'hmtx', 00H			; `string'
CONST	ENDS
;	COMDAT ??_C@_04FMPHLIKP@hhea@
CONST	SEGMENT
??_C@_04FMPHLIKP@hhea@ DB 'hhea', 00H			; `string'
CONST	ENDS
;	COMDAT ??_C@_04LLIHEPK@glyf@
CONST	SEGMENT
??_C@_04LLIHEPK@glyf@ DB 'glyf', 00H			; `string'
CONST	ENDS
;	COMDAT ??_C@_04NEODDMOL@head@
CONST	SEGMENT
??_C@_04NEODDMOL@head@ DB 'head', 00H			; `string'
CONST	ENDS
;	COMDAT ??_C@_04DACNFKGE@loca@
CONST	SEGMENT
??_C@_04DACNFKGE@loca@ DB 'loca', 00H			; `string'
CONST	ENDS
;	COMDAT ??_C@_04EICJPCEA@cmap@
CONST	SEGMENT
??_C@_04EICJPCEA@cmap@ DB 'cmap', 00H			; `string'
CONST	ENDS
;	COMDAT ??_C@_04KIOEMAHO@ttcf@
CONST	SEGMENT
??_C@_04KIOEMAHO@ttcf@ DB 'ttcf', 00H			; `string'
CONST	ENDS
;	COMDAT ??_C@_04LLEFIKCJ@OTTO@
CONST	SEGMENT
??_C@_04LLEFIKCJ@OTTO@ DB 'OTTO', 00H			; `string'
CONST	ENDS
;	COMDAT ??_C@_04LBBEMOBJ@typ1@
CONST	SEGMENT
??_C@_04LBBEMOBJ@typ1@ DB 'typ1', 00H			; `string'
CONST	ENDS
;	COMDAT ??_C@_04LOAJBDKD@true@
CONST	SEGMENT
??_C@_04LOAJBDKD@true@ DB 'true', 00H			; `string'
CONST	ENDS
;	COMDAT xdata
xdata	SEGMENT
$unwind$??__E?id@?$numpunct@D@std@@2V0locale@2@A@@YAXXZ DD 010401H
	DD	04204H
xdata	ENDS
;	COMDAT xdata
xdata	SEGMENT
$unwind$??__E?id@?$collate@D@std@@2V0locale@2@A@@YAXXZ DD 010401H
	DD	04204H
xdata	ENDS
;	COMDAT xdata
xdata	SEGMENT
$unwind$??__E?id@?$num_put@DV?$ostreambuf_iterator@DU?$char_traits@D@std@@@std@@@std@@2V0locale@2@A@@YAXXZ DD 010401H
	DD	04204H
xdata	ENDS
;	COMDAT xdata
xdata	SEGMENT
$unwind$??__E?id@?$codecvt@DDU_Mbstatet@@@std@@2V0locale@2@A@@YAXXZ DD 010401H
	DD	04204H
xdata	ENDS
;	COMDAT xdata
xdata	SEGMENT
$unwind$?reserve@?$ImVector@Ustbtt_packedchar@@@@QEAAXH@Z DD 010d01H
	DD	0620dH
xdata	ENDS
;	COMDAT xdata
xdata	SEGMENT
$unwind$?resize@?$ImVector@Ustbtt_packedchar@@@@QEAAXH@Z DD 010d01H
	DD	0420dH
xdata	ENDS
;	COMDAT xdata
xdata	SEGMENT
$unwind$?_grow_capacity@?$ImVector@Ustbtt_packedchar@@@@QEBAHH@Z DD 010d01H
	DD	0220dH
xdata	ENDS
;	COMDAT xdata
xdata	SEGMENT
$ip2state$??1?$ImVector@Ustbtt_packedchar@@@@QEAA@XZ DB 02H
	DB	00H
	DB	00H
xdata	ENDS
;	COMDAT xdata
xdata	SEGMENT
$cppxdata$??1?$ImVector@Ustbtt_packedchar@@@@QEAA@XZ DB 040H
	DD	imagerel $ip2state$??1?$ImVector@Ustbtt_packedchar@@@@QEAA@XZ
xdata	ENDS
;	COMDAT xdata
xdata	SEGMENT
$unwind$??1?$ImVector@Ustbtt_packedchar@@@@QEAA@XZ DD 010919H
	DD	04209H
	DD	imagerel __CxxFrameHandler4
	DD	imagerel $cppxdata$??1?$ImVector@Ustbtt_packedchar@@@@QEAA@XZ
xdata	ENDS
;	COMDAT xdata
xdata	SEGMENT
$unwind$?reserve@?$ImVector@Ustbrp_rect@@@@QEAAXH@Z DD 010d01H
	DD	0620dH
xdata	ENDS
;	COMDAT xdata
xdata	SEGMENT
$unwind$?resize@?$ImVector@Ustbrp_rect@@@@QEAAXH@Z DD 010d01H
	DD	0420dH
xdata	ENDS
;	COMDAT xdata
xdata	SEGMENT
$unwind$?_grow_capacity@?$ImVector@Ustbrp_rect@@@@QEBAHH@Z DD 010d01H
	DD	0220dH
xdata	ENDS
;	COMDAT xdata
xdata	SEGMENT
$unwind$?clear@?$ImVector@Ustbrp_rect@@@@QEAAXXZ DD 010901H
	DD	04209H
xdata	ENDS
;	COMDAT xdata
xdata	SEGMENT
$ip2state$??1?$ImVector@Ustbrp_rect@@@@QEAA@XZ DB 02H
	DB	00H
	DB	00H
xdata	ENDS
;	COMDAT xdata
xdata	SEGMENT
$cppxdata$??1?$ImVector@Ustbrp_rect@@@@QEAA@XZ DB 040H
	DD	imagerel $ip2state$??1?$ImVector@Ustbrp_rect@@@@QEAA@XZ
xdata	ENDS
;	COMDAT xdata
xdata	SEGMENT
$unwind$??1?$ImVector@Ustbrp_rect@@@@QEAA@XZ DD 010919H
	DD	04209H
	DD	imagerel __CxxFrameHandler4
	DD	imagerel $cppxdata$??1?$ImVector@Ustbrp_rect@@@@QEAA@XZ
xdata	ENDS
;	COMDAT xdata
xdata	SEGMENT
$unwind$?reserve@?$ImVector@UImFontBuildDstData@@@@QEAAXH@Z DD 010d01H
	DD	0620dH
xdata	ENDS
;	COMDAT xdata
xdata	SEGMENT
$unwind$?resize@?$ImVector@UImFontBuildDstData@@@@QEAAXH@Z DD 010d01H
	DD	0420dH
xdata	ENDS
;	COMDAT xdata
xdata	SEGMENT
$unwind$?_grow_capacity@?$ImVector@UImFontBuildDstData@@@@QEBAHH@Z DD 010d01H
	DD	0220dH
xdata	ENDS
;	COMDAT xdata
xdata	SEGMENT
$unwind$?clear@?$ImVector@UImFontBuildDstData@@@@QEAAXXZ DD 010901H
	DD	04209H
xdata	ENDS
;	COMDAT xdata
xdata	SEGMENT
$ip2state$??1?$ImVector@UImFontBuildDstData@@@@QEAA@XZ DB 02H
	DB	00H
	DB	00H
xdata	ENDS
;	COMDAT xdata
xdata	SEGMENT
$cppxdata$??1?$ImVector@UImFontBuildDstData@@@@QEAA@XZ DB 040H
	DD	imagerel $ip2state$??1?$ImVector@UImFontBuildDstData@@@@QEAA@XZ
xdata	ENDS
;	COMDAT xdata
xdata	SEGMENT
$unwind$??1?$ImVector@UImFontBuildDstData@@@@QEAA@XZ DD 010919H
	DD	04209H
	DD	imagerel __CxxFrameHandler4
	DD	imagerel $cppxdata$??1?$ImVector@UImFontBuildDstData@@@@QEAA@XZ
xdata	ENDS
;	COMDAT xdata
xdata	SEGMENT
$unwind$?reserve@?$ImVector@UImFontBuildSrcData@@@@QEAAXH@Z DD 010d01H
	DD	0620dH
xdata	ENDS
;	COMDAT xdata
xdata	SEGMENT
$unwind$?resize@?$ImVector@UImFontBuildSrcData@@@@QEAAXH@Z DD 010d01H
	DD	0420dH
xdata	ENDS
;	COMDAT xdata
xdata	SEGMENT
$unwind$?_grow_capacity@?$ImVector@UImFontBuildSrcData@@@@QEBAHH@Z DD 010d01H
	DD	0220dH
xdata	ENDS
;	COMDAT xdata
xdata	SEGMENT
$ip2state$??1?$ImVector@UImFontBuildSrcData@@@@QEAA@XZ DB 02H
	DB	00H
	DB	00H
xdata	ENDS
;	COMDAT xdata
xdata	SEGMENT
$cppxdata$??1?$ImVector@UImFontBuildSrcData@@@@QEAA@XZ DB 040H
	DD	imagerel $ip2state$??1?$ImVector@UImFontBuildSrcData@@@@QEAA@XZ
xdata	ENDS
;	COMDAT xdata
xdata	SEGMENT
$unwind$??1?$ImVector@UImFontBuildSrcData@@@@QEAA@XZ DD 010919H
	DD	04209H
	DD	imagerel __CxxFrameHandler4
	DD	imagerel $cppxdata$??1?$ImVector@UImFontBuildSrcData@@@@QEAA@XZ
xdata	ENDS
;	COMDAT xdata
xdata	SEGMENT
$unwind$??_GImFontBuildSrcData@@QEAAPEAXI@Z DD 010d01H
	DD	0420dH
xdata	ENDS
;	COMDAT xdata
xdata	SEGMENT
$unwind$?dtor$1@?0???1ImFontBuildSrcData@@QEAA@XZ@4HA DD 020601H
	DD	050023206H
xdata	ENDS
;	COMDAT xdata
xdata	SEGMENT
$unwind$?dtor$0@?0???1ImFontBuildSrcData@@QEAA@XZ@4HA DD 020601H
	DD	050023206H
xdata	ENDS
;	COMDAT xdata
xdata	SEGMENT
$ip2state$??1ImFontBuildSrcData@@QEAA@XZ DB 06H
	DB	00H
	DB	00H
	DB	012H
	DB	02H
	DB	'('
	DB	00H
xdata	ENDS
;	COMDAT xdata
xdata	SEGMENT
$stateUnwindMap$??1ImFontBuildSrcData@@QEAA@XZ DB 04H
	DB	0eH
	DD	imagerel ?dtor$0@?0???1ImFontBuildSrcData@@QEAA@XZ@4HA
	DB	02eH
	DD	imagerel ?dtor$1@?0???1ImFontBuildSrcData@@QEAA@XZ@4HA
xdata	ENDS
;	COMDAT xdata
xdata	SEGMENT
$cppxdata$??1ImFontBuildSrcData@@QEAA@XZ DB 048H
	DD	imagerel $stateUnwindMap$??1ImFontBuildSrcData@@QEAA@XZ
	DD	imagerel $ip2state$??1ImFontBuildSrcData@@QEAA@XZ
xdata	ENDS
;	COMDAT xdata
xdata	SEGMENT
$unwind$??1ImFontBuildSrcData@@QEAA@XZ DD 010911H
	DD	04209H
	DD	imagerel __CxxFrameHandler4
	DD	imagerel $cppxdata$??1ImFontBuildSrcData@@QEAA@XZ
xdata	ENDS
;	COMDAT xdata
xdata	SEGMENT
$unwind$??$IM_DELETE@UImFont@@@@YAXPEAUImFont@@@Z DD 010901H
	DD	04209H
xdata	ENDS
;	COMDAT xdata
xdata	SEGMENT
$unwind$??__EFONT_ATLAS_DEFAULT_TEX_CURSOR_DATA@@YAXXZ DD 010401H
	DD	04204H
xdata	ENDS
;	COMDAT xdata
xdata	SEGMENT
$ip2state$??$_vsnprintf_s@$0EAA@@@YAHAEAY0EAA@D_KPEBDPEAD@Z DB 02H
	DB	00H
	DB	00H
xdata	ENDS
;	COMDAT xdata
xdata	SEGMENT
$cppxdata$??$_vsnprintf_s@$0EAA@@@YAHAEAY0EAA@D_KPEBDPEAD@Z DB 040H
	DD	imagerel $ip2state$??$_vsnprintf_s@$0EAA@@@YAHAEAY0EAA@D_KPEBDPEAD@Z
xdata	ENDS
;	COMDAT xdata
xdata	SEGMENT
$unwind$??$_vsnprintf_s@$0EAA@@@YAHAEAY0EAA@D_KPEBDPEAD@Z DD 011819H
	DD	06218H
	DD	imagerel __CxxFrameHandler4
	DD	imagerel $cppxdata$??$_vsnprintf_s@$0EAA@@@YAHAEAY0EAA@D_KPEBDPEAD@Z
xdata	ENDS
;	COMDAT xdata
xdata	SEGMENT
$unwind$?dtor$0@?0???1ImBoolVector@@QEAA@XZ@4HA DD 020601H
	DD	050023206H
xdata	ENDS
;	COMDAT xdata
xdata	SEGMENT
$ip2state$??1ImBoolVector@@QEAA@XZ DB 02H
	DB	00H
	DB	00H
xdata	ENDS
;	COMDAT xdata
xdata	SEGMENT
$stateUnwindMap$??1ImBoolVector@@QEAA@XZ DB 02H
	DB	0eH
	DD	imagerel ?dtor$0@?0???1ImBoolVector@@QEAA@XZ@4HA
xdata	ENDS
;	COMDAT xdata
xdata	SEGMENT
$cppxdata$??1ImBoolVector@@QEAA@XZ DB 048H
	DD	imagerel $stateUnwindMap$??1ImBoolVector@@QEAA@XZ
	DD	imagerel $ip2state$??1ImBoolVector@@QEAA@XZ
xdata	ENDS
;	COMDAT xdata
xdata	SEGMENT
$unwind$??1ImBoolVector@@QEAA@XZ DD 010911H
	DD	04209H
	DD	imagerel __CxxFrameHandler4
	DD	imagerel $cppxdata$??1ImBoolVector@@QEAA@XZ
xdata	ENDS
;	COMDAT xdata
xdata	SEGMENT
$unwind$?SetBit@ImBoolVector@@QEAAXH_N@Z DD 011201H
	DD	0a212H
xdata	ENDS
;	COMDAT xdata
xdata	SEGMENT
$unwind$?GetBit@ImBoolVector@@QEBA_NH@Z DD 010d01H
	DD	0820dH
xdata	ENDS
;	COMDAT xdata
xdata	SEGMENT
$unwind$?Clear@ImBoolVector@@QEAAXXZ DD 010901H
	DD	04209H
xdata	ENDS
;	COMDAT xdata
xdata	SEGMENT
$unwind$?Resize@ImBoolVector@@QEAAXH@Z DD 010d01H
	DD	0620dH
xdata	ENDS
;	COMDAT xdata
xdata	SEGMENT
$unwind$??_GImFont@@QEAAPEAXI@Z DD 010d01H
	DD	0420dH
xdata	ENDS
;	COMDAT xdata
xdata	SEGMENT
$unwind$?reserve@?$ImVector@UImFontGlyph@@@@QEAAXH@Z DD 010d01H
	DD	0620dH
xdata	ENDS
;	COMDAT xdata
xdata	SEGMENT
$unwind$?resize@?$ImVector@UImFontGlyph@@@@QEAAXH@Z DD 010d01H
	DD	0420dH
xdata	ENDS
;	COMDAT xdata
xdata	SEGMENT
$unwind$?_grow_capacity@?$ImVector@UImFontGlyph@@@@QEBAHH@Z DD 010d01H
	DD	0220dH
xdata	ENDS
;	COMDAT xdata
xdata	SEGMENT
$unwind$?clear@?$ImVector@UImFontGlyph@@@@QEAAXXZ DD 010901H
	DD	04209H
xdata	ENDS
;	COMDAT xdata
xdata	SEGMENT
$ip2state$??1?$ImVector@UImFontGlyph@@@@QEAA@XZ DB 02H
	DB	00H
	DB	00H
xdata	ENDS
;	COMDAT xdata
xdata	SEGMENT
$cppxdata$??1?$ImVector@UImFontGlyph@@@@QEAA@XZ DB 040H
	DD	imagerel $ip2state$??1?$ImVector@UImFontGlyph@@@@QEAA@XZ
xdata	ENDS
;	COMDAT xdata
xdata	SEGMENT
$unwind$??1?$ImVector@UImFontGlyph@@@@QEAA@XZ DD 010919H
	DD	04209H
	DD	imagerel __CxxFrameHandler4
	DD	imagerel $cppxdata$??1?$ImVector@UImFontGlyph@@@@QEAA@XZ
xdata	ENDS
;	COMDAT xdata
xdata	SEGMENT
$unwind$?reserve@?$ImVector@M@@QEAAXH@Z DD 010d01H
	DD	0620dH
xdata	ENDS
;	COMDAT xdata
xdata	SEGMENT
$unwind$?resize@?$ImVector@M@@QEAAXHAEBM@Z DD 011201H
	DD	06212H
xdata	ENDS
;	COMDAT xdata
xdata	SEGMENT
$unwind$?_grow_capacity@?$ImVector@M@@QEBAHH@Z DD 010d01H
	DD	0220dH
xdata	ENDS
;	COMDAT xdata
xdata	SEGMENT
$unwind$?clear@?$ImVector@M@@QEAAXXZ DD 010901H
	DD	04209H
xdata	ENDS
;	COMDAT xdata
xdata	SEGMENT
$ip2state$??1?$ImVector@M@@QEAA@XZ DB 02H
	DB	00H
	DB	00H
xdata	ENDS
;	COMDAT xdata
xdata	SEGMENT
$cppxdata$??1?$ImVector@M@@QEAA@XZ DB 040H
	DD	imagerel $ip2state$??1?$ImVector@M@@QEAA@XZ
xdata	ENDS
;	COMDAT xdata
xdata	SEGMENT
$unwind$??1?$ImVector@M@@QEAA@XZ DD 010919H
	DD	04209H
	DD	imagerel __CxxFrameHandler4
	DD	imagerel $cppxdata$??1?$ImVector@M@@QEAA@XZ
xdata	ENDS
;	COMDAT xdata
xdata	SEGMENT
$unwind$?push_back@?$ImVector@UImFontConfig@@@@QEAAXAEBUImFontConfig@@@Z DD 010e01H
	DD	0420eH
xdata	ENDS
;	COMDAT xdata
xdata	SEGMENT
$unwind$?reserve@?$ImVector@UImFontConfig@@@@QEAAXH@Z DD 010d01H
	DD	0620dH
xdata	ENDS
;	COMDAT xdata
xdata	SEGMENT
$unwind$?_grow_capacity@?$ImVector@UImFontConfig@@@@QEBAHH@Z DD 010d01H
	DD	0220dH
xdata	ENDS
;	COMDAT xdata
xdata	SEGMENT
$unwind$?clear@?$ImVector@UImFontConfig@@@@QEAAXXZ DD 010901H
	DD	04209H
xdata	ENDS
;	COMDAT xdata
xdata	SEGMENT
$ip2state$??1?$ImVector@UImFontConfig@@@@QEAA@XZ DB 02H
	DB	00H
	DB	00H
xdata	ENDS
;	COMDAT xdata
xdata	SEGMENT
$cppxdata$??1?$ImVector@UImFontConfig@@@@QEAA@XZ DB 040H
	DD	imagerel $ip2state$??1?$ImVector@UImFontConfig@@@@QEAA@XZ
xdata	ENDS
;	COMDAT xdata
xdata	SEGMENT
$unwind$??1?$ImVector@UImFontConfig@@@@QEAA@XZ DD 010919H
	DD	04209H
	DD	imagerel __CxxFrameHandler4
	DD	imagerel $cppxdata$??1?$ImVector@UImFontConfig@@@@QEAA@XZ
xdata	ENDS
;	COMDAT xdata
xdata	SEGMENT
$unwind$?push_back@?$ImVector@UCustomRect@ImFontAtlas@@@@QEAAXAEBUCustomRect@ImFontAtlas@@@Z DD 010e01H
	DD	0420eH
xdata	ENDS
;	COMDAT xdata
xdata	SEGMENT
$unwind$?reserve@?$ImVector@UCustomRect@ImFontAtlas@@@@QEAAXH@Z DD 010d01H
	DD	0620dH
xdata	ENDS
;	COMDAT xdata
xdata	SEGMENT
$unwind$?_grow_capacity@?$ImVector@UCustomRect@ImFontAtlas@@@@QEBAHH@Z DD 010d01H
	DD	0220dH
xdata	ENDS
;	COMDAT xdata
xdata	SEGMENT
$unwind$?clear@?$ImVector@UCustomRect@ImFontAtlas@@@@QEAAXXZ DD 010901H
	DD	04209H
xdata	ENDS
;	COMDAT xdata
xdata	SEGMENT
$ip2state$??1?$ImVector@UCustomRect@ImFontAtlas@@@@QEAA@XZ DB 02H
	DB	00H
	DB	00H
xdata	ENDS
;	COMDAT xdata
xdata	SEGMENT
$cppxdata$??1?$ImVector@UCustomRect@ImFontAtlas@@@@QEAA@XZ DB 040H
	DD	imagerel $ip2state$??1?$ImVector@UCustomRect@ImFontAtlas@@@@QEAA@XZ
xdata	ENDS
;	COMDAT xdata
xdata	SEGMENT
$unwind$??1?$ImVector@UCustomRect@ImFontAtlas@@@@QEAA@XZ DD 010919H
	DD	04209H
	DD	imagerel __CxxFrameHandler4
	DD	imagerel $cppxdata$??1?$ImVector@UCustomRect@ImFontAtlas@@@@QEAA@XZ
xdata	ENDS
;	COMDAT xdata
xdata	SEGMENT
$unwind$?push_back@?$ImVector@PEAUImFont@@@@QEAAXAEBQEAUImFont@@@Z DD 010e01H
	DD	0420eH
xdata	ENDS
;	COMDAT xdata
xdata	SEGMENT
$unwind$?reserve@?$ImVector@PEAUImFont@@@@QEAAXH@Z DD 010d01H
	DD	0620dH
xdata	ENDS
;	COMDAT xdata
xdata	SEGMENT
$unwind$?_grow_capacity@?$ImVector@PEAUImFont@@@@QEBAHH@Z DD 010d01H
	DD	0220dH
xdata	ENDS
;	COMDAT xdata
xdata	SEGMENT
$unwind$?clear@?$ImVector@PEAUImFont@@@@QEAAXXZ DD 010901H
	DD	04209H
xdata	ENDS
;	COMDAT xdata
xdata	SEGMENT
$ip2state$??1?$ImVector@PEAUImFont@@@@QEAA@XZ DB 02H
	DB	00H
	DB	00H
xdata	ENDS
;	COMDAT xdata
xdata	SEGMENT
$cppxdata$??1?$ImVector@PEAUImFont@@@@QEAA@XZ DB 040H
	DD	imagerel $ip2state$??1?$ImVector@PEAUImFont@@@@QEAA@XZ
xdata	ENDS
;	COMDAT xdata
xdata	SEGMENT
$unwind$??1?$ImVector@PEAUImFont@@@@QEAA@XZ DD 010919H
	DD	04209H
	DD	imagerel __CxxFrameHandler4
	DD	imagerel $cppxdata$??1?$ImVector@PEAUImFont@@@@QEAA@XZ
xdata	ENDS
;	COMDAT xdata
xdata	SEGMENT
$unwind$??0CustomRect@ImFontAtlas@@QEAA@XZ DD 010901H
	DD	06209H
xdata	ENDS
;	COMDAT xdata
xdata	SEGMENT
$unwind$?AddChar@ImFontGlyphRangesBuilder@@QEAAXG@Z DD 010e01H
	DD	0420eH
xdata	ENDS
;	COMDAT xdata
xdata	SEGMENT
$unwind$?SetBit@ImFontGlyphRangesBuilder@@QEAAXH@Z DD 010d01H
	DD	0820dH
xdata	ENDS
;	COMDAT xdata
xdata	SEGMENT
$unwind$?GetBit@ImFontGlyphRangesBuilder@@QEBA_NH@Z DD 010d01H
	DD	0820dH
xdata	ENDS
;	COMDAT xdata
xdata	SEGMENT
$unwind$?push_back@?$ImVector@H@@QEAAXAEBH@Z DD 010e01H
	DD	0420eH
xdata	ENDS
;	COMDAT xdata
xdata	SEGMENT
$unwind$?reserve@?$ImVector@H@@QEAAXH@Z DD 010d01H
	DD	0620dH
xdata	ENDS
;	COMDAT xdata
xdata	SEGMENT
$unwind$?resize@?$ImVector@H@@QEAAXH@Z DD 010d01H
	DD	0420dH
xdata	ENDS
;	COMDAT xdata
xdata	SEGMENT
$unwind$?_grow_capacity@?$ImVector@H@@QEBAHH@Z DD 010d01H
	DD	0220dH
xdata	ENDS
;	COMDAT xdata
xdata	SEGMENT
$unwind$?clear@?$ImVector@H@@QEAAXXZ DD 010901H
	DD	04209H
xdata	ENDS
;	COMDAT xdata
xdata	SEGMENT
$unwind$?empty@?$ImVector@H@@QEBA_NXZ DD 010901H
	DD	02209H
xdata	ENDS
;	COMDAT xdata
xdata	SEGMENT
$ip2state$??1?$ImVector@H@@QEAA@XZ DB 02H
	DB	00H
	DB	00H
xdata	ENDS
;	COMDAT xdata
xdata	SEGMENT
$cppxdata$??1?$ImVector@H@@QEAA@XZ DB 040H
	DD	imagerel $ip2state$??1?$ImVector@H@@QEAA@XZ
xdata	ENDS
;	COMDAT xdata
xdata	SEGMENT
$unwind$??1?$ImVector@H@@QEAA@XZ DD 010919H
	DD	04209H
	DD	imagerel __CxxFrameHandler4
	DD	imagerel $cppxdata$??1?$ImVector@H@@QEAA@XZ
xdata	ENDS
;	COMDAT xdata
xdata	SEGMENT
$unwind$?PathStroke@ImDrawList@@QEAAXI_NM@Z DD 011801H
	DD	06218H
xdata	ENDS
;	COMDAT xdata
xdata	SEGMENT
$unwind$?PathFillConvex@ImDrawList@@QEAAXI@Z DD 010d01H
	DD	0420dH
xdata	ENDS
;	COMDAT xdata
xdata	SEGMENT
$unwind$?PathLineTo@ImDrawList@@QEAAXAEBUImVec2@@@Z DD 010e01H
	DD	0620eH
xdata	ENDS
voltbl	SEGMENT
_volmd	DD	0ffffffffH
	DDSymXIndex: 	FLAT:?stbtt__v_prefilter@@YAXPEAEHHHI@Z
	DD	021H
	DD	0476H
_volmd	DD	0ffffffffH
	DDSymXIndex: 	FLAT:?stbtt__h_prefilter@@YAXPEAEHHHI@Z
	DD	021H
	DD	0404H
_volmd	DD	0ffffffffH
	DDSymXIndex: 	FLAT:?stbtt__sort_edges_quicksort@@YAXPEAUstbtt__edge@@H@Z
	DD	01cH
	DD	0440H
_volmd	DD	0ffffffffH
	DDSymXIndex: 	FLAT:?stbtt__sort_edges_ins_sort@@YAXPEAUstbtt__edge@@H@Z
	DD	019H
	DD	0140H
_volmd	DD	0ffffffffH
	DDSymXIndex: 	FLAT:?stbtt__rasterize_sorted_edges@@YAXPEAUstbtt__bitmap@@PEAUstbtt__edge@@HHHHPEAX@Z
	DD	025H
	DD	0487H
_volmd	DD	0ffffffffH
	DDSymXIndex: 	FLAT:?stbtt__run_charstring@@YAHPEBUstbtt_fontinfo@@HPEAUstbtt__csctx@@@Z
	DD	021H
	DD	013a9H
_volmd	DD	0ffffffffH
	DDSymXIndex: 	FLAT:?stbtt__GetGlyphShapeTT@@YAHPEBUstbtt_fontinfo@@HPEAPEAUstbtt_vertex@@@Z
	DD	01fH
	DD	0139fH
_volmd	DD	0ffffffffH
	DDSymXIndex: 	FLAT:?ImFontAtlasBuildWithStbTruetype@@YA_NPEAUImFontAtlas@@@Z
	DD	017H
	DD	0180eH
_volmd	DD	0ffffffffH
	DDSymXIndex: 	FLAT:?RenderMouseCursor@ImGui@@YAXPEAUImDrawList@@UImVec2@@MH@Z
	DD	026H
	DD	04f5H
_volmd	DD	0ffffffffH
	DDSymXIndex: 	FLAT:?AddFontFromMemoryCompressedTTF@ImFontAtlas@@QEAAPEAUImFont@@PEBXHMPEBUImFontConfig@@PEBG@Z
	DD	028H
	DD	010cH
_volmd	DD	0ffffffffH
	DDSymXIndex: 	FLAT:?AddFontFromMemoryTTF@ImFontAtlas@@QEAAPEAUImFont@@PEAXHMPEBUImFontConfig@@PEBG@Z
	DD	028H
	DD	0e5H
_volmd	DD	0ffffffffH
	DDSymXIndex: 	FLAT:?AddFontFromFileTTF@ImFontAtlas@@QEAAPEAUImFont@@PEBDMPEBUImFontConfig@@PEBG@Z
	DD	028H
	DD	01b9H
_volmd	DD	0ffffffffH
	DDSymXIndex: 	FLAT:?DrawTextOutline@ImDrawList@@QEAA?AUImVec2@@PEBUImFont@@MMU2@IIKPEBDZZ
	DD	02cH
	DD	052bH
_volmd	DD	0ffffffffH
	DDSymXIndex: 	FLAT:?AddConvexPolyFilled@ImDrawList@@QEAAXPEBUImVec2@@HI@Z
	DD	02bH
	DD	07fcH
_volmd	DD	0ffffffffH
	DDSymXIndex: 	FLAT:?AddPolyline@ImDrawList@@QEAAXPEBUImVec2@@HI_NM@Z
	DD	02bH
	DD	01a2bH
voltbl	ENDS
;	COMDAT xdata
xdata	SEGMENT
$unwind$?dtor$6@?0???0ImDrawList@@QEAA@PEBUImDrawListSharedData@@@Z@4HA DD 020601H
	DD	050023206H
xdata	ENDS
;	COMDAT xdata
xdata	SEGMENT
$unwind$?dtor$5@?0???0ImDrawList@@QEAA@PEBUImDrawListSharedData@@@Z@4HA DD 020601H
	DD	050023206H
xdata	ENDS
;	COMDAT xdata
xdata	SEGMENT
$unwind$?dtor$4@?0???0ImDrawList@@QEAA@PEBUImDrawListSharedData@@@Z@4HA DD 020601H
	DD	050023206H
xdata	ENDS
;	COMDAT xdata
xdata	SEGMENT
$unwind$?dtor$3@?0???0ImDrawList@@QEAA@PEBUImDrawListSharedData@@@Z@4HA DD 020601H
	DD	050023206H
xdata	ENDS
;	COMDAT xdata
xdata	SEGMENT
$unwind$?dtor$2@?0???0ImDrawList@@QEAA@PEBUImDrawListSharedData@@@Z@4HA DD 020601H
	DD	050023206H
xdata	ENDS
;	COMDAT xdata
xdata	SEGMENT
$unwind$?dtor$1@?0???0ImDrawList@@QEAA@PEBUImDrawListSharedData@@@Z@4HA DD 020601H
	DD	050023206H
xdata	ENDS
;	COMDAT xdata
xdata	SEGMENT
$unwind$?dtor$0@?0???0ImDrawList@@QEAA@PEBUImDrawListSharedData@@@Z@4HA DD 020601H
	DD	050023206H
xdata	ENDS
;	COMDAT xdata
xdata	SEGMENT
$ip2state$??0ImDrawList@@QEAA@PEBUImDrawListSharedData@@@Z DB 012H
	DB	00H
	DB	00H
	DB	'8'
	DB	02H
	DB	'$'
	DB	04H
	DB	'$'
	DB	06H
	DB	'$'
	DB	08H
	DB	'$'
	DB	0aH
	DB	'('
	DB	0cH
	DB	'('
	DB	0eH
	DB	'L'
	DB	00H
xdata	ENDS
;	COMDAT xdata
xdata	SEGMENT
$stateUnwindMap$??0ImDrawList@@QEAA@PEBUImDrawListSharedData@@@Z DB 0eH
	DB	0eH
	DD	imagerel ?dtor$0@?0???0ImDrawList@@QEAA@PEBUImDrawListSharedData@@@Z@4HA
	DB	02eH
	DD	imagerel ?dtor$1@?0???0ImDrawList@@QEAA@PEBUImDrawListSharedData@@@Z@4HA
	DB	02eH
	DD	imagerel ?dtor$2@?0???0ImDrawList@@QEAA@PEBUImDrawListSharedData@@@Z@4HA
	DB	02eH
	DD	imagerel ?dtor$3@?0???0ImDrawList@@QEAA@PEBUImDrawListSharedData@@@Z@4HA
	DB	02eH
	DD	imagerel ?dtor$4@?0???0ImDrawList@@QEAA@PEBUImDrawListSharedData@@@Z@4HA
	DB	02eH
	DD	imagerel ?dtor$5@?0???0ImDrawList@@QEAA@PEBUImDrawListSharedData@@@Z@4HA
	DB	02eH
	DD	imagerel ?dtor$6@?0???0ImDrawList@@QEAA@PEBUImDrawListSharedData@@@Z@4HA
xdata	ENDS
;	COMDAT xdata
xdata	SEGMENT
$cppxdata$??0ImDrawList@@QEAA@PEBUImDrawListSharedData@@@Z DB 08H
	DD	imagerel $stateUnwindMap$??0ImDrawList@@QEAA@PEBUImDrawListSharedData@@@Z
	DD	imagerel $ip2state$??0ImDrawList@@QEAA@PEBUImDrawListSharedData@@@Z
xdata	ENDS
;	COMDAT xdata
xdata	SEGMENT
$unwind$??0ImDrawList@@QEAA@PEBUImDrawListSharedData@@@Z DD 010e11H
	DD	0420eH
	DD	imagerel __CxxFrameHandler4
	DD	imagerel $cppxdata$??0ImDrawList@@QEAA@PEBUImDrawListSharedData@@@Z
xdata	ENDS
;	COMDAT xdata
xdata	SEGMENT
$unwind$?push_back@?$ImVector@UImVec2@@@@QEAAXAEBUImVec2@@@Z DD 010e01H
	DD	0420eH
xdata	ENDS
;	COMDAT xdata
xdata	SEGMENT
$unwind$?reserve@?$ImVector@UImVec2@@@@QEAAXH@Z DD 010d01H
	DD	0620dH
xdata	ENDS
;	COMDAT xdata
xdata	SEGMENT
$unwind$?resize@?$ImVector@UImVec2@@@@QEAAXH@Z DD 010d01H
	DD	0420dH
xdata	ENDS
;	COMDAT xdata
xdata	SEGMENT
$unwind$?_grow_capacity@?$ImVector@UImVec2@@@@QEBAHH@Z DD 010d01H
	DD	0220dH
xdata	ENDS
;	COMDAT xdata
xdata	SEGMENT
$unwind$?clear@?$ImVector@UImVec2@@@@QEAAXXZ DD 010901H
	DD	04209H
xdata	ENDS
;	COMDAT xdata
xdata	SEGMENT
$ip2state$??1?$ImVector@UImVec2@@@@QEAA@XZ DB 02H
	DB	00H
	DB	00H
xdata	ENDS
;	COMDAT xdata
xdata	SEGMENT
$cppxdata$??1?$ImVector@UImVec2@@@@QEAA@XZ DB 040H
	DD	imagerel $ip2state$??1?$ImVector@UImVec2@@@@QEAA@XZ
xdata	ENDS
;	COMDAT xdata
xdata	SEGMENT
$unwind$??1?$ImVector@UImVec2@@@@QEAA@XZ DD 010919H
	DD	04209H
	DD	imagerel __CxxFrameHandler4
	DD	imagerel $cppxdata$??1?$ImVector@UImVec2@@@@QEAA@XZ
xdata	ENDS
;	COMDAT xdata
xdata	SEGMENT
$unwind$?push_back@?$ImVector@PEAX@@QEAAXAEBQEAX@Z DD 010e01H
	DD	0420eH
xdata	ENDS
;	COMDAT xdata
xdata	SEGMENT
$unwind$?reserve@?$ImVector@PEAX@@QEAAXH@Z DD 010d01H
	DD	0620dH
xdata	ENDS
;	COMDAT xdata
xdata	SEGMENT
$unwind$?resize@?$ImVector@PEAX@@QEAAXH@Z DD 010d01H
	DD	0420dH
xdata	ENDS
;	COMDAT xdata
xdata	SEGMENT
$unwind$?_grow_capacity@?$ImVector@PEAX@@QEBAHH@Z DD 010d01H
	DD	0220dH
xdata	ENDS
;	COMDAT xdata
xdata	SEGMENT
$unwind$?clear@?$ImVector@PEAX@@QEAAXXZ DD 010901H
	DD	04209H
xdata	ENDS
;	COMDAT xdata
xdata	SEGMENT
$unwind$?empty@?$ImVector@PEAX@@QEBA_NXZ DD 010901H
	DD	02209H
xdata	ENDS
;	COMDAT xdata
xdata	SEGMENT
$ip2state$??1?$ImVector@PEAX@@QEAA@XZ DB 02H
	DB	00H
	DB	00H
xdata	ENDS
;	COMDAT xdata
xdata	SEGMENT
$cppxdata$??1?$ImVector@PEAX@@QEAA@XZ DB 040H
	DD	imagerel $ip2state$??1?$ImVector@PEAX@@QEAA@XZ
xdata	ENDS
;	COMDAT xdata
xdata	SEGMENT
$unwind$??1?$ImVector@PEAX@@QEAA@XZ DD 010919H
	DD	04209H
	DD	imagerel __CxxFrameHandler4
	DD	imagerel $cppxdata$??1?$ImVector@PEAX@@QEAA@XZ
xdata	ENDS
;	COMDAT xdata
xdata	SEGMENT
$unwind$?push_back@?$ImVector@UImVec4@@@@QEAAXAEBUImVec4@@@Z DD 010e01H
	DD	0420eH
xdata	ENDS
;	COMDAT xdata
xdata	SEGMENT
$unwind$?reserve@?$ImVector@UImVec4@@@@QEAAXH@Z DD 010d01H
	DD	0620dH
xdata	ENDS
;	COMDAT xdata
xdata	SEGMENT
$unwind$?resize@?$ImVector@UImVec4@@@@QEAAXH@Z DD 010d01H
	DD	0420dH
xdata	ENDS
;	COMDAT xdata
xdata	SEGMENT
$unwind$?_grow_capacity@?$ImVector@UImVec4@@@@QEBAHH@Z DD 010d01H
	DD	0220dH
xdata	ENDS
;	COMDAT xdata
xdata	SEGMENT
$unwind$?clear@?$ImVector@UImVec4@@@@QEAAXXZ DD 010901H
	DD	04209H
xdata	ENDS
;	COMDAT xdata
xdata	SEGMENT
$ip2state$??1?$ImVector@UImVec4@@@@QEAA@XZ DB 02H
	DB	00H
	DB	00H
xdata	ENDS
;	COMDAT xdata
xdata	SEGMENT
$cppxdata$??1?$ImVector@UImVec4@@@@QEAA@XZ DB 040H
	DD	imagerel $ip2state$??1?$ImVector@UImVec4@@@@QEAA@XZ
xdata	ENDS
;	COMDAT xdata
xdata	SEGMENT
$unwind$??1?$ImVector@UImVec4@@@@QEAA@XZ DD 010919H
	DD	04209H
	DD	imagerel __CxxFrameHandler4
	DD	imagerel $cppxdata$??1?$ImVector@UImVec4@@@@QEAA@XZ
xdata	ENDS
;	COMDAT xdata
xdata	SEGMENT
$unwind$?reserve@?$ImVector@UImDrawChannel@@@@QEAAXH@Z DD 010d01H
	DD	0620dH
xdata	ENDS
;	COMDAT xdata
xdata	SEGMENT
$unwind$?resize@?$ImVector@UImDrawChannel@@@@QEAAXH@Z DD 010d01H
	DD	0420dH
xdata	ENDS
;	COMDAT xdata
xdata	SEGMENT
$unwind$?_grow_capacity@?$ImVector@UImDrawChannel@@@@QEBAHH@Z DD 010d01H
	DD	0220dH
xdata	ENDS
;	COMDAT xdata
xdata	SEGMENT
$unwind$?clear@?$ImVector@UImDrawChannel@@@@QEAAXXZ DD 010901H
	DD	04209H
xdata	ENDS
;	COMDAT xdata
xdata	SEGMENT
$ip2state$??1?$ImVector@UImDrawChannel@@@@QEAA@XZ DB 02H
	DB	00H
	DB	00H
xdata	ENDS
;	COMDAT xdata
xdata	SEGMENT
$cppxdata$??1?$ImVector@UImDrawChannel@@@@QEAA@XZ DB 040H
	DD	imagerel $ip2state$??1?$ImVector@UImDrawChannel@@@@QEAA@XZ
xdata	ENDS
;	COMDAT xdata
xdata	SEGMENT
$unwind$??1?$ImVector@UImDrawChannel@@@@QEAA@XZ DD 010919H
	DD	04209H
	DD	imagerel __CxxFrameHandler4
	DD	imagerel $cppxdata$??1?$ImVector@UImDrawChannel@@@@QEAA@XZ
xdata	ENDS
;	COMDAT xdata
xdata	SEGMENT
$unwind$?reserve@?$ImVector@UImDrawVert@@@@QEAAXH@Z DD 010d01H
	DD	0620dH
xdata	ENDS
;	COMDAT xdata
xdata	SEGMENT
$unwind$?resize@?$ImVector@UImDrawVert@@@@QEAAXH@Z DD 010d01H
	DD	0420dH
xdata	ENDS
;	COMDAT xdata
xdata	SEGMENT
$unwind$?_grow_capacity@?$ImVector@UImDrawVert@@@@QEBAHH@Z DD 010d01H
	DD	0220dH
xdata	ENDS
;	COMDAT xdata
xdata	SEGMENT
$unwind$?swap@?$ImVector@UImDrawVert@@@@QEAAXAEAU1@@Z DD 010e01H
	DD	0220eH
xdata	ENDS
;	COMDAT xdata
xdata	SEGMENT
$unwind$?clear@?$ImVector@UImDrawVert@@@@QEAAXXZ DD 010901H
	DD	04209H
xdata	ENDS
;	COMDAT xdata
xdata	SEGMENT
$ip2state$??1?$ImVector@UImDrawVert@@@@QEAA@XZ DB 02H
	DB	00H
	DB	00H
xdata	ENDS
;	COMDAT xdata
xdata	SEGMENT
$cppxdata$??1?$ImVector@UImDrawVert@@@@QEAA@XZ DB 040H
	DD	imagerel $ip2state$??1?$ImVector@UImDrawVert@@@@QEAA@XZ
xdata	ENDS
;	COMDAT xdata
xdata	SEGMENT
$unwind$??1?$ImVector@UImDrawVert@@@@QEAA@XZ DD 010919H
	DD	04209H
	DD	imagerel __CxxFrameHandler4
	DD	imagerel $cppxdata$??1?$ImVector@UImDrawVert@@@@QEAA@XZ
xdata	ENDS
;	COMDAT xdata
xdata	SEGMENT
$unwind$??4?$ImVector@UImDrawVert@@@@QEAAAEAU0@AEBU0@@Z DD 010e01H
	DD	0420eH
xdata	ENDS
;	COMDAT xdata
xdata	SEGMENT
$unwind$?dtor$1@?0???0ImDrawChannel@@QEAA@XZ@4HA DD 020601H
	DD	050023206H
xdata	ENDS
;	COMDAT xdata
xdata	SEGMENT
$unwind$?dtor$0@?0???0ImDrawChannel@@QEAA@XZ@4HA DD 020601H
	DD	050023206H
xdata	ENDS
;	COMDAT xdata
xdata	SEGMENT
$ip2state$??0ImDrawChannel@@QEAA@XZ DB 06H
	DB	00H
	DB	00H
	DB	'.'
	DB	02H
	DB	'$'
	DB	00H
xdata	ENDS
;	COMDAT xdata
xdata	SEGMENT
$stateUnwindMap$??0ImDrawChannel@@QEAA@XZ DB 04H
	DB	0eH
	DD	imagerel ?dtor$0@?0???0ImDrawChannel@@QEAA@XZ@4HA
	DB	02eH
	DD	imagerel ?dtor$1@?0???0ImDrawChannel@@QEAA@XZ@4HA
xdata	ENDS
;	COMDAT xdata
xdata	SEGMENT
$cppxdata$??0ImDrawChannel@@QEAA@XZ DB 08H
	DD	imagerel $stateUnwindMap$??0ImDrawChannel@@QEAA@XZ
	DD	imagerel $ip2state$??0ImDrawChannel@@QEAA@XZ
xdata	ENDS
;	COMDAT xdata
xdata	SEGMENT
$unwind$??0ImDrawChannel@@QEAA@XZ DD 010911H
	DD	04209H
	DD	imagerel __CxxFrameHandler4
	DD	imagerel $cppxdata$??0ImDrawChannel@@QEAA@XZ
xdata	ENDS
;	COMDAT xdata
xdata	SEGMENT
$unwind$?push_back@?$ImVector@UImDrawCmd@@@@QEAAXAEBUImDrawCmd@@@Z DD 010e01H
	DD	0420eH
xdata	ENDS
;	COMDAT xdata
xdata	SEGMENT
$unwind$?reserve@?$ImVector@UImDrawCmd@@@@QEAAXH@Z DD 010d01H
	DD	0620dH
xdata	ENDS
;	COMDAT xdata
xdata	SEGMENT
$unwind$?resize@?$ImVector@UImDrawCmd@@@@QEAAXH@Z DD 010d01H
	DD	0420dH
xdata	ENDS
;	COMDAT xdata
xdata	SEGMENT
$unwind$?_grow_capacity@?$ImVector@UImDrawCmd@@@@QEBAHH@Z DD 010d01H
	DD	0220dH
xdata	ENDS
;	COMDAT xdata
xdata	SEGMENT
$unwind$?clear@?$ImVector@UImDrawCmd@@@@QEAAXXZ DD 010901H
	DD	04209H
xdata	ENDS
;	COMDAT xdata
xdata	SEGMENT
$ip2state$??1?$ImVector@UImDrawCmd@@@@QEAA@XZ DB 02H
	DB	00H
	DB	00H
xdata	ENDS
;	COMDAT xdata
xdata	SEGMENT
$cppxdata$??1?$ImVector@UImDrawCmd@@@@QEAA@XZ DB 040H
	DD	imagerel $ip2state$??1?$ImVector@UImDrawCmd@@@@QEAA@XZ
xdata	ENDS
;	COMDAT xdata
xdata	SEGMENT
$unwind$??1?$ImVector@UImDrawCmd@@@@QEAA@XZ DD 010919H
	DD	04209H
	DD	imagerel __CxxFrameHandler4
	DD	imagerel $cppxdata$??1?$ImVector@UImDrawCmd@@@@QEAA@XZ
xdata	ENDS
;	COMDAT xdata
xdata	SEGMENT
$unwind$??4?$ImVector@UImDrawCmd@@@@QEAAAEAU0@AEBU0@@Z DD 010e01H
	DD	0420eH
xdata	ENDS
;	COMDAT xdata
xdata	SEGMENT
$unwind$??0ImDrawCmd@@QEAA@XZ DD 010901H
	DD	04209H
xdata	ENDS
;	COMDAT xdata
xdata	SEGMENT
$unwind$?push_back@?$ImVector@G@@QEAAXAEBG@Z DD 010e01H
	DD	0420eH
xdata	ENDS
;	COMDAT xdata
xdata	SEGMENT
$unwind$?reserve@?$ImVector@G@@QEAAXH@Z DD 010d01H
	DD	0620dH
xdata	ENDS
;	COMDAT xdata
xdata	SEGMENT
$unwind$?resize@?$ImVector@G@@QEAAXHAEBG@Z DD 011201H
	DD	06212H
xdata	ENDS
;	COMDAT xdata
xdata	SEGMENT
$unwind$?resize@?$ImVector@G@@QEAAXH@Z DD 010d01H
	DD	0420dH
xdata	ENDS
;	COMDAT xdata
xdata	SEGMENT
$unwind$?_grow_capacity@?$ImVector@G@@QEBAHH@Z DD 010d01H
	DD	0220dH
xdata	ENDS
;	COMDAT xdata
xdata	SEGMENT
$unwind$?clear@?$ImVector@G@@QEAAXXZ DD 010901H
	DD	04209H
xdata	ENDS
;	COMDAT xdata
xdata	SEGMENT
$unwind$?empty@?$ImVector@G@@QEBA_NXZ DD 010901H
	DD	02209H
xdata	ENDS
;	COMDAT xdata
xdata	SEGMENT
$ip2state$??1?$ImVector@G@@QEAA@XZ DB 02H
	DB	00H
	DB	00H
xdata	ENDS
;	COMDAT xdata
xdata	SEGMENT
$cppxdata$??1?$ImVector@G@@QEAA@XZ DB 040H
	DD	imagerel $ip2state$??1?$ImVector@G@@QEAA@XZ
xdata	ENDS
;	COMDAT xdata
xdata	SEGMENT
$unwind$??1?$ImVector@G@@QEAA@XZ DD 010919H
	DD	04209H
	DD	imagerel __CxxFrameHandler4
	DD	imagerel $cppxdata$??1?$ImVector@G@@QEAA@XZ
xdata	ENDS
;	COMDAT xdata
xdata	SEGMENT
$unwind$??4?$ImVector@G@@QEAAAEAU0@AEBU0@@Z DD 010e01H
	DD	0420eH
xdata	ENDS
xdata	SEGMENT
$unwind$?StyleColorsDark@ImGui@@YAXPEAUImGuiStyle@@@Z DD 040e01H
	DD	069010eH
	DD	060067007H
$unwind$?StyleColorsClassic@ImGui@@YAXPEAUImGuiStyle@@@Z DD 040e01H
	DD	069010eH
	DD	060067007H
$unwind$?StyleColorsLight@ImGui@@YAXPEAUImGuiStyle@@@Z DD 040e01H
	DD	069010eH
	DD	060067007H
$unwind$?PushClipRect@ImDrawList@@QEAAXUImVec2@@0_N@Z DD 031a01H
	DD	07016c21aH
	DD	06015H
$unwind$?PushClipRectFullScreen@ImDrawList@@QEAAXXZ DD 010901H
	DD	08209H
$unwind$?PopClipRect@ImDrawList@@QEAAXXZ DD 010901H
	DD	04209H
$unwind$?PushTextureID@ImDrawList@@QEAAXPEAX@Z DD 010e01H
	DD	0620eH
$unwind$?PopTextureID@ImDrawList@@QEAAXXZ DD 010901H
	DD	04209H
$unwind$?DrawBox_S@ImDrawList@@QEAAXAEBUImVec2@@0IMM@Z DD 021b01H
	DD	0f7011bH
$unwind$?DrawHealthBar@ImDrawList@@QEAAXAEBUImVec2@@0MM@Z DD 021c01H
	DD	02b011cH
$unwind$?AddLine@ImDrawList@@QEAAXAEBUImVec2@@0IM@Z DD 011801H
	DD	08218H
$unwind$?AddRect@ImDrawList@@QEAAXAEBUImVec2@@0IMHM@Z DD 021b01H
	DD	013011bH
$unwind$?AddRectFilled@ImDrawList@@QEAAXAEBUImVec2@@0IMH@Z DD 011801H
	DD	06218H
$unwind$?AddRectFilledMultiColor@ImDrawList@@QEAAXAEBUImVec2@@0IIII@Z DD 011801H
	DD	08218H
$unwind$?AddQuad@ImDrawList@@QEAAXAEBUImVec2@@000IM@Z DD 011801H
	DD	04218H
$unwind$?AddQuadFilled@ImDrawList@@QEAAXAEBUImVec2@@000I@Z DD 011801H
	DD	04218H
$unwind$?AddTriangle@ImDrawList@@QEAAXAEBUImVec2@@00IM@Z DD 011801H
	DD	04218H
$unwind$?AddTriangleFilled@ImDrawList@@QEAAXAEBUImVec2@@00I@Z DD 011801H
	DD	04218H
$unwind$?AddCircle@ImDrawList@@QEAAXAEBUImVec2@@MIHM@Z DD 011901H
	DD	08219H
$unwind$?AddCircleFilled@ImDrawList@@QEAAXAEBUImVec2@@MIH@Z DD 011901H
	DD	08219H
$unwind$?AddText@ImDrawList@@QEAAXAEBUImVec2@@IPEBD1@Z DD 011801H
	DD	0a218H
$unwind$?AddText@ImDrawList@@QEAAXPEBUImFont@@MAEBUImVec2@@IPEBD2MPEBUImVec4@@@Z DD 031b01H
	DD	07017e21bH
	DD	06016H
$unwind$?AddImage@ImDrawList@@QEAAXPEAXAEBUImVec2@@111I@Z DD 011801H
	DD	08218H
$unwind$?AddImageQuad@ImDrawList@@QEAAXPEAXAEBUImVec2@@1111111I@Z DD 011801H
	DD	0c218H
$unwind$?AddImageRounded@ImDrawList@@QEAAXPEAXAEBUImVec2@@111IMH@Z DD 011801H
	DD	0a218H
$unwind$?AddPolyline@ImDrawList@@QEAAXPEBUImVec2@@HI_NM@Z DD 025043219H
	DD	011c2321H
	DD	050150040H
	DD	imagerel __GSHandlerCheck
	DD	01f8H
$unwind$?AddConvexPolyFilled@ImDrawList@@QEAAXPEBUImVec2@@HI@Z DD 025043219H
	DD	011c2321H
	DD	05015001aH
	DD	imagerel __GSHandlerCheck
	DD	0c0H
$unwind$?AddBezierCurve@ImDrawList@@QEAAXAEBUImVec2@@000IMH@Z DD 011801H
	DD	06218H
$unwind$?DrawTextOutline@ImDrawList@@QEAA?AUImVec2@@PEBUImFont@@MMU2@IIKPEBDZZ DD 055043319H
	DD	011d5322H
	DD	0501600a0H
	DD	imagerel __GSHandlerCheck
	DD	04f0H
$unwind$?PathArcTo@ImDrawList@@QEAAXAEBUImVec2@@MMMH@Z DD 011a01H
	DD	0a21aH
$unwind$?PathArcToFast@ImDrawList@@QEAAXAEBUImVec2@@MHH@Z DD 011901H
	DD	0c219H
$unwind$?PathBezierCurveTo@ImDrawList@@QEAAXAEBUImVec2@@00H@Z DD 021b01H
	DD	015011bH
$unwind$?PathRect@ImDrawList@@QEAAXAEBUImVec2@@0MH@Z DD 021c01H
	DD	013011cH
$unwind$?ChannelsSplit@ImDrawList@@QEAAXH@Z DD 041211H
	DD	01d0112H
	DD	0600a700bH
	DD	imagerel __CxxFrameHandler4
	DD	imagerel $cppxdata$?ChannelsSplit@ImDrawList@@QEAAXH@Z
$cppxdata$?ChannelsSplit@ImDrawList@@QEAAXH@Z DB 08H
	DD	imagerel $stateUnwindMap$?ChannelsSplit@ImDrawList@@QEAAXH@Z
	DD	imagerel $ip2state$?ChannelsSplit@ImDrawList@@QEAAXH@Z
$stateUnwindMap$?ChannelsSplit@ImDrawList@@QEAAXH@Z DB 02H
	DB	0eH
	DD	imagerel ?dtor$0@?0??ChannelsSplit@ImDrawList@@QEAAXH@Z@4HA
$ip2state$?ChannelsSplit@ImDrawList@@QEAAXH@Z DB 06H
	DB	00H
	DB	00H
	DB	'9', 04H
	DB	02H
	DB	'z'
	DB	00H
	ORG $+1
$unwind$?dtor$0@?0??ChannelsSplit@ImDrawList@@QEAAXH@Z@4HA DD 020601H
	DD	050023206H
$unwind$?ChannelsMerge@ImDrawList@@QEAAXXZ DD 010901H
	DD	0e209H
$unwind$?ChannelsSetCurrent@ImDrawList@@QEAAXH@Z DD 010d01H
	DD	0420dH
$unwind$?AddCallback@ImDrawList@@QEAAXP6AXPEBU1@PEBUImDrawCmd@@@ZPEAX@Z DD 011301H
	DD	06213H
$unwind$?AddDrawCmd@ImDrawList@@QEAAXXZ DD 030b01H
	DD	07007e20bH
	DD	06006H
$unwind$?CloneOutput@ImDrawList@@QEBAPEAU1@XZ DD 010911H
	DD	0c209H
	DD	imagerel __CxxFrameHandler4
	DD	imagerel $cppxdata$?CloneOutput@ImDrawList@@QEBAPEAU1@XZ
$cppxdata$?CloneOutput@ImDrawList@@QEBAPEAU1@XZ DB 08H
	DD	imagerel $stateUnwindMap$?CloneOutput@ImDrawList@@QEBAPEAU1@XZ
	DD	imagerel $ip2state$?CloneOutput@ImDrawList@@QEBAPEAU1@XZ
$stateUnwindMap$?CloneOutput@ImDrawList@@QEBAPEAU1@XZ DB 02H
	DB	0eH
	DD	imagerel ?dtor$0@?0??CloneOutput@ImDrawList@@QEBAPEAU1@XZ@4HA
$ip2state$?CloneOutput@ImDrawList@@QEBAPEAU1@XZ DB 06H
	DB	00H
	DB	00H
	DB	'|'
	DB	02H
	DB	'\'
	DB	00H
	ORG $+2
$unwind$?dtor$0@?0??CloneOutput@ImDrawList@@QEBAPEAU1@XZ@4HA DD 020601H
	DD	050023206H
$unwind$?Clear@ImDrawList@@QEAAXXZ DD 010901H
	DD	0a209H
$unwind$?ClearFreeMemory@ImDrawList@@QEAAXXZ DD 010901H
	DD	08209H
$unwind$?PrimReserve@ImDrawList@@QEAAXHH@Z DD 011201H
	DD	08212H
$unwind$?PrimRect@ImDrawList@@QEAAXAEBUImVec2@@0I@Z DD 011801H
	DD	08218H
$unwind$?PrimRectUV@ImDrawList@@QEAAXAEBUImVec2@@000I@Z DD 011801H
	DD	0a218H
$unwind$?PrimQuadUV@ImDrawList@@QEAAXAEBUImVec2@@0000000I@Z DD 011801H
	DD	02218H
$unwind$?UpdateClipRect@ImDrawList@@QEAAXXZ DD 030b01H
	DD	07007e20bH
	DD	06006H
$unwind$?UpdateTextureID@ImDrawList@@QEAAXXZ DD 010901H
	DD	0c209H
$unwind$?DeIndexAllBuffers@ImDrawData@@QEAAXXZ DD 040e11H
	DD	011010eH
	DD	060067007H
	DD	imagerel __CxxFrameHandler4
	DD	imagerel $cppxdata$?DeIndexAllBuffers@ImDrawData@@QEAAXXZ
$cppxdata$?DeIndexAllBuffers@ImDrawData@@QEAAXXZ DB 08H
	DD	imagerel $stateUnwindMap$?DeIndexAllBuffers@ImDrawData@@QEAAXXZ
	DD	imagerel $ip2state$?DeIndexAllBuffers@ImDrawData@@QEAAXXZ
$stateUnwindMap$?DeIndexAllBuffers@ImDrawData@@QEAAXXZ DB 02H
	DB	0eH
	DD	imagerel ?dtor$0@?0??DeIndexAllBuffers@ImDrawData@@QEAAXXZ@4HA
$ip2state$?DeIndexAllBuffers@ImDrawData@@QEAAXXZ DB 06H
	DB	00H
	DB	00H
	DB	'2'
	DB	02H
	DB	0c5H, 05H
	DB	00H
	ORG $+1
$unwind$?dtor$0@?0??DeIndexAllBuffers@ImDrawData@@QEAAXXZ@4HA DD 020601H
	DD	050023206H
$unwind$?ScaleClipRects@ImDrawData@@QEAAXAEBUImVec2@@@Z DD 031001H
	DD	0700ce210H
	DD	0600bH
$unwind$??0ImFontConfig@@QEAA@XZ DD 010901H
	DD	06209H
$unwind$?AddText@ImFontGlyphRangesBuilder@@QEAAXPEBD0@Z DD 011301H
	DD	06213H
$unwind$?AddRanges@ImFontGlyphRangesBuilder@@QEAAXPEBG@Z DD 010e01H
	DD	0620eH
$unwind$?BuildRanges@ImFontGlyphRangesBuilder@@QEAAXPEAU?$ImVector@G@@@Z DD 010e01H
	DD	0620eH
$unwind$??0ImFontAtlas@@QEAA@XZ DD 010911H
	DD	08209H
	DD	imagerel __CxxFrameHandler4
	DD	imagerel $cppxdata$??0ImFontAtlas@@QEAA@XZ
$cppxdata$??0ImFontAtlas@@QEAA@XZ DB 08H
	DD	imagerel $stateUnwindMap$??0ImFontAtlas@@QEAA@XZ
	DD	imagerel $ip2state$??0ImFontAtlas@@QEAA@XZ
$stateUnwindMap$??0ImFontAtlas@@QEAA@XZ DB 06H
	DB	0eH
	DD	imagerel ?dtor$0@?0???0ImFontAtlas@@QEAA@XZ@4HA
	DB	02eH
	DD	imagerel ?dtor$1@?0???0ImFontAtlas@@QEAA@XZ@4HA
	DB	02eH
	DD	imagerel ?dtor$2@?0???0ImFontAtlas@@QEAA@XZ@4HA
$ip2state$??0ImFontAtlas@@QEAA@XZ DB 0aH
	DB	00H
	DB	00H
	DB	'z'
	DB	02H
	DB	'$'
	DB	04H
	DB	'$'
	DB	06H
	DB	'I', 03H
	DB	00H
	ORG $+3
$unwind$?dtor$0@?0???0ImFontAtlas@@QEAA@XZ@4HA DD 020601H
	DD	050023206H
$unwind$?dtor$1@?0???0ImFontAtlas@@QEAA@XZ@4HA DD 020601H
	DD	050023206H
$unwind$?dtor$2@?0???0ImFontAtlas@@QEAA@XZ@4HA DD 020601H
	DD	050023206H
$unwind$??1ImFontAtlas@@QEAA@XZ DD 010919H
	DD	04209H
	DD	imagerel __CxxFrameHandler4
	DD	imagerel $cppxdata$??1ImFontAtlas@@QEAA@XZ
$cppxdata$??1ImFontAtlas@@QEAA@XZ DB 048H
	DD	imagerel $stateUnwindMap$??1ImFontAtlas@@QEAA@XZ
	DD	imagerel $ip2state$??1ImFontAtlas@@QEAA@XZ
$stateUnwindMap$??1ImFontAtlas@@QEAA@XZ DB 06H
	DB	0eH
	DD	imagerel ?dtor$0@?0???1ImFontAtlas@@QEAA@XZ@4HA
	DB	02eH
	DD	imagerel ?dtor$1@?0???1ImFontAtlas@@QEAA@XZ@4HA
	DB	02eH
	DD	imagerel ?dtor$2@?0???1ImFontAtlas@@QEAA@XZ@4HA
$ip2state$??1ImFontAtlas@@QEAA@XZ DB 0aH
	DB	00H
	DB	00H
	DB	012H
	DB	06H
	DB	016H
	DB	04H
	DB	'$'
	DB	02H
	DB	'$'
	DB	00H
$unwind$?dtor$0@?0???1ImFontAtlas@@QEAA@XZ@4HA DD 020601H
	DD	050023206H
$unwind$?dtor$1@?0???1ImFontAtlas@@QEAA@XZ@4HA DD 020601H
	DD	050023206H
$unwind$?dtor$2@?0???1ImFontAtlas@@QEAA@XZ@4HA DD 020601H
	DD	050023206H
$unwind$?AddFont@ImFontAtlas@@QEAAPEAUImFont@@PEBUImFontConfig@@@Z DD 010e11H
	DD	0e20eH
	DD	imagerel __CxxFrameHandler4
	DD	imagerel $cppxdata$?AddFont@ImFontAtlas@@QEAAPEAUImFont@@PEBUImFontConfig@@@Z
$cppxdata$?AddFont@ImFontAtlas@@QEAAPEAUImFont@@PEBUImFontConfig@@@Z DB 08H
	DD	imagerel $stateUnwindMap$?AddFont@ImFontAtlas@@QEAAPEAUImFont@@PEBUImFontConfig@@@Z
	DD	imagerel $ip2state$?AddFont@ImFontAtlas@@QEAAPEAUImFont@@PEBUImFontConfig@@@Z
$stateUnwindMap$?AddFont@ImFontAtlas@@QEAAPEAUImFont@@PEBUImFontConfig@@@Z DB 02H
	DB	0eH
	DD	imagerel ?dtor$0@?0??AddFont@ImFontAtlas@@QEAAPEAUImFont@@PEBUImFontConfig@@@Z@4HA
$ip2state$?AddFont@ImFontAtlas@@QEAAPEAUImFont@@PEBUImFontConfig@@@Z DB 06H
	DB	00H
	DB	00H
	DB	0d0H
	DB	02H
	DB	'X'
	DB	00H
	ORG $+2
$unwind$?dtor$0@?0??AddFont@ImFontAtlas@@QEAAPEAUImFont@@PEBUImFontConfig@@@Z@4HA DD 020601H
	DD	050023206H
$unwind$?AddFontFromFileTTF@ImFontAtlas@@QEAAPEAUImFont@@PEBDMPEBUImFontConfig@@PEBG@Z DD 043019H
	DD	03f011eH
	DD	060167017H
	DD	imagerel __GSHandlerCheck
	DD	01e0H
$unwind$?AddFontFromMemoryTTF@ImFontAtlas@@QEAAPEAUImFont@@PEAXHMPEBUImFontConfig@@PEBG@Z DD 043019H
	DD	039011eH
	DD	060167017H
	DD	imagerel __GSHandlerCheck
	DD	01b0H
$unwind$?AddFontFromMemoryCompressedTTF@ImFontAtlas@@QEAAPEAUImFont@@PEBXHMPEBUImFontConfig@@PEBG@Z DD 043019H
	DD	03d011eH
	DD	060167017H
	DD	imagerel __GSHandlerCheck
	DD	01d0H
$unwind$?AddFontFromMemoryCompressedBase85TTF@ImFontAtlas@@QEAAPEAUImFont@@PEBDMPEBUImFontConfig@@PEBG@Z DD 011901H
	DD	0a219H
$unwind$?ClearInputData@ImFontAtlas@@QEAAXXZ DD 010901H
	DD	0e209H
$unwind$?ClearTexData@ImFontAtlas@@QEAAXXZ DD 010901H
	DD	04209H
$unwind$?ClearFonts@ImFontAtlas@@QEAAXXZ DD 010901H
	DD	06209H
$unwind$?Clear@ImFontAtlas@@QEAAXXZ DD 010901H
	DD	04209H
$unwind$?Build@ImFontAtlas@@QEAA_NXZ DD 010901H
	DD	04209H
$unwind$?GetTexDataAsAlpha8@ImFontAtlas@@QEAAXPEAPEAEPEAH11@Z DD 011801H
	DD	04218H
$unwind$?GetTexDataAsRGBA32@ImFontAtlas@@QEAAXPEAPEAEPEAH11@Z DD 011801H
	DD	0a218H
$unwind$?GetGlyphRangesJapanese@ImFontAtlas@@QEAAPEBGXZ DD 010901H
	DD	04209H
$unwind$?GetGlyphRangesChineseSimplifiedCommon@ImFontAtlas@@QEAAPEBGXZ DD 010901H
	DD	04209H
$unwind$?AddCustomRectRegular@ImFontAtlas@@QEAAHIHH@Z DD 011701H
	DD	0a217H
$unwind$?AddCustomRectFontGlyph@ImFontAtlas@@QEAAHPEAUImFont@@GHHMAEBUImVec2@@@Z DD 011901H
	DD	0a219H
$unwind$?CalcCustomRectUV@ImFontAtlas@@QEAAXPEBUCustomRect@1@PEAUImVec2@@1@Z DD 011801H
	DD	06218H
$unwind$?GetMouseCursorTexData@ImFontAtlas@@QEAA_NHPEAUImVec2@@0QEAU2@1@Z DD 021a01H
	DD	013011aH
$unwind$??0ImFont@@QEAA@XZ DD 010911H
	DD	06209H
	DD	imagerel __CxxFrameHandler4
	DD	imagerel $cppxdata$??0ImFont@@QEAA@XZ
$cppxdata$??0ImFont@@QEAA@XZ DB 08H
	DD	imagerel $stateUnwindMap$??0ImFont@@QEAA@XZ
	DD	imagerel $ip2state$??0ImFont@@QEAA@XZ
$stateUnwindMap$??0ImFont@@QEAA@XZ DB 06H
	DB	0eH
	DD	imagerel ?dtor$0@?0???0ImFont@@QEAA@XZ@4HA
	DB	02eH
	DD	imagerel ?dtor$1@?0???0ImFont@@QEAA@XZ@4HA
	DB	02eH
	DD	imagerel ?dtor$2@?0???0ImFont@@QEAA@XZ@4HA
$ip2state$??0ImFont@@QEAA@XZ DB 0aH
	DB	00H
	DB	00H
	DB	'.'
	DB	02H
	DB	'$'
	DB	04H
	DB	'$'
	DB	06H
	DB	'!', 03H
	DB	00H
	ORG $+3
$unwind$?dtor$0@?0???0ImFont@@QEAA@XZ@4HA DD 020601H
	DD	050023206H
$unwind$?dtor$1@?0???0ImFont@@QEAA@XZ@4HA DD 020601H
	DD	050023206H
$unwind$?dtor$2@?0???0ImFont@@QEAA@XZ@4HA DD 020601H
	DD	050023206H
$unwind$??1ImFont@@QEAA@XZ DD 010919H
	DD	04209H
	DD	imagerel __CxxFrameHandler4
	DD	imagerel $cppxdata$??1ImFont@@QEAA@XZ
$cppxdata$??1ImFont@@QEAA@XZ DB 048H
	DD	imagerel $stateUnwindMap$??1ImFont@@QEAA@XZ
	DD	imagerel $ip2state$??1ImFont@@QEAA@XZ
$stateUnwindMap$??1ImFont@@QEAA@XZ DB 06H
	DB	0eH
	DD	imagerel ?dtor$0@?0???1ImFont@@QEAA@XZ@4HA
	DB	02eH
	DD	imagerel ?dtor$1@?0???1ImFont@@QEAA@XZ@4HA
	DB	02eH
	DD	imagerel ?dtor$2@?0???1ImFont@@QEAA@XZ@4HA
$ip2state$??1ImFont@@QEAA@XZ DB 0aH
	DB	00H
	DB	00H
	DB	012H
	DB	06H
	DB	016H
	DB	04H
	DB	'$'
	DB	02H
	DB	'$'
	DB	00H
$unwind$?dtor$0@?0???1ImFont@@QEAA@XZ@4HA DD 020601H
	DD	050023206H
$unwind$?dtor$1@?0???1ImFont@@QEAA@XZ@4HA DD 020601H
	DD	050023206H
$unwind$?dtor$2@?0???1ImFont@@QEAA@XZ@4HA DD 020601H
	DD	050023206H
$unwind$?FindGlyph@ImFont@@QEBAPEBUImFontGlyph@@G@Z DD 010e01H
	DD	0220eH
$unwind$?FindGlyphNoFallback@ImFont@@QEBAPEBUImFontGlyph@@G@Z DD 010e01H
	DD	0220eH
$unwind$?CalcTextSizeA@ImFont@@QEBA?AUImVec2@@MMMPEBD0PEAPEBD@Z DD 021d01H
	DD	011011dH
$unwind$?CalcWordWrapPositionA@ImFont@@QEBAPEBDMPEBD0M@Z DD 011901H
	DD	0e219H
$unwind$?RenderChar@ImFont@@QEBAXPEAUImDrawList@@MUImVec2@@IG@Z DD 021c01H
	DD	013011cH
$unwind$?RenderText@ImFont@@QEBAXPEAUImDrawList@@MUImVec2@@IAEBUImVec4@@PEBD3M_N@Z DD 021c01H
	DD	021011cH
$unwind$?BuildLookupTable@ImFont@@QEAAXXZ DD 040e01H
	DD	017010eH
	DD	060067007H
$unwind$?ClearOutputData@ImFont@@QEAAXXZ DD 010901H
	DD	04209H
$unwind$?GrowIndex@ImFont@@QEAAXH@Z DD 010d01H
	DD	0820dH
$unwind$?AddGlyph@ImFont@@QEAAXGMMMMMMMMM@Z DD 011a01H
	DD	0621aH
$unwind$?AddRemapChar@ImFont@@QEAAXGG_N@Z DD 011901H
	DD	08219H
$unwind$?SetFallbackChar@ImFont@@QEAAXG@Z DD 010e01H
	DD	0420eH
$unwind$?ImCharIsBlankA@@YA_ND@Z DD 010801H
	DD	02208H
$unwind$?ImCharIsBlankW@@YA_NI@Z DD 010801H
	DD	02208H
$unwind$??D@YA?AUImVec2@@AEBU0@M@Z DD 011401H
	DD	04214H
$unwind$??H@YA?AUImVec2@@AEBU0@0@Z DD 011301H
	DD	04213H
$unwind$??G@YA?AUImVec2@@AEBU0@0@Z DD 011301H
	DD	04213H
$unwind$??D@YA?AUImVec2@@AEBU0@0@Z DD 011301H
	DD	04213H
$unwind$?ImFabs@@YAMM@Z DD 010a01H
	DD	0420aH
$unwind$?ImSqrt@@YAMM@Z DD 010a01H
	DD	0420aH
$unwind$?ImCos@@YAMM@Z DD 010a01H
	DD	0420aH
$unwind$?ImSin@@YAMM@Z DD 010a01H
	DD	0420aH
$unwind$?ImAcos@@YAMM@Z DD 010a01H
	DD	0420aH
$unwind$?ImFloorStd@@YAMM@Z DD 010a01H
	DD	0420aH
$unwind$?ImCeil@@YAMM@Z DD 010a01H
	DD	0420aH
$unwind$?ImMin@@YA?AUImVec2@@AEBU1@0@Z DD 011301H
	DD	06213H
$unwind$?ImMax@@YA?AUImVec2@@AEBU1@0@Z DD 011301H
	DD	06213H
$unwind$?ImClamp@@YA?AUImVec2@@AEBU1@0U1@@Z DD 011801H
	DD	06218H
$unwind$?ImLerp@@YA?AUImVec4@@AEBU1@0M@Z DD 011901H
	DD	08219H
$unwind$??$ImMin@M@@YAMMM@Z DD 011001H
	DD	02210H
$unwind$??$ImMax@M@@YAMMM@Z DD 011001H
	DD	02210H
$unwind$?ImMul@@YA?AUImVec2@@AEBU1@0@Z DD 011301H
	DD	04213H
$unwind$??0ImDrawListSharedData@@QEAA@XZ DD 030b01H
	DD	07007c20bH
	DD	06006H
$unwind$?RenderMouseCursor@ImGui@@YAXPEAUImDrawList@@UImVec2@@MH@Z DD 022e19H
	DD	035011cH
	DD	imagerel __GSHandlerCheck
	DD	0190H
$unwind$?RenderArrowPointingAt@ImGui@@YAXPEAUImDrawList@@UImVec2@@1HI@Z DD 021b01H
	DD	019011bH
$unwind$?RenderRectFilledRangeH@ImGui@@YAXPEAUImDrawList@@AEBUImRect@@IMMM@Z DD 021c01H
	DD	01f011cH
$unwind$?RenderPixelEllipsis@ImGui@@YAXPEAUImDrawList@@UImVec2@@HI@Z DD 011801H
	DD	0c218H
$unwind$?ShadeVertsLinearColorGradientKeepAlpha@ImGui@@YAXPEAUImDrawList@@HHUImVec2@@1II@Z DD 011701H
	DD	0e217H
$unwind$?ShadeVertsLinearUV@ImGui@@YAXPEAUImDrawList@@HHAEBUImVec2@@111_N@Z DD 021a01H
	DD	01b011aH
$unwind$?ImFontAtlasBuildWithStbTruetype@@YA_NPEAUImFontAtlas@@@Z DD 031f19H
	DD	084010dH
	DD	07006H
	DD	imagerel __GSHandlerCheck_EH4
	DD	imagerel $cppxdata$?ImFontAtlasBuildWithStbTruetype@@YA_NPEAUImFontAtlas@@@Z
	DD	0412H
$cppxdata$?ImFontAtlasBuildWithStbTruetype@@YA_NPEAUImFontAtlas@@@Z DB 08H
	DD	imagerel $stateUnwindMap$?ImFontAtlasBuildWithStbTruetype@@YA_NPEAUImFontAtlas@@@Z
	DD	imagerel $ip2state$?ImFontAtlasBuildWithStbTruetype@@YA_NPEAUImFontAtlas@@@Z
$stateUnwindMap$?ImFontAtlasBuildWithStbTruetype@@YA_NPEAUImFontAtlas@@@Z DB 08H
	DB	0eH
	DD	imagerel ?dtor$0@?0??ImFontAtlasBuildWithStbTruetype@@YA_NPEAUImFontAtlas@@@Z@4HA
	DB	02eH
	DD	imagerel ?dtor$1@?0??ImFontAtlasBuildWithStbTruetype@@YA_NPEAUImFontAtlas@@@Z@4HA
	DB	02eH
	DD	imagerel ?dtor$2@?0??ImFontAtlasBuildWithStbTruetype@@YA_NPEAUImFontAtlas@@@Z@4HA
	DB	02eH
	DD	imagerel ?dtor$3@?0??ImFontAtlasBuildWithStbTruetype@@YA_NPEAUImFontAtlas@@@Z@4HA
$ip2state$?ImFontAtlasBuildWithStbTruetype@@YA_NPEAUImFontAtlas@@@Z DB 01eH
	DB	00H
	DB	00H
	DB	0e5H, 02H
	DB	02H
	DB	01cH
	DB	04H
	DB	'}', 06H
	DB	02H
	DB	01cH
	DB	00H
	DB	'.'
	DB	04H
	DB	0a0H
	DB	02H
	DB	01cH
	DB	00H
	DB	'.'
	DB	04H
	DB	'I', 014H
	DB	06H
	DB	01cH
	DB	08H
	DB	0c9H, '>'
	DB	06H
	DB	01cH
	DB	04H
	DB	01cH
	DB	02H
	DB	01cH
	DB	00H
	ORG $+3
$unwind$?dtor$0@?0??ImFontAtlasBuildWithStbTruetype@@YA_NPEAUImFontAtlas@@@Z@4HA DD 020601H
	DD	050023206H
$unwind$?dtor$1@?0??ImFontAtlasBuildWithStbTruetype@@YA_NPEAUImFontAtlas@@@Z@4HA DD 020601H
	DD	050023206H
$unwind$?dtor$2@?0??ImFontAtlasBuildWithStbTruetype@@YA_NPEAUImFontAtlas@@@Z@4HA DD 020601H
	DD	050023206H
$unwind$?dtor$3@?0??ImFontAtlasBuildWithStbTruetype@@YA_NPEAUImFontAtlas@@@Z@4HA DD 020601H
	DD	050023206H
$unwind$?ImFontAtlasBuildRegisterDefaultCustomRects@@YAXPEAUImFontAtlas@@@Z DD 010901H
	DD	04209H
$unwind$?ImFontAtlasBuildSetupFont@@YAXPEAUImFontAtlas@@PEAUImFont@@PEAUImFontConfig@@MM@Z DD 011901H
	DD	04219H
$unwind$?ImFontAtlasBuildPackCustomRects@@YAXPEAUImFontAtlas@@PEAX@Z DD 010e11H
	DD	0c20eH
	DD	imagerel __CxxFrameHandler4
	DD	imagerel $cppxdata$?ImFontAtlasBuildPackCustomRects@@YAXPEAUImFontAtlas@@PEAX@Z
$cppxdata$?ImFontAtlasBuildPackCustomRects@@YAXPEAUImFontAtlas@@PEAX@Z DB 08H
	DD	imagerel $stateUnwindMap$?ImFontAtlasBuildPackCustomRects@@YAXPEAUImFontAtlas@@PEAX@Z
	DD	imagerel $ip2state$?ImFontAtlasBuildPackCustomRects@@YAXPEAUImFontAtlas@@PEAX@Z
$stateUnwindMap$?ImFontAtlasBuildPackCustomRects@@YAXPEAUImFontAtlas@@PEAX@Z DB 02H
	DB	0eH
	DD	imagerel ?dtor$0@?0??ImFontAtlasBuildPackCustomRects@@YAXPEAUImFontAtlas@@PEAX@Z@4HA
$ip2state$?ImFontAtlasBuildPackCustomRects@@YAXPEAUImFontAtlas@@PEAX@Z DB 06H
	DB	00H
	DB	00H
	DB	'b'
	DB	02H
	DB	0e9H, 06H
	DB	00H
	ORG $+1
$unwind$?dtor$0@?0??ImFontAtlasBuildPackCustomRects@@YAXPEAUImFontAtlas@@PEAX@Z@4HA DD 020601H
	DD	050023206H
$unwind$?ImFontAtlasBuildFinish@@YAXPEAUImFontAtlas@@@Z DD 020c01H
	DD	015010cH
$unwind$?ImFontAtlasBuildMultiplyCalcLookupTable@@YAXQEAEM@Z DD 010f01H
	DD	0220fH
$unwind$?ImFontAtlasBuildMultiplyRectAlpha8@@YAXQEBEPEAEHHHHH@Z DD 011801H
	DD	02218H
$unwind$stbrp_pack_rects DD 031501H
	DD	07011a215H
	DD	06010H
$unwind$stbrp_init_target DD 011701H
	DD	06217H
$unwind$?stbrp__skyline_find_min_y@@YAHPEAUstbrp_context@@PEAUstbrp_node@@HHPEAH@Z DD 011801H
	DD	04218H
$unwind$?stbrp__skyline_find_best_pos@@YA?AUstbrp__findresult@@PEAUstbrp_context@@HH@Z DD 041d01H
	DD	013011dH
	DD	060157016H
$unwind$?stbrp__skyline_pack_rectangle@@YA?AUstbrp__findresult@@PEAUstbrp_context@@HH@Z DD 031a01H
	DD	07016c21aH
	DD	06015H
$unwind$?rect_height_compare@@YAHPEBX0@Z DD 010e01H
	DD	0420eH
$unwind$?rect_original_order@@YAHPEBX0@Z DD 010e01H
	DD	0420eH
$unwind$stbtt_PackBegin DD 011801H
	DD	0a218H
$unwind$stbtt_PackEnd DD 010901H
	DD	04209H
$unwind$stbtt_GetPackedQuad DD 011701H
	DD	08217H
$unwind$stbtt_PackFontRangesRenderIntoRects DD 021b01H
	DD	01b011bH
$unwind$stbtt_GetFontOffsetForIndex DD 010d01H
	DD	0420dH
$unwind$stbtt_InitFont DD 011301H
	DD	04213H
$unwind$stbtt_FindGlyphIndex DD 021001H
	DD	0130110H
$unwind$stbtt_ScaleForPixelHeight DD 010f01H
	DD	0620fH
$unwind$stbtt_ScaleForMappingEmToPixels DD 010f01H
	DD	0620fH
$unwind$stbtt_GetFontVMetrics DD 011801H
	DD	04218H
$unwind$stbtt_GetGlyphHMetrics DD 011701H
	DD	06217H
$unwind$stbtt_GetGlyphBox DD 011701H
	DD	08217H
$unwind$stbtt_GetGlyphShape DD 011201H
	DD	04212H
$unwind$stbtt_MakeGlyphBitmapSubpixel DD 021b01H
	DD	013011bH
$unwind$stbtt_GetGlyphBitmapBox DD 011901H
	DD	0a219H
$unwind$stbtt_GetGlyphBitmapBoxSubpixel DD 011901H
	DD	08219H
$unwind$stbtt_Rasterize DD 021c01H
	DD	011011cH
$unwind$?stbtt__buf_get8@@YAEPEAUstbtt__buf@@@Z DD 010901H
	DD	02209H
$unwind$?stbtt__buf_seek@@YAXPEAUstbtt__buf@@H@Z DD 010d01H
	DD	0220dH
$unwind$?stbtt__buf_skip@@YAXPEAUstbtt__buf@@H@Z DD 010d01H
	DD	0420dH
$unwind$?stbtt__buf_get@@YAIPEAUstbtt__buf@@H@Z DD 010d01H
	DD	0620dH
$unwind$?stbtt__new_buf@@YA?AUstbtt__buf@@PEBX_K@Z DD 031501H
	DD	070112215H
	DD	06010H
$unwind$?stbtt__buf_range@@YA?AUstbtt__buf@@PEBU1@HH@Z DD 031a01H
	DD	07016821aH
	DD	06015H
$unwind$?stbtt__cff_get_index@@YA?AUstbtt__buf@@PEAU1@@Z DD 031001H
	DD	0700ca210H
	DD	0600bH
$unwind$?stbtt__cff_int@@YAIPEAUstbtt__buf@@@Z DD 010901H
	DD	06209H
$unwind$?stbtt__cff_skip_operand@@YAXPEAUstbtt__buf@@@Z DD 010901H
	DD	06209H
$unwind$?stbtt__dict_get@@YA?AUstbtt__buf@@PEAU1@H@Z DD 031501H
	DD	07011e215H
	DD	06010H
$unwind$?stbtt__dict_get_ints@@YAXPEAUstbtt__buf@@HHPEAI@Z DD 031901H
	DD	07015a219H
	DD	06014H
$unwind$?stbtt__cff_index_count@@YAHPEAUstbtt__buf@@@Z DD 010901H
	DD	04209H
$unwind$?stbtt__cff_index_get@@YA?AUstbtt__buf@@U1@H@Z DD 031501H
	DD	07011a215H
	DD	06010H
$unwind$?stbtt__find_table@@YAIPEAEIPEBD@Z DD 011201H
	DD	06212H
$unwind$?stbtt_GetFontOffsetForIndex_internal@@YAHPEAEH@Z DD 010d01H
	DD	0620dH
$unwind$?stbtt__get_subrs@@YA?AUstbtt__buf@@U1@0@Z DD 041801H
	DD	0190118H
	DD	060107011H
$unwind$?stbtt_InitFont_internal@@YAHPEAUstbtt_fontinfo@@PEAEH@Z DD 041801H
	DD	04b0118H
	DD	060107011H
$unwind$?stbtt__GetGlyfOffset@@YAHPEBUstbtt_fontinfo@@H@Z DD 010d01H
	DD	0620dH
$unwind$?stbtt__GetGlyphInfoT2@@YAHPEBUstbtt_fontinfo@@HPEAH111@Z DD 011701H
	DD	0e217H
$unwind$?stbtt__close_shape@@YAHPEAUstbtt_vertex@@HHHHHHHHH@Z DD 011701H
	DD	0a217H
$unwind$?stbtt__GetGlyphShapeTT@@YAHPEBUstbtt_fontinfo@@HPEAPEAUstbtt_vertex@@@Z DD 022719H
	DD	0310115H
	DD	imagerel __GSHandlerCheck
	DD	0178H
$unwind$?stbtt__csctx_v@@YAXPEAUstbtt__csctx@@EHHHHHH@Z DD 011701H
	DD	06217H
$unwind$?stbtt__csctx_close_shape@@YAXPEAUstbtt__csctx@@@Z DD 010901H
	DD	08209H
$unwind$?stbtt__csctx_rmove_to@@YAXPEAUstbtt__csctx@@MM@Z DD 011501H
	DD	0a215H
$unwind$?stbtt__csctx_rline_to@@YAXPEAUstbtt__csctx@@MM@Z DD 011501H
	DD	08215H
$unwind$?stbtt__csctx_rccurve_to@@YAXPEAUstbtt__csctx@@MMMMMM@Z DD 011b01H
	DD	0a21bH
$unwind$?stbtt__get_subr@@YA?AUstbtt__buf@@U1@H@Z DD 041801H
	DD	0110118H
	DD	060107011H
$unwind$?stbtt__cid_get_glyph_subrs@@YA?AUstbtt__buf@@PEBUstbtt_fontinfo@@H@Z DD 041801H
	DD	01d0118H
	DD	060107011H
$unwind$?stbtt__run_charstring@@YAHPEBUstbtt_fontinfo@@HPEAUstbtt__csctx@@@Z DD 042919H
	DD	05d0117H
	DD	0600f7010H
	DD	imagerel __GSHandlerCheck
	DD	02d0H
$unwind$?stbtt__GetGlyphShapeT2@@YAHPEBUstbtt_fontinfo@@HPEAPEAUstbtt_vertex@@@Z DD 021501H
	DD	0130115H
$unwind$?stbtt__hheap_alloc@@YAPEAXPEAUstbtt__hheap@@_KPEAX@Z DD 011301H
	DD	08213H
$unwind$?stbtt__hheap_cleanup@@YAXPEAUstbtt__hheap@@PEAX@Z DD 010e01H
	DD	0620eH
$unwind$?stbtt__new_active@@YAPEAUstbtt__active_edge@@PEAUstbtt__hheap@@PEAUstbtt__edge@@HMPEAX@Z DD 011901H
	DD	08219H
$unwind$?stbtt__fill_active_edges_new@@YAXPEAM0HPEAUstbtt__active_edge@@M@Z DD 021b01H
	DD	017011bH
$unwind$?stbtt__rasterize_sorted_edges@@YAXPEAUstbtt__bitmap@@PEAUstbtt__edge@@HHHHPEAX@Z DD 022d19H
	DD	05b011bH
	DD	imagerel __GSHandlerCheck
	DD	02c0H
$unwind$?stbtt__sort_edges_ins_sort@@YAXPEAUstbtt__edge@@H@Z DD 031e19H
	DD	0700ba20fH
	DD	0600aH
	DD	imagerel __GSHandlerCheck
	DD	040H
$unwind$?stbtt__sort_edges_quicksort@@YAXPEAUstbtt__edge@@H@Z DD 042419H
	DD	0130112H
	DD	0600a700bH
	DD	imagerel __GSHandlerCheck
	DD	080H
$unwind$?stbtt__sort_edges@@YAXPEAUstbtt__edge@@H@Z DD 010d01H
	DD	0420dH
$unwind$?stbtt__rasterize@@YAXPEAUstbtt__bitmap@@PEAUstbtt__point@@PEAHHMMMMHHHPEAX@Z DD 021b01H
	DD	013011bH
$unwind$?stbtt__tesselate_curve@@YAHPEAUstbtt__point@@PEAHMMMMMMMH@Z DD 011a01H
	DD	0c21aH
$unwind$?stbtt__tesselate_cubic@@YAXPEAUstbtt__point@@PEAHMMMMMMMMMH@Z DD 021d01H
	DD	01b011dH
$unwind$?stbtt_FlattenCurves@@YAPEAUstbtt__point@@PEAUstbtt_vertex@@HMPEAPEAHPEAHPEAX@Z DD 042301H
	DD	0a6823H
	DD	017011bH
$unwind$?stbtt__h_prefilter@@YAXPEAEHHHI@Z DD 012619H
	DD	0a217H
	DD	imagerel __GSHandlerCheck
	DD	040H
$unwind$?stbtt__v_prefilter@@YAXPEAEHHHI@Z DD 012619H
	DD	0a217H
	DD	imagerel __GSHandlerCheck
	DD	040H
$unwind$?PathBezierToCasteljau@@YAXPEAU?$ImVector@UImVec2@@@@MMMMMMMMMH@Z DD 021e01H
	DD	017011eH
$unwind$??$ImClamp@M@@YAMMMM@Z DD 011601H
	DD	02216H
$unwind$?stb_decompress@@YAIPEAEPEBEI@Z DD 011301H
	DD	06213H
$unwind$?Decode85Byte@@YAID@Z DD 010801H
	DD	02208H
$unwind$?Decode85@@YAXPEBEPEAE@Z DD 010e01H
	DD	0820eH
$unwind$?UnpackBoolVectorToFlatIndexList@@YAXPEBUImBoolVector@@PEAU?$ImVector@H@@@Z DD 010e01H
	DD	0a20eH
$unwind$??$ImMax@H@@YAHHH@Z DD 010c01H
	DD	0220cH
$unwind$?ImFontAtlasBuildRenderDefaultTexData@@YAXPEAUImFontAtlas@@@Z DD 010901H
	DD	0c209H
$unwind$?UnpackAccumulativeOffsetsIntoRanges@@YAXHPEBFHPEAG@Z DD 011701H
	DD	02217H
$unwind$?ImAcos01@@YAMM@Z DD 010a01H
	DD	0420aH
$unwind$??$ImSwap@M@@YAXAEAM0@Z DD 010e01H
	DD	0220eH
$unwind$?stb__match@@YAXPEBEI@Z DD 010d01H
	DD	0220dH
$unwind$?stb__lit@@YAXPEBEI@Z DD 010d01H
	DD	0420dH
$unwind$?stb_decompress_token@@YAPEBEPEBE@Z DD 010901H
	DD	04209H
$unwind$?stb_adler32@@YAIIPEAEI@Z DD 011201H
	DD	04212H
xdata	ENDS
;	COMDAT xdata
xdata	SEGMENT
$unwind$??__EQINV_SIGN_MASK@Math@Core@IronMan@@YAXXZ DD 010401H
	DD	04204H
xdata	ENDS
;	COMDAT xdata
xdata	SEGMENT
$unwind$??__EXYZMask@Math@Core@IronMan@@YAXXZ DD 010401H
	DD	04204H
xdata	ENDS
;	COMDAT xdata
xdata	SEGMENT
$unwind$?MakeVectorRegister@Math@Core@IronMan@@YA?AT__m128@@MMMM@Z DD 011c01H
	DD	0221cH
xdata	ENDS
;	COMDAT voltbl
voltbl	SEGMENT
_volmd	DB	020H
	DB	062H
voltbl	ENDS
;	COMDAT xdata
xdata	SEGMENT
$unwind$?MakeVectorRegister@Math@Core@IronMan@@YA?AT__m128@@IIII@Z DD 012519H
	DD	06216H
	DD	imagerel __GSHandlerCheck
	DD	020H
xdata	ENDS
;	COMDAT xdata
xdata	SEGMENT
$unwind$??__Esslinit_@detail@httplib@@YAXXZ DD 010401H
	DD	04204H
xdata	ENDS
;	COMDAT xdata
xdata	SEGMENT
$unwind$??0SSLInit@detail@httplib@@QEAA@XZ DD 010901H
	DD	04209H
xdata	ENDS
;	COMDAT xdata
xdata	SEGMENT
$unwind$??__Fwsinit_@detail@httplib@@YAXXZ DD 010401H
	DD	04204H
xdata	ENDS
;	COMDAT xdata
xdata	SEGMENT
$unwind$??__Ewsinit_@detail@httplib@@YAXXZ DD 010401H
	DD	04204H
xdata	ENDS
;	COMDAT xdata
xdata	SEGMENT
$ip2state$??1WSInit@detail@httplib@@QEAA@XZ DB 02H
	DB	00H
	DB	00H
xdata	ENDS
;	COMDAT xdata
xdata	SEGMENT
$cppxdata$??1WSInit@detail@httplib@@QEAA@XZ DB 040H
	DD	imagerel $ip2state$??1WSInit@detail@httplib@@QEAA@XZ
xdata	ENDS
;	COMDAT xdata
xdata	SEGMENT
$unwind$??1WSInit@detail@httplib@@QEAA@XZ DD 010919H
	DD	04209H
	DD	imagerel __CxxFrameHandler4
	DD	imagerel $cppxdata$??1WSInit@detail@httplib@@QEAA@XZ
xdata	ENDS
;	COMDAT voltbl
voltbl	SEGMENT
_volmd	DB	016H
	DB	04fH
voltbl	ENDS
;	COMDAT xdata
xdata	SEGMENT
$unwind$??0WSInit@detail@httplib@@QEAA@XZ DD 021e19H
	DD	03b010cH
	DD	imagerel __GSHandlerCheck
	DD	01c0H
xdata	ENDS
;	COMDAT xdata
xdata	SEGMENT
$unwind$?round@@YAMM@Z DD 010a01H
	DD	0420aH
xdata	ENDS
;	COMDAT xdata
xdata	SEGMENT
$unwind$fabsf DD 010a01H
	DD	0420aH
xdata	ENDS
;	COMDAT xdata
xdata	SEGMENT
$unwind$_MallocaComputeSize DD 010901H
	DD	02209H
xdata	ENDS
;	COMDAT xdata
xdata	SEGMENT
$unwind$_vsnprintf_s DD 011801H
	DD	06218H
xdata	ENDS
;	COMDAT xdata
xdata	SEGMENT
$unwind$_vsnprintf_s_l DD 011801H
	DD	0a218H
xdata	ENDS
;	COMDAT xdata
xdata	SEGMENT
$unwind$??_H@YAXPEAX_K1P6APEAX0@Z@Z DD 011801H
	DD	06218H
xdata	ENDS
CRT$XCU	SEGMENT
?sslinit_$initializer$@detail@httplib@@3P6AXXZEA DQ FLAT:??__Esslinit_@detail@httplib@@YAXXZ ; httplib::detail::sslinit_$initializer$
CRT$XCU	ENDS
CRT$XCU	SEGMENT
?XYZMask$initializer$@Math@Core@IronMan@@3P6AXXZEA DQ FLAT:??__EXYZMask@Math@Core@IronMan@@YAXXZ ; IronMan::Core::Math::XYZMask$initializer$
CRT$XCU	ENDS
CRT$XCU	SEGMENT
?QINV_SIGN_MASK$initializer$@Math@Core@IronMan@@3P6AXXZEA DQ FLAT:??__EQINV_SIGN_MASK@Math@Core@IronMan@@YAXXZ ; IronMan::Core::Math::QINV_SIGN_MASK$initializer$
CRT$XCU	ENDS
CRT$XCU	SEGMENT
?FONT_ATLAS_DEFAULT_TEX_CURSOR_DATA$initializer$@@3P6AXXZEA DQ FLAT:??__EFONT_ATLAS_DEFAULT_TEX_CURSOR_DATA@@YAXXZ ; FONT_ATLAS_DEFAULT_TEX_CURSOR_DATA$initializer$
CRT$XCU	ENDS
;	COMDAT CRT$XCU
CRT$XCU	SEGMENT
??id$initializer$@?$codecvt@DDU_Mbstatet@@@std@@2P6AXXZEA@@3P6AXXZEA DQ FLAT:??__E?id@?$codecvt@DDU_Mbstatet@@@std@@2V0locale@2@A@@YAXXZ ; ??id$initializer$@?$codecvt@DDU_Mbstatet@@@std@@2P6AXXZEA@@3P6AXXZEA
CRT$XCU	ENDS
;	COMDAT CRT$XCU
CRT$XCU	SEGMENT
??id$initializer$@?$num_put@DV?$ostreambuf_iterator@DU?$char_traits@D@std@@@std@@@std@@2P6AXXZEA@@3P6AXXZEA DQ FLAT:??__E?id@?$num_put@DV?$ostreambuf_iterator@DU?$char_traits@D@std@@@std@@@std@@2V0locale@2@A@@YAXXZ ; ??id$initializer$@?$num_put@DV?$ostreambuf_iterator@DU?$char_traits@D@std@@@std@@@std@@2P6AXXZEA@@3P6AXXZEA
CRT$XCU	ENDS
;	COMDAT CRT$XCU
CRT$XCU	SEGMENT
??id$initializer$@?$collate@D@std@@2P6AXXZEA@@3P6AXXZEA DQ FLAT:??__E?id@?$collate@D@std@@2V0locale@2@A@@YAXXZ ; ??id$initializer$@?$collate@D@std@@2P6AXXZEA@@3P6AXXZEA
CRT$XCU	ENDS
;	COMDAT CRT$XCU
CRT$XCU	SEGMENT
??id$initializer$@?$numpunct@D@std@@2P6AXXZEA@@3P6AXXZEA DQ FLAT:??__E?id@?$numpunct@D@std@@2V0locale@2@A@@YAXXZ ; ??id$initializer$@?$numpunct@D@std@@2P6AXXZEA@@3P6AXXZEA
CRT$XCU	ENDS
; Function compile flags: /Odtp
; File C:\Program Files\Microsoft Visual Studio\2022\Community\VC\Tools\MSVC\14.43.34808\include\xlocnum
;	COMDAT ??__E?id@?$numpunct@D@std@@2V0locale@2@A@@YAXXZ
text$di	SEGMENT
??__E?id@?$numpunct@D@std@@2V0locale@2@A@@YAXXZ PROC	; `dynamic initializer for 'std::numpunct<char>::id'', COMDAT

; 236  : __PURE_APPDOMAIN_GLOBAL locale::id numpunct<_Elem>::id;

	sub	rsp, 40					; 00000028H
	lea	rcx, OFFSET FLAT:?id@?$numpunct@D@std@@2V0locale@2@A ; std::numpunct<char>::id
	call	??$?0$0A@@id@locale@std@@QEAA@XZ	; std::locale::id::id<0>
	npad	1
	add	rsp, 40					; 00000028H
	ret	0
??__E?id@?$numpunct@D@std@@2V0locale@2@A@@YAXXZ ENDP	; `dynamic initializer for 'std::numpunct<char>::id''
text$di	ENDS
; Function compile flags: /Odtp
; File C:\Program Files\Microsoft Visual Studio\2022\Community\VC\Tools\MSVC\14.43.34808\include\locale
;	COMDAT ??__E?id@?$collate@D@std@@2V0locale@2@A@@YAXXZ
text$di	SEGMENT
??__E?id@?$collate@D@std@@2V0locale@2@A@@YAXXZ PROC	; `dynamic initializer for 'std::collate<char>::id'', COMDAT

; 124  : __PURE_APPDOMAIN_GLOBAL locale::id collate<_Elem>::id;

	sub	rsp, 40					; 00000028H
	lea	rcx, OFFSET FLAT:?id@?$collate@D@std@@2V0locale@2@A ; std::collate<char>::id
	call	??$?0$0A@@id@locale@std@@QEAA@XZ	; std::locale::id::id<0>
	npad	1
	add	rsp, 40					; 00000028H
	ret	0
??__E?id@?$collate@D@std@@2V0locale@2@A@@YAXXZ ENDP	; `dynamic initializer for 'std::collate<char>::id''
text$di	ENDS
; Function compile flags: /Odtp
; File C:\Program Files\Microsoft Visual Studio\2022\Community\VC\Tools\MSVC\14.43.34808\include\xlocnum
;	COMDAT ??__E?id@?$num_put@DV?$ostreambuf_iterator@DU?$char_traits@D@std@@@std@@@std@@2V0locale@2@A@@YAXXZ
text$di	SEGMENT
??__E?id@?$num_put@DV?$ostreambuf_iterator@DU?$char_traits@D@std@@@std@@@std@@2V0locale@2@A@@YAXXZ PROC ; `dynamic initializer for 'std::num_put<char,std::ostreambuf_iterator<char,std::char_traits<char> > >::id'', COMDAT

; 1646 : __PURE_APPDOMAIN_GLOBAL locale::id num_put<_Elem, _OutIt>::id;

	sub	rsp, 40					; 00000028H
	lea	rcx, OFFSET FLAT:?id@?$num_put@DV?$ostreambuf_iterator@DU?$char_traits@D@std@@@std@@@std@@2V0locale@2@A ; std::num_put<char,std::ostreambuf_iterator<char,std::char_traits<char> > >::id
	call	??$?0$0A@@id@locale@std@@QEAA@XZ	; std::locale::id::id<0>
	npad	1
	add	rsp, 40					; 00000028H
	ret	0
??__E?id@?$num_put@DV?$ostreambuf_iterator@DU?$char_traits@D@std@@@std@@@std@@2V0locale@2@A@@YAXXZ ENDP ; `dynamic initializer for 'std::num_put<char,std::ostreambuf_iterator<char,std::char_traits<char> > >::id''
text$di	ENDS
; Function compile flags: /Odtp
; File C:\Program Files\Microsoft Visual Studio\2022\Community\VC\Tools\MSVC\14.43.34808\include\xlocale
;	COMDAT ??__E?id@?$codecvt@DDU_Mbstatet@@@std@@2V0locale@2@A@@YAXXZ
text$di	SEGMENT
??__E?id@?$codecvt@DDU_Mbstatet@@@std@@2V0locale@2@A@@YAXXZ PROC ; `dynamic initializer for 'std::codecvt<char,char,_Mbstatet>::id'', COMDAT

; 809  : __PURE_APPDOMAIN_GLOBAL locale::id codecvt<_Elem, _Byte, _Statype>::id;

	sub	rsp, 40					; 00000028H
	lea	rcx, OFFSET FLAT:?id@?$codecvt@DDU_Mbstatet@@@std@@2V0locale@2@A ; std::codecvt<char,char,_Mbstatet>::id
	call	??$?0$0A@@id@locale@std@@QEAA@XZ	; std::locale::id::id<0>
	npad	1
	add	rsp, 40					; 00000028H
	ret	0
??__E?id@?$codecvt@DDU_Mbstatet@@@std@@2V0locale@2@A@@YAXXZ ENDP ; `dynamic initializer for 'std::codecvt<char,char,_Mbstatet>::id''
text$di	ENDS
; Function compile flags: /Odtp
; File C:\Program Files\Microsoft Visual Studio\2022\Community\VC\Tools\MSVC\14.43.34808\include\xlocale
;	COMDAT ??$?0$0A@@id@locale@std@@QEAA@XZ
_TEXT	SEGMENT
this$ = 8
??$?0$0A@@id@locale@std@@QEAA@XZ PROC			; std::locale::id::id<0>, COMDAT

; 81   :         id() noexcept /* strengthened */ {}

	mov	QWORD PTR [rsp+8], rcx

; 82   : #endif // ^^^ !defined(_CRTBLD) ^^^
; 83   : 
; 84   :         id(const id&)            = delete;
; 85   :         id& operator=(const id&) = delete;
; 86   : 
; 87   :         template <int = 0> // TRANSITION, ABI
; 88   :         size_t _Get_index() { // get stamp, with lazy allocation
; 89   :             if (_Id == 0) { // still zero, allocate stamp
; 90   :                 _BEGIN_LOCK(_LOCK_LOCALE)
; 91   :                 if (_Id == 0) {
; 92   :                     _Id = static_cast<size_t>(++_Id_cnt);
; 93   :                 }
; 94   :                 _END_LOCK()
; 95   :             }
; 96   :             return _Id;
; 97   :         }
; 98   : 
; 99   : #ifdef _CRTBLD // TRANSITION, ABI: preserved for binary compatibility
; 100  :         __CLR_OR_THIS_CALL operator size_t() {
; 101  :             return _Get_index();
; 102  :         }
; 103  : #endif // defined(_CRTBLD)
; 104  : 
; 105  :     private:
; 106  :         size_t _Id = 0; // the identifier stamp

	mov	rax, QWORD PTR this$[rsp]
	mov	QWORD PTR [rax], 0

; 81   :         id() noexcept /* strengthened */ {}

	mov	rax, QWORD PTR this$[rsp]
	ret	0
??$?0$0A@@id@locale@std@@QEAA@XZ ENDP			; std::locale::id::id<0>
_TEXT	ENDS
; Function compile flags: /Odtp
; File D:\c++\paoda\Core\Imgui\imgui_draw.cpp
_TEXT	SEGMENT
s1$ = 0
s2$ = 4
i$ = 8
blocklen$ = 12
tv149 = 16
ADLER_MOD$ = 20
adler32$ = 48
buffer$ = 56
buflen$ = 64
?stb_adler32@@YAIIPEAEI@Z PROC				; stb_adler32

; 3272 : {

	mov	DWORD PTR [rsp+24], r8d
	mov	QWORD PTR [rsp+16], rdx
	mov	DWORD PTR [rsp+8], ecx
	sub	rsp, 40					; 00000028H

; 3273 :     const unsigned long ADLER_MOD = 65521;

	mov	DWORD PTR ADLER_MOD$[rsp], 65521	; 0000fff1H

; 3274 :     unsigned long s1 = adler32 & 0xffff, s2 = adler32 >> 16;

	mov	eax, DWORD PTR adler32$[rsp]
	and	eax, 65535				; 0000ffffH
	mov	DWORD PTR s1$[rsp], eax
	mov	eax, DWORD PTR adler32$[rsp]
	shr	eax, 16
	mov	DWORD PTR s2$[rsp], eax

; 3275 :     unsigned long blocklen, i;
; 3276 : 
; 3277 :     blocklen = buflen % 5552;

	xor	edx, edx
	mov	eax, DWORD PTR buflen$[rsp]
	mov	ecx, 5552				; 000015b0H
	div	ecx
	mov	eax, edx
	mov	DWORD PTR blocklen$[rsp], eax
$LN2@stb_adler3:

; 3278 :     while (buflen) {

	cmp	DWORD PTR buflen$[rsp], 0
	je	$LN3@stb_adler3

; 3279 :         for (i = 0; i + 7 < blocklen; i += 8) {

	mov	DWORD PTR i$[rsp], 0
	jmp	SHORT $LN6@stb_adler3
$LN4@stb_adler3:
	mov	eax, DWORD PTR i$[rsp]
	add	eax, 8
	mov	DWORD PTR i$[rsp], eax
$LN6@stb_adler3:
	mov	eax, DWORD PTR i$[rsp]
	add	eax, 7
	cmp	eax, DWORD PTR blocklen$[rsp]
	jae	$LN5@stb_adler3

; 3280 :             s1 += buffer[0], s2 += s1;

	mov	eax, 1
	imul	rax, rax, 0
	mov	rcx, QWORD PTR buffer$[rsp]
	movzx	eax, BYTE PTR [rcx+rax]
	mov	ecx, DWORD PTR s1$[rsp]
	add	ecx, eax
	mov	eax, ecx
	mov	DWORD PTR s1$[rsp], eax
	mov	eax, DWORD PTR s1$[rsp]
	mov	ecx, DWORD PTR s2$[rsp]
	add	ecx, eax
	mov	eax, ecx
	mov	DWORD PTR s2$[rsp], eax

; 3281 :             s1 += buffer[1], s2 += s1;

	mov	eax, 1
	imul	rax, rax, 1
	mov	rcx, QWORD PTR buffer$[rsp]
	movzx	eax, BYTE PTR [rcx+rax]
	mov	ecx, DWORD PTR s1$[rsp]
	add	ecx, eax
	mov	eax, ecx
	mov	DWORD PTR s1$[rsp], eax
	mov	eax, DWORD PTR s1$[rsp]
	mov	ecx, DWORD PTR s2$[rsp]
	add	ecx, eax
	mov	eax, ecx
	mov	DWORD PTR s2$[rsp], eax

; 3282 :             s1 += buffer[2], s2 += s1;

	mov	eax, 1
	imul	rax, rax, 2
	mov	rcx, QWORD PTR buffer$[rsp]
	movzx	eax, BYTE PTR [rcx+rax]
	mov	ecx, DWORD PTR s1$[rsp]
	add	ecx, eax
	mov	eax, ecx
	mov	DWORD PTR s1$[rsp], eax
	mov	eax, DWORD PTR s1$[rsp]
	mov	ecx, DWORD PTR s2$[rsp]
	add	ecx, eax
	mov	eax, ecx
	mov	DWORD PTR s2$[rsp], eax

; 3283 :             s1 += buffer[3], s2 += s1;

	mov	eax, 1
	imul	rax, rax, 3
	mov	rcx, QWORD PTR buffer$[rsp]
	movzx	eax, BYTE PTR [rcx+rax]
	mov	ecx, DWORD PTR s1$[rsp]
	add	ecx, eax
	mov	eax, ecx
	mov	DWORD PTR s1$[rsp], eax
	mov	eax, DWORD PTR s1$[rsp]
	mov	ecx, DWORD PTR s2$[rsp]
	add	ecx, eax
	mov	eax, ecx
	mov	DWORD PTR s2$[rsp], eax

; 3284 :             s1 += buffer[4], s2 += s1;

	mov	eax, 1
	imul	rax, rax, 4
	mov	rcx, QWORD PTR buffer$[rsp]
	movzx	eax, BYTE PTR [rcx+rax]
	mov	ecx, DWORD PTR s1$[rsp]
	add	ecx, eax
	mov	eax, ecx
	mov	DWORD PTR s1$[rsp], eax
	mov	eax, DWORD PTR s1$[rsp]
	mov	ecx, DWORD PTR s2$[rsp]
	add	ecx, eax
	mov	eax, ecx
	mov	DWORD PTR s2$[rsp], eax

; 3285 :             s1 += buffer[5], s2 += s1;

	mov	eax, 1
	imul	rax, rax, 5
	mov	rcx, QWORD PTR buffer$[rsp]
	movzx	eax, BYTE PTR [rcx+rax]
	mov	ecx, DWORD PTR s1$[rsp]
	add	ecx, eax
	mov	eax, ecx
	mov	DWORD PTR s1$[rsp], eax
	mov	eax, DWORD PTR s1$[rsp]
	mov	ecx, DWORD PTR s2$[rsp]
	add	ecx, eax
	mov	eax, ecx
	mov	DWORD PTR s2$[rsp], eax

; 3286 :             s1 += buffer[6], s2 += s1;

	mov	eax, 1
	imul	rax, rax, 6
	mov	rcx, QWORD PTR buffer$[rsp]
	movzx	eax, BYTE PTR [rcx+rax]
	mov	ecx, DWORD PTR s1$[rsp]
	add	ecx, eax
	mov	eax, ecx
	mov	DWORD PTR s1$[rsp], eax
	mov	eax, DWORD PTR s1$[rsp]
	mov	ecx, DWORD PTR s2$[rsp]
	add	ecx, eax
	mov	eax, ecx
	mov	DWORD PTR s2$[rsp], eax

; 3287 :             s1 += buffer[7], s2 += s1;

	mov	eax, 1
	imul	rax, rax, 7
	mov	rcx, QWORD PTR buffer$[rsp]
	movzx	eax, BYTE PTR [rcx+rax]
	mov	ecx, DWORD PTR s1$[rsp]
	add	ecx, eax
	mov	eax, ecx
	mov	DWORD PTR s1$[rsp], eax
	mov	eax, DWORD PTR s1$[rsp]
	mov	ecx, DWORD PTR s2$[rsp]
	add	ecx, eax
	mov	eax, ecx
	mov	DWORD PTR s2$[rsp], eax

; 3288 : 
; 3289 :             buffer += 8;

	mov	rax, QWORD PTR buffer$[rsp]
	add	rax, 8
	mov	QWORD PTR buffer$[rsp], rax

; 3290 :         }

	jmp	$LN4@stb_adler3
$LN5@stb_adler3:

; 3291 : 
; 3292 :         for (; i < blocklen; ++i)

	jmp	SHORT $LN9@stb_adler3
$LN7@stb_adler3:
	mov	eax, DWORD PTR i$[rsp]
	inc	eax
	mov	DWORD PTR i$[rsp], eax
$LN9@stb_adler3:
	mov	eax, DWORD PTR blocklen$[rsp]
	cmp	DWORD PTR i$[rsp], eax
	jae	SHORT $LN8@stb_adler3

; 3293 :             s1 += *buffer++, s2 += s1;

	mov	rax, QWORD PTR buffer$[rsp]
	movzx	eax, BYTE PTR [rax]
	mov	DWORD PTR tv149[rsp], eax
	mov	rax, QWORD PTR buffer$[rsp]
	inc	rax
	mov	QWORD PTR buffer$[rsp], rax
	mov	eax, DWORD PTR tv149[rsp]
	mov	ecx, DWORD PTR s1$[rsp]
	add	ecx, eax
	mov	eax, ecx
	mov	DWORD PTR s1$[rsp], eax
	mov	eax, DWORD PTR s1$[rsp]
	mov	ecx, DWORD PTR s2$[rsp]
	add	ecx, eax
	mov	eax, ecx
	mov	DWORD PTR s2$[rsp], eax
	jmp	SHORT $LN7@stb_adler3
$LN8@stb_adler3:

; 3294 : 
; 3295 :         s1 %= ADLER_MOD, s2 %= ADLER_MOD;

	xor	edx, edx
	mov	eax, DWORD PTR s1$[rsp]
	mov	ecx, 65521				; 0000fff1H
	div	ecx
	mov	eax, edx
	mov	DWORD PTR s1$[rsp], eax
	xor	edx, edx
	mov	eax, DWORD PTR s2$[rsp]
	mov	ecx, 65521				; 0000fff1H
	div	ecx
	mov	eax, edx
	mov	DWORD PTR s2$[rsp], eax

; 3296 :         buflen -= blocklen;

	mov	eax, DWORD PTR blocklen$[rsp]
	mov	ecx, DWORD PTR buflen$[rsp]
	sub	ecx, eax
	mov	eax, ecx
	mov	DWORD PTR buflen$[rsp], eax

; 3297 :         blocklen = 5552;

	mov	DWORD PTR blocklen$[rsp], 5552		; 000015b0H

; 3298 :     }

	jmp	$LN2@stb_adler3
$LN3@stb_adler3:

; 3299 :     return (unsigned int)(s2 << 16) + (unsigned int)s1;

	mov	eax, DWORD PTR s2$[rsp]
	shl	eax, 16
	add	eax, DWORD PTR s1$[rsp]

; 3300 : }

	add	rsp, 40					; 00000028H
	ret	0
?stb_adler32@@YAIIPEAEI@Z ENDP				; stb_adler32
_TEXT	ENDS
; Function compile flags: /Odtp
; File D:\c++\paoda\Core\Imgui\imgui_draw.cpp
_TEXT	SEGMENT
i$ = 48
?stb_decompress_token@@YAPEBEPEBE@Z PROC		; stb_decompress_token

; 3254 : {

	mov	QWORD PTR [rsp+8], rcx
	sub	rsp, 40					; 00000028H

; 3255 :     if (*i >= 0x20) { // use fewer if's for cases that expand small

	mov	rax, QWORD PTR i$[rsp]
	movzx	eax, BYTE PTR [rax]
	cmp	eax, 32					; 00000020H
	jl	$LN2@stb_decomp

; 3256 :         if (*i >= 0x80)       stb__match(stb__dout - i[1] - 1, i[0] - 0x80 + 1), i += 2;

	mov	rax, QWORD PTR i$[rsp]
	movzx	eax, BYTE PTR [rax]
	cmp	eax, 128				; 00000080H
	jl	SHORT $LN4@stb_decomp
	mov	eax, 1
	imul	rax, rax, 0
	mov	rcx, QWORD PTR i$[rsp]
	movzx	eax, BYTE PTR [rcx+rax]
	sub	eax, 127				; 0000007fH
	mov	ecx, 1
	imul	rcx, rcx, 1
	mov	rdx, QWORD PTR i$[rsp]
	movzx	ecx, BYTE PTR [rdx+rcx]
	mov	rdx, QWORD PTR ?stb__dout@@3PEAEEA
	sub	rdx, rcx
	mov	rcx, rdx
	dec	rcx
	mov	edx, eax
	call	?stb__match@@YAXPEBEI@Z			; stb__match
	mov	rax, QWORD PTR i$[rsp]
	add	rax, 2
	mov	QWORD PTR i$[rsp], rax
	jmp	$LN5@stb_decomp
$LN4@stb_decomp:

; 3257 :         else if (*i >= 0x40)  stb__match(stb__dout - (stb__in2(0) - 0x4000 + 1), i[2] + 1), i += 3;

	mov	rax, QWORD PTR i$[rsp]
	movzx	eax, BYTE PTR [rax]
	cmp	eax, 64					; 00000040H
	jl	SHORT $LN6@stb_decomp
	mov	eax, 1
	imul	rax, rax, 2
	mov	rcx, QWORD PTR i$[rsp]
	movzx	eax, BYTE PTR [rcx+rax]
	inc	eax
	mov	ecx, 1
	imul	rcx, rcx, 0
	mov	rdx, QWORD PTR i$[rsp]
	movzx	ecx, BYTE PTR [rdx+rcx]
	shl	ecx, 8
	mov	edx, 1
	imul	rdx, rdx, 1
	mov	r8, QWORD PTR i$[rsp]
	movzx	edx, BYTE PTR [r8+rdx]
	lea	ecx, DWORD PTR [rcx+rdx-16383]
	movsxd	rcx, ecx
	mov	rdx, QWORD PTR ?stb__dout@@3PEAEEA
	sub	rdx, rcx
	mov	rcx, rdx
	mov	edx, eax
	call	?stb__match@@YAXPEBEI@Z			; stb__match
	mov	rax, QWORD PTR i$[rsp]
	add	rax, 3
	mov	QWORD PTR i$[rsp], rax
	jmp	SHORT $LN7@stb_decomp
$LN6@stb_decomp:

; 3258 :         else /* *i >= 0x20 */ stb__lit(i + 1, i[0] - 0x20 + 1), i += 1 + (i[0] - 0x20 + 1);

	mov	eax, 1
	imul	rax, rax, 0
	mov	rcx, QWORD PTR i$[rsp]
	movzx	eax, BYTE PTR [rcx+rax]
	sub	eax, 31
	mov	rcx, QWORD PTR i$[rsp]
	inc	rcx
	mov	edx, eax
	call	?stb__lit@@YAXPEBEI@Z			; stb__lit
	mov	eax, 1
	imul	rax, rax, 0
	mov	rcx, QWORD PTR i$[rsp]
	movzx	eax, BYTE PTR [rcx+rax]
	sub	eax, 30
	cdqe
	mov	rcx, QWORD PTR i$[rsp]
	add	rcx, rax
	mov	rax, rcx
	mov	QWORD PTR i$[rsp], rax
$LN7@stb_decomp:
$LN5@stb_decomp:

; 3259 :     }

	jmp	$LN3@stb_decomp
$LN2@stb_decomp:

; 3260 :     else { // more ifs for cases that expand large, since overhead is amortized
; 3261 :         if (*i >= 0x18)       stb__match(stb__dout - (stb__in3(0) - 0x180000 + 1), i[3] + 1), i += 4;

	mov	rax, QWORD PTR i$[rsp]
	movzx	eax, BYTE PTR [rax]
	cmp	eax, 24
	jl	$LN8@stb_decomp
	mov	eax, 1
	imul	rax, rax, 3
	mov	rcx, QWORD PTR i$[rsp]
	movzx	eax, BYTE PTR [rcx+rax]
	inc	eax
	mov	ecx, 1
	imul	rcx, rcx, 0
	mov	rdx, QWORD PTR i$[rsp]
	movzx	ecx, BYTE PTR [rdx+rcx]
	shl	ecx, 16
	mov	edx, 1
	imul	rdx, rdx, 1
	mov	r8, QWORD PTR i$[rsp]
	movzx	edx, BYTE PTR [r8+rdx]
	shl	edx, 8
	mov	r8d, 1
	imul	r8, r8, 2
	mov	r9, QWORD PTR i$[rsp]
	movzx	r8d, BYTE PTR [r9+r8]
	add	edx, r8d
	lea	ecx, DWORD PTR [rcx+rdx-1572863]
	movsxd	rcx, ecx
	mov	rdx, QWORD PTR ?stb__dout@@3PEAEEA
	sub	rdx, rcx
	mov	rcx, rdx
	mov	edx, eax
	call	?stb__match@@YAXPEBEI@Z			; stb__match
	mov	rax, QWORD PTR i$[rsp]
	add	rax, 4
	mov	QWORD PTR i$[rsp], rax
	jmp	$LN9@stb_decomp
$LN8@stb_decomp:

; 3262 :         else if (*i >= 0x10)  stb__match(stb__dout - (stb__in3(0) - 0x100000 + 1), stb__in2(3) + 1), i += 5;

	mov	rax, QWORD PTR i$[rsp]
	movzx	eax, BYTE PTR [rax]
	cmp	eax, 16
	jl	$LN10@stb_decomp
	mov	eax, 1
	imul	rax, rax, 3
	mov	rcx, QWORD PTR i$[rsp]
	movzx	eax, BYTE PTR [rcx+rax]
	shl	eax, 8
	mov	ecx, 1
	imul	rcx, rcx, 4
	mov	rdx, QWORD PTR i$[rsp]
	movzx	ecx, BYTE PTR [rdx+rcx]
	lea	eax, DWORD PTR [rax+rcx+1]
	mov	ecx, 1
	imul	rcx, rcx, 0
	mov	rdx, QWORD PTR i$[rsp]
	movzx	ecx, BYTE PTR [rdx+rcx]
	shl	ecx, 16
	mov	edx, 1
	imul	rdx, rdx, 1
	mov	r8, QWORD PTR i$[rsp]
	movzx	edx, BYTE PTR [r8+rdx]
	shl	edx, 8
	mov	r8d, 1
	imul	r8, r8, 2
	mov	r9, QWORD PTR i$[rsp]
	movzx	r8d, BYTE PTR [r9+r8]
	add	edx, r8d
	lea	ecx, DWORD PTR [rcx+rdx-1048575]
	movsxd	rcx, ecx
	mov	rdx, QWORD PTR ?stb__dout@@3PEAEEA
	sub	rdx, rcx
	mov	rcx, rdx
	mov	edx, eax
	call	?stb__match@@YAXPEBEI@Z			; stb__match
	mov	rax, QWORD PTR i$[rsp]
	add	rax, 5
	mov	QWORD PTR i$[rsp], rax
	jmp	$LN11@stb_decomp
$LN10@stb_decomp:

; 3263 :         else if (*i >= 0x08)  stb__lit(i + 2, stb__in2(0) - 0x0800 + 1), i += 2 + (stb__in2(0) - 0x0800 + 1);

	mov	rax, QWORD PTR i$[rsp]
	movzx	eax, BYTE PTR [rax]
	cmp	eax, 8
	jl	$LN12@stb_decomp
	mov	eax, 1
	imul	rax, rax, 0
	mov	rcx, QWORD PTR i$[rsp]
	movzx	eax, BYTE PTR [rcx+rax]
	shl	eax, 8
	mov	ecx, 1
	imul	rcx, rcx, 1
	mov	rdx, QWORD PTR i$[rsp]
	movzx	ecx, BYTE PTR [rdx+rcx]
	lea	eax, DWORD PTR [rax+rcx-2047]
	mov	rcx, QWORD PTR i$[rsp]
	add	rcx, 2
	mov	edx, eax
	call	?stb__lit@@YAXPEBEI@Z			; stb__lit
	mov	eax, 1
	imul	rax, rax, 0
	mov	rcx, QWORD PTR i$[rsp]
	movzx	eax, BYTE PTR [rcx+rax]
	shl	eax, 8
	mov	ecx, 1
	imul	rcx, rcx, 1
	mov	rdx, QWORD PTR i$[rsp]
	movzx	ecx, BYTE PTR [rdx+rcx]
	lea	eax, DWORD PTR [rax+rcx-2045]
	cdqe
	mov	rcx, QWORD PTR i$[rsp]
	add	rcx, rax
	mov	rax, rcx
	mov	QWORD PTR i$[rsp], rax
	jmp	$LN13@stb_decomp
$LN12@stb_decomp:

; 3264 :         else if (*i == 0x07)  stb__lit(i + 3, stb__in2(1) + 1), i += 3 + (stb__in2(1) + 1);

	mov	rax, QWORD PTR i$[rsp]
	movzx	eax, BYTE PTR [rax]
	cmp	eax, 7
	jne	SHORT $LN14@stb_decomp
	mov	eax, 1
	imul	rax, rax, 1
	mov	rcx, QWORD PTR i$[rsp]
	movzx	eax, BYTE PTR [rcx+rax]
	shl	eax, 8
	mov	ecx, 1
	imul	rcx, rcx, 2
	mov	rdx, QWORD PTR i$[rsp]
	movzx	ecx, BYTE PTR [rdx+rcx]
	lea	eax, DWORD PTR [rax+rcx+1]
	mov	rcx, QWORD PTR i$[rsp]
	add	rcx, 3
	mov	edx, eax
	call	?stb__lit@@YAXPEBEI@Z			; stb__lit
	mov	eax, 1
	imul	rax, rax, 1
	mov	rcx, QWORD PTR i$[rsp]
	movzx	eax, BYTE PTR [rcx+rax]
	shl	eax, 8
	mov	ecx, 1
	imul	rcx, rcx, 2
	mov	rdx, QWORD PTR i$[rsp]
	movzx	ecx, BYTE PTR [rdx+rcx]
	lea	eax, DWORD PTR [rax+rcx+4]
	cdqe
	mov	rcx, QWORD PTR i$[rsp]
	add	rcx, rax
	mov	rax, rcx
	mov	QWORD PTR i$[rsp], rax
	jmp	$LN15@stb_decomp
$LN14@stb_decomp:

; 3265 :         else if (*i == 0x06)  stb__match(stb__dout - (stb__in3(1) + 1), i[4] + 1), i += 5;

	mov	rax, QWORD PTR i$[rsp]
	movzx	eax, BYTE PTR [rax]
	cmp	eax, 6
	jne	$LN16@stb_decomp
	mov	eax, 1
	imul	rax, rax, 4
	mov	rcx, QWORD PTR i$[rsp]
	movzx	eax, BYTE PTR [rcx+rax]
	inc	eax
	mov	ecx, 1
	imul	rcx, rcx, 1
	mov	rdx, QWORD PTR i$[rsp]
	movzx	ecx, BYTE PTR [rdx+rcx]
	shl	ecx, 16
	mov	edx, 1
	imul	rdx, rdx, 2
	mov	r8, QWORD PTR i$[rsp]
	movzx	edx, BYTE PTR [r8+rdx]
	shl	edx, 8
	mov	r8d, 1
	imul	r8, r8, 3
	mov	r9, QWORD PTR i$[rsp]
	movzx	r8d, BYTE PTR [r9+r8]
	add	edx, r8d
	lea	ecx, DWORD PTR [rcx+rdx+1]
	movsxd	rcx, ecx
	mov	rdx, QWORD PTR ?stb__dout@@3PEAEEA
	sub	rdx, rcx
	mov	rcx, rdx
	mov	edx, eax
	call	?stb__match@@YAXPEBEI@Z			; stb__match
	mov	rax, QWORD PTR i$[rsp]
	add	rax, 5
	mov	QWORD PTR i$[rsp], rax
	jmp	$LN17@stb_decomp
$LN16@stb_decomp:

; 3266 :         else if (*i == 0x04)  stb__match(stb__dout - (stb__in3(1) + 1), stb__in2(4) + 1), i += 6;

	mov	rax, QWORD PTR i$[rsp]
	movzx	eax, BYTE PTR [rax]
	cmp	eax, 4
	jne	$LN18@stb_decomp
	mov	eax, 1
	imul	rax, rax, 4
	mov	rcx, QWORD PTR i$[rsp]
	movzx	eax, BYTE PTR [rcx+rax]
	shl	eax, 8
	mov	ecx, 1
	imul	rcx, rcx, 5
	mov	rdx, QWORD PTR i$[rsp]
	movzx	ecx, BYTE PTR [rdx+rcx]
	lea	eax, DWORD PTR [rax+rcx+1]
	mov	ecx, 1
	imul	rcx, rcx, 1
	mov	rdx, QWORD PTR i$[rsp]
	movzx	ecx, BYTE PTR [rdx+rcx]
	shl	ecx, 16
	mov	edx, 1
	imul	rdx, rdx, 2
	mov	r8, QWORD PTR i$[rsp]
	movzx	edx, BYTE PTR [r8+rdx]
	shl	edx, 8
	mov	r8d, 1
	imul	r8, r8, 3
	mov	r9, QWORD PTR i$[rsp]
	movzx	r8d, BYTE PTR [r9+r8]
	add	edx, r8d
	lea	ecx, DWORD PTR [rcx+rdx+1]
	movsxd	rcx, ecx
	mov	rdx, QWORD PTR ?stb__dout@@3PEAEEA
	sub	rdx, rcx
	mov	rcx, rdx
	mov	edx, eax
	call	?stb__match@@YAXPEBEI@Z			; stb__match
	mov	rax, QWORD PTR i$[rsp]
	add	rax, 6
	mov	QWORD PTR i$[rsp], rax
$LN18@stb_decomp:
$LN17@stb_decomp:
$LN15@stb_decomp:
$LN13@stb_decomp:
$LN11@stb_decomp:
$LN9@stb_decomp:
$LN3@stb_decomp:

; 3267 :     }
; 3268 :     return i;

	mov	rax, QWORD PTR i$[rsp]

; 3269 : }

	add	rsp, 40					; 00000028H
	ret	0
?stb_decompress_token@@YAPEBEPEBE@Z ENDP		; stb_decompress_token
_TEXT	ENDS
; Function compile flags: /Odtp
; File D:\c++\paoda\Core\Imgui\imgui_draw.cpp
_TEXT	SEGMENT
data$ = 48
length$ = 56
?stb__lit@@YAXPEBEI@Z PROC				; stb__lit

; 3241 : {

	mov	DWORD PTR [rsp+16], edx
	mov	QWORD PTR [rsp+8], rcx
	sub	rsp, 40					; 00000028H

; 3242 :     IM_ASSERT(stb__dout + length <= stb__barrier_out_e);
; 3243 :     if (stb__dout + length > stb__barrier_out_e) { stb__dout += length; return; }

	mov	eax, DWORD PTR length$[rsp]
	mov	rcx, QWORD PTR ?stb__dout@@3PEAEEA
	add	rcx, rax
	mov	rax, rcx
	cmp	rax, QWORD PTR ?stb__barrier_out_e@@3PEAEEA
	jbe	SHORT $LN2@stb__lit
	mov	eax, DWORD PTR length$[rsp]
	mov	rcx, QWORD PTR ?stb__dout@@3PEAEEA
	add	rcx, rax
	mov	rax, rcx
	mov	QWORD PTR ?stb__dout@@3PEAEEA, rax
	jmp	SHORT $LN1@stb__lit
$LN2@stb__lit:

; 3244 :     if (data < stb__barrier_in_b) { stb__dout = stb__barrier_out_e + 1; return; }

	mov	rax, QWORD PTR ?stb__barrier_in_b@@3PEBEEB
	cmp	QWORD PTR data$[rsp], rax
	jae	SHORT $LN3@stb__lit
	mov	rax, QWORD PTR ?stb__barrier_out_e@@3PEAEEA
	inc	rax
	mov	QWORD PTR ?stb__dout@@3PEAEEA, rax
	jmp	SHORT $LN1@stb__lit
$LN3@stb__lit:

; 3245 :     memcpy(stb__dout, data, length);

	mov	eax, DWORD PTR length$[rsp]
	mov	r8d, eax
	mov	rdx, QWORD PTR data$[rsp]
	mov	rcx, QWORD PTR ?stb__dout@@3PEAEEA
	call	memcpy

; 3246 :     stb__dout += length;

	mov	eax, DWORD PTR length$[rsp]
	mov	rcx, QWORD PTR ?stb__dout@@3PEAEEA
	add	rcx, rax
	mov	rax, rcx
	mov	QWORD PTR ?stb__dout@@3PEAEEA, rax
$LN1@stb__lit:

; 3247 : }

	add	rsp, 40					; 00000028H
	ret	0
?stb__lit@@YAXPEBEI@Z ENDP				; stb__lit
_TEXT	ENDS
; Function compile flags: /Odtp
; File D:\c++\paoda\Core\Imgui\imgui_draw.cpp
_TEXT	SEGMENT
tv77 = 0
tv73 = 4
data$ = 32
length$ = 40
?stb__match@@YAXPEBEI@Z PROC				; stb__match

; 3232 : {

	mov	DWORD PTR [rsp+16], edx
	mov	QWORD PTR [rsp+8], rcx
	sub	rsp, 24

; 3233 :     // INVERSE of memmove... write each byte before copying the next...
; 3234 :     IM_ASSERT(stb__dout + length <= stb__barrier_out_e);
; 3235 :     if (stb__dout + length > stb__barrier_out_e) { stb__dout += length; return; }

	mov	eax, DWORD PTR length$[rsp]
	mov	rcx, QWORD PTR ?stb__dout@@3PEAEEA
	add	rcx, rax
	mov	rax, rcx
	cmp	rax, QWORD PTR ?stb__barrier_out_e@@3PEAEEA
	jbe	SHORT $LN4@stb__match
	mov	eax, DWORD PTR length$[rsp]
	mov	rcx, QWORD PTR ?stb__dout@@3PEAEEA
	add	rcx, rax
	mov	rax, rcx
	mov	QWORD PTR ?stb__dout@@3PEAEEA, rax
	jmp	SHORT $LN1@stb__match
$LN4@stb__match:

; 3236 :     if (data < stb__barrier_out_b) { stb__dout = stb__barrier_out_e + 1; return; }

	mov	rax, QWORD PTR ?stb__barrier_out_b@@3PEAEEA
	cmp	QWORD PTR data$[rsp], rax
	jae	SHORT $LN5@stb__match
	mov	rax, QWORD PTR ?stb__barrier_out_e@@3PEAEEA
	inc	rax
	mov	QWORD PTR ?stb__dout@@3PEAEEA, rax
	jmp	SHORT $LN1@stb__match
$LN5@stb__match:
$LN2@stb__match:

; 3237 :     while (length--) *stb__dout++ = *data++;

	mov	eax, DWORD PTR length$[rsp]
	mov	DWORD PTR tv73[rsp], eax
	mov	eax, DWORD PTR length$[rsp]
	dec	eax
	mov	DWORD PTR length$[rsp], eax
	cmp	DWORD PTR tv73[rsp], 0
	je	SHORT $LN3@stb__match
	mov	rax, QWORD PTR data$[rsp]
	movzx	eax, BYTE PTR [rax]
	mov	BYTE PTR tv77[rsp], al
	mov	rax, QWORD PTR data$[rsp]
	inc	rax
	mov	QWORD PTR data$[rsp], rax
	mov	rax, QWORD PTR ?stb__dout@@3PEAEEA
	movzx	ecx, BYTE PTR tv77[rsp]
	mov	BYTE PTR [rax], cl
	mov	rax, QWORD PTR ?stb__dout@@3PEAEEA
	inc	rax
	mov	QWORD PTR ?stb__dout@@3PEAEEA, rax
	jmp	SHORT $LN2@stb__match
$LN3@stb__match:
$LN1@stb__match:

; 3238 : }

	add	rsp, 24
	ret	0
?stb__match@@YAXPEBEI@Z ENDP				; stb__match
_TEXT	ENDS
; Function compile flags: /Odtp
; File D:\c++\paoda\Core\Imgui\imgui_internal.h
_TEXT	SEGMENT
a$ = 8
b$ = 16
t$ = 24
??$ImLerp@M@@YAMMMM@Z PROC				; ImLerp<float>

; 230  : template<typename T> static inline T ImLerp(T a, T b, float t) { return (T)(a + (b - a) * t); }

	movss	DWORD PTR [rsp+24], xmm2
	movss	DWORD PTR [rsp+16], xmm1
	movss	DWORD PTR [rsp+8], xmm0
	movss	xmm0, DWORD PTR b$[rsp]
	subss	xmm0, DWORD PTR a$[rsp]
	mulss	xmm0, DWORD PTR t$[rsp]
	movss	xmm1, DWORD PTR a$[rsp]
	addss	xmm1, xmm0
	movaps	xmm0, xmm1
	ret	0
??$ImLerp@M@@YAMMMM@Z ENDP				; ImLerp<float>
_TEXT	ENDS
; Function compile flags: /Odtp
; File D:\c++\paoda\Core\Imgui\imgui_internal.h
_TEXT	SEGMENT
tmp$ = 0
a$ = 32
b$ = 40
??$ImSwap@M@@YAXAEAM0@Z PROC				; ImSwap<float>

; 231  : template<typename T> static inline void ImSwap(T& a, T& b) { T tmp = a; a = b; b = tmp; }

	mov	QWORD PTR [rsp+16], rdx
	mov	QWORD PTR [rsp+8], rcx
	sub	rsp, 24
	mov	rax, QWORD PTR a$[rsp]
	movss	xmm0, DWORD PTR [rax]
	movss	DWORD PTR tmp$[rsp], xmm0
	mov	rax, QWORD PTR a$[rsp]
	mov	rcx, QWORD PTR b$[rsp]
	movss	xmm0, DWORD PTR [rcx]
	movss	DWORD PTR [rax], xmm0
	mov	rax, QWORD PTR b$[rsp]
	movss	xmm0, DWORD PTR tmp$[rsp]
	movss	DWORD PTR [rax], xmm0
	add	rsp, 24
	ret	0
??$ImSwap@M@@YAXAEAM0@Z ENDP				; ImSwap<float>
_TEXT	ENDS
; Function compile flags: /Odtp
; File D:\c++\paoda\Core\Imgui\imgui_draw.cpp
_TEXT	SEGMENT
x$ = 48
?ImAcos01@@YAMM@Z PROC					; ImAcos01

; 3134 : {

	movss	DWORD PTR [rsp+8], xmm0
	sub	rsp, 40					; 00000028H

; 3135 :     if (x <= 0.0f) return IM_PI * 0.5f;

	xorps	xmm0, xmm0
	comiss	xmm0, DWORD PTR x$[rsp]
	jb	SHORT $LN2@ImAcos01
	movss	xmm0, DWORD PTR __real@3fc90fdb
	jmp	SHORT $LN1@ImAcos01
$LN2@ImAcos01:

; 3136 :     if (x >= 1.0f) return 0.0f;

	movss	xmm0, DWORD PTR x$[rsp]
	comiss	xmm0, DWORD PTR __real@3f800000
	jb	SHORT $LN3@ImAcos01
	xorps	xmm0, xmm0
	jmp	SHORT $LN1@ImAcos01
$LN3@ImAcos01:

; 3137 :     return ImAcos(x);

	movss	xmm0, DWORD PTR x$[rsp]
	call	?ImAcos@@YAMM@Z				; ImAcos
$LN1@ImAcos01:

; 3138 :     //return (-0.69813170079773212f * x * x - 0.87266462599716477f) * x + 1.5707963267948966f; // Cheap approximation, may be enough for what we do.
; 3139 : }

	add	rsp, 40					; 00000028H
	ret	0
?ImAcos01@@YAMM@Z ENDP					; ImAcos01
_TEXT	ENDS
; Function compile flags: /Odtp
; File D:\c++\paoda\Core\Imgui\imgui_draw.cpp
_TEXT	SEGMENT
n$1 = 0
tv75 = 4
base_codepoint$ = 32
accumulative_offsets$ = 40
accumulative_offsets_count$ = 48
out_ranges$ = 56
?UnpackAccumulativeOffsetsIntoRanges@@YAXHPEBFHPEAG@Z PROC ; UnpackAccumulativeOffsetsIntoRanges

; 2331 : {

	mov	QWORD PTR [rsp+32], r9
	mov	DWORD PTR [rsp+24], r8d
	mov	QWORD PTR [rsp+16], rdx
	mov	DWORD PTR [rsp+8], ecx
	sub	rsp, 24

; 2332 :     for (int n = 0; n < accumulative_offsets_count; n++, out_ranges += 2)

	mov	DWORD PTR n$1[rsp], 0
	jmp	SHORT $LN4@UnpackAccu
$LN2@UnpackAccu:
	mov	eax, DWORD PTR n$1[rsp]
	inc	eax
	mov	DWORD PTR n$1[rsp], eax
	mov	rax, QWORD PTR out_ranges$[rsp]
	add	rax, 4
	mov	QWORD PTR out_ranges$[rsp], rax
$LN4@UnpackAccu:
	mov	eax, DWORD PTR accumulative_offsets_count$[rsp]
	cmp	DWORD PTR n$1[rsp], eax
	jge	SHORT $LN3@UnpackAccu

; 2333 :     {
; 2334 :         out_ranges[0] = out_ranges[1] = (ImWchar)(base_codepoint + accumulative_offsets[n]);

	movsxd	rax, DWORD PTR n$1[rsp]
	mov	rcx, QWORD PTR accumulative_offsets$[rsp]
	movsx	eax, WORD PTR [rcx+rax*2]
	mov	ecx, DWORD PTR base_codepoint$[rsp]
	add	ecx, eax
	mov	DWORD PTR tv75[rsp], ecx
	mov	eax, 2
	imul	rax, rax, 1
	mov	rcx, QWORD PTR out_ranges$[rsp]
	movzx	edx, WORD PTR tv75[rsp]
	mov	WORD PTR [rcx+rax], dx
	mov	eax, 2
	imul	rax, rax, 0
	mov	rcx, QWORD PTR out_ranges$[rsp]
	movzx	edx, WORD PTR tv75[rsp]
	mov	WORD PTR [rcx+rax], dx

; 2335 :         base_codepoint += accumulative_offsets[n];

	movsxd	rax, DWORD PTR n$1[rsp]
	mov	rcx, QWORD PTR accumulative_offsets$[rsp]
	movsx	eax, WORD PTR [rcx+rax*2]
	mov	ecx, DWORD PTR base_codepoint$[rsp]
	add	ecx, eax
	mov	eax, ecx
	mov	DWORD PTR base_codepoint$[rsp], eax

; 2336 :     }

	jmp	SHORT $LN2@UnpackAccu
$LN3@UnpackAccu:

; 2337 :     out_ranges[0] = 0;

	mov	eax, 2
	imul	rax, rax, 0
	xor	ecx, ecx
	mov	rdx, QWORD PTR out_ranges$[rsp]
	mov	WORD PTR [rdx+rax], cx

; 2338 : }

	add	rsp, 24
	ret	0
?UnpackAccumulativeOffsetsIntoRanges@@YAXHPEBFHPEAG@Z ENDP ; UnpackAccumulativeOffsetsIntoRanges
_TEXT	ENDS
; Function compile flags: /Odtp
; File D:\c++\paoda\Core\Imgui\imgui_draw.cpp
_TEXT	SEGMENT
x$1 = 32
y$2 = 36
n$3 = 40
w$ = 44
offset$4 = 48
r$ = 56
offset0$5 = 64
tv133 = 68
tv144 = 72
offset1$6 = 76
tv72 = 80
$T7 = 88
atlas$ = 112
?ImFontAtlasBuildRenderDefaultTexData@@YAXPEAUImFontAtlas@@@Z PROC ; ImFontAtlasBuildRenderDefaultTexData

; 2238 : {

	mov	QWORD PTR [rsp+8], rcx
	sub	rsp, 104				; 00000068H

; 2239 :     IM_ASSERT(atlas->CustomRectIds[0] >= 0);
; 2240 :     IM_ASSERT(atlas->TexPixelsAlpha8 != NULL);
; 2241 :     ImFontAtlas::CustomRect& r = atlas->CustomRects[atlas->CustomRectIds[0]];

	mov	rax, QWORD PTR atlas$[rsp]
	add	rax, 88					; 00000058H
	mov	QWORD PTR tv72[rsp], rax
	mov	eax, 4
	imul	rax, rax, 0
	mov	rcx, QWORD PTR atlas$[rsp]
	mov	edx, DWORD PTR [rcx+rax+120]
	mov	rcx, QWORD PTR tv72[rsp]
	call	??A?$ImVector@UCustomRect@ImFontAtlas@@@@QEAAAEAUCustomRect@ImFontAtlas@@H@Z ; ImVector<ImFontAtlas::CustomRect>::operator[]
	mov	QWORD PTR r$[rsp], rax

; 2242 :     IM_ASSERT(r.ID == FONT_ATLAS_DEFAULT_TEX_DATA_ID);
; 2243 :     IM_ASSERT(r.IsPacked());
; 2244 : 
; 2245 :     const int w = atlas->TexWidth;

	mov	rax, QWORD PTR atlas$[rsp]
	mov	eax, DWORD PTR [rax+64]
	mov	DWORD PTR w$[rsp], eax

; 2246 :     if (!(atlas->Flags & ImFontAtlasFlags_NoMouseCursors))

	mov	rax, QWORD PTR atlas$[rsp]
	mov	eax, DWORD PTR [rax+8]
	and	eax, 2
	test	eax, eax
