; Listing generated by Microsoft (R) Optimizing Compiler Version 19.43.34810.0 

include listing.inc

INCLUDELIB LIBCMT
INCLUDELIB OLDNAMES

PUBLIC	??_C@_06GLKGGCJO@LcOpen@			; `string'
PUBLIC	??_C@_06GJPHNGFG@LcRead@			; `string'
PUBLIC	??_C@_0O@CBBNAKKC@LcReadScatter@		; `string'
PUBLIC	??_C@_07MBHEMNEL@LcWrite@			; `string'
PUBLIC	??_C@_0P@DAJMPOFM@LcWriteScatter@		; `string'
PUBLIC	??_C@_0M@HBBFEIGD@LcGetOption@			; `string'
PUBLIC	??_C@_0M@FPFAGJPB@LcSetOption@			; `string'
PUBLIC	??_C@_09DCHLEDFD@LcCommand@			; `string'
PUBLIC	??_C@_03HPADHAHE@N?1A@				; `string'
PUBLIC	??_C@_03HDGGCCPD@X86@				; `string'
PUBLIC	??_C@_06IDLKBMKC@X86PAE@			; `string'
PUBLIC	??_C@_03ELMOGNHL@X64@				; `string'
PUBLIC	??_C@_05DKFIPBAL@ARM64@				; `string'
PUBLIC	??_C@_04PCJGBDOP@Zero@				; `string'
PUBLIC	??_C@_04HJMOFLDF@Free@				; `string'
PUBLIC	??_C@_07LNBDIIPN@Standby@			; `string'
PUBLIC	??_C@_07PFEKAJBJ@Modifiy@			; `string'
PUBLIC	??_C@_07DGKCKENG@ModNoWr@			; `string'
PUBLIC	??_C@_03KHCCLPOB@Bad@				; `string'
PUBLIC	??_C@_06MAFFGDO@Active@				; `string'
PUBLIC	??_C@_07KADDEKFE@Transit@			; `string'
PUBLIC	??_C@_01JOAMLHOP@?9@				; `string'
PUBLIC	??_C@_06CGLFEPBO@Unused@			; `string'
PUBLIC	??_C@_08LBAJPEDB@ProcPriv@			; `string'
PUBLIC	??_C@_09BGPMMIPE@PageTable@			; `string'
PUBLIC	??_C@_09MFCNICMF@LargePage@			; `string'
PUBLIC	??_C@_0L@DHBAIELD@DriverLock@			; `string'
PUBLIC	??_C@_09PKFILKGD@Shareable@			; `string'
PUBLIC	??_C@_04PBAHLACE@File@				; `string'
PUBLIC	_Avx2WmemEnabledWeakValue
PUBLIC	?EmptyString@ImGuiTextBuffer@@2PADA		; ImGuiTextBuffer::EmptyString
PUBLIC	?GImGui@@3PEAUImGuiContext@@EA			; GImGui
;	COMDAT _Avx2WmemEnabledWeakValue
_BSS	SEGMENT
_Avx2WmemEnabledWeakValue DD 01H DUP (?)
_BSS	ENDS
_BSS	SEGMENT
?EmptyString@ImGuiTextBuffer@@2PADA DB 01H DUP (?)	; ImGuiTextBuffer::EmptyString
	ALIGN	8

?GImGui@@3PEAUImGuiContext@@EA DQ 01H DUP (?)		; GImGui
_BSS	ENDS
;	COMDAT ??_C@_04PBAHLACE@File@
CONST	SEGMENT
??_C@_04PBAHLACE@File@ DB 'File', 00H			; `string'
CONST	ENDS
;	COMDAT ??_C@_09PKFILKGD@Shareable@
CONST	SEGMENT
??_C@_09PKFILKGD@Shareable@ DB 'Shareable', 00H		; `string'
CONST	ENDS
;	COMDAT ??_C@_0L@DHBAIELD@DriverLock@
CONST	SEGMENT
??_C@_0L@DHBAIELD@DriverLock@ DB 'DriverLock', 00H	; `string'
CONST	ENDS
;	COMDAT ??_C@_09MFCNICMF@LargePage@
CONST	SEGMENT
??_C@_09MFCNICMF@LargePage@ DB 'LargePage', 00H		; `string'
CONST	ENDS
;	COMDAT ??_C@_09BGPMMIPE@PageTable@
CONST	SEGMENT
??_C@_09BGPMMIPE@PageTable@ DB 'PageTable', 00H		; `string'
CONST	ENDS
;	COMDAT ??_C@_08LBAJPEDB@ProcPriv@
CONST	SEGMENT
??_C@_08LBAJPEDB@ProcPriv@ DB 'ProcPriv', 00H		; `string'
CONST	ENDS
;	COMDAT ??_C@_06CGLFEPBO@Unused@
CONST	SEGMENT
??_C@_06CGLFEPBO@Unused@ DB 'Unused', 00H		; `string'
CONST	ENDS
;	COMDAT ??_C@_01JOAMLHOP@?9@
CONST	SEGMENT
??_C@_01JOAMLHOP@?9@ DB '-', 00H			; `string'
CONST	ENDS
;	COMDAT ??_C@_07KADDEKFE@Transit@
CONST	SEGMENT
??_C@_07KADDEKFE@Transit@ DB 'Transit', 00H		; `string'
CONST	ENDS
;	COMDAT ??_C@_06MAFFGDO@Active@
CONST	SEGMENT
??_C@_06MAFFGDO@Active@ DB 'Active', 00H		; `string'
CONST	ENDS
;	COMDAT ??_C@_03KHCCLPOB@Bad@
CONST	SEGMENT
??_C@_03KHCCLPOB@Bad@ DB 'Bad', 00H			; `string'
CONST	ENDS
;	COMDAT ??_C@_07DGKCKENG@ModNoWr@
CONST	SEGMENT
??_C@_07DGKCKENG@ModNoWr@ DB 'ModNoWr', 00H		; `string'
CONST	ENDS
;	COMDAT ??_C@_07PFEKAJBJ@Modifiy@
CONST	SEGMENT
??_C@_07PFEKAJBJ@Modifiy@ DB 'Modifiy', 00H		; `string'
CONST	ENDS
;	COMDAT ??_C@_07LNBDIIPN@Standby@
CONST	SEGMENT
??_C@_07LNBDIIPN@Standby@ DB 'Standby', 00H		; `string'
CONST	ENDS
;	COMDAT ??_C@_04HJMOFLDF@Free@
CONST	SEGMENT
??_C@_04HJMOFLDF@Free@ DB 'Free', 00H			; `string'
CONST	ENDS
;	COMDAT ??_C@_04PCJGBDOP@Zero@
CONST	SEGMENT
??_C@_04PCJGBDOP@Zero@ DB 'Zero', 00H			; `string'
CONST	ENDS
CONST	SEGMENT
?GCrc32LookupTable@@3QBIB DD 00H			; GCrc32LookupTable
	DD	077073096H
	DD	0ee0e612cH
	DD	0990951baH
	DD	076dc419H
	DD	0706af48fH
	DD	0e963a535H
	DD	09e6495a3H
	DD	0edb8832H
	DD	079dcb8a4H
	DD	0e0d5e91eH
	DD	097d2d988H
	DD	09b64c2bH
	DD	07eb17cbdH
	DD	0e7b82d07H
	DD	090bf1d91H
	DD	01db71064H
	DD	06ab020f2H
	DD	0f3b97148H
	DD	084be41deH
	DD	01adad47dH
	DD	06ddde4ebH
	DD	0f4d4b551H
	DD	083d385c7H
	DD	0136c9856H
	DD	0646ba8c0H
	DD	0fd62f97aH
	DD	08a65c9ecH
	DD	014015c4fH
	DD	063066cd9H
	DD	0fa0f3d63H
	DD	08d080df5H
	DD	03b6e20c8H
	DD	04c69105eH
	DD	0d56041e4H
	DD	0a2677172H
	DD	03c03e4d1H
	DD	04b04d447H
	DD	0d20d85fdH
	DD	0a50ab56bH
	DD	035b5a8faH
	DD	042b2986cH
	DD	0dbbbc9d6H
	DD	0acbcf940H
	DD	032d86ce3H
	DD	045df5c75H
	DD	0dcd60dcfH
	DD	0abd13d59H
	DD	026d930acH
	DD	051de003aH
	DD	0c8d75180H
	DD	0bfd06116H
	DD	021b4f4b5H
	DD	056b3c423H
	DD	0cfba9599H
	DD	0b8bda50fH
	DD	02802b89eH
	DD	05f058808H
	DD	0c60cd9b2H
	DD	0b10be924H
	DD	02f6f7c87H
	DD	058684c11H
	DD	0c1611dabH
	DD	0b6662d3dH
	DD	076dc4190H
	DD	01db7106H
	DD	098d220bcH
	DD	0efd5102aH
	DD	071b18589H
	DD	06b6b51fH
	DD	09fbfe4a5H
	DD	0e8b8d433H
	DD	07807c9a2H
	DD	0f00f934H
	DD	09609a88eH
	DD	0e10e9818H
	DD	07f6a0dbbH
	DD	086d3d2dH
	DD	091646c97H
	DD	0e6635c01H
	DD	06b6b51f4H
	DD	01c6c6162H
	DD	0856530d8H
	DD	0f262004eH
	DD	06c0695edH
	DD	01b01a57bH
	DD	08208f4c1H
	DD	0f50fc457H
	DD	065b0d9c6H
	DD	012b7e950H
	DD	08bbeb8eaH
	DD	0fcb9887cH
	DD	062dd1ddfH
	DD	015da2d49H
	DD	08cd37cf3H
	DD	0fbd44c65H
	DD	04db26158H
	DD	03ab551ceH
	DD	0a3bc0074H
	DD	0d4bb30e2H
	DD	04adfa541H
	DD	03dd895d7H
	DD	0a4d1c46dH
	DD	0d3d6f4fbH
	DD	04369e96aH
	DD	0346ed9fcH
	DD	0ad678846H
	DD	0da60b8d0H
	DD	044042d73H
	DD	033031de5H
	DD	0aa0a4c5fH
	DD	0dd0d7cc9H
	DD	05005713cH
	DD	0270241aaH
	DD	0be0b1010H
	DD	0c90c2086H
	DD	05768b525H
	DD	0206f85b3H
	DD	0b966d409H
	DD	0ce61e49fH
	DD	05edef90eH
	DD	029d9c998H
	DD	0b0d09822H
	DD	0c7d7a8b4H
	DD	059b33d17H
	DD	02eb40d81H
	DD	0b7bd5c3bH
	DD	0c0ba6cadH
	DD	0edb88320H
	DD	09abfb3b6H
	DD	03b6e20cH
	DD	074b1d29aH
	DD	0ead54739H
	DD	09dd277afH
	DD	04db2615H
	DD	073dc1683H
	DD	0e3630b12H
	DD	094643b84H
	DD	0d6d6a3eH
	DD	07a6a5aa8H
	DD	0e40ecf0bH
	DD	09309ff9dH
	DD	0a00ae27H
	DD	07d079eb1H
	DD	0f00f9344H
	DD	08708a3d2H
	DD	01e01f268H
	DD	06906c2feH
	DD	0f762575dH
	DD	0806567cbH
	DD	0196c3671H
	DD	06e6b06e7H
	DD	0fed41b76H
	DD	089d32be0H
	DD	010da7a5aH
	DD	067dd4accH
	DD	0f9b9df6fH
	DD	08ebeeff9H
	DD	017b7be43H
	DD	060b08ed5H
	DD	0d6d6a3e8H
	DD	0a1d1937eH
	DD	038d8c2c4H
	DD	04fdff252H
	DD	0d1bb67f1H
	DD	0a6bc5767H
	DD	03fb506ddH
	DD	048b2364bH
	DD	0d80d2bdaH
	DD	0af0a1b4cH
	DD	036034af6H
	DD	041047a60H
	DD	0df60efc3H
	DD	0a867df55H
	DD	0316e8eefH
	DD	04669be79H
	DD	0cb61b38cH
	DD	0bc66831aH
	DD	0256fd2a0H
	DD	05268e236H
	DD	0cc0c7795H
	DD	0bb0b4703H
	DD	0220216b9H
	DD	05505262fH
	DD	0c5ba3bbeH
	DD	0b2bd0b28H
	DD	02bb45a92H
	DD	05cb36a04H
	DD	0c2d7ffa7H
	DD	0b5d0cf31H
	DD	02cd99e8bH
	DD	05bdeae1dH
	DD	09b64c2b0H
	DD	0ec63f226H
	DD	0756aa39cH
	DD	026d930aH
	DD	09c0906a9H
	DD	0eb0e363fH
	DD	072076785H
	DD	05005713H
	DD	095bf4a82H
	DD	0e2b87a14H
	DD	07bb12baeH
	DD	0cb61b38H
	DD	092d28e9bH
	DD	0e5d5be0dH
	DD	07cdcefb7H
	DD	0bdbdf21H
	DD	086d3d2d4H
	DD	0f1d4e242H
	DD	068ddb3f8H
	DD	01fda836eH
	DD	081be16cdH
	DD	0f6b9265bH
	DD	06fb077e1H
	DD	018b74777H
	DD	088085ae6H
	DD	0ff0f6a70H
	DD	066063bcaH
	DD	011010b5cH
	DD	08f659effH
	DD	0f862ae69H
	DD	0616bffd3H
	DD	0166ccf45H
	DD	0a00ae278H
	DD	0d70dd2eeH
	DD	04e048354H
	DD	03903b3c2H
	DD	0a7672661H
	DD	0d06016f7H
	DD	04969474dH
	DD	03e6e77dbH
	DD	0aed16a4aH
	DD	0d9d65adcH
	DD	040df0b66H
	DD	037d83bf0H
	DD	0a9bcae53H
	DD	0debb9ec5H
	DD	047b2cf7fH
	DD	030b5ffe9H
	DD	0bdbdf21cH
	DD	0cabac28aH
	DD	053b39330H
	DD	024b4a3a6H
	DD	0bad03605H
	DD	0cdd70693H
	DD	054de5729H
	DD	023d967bfH
	DD	0b3667a2eH
	DD	0c4614ab8H
	DD	05d681b02H
	DD	02a6f2b94H
	DD	0b40bbe37H
	DD	0c30c8ea1H
	DD	05a05df1bH
	DD	02d02ef8dH
?GStyleVarInfo@@3QBUImGuiStyleVarInfo@@B DD 04H		; GStyleVarInfo
	DD	01H
	DD	00H
	DD	04H
	DD	02H
	DD	04H
	DD	04H
	DD	01H
	DD	0cH
	DD	04H
	DD	01H
	DD	010H
	DD	04H
	DD	02H
	DD	014H
	DD	04H
	DD	02H
	DD	01cH
	DD	04H
	DD	01H
	DD	024H
	DD	04H
	DD	01H
	DD	028H
	DD	04H
	DD	01H
	DD	02cH
	DD	04H
	DD	01H
	DD	030H
	DD	04H
	DD	02H
	DD	034H
	DD	04H
	DD	01H
	DD	03cH
	DD	04H
	DD	01H
	DD	040H
	DD	04H
	DD	02H
	DD	044H
	DD	04H
	DD	02H
	DD	04cH
	DD	04H
	DD	01H
	DD	05cH
	DD	04H
	DD	01H
	DD	064H
	DD	04H
	DD	01H
	DD	068H
	DD	04H
	DD	01H
	DD	06cH
	DD	04H
	DD	01H
	DD	070H
	DD	04H
	DD	01H
	DD	074H
	DD	04H
	DD	02H
	DD	07cH
	DD	04H
	DD	02H
	DD	084H
CONST	ENDS
;	COMDAT ??_C@_05DKFIPBAL@ARM64@
CONST	SEGMENT
??_C@_05DKFIPBAL@ARM64@ DB 'ARM64', 00H			; `string'
CONST	ENDS
;	COMDAT ??_C@_03ELMOGNHL@X64@
CONST	SEGMENT
??_C@_03ELMOGNHL@X64@ DB 'X64', 00H			; `string'
CONST	ENDS
;	COMDAT ??_C@_06IDLKBMKC@X86PAE@
CONST	SEGMENT
??_C@_06IDLKBMKC@X86PAE@ DB 'X86PAE', 00H		; `string'
CONST	ENDS
;	COMDAT ??_C@_03HDGGCCPD@X86@
CONST	SEGMENT
??_C@_03HDGGCCPD@X86@ DB 'X86', 00H			; `string'
CONST	ENDS
;	COMDAT ??_C@_03HPADHAHE@N?1A@
CONST	SEGMENT
??_C@_03HPADHAHE@N?1A@ DB 'N/A', 00H			; `string'
CONST	ENDS
;	COMDAT ??_C@_09DCHLEDFD@LcCommand@
CONST	SEGMENT
??_C@_09DCHLEDFD@LcCommand@ DB 'LcCommand', 00H		; `string'
CONST	ENDS
;	COMDAT ??_C@_0M@FPFAGJPB@LcSetOption@
CONST	SEGMENT
??_C@_0M@FPFAGJPB@LcSetOption@ DB 'LcSetOption', 00H	; `string'
CONST	ENDS
;	COMDAT ??_C@_0M@HBBFEIGD@LcGetOption@
CONST	SEGMENT
??_C@_0M@HBBFEIGD@LcGetOption@ DB 'LcGetOption', 00H	; `string'
CONST	ENDS
;	COMDAT ??_C@_0P@DAJMPOFM@LcWriteScatter@
CONST	SEGMENT
??_C@_0P@DAJMPOFM@LcWriteScatter@ DB 'LcWriteScatter', 00H ; `string'
CONST	ENDS
;	COMDAT ??_C@_07MBHEMNEL@LcWrite@
CONST	SEGMENT
??_C@_07MBHEMNEL@LcWrite@ DB 'LcWrite', 00H		; `string'
CONST	ENDS
;	COMDAT ??_C@_0O@CBBNAKKC@LcReadScatter@
CONST	SEGMENT
??_C@_0O@CBBNAKKC@LcReadScatter@ DB 'LcReadScatter', 00H ; `string'
CONST	ENDS
;	COMDAT ??_C@_06GJPHNGFG@LcRead@
CONST	SEGMENT
??_C@_06GJPHNGFG@LcRead@ DB 'LcRead', 00H		; `string'
CONST	ENDS
;	COMDAT ??_C@_06GLKGGCJO@LcOpen@
CONST	SEGMENT
??_C@_06GLKGGCJO@LcOpen@ DB 'LcOpen', 00H		; `string'
CONST	ENDS
PUBLIC	??_H@YAXPEAX_K1P6APEAX0@Z@Z			; `vector constructor iterator'
PUBLIC	__local_stdio_printf_options
PUBLIC	_vsnprintf_l
PUBLIC	_vsnprintf
PUBLIC	fabsf
PUBLIC	?hash_@@YA?B_KPEBD@Z				; hash_
PUBLIC	??0WSInit@detail@httplib@@QEAA@XZ		; httplib::detail::WSInit::WSInit
PUBLIC	??1WSInit@detail@httplib@@QEAA@XZ		; httplib::detail::WSInit::~WSInit
PUBLIC	??0SSLInit@detail@httplib@@QEAA@XZ		; httplib::detail::SSLInit::SSLInit
PUBLIC	?MakeVectorRegister@Math@Core@IronMan@@YA?AT__m128@@IIII@Z ; IronMan::Core::Math::MakeVectorRegister
PUBLIC	?MakeVectorRegister@Math@Core@IronMan@@YA?AT__m128@@MMMM@Z ; IronMan::Core::Math::MakeVectorRegister
PUBLIC	??0ImVec2@@QEAA@XZ				; ImVec2::ImVec2
PUBLIC	??0ImVec2@@QEAA@MM@Z				; ImVec2::ImVec2
PUBLIC	??0ImVec4@@QEAA@XZ				; ImVec4::ImVec4
PUBLIC	??0ImVec4@@QEAA@MMMM@Z				; ImVec4::ImVec4
PUBLIC	?CreateContext@ImGui@@YAPEAUImGuiContext@@PEAUImFontAtlas@@@Z ; ImGui::CreateContext
PUBLIC	?DestroyContext@ImGui@@YAXPEAUImGuiContext@@@Z	; ImGui::DestroyContext
PUBLIC	?GetCurrentContext@ImGui@@YAPEAUImGuiContext@@XZ ; ImGui::GetCurrentContext
PUBLIC	?SetCurrentContext@ImGui@@YAXPEAUImGuiContext@@@Z ; ImGui::SetCurrentContext
PUBLIC	?DebugCheckVersionAndDataLayout@ImGui@@YA_NPEBD_K1111@Z ; ImGui::DebugCheckVersionAndDataLayout
PUBLIC	?GetIO@ImGui@@YAAEAUImGuiIO@@XZ			; ImGui::GetIO
PUBLIC	?GetStyle@ImGui@@YAAEAUImGuiStyle@@XZ		; ImGui::GetStyle
PUBLIC	?NewFrame@ImGui@@YAXXZ				; ImGui::NewFrame
PUBLIC	?EndFrame@ImGui@@YAXXZ				; ImGui::EndFrame
PUBLIC	?Render@ImGui@@YAXXZ				; ImGui::Render
PUBLIC	?GetDrawData@ImGui@@YAPEAUImDrawData@@XZ	; ImGui::GetDrawData
PUBLIC	?ShowMetricsWindow@ImGui@@YAXPEA_N@Z		; ImGui::ShowMetricsWindow
PUBLIC	?GetVersion@ImGui@@YAPEBDXZ			; ImGui::GetVersion
PUBLIC	?Begin@ImGui@@YA_NPEBDPEA_NH@Z			; ImGui::Begin
PUBLIC	?End@ImGui@@YAXXZ				; ImGui::End
PUBLIC	?BeginChild@ImGui@@YA_NPEBDAEBUImVec2@@_NH@Z	; ImGui::BeginChild
PUBLIC	?BeginChild@ImGui@@YA_NIAEBUImVec2@@_NH@Z	; ImGui::BeginChild
PUBLIC	?EndChild@ImGui@@YAXXZ				; ImGui::EndChild
PUBLIC	?IsWindowAppearing@ImGui@@YA_NXZ		; ImGui::IsWindowAppearing
PUBLIC	?IsWindowCollapsed@ImGui@@YA_NXZ		; ImGui::IsWindowCollapsed
PUBLIC	?IsWindowFocused@ImGui@@YA_NH@Z			; ImGui::IsWindowFocused
PUBLIC	?IsWindowHovered@ImGui@@YA_NH@Z			; ImGui::IsWindowHovered
PUBLIC	?GetWindowDrawList@ImGui@@YAPEAUImDrawList@@XZ	; ImGui::GetWindowDrawList
PUBLIC	?GetWindowPos@ImGui@@YA?AUImVec2@@XZ		; ImGui::GetWindowPos
PUBLIC	?GetWindowSize@ImGui@@YA?AUImVec2@@XZ		; ImGui::GetWindowSize
PUBLIC	?GetWindowWidth@ImGui@@YAMXZ			; ImGui::GetWindowWidth
PUBLIC	?GetWindowHeight@ImGui@@YAMXZ			; ImGui::GetWindowHeight
PUBLIC	?GetContentRegionMax@ImGui@@YA?AUImVec2@@XZ	; ImGui::GetContentRegionMax
PUBLIC	?GetContentRegionAvail@ImGui@@YA?AUImVec2@@XZ	; ImGui::GetContentRegionAvail
PUBLIC	?GetContentRegionAvailWidth@ImGui@@YAMXZ	; ImGui::GetContentRegionAvailWidth
PUBLIC	?GetWindowContentRegionMin@ImGui@@YA?AUImVec2@@XZ ; ImGui::GetWindowContentRegionMin
PUBLIC	?GetWindowContentRegionMax@ImGui@@YA?AUImVec2@@XZ ; ImGui::GetWindowContentRegionMax
PUBLIC	?GetWindowContentRegionWidth@ImGui@@YAMXZ	; ImGui::GetWindowContentRegionWidth
PUBLIC	?GetNextWindowPos@ImGui@@YA?AUImVec2@@XZ	; ImGui::GetNextWindowPos
PUBLIC	?SetNextWindowPos@ImGui@@YAXAEBUImVec2@@H0@Z	; ImGui::SetNextWindowPos
PUBLIC	?SetNextWindowSize@ImGui@@YAXAEBUImVec2@@H@Z	; ImGui::SetNextWindowSize
PUBLIC	?SetNextWindowSizeConstraints@ImGui@@YAXAEBUImVec2@@0P6AXPEAUImGuiSizeCallbackData@@@ZPEAX@Z ; ImGui::SetNextWindowSizeConstraints
PUBLIC	?SetNextWindowContentSize@ImGui@@YAXAEBUImVec2@@@Z ; ImGui::SetNextWindowContentSize
PUBLIC	?SetNextWindowCollapsed@ImGui@@YAX_NH@Z		; ImGui::SetNextWindowCollapsed
PUBLIC	?SetNextWindowFocus@ImGui@@YAXXZ		; ImGui::SetNextWindowFocus
PUBLIC	?SetNextWindowBgAlpha@ImGui@@YAXM@Z		; ImGui::SetNextWindowBgAlpha
PUBLIC	?SetWindowPos@ImGui@@YAXAEBUImVec2@@H@Z		; ImGui::SetWindowPos
PUBLIC	?SetWindowSize@ImGui@@YAXAEBUImVec2@@H@Z	; ImGui::SetWindowSize
PUBLIC	?SetWindowCollapsed@ImGui@@YAX_NH@Z		; ImGui::SetWindowCollapsed
PUBLIC	?SetWindowFocus@ImGui@@YAXXZ			; ImGui::SetWindowFocus
PUBLIC	?SetWindowFontScale@ImGui@@YAXM@Z		; ImGui::SetWindowFontScale
PUBLIC	?SetWindowPos@ImGui@@YAXPEBDAEBUImVec2@@H@Z	; ImGui::SetWindowPos
PUBLIC	?SetWindowSize@ImGui@@YAXPEBDAEBUImVec2@@H@Z	; ImGui::SetWindowSize
PUBLIC	?SetWindowCollapsed@ImGui@@YAXPEBD_NH@Z		; ImGui::SetWindowCollapsed
PUBLIC	?SetWindowFocus@ImGui@@YAXPEBD@Z		; ImGui::SetWindowFocus
PUBLIC	?GetScrollX@ImGui@@YAMXZ			; ImGui::GetScrollX
PUBLIC	?GetScrollY@ImGui@@YAMXZ			; ImGui::GetScrollY
PUBLIC	?GetScrollMaxX@ImGui@@YAMXZ			; ImGui::GetScrollMaxX
PUBLIC	?GetScrollMaxY@ImGui@@YAMXZ			; ImGui::GetScrollMaxY
PUBLIC	?SetScrollX@ImGui@@YAXM@Z			; ImGui::SetScrollX
PUBLIC	?SetScrollY@ImGui@@YAXM@Z			; ImGui::SetScrollY
PUBLIC	?SetScrollHereY@ImGui@@YAXM@Z			; ImGui::SetScrollHereY
PUBLIC	?SetScrollFromPosY@ImGui@@YAXMM@Z		; ImGui::SetScrollFromPosY
PUBLIC	?PushFont@ImGui@@YAXPEAUImFont@@@Z		; ImGui::PushFont
PUBLIC	?PopFont@ImGui@@YAXXZ				; ImGui::PopFont
PUBLIC	?PushStyleColor@ImGui@@YAXHI@Z			; ImGui::PushStyleColor
PUBLIC	?PushStyleColor@ImGui@@YAXHAEBUImVec4@@@Z	; ImGui::PushStyleColor
PUBLIC	?PopStyleColor@ImGui@@YAXH@Z			; ImGui::PopStyleColor
PUBLIC	?PushStyleVar@ImGui@@YAXHM@Z			; ImGui::PushStyleVar
PUBLIC	?PushStyleVar@ImGui@@YAXHAEBUImVec2@@@Z		; ImGui::PushStyleVar
PUBLIC	?PopStyleVar@ImGui@@YAXH@Z			; ImGui::PopStyleVar
PUBLIC	?GetStyleColorVec4@ImGui@@YAAEBUImVec4@@H@Z	; ImGui::GetStyleColorVec4
PUBLIC	?GetFont@ImGui@@YAPEAUImFont@@XZ		; ImGui::GetFont
PUBLIC	?GetFontSize@ImGui@@YAMXZ			; ImGui::GetFontSize
PUBLIC	?GetFontTexUvWhitePixel@ImGui@@YA?AUImVec2@@XZ	; ImGui::GetFontTexUvWhitePixel
PUBLIC	?GetColorU32@ImGui@@YAIHM@Z			; ImGui::GetColorU32
PUBLIC	?GetColorU32@ImGui@@YAIAEBUImVec4@@@Z		; ImGui::GetColorU32
PUBLIC	?GetColorU32@ImGui@@YAIQEAM@Z			; ImGui::GetColorU32
PUBLIC	?GetColorU32@ImGui@@YAII@Z			; ImGui::GetColorU32
PUBLIC	?FloatArrayGetColorU32@ImGui@@YAIQEAM@Z		; ImGui::FloatArrayGetColorU32
PUBLIC	?FloatArrayGetColorU32@ImGui@@YAIUImVec4@@@Z	; ImGui::FloatArrayGetColorU32
PUBLIC	?PushItemWidth@ImGui@@YAXM@Z			; ImGui::PushItemWidth
PUBLIC	?PopItemWidth@ImGui@@YAXXZ			; ImGui::PopItemWidth
PUBLIC	?CalcItemWidth@ImGui@@YAMXZ			; ImGui::CalcItemWidth
PUBLIC	?PushTextWrapPos@ImGui@@YAXM@Z			; ImGui::PushTextWrapPos
PUBLIC	?PopTextWrapPos@ImGui@@YAXXZ			; ImGui::PopTextWrapPos
PUBLIC	?PushAllowKeyboardFocus@ImGui@@YAX_N@Z		; ImGui::PushAllowKeyboardFocus
PUBLIC	?PopAllowKeyboardFocus@ImGui@@YAXXZ		; ImGui::PopAllowKeyboardFocus
PUBLIC	?PushButtonRepeat@ImGui@@YAX_N@Z		; ImGui::PushButtonRepeat
PUBLIC	?PopButtonRepeat@ImGui@@YAXXZ			; ImGui::PopButtonRepeat
PUBLIC	?SameLine@ImGui@@YAXMMM@Z			; ImGui::SameLine
PUBLIC	?Indent@ImGui@@YAXM@Z				; ImGui::Indent
PUBLIC	?Unindent@ImGui@@YAXM@Z				; ImGui::Unindent
PUBLIC	?BeginGroup@ImGui@@YAXXZ			; ImGui::BeginGroup
PUBLIC	?EndGroup@ImGui@@YAXXZ				; ImGui::EndGroup
PUBLIC	?GetCursorPos@ImGui@@YA?AUImVec2@@XZ		; ImGui::GetCursorPos
PUBLIC	?GetCursorPosX@ImGui@@YAMXZ			; ImGui::GetCursorPosX
PUBLIC	?GetCursorPosY@ImGui@@YAMXZ			; ImGui::GetCursorPosY
PUBLIC	?SetCursorPos@ImGui@@YAXAEBUImVec2@@@Z		; ImGui::SetCursorPos
PUBLIC	?SetCursorPosX@ImGui@@YAXM@Z			; ImGui::SetCursorPosX
PUBLIC	?SetCursorPosY@ImGui@@YAXM@Z			; ImGui::SetCursorPosY
PUBLIC	?GetCursorStartPos@ImGui@@YA?AUImVec2@@XZ	; ImGui::GetCursorStartPos
PUBLIC	?GetCursorScreenPos@ImGui@@YA?AUImVec2@@XZ	; ImGui::GetCursorScreenPos
PUBLIC	?SetCursorScreenPos@ImGui@@YAXAEBUImVec2@@@Z	; ImGui::SetCursorScreenPos
PUBLIC	?GetTextLineHeight@ImGui@@YAMXZ			; ImGui::GetTextLineHeight
PUBLIC	?GetTextLineHeightWithSpacing@ImGui@@YAMXZ	; ImGui::GetTextLineHeightWithSpacing
PUBLIC	?GetFrameHeight@ImGui@@YAMXZ			; ImGui::GetFrameHeight
PUBLIC	?GetFrameHeightWithSpacing@ImGui@@YAMXZ		; ImGui::GetFrameHeightWithSpacing
PUBLIC	?PushID@ImGui@@YAXPEBD@Z			; ImGui::PushID
PUBLIC	?PushID@ImGui@@YAXPEBD0@Z			; ImGui::PushID
PUBLIC	?PushID@ImGui@@YAXPEBX@Z			; ImGui::PushID
PUBLIC	?PushID@ImGui@@YAXH@Z				; ImGui::PushID
PUBLIC	?PopID@ImGui@@YAXXZ				; ImGui::PopID
PUBLIC	?GetID@ImGui@@YAIPEBD@Z				; ImGui::GetID
PUBLIC	?GetID@ImGui@@YAIPEBD0@Z			; ImGui::GetID
PUBLIC	?GetID@ImGui@@YAIPEBX@Z				; ImGui::GetID
PUBLIC	?BeginTooltip@ImGui@@YAXXZ			; ImGui::BeginTooltip
PUBLIC	?EndTooltip@ImGui@@YAXXZ			; ImGui::EndTooltip
PUBLIC	?SetTooltip@ImGui@@YAXPEBDZZ			; ImGui::SetTooltip
PUBLIC	?SetTooltipV@ImGui@@YAXPEBDPEAD@Z		; ImGui::SetTooltipV
PUBLIC	?OpenPopup@ImGui@@YAXPEBD@Z			; ImGui::OpenPopup
PUBLIC	?BeginPopup@ImGui@@YA_NPEBDH@Z			; ImGui::BeginPopup
PUBLIC	?BeginPopupContextItem@ImGui@@YA_NPEBDH@Z	; ImGui::BeginPopupContextItem
PUBLIC	?BeginPopupContextWindow@ImGui@@YA_NPEBDH_N@Z	; ImGui::BeginPopupContextWindow
PUBLIC	?BeginPopupContextVoid@ImGui@@YA_NPEBDH@Z	; ImGui::BeginPopupContextVoid
PUBLIC	?BeginPopupModal@ImGui@@YA_NPEBDPEA_NH@Z	; ImGui::BeginPopupModal
PUBLIC	?EndPopup@ImGui@@YAXXZ				; ImGui::EndPopup
PUBLIC	?OpenPopupOnItemClick@ImGui@@YA_NPEBDH@Z	; ImGui::OpenPopupOnItemClick
PUBLIC	?IsPopupOpen@ImGui@@YA_NPEBD@Z			; ImGui::IsPopupOpen
PUBLIC	?CloseCurrentPopup@ImGui@@YAXXZ			; ImGui::CloseCurrentPopup
PUBLIC	?Columns@ImGui@@YAXHPEBD_N@Z			; ImGui::Columns
PUBLIC	?NextColumn@ImGui@@YAXXZ			; ImGui::NextColumn
PUBLIC	?GetColumnIndex@ImGui@@YAHXZ			; ImGui::GetColumnIndex
PUBLIC	?GetColumnWidth@ImGui@@YAMH@Z			; ImGui::GetColumnWidth
PUBLIC	?SetColumnWidth@ImGui@@YAXHM@Z			; ImGui::SetColumnWidth
PUBLIC	?GetColumnOffset@ImGui@@YAMH@Z			; ImGui::GetColumnOffset
PUBLIC	?SetColumnOffset@ImGui@@YAXHM@Z			; ImGui::SetColumnOffset
PUBLIC	?GetColumnsCount@ImGui@@YAHXZ			; ImGui::GetColumnsCount
PUBLIC	?BeginDragDropSource@ImGui@@YA_NH@Z		; ImGui::BeginDragDropSource
PUBLIC	?SetDragDropPayload@ImGui@@YA_NPEBDPEBX_KH@Z	; ImGui::SetDragDropPayload
PUBLIC	?EndDragDropSource@ImGui@@YAXXZ			; ImGui::EndDragDropSource
PUBLIC	?BeginDragDropTarget@ImGui@@YA_NXZ		; ImGui::BeginDragDropTarget
PUBLIC	?AcceptDragDropPayload@ImGui@@YAPEBUImGuiPayload@@PEBDH@Z ; ImGui::AcceptDragDropPayload
PUBLIC	?EndDragDropTarget@ImGui@@YAXXZ			; ImGui::EndDragDropTarget
PUBLIC	?GetDragDropPayload@ImGui@@YAPEBUImGuiPayload@@XZ ; ImGui::GetDragDropPayload
PUBLIC	?PushClipRect@ImGui@@YAXAEBUImVec2@@0_N@Z	; ImGui::PushClipRect
PUBLIC	?PopClipRect@ImGui@@YAXXZ			; ImGui::PopClipRect
PUBLIC	?SetItemDefaultFocus@ImGui@@YAXXZ		; ImGui::SetItemDefaultFocus
PUBLIC	?SetKeyboardFocusHere@ImGui@@YAXH@Z		; ImGui::SetKeyboardFocusHere
PUBLIC	?IsItemHovered@ImGui@@YA_NH@Z			; ImGui::IsItemHovered
PUBLIC	?IsItemActive@ImGui@@YA_NXZ			; ImGui::IsItemActive
PUBLIC	?IsItemFocused@ImGui@@YA_NXZ			; ImGui::IsItemFocused
PUBLIC	?IsItemClicked@ImGui@@YA_NH@Z			; ImGui::IsItemClicked
PUBLIC	?IsItemVisible@ImGui@@YA_NXZ			; ImGui::IsItemVisible
PUBLIC	?IsItemEdited@ImGui@@YA_NXZ			; ImGui::IsItemEdited
PUBLIC	?IsItemActivated@ImGui@@YA_NXZ			; ImGui::IsItemActivated
PUBLIC	?IsItemDeactivated@ImGui@@YA_NXZ		; ImGui::IsItemDeactivated
PUBLIC	?IsItemDeactivatedAfterEdit@ImGui@@YA_NXZ	; ImGui::IsItemDeactivatedAfterEdit
PUBLIC	?IsAnyItemHovered@ImGui@@YA_NXZ			; ImGui::IsAnyItemHovered
PUBLIC	?IsAnyItemActive@ImGui@@YA_NXZ			; ImGui::IsAnyItemActive
PUBLIC	?IsAnyItemFocused@ImGui@@YA_NXZ			; ImGui::IsAnyItemFocused
PUBLIC	?GetItemRectMin@ImGui@@YA?AUImVec2@@XZ		; ImGui::GetItemRectMin
PUBLIC	?GetItemRectMax@ImGui@@YA?AUImVec2@@XZ		; ImGui::GetItemRectMax
PUBLIC	?GetItemRectSize@ImGui@@YA?AUImVec2@@XZ		; ImGui::GetItemRectSize
PUBLIC	?SetItemAllowOverlap@ImGui@@YAXXZ		; ImGui::SetItemAllowOverlap
PUBLIC	?IsRectVisible@ImGui@@YA_NAEBUImVec2@@@Z	; ImGui::IsRectVisible
PUBLIC	?IsRectVisible@ImGui@@YA_NAEBUImVec2@@0@Z	; ImGui::IsRectVisible
PUBLIC	?GetTime@ImGui@@YANXZ				; ImGui::GetTime
PUBLIC	?GetFrameCount@ImGui@@YAHXZ			; ImGui::GetFrameCount
PUBLIC	?GetOverlayDrawList@ImGui@@YAPEAUImDrawList@@XZ	; ImGui::GetOverlayDrawList
PUBLIC	?GetDrawListSharedData@ImGui@@YAPEAUImDrawListSharedData@@XZ ; ImGui::GetDrawListSharedData
PUBLIC	?GetStyleColorName@ImGui@@YAPEBDH@Z		; ImGui::GetStyleColorName
PUBLIC	?SetStateStorage@ImGui@@YAXPEAUImGuiStorage@@@Z	; ImGui::SetStateStorage
PUBLIC	?GetStateStorage@ImGui@@YAPEAUImGuiStorage@@XZ	; ImGui::GetStateStorage
PUBLIC	?CalcTextSize@ImGui@@YA?AUImVec2@@PEBD0_NM@Z	; ImGui::CalcTextSize
PUBLIC	?CalcListClipping@ImGui@@YAXHMPEAH0@Z		; ImGui::CalcListClipping
PUBLIC	?BeginChildFrame@ImGui@@YA_NIAEBUImVec2@@H@Z	; ImGui::BeginChildFrame
PUBLIC	?EndChildFrame@ImGui@@YAXXZ			; ImGui::EndChildFrame
PUBLIC	?ColorConvertU32ToFloat4@ImGui@@YA?AUImVec4@@I@Z ; ImGui::ColorConvertU32ToFloat4
PUBLIC	?ColorConvertFloat4ToU32@ImGui@@YAIAEBUImVec4@@@Z ; ImGui::ColorConvertFloat4ToU32
PUBLIC	?ColorConvertFloat4ToRGB@ImGui@@YAXAEBUImVec4@@AEAM11@Z ; ImGui::ColorConvertFloat4ToRGB
PUBLIC	?ColorConvertRGBtoHSV@ImGui@@YAXMMMAEAM00@Z	; ImGui::ColorConvertRGBtoHSV
PUBLIC	?ColorConvertHSVtoRGB@ImGui@@YAXMMMAEAM00@Z	; ImGui::ColorConvertHSVtoRGB
PUBLIC	?GetKeyIndex@ImGui@@YAHH@Z			; ImGui::GetKeyIndex
PUBLIC	?IsKeyDown@ImGui@@YA_NH@Z			; ImGui::IsKeyDown
PUBLIC	?IsKeyPressed@ImGui@@YA_NH_N@Z			; ImGui::IsKeyPressed
PUBLIC	?IsKeyReleased@ImGui@@YA_NH@Z			; ImGui::IsKeyReleased
PUBLIC	?GetKeyPressedAmount@ImGui@@YAHHMM@Z		; ImGui::GetKeyPressedAmount
PUBLIC	?IsMouseDown@ImGui@@YA_NH@Z			; ImGui::IsMouseDown
PUBLIC	?IsAnyMouseDown@ImGui@@YA_NXZ			; ImGui::IsAnyMouseDown
PUBLIC	?IsMouseClicked@ImGui@@YA_NH_N@Z		; ImGui::IsMouseClicked
PUBLIC	?IsMouseDoubleClicked@ImGui@@YA_NH@Z		; ImGui::IsMouseDoubleClicked
PUBLIC	?IsMouseReleased@ImGui@@YA_NH@Z			; ImGui::IsMouseReleased
PUBLIC	?IsMouseDragging@ImGui@@YA_NHM@Z		; ImGui::IsMouseDragging
PUBLIC	?IsMouseHoveringRect@ImGui@@YA_NAEBUImVec2@@0_N@Z ; ImGui::IsMouseHoveringRect
PUBLIC	?IsMousePosValid@ImGui@@YA_NPEBUImVec2@@@Z	; ImGui::IsMousePosValid
PUBLIC	?GetMousePos@ImGui@@YA?AUImVec2@@XZ		; ImGui::GetMousePos
PUBLIC	?GetMousePosOnOpeningCurrentPopup@ImGui@@YA?AUImVec2@@XZ ; ImGui::GetMousePosOnOpeningCurrentPopup
PUBLIC	?GetMouseDragDelta@ImGui@@YA?AUImVec2@@HM@Z	; ImGui::GetMouseDragDelta
PUBLIC	?ResetMouseDragDelta@ImGui@@YAXH@Z		; ImGui::ResetMouseDragDelta
PUBLIC	?GetMouseCursor@ImGui@@YAHXZ			; ImGui::GetMouseCursor
PUBLIC	?SetMouseCursor@ImGui@@YAXH@Z			; ImGui::SetMouseCursor
PUBLIC	?CaptureKeyboardFromApp@ImGui@@YAX_N@Z		; ImGui::CaptureKeyboardFromApp
PUBLIC	?CaptureMouseFromApp@ImGui@@YAX_N@Z		; ImGui::CaptureMouseFromApp
PUBLIC	?GetClipboardText@ImGui@@YAPEBDXZ		; ImGui::GetClipboardText
PUBLIC	?SetClipboardText@ImGui@@YAXPEBD@Z		; ImGui::SetClipboardText
PUBLIC	?SetAllocatorFunctions@ImGui@@YAXP6APEAX_KPEAX@ZP6AX11@Z1@Z ; ImGui::SetAllocatorFunctions
PUBLIC	?MemAlloc@ImGui@@YAPEAX_K@Z			; ImGui::MemAlloc
PUBLIC	?MemFree@ImGui@@YAXPEAX@Z			; ImGui::MemFree
PUBLIC	??0ImGuiStyle@@QEAA@XZ				; ImGuiStyle::ImGuiStyle
PUBLIC	?ScaleAllSizes@ImGuiStyle@@QEAAXM@Z		; ImGuiStyle::ScaleAllSizes
PUBLIC	?AddInputCharactersUTF8@ImGuiIO@@QEAAXPEBD@Z	; ImGuiIO::AddInputCharactersUTF8
PUBLIC	?AddInputCharacter@ImGuiIO@@QEAAXG@Z		; ImGuiIO::AddInputCharacter
PUBLIC	?ClearInputCharacters@ImGuiIO@@QEAAXXZ		; ImGuiIO::ClearInputCharacters
PUBLIC	??0?$ImVector@G@@QEAA@XZ			; ImVector<unsigned short>::ImVector<unsigned short>
PUBLIC	??1?$ImVector@G@@QEAA@XZ			; ImVector<unsigned short>::~ImVector<unsigned short>
PUBLIC	??A?$ImVector@G@@QEAAAEAGH@Z			; ImVector<unsigned short>::operator[]
PUBLIC	?clear@?$ImVector@G@@QEAAXXZ			; ImVector<unsigned short>::clear
PUBLIC	?_grow_capacity@?$ImVector@G@@QEBAHH@Z		; ImVector<unsigned short>::_grow_capacity
PUBLIC	?resize@?$ImVector@G@@QEAAXH@Z			; ImVector<unsigned short>::resize
PUBLIC	?reserve@?$ImVector@G@@QEAAXH@Z			; ImVector<unsigned short>::reserve
PUBLIC	?push_back@?$ImVector@G@@QEAAXAEBG@Z		; ImVector<unsigned short>::push_back
PUBLIC	??0ImGuiIO@@QEAA@XZ				; ImGuiIO::ImGuiIO
PUBLIC	??1ImGuiIO@@QEAA@XZ				; ImGuiIO::~ImGuiIO
PUBLIC	??0ImGuiSizeCallbackData@@QEAA@XZ		; ImGuiSizeCallbackData::ImGuiSizeCallbackData
PUBLIC	?IsDataType@ImGuiPayload@@QEBA_NPEBD@Z		; ImGuiPayload::IsDataType
PUBLIC	??0ImGuiPayload@@QEAA@XZ			; ImGuiPayload::ImGuiPayload
PUBLIC	?Clear@ImGuiPayload@@QEAAXXZ			; ImGuiPayload::Clear
PUBLIC	?Begin@ImGui@@YA_NPEBDPEA_NAEBUImVec2@@MH@Z	; ImGui::Begin
PUBLIC	??2@YAPEAX_KUImNewDummy@@PEAX@Z			; operator new
PUBLIC	??3@YAXPEAXUImNewDummy@@0@Z			; operator delete
PUBLIC	??0ImGuiTextFilter@@QEAA@PEBD@Z			; ImGuiTextFilter::ImGuiTextFilter
PUBLIC	?Draw@ImGuiTextFilter@@QEAA_NPEBDM@Z		; ImGuiTextFilter::Draw
PUBLIC	?PassFilter@ImGuiTextFilter@@QEBA_NPEBD0@Z	; ImGuiTextFilter::PassFilter
PUBLIC	?Build@ImGuiTextFilter@@QEAAXXZ			; ImGuiTextFilter::Build
PUBLIC	??0TextRange@ImGuiTextFilter@@QEAA@PEBD0@Z	; ImGuiTextFilter::TextRange::TextRange
PUBLIC	?begin@TextRange@ImGuiTextFilter@@QEBAPEBDXZ	; ImGuiTextFilter::TextRange::begin
PUBLIC	?end@TextRange@ImGuiTextFilter@@QEBAPEBDXZ	; ImGuiTextFilter::TextRange::end
PUBLIC	?empty@TextRange@ImGuiTextFilter@@QEBA_NXZ	; ImGuiTextFilter::TextRange::empty
PUBLIC	?split@TextRange@ImGuiTextFilter@@QEBAXDPEAU?$ImVector@UTextRange@ImGuiTextFilter@@@@@Z ; ImGuiTextFilter::TextRange::split
PUBLIC	??0?$ImVector@UTextRange@ImGuiTextFilter@@@@QEAA@XZ ; ImVector<ImGuiTextFilter::TextRange>::ImVector<ImGuiTextFilter::TextRange>
PUBLIC	??1?$ImVector@UTextRange@ImGuiTextFilter@@@@QEAA@XZ ; ImVector<ImGuiTextFilter::TextRange>::~ImVector<ImGuiTextFilter::TextRange>
PUBLIC	?empty@?$ImVector@UTextRange@ImGuiTextFilter@@@@QEBA_NXZ ; ImVector<ImGuiTextFilter::TextRange>::empty
PUBLIC	??A?$ImVector@UTextRange@ImGuiTextFilter@@@@QEAAAEAUTextRange@ImGuiTextFilter@@H@Z ; ImVector<ImGuiTextFilter::TextRange>::operator[]
PUBLIC	??A?$ImVector@UTextRange@ImGuiTextFilter@@@@QEBAAEBUTextRange@ImGuiTextFilter@@H@Z ; ImVector<ImGuiTextFilter::TextRange>::operator[]
PUBLIC	?_grow_capacity@?$ImVector@UTextRange@ImGuiTextFilter@@@@QEBAHH@Z ; ImVector<ImGuiTextFilter::TextRange>::_grow_capacity
PUBLIC	?resize@?$ImVector@UTextRange@ImGuiTextFilter@@@@QEAAXH@Z ; ImVector<ImGuiTextFilter::TextRange>::resize
PUBLIC	?reserve@?$ImVector@UTextRange@ImGuiTextFilter@@@@QEAAXH@Z ; ImVector<ImGuiTextFilter::TextRange>::reserve
PUBLIC	?push_back@?$ImVector@UTextRange@ImGuiTextFilter@@@@QEAAXAEBUTextRange@ImGuiTextFilter@@@Z ; ImVector<ImGuiTextFilter::TextRange>::push_back
PUBLIC	??0?$ImVector@D@@QEAA@XZ			; ImVector<char>::ImVector<char>
PUBLIC	??1?$ImVector@D@@QEAA@XZ			; ImVector<char>::~ImVector<char>
PUBLIC	??A?$ImVector@D@@QEAAAEADH@Z			; ImVector<char>::operator[]
PUBLIC	?clear@?$ImVector@D@@QEAAXXZ			; ImVector<char>::clear
PUBLIC	?_grow_capacity@?$ImVector@D@@QEBAHH@Z		; ImVector<char>::_grow_capacity
PUBLIC	?resize@?$ImVector@D@@QEAAXH@Z			; ImVector<char>::resize
PUBLIC	?reserve@?$ImVector@D@@QEAAXH@Z			; ImVector<char>::reserve
PUBLIC	?append@ImGuiTextBuffer@@QEAAXPEBD0@Z		; ImGuiTextBuffer::append
PUBLIC	?appendf@ImGuiTextBuffer@@QEAAXPEBDZZ		; ImGuiTextBuffer::appendf
PUBLIC	?appendfv@ImGuiTextBuffer@@QEAAXPEBDPEAD@Z	; ImGuiTextBuffer::appendfv
PUBLIC	??1ImGuiTextBuffer@@QEAA@XZ			; ImGuiTextBuffer::~ImGuiTextBuffer
PUBLIC	??0Pair@ImGuiStorage@@QEAA@IH@Z			; ImGuiStorage::Pair::Pair
PUBLIC	??0Pair@ImGuiStorage@@QEAA@IM@Z			; ImGuiStorage::Pair::Pair
PUBLIC	??0Pair@ImGuiStorage@@QEAA@IPEAX@Z		; ImGuiStorage::Pair::Pair
PUBLIC	??0?$ImVector@UPair@ImGuiStorage@@@@QEAA@XZ	; ImVector<ImGuiStorage::Pair>::ImVector<ImGuiStorage::Pair>
PUBLIC	??1?$ImVector@UPair@ImGuiStorage@@@@QEAA@XZ	; ImVector<ImGuiStorage::Pair>::~ImVector<ImGuiStorage::Pair>
PUBLIC	??A?$ImVector@UPair@ImGuiStorage@@@@QEAAAEAUPair@ImGuiStorage@@H@Z ; ImVector<ImGuiStorage::Pair>::operator[]
PUBLIC	?clear@?$ImVector@UPair@ImGuiStorage@@@@QEAAXXZ	; ImVector<ImGuiStorage::Pair>::clear
PUBLIC	?end@?$ImVector@UPair@ImGuiStorage@@@@QEAAPEAUPair@ImGuiStorage@@XZ ; ImVector<ImGuiStorage::Pair>::end
PUBLIC	?end@?$ImVector@UPair@ImGuiStorage@@@@QEBAPEBUPair@ImGuiStorage@@XZ ; ImVector<ImGuiStorage::Pair>::end
PUBLIC	?_grow_capacity@?$ImVector@UPair@ImGuiStorage@@@@QEBAHH@Z ; ImVector<ImGuiStorage::Pair>::_grow_capacity
PUBLIC	?reserve@?$ImVector@UPair@ImGuiStorage@@@@QEAAXH@Z ; ImVector<ImGuiStorage::Pair>::reserve
PUBLIC	?insert@?$ImVector@UPair@ImGuiStorage@@@@QEAAPEAUPair@ImGuiStorage@@PEBU23@AEBU23@@Z ; ImVector<ImGuiStorage::Pair>::insert
PUBLIC	?Clear@ImGuiStorage@@QEAAXXZ			; ImGuiStorage::Clear
PUBLIC	?GetInt@ImGuiStorage@@QEBAHIH@Z			; ImGuiStorage::GetInt
PUBLIC	?SetInt@ImGuiStorage@@QEAAXIH@Z			; ImGuiStorage::SetInt
PUBLIC	?GetBool@ImGuiStorage@@QEBA_NI_N@Z		; ImGuiStorage::GetBool
PUBLIC	?SetBool@ImGuiStorage@@QEAAXI_N@Z		; ImGuiStorage::SetBool
PUBLIC	?GetFloat@ImGuiStorage@@QEBAMIM@Z		; ImGuiStorage::GetFloat
PUBLIC	?SetFloat@ImGuiStorage@@QEAAXIM@Z		; ImGuiStorage::SetFloat
PUBLIC	?GetVoidPtr@ImGuiStorage@@QEBAPEAXI@Z		; ImGuiStorage::GetVoidPtr
PUBLIC	?SetVoidPtr@ImGuiStorage@@QEAAXIPEAX@Z		; ImGuiStorage::SetVoidPtr
PUBLIC	?GetIntRef@ImGuiStorage@@QEAAPEAHIH@Z		; ImGuiStorage::GetIntRef
PUBLIC	?GetBoolRef@ImGuiStorage@@QEAAPEA_NI_N@Z	; ImGuiStorage::GetBoolRef
PUBLIC	?GetFloatRef@ImGuiStorage@@QEAAPEAMIM@Z		; ImGuiStorage::GetFloatRef
PUBLIC	?GetVoidPtrRef@ImGuiStorage@@QEAAPEAPEAXIPEAX@Z	; ImGuiStorage::GetVoidPtrRef
PUBLIC	?SetAllInt@ImGuiStorage@@QEAAXH@Z		; ImGuiStorage::SetAllInt
PUBLIC	?BuildSortByKey@ImGuiStorage@@QEAAXXZ		; ImGuiStorage::BuildSortByKey
PUBLIC	??0ImGuiStorage@@QEAA@XZ			; ImGuiStorage::ImGuiStorage
PUBLIC	??1ImGuiStorage@@QEAA@XZ			; ImGuiStorage::~ImGuiStorage
PUBLIC	??0ImGuiListClipper@@QEAA@HM@Z			; ImGuiListClipper::ImGuiListClipper
PUBLIC	??1ImGuiListClipper@@QEAA@XZ			; ImGuiListClipper::~ImGuiListClipper
PUBLIC	?Step@ImGuiListClipper@@QEAA_NXZ		; ImGuiListClipper::Step
PUBLIC	?Begin@ImGuiListClipper@@QEAAXHM@Z		; ImGuiListClipper::Begin
PUBLIC	?End@ImGuiListClipper@@QEAAXXZ			; ImGuiListClipper::End
PUBLIC	??0?$ImVector@UImDrawCmd@@@@QEAA@XZ		; ImVector<ImDrawCmd>::ImVector<ImDrawCmd>
PUBLIC	??1?$ImVector@UImDrawCmd@@@@QEAA@XZ		; ImVector<ImDrawCmd>::~ImVector<ImDrawCmd>
PUBLIC	?empty@?$ImVector@UImDrawCmd@@@@QEBA_NXZ	; ImVector<ImDrawCmd>::empty
PUBLIC	?begin@?$ImVector@UImDrawCmd@@@@QEAAPEAUImDrawCmd@@XZ ; ImVector<ImDrawCmd>::begin
PUBLIC	?end@?$ImVector@UImDrawCmd@@@@QEAAPEAUImDrawCmd@@XZ ; ImVector<ImDrawCmd>::end
PUBLIC	?back@?$ImVector@UImDrawCmd@@@@QEAAAEAUImDrawCmd@@XZ ; ImVector<ImDrawCmd>::back
PUBLIC	?pop_back@?$ImVector@UImDrawCmd@@@@QEAAXXZ	; ImVector<ImDrawCmd>::pop_back
PUBLIC	??0?$ImVector@UImDrawVert@@@@QEAA@XZ		; ImVector<ImDrawVert>::ImVector<ImDrawVert>
PUBLIC	??1?$ImVector@UImDrawVert@@@@QEAA@XZ		; ImVector<ImDrawVert>::~ImVector<ImDrawVert>
PUBLIC	?empty@?$ImVector@UImDrawVert@@@@QEBA_NXZ	; ImVector<ImDrawVert>::empty
PUBLIC	??A?$ImVector@UImDrawVert@@@@QEAAAEAUImDrawVert@@H@Z ; ImVector<ImDrawVert>::operator[]
PUBLIC	??0?$ImVector@UImDrawChannel@@@@QEAA@XZ		; ImVector<ImDrawChannel>::ImVector<ImDrawChannel>
PUBLIC	??1?$ImVector@UImDrawChannel@@@@QEAA@XZ		; ImVector<ImDrawChannel>::~ImVector<ImDrawChannel>
PUBLIC	??0?$ImVector@UImVec4@@@@QEAA@XZ		; ImVector<ImVec4>::ImVector<ImVec4>
PUBLIC	??1?$ImVector@UImVec4@@@@QEAA@XZ		; ImVector<ImVec4>::~ImVector<ImVec4>
PUBLIC	?back@?$ImVector@UImVec4@@@@QEAAAEAUImVec4@@XZ	; ImVector<ImVec4>::back
PUBLIC	??0?$ImVector@PEAX@@QEAA@XZ			; ImVector<void *>::ImVector<void *>
PUBLIC	??1?$ImVector@PEAX@@QEAA@XZ			; ImVector<void *>::~ImVector<void *>
PUBLIC	??0?$ImVector@UImVec2@@@@QEAA@XZ		; ImVector<ImVec2>::ImVector<ImVec2>
PUBLIC	??1?$ImVector@UImVec2@@@@QEAA@XZ		; ImVector<ImVec2>::~ImVector<ImVec2>
PUBLIC	?_grow_capacity@?$ImVector@UImVec2@@@@QEBAHH@Z	; ImVector<ImVec2>::_grow_capacity
PUBLIC	?reserve@?$ImVector@UImVec2@@@@QEAAXH@Z		; ImVector<ImVec2>::reserve
PUBLIC	?push_back@?$ImVector@UImVec2@@@@QEAAXAEBUImVec2@@@Z ; ImVector<ImVec2>::push_back
PUBLIC	??0ImDrawList@@QEAA@PEBUImDrawListSharedData@@@Z ; ImDrawList::ImDrawList
PUBLIC	??1ImDrawList@@QEAA@XZ				; ImDrawList::~ImDrawList
PUBLIC	?PathLineTo@ImDrawList@@QEAAXAEBUImVec2@@@Z	; ImDrawList::PathLineTo
PUBLIC	?PathFillConvex@ImDrawList@@QEAAXI@Z		; ImDrawList::PathFillConvex
PUBLIC	?PathStroke@ImDrawList@@QEAAXI_NM@Z		; ImDrawList::PathStroke
PUBLIC	??0ImDrawData@@QEAA@XZ				; ImDrawData::ImDrawData
PUBLIC	??1ImDrawData@@QEAA@XZ				; ImDrawData::~ImDrawData
PUBLIC	?Clear@ImDrawData@@QEAAXXZ			; ImDrawData::Clear
PUBLIC	??0?$ImVector@H@@QEAA@XZ			; ImVector<int>::ImVector<int>
PUBLIC	??1?$ImVector@H@@QEAA@XZ			; ImVector<int>::~ImVector<int>
PUBLIC	?empty@?$ImVector@H@@QEBA_NXZ			; ImVector<int>::empty
PUBLIC	?back@?$ImVector@H@@QEAAAEAHXZ			; ImVector<int>::back
PUBLIC	?_grow_capacity@?$ImVector@H@@QEBAHH@Z		; ImVector<int>::_grow_capacity
PUBLIC	?resize@?$ImVector@H@@QEAAXH@Z			; ImVector<int>::resize
PUBLIC	?reserve@?$ImVector@H@@QEAAXH@Z			; ImVector<int>::reserve
PUBLIC	?push_back@?$ImVector@H@@QEAAXAEBH@Z		; ImVector<int>::push_back
PUBLIC	?pop_back@?$ImVector@H@@QEAAXXZ			; ImVector<int>::pop_back
PUBLIC	??0?$ImVector@PEAUImFont@@@@QEAA@XZ		; ImVector<ImFont *>::ImVector<ImFont *>
PUBLIC	??1?$ImVector@PEAUImFont@@@@QEAA@XZ		; ImVector<ImFont *>::~ImVector<ImFont *>
PUBLIC	?empty@?$ImVector@PEAUImFont@@@@QEBA_NXZ	; ImVector<ImFont *>::empty
PUBLIC	??A?$ImVector@PEAUImFont@@@@QEAAAEAPEAUImFont@@H@Z ; ImVector<ImFont *>::operator[]
PUBLIC	?clear@?$ImVector@PEAUImFont@@@@QEAAXXZ		; ImVector<ImFont *>::clear
PUBLIC	?back@?$ImVector@PEAUImFont@@@@QEAAAEAPEAUImFont@@XZ ; ImVector<ImFont *>::back
PUBLIC	?_grow_capacity@?$ImVector@PEAUImFont@@@@QEBAHH@Z ; ImVector<ImFont *>::_grow_capacity
PUBLIC	?reserve@?$ImVector@PEAUImFont@@@@QEAAXH@Z	; ImVector<ImFont *>::reserve
PUBLIC	?push_back@?$ImVector@PEAUImFont@@@@QEAAXAEBQEAUImFont@@@Z ; ImVector<ImFont *>::push_back
PUBLIC	?pop_back@?$ImVector@PEAUImFont@@@@QEAAXXZ	; ImVector<ImFont *>::pop_back
PUBLIC	??_GImFontAtlas@@QEAAPEAXI@Z			; ImFontAtlas::`scalar deleting destructor'
PUBLIC	??0?$ImVector@M@@QEAA@XZ			; ImVector<float>::ImVector<float>
PUBLIC	??1?$ImVector@M@@QEAA@XZ			; ImVector<float>::~ImVector<float>
PUBLIC	?empty@?$ImVector@M@@QEBA_NXZ			; ImVector<float>::empty
PUBLIC	?back@?$ImVector@M@@QEAAAEAMXZ			; ImVector<float>::back
PUBLIC	?_grow_capacity@?$ImVector@M@@QEBAHH@Z		; ImVector<float>::_grow_capacity
PUBLIC	?resize@?$ImVector@M@@QEAAXH@Z			; ImVector<float>::resize
PUBLIC	?reserve@?$ImVector@M@@QEAAXH@Z			; ImVector<float>::reserve
PUBLIC	?push_back@?$ImVector@M@@QEAAXAEBM@Z		; ImVector<float>::push_back
PUBLIC	?pop_back@?$ImVector@M@@QEAAXXZ			; ImVector<float>::pop_back
PUBLIC	?ImTextStrToUtf8@@YAHPEADHPEBG1@Z		; ImTextStrToUtf8
PUBLIC	?ImTextCharFromUtf8@@YAHPEAIPEBD1@Z		; ImTextCharFromUtf8
PUBLIC	?ImTextStrFromUtf8@@YAHPEAGHPEBD1PEAPEBD@Z	; ImTextStrFromUtf8
PUBLIC	?ImTextCountCharsFromUtf8@@YAHPEBD0@Z		; ImTextCountCharsFromUtf8
PUBLIC	?ImTextCountUtf8BytesFromChar@@YAHPEBD0@Z	; ImTextCountUtf8BytesFromChar
PUBLIC	?ImTextCountUtf8BytesFromStr@@YAHPEBG0@Z	; ImTextCountUtf8BytesFromStr
PUBLIC	?ImHashData@@YAIPEBX_KI@Z			; ImHashData
PUBLIC	?ImHashStr@@YAIPEBD_KI@Z			; ImHashStr
PUBLIC	?ImFileLoadToMemory@@YAPEAXPEBD0PEA_KH@Z	; ImFileLoadToMemory
PUBLIC	?ImFileOpen@@YAPEAU_iobuf@@PEBD0@Z		; ImFileOpen
PUBLIC	?ImLineClosestPoint@@YA?AUImVec2@@AEBU1@00@Z	; ImLineClosestPoint
PUBLIC	?ImTriangleContainsPoint@@YA_NAEBUImVec2@@000@Z	; ImTriangleContainsPoint
PUBLIC	?ImTriangleClosestPoint@@YA?AUImVec2@@AEBU1@000@Z ; ImTriangleClosestPoint
PUBLIC	?ImTriangleBarycentricCoords@@YAXAEBUImVec2@@000AEAM11@Z ; ImTriangleBarycentricCoords
PUBLIC	?ImGetDirQuadrantFromDelta@@YAHMM@Z		; ImGetDirQuadrantFromDelta
PUBLIC	?ImStricmp@@YAHPEBD0@Z				; ImStricmp
PUBLIC	?ImStrnicmp@@YAHPEBD0_K@Z			; ImStrnicmp
PUBLIC	?ImStrncpy@@YAXPEADPEBD_K@Z			; ImStrncpy
PUBLIC	?ImStrdup@@YAPEADPEBD@Z				; ImStrdup
PUBLIC	?ImStrdupcpy@@YAPEADPEADPEA_KPEBD@Z		; ImStrdupcpy
PUBLIC	?ImStrchrRange@@YAPEBDPEBD0D@Z			; ImStrchrRange
PUBLIC	?ImStrlenW@@YAHPEBG@Z				; ImStrlenW
PUBLIC	?ImStreolRange@@YAPEBDPEBD0@Z			; ImStreolRange
PUBLIC	?ImStrbolW@@YAPEBGPEBG0@Z			; ImStrbolW
PUBLIC	?ImStristr@@YAPEBDPEBD000@Z			; ImStristr
PUBLIC	?ImStrTrimBlanks@@YAXPEAD@Z			; ImStrTrimBlanks
PUBLIC	?ImFormatString@@YAHPEAD_KPEBDZZ		; ImFormatString
PUBLIC	?ImFormatStringV@@YAHPEAD_KPEBD0@Z		; ImFormatStringV
PUBLIC	??0ImVec1@@QEAA@XZ				; ImVec1::ImVec1
PUBLIC	??0ImVec1@@QEAA@M@Z				; ImVec1::ImVec1
PUBLIC	??0ImRect@@QEAA@XZ				; ImRect::ImRect
PUBLIC	??0ImRect@@QEAA@AEBUImVec2@@0@Z			; ImRect::ImRect
PUBLIC	??0ImRect@@QEAA@AEBUImVec4@@@Z			; ImRect::ImRect
PUBLIC	??0ImRect@@QEAA@MMMM@Z				; ImRect::ImRect
PUBLIC	?GetSize@ImRect@@QEBA?AUImVec2@@XZ		; ImRect::GetSize
PUBLIC	?GetWidth@ImRect@@QEBAMXZ			; ImRect::GetWidth
PUBLIC	?GetHeight@ImRect@@QEBAMXZ			; ImRect::GetHeight
PUBLIC	?GetTR@ImRect@@QEBA?AUImVec2@@XZ		; ImRect::GetTR
PUBLIC	?GetBL@ImRect@@QEBA?AUImVec2@@XZ		; ImRect::GetBL
PUBLIC	?GetBR@ImRect@@QEBA?AUImVec2@@XZ		; ImRect::GetBR
PUBLIC	?Contains@ImRect@@QEBA_NAEBUImVec2@@@Z		; ImRect::Contains
PUBLIC	?Contains@ImRect@@QEBA_NAEBU1@@Z		; ImRect::Contains
PUBLIC	?Overlaps@ImRect@@QEBA_NAEBU1@@Z		; ImRect::Overlaps
PUBLIC	?Add@ImRect@@QEAAXAEBUImVec2@@@Z		; ImRect::Add
PUBLIC	?Add@ImRect@@QEAAXAEBU1@@Z			; ImRect::Add
PUBLIC	?Expand@ImRect@@QEAAXM@Z			; ImRect::Expand
PUBLIC	?Expand@ImRect@@QEAAXAEBUImVec2@@@Z		; ImRect::Expand
PUBLIC	?Translate@ImRect@@QEAAXAEBUImVec2@@@Z		; ImRect::Translate
PUBLIC	?TranslateX@ImRect@@QEAAXM@Z			; ImRect::TranslateX
PUBLIC	?TranslateY@ImRect@@QEAAXM@Z			; ImRect::TranslateY
PUBLIC	?ClipWith@ImRect@@QEAAXAEBU1@@Z			; ImRect::ClipWith
PUBLIC	?ClipWithFull@ImRect@@QEAAXAEBU1@@Z		; ImRect::ClipWithFull
PUBLIC	?Floor@ImRect@@QEAAXXZ				; ImRect::Floor
PUBLIC	?IsInverted@ImRect@@QEBA_NXZ			; ImRect::IsInverted
PUBLIC	??0ImGuiColorMod@@QEAA@XZ			; ImGuiColorMod::ImGuiColorMod
PUBLIC	??0ImGuiStyleMod@@QEAA@HM@Z			; ImGuiStyleMod::ImGuiStyleMod
PUBLIC	??0ImGuiStyleMod@@QEAA@HUImVec2@@@Z		; ImGuiStyleMod::ImGuiStyleMod
PUBLIC	??0ImGuiInputTextState@@QEAA@XZ			; ImGuiInputTextState::ImGuiInputTextState
PUBLIC	??1ImGuiInputTextState@@QEAA@XZ			; ImGuiInputTextState::~ImGuiInputTextState
PUBLIC	??0ImGuiPopupRef@@QEAA@XZ			; ImGuiPopupRef::ImGuiPopupRef
PUBLIC	??0ImGuiColumnData@@QEAA@XZ			; ImGuiColumnData::ImGuiColumnData
PUBLIC	??0?$ImVector@UImGuiColumnData@@@@QEAA@XZ	; ImVector<ImGuiColumnData>::ImVector<ImGuiColumnData>
PUBLIC	??1?$ImVector@UImGuiColumnData@@@@QEAA@XZ	; ImVector<ImGuiColumnData>::~ImVector<ImGuiColumnData>
PUBLIC	??A?$ImVector@UImGuiColumnData@@@@QEAAAEAUImGuiColumnData@@H@Z ; ImVector<ImGuiColumnData>::operator[]
PUBLIC	??A?$ImVector@UImGuiColumnData@@@@QEBAAEBUImGuiColumnData@@H@Z ; ImVector<ImGuiColumnData>::operator[]
PUBLIC	?clear@?$ImVector@UImGuiColumnData@@@@QEAAXXZ	; ImVector<ImGuiColumnData>::clear
PUBLIC	?_grow_capacity@?$ImVector@UImGuiColumnData@@@@QEBAHH@Z ; ImVector<ImGuiColumnData>::_grow_capacity
PUBLIC	?resize@?$ImVector@UImGuiColumnData@@@@QEAAXH@Z	; ImVector<ImGuiColumnData>::resize
PUBLIC	?reserve@?$ImVector@UImGuiColumnData@@@@QEAAXH@Z ; ImVector<ImGuiColumnData>::reserve
PUBLIC	?push_back@?$ImVector@UImGuiColumnData@@@@QEAAXAEBUImGuiColumnData@@@Z ; ImVector<ImGuiColumnData>::push_back
PUBLIC	??0ImGuiColumnsSet@@QEAA@XZ			; ImGuiColumnsSet::ImGuiColumnsSet
PUBLIC	?Clear@ImGuiColumnsSet@@QEAAXXZ			; ImGuiColumnsSet::Clear
PUBLIC	??1ImGuiColumnsSet@@QEAA@XZ			; ImGuiColumnsSet::~ImGuiColumnsSet
PUBLIC	??_GImGuiColumnsSet@@QEAAPEAXI@Z		; ImGuiColumnsSet::`scalar deleting destructor'
PUBLIC	??0?$ImVector@PEAUImDrawList@@@@QEAA@XZ		; ImVector<ImDrawList *>::ImVector<ImDrawList *>
PUBLIC	??1?$ImVector@PEAUImDrawList@@@@QEAA@XZ		; ImVector<ImDrawList *>::~ImVector<ImDrawList *>
PUBLIC	?empty@?$ImVector@PEAUImDrawList@@@@QEBA_NXZ	; ImVector<ImDrawList *>::empty
PUBLIC	??A?$ImVector@PEAUImDrawList@@@@QEAAAEAPEAUImDrawList@@H@Z ; ImVector<ImDrawList *>::operator[]
PUBLIC	?clear@?$ImVector@PEAUImDrawList@@@@QEAAXXZ	; ImVector<ImDrawList *>::clear
PUBLIC	?_grow_capacity@?$ImVector@PEAUImDrawList@@@@QEBAHH@Z ; ImVector<ImDrawList *>::_grow_capacity
PUBLIC	?resize@?$ImVector@PEAUImDrawList@@@@QEAAXH@Z	; ImVector<ImDrawList *>::resize
PUBLIC	?reserve@?$ImVector@PEAUImDrawList@@@@QEAAXH@Z	; ImVector<ImDrawList *>::reserve
PUBLIC	?push_back@?$ImVector@PEAUImDrawList@@@@QEAAXAEBQEAUImDrawList@@@Z ; ImVector<ImDrawList *>::push_back
PUBLIC	?Clear@ImDrawDataBuilder@@QEAAXXZ		; ImDrawDataBuilder::Clear
PUBLIC	?ClearFreeMemory@ImDrawDataBuilder@@QEAAXXZ	; ImDrawDataBuilder::ClearFreeMemory
PUBLIC	?FlattenIntoSingleLayer@ImDrawDataBuilder@@QEAAXXZ ; ImDrawDataBuilder::FlattenIntoSingleLayer
PUBLIC	??0ImDrawDataBuilder@@QEAA@XZ			; ImDrawDataBuilder::ImDrawDataBuilder
PUBLIC	??1ImDrawDataBuilder@@QEAA@XZ			; ImDrawDataBuilder::~ImDrawDataBuilder
PUBLIC	??0ImGuiNavMoveResult@@QEAA@XZ			; ImGuiNavMoveResult::ImGuiNavMoveResult
PUBLIC	?Clear@ImGuiNavMoveResult@@QEAAXXZ		; ImGuiNavMoveResult::Clear
PUBLIC	??0ImGuiNextWindowData@@QEAA@XZ			; ImGuiNextWindowData::ImGuiNextWindowData
PUBLIC	?Clear@ImGuiNextWindowData@@QEAAXXZ		; ImGuiNextWindowData::Clear
PUBLIC	??0?$ImVector@PEAUImGuiWindow@@@@QEAA@XZ	; ImVector<ImGuiWindow *>::ImVector<ImGuiWindow *>
PUBLIC	??1?$ImVector@PEAUImGuiWindow@@@@QEAA@XZ	; ImVector<ImGuiWindow *>::~ImVector<ImGuiWindow *>
PUBLIC	?empty@?$ImVector@PEAUImGuiWindow@@@@QEBA_NXZ	; ImVector<ImGuiWindow *>::empty
PUBLIC	??A?$ImVector@PEAUImGuiWindow@@@@QEAAAEAPEAUImGuiWindow@@H@Z ; ImVector<ImGuiWindow *>::operator[]
PUBLIC	?clear@?$ImVector@PEAUImGuiWindow@@@@QEAAXXZ	; ImVector<ImGuiWindow *>::clear
PUBLIC	?begin@?$ImVector@PEAUImGuiWindow@@@@QEAAPEAPEAUImGuiWindow@@XZ ; ImVector<ImGuiWindow *>::begin
PUBLIC	?back@?$ImVector@PEAUImGuiWindow@@@@QEAAAEAPEAUImGuiWindow@@XZ ; ImVector<ImGuiWindow *>::back
PUBLIC	?swap@?$ImVector@PEAUImGuiWindow@@@@QEAAXAEAU1@@Z ; ImVector<ImGuiWindow *>::swap
PUBLIC	?_grow_capacity@?$ImVector@PEAUImGuiWindow@@@@QEBAHH@Z ; ImVector<ImGuiWindow *>::_grow_capacity
PUBLIC	?resize@?$ImVector@PEAUImGuiWindow@@@@QEAAXH@Z	; ImVector<ImGuiWindow *>::resize
PUBLIC	?reserve@?$ImVector@PEAUImGuiWindow@@@@QEAAXH@Z	; ImVector<ImGuiWindow *>::reserve
PUBLIC	?push_back@?$ImVector@PEAUImGuiWindow@@@@QEAAXAEBQEAUImGuiWindow@@@Z ; ImVector<ImGuiWindow *>::push_back
PUBLIC	?pop_back@?$ImVector@PEAUImGuiWindow@@@@QEAAXXZ	; ImVector<ImGuiWindow *>::pop_back
PUBLIC	?push_front@?$ImVector@PEAUImGuiWindow@@@@QEAAXAEBQEAUImGuiWindow@@@Z ; ImVector<ImGuiWindow *>::push_front
PUBLIC	?insert@?$ImVector@PEAUImGuiWindow@@@@QEAAPEAPEAUImGuiWindow@@PEBQEAU2@AEBQEAU2@@Z ; ImVector<ImGuiWindow *>::insert
PUBLIC	??0?$ImVector@UImGuiColorMod@@@@QEAA@XZ		; ImVector<ImGuiColorMod>::ImVector<ImGuiColorMod>
PUBLIC	??1?$ImVector@UImGuiColorMod@@@@QEAA@XZ		; ImVector<ImGuiColorMod>::~ImVector<ImGuiColorMod>
PUBLIC	?clear@?$ImVector@UImGuiColorMod@@@@QEAAXXZ	; ImVector<ImGuiColorMod>::clear
PUBLIC	?back@?$ImVector@UImGuiColorMod@@@@QEAAAEAUImGuiColorMod@@XZ ; ImVector<ImGuiColorMod>::back
PUBLIC	?_grow_capacity@?$ImVector@UImGuiColorMod@@@@QEBAHH@Z ; ImVector<ImGuiColorMod>::_grow_capacity
PUBLIC	?reserve@?$ImVector@UImGuiColorMod@@@@QEAAXH@Z	; ImVector<ImGuiColorMod>::reserve
PUBLIC	?push_back@?$ImVector@UImGuiColorMod@@@@QEAAXAEBUImGuiColorMod@@@Z ; ImVector<ImGuiColorMod>::push_back
PUBLIC	?pop_back@?$ImVector@UImGuiColorMod@@@@QEAAXXZ	; ImVector<ImGuiColorMod>::pop_back
PUBLIC	??0?$ImVector@UImGuiStyleMod@@@@QEAA@XZ		; ImVector<ImGuiStyleMod>::ImVector<ImGuiStyleMod>
PUBLIC	??1?$ImVector@UImGuiStyleMod@@@@QEAA@XZ		; ImVector<ImGuiStyleMod>::~ImVector<ImGuiStyleMod>
PUBLIC	?clear@?$ImVector@UImGuiStyleMod@@@@QEAAXXZ	; ImVector<ImGuiStyleMod>::clear
PUBLIC	?back@?$ImVector@UImGuiStyleMod@@@@QEAAAEAUImGuiStyleMod@@XZ ; ImVector<ImGuiStyleMod>::back
PUBLIC	?_grow_capacity@?$ImVector@UImGuiStyleMod@@@@QEBAHH@Z ; ImVector<ImGuiStyleMod>::_grow_capacity
PUBLIC	?reserve@?$ImVector@UImGuiStyleMod@@@@QEAAXH@Z	; ImVector<ImGuiStyleMod>::reserve
PUBLIC	?push_back@?$ImVector@UImGuiStyleMod@@@@QEAAXAEBUImGuiStyleMod@@@Z ; ImVector<ImGuiStyleMod>::push_back
PUBLIC	?pop_back@?$ImVector@UImGuiStyleMod@@@@QEAAXXZ	; ImVector<ImGuiStyleMod>::pop_back
PUBLIC	??0?$ImVector@UImGuiPopupRef@@@@QEAA@XZ		; ImVector<ImGuiPopupRef>::ImVector<ImGuiPopupRef>
PUBLIC	??1?$ImVector@UImGuiPopupRef@@@@QEAA@XZ		; ImVector<ImGuiPopupRef>::~ImVector<ImGuiPopupRef>
PUBLIC	?empty@?$ImVector@UImGuiPopupRef@@@@QEBA_NXZ	; ImVector<ImGuiPopupRef>::empty
PUBLIC	??A?$ImVector@UImGuiPopupRef@@@@QEAAAEAUImGuiPopupRef@@H@Z ; ImVector<ImGuiPopupRef>::operator[]
PUBLIC	?clear@?$ImVector@UImGuiPopupRef@@@@QEAAXXZ	; ImVector<ImGuiPopupRef>::clear
PUBLIC	?back@?$ImVector@UImGuiPopupRef@@@@QEAAAEAUImGuiPopupRef@@XZ ; ImVector<ImGuiPopupRef>::back
PUBLIC	?_grow_capacity@?$ImVector@UImGuiPopupRef@@@@QEBAHH@Z ; ImVector<ImGuiPopupRef>::_grow_capacity
PUBLIC	?resize@?$ImVector@UImGuiPopupRef@@@@QEAAXH@Z	; ImVector<ImGuiPopupRef>::resize
PUBLIC	?reserve@?$ImVector@UImGuiPopupRef@@@@QEAAXH@Z	; ImVector<ImGuiPopupRef>::reserve
PUBLIC	?push_back@?$ImVector@UImGuiPopupRef@@@@QEAAXAEBUImGuiPopupRef@@@Z ; ImVector<ImGuiPopupRef>::push_back
PUBLIC	?pop_back@?$ImVector@UImGuiPopupRef@@@@QEAAXXZ	; ImVector<ImGuiPopupRef>::pop_back
PUBLIC	??0?$ImVector@E@@QEAA@XZ			; ImVector<unsigned char>::ImVector<unsigned char>
PUBLIC	??1?$ImVector@E@@QEAA@XZ			; ImVector<unsigned char>::~ImVector<unsigned char>
PUBLIC	?clear@?$ImVector@E@@QEAAXXZ			; ImVector<unsigned char>::clear
PUBLIC	?_grow_capacity@?$ImVector@E@@QEBAHH@Z		; ImVector<unsigned char>::_grow_capacity
PUBLIC	?resize@?$ImVector@E@@QEAAXH@Z			; ImVector<unsigned char>::resize
PUBLIC	?reserve@?$ImVector@E@@QEAAXH@Z			; ImVector<unsigned char>::reserve
PUBLIC	??0?$ImVector@UImGuiTabBar@@@@QEAA@XZ		; ImVector<ImGuiTabBar>::ImVector<ImGuiTabBar>
PUBLIC	??1?$ImVector@UImGuiTabBar@@@@QEAA@XZ		; ImVector<ImGuiTabBar>::~ImVector<ImGuiTabBar>
PUBLIC	??A?$ImVector@UImGuiTabBar@@@@QEAAAEAUImGuiTabBar@@H@Z ; ImVector<ImGuiTabBar>::operator[]
PUBLIC	?clear@?$ImVector@UImGuiTabBar@@@@QEAAXXZ	; ImVector<ImGuiTabBar>::clear
PUBLIC	??0?$ImPool@UImGuiTabBar@@@@QEAA@XZ		; ImPool<ImGuiTabBar>::ImPool<ImGuiTabBar>
PUBLIC	??1?$ImPool@UImGuiTabBar@@@@QEAA@XZ		; ImPool<ImGuiTabBar>::~ImPool<ImGuiTabBar>
PUBLIC	?GetByIndex@?$ImPool@UImGuiTabBar@@@@QEAAPEAUImGuiTabBar@@H@Z ; ImPool<ImGuiTabBar>::GetByIndex
PUBLIC	?Clear@?$ImPool@UImGuiTabBar@@@@QEAAXXZ		; ImPool<ImGuiTabBar>::Clear
PUBLIC	??0?$ImVector@UImGuiTabBarSortItem@@@@QEAA@XZ	; ImVector<ImGuiTabBarSortItem>::ImVector<ImGuiTabBarSortItem>
PUBLIC	??1?$ImVector@UImGuiTabBarSortItem@@@@QEAA@XZ	; ImVector<ImGuiTabBarSortItem>::~ImVector<ImGuiTabBarSortItem>
PUBLIC	??0?$ImVector@PEAUImGuiTabBar@@@@QEAA@XZ	; ImVector<ImGuiTabBar *>::ImVector<ImGuiTabBar *>
PUBLIC	??1?$ImVector@PEAUImGuiTabBar@@@@QEAA@XZ	; ImVector<ImGuiTabBar *>::~ImVector<ImGuiTabBar *>
PUBLIC	??0ImGuiContext@@QEAA@PEAUImFontAtlas@@@Z	; ImGuiContext::ImGuiContext
PUBLIC	??1ImGuiContext@@QEAA@XZ			; ImGuiContext::~ImGuiContext
PUBLIC	??_GImGuiContext@@QEAAPEAXI@Z			; ImGuiContext::`scalar deleting destructor'
PUBLIC	??0?$ImVector@UImGuiGroupData@@@@QEAA@XZ	; ImVector<ImGuiGroupData>::ImVector<ImGuiGroupData>
PUBLIC	??1?$ImVector@UImGuiGroupData@@@@QEAA@XZ	; ImVector<ImGuiGroupData>::~ImVector<ImGuiGroupData>
PUBLIC	?back@?$ImVector@UImGuiGroupData@@@@QEAAAEAUImGuiGroupData@@XZ ; ImVector<ImGuiGroupData>::back
PUBLIC	?_grow_capacity@?$ImVector@UImGuiGroupData@@@@QEBAHH@Z ; ImVector<ImGuiGroupData>::_grow_capacity
PUBLIC	?resize@?$ImVector@UImGuiGroupData@@@@QEAAXH@Z	; ImVector<ImGuiGroupData>::resize
PUBLIC	?reserve@?$ImVector@UImGuiGroupData@@@@QEAAXH@Z	; ImVector<ImGuiGroupData>::reserve
PUBLIC	?pop_back@?$ImVector@UImGuiGroupData@@@@QEAAXXZ	; ImVector<ImGuiGroupData>::pop_back
PUBLIC	??0ImGuiWindowTempData@@QEAA@XZ			; ImGuiWindowTempData::ImGuiWindowTempData
PUBLIC	??1ImGuiWindowTempData@@QEAA@XZ			; ImGuiWindowTempData::~ImGuiWindowTempData
PUBLIC	??0?$ImVector@I@@QEAA@XZ			; ImVector<unsigned int>::ImVector<unsigned int>
PUBLIC	??1?$ImVector@I@@QEAA@XZ			; ImVector<unsigned int>::~ImVector<unsigned int>
PUBLIC	?back@?$ImVector@I@@QEAAAEAIXZ			; ImVector<unsigned int>::back
PUBLIC	?_grow_capacity@?$ImVector@I@@QEBAHH@Z		; ImVector<unsigned int>::_grow_capacity
PUBLIC	?resize@?$ImVector@I@@QEAAXH@Z			; ImVector<unsigned int>::resize
PUBLIC	?reserve@?$ImVector@I@@QEAAXH@Z			; ImVector<unsigned int>::reserve
PUBLIC	?push_back@?$ImVector@I@@QEAAXAEBI@Z		; ImVector<unsigned int>::push_back
PUBLIC	?pop_back@?$ImVector@I@@QEAAXXZ			; ImVector<unsigned int>::pop_back
PUBLIC	??0?$ImVector@UImGuiColumnsSet@@@@QEAA@XZ	; ImVector<ImGuiColumnsSet>::ImVector<ImGuiColumnsSet>
PUBLIC	??1?$ImVector@UImGuiColumnsSet@@@@QEAA@XZ	; ImVector<ImGuiColumnsSet>::~ImVector<ImGuiColumnsSet>
PUBLIC	??A?$ImVector@UImGuiColumnsSet@@@@QEAAAEAUImGuiColumnsSet@@H@Z ; ImVector<ImGuiColumnsSet>::operator[]
PUBLIC	?back@?$ImVector@UImGuiColumnsSet@@@@QEAAAEAUImGuiColumnsSet@@XZ ; ImVector<ImGuiColumnsSet>::back
PUBLIC	?_grow_capacity@?$ImVector@UImGuiColumnsSet@@@@QEBAHH@Z ; ImVector<ImGuiColumnsSet>::_grow_capacity
PUBLIC	?reserve@?$ImVector@UImGuiColumnsSet@@@@QEAAXH@Z ; ImVector<ImGuiColumnsSet>::reserve
PUBLIC	?push_back@?$ImVector@UImGuiColumnsSet@@@@QEAAXAEBUImGuiColumnsSet@@@Z ; ImVector<ImGuiColumnsSet>::push_back
PUBLIC	??0ImGuiWindow@@QEAA@PEAUImGuiContext@@PEBD@Z	; ImGuiWindow::ImGuiWindow
PUBLIC	??1ImGuiWindow@@QEAA@XZ				; ImGuiWindow::~ImGuiWindow
PUBLIC	?GetID@ImGuiWindow@@QEAAIPEBD0@Z		; ImGuiWindow::GetID
PUBLIC	?GetID@ImGuiWindow@@QEAAIPEBX@Z			; ImGuiWindow::GetID
PUBLIC	?GetIDNoKeepAlive@ImGuiWindow@@QEAAIPEBD0@Z	; ImGuiWindow::GetIDNoKeepAlive
PUBLIC	?GetIDNoKeepAlive@ImGuiWindow@@QEAAIPEBX@Z	; ImGuiWindow::GetIDNoKeepAlive
PUBLIC	?GetIDFromRectangle@ImGuiWindow@@QEAAIAEBUImRect@@@Z ; ImGuiWindow::GetIDFromRectangle
PUBLIC	?Rect@ImGuiWindow@@QEBA?AUImRect@@XZ		; ImGuiWindow::Rect
PUBLIC	?CalcFontSize@ImGuiWindow@@QEBAMXZ		; ImGuiWindow::CalcFontSize
PUBLIC	?TitleBarHeight@ImGuiWindow@@QEBAMXZ		; ImGuiWindow::TitleBarHeight
PUBLIC	?TitleBarRect@ImGuiWindow@@QEBA?AUImRect@@XZ	; ImGuiWindow::TitleBarRect
PUBLIC	?MenuBarHeight@ImGuiWindow@@QEBAMXZ		; ImGuiWindow::MenuBarHeight
PUBLIC	?MenuBarRect@ImGuiWindow@@QEBA?AUImRect@@XZ	; ImGuiWindow::MenuBarRect
PUBLIC	??_GImGuiWindow@@QEAAPEAXI@Z			; ImGuiWindow::`scalar deleting destructor'
PUBLIC	??1?$ImVector@UImGuiTabItem@@@@QEAA@XZ		; ImVector<ImGuiTabItem>::~ImVector<ImGuiTabItem>
PUBLIC	??A?$ImVector@UImGuiTabItem@@@@QEAAAEAUImGuiTabItem@@H@Z ; ImVector<ImGuiTabItem>::operator[]
PUBLIC	??1ImGuiTabBar@@QEAA@XZ				; ImGuiTabBar::~ImGuiTabBar
PUBLIC	??_GImGuiTabBar@@QEAAPEAXI@Z			; ImGuiTabBar::`scalar deleting destructor'
PUBLIC	?GetCurrentWindowRead@ImGui@@YAPEAUImGuiWindow@@XZ ; ImGui::GetCurrentWindowRead
PUBLIC	?GetCurrentWindow@ImGui@@YAPEAUImGuiWindow@@XZ	; ImGui::GetCurrentWindow
PUBLIC	?FindWindowByID@ImGui@@YAPEAUImGuiWindow@@I@Z	; ImGui::FindWindowByID
PUBLIC	?FindWindowByName@ImGui@@YAPEAUImGuiWindow@@PEBD@Z ; ImGui::FindWindowByName
PUBLIC	?FocusWindow@ImGui@@YAXPEAUImGuiWindow@@@Z	; ImGui::FocusWindow
PUBLIC	?FocusPreviousWindowIgnoringOne@ImGui@@YAXPEAUImGuiWindow@@@Z ; ImGui::FocusPreviousWindowIgnoringOne
PUBLIC	?BringWindowToFocusFront@ImGui@@YAXPEAUImGuiWindow@@@Z ; ImGui::BringWindowToFocusFront
PUBLIC	?BringWindowToDisplayFront@ImGui@@YAXPEAUImGuiWindow@@@Z ; ImGui::BringWindowToDisplayFront
PUBLIC	?BringWindowToDisplayBack@ImGui@@YAXPEAUImGuiWindow@@@Z ; ImGui::BringWindowToDisplayBack
PUBLIC	?UpdateWindowParentAndRootLinks@ImGui@@YAXPEAUImGuiWindow@@H0@Z ; ImGui::UpdateWindowParentAndRootLinks
PUBLIC	?CalcWindowExpectedSize@ImGui@@YA?AUImVec2@@PEAUImGuiWindow@@@Z ; ImGui::CalcWindowExpectedSize
PUBLIC	?IsWindowChildOf@ImGui@@YA_NPEAUImGuiWindow@@0@Z ; ImGui::IsWindowChildOf
PUBLIC	?IsWindowNavFocusable@ImGui@@YA_NPEAUImGuiWindow@@@Z ; ImGui::IsWindowNavFocusable
PUBLIC	?SetWindowScrollX@ImGui@@YAXPEAUImGuiWindow@@M@Z ; ImGui::SetWindowScrollX
PUBLIC	?SetWindowScrollY@ImGui@@YAXPEAUImGuiWindow@@M@Z ; ImGui::SetWindowScrollY
PUBLIC	?GetWindowScrollMaxX@ImGui@@YAMPEAUImGuiWindow@@@Z ; ImGui::GetWindowScrollMaxX
PUBLIC	?GetWindowScrollMaxY@ImGui@@YAMPEAUImGuiWindow@@@Z ; ImGui::GetWindowScrollMaxY
PUBLIC	?GetWindowAllowedExtentRect@ImGui@@YA?AUImRect@@PEAUImGuiWindow@@@Z ; ImGui::GetWindowAllowedExtentRect
PUBLIC	?SetWindowPos@ImGui@@YAXPEAUImGuiWindow@@AEBUImVec2@@H@Z ; ImGui::SetWindowPos
PUBLIC	?SetWindowSize@ImGui@@YAXPEAUImGuiWindow@@AEBUImVec2@@H@Z ; ImGui::SetWindowSize
PUBLIC	?SetWindowCollapsed@ImGui@@YAXPEAUImGuiWindow@@_NH@Z ; ImGui::SetWindowCollapsed
PUBLIC	?SetCurrentFont@ImGui@@YAXPEAUImFont@@@Z	; ImGui::SetCurrentFont
PUBLIC	?GetDefaultFont@ImGui@@YAPEAUImFont@@XZ		; ImGui::GetDefaultFont
PUBLIC	?Initialize@ImGui@@YAXPEAUImGuiContext@@@Z	; ImGui::Initialize
PUBLIC	?Shutdown@ImGui@@YAXPEAUImGuiContext@@@Z	; ImGui::Shutdown
PUBLIC	?UpdateHoveredWindowAndCaptureFlags@ImGui@@YAXXZ ; ImGui::UpdateHoveredWindowAndCaptureFlags
PUBLIC	?StartMouseMovingWindow@ImGui@@YAXPEAUImGuiWindow@@@Z ; ImGui::StartMouseMovingWindow
PUBLIC	?UpdateMouseMovingWindowNewFrame@ImGui@@YAXXZ	; ImGui::UpdateMouseMovingWindowNewFrame
PUBLIC	?UpdateMouseMovingWindowEndFrame@ImGui@@YAXXZ	; ImGui::UpdateMouseMovingWindowEndFrame
PUBLIC	?SetActiveID@ImGui@@YAXIPEAUImGuiWindow@@@Z	; ImGui::SetActiveID
PUBLIC	?SetFocusID@ImGui@@YAXIPEAUImGuiWindow@@@Z	; ImGui::SetFocusID
PUBLIC	?ClearActiveID@ImGui@@YAXXZ			; ImGui::ClearActiveID
PUBLIC	?GetHoveredID@ImGui@@YAIXZ			; ImGui::GetHoveredID
PUBLIC	?SetHoveredID@ImGui@@YAXI@Z			; ImGui::SetHoveredID
PUBLIC	?KeepAliveID@ImGui@@YAXI@Z			; ImGui::KeepAliveID
PUBLIC	?MarkItemEdited@ImGui@@YAXI@Z			; ImGui::MarkItemEdited
PUBLIC	?ItemSize@ImGui@@YAXAEBUImVec2@@M@Z		; ImGui::ItemSize
PUBLIC	?ItemSize@ImGui@@YAXAEBUImRect@@M@Z		; ImGui::ItemSize
PUBLIC	?ItemAdd@ImGui@@YA_NAEBUImRect@@IPEBU2@@Z	; ImGui::ItemAdd
PUBLIC	?ItemHoverable@ImGui@@YA_NAEBUImRect@@I@Z	; ImGui::ItemHoverable
PUBLIC	?IsClippedEx@ImGui@@YA_NAEBUImRect@@I_N@Z	; ImGui::IsClippedEx
PUBLIC	?FocusableItemRegister@ImGui@@YA_NPEAUImGuiWindow@@I_N@Z ; ImGui::FocusableItemRegister
PUBLIC	?FocusableItemUnregister@ImGui@@YAXPEAUImGuiWindow@@@Z ; ImGui::FocusableItemUnregister
PUBLIC	?CalcItemSize@ImGui@@YA?AUImVec2@@U2@MM@Z	; ImGui::CalcItemSize
PUBLIC	?CalcWrapWidthForPos@ImGui@@YAMAEBUImVec2@@M@Z	; ImGui::CalcWrapWidthForPos
PUBLIC	?PushMultiItemsWidths@ImGui@@YAXHM@Z		; ImGui::PushMultiItemsWidths
PUBLIC	?PushItemFlag@ImGui@@YAXH_N@Z			; ImGui::PushItemFlag
PUBLIC	?PopItemFlag@ImGui@@YAXXZ			; ImGui::PopItemFlag
PUBLIC	?OpenPopupEx@ImGui@@YAXI@Z			; ImGui::OpenPopupEx
PUBLIC	?ClosePopupToLevel@ImGui@@YAXH_N@Z		; ImGui::ClosePopupToLevel
PUBLIC	?ClosePopupsOverWindow@ImGui@@YAXPEAUImGuiWindow@@@Z ; ImGui::ClosePopupsOverWindow
PUBLIC	?IsPopupOpen@ImGui@@YA_NI@Z			; ImGui::IsPopupOpen
PUBLIC	?BeginPopupEx@ImGui@@YA_NIH@Z			; ImGui::BeginPopupEx
PUBLIC	?BeginTooltipEx@ImGui@@YAXH_N@Z			; ImGui::BeginTooltipEx
PUBLIC	?GetFrontMostPopupModal@ImGui@@YAPEAUImGuiWindow@@XZ ; ImGui::GetFrontMostPopupModal
PUBLIC	?FindBestWindowPosForPopup@ImGui@@YA?AUImVec2@@PEAUImGuiWindow@@@Z ; ImGui::FindBestWindowPosForPopup
PUBLIC	?FindBestWindowPosForPopupEx@ImGui@@YA?AUImVec2@@AEBU2@0PEAHAEBUImRect@@2W4ImGuiPopupPositionPolicy@@@Z ; ImGui::FindBestWindowPosForPopupEx
PUBLIC	?NavInitWindow@ImGui@@YAXPEAUImGuiWindow@@_N@Z	; ImGui::NavInitWindow
PUBLIC	?NavMoveRequestButNoResultYet@ImGui@@YA_NXZ	; ImGui::NavMoveRequestButNoResultYet
PUBLIC	?NavMoveRequestCancel@ImGui@@YAXXZ		; ImGui::NavMoveRequestCancel
PUBLIC	?NavMoveRequestForward@ImGui@@YAXHHAEBUImRect@@H@Z ; ImGui::NavMoveRequestForward
PUBLIC	?NavMoveRequestTryWrapping@ImGui@@YAXPEAUImGuiWindow@@H@Z ; ImGui::NavMoveRequestTryWrapping
PUBLIC	?GetNavInputAmount@ImGui@@YAMHW4ImGuiInputReadMode@@@Z ; ImGui::GetNavInputAmount
PUBLIC	?GetNavInputAmount2d@ImGui@@YA?AUImVec2@@HW4ImGuiInputReadMode@@MM@Z ; ImGui::GetNavInputAmount2d
PUBLIC	?CalcTypematicPressedRepeatAmount@ImGui@@YAHMMMM@Z ; ImGui::CalcTypematicPressedRepeatAmount
PUBLIC	?ActivateItem@ImGui@@YAXI@Z			; ImGui::ActivateItem
PUBLIC	?SetNavID@ImGui@@YAXIH@Z			; ImGui::SetNavID
PUBLIC	?SetNavIDWithRectRel@ImGui@@YAXIHAEBUImRect@@@Z	; ImGui::SetNavIDWithRectRel
PUBLIC	?IsKeyPressedMap@ImGui@@YA_NH_N@Z		; ImGui::IsKeyPressedMap
PUBLIC	?IsNavInputDown@ImGui@@YA_NH@Z			; ImGui::IsNavInputDown
PUBLIC	?IsNavInputPressed@ImGui@@YA_NHW4ImGuiInputReadMode@@@Z ; ImGui::IsNavInputPressed
PUBLIC	?IsNavInputPressedAnyOfTwo@ImGui@@YA_NHHW4ImGuiInputReadMode@@@Z ; ImGui::IsNavInputPressedAnyOfTwo
PUBLIC	?BeginDragDropTargetCustom@ImGui@@YA_NAEBUImRect@@I@Z ; ImGui::BeginDragDropTargetCustom
PUBLIC	?ClearDragDrop@ImGui@@YAXXZ			; ImGui::ClearDragDrop
PUBLIC	?IsDragDropPayloadBeingAccepted@ImGui@@YA_NXZ	; ImGui::IsDragDropPayloadBeingAccepted
PUBLIC	?BeginColumns@ImGui@@YAXPEBDHH@Z		; ImGui::BeginColumns
PUBLIC	?EndColumns@ImGui@@YAXXZ			; ImGui::EndColumns
PUBLIC	?PushColumnClipRect@ImGui@@YAXH@Z		; ImGui::PushColumnClipRect
PUBLIC	?RenderText@ImGui@@YAXUImVec2@@PEBD1_N@Z	; ImGui::RenderText
PUBLIC	?RenderTextWrapped@ImGui@@YAXUImVec2@@PEBD1M@Z	; ImGui::RenderTextWrapped
PUBLIC	?RenderTextClipped@ImGui@@YAXAEBUImVec2@@0PEBD1PEBU2@0PEBUImRect@@@Z ; ImGui::RenderTextClipped
PUBLIC	?RenderTextClippedEx@ImGui@@YAXPEAUImDrawList@@AEBUImVec2@@1PEBD2PEBU3@1PEBUImRect@@@Z ; ImGui::RenderTextClippedEx
PUBLIC	?RenderFrame@ImGui@@YAXUImVec2@@0I_NM@Z		; ImGui::RenderFrame
PUBLIC	?RenderFrameBorder@ImGui@@YAXUImVec2@@0M@Z	; ImGui::RenderFrameBorder
PUBLIC	?RenderArrow@ImGui@@YAXUImVec2@@HM@Z		; ImGui::RenderArrow
PUBLIC	?RenderBullet@ImGui@@YAXUImVec2@@@Z		; ImGui::RenderBullet
PUBLIC	?RenderCheckMark@ImGui@@YAXUImVec2@@IM@Z	; ImGui::RenderCheckMark
PUBLIC	?RenderNavHighlight@ImGui@@YAXAEBUImRect@@IH@Z	; ImGui::RenderNavHighlight
PUBLIC	?FindRenderedTextEnd@ImGui@@YAPEBDPEBD0@Z	; ImGui::FindRenderedTextEnd
PUBLIC	??$IM_DELETE@UImGuiContext@@@@YAXPEAUImGuiContext@@@Z ; IM_DELETE<ImGuiContext>
PUBLIC	??$IM_DELETE@UImFontAtlas@@@@YAXPEAUImFontAtlas@@@Z ; IM_DELETE<ImFontAtlas>
PUBLIC	??$IM_DELETE@UImGuiWindow@@@@YAXPEAUImGuiWindow@@@Z ; IM_DELETE<ImGuiWindow>
PUBLIC	?GetVarPtr@ImGuiStyleVarInfo@@QEBAPEAXPEAUImGuiStyle@@@Z ; ImGuiStyleVarInfo::GetVarPtr
PUBLIC	??$?0$0A@@id@locale@std@@QEAA@XZ		; std::locale::id::id<0>
PUBLIC	?_OptionsStorage@?1??__local_stdio_printf_options@@9@4_KA ; `__local_stdio_printf_options'::`2'::_OptionsStorage
PUBLIC	??_C@_01NBENCBCI@?$CK@				; `string'
PUBLIC	??_C@_00CNPNBAHC@@				; `string'
PUBLIC	??_C@_07NBCGADJA@Unknown@			; `string'
PUBLIC	??_C@_07JLDOGPMM@?$CD?$CD?$CL?9oly@		; `string'
PUBLIC	??_C@_05EJCOBEBF@?$CDMOVE@			; `string'
PUBLIC	??_C@_01HIHLOKLC@1@				; `string'
PUBLIC	??_C@_07MCAEODGB@Default@			; `string'
PUBLIC	??_C@_03KHICJKCI@?4?4?4@			; `string'
PUBLIC	??_C@_0N@CCJDMNMD@?$CFlld?9?$CFs?$CL?$CF08X@	; `string'
PUBLIC	??_C@_09ONMJNNOG@?$CFlld?9?$CF08X@		; `string'
PUBLIC	??_C@_07HDHBJEOI@?$CDRESIZE@			; `string'
PUBLIC	??_C@_09BJOGEADB@?$CDCOLLAPSE@			; `string'
PUBLIC	??_C@_06KIIKKNMI@?$CDCLOSE@			; `string'
PUBLIC	??_C@_04OJAHODMC@Text@				; `string'
PUBLIC	??_C@_0N@LNHHFNPK@TextDisabled@			; `string'
PUBLIC	??_C@_08DMKFNKPN@WindowBg@			; `string'
PUBLIC	??_C@_07BLEJOHFO@ChildBg@			; `string'
PUBLIC	??_C@_07LKIIIJHA@PopupBg@			; `string'
PUBLIC	??_C@_06CMOGDIBK@Border@			; `string'
PUBLIC	??_C@_0N@DECGFAEC@BorderShadow@			; `string'
PUBLIC	??_C@_07PJIIOGAC@FrameBg@			; `string'
PUBLIC	??_C@_0P@KIOOHHAC@FrameBgHovered@		; `string'
PUBLIC	??_C@_0O@BGDCDDEA@FrameBgActive@		; `string'
PUBLIC	??_C@_07MMLEKCPI@TitleBg@			; `string'
PUBLIC	??_C@_0O@JHBFJHNE@TitleBgActive@		; `string'
PUBLIC	??_C@_0BB@EGCOMBJG@TitleBgCollapsed@		; `string'
PUBLIC	??_C@_09GEKCKLDE@MenuBarBg@			; `string'
PUBLIC	??_C@_0M@MFDHPFJF@ScrollbarBg@			; `string'
PUBLIC	??_C@_0O@HABIDNBE@ScrollbarGrab@		; `string'
PUBLIC	??_C@_0BF@JFEOOMLL@ScrollbarGrabHovered@	; `string'
PUBLIC	??_C@_0BE@GODMFNCF@ScrollbarGrabActive@		; `string'
PUBLIC	??_C@_09DMKAANGE@CheckMark@			; `string'
PUBLIC	??_C@_0L@LAMBADIC@SliderGrab@			; `string'
PUBLIC	??_C@_0BB@HBOBMOMP@SliderGrabActive@		; `string'
PUBLIC	??_C@_06LKBCGDFD@Button@			; `string'
PUBLIC	??_C@_0O@HBCGNIAI@ButtonHovered@		; `string'
PUBLIC	??_C@_0N@IMHOFKJ@ButtonActive@			; `string'
PUBLIC	??_C@_06OENKJGA@Header@				; `string'
PUBLIC	??_C@_0O@HAINNLMC@HeaderHovered@		; `string'
PUBLIC	??_C@_0N@HILFCJOI@HeaderActive@			; `string'
PUBLIC	??_C@_09IBFEOKHN@Separator@			; `string'
PUBLIC	??_C@_0BB@CHICANJA@SeparatorHovered@		; `string'
PUBLIC	??_C@_0BA@BPNGFOJM@SeparatorActive@		; `string'
PUBLIC	??_C@_0L@NGBDNFNJ@ResizeGrip@			; `string'
PUBLIC	??_C@_0BC@NNEDPMNH@ResizeGripHovered@		; `string'
PUBLIC	??_C@_0BB@NBBKHKIC@ResizeGripActive@		; `string'
PUBLIC	??_C@_03IEAKBACE@Tab@				; `string'
PUBLIC	??_C@_0L@JFDLBKBD@TabHovered@			; `string'
PUBLIC	??_C@_09BLMKPFCF@TabActive@			; `string'
PUBLIC	??_C@_0N@KLEENDFP@TabUnfocused@			; `string'
PUBLIC	??_C@_0BD@JMEALEPP@TabUnfocusedActive@		; `string'
PUBLIC	??_C@_09HDJFFJLL@PlotLines@			; `string'
PUBLIC	??_C@_0BB@OMALNJLN@PlotLinesHovered@		; `string'
PUBLIC	??_C@_0O@EEKOCENA@PlotHistogram@		; `string'
PUBLIC	??_C@_0BF@GJALJGDC@PlotHistogramHovered@	; `string'
PUBLIC	??_C@_0P@IBBLAEBJ@TextSelectedBg@		; `string'
PUBLIC	??_C@_0P@GDDMCLOI@DragDropTarget@		; `string'
PUBLIC	??_C@_0N@ENCIHEPH@NavHighlight@			; `string'
PUBLIC	??_C@_0BG@MCGDEFOI@NavWindowingHighlight@	; `string'
PUBLIC	??_C@_0BC@JHKONDGH@NavWindowingDimBg@		; `string'
PUBLIC	??_C@_0BB@JOEAHKNC@ModalWindowDimBg@		; `string'
PUBLIC	??_C@_0BB@PMCDEDKJ@?$CD?$CD?$CL?9Tooip?$CL?9_?$CF02d@ ; `string'
PUBLIC	??_C@_0BD@IMJHKMJC@?$CD?$CD?$CL?9M?4e?4n?4u_?$CL?9?$CF02d@ ; `string'
PUBLIC	??_C@_0BF@DKJDPJG@?$CD?$CD?$CL?9P?4o?4p?4u?4p_?$CL?9?$CF08x@ ; `string'
PUBLIC	??_C@_0P@DCJGJLLM@window_context@		; `string'
PUBLIC	??_C@_0N@OOFNFKBH@void_context@			; `string'
PUBLIC	??_C@_07HIFEPIJN@columns@			; `string'
PUBLIC	??_C@_0O@KMAIKFAM@?$CDSourceExtern@		; `string'
PUBLIC	??_C@_0CH@BMBAOAAJ@?$CFs?3?5?8?$CFlld?8?5?$CFd?5vtx?0?5?$CFd?5indices?0?5@ ; `string'
PUBLIC	??_C@_0BE@LDCFEMCB@CURRENTLY?5APPENDING@	; `string'
PUBLIC	??_C@_0BK@FDNBBNBF@Callback?5?$CFp?0?5user_data?5?$CFp@ ; `string'
PUBLIC	??_C@_07KNEBDGNE@indexed@			; `string'
PUBLIC	??_C@_0M@NGJKDAN@non?9indexed@			; `string'
PUBLIC	??_C@_0EB@BKFKDBKJ@Draw?5?$CF4d?5?$CFs?5vtx?0?5tex?50x?$CFp?0?5clip@ ; `string'
PUBLIC	??_C@_03DAKNAIGI@idx@				; `string'
PUBLIC	??_C@_03NDEAONJP@?5?5?5@			; `string'
PUBLIC	??_C@_0DG@MPIFBGBG@?$CFs?5?$CF04d?3?5pos?5?$CI?$CF8?42f?0?$CF8?42f?$CJ?0?5uv?5@ ; `string'
PUBLIC	??_C@_07JMKCEEPK@?$CFs?5?$CI?$CFd?$CJ@		; `string'
PUBLIC	??_C@_06BKKJGDHO@Window@			; `string'
PUBLIC	??_C@_0BD@KOKNLAED@?$CFs?5?8?$CFs?8?0?5?$CFd?5?$EA?50x?$CFp@ ; `string'
PUBLIC	??_C@_08IJNCDCKF@DrawList@			; `string'
PUBLIC	??_C@_0DO@PMCJMPLH@Pos?3?5?$CI?$CF?41f?0?$CF?41f?$CJ?0?5Size?3?5?$CI?$CF?41f?0?$CF@ ; `string'
PUBLIC	??_C@_0BB@GGEIPOID@AlwaysAutoResize@		; `string'
PUBLIC	??_C@_0M@COLEABDL@NoNavInputs@			; `string'
PUBLIC	??_C@_0O@LAPEOEIJ@NoMouseInputs@		; `string'
PUBLIC	??_C@_0BB@EBNDPMCP@NoSavedSettings?5@		; `string'
PUBLIC	??_C@_0L@OPMMHACC@ChildMenu?5@			; `string'
PUBLIC	??_C@_06IFIMNOLK@Modal?5@			; `string'
PUBLIC	??_C@_06NMKCIICK@Popup?5@			; `string'
PUBLIC	??_C@_08LGECAIGF@Tooltip?5@			; `string'
PUBLIC	??_C@_06MMFPNIIL@Child?5@			; `string'
PUBLIC	??_C@_0CF@HFFEAFCN@Flags?3?50x?$CF08X?5?$CI?$CFs?$CFs?$CFs?$CFs?$CFs?$CFs?$CFs?$CFs@ ; `string'
PUBLIC	??_C@_0BO@JAHLHNNL@Scroll?3?5?$CI?$CF?42f?1?$CF?42f?0?$CF?42f?1?$CF?42f?$CJ@ ; `string'
PUBLIC	??_C@_0DO@LPCMGHLI@Active?3?5?$CFd?1?$CFd?0?5WriteAccessed?3?5?$CF@ ; `string'
PUBLIC	??_C@_0DM@DJJIBEFM@Appearing?3?5?$CFd?0?5Hidden?3?5?$CFd?5?$CIReg?5@ ; `string'
PUBLIC	??_C@_0DC@CFCLKJDH@NavLastIds?3?50x?$CF08X?00x?$CF08X?0?5NavL@ ; `string'
PUBLIC	??_C@_0BM@NPFIBFIA@NavLastChildNavWindow?3?5?$CFlld@ ; `string'
PUBLIC	??_C@_0CG@HFMDFCIJ@NavRectRel?$FL0?$FN?3?5?$CI?$CF?41f?0?$CF?41f?$CJ?$CI?$CF?41f@ ; `string'
PUBLIC	??_C@_0BG@KHCECGOM@NavRectRel?$FL0?$FN?3?5?$DMNone?$DO@ ; `string'
PUBLIC	??_C@_0L@EHLMOHOL@RootWindow@			; `string'
PUBLIC	??_C@_0N@BPPHAMMO@ParentWindow@			; `string'
PUBLIC	??_C@_0N@BGDHDNPO@ChildWindows@			; `string'
PUBLIC	??_C@_0BC@FIDDFLAI@Columns?5sets?5?$CI?$CFd?$CJ@ ; `string'
PUBLIC	??_C@_07IBCCJKML@Columns@			; `string'
PUBLIC	??_C@_0CN@LMOAIACO@Columns?5Id?3?50x?$CF08X?0?5Count?3?5?$CFd?0?5@ ; `string'
PUBLIC	??_C@_0CF@PKFCLBKA@Width?3?5?$CF?41f?5?$CIMinX?3?5?$CF?41f?0?5MaxX?3?5@ ; `string'
PUBLIC	??_C@_0CJ@CPAFBJNN@Column?5?$CF02d?3?5OffsetNorm?5?$CF?43f?5?$CI?$DN@ ; `string'
PUBLIC	??_C@_0BC@PDGNHIHG@Storage?3?5?$CFd?5bytes@	; `string'
PUBLIC	??_C@_0M@MDILNFHC@?5?$CKInactive?$CK@		; `string'
PUBLIC	??_C@_0BD@HNMBCOGC@TabBar?5?$CI?$CFd?5tabs?$CJ?$CFs@ ; `string'
PUBLIC	??_C@_02DKCKIIND@?$CFs@				; `string'
PUBLIC	??_C@_01MNNFJEPP@?$DM@				; `string'
PUBLIC	??_C@_01PPODPGHN@?$DO@				; `string'
PUBLIC	??_C@_0BC@NHDMGCPM@?$CF02d?$CFc?5Tab?50x?$CF08X@ ; `string'
PUBLIC	??_C@_0O@JMODJGLN@ImGui?5Metrics@		; `string'
PUBLIC	??_C@_0O@NCHBJMJF@Dear?5ImGui?5?$CFs@		; `string'
PUBLIC	??_C@_0CN@EIPBEGMP@Application?5average?5?$CF?43f?5ms?1fra@ ; `string'
PUBLIC	??_C@_0CH@HHKODNBE@?$CFd?5vertices?0?5?$CFd?5indices?5?$CI?$CFd?5tri@ ; `string'
PUBLIC	??_C@_0BP@OPGGNCEP@?$CFd?5active?5windows?5?$CI?$CFd?5visible?$CJ@ ; `string'
PUBLIC	??_C@_0P@EGHDCIHB@?$CFd?5allocations@		; `string'
PUBLIC	??_C@_0DF@PLCAEOIM@Show?5clipping?5rectangles?5when?5h@ ; `string'
PUBLIC	??_C@_0BO@BAAKGIGK@Ctrl?5shows?5window?5begin?5order@ ; `string'
PUBLIC	??_C@_07LDLFNPGN@Windows@			; `string'
PUBLIC	??_C@_0BG@JOELHCIA@Active?5DrawLists?5?$CI?$CFd?$CJ@ ; `string'
PUBLIC	??_C@_0M@CMLJJLKO@Popups?5?$CI?$CFd?$CJ@	; `string'
PUBLIC	??_C@_06ENDEIGLN@Popups@			; `string'
PUBLIC	??_C@_0L@CMJPHOMG@?5ChildMenu@			; `string'
PUBLIC	??_C@_0N@FFCBFAEB@?5ChildWindow@		; `string'
PUBLIC	??_C@_0CC@KHIGFAF@PopupID?3?5?$CF08x?0?5Window?3?5?8?$CFlld?8?$CFs@ ; `string'
PUBLIC	??_C@_0O@JLIGAOM@Tab?5Bars?5?$CI?$CFd?$CJ@	; `string'
PUBLIC	??_C@_07NBICDJOO@TabBars@			; `string'
PUBLIC	??_C@_0P@DKNCHHLP@Internal?5state@		; `string'
PUBLIC	??_C@_04OHJIHAFH@None@				; `string'
PUBLIC	??_C@_05PEEFLODH@Mouse@				; `string'
PUBLIC	??_C@_03JFAAHAIK@Nav@				; `string'
PUBLIC	??_C@_0M@BGJILJC@NavKeyboard@			; `string'
PUBLIC	??_C@_0L@GFEAGONP@NavGamepad@			; `string'
PUBLIC	??_C@_0BG@CLFHKGNJ@HoveredWindow?3?5?8?$CFlld?8@ ; `string'
PUBLIC	??_C@_0BK@PENLHICC@HoveredRootWindow?3?5?8?$CFlld?8@ ; `string'
PUBLIC	??_C@_0DG@FAAGHPBL@HoveredId?3?50x?$CF08X?10x?$CF08X?5?$CI?$CF?42f?5@ ; `string'
PUBLIC	??_C@_0EB@PEJDHKLE@ActiveId?3?50x?$CF08X?10x?$CF08X?5?$CI?$CF?42f?5s@ ; `string'
PUBLIC	??_C@_0BH@CKLACKBD@ActiveIdWindow?3?5?8?$CFlld?8@ ; `string'
PUBLIC	??_C@_0BF@CFCDIHDM@MovingWindow?3?5?8?$CFlld?8@	; `string'
PUBLIC	??_C@_0BC@NLCAEKMP@NavWindow?3?5?8?$CFlld?8@	; `string'
PUBLIC	??_C@_0BM@KFFINKHC@NavId?3?50x?$CF08X?0?5NavLayer?3?5?$CFd@ ; `string'
PUBLIC	??_C@_0BD@HIKDFBG@NavInputSource?3?5?$CFs@	; `string'
PUBLIC	??_C@_0BO@PADIALFI@NavActive?3?5?$CFd?0?5NavVisible?3?5?$CFd@ ; `string'
PUBLIC	??_C@_0CK@FMBJOEO@NavActivateId?3?50x?$CF08X?0?5NavInput@ ; `string'
PUBLIC	??_C@_0DC@PBLGJJAI@NavDisableHighlight?3?5?$CFd?0?5NavDis@ ; `string'
PUBLIC	??_C@_0BL@MDEMGJOE@NavWindowingTarget?3?5?8?$CFlld?8@ ; `string'
PUBLIC	??_C@_0DJ@OPOHHHAC@DragDrop?3?5?$CFd?0?5SourceId?5?$DN?50x?$CF08X@ ; `string'
PUBLIC	??_C@_02DPKJAMEF@?$CFd@				; `string'
PUBLIC	?id@?$num_put@DV?$ostreambuf_iterator@DU?$char_traits@D@std@@@std@@@std@@2V0locale@2@A ; std::num_put<char,std::ostreambuf_iterator<char,std::char_traits<char> > >::id
PUBLIC	?id@?$codecvt@DDU_Mbstatet@@@std@@2V0locale@2@A	; std::codecvt<char,char,_Mbstatet>::id
PUBLIC	?id@?$numpunct@D@std@@2V0locale@2@A		; std::numpunct<char>::id
PUBLIC	?id@?$collate@D@std@@2V0locale@2@A		; std::collate<char>::id
PUBLIC	__real@00000000
PUBLIC	__real@1e3ce508
PUBLIC	__real@3727c5ac
PUBLIC	__real@38d1b717
PUBLIC	__real@3b808081
PUBLIC	__real@3c23d70a
PUBLIC	__real@3c888889
PUBLIC	__real@3d23d70a
PUBLIC	__real@3d4ccccd
PUBLIC	__real@3dcccccd
PUBLIC	__real@3e2aaaab
PUBLIC	__real@3e4ccccd
PUBLIC	__real@3e800000
PUBLIC	__real@3e99999a
PUBLIC	__real@3ecccccd
PUBLIC	__real@3f000000
PUBLIC	__real@3f19999a
PUBLIC	__real@3f266666
PUBLIC	__real@3f2b851f
PUBLIC	__real@3f333333
PUBLIC	__real@3f400000
PUBLIC	__real@3f490fdb
PUBLIC	__real@3f4ccccd
PUBLIC	__real@3f5db22d
PUBLIC	__real@3f733333
PUBLIC	__real@3f800000
PUBLIC	__real@3fa00000
PUBLIC	__real@3faccccd
PUBLIC	__real@3fc90fdb
PUBLIC	__real@40000000
PUBLIC	__real@40200000
PUBLIC	__real@40400000
PUBLIC	__real@40490fdb
PUBLIC	__real@40600000
PUBLIC	__real@40800000
PUBLIC	__real@4096cbe4
PUBLIC	__real@40a00000
PUBLIC	__real@40c00000
PUBLIC	__real@40e00000
PUBLIC	__real@41000000
PUBLIC	__real@41100000
PUBLIC	__real@41200000
PUBLIC	__real@41800000
PUBLIC	__real@41980000
PUBLIC	__real@41a80000
PUBLIC	__real@41c00000
PUBLIC	__real@42000000
PUBLIC	__real@42700000
PUBLIC	__real@42c80000
PUBLIC	__real@42f00000
PUBLIC	__real@437f0000
PUBLIC	__real@43c80000
PUBLIC	__real@44160000
PUBLIC	__real@44480000
PUBLIC	__real@447a0000
PUBLIC	__real@461c3c00
PUBLIC	__real@7f7fffff
PUBLIC	__real@beaaaaab
PUBLIC	__real@bf400000
PUBLIC	__real@bf5db22d
PUBLIC	__real@bf800000
PUBLIC	__real@c7efffffe0000000
PUBLIC	__real@c87a0000
PUBLIC	__real@ff7fffff
PUBLIC	__xmm@80000000800000008000000080000000
EXTRN	??_L@YAXPEAX_K1P6AX0@Z2@Z:PROC			; `eh vector constructor iterator'
EXTRN	??_M@YAXPEAX_K1P6AX0@Z@Z:PROC			; `eh vector destructor iterator'
EXTRN	??3@YAXPEAX_K@Z:PROC				; operator delete
EXTRN	atexit:PROC
EXTRN	_Init_thread_header:PROC
EXTRN	_Init_thread_abort:PROC
EXTRN	_Init_thread_footer:PROC
EXTRN	_wfopen:PROC
EXTRN	fclose:PROC
EXTRN	fread:PROC
EXTRN	fseek:PROC
EXTRN	ftell:PROC
EXTRN	__stdio_common_vsprintf:PROC
EXTRN	memchr:PROC
EXTRN	memcpy:PROC
EXTRN	memmove:PROC
EXTRN	memset:PROC
EXTRN	strcmp:PROC
EXTRN	strlen:PROC
EXTRN	strncpy:PROC
EXTRN	free:PROC
EXTRN	malloc:PROC
EXTRN	fabs:PROC
EXTRN	fmodf:PROC
EXTRN	qsort:PROC
EXTRN	toupper:PROC
EXTRN	__imp_GlobalAlloc:PROC
EXTRN	__imp_GlobalUnlock:PROC
EXTRN	__imp_GlobalLock:PROC
EXTRN	__imp_GlobalFree:PROC
EXTRN	__imp_OpenClipboard:PROC
EXTRN	__imp_CloseClipboard:PROC
EXTRN	__imp_SetClipboardData:PROC
EXTRN	__imp_GetClipboardData:PROC
EXTRN	__imp_EmptyClipboard:PROC
EXTRN	ImmGetContext:PROC
EXTRN	ImmReleaseContext:PROC
EXTRN	ImmSetCompositionWindow:PROC
EXTRN	__imp_WSAStartup:PROC
EXTRN	__imp_WSACleanup:PROC
EXTRN	OPENSSL_init_ssl:PROC
EXTRN	?StyleColorsDark@ImGui@@YAXPEAUImGuiStyle@@@Z:PROC ; ImGui::StyleColorsDark
EXTRN	?Separator@ImGui@@YAXXZ:PROC			; ImGui::Separator
EXTRN	?Text@ImGui@@YAXPEBDZZ:PROC			; ImGui::Text
EXTRN	?TextV@ImGui@@YAXPEBDPEAD@Z:PROC		; ImGui::TextV
EXTRN	?TextColored@ImGui@@YAXAEBUImVec4@@PEBDZZ:PROC	; ImGui::TextColored
EXTRN	?BulletText@ImGui@@YAXPEBDZZ:PROC		; ImGui::BulletText
EXTRN	?SmallButton@ImGui@@YA_NPEBD@Z:PROC		; ImGui::SmallButton
EXTRN	?Checkbox@ImGui@@YA_NPEBDPEA_N@Z:PROC		; ImGui::Checkbox
EXTRN	?InputText@ImGui@@YA_NPEBDPEAD_KHP6AHPEAUImGuiInputTextCallbackData@@@ZPEAX@Z:PROC ; ImGui::InputText
EXTRN	?TreeNode@ImGui@@YA_NPEBD@Z:PROC		; ImGui::TreeNode
EXTRN	?TreeNode@ImGui@@YA_NPEBD0ZZ:PROC		; ImGui::TreeNode
EXTRN	?TreeNode@ImGui@@YA_NPEBXPEBDZZ:PROC		; ImGui::TreeNode
EXTRN	?TreePop@ImGui@@YAXXZ:PROC			; ImGui::TreePop
EXTRN	?Selectable@ImGui@@YA_NPEBD_NHAEBUImVec2@@@Z:PROC ; ImGui::Selectable
EXTRN	?PushClipRect@ImDrawList@@QEAAXUImVec2@@0_N@Z:PROC ; ImDrawList::PushClipRect
EXTRN	?PushClipRectFullScreen@ImDrawList@@QEAAXXZ:PROC ; ImDrawList::PushClipRectFullScreen
EXTRN	?PopClipRect@ImDrawList@@QEAAXXZ:PROC		; ImDrawList::PopClipRect
EXTRN	?PushTextureID@ImDrawList@@QEAAXPEAX@Z:PROC	; ImDrawList::PushTextureID
EXTRN	?PopTextureID@ImDrawList@@QEAAXXZ:PROC		; ImDrawList::PopTextureID
EXTRN	?AddLine@ImDrawList@@QEAAXAEBUImVec2@@0IM@Z:PROC ; ImDrawList::AddLine
EXTRN	?AddRect@ImDrawList@@QEAAXAEBUImVec2@@0IMHM@Z:PROC ; ImDrawList::AddRect
EXTRN	?AddRectFilled@ImDrawList@@QEAAXAEBUImVec2@@0IMH@Z:PROC ; ImDrawList::AddRectFilled
EXTRN	?AddTriangleFilled@ImDrawList@@QEAAXAEBUImVec2@@00I@Z:PROC ; ImDrawList::AddTriangleFilled
EXTRN	?AddCircleFilled@ImDrawList@@QEAAXAEBUImVec2@@MIH@Z:PROC ; ImDrawList::AddCircleFilled
EXTRN	?AddText@ImDrawList@@QEAAXPEBUImFont@@MAEBUImVec2@@IPEBD2MPEBUImVec4@@@Z:PROC ; ImDrawList::AddText
EXTRN	?AddPolyline@ImDrawList@@QEAAXPEBUImVec2@@HI_NM@Z:PROC ; ImDrawList::AddPolyline
EXTRN	?AddConvexPolyFilled@ImDrawList@@QEAAXPEBUImVec2@@HI@Z:PROC ; ImDrawList::AddConvexPolyFilled
EXTRN	?PathArcTo@ImDrawList@@QEAAXAEBUImVec2@@MMMH@Z:PROC ; ImDrawList::PathArcTo
EXTRN	?PathArcToFast@ImDrawList@@QEAAXAEBUImVec2@@MHH@Z:PROC ; ImDrawList::PathArcToFast
EXTRN	?ChannelsSplit@ImDrawList@@QEAAXH@Z:PROC	; ImDrawList::ChannelsSplit
EXTRN	?ChannelsMerge@ImDrawList@@QEAAXXZ:PROC		; ImDrawList::ChannelsMerge
EXTRN	?ChannelsSetCurrent@ImDrawList@@QEAAXH@Z:PROC	; ImDrawList::ChannelsSetCurrent
EXTRN	?Clear@ImDrawList@@QEAAXXZ:PROC			; ImDrawList::Clear
EXTRN	?ClearFreeMemory@ImDrawList@@QEAAXXZ:PROC	; ImDrawList::ClearFreeMemory
EXTRN	??0ImFontAtlas@@QEAA@XZ:PROC			; ImFontAtlas::ImFontAtlas
EXTRN	??1ImFontAtlas@@QEAA@XZ:PROC			; ImFontAtlas::~ImFontAtlas
EXTRN	??0ImFont@@QEAA@XZ:PROC				; ImFont::ImFont
EXTRN	??1ImFont@@QEAA@XZ:PROC				; ImFont::~ImFont
EXTRN	?CalcTextSizeA@ImFont@@QEBA?AUImVec2@@MMMPEBD0PEAPEBD@Z:PROC ; ImFont::CalcTextSizeA
EXTRN	??0ImGuiMenuColumns@@QEAA@XZ:PROC		; ImGuiMenuColumns::ImGuiMenuColumns
EXTRN	?Update@ImGuiMenuColumns@@QEAAXHM_N@Z:PROC	; ImGuiMenuColumns::Update
EXTRN	??0ImDrawListSharedData@@QEAA@XZ:PROC		; ImDrawListSharedData::ImDrawListSharedData
EXTRN	?TabBarQueueChangeTabOrder@ImGui@@YAXPEAUImGuiTabBar@@PEBUImGuiTabItem@@H@Z:PROC ; ImGui::TabBarQueueChangeTabOrder
EXTRN	?RenderMouseCursor@ImGui@@YAXPEAUImDrawList@@UImVec2@@MH@Z:PROC ; ImGui::RenderMouseCursor
EXTRN	?CloseButton@ImGui@@YA_NIAEBUImVec2@@M@Z:PROC	; ImGui::CloseButton
EXTRN	?CollapseButton@ImGui@@YA_NIAEBUImVec2@@@Z:PROC	; ImGui::CollapseButton
EXTRN	?Scrollbar@ImGui@@YAXW4ImGuiAxis@@@Z:PROC	; ImGui::Scrollbar
EXTRN	?ButtonBehavior@ImGui@@YA_NAEBUImRect@@IPEA_N1H@Z:PROC ; ImGui::ButtonBehavior
EXTRN	__CxxFrameHandler4:PROC
EXTRN	__GSHandlerCheck:PROC
EXTRN	__GSHandlerCheck_EH4:PROC
EXTRN	__security_check_cookie:PROC
EXTRN	_Init_thread_epoch:DWORD
EXTRN	__ImageBase:BYTE
EXTRN	__security_cookie:QWORD
EXTRN	_fltused:DWORD
EXTRN	_tls_index:DWORD
;	COMDAT ?_OptionsStorage@?1??__local_stdio_printf_options@@9@4_KA
_BSS	SEGMENT
?_OptionsStorage@?1??__local_stdio_printf_options@@9@4_KA DQ 01H DUP (?) ; `__local_stdio_printf_options'::`2'::_OptionsStorage
_BSS	ENDS
_BSS	SEGMENT
?wsinit_@detail@httplib@@3VWSInit@12@A DB 01H DUP (?)	; httplib::detail::wsinit_
	ALIGN	4

?sslinit_@detail@httplib@@3VSSLInit@12@A DB 01H DUP (?)	; httplib::detail::sslinit_
	ALIGN	8

?XYZMask@Math@Core@IronMan@@3T__m128@@B DB 010H DUP (?)	; IronMan::Core::Math::XYZMask
?QINV_SIGN_MASK@Math@Core@IronMan@@3T__m128@@B DB 010H DUP (?) ; IronMan::Core::Math::QINV_SIGN_MASK
?GImAllocatorUserData@@3PEAXEA DQ 01H DUP (?)		; GImAllocatorUserData
?resize_grip_def@@3QBUImGuiResizeGripDef@@B DB 060H DUP (?) ; resize_grip_def
_BSS	ENDS
;	COMDAT ?resize_border_def@?6??RenderOuterBorders@ImGui@@YAXPEAUImGuiWindow@@@Z@4QBUImGuiResizeBorderDef@?6??12@YAX0@Z@B
_BSS	SEGMENT
?resize_border_def@?6??RenderOuterBorders@ImGui@@YAXPEAUImGuiWindow@@@Z@4QBUImGuiResizeBorderDef@?6??12@YAX0@Z@B DB 070H DUP (?) ; `ImGui::RenderOuterBorders'::`7'::resize_border_def
_BSS	ENDS
;	COMDAT ?$TSS0@?6??RenderOuterBorders@ImGui@@YAXPEAUImGuiWindow@@@Z@4HA
_BSS	SEGMENT
?$TSS0@?6??RenderOuterBorders@ImGui@@YAXPEAUImGuiWindow@@@Z@4HA DD 01H DUP (?) ; `ImGui::RenderOuterBorders'::`7'::$TSS0
_BSS	ENDS
;	COMDAT ?buf_local@?1??GetClipboardTextFn_DefaultImpl@@YAPEBDPEAX@Z@4U?$ImVector@D@@A
_BSS	SEGMENT
?buf_local@?1??GetClipboardTextFn_DefaultImpl@@YAPEBDPEAX@Z@4U?$ImVector@D@@A DB 010H DUP (?) ; `GetClipboardTextFn_DefaultImpl'::`2'::buf_local
_BSS	ENDS
;	COMDAT ?$TSS0@?1??GetClipboardTextFn_DefaultImpl@@YAPEBDPEAX@Z@4HA
_BSS	SEGMENT
?$TSS0@?1??GetClipboardTextFn_DefaultImpl@@YAPEBDPEAX@Z@4HA DD 01H DUP (?) ; `GetClipboardTextFn_DefaultImpl'::`2'::$TSS0
_BSS	ENDS
;	COMDAT ?show_window_begin_order@?1??ShowMetricsWindow@ImGui@@YAXPEA_N@Z@4_NA
_BSS	SEGMENT
?show_window_begin_order@?1??ShowMetricsWindow@ImGui@@YAXPEA_N@Z@4_NA DB 01H DUP (?) ; `ImGui::ShowMetricsWindow'::`2'::show_window_begin_order
_BSS	ENDS
;	COMDAT ?id@?$num_put@DV?$ostreambuf_iterator@DU?$char_traits@D@std@@@std@@@std@@2V0locale@2@A
_BSS	SEGMENT
?id@?$num_put@DV?$ostreambuf_iterator@DU?$char_traits@D@std@@@std@@@std@@2V0locale@2@A DQ 01H DUP (?) ; std::num_put<char,std::ostreambuf_iterator<char,std::char_traits<char> > >::id
_BSS	ENDS
;	COMDAT ?id@?$codecvt@DDU_Mbstatet@@@std@@2V0locale@2@A
_BSS	SEGMENT
?id@?$codecvt@DDU_Mbstatet@@@std@@2V0locale@2@A DQ 01H DUP (?) ; std::codecvt<char,char,_Mbstatet>::id
_BSS	ENDS
;	COMDAT ?id@?$numpunct@D@std@@2V0locale@2@A
_BSS	SEGMENT
?id@?$numpunct@D@std@@2V0locale@2@A DQ 01H DUP (?)	; std::numpunct<char>::id
_BSS	ENDS
;	COMDAT ?id@?$collate@D@std@@2V0locale@2@A
_BSS	SEGMENT
?id@?$collate@D@std@@2V0locale@2@A DQ 01H DUP (?)	; std::collate<char>::id
_BSS	ENDS
;	COMDAT pdata
pdata	SEGMENT
$pdata$??_H@YAXPEAX_K1P6APEAX0@Z@Z DD imagerel $LN5
	DD	imagerel $LN5+102
	DD	imagerel $unwind$??_H@YAXPEAX_K1P6APEAX0@Z@Z
pdata	ENDS
;	COMDAT pdata
pdata	SEGMENT
$pdata$_vsnprintf_l DD imagerel $LN5
	DD	imagerel $LN5+117
	DD	imagerel $unwind$_vsnprintf_l
pdata	ENDS
;	COMDAT pdata
pdata	SEGMENT
$pdata$_vsnprintf DD imagerel $LN3
	DD	imagerel $LN3+62
	DD	imagerel $unwind$_vsnprintf
pdata	ENDS
;	COMDAT pdata
pdata	SEGMENT
$pdata$fabsf DD	imagerel $LN3
	DD	imagerel $LN3+30
	DD	imagerel $unwind$fabsf
pdata	ENDS
;	COMDAT pdata
pdata	SEGMENT
$pdata$?hash_@@YA?B_KPEBD@Z DD imagerel $LN5
	DD	imagerel $LN5+107
	DD	imagerel $unwind$?hash_@@YA?B_KPEBD@Z
pdata	ENDS
;	COMDAT pdata
pdata	SEGMENT
$pdata$??0WSInit@detail@httplib@@QEAA@XZ DD imagerel $LN4
	DD	imagerel $LN4+103
	DD	imagerel $unwind$??0WSInit@detail@httplib@@QEAA@XZ
pdata	ENDS
;	COMDAT pdata
pdata	SEGMENT
$pdata$??1WSInit@detail@httplib@@QEAA@XZ DD imagerel $LN4
	DD	imagerel $LN4+33
	DD	imagerel $unwind$??1WSInit@detail@httplib@@QEAA@XZ
pdata	ENDS
;	COMDAT pdata
pdata	SEGMENT
$pdata$??__Ewsinit_@detail@httplib@@YAXXZ DD imagerel ??__Ewsinit_@detail@httplib@@YAXXZ
	DD	imagerel ??__Ewsinit_@detail@httplib@@YAXXZ+34
	DD	imagerel $unwind$??__Ewsinit_@detail@httplib@@YAXXZ
pdata	ENDS
;	COMDAT pdata
pdata	SEGMENT
$pdata$??__Fwsinit_@detail@httplib@@YAXXZ DD imagerel ??__Fwsinit_@detail@httplib@@YAXXZ
	DD	imagerel ??__Fwsinit_@detail@httplib@@YAXXZ+22
	DD	imagerel $unwind$??__Fwsinit_@detail@httplib@@YAXXZ
pdata	ENDS
;	COMDAT pdata
pdata	SEGMENT
$pdata$??0SSLInit@detail@httplib@@QEAA@XZ DD imagerel $LN3
	DD	imagerel $LN3+32
	DD	imagerel $unwind$??0SSLInit@detail@httplib@@QEAA@XZ
pdata	ENDS
;	COMDAT pdata
pdata	SEGMENT
$pdata$??__Esslinit_@detail@httplib@@YAXXZ DD imagerel ??__Esslinit_@detail@httplib@@YAXXZ
	DD	imagerel ??__Esslinit_@detail@httplib@@YAXXZ+22
	DD	imagerel $unwind$??__Esslinit_@detail@httplib@@YAXXZ
pdata	ENDS
;	COMDAT pdata
pdata	SEGMENT
$pdata$?MakeVectorRegister@Math@Core@IronMan@@YA?AT__m128@@IIII@Z DD imagerel $LN3
	DD	imagerel $LN3+116
	DD	imagerel $unwind$?MakeVectorRegister@Math@Core@IronMan@@YA?AT__m128@@IIII@Z
pdata	ENDS
;	COMDAT pdata
pdata	SEGMENT
$pdata$?MakeVectorRegister@Math@Core@IronMan@@YA?AT__m128@@MMMM@Z DD imagerel $LN3
	DD	imagerel $LN3+77
	DD	imagerel $unwind$?MakeVectorRegister@Math@Core@IronMan@@YA?AT__m128@@MMMM@Z
pdata	ENDS
;	COMDAT pdata
pdata	SEGMENT
$pdata$??__EXYZMask@Math@Core@IronMan@@YAXXZ DD imagerel ??__EXYZMask@Math@Core@IronMan@@YAXXZ
	DD	imagerel ??__EXYZMask@Math@Core@IronMan@@YAXXZ+40
	DD	imagerel $unwind$??__EXYZMask@Math@Core@IronMan@@YAXXZ
pdata	ENDS
;	COMDAT pdata
pdata	SEGMENT
$pdata$??__EQINV_SIGN_MASK@Math@Core@IronMan@@YAXXZ DD imagerel ??__EQINV_SIGN_MASK@Math@Core@IronMan@@YAXXZ
	DD	imagerel ??__EQINV_SIGN_MASK@Math@Core@IronMan@@YAXXZ+53
	DD	imagerel $unwind$??__EQINV_SIGN_MASK@Math@Core@IronMan@@YAXXZ
pdata	ENDS
pdata	SEGMENT
$pdata$?CreateContext@ImGui@@YAPEAUImGuiContext@@PEAUImFontAtlas@@@Z DD imagerel $LN7
	DD	imagerel $LN7+162
	DD	imagerel $unwind$?CreateContext@ImGui@@YAPEAUImGuiContext@@PEAUImFontAtlas@@@Z
pdata	ENDS
pdata	SEGMENT
$pdata$?dtor$0@?0??CreateContext@ImGui@@YAPEAUImGuiContext@@PEAUImFontAtlas@@@Z@4HA DD imagerel ?dtor$0@?0??CreateContext@ImGui@@YAPEAUImGuiContext@@PEAUImFontAtlas@@@Z@4HA
	DD	imagerel ?dtor$0@?0??CreateContext@ImGui@@YAPEAUImGuiContext@@PEAUImFontAtlas@@@Z@4HA+35
	DD	imagerel $unwind$?dtor$0@?0??CreateContext@ImGui@@YAPEAUImGuiContext@@PEAUImFontAtlas@@@Z@4HA
pdata	ENDS
pdata	SEGMENT
$pdata$?DestroyContext@ImGui@@YAXPEAUImGuiContext@@@Z DD imagerel $LN5
	DD	imagerel $LN5+78
	DD	imagerel $unwind$?DestroyContext@ImGui@@YAXPEAUImGuiContext@@@Z
$pdata$?DebugCheckVersionAndDataLayout@ImGui@@YA_NPEBD_K1111@Z DD imagerel $LN11
	DD	imagerel $LN11+163
	DD	imagerel $unwind$?DebugCheckVersionAndDataLayout@ImGui@@YA_NPEBD_K1111@Z
$pdata$?NewFrame@ImGui@@YAXXZ DD imagerel $LN44
	DD	imagerel $LN44+2622
	DD	imagerel $unwind$?NewFrame@ImGui@@YAXXZ
$pdata$?EndFrame@ImGui@@YAXXZ DD imagerel $LN24
	DD	imagerel $LN24+974
	DD	imagerel $unwind$?EndFrame@ImGui@@YAXXZ
$pdata$?Render@ImGui@@YAXXZ DD imagerel $LN19
	DD	imagerel $LN19+854
	DD	imagerel $unwind$?Render@ImGui@@YAXXZ
$pdata$?GetDrawData@ImGui@@YAPEAUImDrawData@@XZ DD imagerel $LN5
	DD	imagerel $LN5+66
	DD	imagerel $unwind$?GetDrawData@ImGui@@YAPEAUImDrawData@@XZ
$pdata$?ShowMetricsWindow@ImGui@@YAXPEA_N@Z DD imagerel $LN41
	DD	imagerel $LN41+2466
	DD	imagerel $unwind$?ShowMetricsWindow@ImGui@@YAXPEA_N@Z
$pdata$?Begin@ImGui@@YA_NPEBDPEA_NH@Z DD imagerel $LN251
	DD	imagerel $LN251+16053
	DD	imagerel $unwind$?Begin@ImGui@@YA_NPEBDPEA_NH@Z
$pdata$?End@ImGui@@YAXXZ DD imagerel $LN8
	DD	imagerel $LN8+239
	DD	imagerel $unwind$?End@ImGui@@YAXXZ
$pdata$?BeginChild@ImGui@@YA_NPEBDAEBUImVec2@@_NH@Z DD imagerel $LN3
	DD	imagerel $LN3+88
	DD	imagerel $unwind$?BeginChild@ImGui@@YA_NPEBDAEBUImVec2@@_NH@Z
$pdata$?BeginChild@ImGui@@YA_NIAEBUImVec2@@_NH@Z DD imagerel $LN3
	DD	imagerel $LN3+58
	DD	imagerel $unwind$?BeginChild@ImGui@@YA_NIAEBUImVec2@@_NH@Z
$pdata$?EndChild@ImGui@@YAXXZ DD imagerel $LN11
	DD	imagerel $LN11+596
	DD	imagerel $unwind$?EndChild@ImGui@@YAXXZ
$pdata$?IsWindowAppearing@ImGui@@YA_NXZ DD imagerel $LN3
	DD	imagerel $LN3+31
	DD	imagerel $unwind$?IsWindowAppearing@ImGui@@YA_NXZ
$pdata$?IsWindowCollapsed@ImGui@@YA_NXZ DD imagerel $LN3
	DD	imagerel $LN3+28
	DD	imagerel $unwind$?IsWindowCollapsed@ImGui@@YA_NXZ
$pdata$?IsWindowFocused@ImGui@@YA_NH@Z DD imagerel $LN20
	DD	imagerel $LN20+386
	DD	imagerel $unwind$?IsWindowFocused@ImGui@@YA_NH@Z
$pdata$?IsWindowHovered@ImGui@@YA_NH@Z DD imagerel $LN20
	DD	imagerel $LN20+384
	DD	imagerel $unwind$?IsWindowHovered@ImGui@@YA_NH@Z
$pdata$?GetWindowDrawList@ImGui@@YAPEAUImDrawList@@XZ DD imagerel $LN3
	DD	imagerel $LN3+31
	DD	imagerel $unwind$?GetWindowDrawList@ImGui@@YAPEAUImDrawList@@XZ
$pdata$?GetWindowPos@ImGui@@YA?AUImVec2@@XZ DD imagerel $LN3
	DD	imagerel $LN3+63
	DD	imagerel $unwind$?GetWindowPos@ImGui@@YA?AUImVec2@@XZ
$pdata$?GetWindowSize@ImGui@@YA?AUImVec2@@XZ DD imagerel $LN3
	DD	imagerel $LN3+45
	DD	imagerel $unwind$?GetWindowSize@ImGui@@YA?AUImVec2@@XZ
$pdata$?GetWindowWidth@ImGui@@YAMXZ DD imagerel $LN3
	DD	imagerel $LN3+35
	DD	imagerel $unwind$?GetWindowWidth@ImGui@@YAMXZ
$pdata$?GetWindowHeight@ImGui@@YAMXZ DD imagerel $LN3
	DD	imagerel $LN3+36
	DD	imagerel $unwind$?GetWindowHeight@ImGui@@YAMXZ
$pdata$?GetContentRegionMax@ImGui@@YA?AUImVec2@@XZ DD imagerel $LN4
	DD	imagerel $LN4+135
	DD	imagerel $unwind$?GetContentRegionMax@ImGui@@YA?AUImVec2@@XZ
$pdata$?GetContentRegionAvail@ImGui@@YA?AUImVec2@@XZ DD imagerel $LN3
	DD	imagerel $LN3+107
	DD	imagerel $unwind$?GetContentRegionAvail@ImGui@@YA?AUImVec2@@XZ
$pdata$?GetContentRegionAvailWidth@ImGui@@YAMXZ DD imagerel $LN3
	DD	imagerel $LN3+23
	DD	imagerel $unwind$?GetContentRegionAvailWidth@ImGui@@YAMXZ
$pdata$?GetWindowContentRegionMin@ImGui@@YA?AUImVec2@@XZ DD imagerel $LN3
	DD	imagerel $LN3+66
	DD	imagerel $unwind$?GetWindowContentRegionMin@ImGui@@YA?AUImVec2@@XZ
$pdata$?GetWindowContentRegionMax@ImGui@@YA?AUImVec2@@XZ DD imagerel $LN3
	DD	imagerel $LN3+66
	DD	imagerel $unwind$?GetWindowContentRegionMax@ImGui@@YA?AUImVec2@@XZ
$pdata$?GetWindowContentRegionWidth@ImGui@@YAMXZ DD imagerel $LN3
	DD	imagerel $LN3+38
	DD	imagerel $unwind$?GetWindowContentRegionWidth@ImGui@@YAMXZ
$pdata$?GetNextWindowPos@ImGui@@YA?AUImVec2@@XZ DD imagerel $LN3
	DD	imagerel $LN3+53
	DD	imagerel $unwind$?GetNextWindowPos@ImGui@@YA?AUImVec2@@XZ
$pdata$?SetNextWindowPos@ImGui@@YAXAEBUImVec2@@H0@Z DD imagerel $LN5
	DD	imagerel $LN5+112
	DD	imagerel $unwind$?SetNextWindowPos@ImGui@@YAXAEBUImVec2@@H0@Z
$pdata$?SetNextWindowSize@ImGui@@YAXAEBUImVec2@@H@Z DD imagerel $LN5
	DD	imagerel $LN5+87
	DD	imagerel $unwind$?SetNextWindowSize@ImGui@@YAXAEBUImVec2@@H@Z
$pdata$?SetNextWindowSizeConstraints@ImGui@@YAXAEBUImVec2@@0P6AXPEAUImGuiSizeCallbackData@@@ZPEAX@Z DD imagerel $LN3
	DD	imagerel $LN3+136
	DD	imagerel $unwind$?SetNextWindowSizeConstraints@ImGui@@YAXAEBUImVec2@@0P6AXPEAUImGuiSizeCallbackData@@@ZPEAX@Z
$pdata$?SetNextWindowContentSize@ImGui@@YAXAEBUImVec2@@@Z DD imagerel $LN3
	DD	imagerel $LN3+58
	DD	imagerel $unwind$?SetNextWindowContentSize@ImGui@@YAXAEBUImVec2@@@Z
$pdata$?SetNextWindowCollapsed@ImGui@@YAX_NH@Z DD imagerel $LN5
	DD	imagerel $LN5+82
	DD	imagerel $unwind$?SetNextWindowCollapsed@ImGui@@YAX_NH@Z
$pdata$?SetNextWindowFocus@ImGui@@YAXXZ DD imagerel $LN3
	DD	imagerel $LN3+34
	DD	imagerel $unwind$?SetNextWindowFocus@ImGui@@YAXXZ
$pdata$?SetNextWindowBgAlpha@ImGui@@YAXM@Z DD imagerel $LN3
	DD	imagerel $LN3+58
	DD	imagerel $unwind$?SetNextWindowBgAlpha@ImGui@@YAXM@Z
$pdata$?SetWindowPos@ImGui@@YAXAEBUImVec2@@H@Z DD imagerel $LN3
	DD	imagerel $LN3+49
	DD	imagerel $unwind$?SetWindowPos@ImGui@@YAXAEBUImVec2@@H@Z
$pdata$?SetWindowSize@ImGui@@YAXAEBUImVec2@@H@Z DD imagerel $LN3
	DD	imagerel $LN3+48
	DD	imagerel $unwind$?SetWindowSize@ImGui@@YAXAEBUImVec2@@H@Z
$pdata$?SetWindowCollapsed@ImGui@@YAX_NH@Z DD imagerel $LN3
	DD	imagerel $LN3+47
	DD	imagerel $unwind$?SetWindowCollapsed@ImGui@@YAX_NH@Z
$pdata$?SetWindowFocus@ImGui@@YAXXZ DD imagerel $LN3
	DD	imagerel $LN3+29
	DD	imagerel $unwind$?SetWindowFocus@ImGui@@YAXXZ
$pdata$?SetWindowFontScale@ImGui@@YAXM@Z DD imagerel $LN3
	DD	imagerel $LN3+110
	DD	imagerel $unwind$?SetWindowFontScale@ImGui@@YAXM@Z
$pdata$?SetWindowPos@ImGui@@YAXPEBDAEBUImVec2@@H@Z DD imagerel $LN4
	DD	imagerel $LN4+68
	DD	imagerel $unwind$?SetWindowPos@ImGui@@YAXPEBDAEBUImVec2@@H@Z
$pdata$?SetWindowSize@ImGui@@YAXPEBDAEBUImVec2@@H@Z DD imagerel $LN4
	DD	imagerel $LN4+68
	DD	imagerel $unwind$?SetWindowSize@ImGui@@YAXPEBDAEBUImVec2@@H@Z
$pdata$?SetWindowCollapsed@ImGui@@YAXPEBD_NH@Z DD imagerel $LN4
	DD	imagerel $LN4+67
	DD	imagerel $unwind$?SetWindowCollapsed@ImGui@@YAXPEBD_NH@Z
$pdata$?SetWindowFocus@ImGui@@YAXPEBD@Z DD imagerel $LN6
	DD	imagerel $LN6+66
	DD	imagerel $unwind$?SetWindowFocus@ImGui@@YAXPEBD@Z
$pdata$?GetScrollMaxX@ImGui@@YAMXZ DD imagerel $LN3
	DD	imagerel $LN3+28
	DD	imagerel $unwind$?GetScrollMaxX@ImGui@@YAMXZ
$pdata$?GetScrollMaxY@ImGui@@YAMXZ DD imagerel $LN3
	DD	imagerel $LN3+28
	DD	imagerel $unwind$?GetScrollMaxY@ImGui@@YAMXZ
$pdata$?SetScrollX@ImGui@@YAXM@Z DD imagerel $LN3
	DD	imagerel $LN3+54
	DD	imagerel $unwind$?SetScrollX@ImGui@@YAXM@Z
$pdata$?SetScrollY@ImGui@@YAXM@Z DD imagerel $LN3
	DD	imagerel $LN3+100
	DD	imagerel $unwind$?SetScrollY@ImGui@@YAXM@Z
$pdata$?SetScrollHereY@ImGui@@YAXM@Z DD imagerel $LN3
	DD	imagerel $LN3+158
	DD	imagerel $unwind$?SetScrollHereY@ImGui@@YAXM@Z
$pdata$?SetScrollFromPosY@ImGui@@YAXMM@Z DD imagerel $LN3
	DD	imagerel $LN3+81
	DD	imagerel $unwind$?SetScrollFromPosY@ImGui@@YAXMM@Z
$pdata$?PushFont@ImGui@@YAXPEAUImFont@@@Z DD imagerel $LN4
	DD	imagerel $LN4+133
	DD	imagerel $unwind$?PushFont@ImGui@@YAXPEAUImFont@@@Z
$pdata$?PopFont@ImGui@@YAXXZ DD imagerel $LN5
	DD	imagerel $LN5+140
	DD	imagerel $unwind$?PopFont@ImGui@@YAXXZ
$pdata$?PushStyleColor@ImGui@@YAXHI@Z DD imagerel $LN3
	DD	imagerel $LN3+178
	DD	imagerel $unwind$?PushStyleColor@ImGui@@YAXHI@Z
$pdata$?PushStyleColor@ImGui@@YAXHAEBUImVec4@@@Z DD imagerel $LN3
	DD	imagerel $LN3+154
	DD	imagerel $unwind$?PushStyleColor@ImGui@@YAXHAEBUImVec4@@@Z
$pdata$?PopStyleColor@ImGui@@YAXH@Z DD imagerel $LN5
	DD	imagerel $LN5+132
	DD	imagerel $unwind$?PopStyleColor@ImGui@@YAXH@Z
$pdata$?PushStyleVar@ImGui@@YAXHM@Z DD imagerel $LN4
	DD	imagerel $LN4+163
	DD	imagerel $unwind$?PushStyleVar@ImGui@@YAXHM@Z
$pdata$?PushStyleVar@ImGui@@YAXHAEBUImVec2@@@Z DD imagerel $LN4
	DD	imagerel $LN4+162
	DD	imagerel $unwind$?PushStyleVar@ImGui@@YAXHAEBUImVec2@@@Z
$pdata$?PopStyleVar@ImGui@@YAXH@Z DD imagerel $LN8
	DD	imagerel $LN8+304
	DD	imagerel $unwind$?PopStyleVar@ImGui@@YAXH@Z
$pdata$?GetStyleColorVec4@ImGui@@YAAEBUImVec4@@H@Z DD imagerel $LN3
	DD	imagerel $LN3+51
	DD	imagerel $unwind$?GetStyleColorVec4@ImGui@@YAAEBUImVec4@@H@Z
$pdata$?GetColorU32@ImGui@@YAIHM@Z DD imagerel $LN3
	DD	imagerel $LN3+122
	DD	imagerel $unwind$?GetColorU32@ImGui@@YAIHM@Z
$pdata$?GetColorU32@ImGui@@YAIAEBUImVec4@@@Z DD imagerel $LN3
	DD	imagerel $LN3+87
	DD	imagerel $unwind$?GetColorU32@ImGui@@YAIAEBUImVec4@@@Z
$pdata$?GetColorU32@ImGui@@YAIQEAM@Z DD imagerel $LN3
	DD	imagerel $LN3+157
	DD	imagerel $unwind$?GetColorU32@ImGui@@YAIQEAM@Z
$pdata$?GetColorU32@ImGui@@YAII@Z DD imagerel $LN4
	DD	imagerel $LN4+109
	DD	imagerel $unwind$?GetColorU32@ImGui@@YAII@Z
$pdata$?PushItemWidth@ImGui@@YAXM@Z DD imagerel $LN5
	DD	imagerel $LN5+135
	DD	imagerel $unwind$?PushItemWidth@ImGui@@YAXM@Z
$pdata$?PopItemWidth@ImGui@@YAXXZ DD imagerel $LN5
	DD	imagerel $LN5+133
	DD	imagerel $unwind$?PopItemWidth@ImGui@@YAXXZ
$pdata$?CalcItemWidth@ImGui@@YAMXZ DD imagerel $LN4
	DD	imagerel $LN4+124
	DD	imagerel $unwind$?CalcItemWidth@ImGui@@YAMXZ
$pdata$?PushTextWrapPos@ImGui@@YAXM@Z DD imagerel $LN3
	DD	imagerel $LN3+76
	DD	imagerel $unwind$?PushTextWrapPos@ImGui@@YAXM@Z
$pdata$?PopTextWrapPos@ImGui@@YAXXZ DD imagerel $LN5
	DD	imagerel $LN5+128
	DD	imagerel $unwind$?PopTextWrapPos@ImGui@@YAXXZ
$pdata$?PushAllowKeyboardFocus@ImGui@@YAX_N@Z DD imagerel $LN5
	DD	imagerel $LN5+50
	DD	imagerel $unwind$?PushAllowKeyboardFocus@ImGui@@YAX_N@Z
$pdata$?PopAllowKeyboardFocus@ImGui@@YAXXZ DD imagerel $LN3
	DD	imagerel $LN3+15
	DD	imagerel $unwind$?PopAllowKeyboardFocus@ImGui@@YAXXZ
$pdata$?PushButtonRepeat@ImGui@@YAX_N@Z DD imagerel $LN3
	DD	imagerel $LN3+29
	DD	imagerel $unwind$?PushButtonRepeat@ImGui@@YAX_N@Z
$pdata$?PopButtonRepeat@ImGui@@YAXXZ DD imagerel $LN3
	DD	imagerel $LN3+15
	DD	imagerel $unwind$?PopButtonRepeat@ImGui@@YAXXZ
$pdata$?SameLine@ImGui@@YAXMMM@Z DD imagerel $LN9
	DD	imagerel $LN9+351
	DD	imagerel $unwind$?SameLine@ImGui@@YAXMMM@Z
$pdata$?Indent@ImGui@@YAXM@Z DD imagerel $LN6
	DD	imagerel $LN6+168
	DD	imagerel $unwind$?Indent@ImGui@@YAXM@Z
$pdata$?Unindent@ImGui@@YAXM@Z DD imagerel $LN6
	DD	imagerel $LN6+168
	DD	imagerel $unwind$?Unindent@ImGui@@YAXM@Z
$pdata$?BeginGroup@ImGui@@YAXXZ DD imagerel $LN3
	DD	imagerel $LN3+450
	DD	imagerel $unwind$?BeginGroup@ImGui@@YAXXZ
$pdata$?EndGroup@ImGui@@YAXXZ DD imagerel $LN7
	DD	imagerel $LN7+586
	DD	imagerel $unwind$?EndGroup@ImGui@@YAXXZ
$pdata$?GetCursorPos@ImGui@@YA?AUImVec2@@XZ DD imagerel $LN3
	DD	imagerel $LN3+99
	DD	imagerel $unwind$?GetCursorPos@ImGui@@YA?AUImVec2@@XZ
$pdata$?GetCursorPosX@ImGui@@YAMXZ DD imagerel $LN3
	DD	imagerel $LN3+52
	DD	imagerel $unwind$?GetCursorPosX@ImGui@@YAMXZ
$pdata$?GetCursorPosY@ImGui@@YAMXZ DD imagerel $LN3
	DD	imagerel $LN3+52
	DD	imagerel $unwind$?GetCursorPosY@ImGui@@YAMXZ
$pdata$?SetCursorPos@ImGui@@YAXAEBUImVec2@@@Z DD imagerel $LN3
	DD	imagerel $LN3+145
	DD	imagerel $unwind$?SetCursorPos@ImGui@@YAXAEBUImVec2@@@Z
$pdata$?SetCursorPosX@ImGui@@YAXM@Z DD imagerel $LN3
	DD	imagerel $LN3+108
	DD	imagerel $unwind$?SetCursorPosX@ImGui@@YAXM@Z
$pdata$?SetCursorPosY@ImGui@@YAXM@Z DD imagerel $LN3
	DD	imagerel $LN3+108
	DD	imagerel $unwind$?SetCursorPosY@ImGui@@YAXM@Z
$pdata$?GetCursorStartPos@ImGui@@YA?AUImVec2@@XZ DD imagerel $LN3
	DD	imagerel $LN3+66
	DD	imagerel $unwind$?GetCursorStartPos@ImGui@@YA?AUImVec2@@XZ
$pdata$?GetCursorScreenPos@ImGui@@YA?AUImVec2@@XZ DD imagerel $LN3
	DD	imagerel $LN3+49
	DD	imagerel $unwind$?GetCursorScreenPos@ImGui@@YA?AUImVec2@@XZ
$pdata$?SetCursorScreenPos@ImGui@@YAXAEBUImVec2@@@Z DD imagerel $LN3
	DD	imagerel $LN3+98
	DD	imagerel $unwind$?SetCursorScreenPos@ImGui@@YAXAEBUImVec2@@@Z
$pdata$?GetTextLineHeight@ImGui@@YAMXZ DD imagerel $LN3
	DD	imagerel $LN3+32
	DD	imagerel $unwind$?GetTextLineHeight@ImGui@@YAMXZ
$pdata$?GetTextLineHeightWithSpacing@ImGui@@YAMXZ DD imagerel $LN3
	DD	imagerel $LN3+44
	DD	imagerel $unwind$?GetTextLineHeightWithSpacing@ImGui@@YAMXZ
$pdata$?GetFrameHeight@ImGui@@YAMXZ DD imagerel $LN3
	DD	imagerel $LN3+59
	DD	imagerel $unwind$?GetFrameHeight@ImGui@@YAMXZ
$pdata$?GetFrameHeightWithSpacing@ImGui@@YAMXZ DD imagerel $LN3
	DD	imagerel $LN3+71
	DD	imagerel $unwind$?GetFrameHeightWithSpacing@ImGui@@YAMXZ
$pdata$?PushID@ImGui@@YAXPEBD@Z DD imagerel $LN3
	DD	imagerel $LN3+87
	DD	imagerel $unwind$?PushID@ImGui@@YAXPEBD@Z
$pdata$?PushID@ImGui@@YAXPEBD0@Z DD imagerel $LN3
	DD	imagerel $LN3+94
	DD	imagerel $unwind$?PushID@ImGui@@YAXPEBD0@Z
$pdata$?PushID@ImGui@@YAXPEBX@Z DD imagerel $LN3
	DD	imagerel $LN3+84
	DD	imagerel $unwind$?PushID@ImGui@@YAXPEBX@Z
$pdata$?PushID@ImGui@@YAXH@Z DD imagerel $LN3
	DD	imagerel $LN3+93
	DD	imagerel $unwind$?PushID@ImGui@@YAXH@Z
$pdata$?PopID@ImGui@@YAXXZ DD imagerel $LN3
	DD	imagerel $LN3+48
	DD	imagerel $unwind$?PopID@ImGui@@YAXXZ
$pdata$?GetID@ImGui@@YAIPEBD@Z DD imagerel $LN3
	DD	imagerel $LN3+51
	DD	imagerel $unwind$?GetID@ImGui@@YAIPEBD@Z
$pdata$?GetID@ImGui@@YAIPEBD0@Z DD imagerel $LN3
	DD	imagerel $LN3+58
	DD	imagerel $unwind$?GetID@ImGui@@YAIPEBD0@Z
$pdata$?GetID@ImGui@@YAIPEBX@Z DD imagerel $LN3
	DD	imagerel $LN3+48
	DD	imagerel $unwind$?GetID@ImGui@@YAIPEBX@Z
$pdata$?BeginTooltip@ImGui@@YAXXZ DD imagerel $LN5
	DD	imagerel $LN5+215
	DD	imagerel $unwind$?BeginTooltip@ImGui@@YAXXZ
$pdata$?EndTooltip@ImGui@@YAXXZ DD imagerel $LN3
	DD	imagerel $LN3+15
	DD	imagerel $unwind$?EndTooltip@ImGui@@YAXXZ
$pdata$?SetTooltip@ImGui@@YAXPEBDZZ DD imagerel $LN3
	DD	imagerel $LN3+63
	DD	imagerel $unwind$?SetTooltip@ImGui@@YAXPEBDZZ
$pdata$?SetTooltipV@ImGui@@YAXPEBDPEAD@Z DD imagerel $LN5
	DD	imagerel $LN5+86
	DD	imagerel $unwind$?SetTooltipV@ImGui@@YAXPEBDPEAD@Z
$pdata$?OpenPopup@ImGui@@YAXPEBD@Z DD imagerel $LN3
	DD	imagerel $LN3+69
	DD	imagerel $unwind$?OpenPopup@ImGui@@YAXPEBD@Z
$pdata$?BeginPopup@ImGui@@YA_NPEBDH@Z DD imagerel $LN4
	DD	imagerel $LN4+134
	DD	imagerel $unwind$?BeginPopup@ImGui@@YA_NPEBDH@Z
$pdata$?BeginPopupContextItem@ImGui@@YA_NPEBDH@Z DD imagerel $LN6
	DD	imagerel $LN6+149
	DD	imagerel $unwind$?BeginPopupContextItem@ImGui@@YA_NPEBDH@Z
$pdata$?BeginPopupContextWindow@ImGui@@YA_NPEBDH_N@Z DD imagerel $LN7
	DD	imagerel $LN7+162
	DD	imagerel $unwind$?BeginPopupContextWindow@ImGui@@YA_NPEBDH_N@Z
$pdata$?BeginPopupContextVoid@ImGui@@YA_NPEBDH@Z DD imagerel $LN5
	DD	imagerel $LN5+136
	DD	imagerel $unwind$?BeginPopupContextVoid@ImGui@@YA_NPEBDH@Z
$pdata$?BeginPopupModal@ImGui@@YA_NPEBDPEA_NH@Z DD imagerel $LN8
	DD	imagerel $LN8+336
	DD	imagerel $unwind$?BeginPopupModal@ImGui@@YA_NPEBDPEA_NH@Z
$pdata$?EndPopup@ImGui@@YAXXZ DD imagerel $LN3
	DD	imagerel $LN3+49
	DD	imagerel $unwind$?EndPopup@ImGui@@YAXXZ
$pdata$?OpenPopupOnItemClick@ImGui@@YA_NPEBDH@Z DD imagerel $LN6
	DD	imagerel $LN6+140
	DD	imagerel $unwind$?OpenPopupOnItemClick@ImGui@@YA_NPEBDH@Z
$pdata$?IsPopupOpen@ImGui@@YA_NPEBD@Z DD imagerel $LN5
	DD	imagerel $LN5+157
	DD	imagerel $unwind$?IsPopupOpen@ImGui@@YA_NPEBD@Z
$pdata$?CloseCurrentPopup@ImGui@@YAXXZ DD imagerel $LN12
	DD	imagerel $LN12+371
	DD	imagerel $unwind$?CloseCurrentPopup@ImGui@@YAXXZ
$pdata$?Columns@ImGui@@YAXHPEBD_N@Z DD imagerel $LN8
	DD	imagerel $LN8+175
	DD	imagerel $unwind$?Columns@ImGui@@YAXHPEBD_N@Z
$pdata$?NextColumn@ImGui@@YAXXZ DD imagerel $LN7
	DD	imagerel $LN7+497
	DD	imagerel $unwind$?NextColumn@ImGui@@YAXXZ
$pdata$?GetColumnIndex@ImGui@@YAHXZ DD imagerel $LN5
	DD	imagerel $LN5+67
	DD	imagerel $unwind$?GetColumnIndex@ImGui@@YAHXZ
$pdata$?GetColumnWidth@ImGui@@YAMH@Z DD imagerel $LN4
	DD	imagerel $LN4+150
	DD	imagerel $unwind$?GetColumnWidth@ImGui@@YAMH@Z
$pdata$?SetColumnWidth@ImGui@@YAXHM@Z DD imagerel $LN4
	DD	imagerel $LN4+97
	DD	imagerel $unwind$?SetColumnWidth@ImGui@@YAXHM@Z
$pdata$?GetColumnOffset@ImGui@@YAMH@Z DD imagerel $LN4
	DD	imagerel $LN4+140
	DD	imagerel $unwind$?GetColumnOffset@ImGui@@YAMH@Z
$pdata$?SetColumnOffset@ImGui@@YAXHM@Z DD imagerel $LN10
	DD	imagerel $LN10+424
	DD	imagerel $unwind$?SetColumnOffset@ImGui@@YAXHM@Z
$pdata$?GetColumnsCount@ImGui@@YAHXZ DD imagerel $LN5
	DD	imagerel $LN5+67
	DD	imagerel $unwind$?GetColumnsCount@ImGui@@YAHXZ
$pdata$?BeginDragDropSource@ImGui@@YA_NH@Z DD imagerel $LN23
	DD	imagerel $LN23+859
	DD	imagerel $unwind$?BeginDragDropSource@ImGui@@YA_NH@Z
$pdata$?SetDragDropPayload@ImGui@@YA_NPEBDPEBX_KH@Z DD imagerel $LN12
	DD	imagerel $LN12+431
	DD	imagerel $unwind$?SetDragDropPayload@ImGui@@YA_NPEBDPEBX_KH@Z
$pdata$?EndDragDropSource@ImGui@@YAXXZ DD imagerel $LN5
	DD	imagerel $LN5+77
	DD	imagerel $unwind$?EndDragDropSource@ImGui@@YAXXZ
$pdata$?BeginDragDropTarget@ImGui@@YA_NXZ DD imagerel $LN11
	DD	imagerel $LN11+333
	DD	imagerel $unwind$?BeginDragDropTarget@ImGui@@YA_NXZ
$pdata$?AcceptDragDropPayload@ImGui@@YAPEBUImGuiPayload@@PEBDH@Z DD imagerel $LN15
	DD	imagerel $LN15+969
	DD	imagerel $unwind$?AcceptDragDropPayload@ImGui@@YAPEBUImGuiPayload@@PEBDH@Z
$pdata$?EndDragDropTarget@ImGui@@YAXXZ DD imagerel $LN3
	DD	imagerel $LN3+31
	DD	imagerel $unwind$?EndDragDropTarget@ImGui@@YAXXZ
$pdata$?GetDragDropPayload@ImGui@@YAPEBUImGuiPayload@@XZ DD imagerel $LN5
	DD	imagerel $LN5+66
	DD	imagerel $unwind$?GetDragDropPayload@ImGui@@YAPEBUImGuiPayload@@XZ
$pdata$?PushClipRect@ImGui@@YAXAEBUImVec2@@0_N@Z DD imagerel $LN3
	DD	imagerel $LN3+152
	DD	imagerel $unwind$?PushClipRect@ImGui@@YAXAEBUImVec2@@0_N@Z
$pdata$?PopClipRect@ImGui@@YAXXZ DD imagerel $LN3
	DD	imagerel $LN3+106
	DD	imagerel $unwind$?PopClipRect@ImGui@@YAXXZ
$pdata$?SetItemDefaultFocus@ImGui@@YAXXZ DD imagerel $LN7
	DD	imagerel $LN7+390
	DD	imagerel $unwind$?SetItemDefaultFocus@ImGui@@YAXXZ
$pdata$?SetKeyboardFocusHere@ImGui@@YAXH@Z DD imagerel $LN3
	DD	imagerel $LN3+68
	DD	imagerel $unwind$?SetKeyboardFocusHere@ImGui@@YAXH@Z
$pdata$?IsItemHovered@ImGui@@YA_NH@Z DD imagerel $LN11
	DD	imagerel $LN11+343
	DD	imagerel $unwind$?IsItemHovered@ImGui@@YA_NH@Z
$pdata$?IsItemActive@ImGui@@YA_NXZ DD imagerel $LN6
	DD	imagerel $LN6+100
	DD	imagerel $unwind$?IsItemActive@ImGui@@YA_NXZ
$pdata$?IsItemFocused@ImGui@@YA_NXZ DD imagerel $LN5
	DD	imagerel $LN5+93
	DD	imagerel $unwind$?IsItemFocused@ImGui@@YA_NXZ
$pdata$?IsItemClicked@ImGui@@YA_NH@Z DD imagerel $LN5
	DD	imagerel $LN5+68
	DD	imagerel $unwind$?IsItemClicked@ImGui@@YA_NH@Z
$pdata$?IsItemVisible@ImGui@@YA_NXZ DD imagerel $LN3
	DD	imagerel $LN3+59
	DD	imagerel $unwind$?IsItemVisible@ImGui@@YA_NXZ
$pdata$?IsItemEdited@ImGui@@YA_NXZ DD imagerel $LN5
	DD	imagerel $LN5+60
	DD	imagerel $unwind$?IsItemEdited@ImGui@@YA_NXZ
$pdata$?IsItemActivated@ImGui@@YA_NXZ DD imagerel $LN5
	DD	imagerel $LN5+101
	DD	imagerel $unwind$?IsItemActivated@ImGui@@YA_NXZ
$pdata$?IsItemDeactivated@ImGui@@YA_NXZ DD imagerel $LN5
	DD	imagerel $LN5+120
	DD	imagerel $unwind$?IsItemDeactivated@ImGui@@YA_NXZ
$pdata$?IsItemDeactivatedAfterEdit@ImGui@@YA_NXZ DD imagerel $LN7
	DD	imagerel $LN7+102
	DD	imagerel $unwind$?IsItemDeactivatedAfterEdit@ImGui@@YA_NXZ
$pdata$?IsAnyItemHovered@ImGui@@YA_NXZ DD imagerel $LN5
	DD	imagerel $LN5+69
	DD	imagerel $unwind$?IsAnyItemHovered@ImGui@@YA_NXZ
$pdata$?IsAnyItemActive@ImGui@@YA_NXZ DD imagerel $LN5
	DD	imagerel $LN5+55
	DD	imagerel $unwind$?IsAnyItemActive@ImGui@@YA_NXZ
$pdata$?IsAnyItemFocused@ImGui@@YA_NXZ DD imagerel $LN5
	DD	imagerel $LN5+71
	DD	imagerel $unwind$?IsAnyItemFocused@ImGui@@YA_NXZ
$pdata$?GetItemRectMin@ImGui@@YA?AUImVec2@@XZ DD imagerel $LN3
	DD	imagerel $LN3+49
	DD	imagerel $unwind$?GetItemRectMin@ImGui@@YA?AUImVec2@@XZ
$pdata$?GetItemRectMax@ImGui@@YA?AUImVec2@@XZ DD imagerel $LN3
	DD	imagerel $LN3+49
	DD	imagerel $unwind$?GetItemRectMax@ImGui@@YA?AUImVec2@@XZ
$pdata$?GetItemRectSize@ImGui@@YA?AUImVec2@@XZ DD imagerel $LN3
	DD	imagerel $LN3+60
	DD	imagerel $unwind$?GetItemRectSize@ImGui@@YA?AUImVec2@@XZ
$pdata$?SetItemAllowOverlap@ImGui@@YAXXZ DD imagerel $LN5
	DD	imagerel $LN5+100
	DD	imagerel $unwind$?SetItemAllowOverlap@ImGui@@YAXXZ
$pdata$?IsRectVisible@ImGui@@YA_NAEBUImVec2@@@Z DD imagerel $LN3
	DD	imagerel $LN3+119
	DD	imagerel $unwind$?IsRectVisible@ImGui@@YA_NAEBUImVec2@@@Z
$pdata$?IsRectVisible@ImGui@@YA_NAEBUImVec2@@0@Z DD imagerel $LN3
	DD	imagerel $LN3+87
	DD	imagerel $unwind$?IsRectVisible@ImGui@@YA_NAEBUImVec2@@0@Z
$pdata$?GetStyleColorName@ImGui@@YAPEBDH@Z DD imagerel $LN54
	DD	imagerel $LN54+788
	DD	imagerel $unwind$?GetStyleColorName@ImGui@@YAPEBDH@Z
$pdata$?SetStateStorage@ImGui@@YAXPEAUImGuiStorage@@@Z DD imagerel $LN5
	DD	imagerel $LN5+83
	DD	imagerel $unwind$?SetStateStorage@ImGui@@YAXPEAUImGuiStorage@@@Z
$pdata$?GetStateStorage@ImGui@@YAPEAUImGuiStorage@@XZ DD imagerel $LN3
	DD	imagerel $LN3+38
	DD	imagerel $unwind$?GetStateStorage@ImGui@@YAPEAUImGuiStorage@@XZ
$pdata$?CalcTextSize@ImGui@@YA?AUImVec2@@PEBD0_NM@Z DD imagerel $LN6
	DD	imagerel $LN6+305
	DD	imagerel $unwind$?CalcTextSize@ImGui@@YA?AUImVec2@@PEBD0_NM@Z
$pdata$?CalcListClipping@ImGui@@YAXHMPEAH0@Z DD imagerel $LN7
	DD	imagerel $LN7+399
	DD	imagerel $unwind$?CalcListClipping@ImGui@@YAXHMPEAH0@Z
$pdata$?BeginChildFrame@ImGui@@YA_NIAEBUImVec2@@H@Z DD imagerel $LN3
	DD	imagerel $LN3+206
	DD	imagerel $unwind$?BeginChildFrame@ImGui@@YA_NIAEBUImVec2@@H@Z
$pdata$?EndChildFrame@ImGui@@YAXXZ DD imagerel $LN3
	DD	imagerel $LN3+15
	DD	imagerel $unwind$?EndChildFrame@ImGui@@YAXXZ
$pdata$?ColorConvertU32ToFloat4@ImGui@@YA?AUImVec4@@I@Z DD imagerel $LN3
	DD	imagerel $LN3+168
	DD	imagerel $unwind$?ColorConvertU32ToFloat4@ImGui@@YA?AUImVec4@@I@Z
$pdata$?ColorConvertFloat4ToU32@ImGui@@YAIAEBUImVec4@@@Z DD imagerel $LN3
	DD	imagerel $LN3+206
	DD	imagerel $unwind$?ColorConvertFloat4ToU32@ImGui@@YAIAEBUImVec4@@@Z
$pdata$?ColorConvertFloat4ToRGB@ImGui@@YAXAEBUImVec4@@AEAM11@Z DD imagerel $LN3
	DD	imagerel $LN3+178
	DD	imagerel $unwind$?ColorConvertFloat4ToRGB@ImGui@@YAXAEBUImVec4@@AEAM11@Z
$pdata$?ColorConvertRGBtoHSV@ImGui@@YAXMMMAEAM00@Z DD imagerel $LN7
	DD	imagerel $LN7+304
	DD	imagerel $unwind$?ColorConvertRGBtoHSV@ImGui@@YAXMMMAEAM00@Z
$pdata$?ColorConvertHSVtoRGB@ImGui@@YAXMMMAEAM00@Z DD imagerel $LN14
	DD	imagerel $LN14+664
	DD	imagerel $unwind$?ColorConvertHSVtoRGB@ImGui@@YAXMMMAEAM00@Z
$pdata$?IsKeyPressed@ImGui@@YA_NH_N@Z DD imagerel $LN8
	DD	imagerel $LN8+184
	DD	imagerel $unwind$?IsKeyPressed@ImGui@@YA_NH_N@Z
$pdata$?IsKeyReleased@ImGui@@YA_NH@Z DD imagerel $LN6
	DD	imagerel $LN6+106
	DD	imagerel $unwind$?IsKeyReleased@ImGui@@YA_NH@Z
$pdata$?GetKeyPressedAmount@ImGui@@YAHHMM@Z DD imagerel $LN4
	DD	imagerel $LN4+115
	DD	imagerel $unwind$?GetKeyPressedAmount@ImGui@@YAHHMM@Z
$pdata$?IsMouseDown@ImGui@@YA_NH@Z DD imagerel $LN3
	DD	imagerel $LN3+41
	DD	imagerel $unwind$?IsMouseDown@ImGui@@YA_NH@Z
$pdata$?IsAnyMouseDown@ImGui@@YA_NXZ DD imagerel $LN7
	DD	imagerel $LN7+73
	DD	imagerel $unwind$?IsAnyMouseDown@ImGui@@YA_NXZ
$pdata$?IsMouseClicked@ImGui@@YA_NH_N@Z DD imagerel $LN10
	DD	imagerel $LN10+299
	DD	imagerel $unwind$?IsMouseClicked@ImGui@@YA_NH_N@Z
$pdata$?IsMouseDoubleClicked@ImGui@@YA_NH@Z DD imagerel $LN3
	DD	imagerel $LN3+41
	DD	imagerel $unwind$?IsMouseDoubleClicked@ImGui@@YA_NH@Z
$pdata$?IsMouseReleased@ImGui@@YA_NH@Z DD imagerel $LN3
	DD	imagerel $LN3+41
	DD	imagerel $unwind$?IsMouseReleased@ImGui@@YA_NH@Z
$pdata$?IsMouseDragging@ImGui@@YA_NHM@Z DD imagerel $LN7
	DD	imagerel $LN7+142
	DD	imagerel $unwind$?IsMouseDragging@ImGui@@YA_NHM@Z
$pdata$?IsMouseHoveringRect@ImGui@@YA_NAEBUImVec2@@0_N@Z DD imagerel $LN5
	DD	imagerel $LN5+233
	DD	imagerel $unwind$?IsMouseHoveringRect@ImGui@@YA_NAEBUImVec2@@0_N@Z
$pdata$?IsMousePosValid@ImGui@@YA_NPEBUImVec2@@@Z DD imagerel $LN7
	DD	imagerel $LN7+139
	DD	imagerel $unwind$?IsMousePosValid@ImGui@@YA_NPEBUImVec2@@@Z
$pdata$?GetMousePosOnOpeningCurrentPopup@ImGui@@YA?AUImVec2@@XZ DD imagerel $LN4
	DD	imagerel $LN4+125
	DD	imagerel $unwind$?GetMousePosOnOpeningCurrentPopup@ImGui@@YA?AUImVec2@@XZ
$pdata$?GetMouseDragDelta@ImGui@@YA?AUImVec2@@HM@Z DD imagerel $LN6
	DD	imagerel $LN6+197
	DD	imagerel $unwind$?GetMouseDragDelta@ImGui@@YA?AUImVec2@@HM@Z
$pdata$?ResetMouseDragDelta@ImGui@@YAXH@Z DD imagerel $LN3
	DD	imagerel $LN3+52
	DD	imagerel $unwind$?ResetMouseDragDelta@ImGui@@YAXH@Z
$pdata$?CaptureKeyboardFromApp@ImGui@@YAX_N@Z DD imagerel $LN5
	DD	imagerel $LN5+54
	DD	imagerel $unwind$?CaptureKeyboardFromApp@ImGui@@YAX_N@Z
$pdata$?CaptureMouseFromApp@ImGui@@YAX_N@Z DD imagerel $LN5
	DD	imagerel $LN5+54
	DD	imagerel $unwind$?CaptureMouseFromApp@ImGui@@YAX_N@Z
$pdata$?GetClipboardText@ImGui@@YAPEBDXZ DD imagerel $LN5
	DD	imagerel $LN5+87
	DD	imagerel $unwind$?GetClipboardText@ImGui@@YAPEBDXZ
$pdata$?SetClipboardText@ImGui@@YAXPEBD@Z DD imagerel $LN4
	DD	imagerel $LN4+74
	DD	imagerel $unwind$?SetClipboardText@ImGui@@YAXPEBD@Z
$pdata$?MemAlloc@ImGui@@YAPEAX_K@Z DD imagerel $LN4
	DD	imagerel $LN4+86
	DD	imagerel $unwind$?MemAlloc@ImGui@@YAPEAX_K@Z
$pdata$?MemFree@ImGui@@YAXPEAX@Z DD imagerel $LN5
	DD	imagerel $LN5+95
	DD	imagerel $unwind$?MemFree@ImGui@@YAXPEAX@Z
$pdata$??0ImGuiStyle@@QEAA@XZ DD imagerel $LN3
	DD	imagerel $LN3+1147
	DD	imagerel $unwind$??0ImGuiStyle@@QEAA@XZ
$pdata$?ScaleAllSizes@ImGuiStyle@@QEAAXM@Z DD imagerel $LN3
	DD	imagerel $LN3+1030
	DD	imagerel $unwind$?ScaleAllSizes@ImGuiStyle@@QEAAXM@Z
$pdata$?AddInputCharactersUTF8@ImGuiIO@@QEAAXPEBD@Z DD imagerel $LN6
	DD	imagerel $LN6+136
	DD	imagerel $unwind$?AddInputCharactersUTF8@ImGuiIO@@QEAAXPEBD@Z
$pdata$?AddInputCharacter@ImGuiIO@@QEAAXG@Z DD imagerel $LN3
	DD	imagerel $LN3+51
	DD	imagerel $unwind$?AddInputCharacter@ImGuiIO@@QEAAXG@Z
$pdata$?ClearInputCharacters@ImGuiIO@@QEAAXXZ DD imagerel $LN3
	DD	imagerel $LN3+43
	DD	imagerel $unwind$?ClearInputCharacters@ImGuiIO@@QEAAXXZ
pdata	ENDS
;	COMDAT pdata
pdata	SEGMENT
$pdata$??1?$ImVector@G@@QEAA@XZ DD imagerel $LN4
	DD	imagerel $LN4+41
	DD	imagerel $unwind$??1?$ImVector@G@@QEAA@XZ
pdata	ENDS
;	COMDAT pdata
pdata	SEGMENT
$pdata$?clear@?$ImVector@G@@QEAAXXZ DD imagerel $LN4
	DD	imagerel $LN4+76
	DD	imagerel $unwind$?clear@?$ImVector@G@@QEAAXXZ
pdata	ENDS
;	COMDAT pdata
pdata	SEGMENT
$pdata$?_grow_capacity@?$ImVector@G@@QEBAHH@Z DD imagerel $LN7
	DD	imagerel $LN7+101
	DD	imagerel $unwind$?_grow_capacity@?$ImVector@G@@QEBAHH@Z
pdata	ENDS
;	COMDAT pdata
pdata	SEGMENT
$pdata$?resize@?$ImVector@G@@QEAAXH@Z DD imagerel $LN4
	DD	imagerel $LN4+70
	DD	imagerel $unwind$?resize@?$ImVector@G@@QEAAXH@Z
pdata	ENDS
;	COMDAT pdata
pdata	SEGMENT
$pdata$?reserve@?$ImVector@G@@QEAAXH@Z DD imagerel $LN5
	DD	imagerel $LN5+141
	DD	imagerel $unwind$?reserve@?$ImVector@G@@QEAAXH@Z
pdata	ENDS
;	COMDAT pdata
pdata	SEGMENT
$pdata$?push_back@?$ImVector@G@@QEAAXAEBG@Z DD imagerel $LN4
	DD	imagerel $LN4+126
	DD	imagerel $unwind$?push_back@?$ImVector@G@@QEAAXAEBG@Z
pdata	ENDS
pdata	SEGMENT
$pdata$??0ImGuiIO@@QEAA@XZ DD imagerel $LN16
	DD	imagerel $LN16+1170
	DD	imagerel $unwind$??0ImGuiIO@@QEAA@XZ
pdata	ENDS
pdata	SEGMENT
$pdata$?dtor$0@?0???0ImGuiIO@@QEAA@XZ@4HA DD imagerel ?dtor$0@?0???0ImGuiIO@@QEAA@XZ@4HA
	DD	imagerel ?dtor$0@?0???0ImGuiIO@@QEAA@XZ@4HA+31
	DD	imagerel $unwind$?dtor$0@?0???0ImGuiIO@@QEAA@XZ@4HA
pdata	ENDS
;	COMDAT pdata
pdata	SEGMENT
$pdata$??1ImGuiIO@@QEAA@XZ DD imagerel $LN4
	DD	imagerel $LN4+34
	DD	imagerel $unwind$??1ImGuiIO@@QEAA@XZ
pdata	ENDS
;	COMDAT pdata
pdata	SEGMENT
$pdata$?dtor$0@?0???1ImGuiIO@@QEAA@XZ@4HA DD imagerel ?dtor$0@?0???1ImGuiIO@@QEAA@XZ@4HA
	DD	imagerel ?dtor$0@?0???1ImGuiIO@@QEAA@XZ@4HA+31
	DD	imagerel $unwind$?dtor$0@?0???1ImGuiIO@@QEAA@XZ@4HA
pdata	ENDS
;	COMDAT pdata
pdata	SEGMENT
$pdata$??0ImGuiSizeCallbackData@@QEAA@XZ DD imagerel $LN3
	DD	imagerel $LN3+67
	DD	imagerel $unwind$??0ImGuiSizeCallbackData@@QEAA@XZ
pdata	ENDS
;	COMDAT pdata
pdata	SEGMENT
$pdata$?IsDataType@ImGuiPayload@@QEBA_NPEBD@Z DD imagerel $LN5
	DD	imagerel $LN5+79
	DD	imagerel $unwind$?IsDataType@ImGuiPayload@@QEBA_NPEBD@Z
pdata	ENDS
;	COMDAT pdata
pdata	SEGMENT
$pdata$??0ImGuiPayload@@QEAA@XZ DD imagerel $LN3
	DD	imagerel $LN3+30
	DD	imagerel $unwind$??0ImGuiPayload@@QEAA@XZ
pdata	ENDS
;	COMDAT pdata
pdata	SEGMENT
$pdata$?Clear@ImGuiPayload@@QEAAXXZ DD imagerel $LN3
	DD	imagerel $LN3+117
	DD	imagerel $unwind$?Clear@ImGuiPayload@@QEAAXXZ
pdata	ENDS
pdata	SEGMENT
$pdata$?Begin@ImGui@@YA_NPEBDPEA_NAEBUImVec2@@MH@Z DD imagerel $LN7
	DD	imagerel $LN7+134
	DD	imagerel $unwind$?Begin@ImGui@@YA_NPEBDPEA_NAEBUImVec2@@MH@Z
$pdata$??0ImGuiTextFilter@@QEAA@PEBD@Z DD imagerel $LN6
	DD	imagerel $LN6+122
	DD	imagerel $unwind$??0ImGuiTextFilter@@QEAA@PEBD@Z
pdata	ENDS
pdata	SEGMENT
$pdata$?dtor$0@?0???0ImGuiTextFilter@@QEAA@PEBD@Z@4HA DD imagerel ?dtor$0@?0???0ImGuiTextFilter@@QEAA@PEBD@Z@4HA
	DD	imagerel ?dtor$0@?0???0ImGuiTextFilter@@QEAA@PEBD@Z@4HA+31
	DD	imagerel $unwind$?dtor$0@?0???0ImGuiTextFilter@@QEAA@PEBD@Z@4HA
pdata	ENDS
pdata	SEGMENT
$pdata$?Draw@ImGuiTextFilter@@QEAA_NPEBDM@Z DD imagerel $LN8
	DD	imagerel $LN8+151
	DD	imagerel $unwind$?Draw@ImGuiTextFilter@@QEAA_NPEBDM@Z
$pdata$?PassFilter@ImGuiTextFilter@@QEBA_NPEBD0@Z DD imagerel $LN14
	DD	imagerel $LN14+362
	DD	imagerel $unwind$?PassFilter@ImGuiTextFilter@@QEBA_NPEBD0@Z
$pdata$?Build@ImGuiTextFilter@@QEAAXXZ DD imagerel $LN12
	DD	imagerel $LN12+455
	DD	imagerel $unwind$?Build@ImGuiTextFilter@@QEAAXXZ
pdata	ENDS
;	COMDAT pdata
pdata	SEGMENT
$pdata$?empty@TextRange@ImGuiTextFilter@@QEBA_NXZ DD imagerel $LN5
	DD	imagerel $LN5+53
	DD	imagerel $unwind$?empty@TextRange@ImGuiTextFilter@@QEBA_NXZ
pdata	ENDS
pdata	SEGMENT
$pdata$?split@TextRange@ImGuiTextFilter@@QEBAXDPEAU?$ImVector@UTextRange@ImGuiTextFilter@@@@@Z DD imagerel $LN7
	DD	imagerel $LN7+199
	DD	imagerel $unwind$?split@TextRange@ImGuiTextFilter@@QEBAXDPEAU?$ImVector@UTextRange@ImGuiTextFilter@@@@@Z
pdata	ENDS
;	COMDAT pdata
pdata	SEGMENT
$pdata$??1?$ImVector@UTextRange@ImGuiTextFilter@@@@QEAA@XZ DD imagerel $LN4
	DD	imagerel $LN4+41
	DD	imagerel $unwind$??1?$ImVector@UTextRange@ImGuiTextFilter@@@@QEAA@XZ
pdata	ENDS
;	COMDAT pdata
pdata	SEGMENT
$pdata$?empty@?$ImVector@UTextRange@ImGuiTextFilter@@@@QEBA_NXZ DD imagerel $LN5
	DD	imagerel $LN5+44
	DD	imagerel $unwind$?empty@?$ImVector@UTextRange@ImGuiTextFilter@@@@QEBA_NXZ
pdata	ENDS
;	COMDAT pdata
pdata	SEGMENT
$pdata$?_grow_capacity@?$ImVector@UTextRange@ImGuiTextFilter@@@@QEBAHH@Z DD imagerel $LN7
	DD	imagerel $LN7+101
	DD	imagerel $unwind$?_grow_capacity@?$ImVector@UTextRange@ImGuiTextFilter@@@@QEBAHH@Z
pdata	ENDS
;	COMDAT pdata
pdata	SEGMENT
$pdata$?resize@?$ImVector@UTextRange@ImGuiTextFilter@@@@QEAAXH@Z DD imagerel $LN4
	DD	imagerel $LN4+70
	DD	imagerel $unwind$?resize@?$ImVector@UTextRange@ImGuiTextFilter@@@@QEAAXH@Z
pdata	ENDS
;	COMDAT pdata
pdata	SEGMENT
$pdata$?reserve@?$ImVector@UTextRange@ImGuiTextFilter@@@@QEAAXH@Z DD imagerel $LN5
	DD	imagerel $LN5+143
	DD	imagerel $unwind$?reserve@?$ImVector@UTextRange@ImGuiTextFilter@@@@QEAAXH@Z
pdata	ENDS
;	COMDAT pdata
pdata	SEGMENT
$pdata$?push_back@?$ImVector@UTextRange@ImGuiTextFilter@@@@QEAAXAEBUTextRange@ImGuiTextFilter@@@Z DD imagerel $LN4
	DD	imagerel $LN4+126
	DD	imagerel $unwind$?push_back@?$ImVector@UTextRange@ImGuiTextFilter@@@@QEAAXAEBUTextRange@ImGuiTextFilter@@@Z
pdata	ENDS
;	COMDAT pdata
pdata	SEGMENT
$pdata$??1?$ImVector@D@@QEAA@XZ DD imagerel $LN4
	DD	imagerel $LN4+41
	DD	imagerel $unwind$??1?$ImVector@D@@QEAA@XZ
pdata	ENDS
;	COMDAT pdata
pdata	SEGMENT
$pdata$?clear@?$ImVector@D@@QEAAXXZ DD imagerel $LN4
	DD	imagerel $LN4+76
	DD	imagerel $unwind$?clear@?$ImVector@D@@QEAAXXZ
pdata	ENDS
;	COMDAT pdata
pdata	SEGMENT
$pdata$?_grow_capacity@?$ImVector@D@@QEBAHH@Z DD imagerel $LN7
	DD	imagerel $LN7+101
	DD	imagerel $unwind$?_grow_capacity@?$ImVector@D@@QEBAHH@Z
pdata	ENDS
;	COMDAT pdata
pdata	SEGMENT
$pdata$?resize@?$ImVector@D@@QEAAXH@Z DD imagerel $LN4
	DD	imagerel $LN4+70
	DD	imagerel $unwind$?resize@?$ImVector@D@@QEAAXH@Z
pdata	ENDS
;	COMDAT pdata
pdata	SEGMENT
$pdata$?reserve@?$ImVector@D@@QEAAXH@Z DD imagerel $LN5
	DD	imagerel $LN5+135
	DD	imagerel $unwind$?reserve@?$ImVector@D@@QEAAXH@Z
pdata	ENDS
pdata	SEGMENT
$pdata$?append@ImGuiTextBuffer@@QEAAXPEBD0@Z DD imagerel $LN10
	DD	imagerel $LN10+379
	DD	imagerel $unwind$?append@ImGuiTextBuffer@@QEAAXPEBD0@Z
$pdata$?appendf@ImGuiTextBuffer@@QEAAXPEBDZZ DD imagerel $LN3
	DD	imagerel $LN3+68
	DD	imagerel $unwind$?appendf@ImGuiTextBuffer@@QEAAXPEBDZZ
$pdata$?appendfv@ImGuiTextBuffer@@QEAAXPEBDPEAD@Z DD imagerel $LN9
	DD	imagerel $LN9+328
	DD	imagerel $unwind$?appendfv@ImGuiTextBuffer@@QEAAXPEBDPEAD@Z
pdata	ENDS
;	COMDAT pdata
pdata	SEGMENT
$pdata$??1ImGuiTextBuffer@@QEAA@XZ DD imagerel $LN4
	DD	imagerel $LN4+28
	DD	imagerel $unwind$??1ImGuiTextBuffer@@QEAA@XZ
pdata	ENDS
;	COMDAT pdata
pdata	SEGMENT
$pdata$?dtor$0@?0???1ImGuiTextBuffer@@QEAA@XZ@4HA DD imagerel ?dtor$0@?0???1ImGuiTextBuffer@@QEAA@XZ@4HA
	DD	imagerel ?dtor$0@?0???1ImGuiTextBuffer@@QEAA@XZ@4HA+24
	DD	imagerel $unwind$?dtor$0@?0???1ImGuiTextBuffer@@QEAA@XZ@4HA
pdata	ENDS
;	COMDAT pdata
pdata	SEGMENT
$pdata$??1?$ImVector@UPair@ImGuiStorage@@@@QEAA@XZ DD imagerel $LN4
	DD	imagerel $LN4+41
	DD	imagerel $unwind$??1?$ImVector@UPair@ImGuiStorage@@@@QEAA@XZ
pdata	ENDS
;	COMDAT pdata
pdata	SEGMENT
$pdata$?clear@?$ImVector@UPair@ImGuiStorage@@@@QEAAXXZ DD imagerel $LN4
	DD	imagerel $LN4+76
	DD	imagerel $unwind$?clear@?$ImVector@UPair@ImGuiStorage@@@@QEAAXXZ
pdata	ENDS
;	COMDAT pdata
pdata	SEGMENT
$pdata$?_grow_capacity@?$ImVector@UPair@ImGuiStorage@@@@QEBAHH@Z DD imagerel $LN7
	DD	imagerel $LN7+101
	DD	imagerel $unwind$?_grow_capacity@?$ImVector@UPair@ImGuiStorage@@@@QEBAHH@Z
pdata	ENDS
;	COMDAT pdata
pdata	SEGMENT
$pdata$?reserve@?$ImVector@UPair@ImGuiStorage@@@@QEAAXH@Z DD imagerel $LN5
	DD	imagerel $LN5+143
	DD	imagerel $unwind$?reserve@?$ImVector@UPair@ImGuiStorage@@@@QEAAXH@Z
pdata	ENDS
;	COMDAT pdata
pdata	SEGMENT
$pdata$?insert@?$ImVector@UPair@ImGuiStorage@@@@QEAAPEAUPair@ImGuiStorage@@PEBU23@AEBU23@@Z DD imagerel $LN5
	DD	imagerel $LN5+261
	DD	imagerel $unwind$?insert@?$ImVector@UPair@ImGuiStorage@@@@QEAAPEAUPair@ImGuiStorage@@PEBU23@AEBU23@@Z
pdata	ENDS
;	COMDAT pdata
pdata	SEGMENT
$pdata$?Clear@ImGuiStorage@@QEAAXXZ DD imagerel $LN3
	DD	imagerel $LN3+28
	DD	imagerel $unwind$?Clear@ImGuiStorage@@QEAAXXZ
pdata	ENDS
pdata	SEGMENT
$pdata$?GetInt@ImGuiStorage@@QEBAHIH@Z DD imagerel $LN5
	DD	imagerel $LN5+92
	DD	imagerel $unwind$?GetInt@ImGuiStorage@@QEBAHIH@Z
$pdata$?SetInt@ImGuiStorage@@QEAAXIH@Z DD imagerel $LN5
	DD	imagerel $LN5+140
	DD	imagerel $unwind$?SetInt@ImGuiStorage@@QEAAXIH@Z
$pdata$?GetBool@ImGuiStorage@@QEBA_NI_N@Z DD imagerel $LN7
	DD	imagerel $LN7+96
	DD	imagerel $unwind$?GetBool@ImGuiStorage@@QEBA_NI_N@Z
$pdata$?SetBool@ImGuiStorage@@QEAAXI_N@Z DD imagerel $LN5
	DD	imagerel $LN5+70
	DD	imagerel $unwind$?SetBool@ImGuiStorage@@QEAAXI_N@Z
$pdata$?GetFloat@ImGuiStorage@@QEBAMIM@Z DD imagerel $LN5
	DD	imagerel $LN5+97
	DD	imagerel $unwind$?GetFloat@ImGuiStorage@@QEBAMIM@Z
$pdata$?SetFloat@ImGuiStorage@@QEAAXIM@Z DD imagerel $LN5
	DD	imagerel $LN5+146
	DD	imagerel $unwind$?SetFloat@ImGuiStorage@@QEAAXIM@Z
$pdata$?GetVoidPtr@ImGuiStorage@@QEBAPEAXI@Z DD imagerel $LN5
	DD	imagerel $LN5+86
	DD	imagerel $unwind$?GetVoidPtr@ImGuiStorage@@QEBAPEAXI@Z
$pdata$?SetVoidPtr@ImGuiStorage@@QEAAXIPEAX@Z DD imagerel $LN5
	DD	imagerel $LN5+142
	DD	imagerel $unwind$?SetVoidPtr@ImGuiStorage@@QEAAXIPEAX@Z
$pdata$?GetIntRef@ImGuiStorage@@QEAAPEAHIH@Z DD imagerel $LN5
	DD	imagerel $LN5+139
	DD	imagerel $unwind$?GetIntRef@ImGuiStorage@@QEAAPEAHIH@Z
$pdata$?GetBoolRef@ImGuiStorage@@QEAAPEA_NI_N@Z DD imagerel $LN5
	DD	imagerel $LN5+69
	DD	imagerel $unwind$?GetBoolRef@ImGuiStorage@@QEAAPEA_NI_N@Z
$pdata$?GetFloatRef@ImGuiStorage@@QEAAPEAMIM@Z DD imagerel $LN5
	DD	imagerel $LN5+141
	DD	imagerel $unwind$?GetFloatRef@ImGuiStorage@@QEAAPEAMIM@Z
$pdata$?GetVoidPtrRef@ImGuiStorage@@QEAAPEAPEAXIPEAX@Z DD imagerel $LN5
	DD	imagerel $LN5+139
	DD	imagerel $unwind$?GetVoidPtrRef@ImGuiStorage@@QEAAPEAPEAXIPEAX@Z
$pdata$?SetAllInt@ImGuiStorage@@QEAAXH@Z DD imagerel $LN6
	DD	imagerel $LN6+84
	DD	imagerel $unwind$?SetAllInt@ImGuiStorage@@QEAAXH@Z
$pdata$?BuildSortByKey@ImGuiStorage@@QEAAXXZ DD imagerel $LN4
	DD	imagerel $LN4+63
	DD	imagerel $unwind$?BuildSortByKey@ImGuiStorage@@QEAAXXZ
pdata	ENDS
;	COMDAT pdata
pdata	SEGMENT
$pdata$??0ImGuiStorage@@QEAA@XZ DD imagerel $LN4
	DD	imagerel $LN4+33
	DD	imagerel $unwind$??0ImGuiStorage@@QEAA@XZ
pdata	ENDS
;	COMDAT pdata
pdata	SEGMENT
$pdata$?dtor$0@?0???0ImGuiStorage@@QEAA@XZ@4HA DD imagerel ?dtor$0@?0???0ImGuiStorage@@QEAA@XZ@4HA
	DD	imagerel ?dtor$0@?0???0ImGuiStorage@@QEAA@XZ@4HA+24
	DD	imagerel $unwind$?dtor$0@?0???0ImGuiStorage@@QEAA@XZ@4HA
pdata	ENDS
;	COMDAT pdata
pdata	SEGMENT
$pdata$??1ImGuiStorage@@QEAA@XZ DD imagerel $LN4
	DD	imagerel $LN4+28
	DD	imagerel $unwind$??1ImGuiStorage@@QEAA@XZ
pdata	ENDS
;	COMDAT pdata
pdata	SEGMENT
$pdata$?dtor$0@?0???1ImGuiStorage@@QEAA@XZ@4HA DD imagerel ?dtor$0@?0???1ImGuiStorage@@QEAA@XZ@4HA
	DD	imagerel ?dtor$0@?0???1ImGuiStorage@@QEAA@XZ@4HA+24
	DD	imagerel $unwind$?dtor$0@?0???1ImGuiStorage@@QEAA@XZ@4HA
pdata	ENDS
;	COMDAT pdata
pdata	SEGMENT
$pdata$??0ImGuiListClipper@@QEAA@HM@Z DD imagerel $LN3
	DD	imagerel $LN3+50
	DD	imagerel $unwind$??0ImGuiListClipper@@QEAA@HM@Z
pdata	ENDS
pdata	SEGMENT
$pdata$?Step@ImGuiListClipper@@QEAA_NXZ DD imagerel $LN10
	DD	imagerel $LN10+323
	DD	imagerel $unwind$?Step@ImGuiListClipper@@QEAA_NXZ
$pdata$?Begin@ImGuiListClipper@@QEAAXHM@Z DD imagerel $LN5
	DD	imagerel $LN5+241
	DD	imagerel $unwind$?Begin@ImGuiListClipper@@QEAAXHM@Z
$pdata$?End@ImGuiListClipper@@QEAAXXZ DD imagerel $LN5
	DD	imagerel $LN5+116
	DD	imagerel $unwind$?End@ImGuiListClipper@@QEAAXXZ
pdata	ENDS
;	COMDAT pdata
pdata	SEGMENT
$pdata$??1?$ImVector@UImDrawCmd@@@@QEAA@XZ DD imagerel $LN4
	DD	imagerel $LN4+41
	DD	imagerel $unwind$??1?$ImVector@UImDrawCmd@@@@QEAA@XZ
pdata	ENDS
;	COMDAT pdata
pdata	SEGMENT
$pdata$?empty@?$ImVector@UImDrawCmd@@@@QEBA_NXZ DD imagerel $LN5
	DD	imagerel $LN5+44
	DD	imagerel $unwind$?empty@?$ImVector@UImDrawCmd@@@@QEBA_NXZ
pdata	ENDS
;	COMDAT pdata
pdata	SEGMENT
$pdata$??1?$ImVector@UImDrawVert@@@@QEAA@XZ DD imagerel $LN4
	DD	imagerel $LN4+41
	DD	imagerel $unwind$??1?$ImVector@UImDrawVert@@@@QEAA@XZ
pdata	ENDS
;	COMDAT pdata
pdata	SEGMENT
$pdata$?empty@?$ImVector@UImDrawVert@@@@QEBA_NXZ DD imagerel $LN5
	DD	imagerel $LN5+44
	DD	imagerel $unwind$?empty@?$ImVector@UImDrawVert@@@@QEBA_NXZ
pdata	ENDS
;	COMDAT pdata
pdata	SEGMENT
$pdata$??1?$ImVector@UImDrawChannel@@@@QEAA@XZ DD imagerel $LN4
	DD	imagerel $LN4+41
	DD	imagerel $unwind$??1?$ImVector@UImDrawChannel@@@@QEAA@XZ
pdata	ENDS
;	COMDAT pdata
pdata	SEGMENT
$pdata$??1?$ImVector@UImVec4@@@@QEAA@XZ DD imagerel $LN4
	DD	imagerel $LN4+41
	DD	imagerel $unwind$??1?$ImVector@UImVec4@@@@QEAA@XZ
pdata	ENDS
;	COMDAT pdata
pdata	SEGMENT
$pdata$??1?$ImVector@PEAX@@QEAA@XZ DD imagerel $LN4
	DD	imagerel $LN4+41
	DD	imagerel $unwind$??1?$ImVector@PEAX@@QEAA@XZ
pdata	ENDS
;	COMDAT pdata
pdata	SEGMENT
$pdata$??1?$ImVector@UImVec2@@@@QEAA@XZ DD imagerel $LN4
	DD	imagerel $LN4+41
	DD	imagerel $unwind$??1?$ImVector@UImVec2@@@@QEAA@XZ
pdata	ENDS
;	COMDAT pdata
pdata	SEGMENT
$pdata$?_grow_capacity@?$ImVector@UImVec2@@@@QEBAHH@Z DD imagerel $LN7
	DD	imagerel $LN7+101
	DD	imagerel $unwind$?_grow_capacity@?$ImVector@UImVec2@@@@QEBAHH@Z
pdata	ENDS
;	COMDAT pdata
pdata	SEGMENT
$pdata$?reserve@?$ImVector@UImVec2@@@@QEAAXH@Z DD imagerel $LN5
	DD	imagerel $LN5+143
	DD	imagerel $unwind$?reserve@?$ImVector@UImVec2@@@@QEAAXH@Z
pdata	ENDS
;	COMDAT pdata
pdata	SEGMENT
$pdata$?push_back@?$ImVector@UImVec2@@@@QEAAXAEBUImVec2@@@Z DD imagerel $LN4
	DD	imagerel $LN4+126
	DD	imagerel $unwind$?push_back@?$ImVector@UImVec2@@@@QEAAXAEBUImVec2@@@Z
pdata	ENDS
;	COMDAT pdata
pdata	SEGMENT
$pdata$??0ImDrawList@@QEAA@PEBUImDrawListSharedData@@@Z DD imagerel $LN10
	DD	imagerel $LN10+188
	DD	imagerel $unwind$??0ImDrawList@@QEAA@PEBUImDrawListSharedData@@@Z
pdata	ENDS
;	COMDAT pdata
pdata	SEGMENT
$pdata$?dtor$0@?0???0ImDrawList@@QEAA@PEBUImDrawListSharedData@@@Z@4HA DD imagerel ?dtor$0@?0???0ImDrawList@@QEAA@PEBUImDrawListSharedData@@@Z@4HA
	DD	imagerel ?dtor$0@?0???0ImDrawList@@QEAA@PEBUImDrawListSharedData@@@Z@4HA+24
	DD	imagerel $unwind$?dtor$0@?0???0ImDrawList@@QEAA@PEBUImDrawListSharedData@@@Z@4HA
pdata	ENDS
;	COMDAT pdata
pdata	SEGMENT
$pdata$?dtor$1@?0???0ImDrawList@@QEAA@PEBUImDrawListSharedData@@@Z@4HA DD imagerel ?dtor$1@?0???0ImDrawList@@QEAA@PEBUImDrawListSharedData@@@Z@4HA
	DD	imagerel ?dtor$1@?0???0ImDrawList@@QEAA@PEBUImDrawListSharedData@@@Z@4HA+28
	DD	imagerel $unwind$?dtor$1@?0???0ImDrawList@@QEAA@PEBUImDrawListSharedData@@@Z@4HA
pdata	ENDS
;	COMDAT pdata
pdata	SEGMENT
$pdata$?dtor$2@?0???0ImDrawList@@QEAA@PEBUImDrawListSharedData@@@Z@4HA DD imagerel ?dtor$2@?0???0ImDrawList@@QEAA@PEBUImDrawListSharedData@@@Z@4HA
	DD	imagerel ?dtor$2@?0???0ImDrawList@@QEAA@PEBUImDrawListSharedData@@@Z@4HA+28
	DD	imagerel $unwind$?dtor$2@?0???0ImDrawList@@QEAA@PEBUImDrawListSharedData@@@Z@4HA
pdata	ENDS
;	COMDAT pdata
pdata	SEGMENT
$pdata$?dtor$3@?0???0ImDrawList@@QEAA@PEBUImDrawListSharedData@@@Z@4HA DD imagerel ?dtor$3@?0???0ImDrawList@@QEAA@PEBUImDrawListSharedData@@@Z@4HA
	DD	imagerel ?dtor$3@?0???0ImDrawList@@QEAA@PEBUImDrawListSharedData@@@Z@4HA+28
	DD	imagerel $unwind$?dtor$3@?0???0ImDrawList@@QEAA@PEBUImDrawListSharedData@@@Z@4HA
pdata	ENDS
;	COMDAT pdata
pdata	SEGMENT
$pdata$?dtor$4@?0???0ImDrawList@@QEAA@PEBUImDrawListSharedData@@@Z@4HA DD imagerel ?dtor$4@?0???0ImDrawList@@QEAA@PEBUImDrawListSharedData@@@Z@4HA
	DD	imagerel ?dtor$4@?0???0ImDrawList@@QEAA@PEBUImDrawListSharedData@@@Z@4HA+28
	DD	imagerel $unwind$?dtor$4@?0???0ImDrawList@@QEAA@PEBUImDrawListSharedData@@@Z@4HA
pdata	ENDS
;	COMDAT pdata
pdata	SEGMENT
$pdata$?dtor$5@?0???0ImDrawList@@QEAA@PEBUImDrawListSharedData@@@Z@4HA DD imagerel ?dtor$5@?0???0ImDrawList@@QEAA@PEBUImDrawListSharedData@@@Z@4HA
	DD	imagerel ?dtor$5@?0???0ImDrawList@@QEAA@PEBUImDrawListSharedData@@@Z@4HA+31
	DD	imagerel $unwind$?dtor$5@?0???0ImDrawList@@QEAA@PEBUImDrawListSharedData@@@Z@4HA
pdata	ENDS
;	COMDAT pdata
pdata	SEGMENT
$pdata$?dtor$6@?0???0ImDrawList@@QEAA@PEBUImDrawListSharedData@@@Z@4HA DD imagerel ?dtor$6@?0???0ImDrawList@@QEAA@PEBUImDrawListSharedData@@@Z@4HA
	DD	imagerel ?dtor$6@?0???0ImDrawList@@QEAA@PEBUImDrawListSharedData@@@Z@4HA+31
	DD	imagerel $unwind$?dtor$6@?0???0ImDrawList@@QEAA@PEBUImDrawListSharedData@@@Z@4HA
pdata	ENDS
;	COMDAT pdata
pdata	SEGMENT
$pdata$??1ImDrawList@@QEAA@XZ DD imagerel $LN10
	DD	imagerel $LN10+151
	DD	imagerel $unwind$??1ImDrawList@@QEAA@XZ
pdata	ENDS
;	COMDAT pdata
pdata	SEGMENT
$pdata$?dtor$0@?0???1ImDrawList@@QEAA@XZ@4HA DD imagerel ?dtor$0@?0???1ImDrawList@@QEAA@XZ@4HA
	DD	imagerel ?dtor$0@?0???1ImDrawList@@QEAA@XZ@4HA+24
	DD	imagerel $unwind$?dtor$0@?0???1ImDrawList@@QEAA@XZ@4HA
pdata	ENDS
;	COMDAT pdata
pdata	SEGMENT
$pdata$?dtor$1@?0???1ImDrawList@@QEAA@XZ@4HA DD imagerel ?dtor$1@?0???1ImDrawList@@QEAA@XZ@4HA
	DD	imagerel ?dtor$1@?0???1ImDrawList@@QEAA@XZ@4HA+28
	DD	imagerel $unwind$?dtor$1@?0???1ImDrawList@@QEAA@XZ@4HA
pdata	ENDS
;	COMDAT pdata
pdata	SEGMENT
$pdata$?dtor$2@?0???1ImDrawList@@QEAA@XZ@4HA DD imagerel ?dtor$2@?0???1ImDrawList@@QEAA@XZ@4HA
	DD	imagerel ?dtor$2@?0???1ImDrawList@@QEAA@XZ@4HA+28
	DD	imagerel $unwind$?dtor$2@?0???1ImDrawList@@QEAA@XZ@4HA
pdata	ENDS
;	COMDAT pdata
pdata	SEGMENT
$pdata$?dtor$3@?0???1ImDrawList@@QEAA@XZ@4HA DD imagerel ?dtor$3@?0???1ImDrawList@@QEAA@XZ@4HA
	DD	imagerel ?dtor$3@?0???1ImDrawList@@QEAA@XZ@4HA+28
	DD	imagerel $unwind$?dtor$3@?0???1ImDrawList@@QEAA@XZ@4HA
pdata	ENDS
;	COMDAT pdata
pdata	SEGMENT
$pdata$?dtor$4@?0???1ImDrawList@@QEAA@XZ@4HA DD imagerel ?dtor$4@?0???1ImDrawList@@QEAA@XZ@4HA
	DD	imagerel ?dtor$4@?0???1ImDrawList@@QEAA@XZ@4HA+28
	DD	imagerel $unwind$?dtor$4@?0???1ImDrawList@@QEAA@XZ@4HA
pdata	ENDS
;	COMDAT pdata
pdata	SEGMENT
$pdata$?dtor$5@?0???1ImDrawList@@QEAA@XZ@4HA DD imagerel ?dtor$5@?0???1ImDrawList@@QEAA@XZ@4HA
	DD	imagerel ?dtor$5@?0???1ImDrawList@@QEAA@XZ@4HA+31
	DD	imagerel $unwind$?dtor$5@?0???1ImDrawList@@QEAA@XZ@4HA
pdata	ENDS
;	COMDAT pdata
pdata	SEGMENT
$pdata$?dtor$6@?0???1ImDrawList@@QEAA@XZ@4HA DD imagerel ?dtor$6@?0???1ImDrawList@@QEAA@XZ@4HA
	DD	imagerel ?dtor$6@?0???1ImDrawList@@QEAA@XZ@4HA+31
	DD	imagerel $unwind$?dtor$6@?0???1ImDrawList@@QEAA@XZ@4HA
pdata	ENDS
;	COMDAT pdata
pdata	SEGMENT
$pdata$?PathLineTo@ImDrawList@@QEAAXAEBUImVec2@@@Z DD imagerel $LN3
	DD	imagerel $LN3+51
	DD	imagerel $unwind$?PathLineTo@ImDrawList@@QEAAXAEBUImVec2@@@Z
pdata	ENDS
;	COMDAT pdata
pdata	SEGMENT
$pdata$?PathFillConvex@ImDrawList@@QEAAXI@Z DD imagerel $LN3
	DD	imagerel $LN3+72
	DD	imagerel $unwind$?PathFillConvex@ImDrawList@@QEAAXI@Z
pdata	ENDS
;	COMDAT pdata
pdata	SEGMENT
$pdata$?PathStroke@ImDrawList@@QEAAXI_NM@Z DD imagerel $LN3
	DD	imagerel $LN3+104
	DD	imagerel $unwind$?PathStroke@ImDrawList@@QEAAXI_NM@Z
pdata	ENDS
;	COMDAT pdata
pdata	SEGMENT
$pdata$??0ImDrawData@@QEAA@XZ DD imagerel $LN3
	DD	imagerel $LN3+89
	DD	imagerel $unwind$??0ImDrawData@@QEAA@XZ
pdata	ENDS
;	COMDAT pdata
pdata	SEGMENT
$pdata$??1ImDrawData@@QEAA@XZ DD imagerel $LN3
	DD	imagerel $LN3+25
	DD	imagerel $unwind$??1ImDrawData@@QEAA@XZ
pdata	ENDS
;	COMDAT pdata
pdata	SEGMENT
$pdata$?Clear@ImDrawData@@QEAAXXZ DD imagerel $LN3
	DD	imagerel $LN3+135
	DD	imagerel $unwind$?Clear@ImDrawData@@QEAAXXZ
pdata	ENDS
;	COMDAT pdata
pdata	SEGMENT
$pdata$??1?$ImVector@H@@QEAA@XZ DD imagerel $LN4
	DD	imagerel $LN4+41
	DD	imagerel $unwind$??1?$ImVector@H@@QEAA@XZ
pdata	ENDS
;	COMDAT pdata
pdata	SEGMENT
$pdata$?empty@?$ImVector@H@@QEBA_NXZ DD imagerel $LN5
	DD	imagerel $LN5+44
	DD	imagerel $unwind$?empty@?$ImVector@H@@QEBA_NXZ
pdata	ENDS
;	COMDAT pdata
pdata	SEGMENT
$pdata$?_grow_capacity@?$ImVector@H@@QEBAHH@Z DD imagerel $LN7
	DD	imagerel $LN7+101
	DD	imagerel $unwind$?_grow_capacity@?$ImVector@H@@QEBAHH@Z
pdata	ENDS
;	COMDAT pdata
pdata	SEGMENT
$pdata$?resize@?$ImVector@H@@QEAAXH@Z DD imagerel $LN4
	DD	imagerel $LN4+70
	DD	imagerel $unwind$?resize@?$ImVector@H@@QEAAXH@Z
pdata	ENDS
;	COMDAT pdata
pdata	SEGMENT
$pdata$?reserve@?$ImVector@H@@QEAAXH@Z DD imagerel $LN5
	DD	imagerel $LN5+143
	DD	imagerel $unwind$?reserve@?$ImVector@H@@QEAAXH@Z
pdata	ENDS
;	COMDAT pdata
pdata	SEGMENT
$pdata$?push_back@?$ImVector@H@@QEAAXAEBH@Z DD imagerel $LN4
	DD	imagerel $LN4+126
	DD	imagerel $unwind$?push_back@?$ImVector@H@@QEAAXAEBH@Z
pdata	ENDS
;	COMDAT pdata
pdata	SEGMENT
$pdata$??1?$ImVector@PEAUImFont@@@@QEAA@XZ DD imagerel $LN4
	DD	imagerel $LN4+41
	DD	imagerel $unwind$??1?$ImVector@PEAUImFont@@@@QEAA@XZ
pdata	ENDS
;	COMDAT pdata
pdata	SEGMENT
$pdata$?empty@?$ImVector@PEAUImFont@@@@QEBA_NXZ DD imagerel $LN5
	DD	imagerel $LN5+44
	DD	imagerel $unwind$?empty@?$ImVector@PEAUImFont@@@@QEBA_NXZ
pdata	ENDS
;	COMDAT pdata
pdata	SEGMENT
$pdata$?clear@?$ImVector@PEAUImFont@@@@QEAAXXZ DD imagerel $LN4
	DD	imagerel $LN4+76
	DD	imagerel $unwind$?clear@?$ImVector@PEAUImFont@@@@QEAAXXZ
pdata	ENDS
;	COMDAT pdata
pdata	SEGMENT
$pdata$?_grow_capacity@?$ImVector@PEAUImFont@@@@QEBAHH@Z DD imagerel $LN7
	DD	imagerel $LN7+101
	DD	imagerel $unwind$?_grow_capacity@?$ImVector@PEAUImFont@@@@QEBAHH@Z
pdata	ENDS
;	COMDAT pdata
pdata	SEGMENT
$pdata$?reserve@?$ImVector@PEAUImFont@@@@QEAAXH@Z DD imagerel $LN5
	DD	imagerel $LN5+143
	DD	imagerel $unwind$?reserve@?$ImVector@PEAUImFont@@@@QEAAXH@Z
pdata	ENDS
;	COMDAT pdata
pdata	SEGMENT
$pdata$?push_back@?$ImVector@PEAUImFont@@@@QEAAXAEBQEAUImFont@@@Z DD imagerel $LN4
	DD	imagerel $LN4+126
	DD	imagerel $unwind$?push_back@?$ImVector@PEAUImFont@@@@QEAAXAEBQEAUImFont@@@Z
pdata	ENDS
;	COMDAT pdata
pdata	SEGMENT
$pdata$??_GImFontAtlas@@QEAAPEAXI@Z DD imagerel $LN4
	DD	imagerel $LN4+60
	DD	imagerel $unwind$??_GImFontAtlas@@QEAAPEAXI@Z
pdata	ENDS
;	COMDAT pdata
pdata	SEGMENT
$pdata$??1?$ImVector@M@@QEAA@XZ DD imagerel $LN4
	DD	imagerel $LN4+41
	DD	imagerel $unwind$??1?$ImVector@M@@QEAA@XZ
pdata	ENDS
;	COMDAT pdata
pdata	SEGMENT
$pdata$?empty@?$ImVector@M@@QEBA_NXZ DD imagerel $LN5
	DD	imagerel $LN5+44
	DD	imagerel $unwind$?empty@?$ImVector@M@@QEBA_NXZ
pdata	ENDS
;	COMDAT pdata
pdata	SEGMENT
$pdata$?_grow_capacity@?$ImVector@M@@QEBAHH@Z DD imagerel $LN7
	DD	imagerel $LN7+101
	DD	imagerel $unwind$?_grow_capacity@?$ImVector@M@@QEBAHH@Z
pdata	ENDS
;	COMDAT pdata
pdata	SEGMENT
$pdata$?resize@?$ImVector@M@@QEAAXH@Z DD imagerel $LN4
	DD	imagerel $LN4+70
	DD	imagerel $unwind$?resize@?$ImVector@M@@QEAAXH@Z
pdata	ENDS
;	COMDAT pdata
pdata	SEGMENT
$pdata$?reserve@?$ImVector@M@@QEAAXH@Z DD imagerel $LN5
	DD	imagerel $LN5+143
	DD	imagerel $unwind$?reserve@?$ImVector@M@@QEAAXH@Z
pdata	ENDS
;	COMDAT pdata
pdata	SEGMENT
$pdata$?push_back@?$ImVector@M@@QEAAXAEBM@Z DD imagerel $LN4
	DD	imagerel $LN4+126
	DD	imagerel $unwind$?push_back@?$ImVector@M@@QEAAXAEBM@Z
pdata	ENDS
pdata	SEGMENT
$pdata$?ImTextStrToUtf8@@YAHPEADHPEBG1@Z DD imagerel $LN8
	DD	imagerel $LN8+272
	DD	imagerel $unwind$?ImTextStrToUtf8@@YAHPEADHPEBG1@Z
$pdata$?ImTextCharFromUtf8@@YAHPEAIPEBD1@Z DD imagerel $LN25
	DD	imagerel $LN25+1245
	DD	imagerel $unwind$?ImTextCharFromUtf8@@YAHPEAIPEBD1@Z
$pdata$?ImTextStrFromUtf8@@YAHPEAGHPEBD1PEAPEBD@Z DD imagerel $LN9
	DD	imagerel $LN9+244
	DD	imagerel $unwind$?ImTextStrFromUtf8@@YAHPEAGHPEBD1PEAPEBD@Z
$pdata$?ImTextCountCharsFromUtf8@@YAHPEBD0@Z DD imagerel $LN8
	DD	imagerel $LN8+132
	DD	imagerel $unwind$?ImTextCountCharsFromUtf8@@YAHPEBD0@Z
$pdata$?ImTextCountUtf8BytesFromChar@@YAHPEBD0@Z DD imagerel $LN3
	DD	imagerel $LN3+47
	DD	imagerel $unwind$?ImTextCountUtf8BytesFromChar@@YAHPEBD0@Z
$pdata$?ImTextCountUtf8BytesFromStr@@YAHPEBG0@Z DD imagerel $LN8
	DD	imagerel $LN8+142
	DD	imagerel $unwind$?ImTextCountUtf8BytesFromStr@@YAHPEBG0@Z
$pdata$?ImHashData@@YAIPEBX_KI@Z DD imagerel $LN5
	DD	imagerel $LN5+152
	DD	imagerel $unwind$?ImHashData@@YAIPEBX_KI@Z
$pdata$?ImHashStr@@YAIPEBD_KI@Z DD imagerel $LN11
	DD	imagerel $LN11+409
	DD	imagerel $unwind$?ImHashStr@@YAIPEBD_KI@Z
$pdata$?ImFileLoadToMemory@@YAPEAXPEBD0PEA_KH@Z DD imagerel $LN11
	DD	imagerel $LN11+359
	DD	imagerel $unwind$?ImFileLoadToMemory@@YAPEAXPEBD0PEA_KH@Z
$pdata$?ImFileOpen@@YAPEAU_iobuf@@PEBD0@Z DD imagerel $LN4
	DD	imagerel $LN4+246
	DD	imagerel $unwind$?ImFileOpen@@YAPEAU_iobuf@@PEBD0@Z
pdata	ENDS
pdata	SEGMENT
$pdata$?dtor$0@?0??ImFileOpen@@YAPEAU_iobuf@@PEBD0@Z@4HA DD imagerel ?dtor$0@?0??ImFileOpen@@YAPEAU_iobuf@@PEBD0@Z@4HA
	DD	imagerel ?dtor$0@?0??ImFileOpen@@YAPEAU_iobuf@@PEBD0@Z@4HA+24
	DD	imagerel $unwind$?dtor$0@?0??ImFileOpen@@YAPEAU_iobuf@@PEBD0@Z@4HA
pdata	ENDS
pdata	SEGMENT
$pdata$?ImCharIsBlankA@@YA_ND@Z DD imagerel ?ImCharIsBlankA@@YA_ND@Z
	DD	imagerel ?ImCharIsBlankA@@YA_ND@Z+53
	DD	imagerel $unwind$?ImCharIsBlankA@@YA_ND@Z
$pdata$?ImLineClosestPoint@@YA?AUImVec2@@AEBU1@00@Z DD imagerel $LN5
	DD	imagerel $LN5+273
	DD	imagerel $unwind$?ImLineClosestPoint@@YA?AUImVec2@@AEBU1@00@Z
$pdata$?ImTriangleContainsPoint@@YA_NAEBUImVec2@@000@Z DD imagerel $LN11
	DD	imagerel $LN11+446
	DD	imagerel $unwind$?ImTriangleContainsPoint@@YA_NAEBUImVec2@@000@Z
$pdata$?ImTriangleClosestPoint@@YA?AUImVec2@@AEBU1@000@Z DD imagerel $LN5
	DD	imagerel $LN5+362
	DD	imagerel $unwind$?ImTriangleClosestPoint@@YA?AUImVec2@@AEBU1@000@Z
$pdata$?ImTriangleBarycentricCoords@@YAXAEBUImVec2@@000AEAM11@Z DD imagerel $LN3
	DD	imagerel $LN3+250
	DD	imagerel $unwind$?ImTriangleBarycentricCoords@@YAXAEBUImVec2@@000AEAM11@Z
$pdata$?ImGetDirQuadrantFromDelta@@YAHMM@Z DD imagerel $LN8
	DD	imagerel $LN8+136
	DD	imagerel $unwind$?ImGetDirQuadrantFromDelta@@YAHMM@Z
$pdata$?ImStricmp@@YAHPEBD0@Z DD imagerel $LN5
	DD	imagerel $LN5+114
	DD	imagerel $unwind$?ImStricmp@@YAHPEBD0@Z
$pdata$?ImStrnicmp@@YAHPEBD0_K@Z DD imagerel $LN5
	DD	imagerel $LN5+148
	DD	imagerel $unwind$?ImStrnicmp@@YAHPEBD0_K@Z
$pdata$?ImStrncpy@@YAXPEADPEBD_K@Z DD imagerel $LN5
	DD	imagerel $LN5+89
	DD	imagerel $unwind$?ImStrncpy@@YAXPEADPEBD_K@Z
$pdata$?ImStrdup@@YAPEADPEBD@Z DD imagerel $LN3
	DD	imagerel $LN3+76
	DD	imagerel $unwind$?ImStrdup@@YAPEADPEBD@Z
$pdata$?ImStrdupcpy@@YAPEADPEADPEA_KPEBD@Z DD imagerel $LN7
	DD	imagerel $LN7+171
	DD	imagerel $unwind$?ImStrdupcpy@@YAPEADPEADPEA_KPEBD@Z
$pdata$?ImStrchrRange@@YAPEBDPEBD0D@Z DD imagerel $LN3
	DD	imagerel $LN3+70
	DD	imagerel $unwind$?ImStrchrRange@@YAPEBDPEBD0D@Z
$pdata$?ImStrlenW@@YAHPEBG@Z DD imagerel $LN5
	DD	imagerel $LN5+67
	DD	imagerel $unwind$?ImStrlenW@@YAHPEBG@Z
$pdata$?ImStreolRange@@YAPEBDPEBD0@Z DD imagerel $LN5
	DD	imagerel $LN5+93
	DD	imagerel $unwind$?ImStreolRange@@YAPEBDPEBD0@Z
$pdata$?ImStristr@@YAPEBDPEBD000@Z DD imagerel $LN14
	DD	imagerel $LN14+307
	DD	imagerel $unwind$?ImStristr@@YAPEBDPEBD000@Z
$pdata$?ImStrTrimBlanks@@YAXPEAD@Z DD imagerel $LN12
	DD	imagerel $LN12+267
	DD	imagerel $unwind$?ImStrTrimBlanks@@YAXPEAD@Z
$pdata$?ImFormatString@@YAHPEAD_KPEBDZZ DD imagerel $LN6
	DD	imagerel $LN6+136
	DD	imagerel $unwind$?ImFormatString@@YAHPEAD_KPEBDZZ
$pdata$?ImFormatStringV@@YAHPEAD_KPEBD0@Z DD imagerel $LN6
	DD	imagerel $LN6+117
	DD	imagerel $unwind$?ImFormatStringV@@YAHPEAD_KPEBD0@Z
$pdata$??D@YA?AUImVec2@@AEBU0@M@Z DD imagerel ??D@YA?AUImVec2@@AEBU0@M@Z
	DD	imagerel ??D@YA?AUImVec2@@AEBU0@M@Z+74
	DD	imagerel $unwind$??D@YA?AUImVec2@@AEBU0@M@Z
$pdata$??K@YA?AUImVec2@@AEBU0@M@Z DD imagerel ??K@YA?AUImVec2@@AEBU0@M@Z
	DD	imagerel ??K@YA?AUImVec2@@AEBU0@M@Z+74
	DD	imagerel $unwind$??K@YA?AUImVec2@@AEBU0@M@Z
$pdata$??H@YA?AUImVec2@@AEBU0@0@Z DD imagerel ??H@YA?AUImVec2@@AEBU0@0@Z
	DD	imagerel ??H@YA?AUImVec2@@AEBU0@0@Z+80
	DD	imagerel $unwind$??H@YA?AUImVec2@@AEBU0@0@Z
$pdata$??G@YA?AUImVec2@@AEBU0@0@Z DD imagerel ??G@YA?AUImVec2@@AEBU0@0@Z
	DD	imagerel ??G@YA?AUImVec2@@AEBU0@0@Z+80
	DD	imagerel $unwind$??G@YA?AUImVec2@@AEBU0@0@Z
$pdata$??D@YA?AUImVec2@@AEBU0@0@Z DD imagerel ??D@YA?AUImVec2@@AEBU0@0@Z
	DD	imagerel ??D@YA?AUImVec2@@AEBU0@0@Z+80
	DD	imagerel $unwind$??D@YA?AUImVec2@@AEBU0@0@Z
$pdata$??K@YA?AUImVec2@@AEBU0@0@Z DD imagerel ??K@YA?AUImVec2@@AEBU0@0@Z
	DD	imagerel ??K@YA?AUImVec2@@AEBU0@0@Z+80
	DD	imagerel $unwind$??K@YA?AUImVec2@@AEBU0@0@Z
$pdata$?ImFabs@@YAMM@Z DD imagerel ?ImFabs@@YAMM@Z
	DD	imagerel ?ImFabs@@YAMM@Z+26
	DD	imagerel $unwind$?ImFabs@@YAMM@Z
$pdata$?ImFmod@@YAMMM@Z DD imagerel ?ImFmod@@YAMMM@Z
	DD	imagerel ?ImFmod@@YAMMM@Z+38
	DD	imagerel $unwind$?ImFmod@@YAMMM@Z
$pdata$?ImMin@@YA?AUImVec2@@AEBU1@0@Z DD imagerel ?ImMin@@YA?AUImVec2@@AEBU1@0@Z
	DD	imagerel ?ImMin@@YA?AUImVec2@@AEBU1@0@Z+157
	DD	imagerel $unwind$?ImMin@@YA?AUImVec2@@AEBU1@0@Z
$pdata$?ImMax@@YA?AUImVec2@@AEBU1@0@Z DD imagerel ?ImMax@@YA?AUImVec2@@AEBU1@0@Z
	DD	imagerel ?ImMax@@YA?AUImVec2@@AEBU1@0@Z+157
	DD	imagerel $unwind$?ImMax@@YA?AUImVec2@@AEBU1@0@Z
$pdata$?ImClamp@@YA?AUImVec2@@AEBU1@0U1@@Z DD imagerel ?ImClamp@@YA?AUImVec2@@AEBU1@0U1@@Z
	DD	imagerel ?ImClamp@@YA?AUImVec2@@AEBU1@0U1@@Z+247
	DD	imagerel $unwind$?ImClamp@@YA?AUImVec2@@AEBU1@0U1@@Z
$pdata$?ImLerp@@YA?AUImVec2@@AEBU1@00@Z DD imagerel ?ImLerp@@YA?AUImVec2@@AEBU1@00@Z
	DD	imagerel ?ImLerp@@YA?AUImVec2@@AEBU1@00@Z+137
	DD	imagerel $unwind$?ImLerp@@YA?AUImVec2@@AEBU1@00@Z
$pdata$?ImSaturate@@YAMM@Z DD imagerel ?ImSaturate@@YAMM@Z
	DD	imagerel ?ImSaturate@@YAMM@Z+94
	DD	imagerel $unwind$?ImSaturate@@YAMM@Z
$pdata$?ImFloor@@YA?AUImVec2@@AEBU1@@Z DD imagerel ?ImFloor@@YA?AUImVec2@@AEBU1@@Z
	DD	imagerel ?ImFloor@@YA?AUImVec2@@AEBU1@@Z+64
	DD	imagerel $unwind$?ImFloor@@YA?AUImVec2@@AEBU1@@Z
$pdata$??$ImMin@M@@YAMMM@Z DD imagerel ??$ImMin@M@@YAMMM@Z
	DD	imagerel ??$ImMin@M@@YAMMM@Z+63
	DD	imagerel $unwind$??$ImMin@M@@YAMMM@Z
$pdata$??$ImMax@M@@YAMMM@Z DD imagerel ??$ImMax@M@@YAMMM@Z
	DD	imagerel ??$ImMax@M@@YAMMM@Z+63
	DD	imagerel $unwind$??$ImMax@M@@YAMMM@Z
pdata	ENDS
;	COMDAT pdata
pdata	SEGMENT
$pdata$??0ImRect@@QEAA@XZ DD imagerel $LN3
	DD	imagerel $LN3+96
	DD	imagerel $unwind$??0ImRect@@QEAA@XZ
pdata	ENDS
;	COMDAT pdata
pdata	SEGMENT
$pdata$??0ImRect@@QEAA@AEBUImVec4@@@Z DD imagerel $LN3
	DD	imagerel $LN3+108
	DD	imagerel $unwind$??0ImRect@@QEAA@AEBUImVec4@@@Z
pdata	ENDS
;	COMDAT pdata
pdata	SEGMENT
$pdata$??0ImRect@@QEAA@MMMM@Z DD imagerel $LN3
	DD	imagerel $LN3+106
	DD	imagerel $unwind$??0ImRect@@QEAA@MMMM@Z
pdata	ENDS
;	COMDAT pdata
pdata	SEGMENT
$pdata$?GetSize@ImRect@@QEBA?AUImVec2@@XZ DD imagerel $LN3
	DD	imagerel $LN3+76
	DD	imagerel $unwind$?GetSize@ImRect@@QEBA?AUImVec2@@XZ
pdata	ENDS
;	COMDAT pdata
pdata	SEGMENT
$pdata$?GetTR@ImRect@@QEBA?AUImVec2@@XZ DD imagerel $LN3
	DD	imagerel $LN3+54
	DD	imagerel $unwind$?GetTR@ImRect@@QEBA?AUImVec2@@XZ
pdata	ENDS
;	COMDAT pdata
pdata	SEGMENT
$pdata$?GetBL@ImRect@@QEBA?AUImVec2@@XZ DD imagerel $LN3
	DD	imagerel $LN3+53
	DD	imagerel $unwind$?GetBL@ImRect@@QEBA?AUImVec2@@XZ
pdata	ENDS
;	COMDAT pdata
pdata	SEGMENT
$pdata$?Contains@ImRect@@QEBA_NAEBUImVec2@@@Z DD imagerel $LN5
	DD	imagerel $LN5+120
	DD	imagerel $unwind$?Contains@ImRect@@QEBA_NAEBUImVec2@@@Z
pdata	ENDS
;	COMDAT pdata
pdata	SEGMENT
$pdata$?Contains@ImRect@@QEBA_NAEBU1@@Z DD imagerel $LN5
	DD	imagerel $LN5+121
	DD	imagerel $unwind$?Contains@ImRect@@QEBA_NAEBU1@@Z
pdata	ENDS
;	COMDAT pdata
pdata	SEGMENT
$pdata$?Overlaps@ImRect@@QEBA_NAEBU1@@Z DD imagerel $LN5
	DD	imagerel $LN5+121
	DD	imagerel $unwind$?Overlaps@ImRect@@QEBA_NAEBU1@@Z
pdata	ENDS
;	COMDAT pdata
pdata	SEGMENT
$pdata$?ClipWith@ImRect@@QEAAXAEBU1@@Z DD imagerel $LN3
	DD	imagerel $LN3+102
	DD	imagerel $unwind$?ClipWith@ImRect@@QEAAXAEBU1@@Z
pdata	ENDS
;	COMDAT pdata
pdata	SEGMENT
$pdata$?ClipWithFull@ImRect@@QEAAXAEBU1@@Z DD imagerel $LN3
	DD	imagerel $LN3+116
	DD	imagerel $unwind$?ClipWithFull@ImRect@@QEAAXAEBU1@@Z
pdata	ENDS
;	COMDAT pdata
pdata	SEGMENT
$pdata$?IsInverted@ImRect@@QEBA_NXZ DD imagerel $LN5
	DD	imagerel $LN5+75
	DD	imagerel $unwind$?IsInverted@ImRect@@QEBA_NXZ
pdata	ENDS
;	COMDAT pdata
pdata	SEGMENT
$pdata$??0ImGuiColorMod@@QEAA@XZ DD imagerel $LN3
	DD	imagerel $LN3+37
	DD	imagerel $unwind$??0ImGuiColorMod@@QEAA@XZ
pdata	ENDS
;	COMDAT pdata
pdata	SEGMENT
$pdata$??0ImGuiInputTextState@@QEAA@XZ DD imagerel $LN6
	DD	imagerel $LN6+92
	DD	imagerel $unwind$??0ImGuiInputTextState@@QEAA@XZ
pdata	ENDS
;	COMDAT pdata
pdata	SEGMENT
$pdata$?dtor$0@?0???0ImGuiInputTextState@@QEAA@XZ@4HA DD imagerel ?dtor$0@?0???0ImGuiInputTextState@@QEAA@XZ@4HA
	DD	imagerel ?dtor$0@?0???0ImGuiInputTextState@@QEAA@XZ@4HA+28
	DD	imagerel $unwind$?dtor$0@?0???0ImGuiInputTextState@@QEAA@XZ@4HA
pdata	ENDS
;	COMDAT pdata
pdata	SEGMENT
$pdata$?dtor$1@?0???0ImGuiInputTextState@@QEAA@XZ@4HA DD imagerel ?dtor$1@?0???0ImGuiInputTextState@@QEAA@XZ@4HA
	DD	imagerel ?dtor$1@?0???0ImGuiInputTextState@@QEAA@XZ@4HA+28
	DD	imagerel $unwind$?dtor$1@?0???0ImGuiInputTextState@@QEAA@XZ@4HA
pdata	ENDS
;	COMDAT pdata
pdata	SEGMENT
$pdata$?dtor$2@?0???0ImGuiInputTextState@@QEAA@XZ@4HA DD imagerel ?dtor$2@?0???0ImGuiInputTextState@@QEAA@XZ@4HA
	DD	imagerel ?dtor$2@?0???0ImGuiInputTextState@@QEAA@XZ@4HA+28
	DD	imagerel $unwind$?dtor$2@?0???0ImGuiInputTextState@@QEAA@XZ@4HA
pdata	ENDS
;	COMDAT pdata
pdata	SEGMENT
$pdata$??1ImGuiInputTextState@@QEAA@XZ DD imagerel $LN6
	DD	imagerel $LN6+68
	DD	imagerel $unwind$??1ImGuiInputTextState@@QEAA@XZ
pdata	ENDS
;	COMDAT pdata
pdata	SEGMENT
$pdata$?dtor$0@?0???1ImGuiInputTextState@@QEAA@XZ@4HA DD imagerel ?dtor$0@?0???1ImGuiInputTextState@@QEAA@XZ@4HA
	DD	imagerel ?dtor$0@?0???1ImGuiInputTextState@@QEAA@XZ@4HA+28
	DD	imagerel $unwind$?dtor$0@?0???1ImGuiInputTextState@@QEAA@XZ@4HA
pdata	ENDS
;	COMDAT pdata
pdata	SEGMENT
$pdata$?dtor$1@?0???1ImGuiInputTextState@@QEAA@XZ@4HA DD imagerel ?dtor$1@?0???1ImGuiInputTextState@@QEAA@XZ@4HA
	DD	imagerel ?dtor$1@?0???1ImGuiInputTextState@@QEAA@XZ@4HA+28
	DD	imagerel $unwind$?dtor$1@?0???1ImGuiInputTextState@@QEAA@XZ@4HA
pdata	ENDS
;	COMDAT pdata
pdata	SEGMENT
$pdata$?dtor$2@?0???1ImGuiInputTextState@@QEAA@XZ@4HA DD imagerel ?dtor$2@?0???1ImGuiInputTextState@@QEAA@XZ@4HA
	DD	imagerel ?dtor$2@?0???1ImGuiInputTextState@@QEAA@XZ@4HA+28
	DD	imagerel $unwind$?dtor$2@?0???1ImGuiInputTextState@@QEAA@XZ@4HA
pdata	ENDS
;	COMDAT pdata
pdata	SEGMENT
$pdata$??0ImGuiPopupRef@@QEAA@XZ DD imagerel $LN3
	DD	imagerel $LN3+54
	DD	imagerel $unwind$??0ImGuiPopupRef@@QEAA@XZ
pdata	ENDS
;	COMDAT pdata
pdata	SEGMENT
$pdata$??0ImGuiColumnData@@QEAA@XZ DD imagerel $LN3
	DD	imagerel $LN3+73
	DD	imagerel $unwind$??0ImGuiColumnData@@QEAA@XZ
pdata	ENDS
;	COMDAT pdata
pdata	SEGMENT
$pdata$??1?$ImVector@UImGuiColumnData@@@@QEAA@XZ DD imagerel $LN4
	DD	imagerel $LN4+41
	DD	imagerel $unwind$??1?$ImVector@UImGuiColumnData@@@@QEAA@XZ
pdata	ENDS
;	COMDAT pdata
pdata	SEGMENT
$pdata$?clear@?$ImVector@UImGuiColumnData@@@@QEAAXXZ DD imagerel $LN4
	DD	imagerel $LN4+76
	DD	imagerel $unwind$?clear@?$ImVector@UImGuiColumnData@@@@QEAAXXZ
pdata	ENDS
;	COMDAT pdata
pdata	SEGMENT
$pdata$?_grow_capacity@?$ImVector@UImGuiColumnData@@@@QEBAHH@Z DD imagerel $LN7
	DD	imagerel $LN7+101
	DD	imagerel $unwind$?_grow_capacity@?$ImVector@UImGuiColumnData@@@@QEBAHH@Z
pdata	ENDS
;	COMDAT pdata
pdata	SEGMENT
$pdata$?resize@?$ImVector@UImGuiColumnData@@@@QEAAXH@Z DD imagerel $LN4
	DD	imagerel $LN4+70
	DD	imagerel $unwind$?resize@?$ImVector@UImGuiColumnData@@@@QEAAXH@Z
pdata	ENDS
;	COMDAT pdata
pdata	SEGMENT
$pdata$?reserve@?$ImVector@UImGuiColumnData@@@@QEAAXH@Z DD imagerel $LN5
	DD	imagerel $LN5+143
	DD	imagerel $unwind$?reserve@?$ImVector@UImGuiColumnData@@@@QEAAXH@Z
pdata	ENDS
;	COMDAT pdata
pdata	SEGMENT
$pdata$?push_back@?$ImVector@UImGuiColumnData@@@@QEAAXAEBUImGuiColumnData@@@Z DD imagerel $LN4
	DD	imagerel $LN4+126
	DD	imagerel $unwind$?push_back@?$ImVector@UImGuiColumnData@@@@QEAAXAEBUImGuiColumnData@@@Z
pdata	ENDS
;	COMDAT pdata
pdata	SEGMENT
$pdata$??0ImGuiColumnsSet@@QEAA@XZ DD imagerel $LN4
	DD	imagerel $LN4+48
	DD	imagerel $unwind$??0ImGuiColumnsSet@@QEAA@XZ
pdata	ENDS
;	COMDAT pdata
pdata	SEGMENT
$pdata$?dtor$0@?0???0ImGuiColumnsSet@@QEAA@XZ@4HA DD imagerel ?dtor$0@?0???0ImGuiColumnsSet@@QEAA@XZ@4HA
	DD	imagerel ?dtor$0@?0???0ImGuiColumnsSet@@QEAA@XZ@4HA+28
	DD	imagerel $unwind$?dtor$0@?0???0ImGuiColumnsSet@@QEAA@XZ@4HA
pdata	ENDS
;	COMDAT pdata
pdata	SEGMENT
$pdata$?Clear@ImGuiColumnsSet@@QEAAXXZ DD imagerel $LN3
	DD	imagerel $LN3+175
	DD	imagerel $unwind$?Clear@ImGuiColumnsSet@@QEAAXXZ
pdata	ENDS
;	COMDAT pdata
pdata	SEGMENT
$pdata$??1ImGuiColumnsSet@@QEAA@XZ DD imagerel $LN4
	DD	imagerel $LN4+32
	DD	imagerel $unwind$??1ImGuiColumnsSet@@QEAA@XZ
pdata	ENDS
;	COMDAT pdata
pdata	SEGMENT
$pdata$?dtor$0@?0???1ImGuiColumnsSet@@QEAA@XZ@4HA DD imagerel ?dtor$0@?0???1ImGuiColumnsSet@@QEAA@XZ@4HA
	DD	imagerel ?dtor$0@?0???1ImGuiColumnsSet@@QEAA@XZ@4HA+28
	DD	imagerel $unwind$?dtor$0@?0???1ImGuiColumnsSet@@QEAA@XZ@4HA
pdata	ENDS
;	COMDAT pdata
pdata	SEGMENT
$pdata$??_GImGuiColumnsSet@@QEAAPEAXI@Z DD imagerel $LN4
	DD	imagerel $LN4+60
	DD	imagerel $unwind$??_GImGuiColumnsSet@@QEAAPEAXI@Z
pdata	ENDS
;	COMDAT pdata
pdata	SEGMENT
$pdata$??1?$ImVector@PEAUImDrawList@@@@QEAA@XZ DD imagerel $LN4
	DD	imagerel $LN4+41
	DD	imagerel $unwind$??1?$ImVector@PEAUImDrawList@@@@QEAA@XZ
pdata	ENDS
;	COMDAT pdata
pdata	SEGMENT
$pdata$?empty@?$ImVector@PEAUImDrawList@@@@QEBA_NXZ DD imagerel $LN5
	DD	imagerel $LN5+44
	DD	imagerel $unwind$?empty@?$ImVector@PEAUImDrawList@@@@QEBA_NXZ
pdata	ENDS
;	COMDAT pdata
pdata	SEGMENT
$pdata$?clear@?$ImVector@PEAUImDrawList@@@@QEAAXXZ DD imagerel $LN4
	DD	imagerel $LN4+76
	DD	imagerel $unwind$?clear@?$ImVector@PEAUImDrawList@@@@QEAAXXZ
pdata	ENDS
;	COMDAT pdata
pdata	SEGMENT
$pdata$?_grow_capacity@?$ImVector@PEAUImDrawList@@@@QEBAHH@Z DD imagerel $LN7
	DD	imagerel $LN7+101
	DD	imagerel $unwind$?_grow_capacity@?$ImVector@PEAUImDrawList@@@@QEBAHH@Z
pdata	ENDS
;	COMDAT pdata
pdata	SEGMENT
$pdata$?resize@?$ImVector@PEAUImDrawList@@@@QEAAXH@Z DD imagerel $LN4
	DD	imagerel $LN4+70
	DD	imagerel $unwind$?resize@?$ImVector@PEAUImDrawList@@@@QEAAXH@Z
pdata	ENDS
;	COMDAT pdata
pdata	SEGMENT
$pdata$?reserve@?$ImVector@PEAUImDrawList@@@@QEAAXH@Z DD imagerel $LN5
	DD	imagerel $LN5+143
	DD	imagerel $unwind$?reserve@?$ImVector@PEAUImDrawList@@@@QEAAXH@Z
pdata	ENDS
;	COMDAT pdata
pdata	SEGMENT
$pdata$?push_back@?$ImVector@PEAUImDrawList@@@@QEAAXAEBQEAUImDrawList@@@Z DD imagerel $LN4
	DD	imagerel $LN4+126
	DD	imagerel $unwind$?push_back@?$ImVector@PEAUImDrawList@@@@QEAAXAEBQEAUImDrawList@@@Z
pdata	ENDS
;	COMDAT pdata
pdata	SEGMENT
$pdata$?Clear@ImDrawDataBuilder@@QEAAXXZ DD imagerel $LN6
	DD	imagerel $LN6+81
	DD	imagerel $unwind$?Clear@ImDrawDataBuilder@@QEAAXXZ
pdata	ENDS
;	COMDAT pdata
pdata	SEGMENT
$pdata$?ClearFreeMemory@ImDrawDataBuilder@@QEAAXXZ DD imagerel $LN6
	DD	imagerel $LN6+72
	DD	imagerel $unwind$?ClearFreeMemory@ImDrawDataBuilder@@QEAAXXZ
pdata	ENDS
pdata	SEGMENT
$pdata$?FlattenIntoSingleLayer@ImDrawDataBuilder@@QEAAXXZ DD imagerel $LN10
	DD	imagerel $LN10+351
	DD	imagerel $unwind$?FlattenIntoSingleLayer@ImDrawDataBuilder@@QEAAXXZ
pdata	ENDS
;	COMDAT pdata
pdata	SEGMENT
$pdata$??0ImDrawDataBuilder@@QEAA@XZ DD imagerel $LN4
	DD	imagerel $LN4+63
	DD	imagerel $unwind$??0ImDrawDataBuilder@@QEAA@XZ
pdata	ENDS
;	COMDAT pdata
pdata	SEGMENT
$pdata$?dtor$0@?0???0ImDrawDataBuilder@@QEAA@XZ@4HA DD imagerel ?dtor$0@?0???0ImDrawDataBuilder@@QEAA@XZ@4HA
	DD	imagerel ?dtor$0@?0???0ImDrawDataBuilder@@QEAA@XZ@4HA+42
	DD	imagerel $unwind$?dtor$0@?0???0ImDrawDataBuilder@@QEAA@XZ@4HA
pdata	ENDS
;	COMDAT pdata
pdata	SEGMENT
$pdata$??1ImDrawDataBuilder@@QEAA@XZ DD imagerel $LN4
	DD	imagerel $LN4+46
	DD	imagerel $unwind$??1ImDrawDataBuilder@@QEAA@XZ
pdata	ENDS
;	COMDAT pdata
pdata	SEGMENT
$pdata$?dtor$0@?0???1ImDrawDataBuilder@@QEAA@XZ@4HA DD imagerel ?dtor$0@?0???1ImDrawDataBuilder@@QEAA@XZ@4HA
	DD	imagerel ?dtor$0@?0???1ImDrawDataBuilder@@QEAA@XZ@4HA+42
	DD	imagerel $unwind$?dtor$0@?0???1ImDrawDataBuilder@@QEAA@XZ@4HA
pdata	ENDS
;	COMDAT pdata
pdata	SEGMENT
$pdata$??0ImGuiNavMoveResult@@QEAA@XZ DD imagerel $LN3
	DD	imagerel $LN3+47
	DD	imagerel $unwind$??0ImGuiNavMoveResult@@QEAA@XZ
pdata	ENDS
;	COMDAT pdata
pdata	SEGMENT
$pdata$?Clear@ImGuiNavMoveResult@@QEAAXXZ DD imagerel $LN3
	DD	imagerel $LN3+137
	DD	imagerel $unwind$?Clear@ImGuiNavMoveResult@@QEAAXXZ
pdata	ENDS
;	COMDAT pdata
pdata	SEGMENT
$pdata$??0ImGuiNextWindowData@@QEAA@XZ DD imagerel $LN3
	DD	imagerel $LN3+410
	DD	imagerel $unwind$??0ImGuiNextWindowData@@QEAA@XZ
pdata	ENDS
;	COMDAT pdata
pdata	SEGMENT
$pdata$??1?$ImVector@PEAUImGuiWindow@@@@QEAA@XZ DD imagerel $LN4
	DD	imagerel $LN4+41
	DD	imagerel $unwind$??1?$ImVector@PEAUImGuiWindow@@@@QEAA@XZ
pdata	ENDS
;	COMDAT pdata
pdata	SEGMENT
$pdata$?empty@?$ImVector@PEAUImGuiWindow@@@@QEBA_NXZ DD imagerel $LN5
	DD	imagerel $LN5+44
	DD	imagerel $unwind$?empty@?$ImVector@PEAUImGuiWindow@@@@QEBA_NXZ
pdata	ENDS
;	COMDAT pdata
pdata	SEGMENT
$pdata$?clear@?$ImVector@PEAUImGuiWindow@@@@QEAAXXZ DD imagerel $LN4
	DD	imagerel $LN4+76
	DD	imagerel $unwind$?clear@?$ImVector@PEAUImGuiWindow@@@@QEAAXXZ
pdata	ENDS
;	COMDAT pdata
pdata	SEGMENT
$pdata$?swap@?$ImVector@PEAUImGuiWindow@@@@QEAAXAEAU1@@Z DD imagerel $LN3
	DD	imagerel $LN3+139
	DD	imagerel $unwind$?swap@?$ImVector@PEAUImGuiWindow@@@@QEAAXAEAU1@@Z
pdata	ENDS
;	COMDAT pdata
pdata	SEGMENT
$pdata$?_grow_capacity@?$ImVector@PEAUImGuiWindow@@@@QEBAHH@Z DD imagerel $LN7
	DD	imagerel $LN7+101
	DD	imagerel $unwind$?_grow_capacity@?$ImVector@PEAUImGuiWindow@@@@QEBAHH@Z
pdata	ENDS
;	COMDAT pdata
pdata	SEGMENT
$pdata$?resize@?$ImVector@PEAUImGuiWindow@@@@QEAAXH@Z DD imagerel $LN4
	DD	imagerel $LN4+70
	DD	imagerel $unwind$?resize@?$ImVector@PEAUImGuiWindow@@@@QEAAXH@Z
pdata	ENDS
;	COMDAT pdata
pdata	SEGMENT
$pdata$?reserve@?$ImVector@PEAUImGuiWindow@@@@QEAAXH@Z DD imagerel $LN5
	DD	imagerel $LN5+143
	DD	imagerel $unwind$?reserve@?$ImVector@PEAUImGuiWindow@@@@QEAAXH@Z
pdata	ENDS
;	COMDAT pdata
pdata	SEGMENT
$pdata$?push_back@?$ImVector@PEAUImGuiWindow@@@@QEAAXAEBQEAUImGuiWindow@@@Z DD imagerel $LN4
	DD	imagerel $LN4+126
	DD	imagerel $unwind$?push_back@?$ImVector@PEAUImGuiWindow@@@@QEAAXAEBQEAUImGuiWindow@@@Z
pdata	ENDS
;	COMDAT pdata
pdata	SEGMENT
$pdata$?push_front@?$ImVector@PEAUImGuiWindow@@@@QEAAXAEBQEAUImGuiWindow@@@Z DD imagerel $LN5
	DD	imagerel $LN5+72
	DD	imagerel $unwind$?push_front@?$ImVector@PEAUImGuiWindow@@@@QEAAXAEBQEAUImGuiWindow@@@Z
pdata	ENDS
;	COMDAT pdata
pdata	SEGMENT
$pdata$?insert@?$ImVector@PEAUImGuiWindow@@@@QEAAPEAPEAUImGuiWindow@@PEBQEAU2@AEBQEAU2@@Z DD imagerel $LN5
	DD	imagerel $LN5+269
	DD	imagerel $unwind$?insert@?$ImVector@PEAUImGuiWindow@@@@QEAAPEAPEAUImGuiWindow@@PEBQEAU2@AEBQEAU2@@Z
pdata	ENDS
;	COMDAT pdata
pdata	SEGMENT
$pdata$??1?$ImVector@UImGuiColorMod@@@@QEAA@XZ DD imagerel $LN4
	DD	imagerel $LN4+41
	DD	imagerel $unwind$??1?$ImVector@UImGuiColorMod@@@@QEAA@XZ
pdata	ENDS
;	COMDAT pdata
pdata	SEGMENT
$pdata$?clear@?$ImVector@UImGuiColorMod@@@@QEAAXXZ DD imagerel $LN4
	DD	imagerel $LN4+76
	DD	imagerel $unwind$?clear@?$ImVector@UImGuiColorMod@@@@QEAAXXZ
pdata	ENDS
;	COMDAT pdata
pdata	SEGMENT
$pdata$?_grow_capacity@?$ImVector@UImGuiColorMod@@@@QEBAHH@Z DD imagerel $LN7
	DD	imagerel $LN7+101
	DD	imagerel $unwind$?_grow_capacity@?$ImVector@UImGuiColorMod@@@@QEBAHH@Z
pdata	ENDS
;	COMDAT pdata
pdata	SEGMENT
$pdata$?reserve@?$ImVector@UImGuiColorMod@@@@QEAAXH@Z DD imagerel $LN5
	DD	imagerel $LN5+143
	DD	imagerel $unwind$?reserve@?$ImVector@UImGuiColorMod@@@@QEAAXH@Z
pdata	ENDS
;	COMDAT pdata
pdata	SEGMENT
$pdata$?push_back@?$ImVector@UImGuiColorMod@@@@QEAAXAEBUImGuiColorMod@@@Z DD imagerel $LN4
	DD	imagerel $LN4+126
	DD	imagerel $unwind$?push_back@?$ImVector@UImGuiColorMod@@@@QEAAXAEBUImGuiColorMod@@@Z
pdata	ENDS
;	COMDAT pdata
pdata	SEGMENT
$pdata$??1?$ImVector@UImGuiStyleMod@@@@QEAA@XZ DD imagerel $LN4
	DD	imagerel $LN4+41
	DD	imagerel $unwind$??1?$ImVector@UImGuiStyleMod@@@@QEAA@XZ
pdata	ENDS
;	COMDAT pdata
pdata	SEGMENT
$pdata$?clear@?$ImVector@UImGuiStyleMod@@@@QEAAXXZ DD imagerel $LN4
	DD	imagerel $LN4+76
	DD	imagerel $unwind$?clear@?$ImVector@UImGuiStyleMod@@@@QEAAXXZ
pdata	ENDS
;	COMDAT pdata
pdata	SEGMENT
$pdata$?_grow_capacity@?$ImVector@UImGuiStyleMod@@@@QEBAHH@Z DD imagerel $LN7
	DD	imagerel $LN7+101
	DD	imagerel $unwind$?_grow_capacity@?$ImVector@UImGuiStyleMod@@@@QEBAHH@Z
pdata	ENDS
;	COMDAT pdata
pdata	SEGMENT
$pdata$?reserve@?$ImVector@UImGuiStyleMod@@@@QEAAXH@Z DD imagerel $LN5
	DD	imagerel $LN5+143
	DD	imagerel $unwind$?reserve@?$ImVector@UImGuiStyleMod@@@@QEAAXH@Z
pdata	ENDS
;	COMDAT pdata
pdata	SEGMENT
$pdata$?push_back@?$ImVector@UImGuiStyleMod@@@@QEAAXAEBUImGuiStyleMod@@@Z DD imagerel $LN4
	DD	imagerel $LN4+126
	DD	imagerel $unwind$?push_back@?$ImVector@UImGuiStyleMod@@@@QEAAXAEBUImGuiStyleMod@@@Z
pdata	ENDS
;	COMDAT pdata
pdata	SEGMENT
$pdata$??1?$ImVector@UImGuiPopupRef@@@@QEAA@XZ DD imagerel $LN4
	DD	imagerel $LN4+41
	DD	imagerel $unwind$??1?$ImVector@UImGuiPopupRef@@@@QEAA@XZ
pdata	ENDS
;	COMDAT pdata
pdata	SEGMENT
$pdata$?empty@?$ImVector@UImGuiPopupRef@@@@QEBA_NXZ DD imagerel $LN5
	DD	imagerel $LN5+44
	DD	imagerel $unwind$?empty@?$ImVector@UImGuiPopupRef@@@@QEBA_NXZ
pdata	ENDS
;	COMDAT pdata
pdata	SEGMENT
$pdata$?clear@?$ImVector@UImGuiPopupRef@@@@QEAAXXZ DD imagerel $LN4
	DD	imagerel $LN4+76
	DD	imagerel $unwind$?clear@?$ImVector@UImGuiPopupRef@@@@QEAAXXZ
pdata	ENDS
;	COMDAT pdata
pdata	SEGMENT
$pdata$?_grow_capacity@?$ImVector@UImGuiPopupRef@@@@QEBAHH@Z DD imagerel $LN7
	DD	imagerel $LN7+101
	DD	imagerel $unwind$?_grow_capacity@?$ImVector@UImGuiPopupRef@@@@QEBAHH@Z
pdata	ENDS
;	COMDAT pdata
pdata	SEGMENT
$pdata$?resize@?$ImVector@UImGuiPopupRef@@@@QEAAXH@Z DD imagerel $LN4
	DD	imagerel $LN4+70
	DD	imagerel $unwind$?resize@?$ImVector@UImGuiPopupRef@@@@QEAAXH@Z
pdata	ENDS
;	COMDAT pdata
pdata	SEGMENT
$pdata$?reserve@?$ImVector@UImGuiPopupRef@@@@QEAAXH@Z DD imagerel $LN5
	DD	imagerel $LN5+143
	DD	imagerel $unwind$?reserve@?$ImVector@UImGuiPopupRef@@@@QEAAXH@Z
pdata	ENDS
;	COMDAT pdata
pdata	SEGMENT
$pdata$?push_back@?$ImVector@UImGuiPopupRef@@@@QEAAXAEBUImGuiPopupRef@@@Z DD imagerel $LN4
	DD	imagerel $LN4+126
	DD	imagerel $unwind$?push_back@?$ImVector@UImGuiPopupRef@@@@QEAAXAEBUImGuiPopupRef@@@Z
pdata	ENDS
;	COMDAT pdata
pdata	SEGMENT
$pdata$??1?$ImVector@E@@QEAA@XZ DD imagerel $LN4
	DD	imagerel $LN4+41
	DD	imagerel $unwind$??1?$ImVector@E@@QEAA@XZ
pdata	ENDS
;	COMDAT pdata
pdata	SEGMENT
$pdata$?clear@?$ImVector@E@@QEAAXXZ DD imagerel $LN4
	DD	imagerel $LN4+76
	DD	imagerel $unwind$?clear@?$ImVector@E@@QEAAXXZ
pdata	ENDS
;	COMDAT pdata
pdata	SEGMENT
$pdata$?_grow_capacity@?$ImVector@E@@QEBAHH@Z DD imagerel $LN7
	DD	imagerel $LN7+101
	DD	imagerel $unwind$?_grow_capacity@?$ImVector@E@@QEBAHH@Z
pdata	ENDS
;	COMDAT pdata
pdata	SEGMENT
$pdata$?resize@?$ImVector@E@@QEAAXH@Z DD imagerel $LN4
	DD	imagerel $LN4+70
	DD	imagerel $unwind$?resize@?$ImVector@E@@QEAAXH@Z
pdata	ENDS
;	COMDAT pdata
pdata	SEGMENT
$pdata$?reserve@?$ImVector@E@@QEAAXH@Z DD imagerel $LN5
	DD	imagerel $LN5+135
	DD	imagerel $unwind$?reserve@?$ImVector@E@@QEAAXH@Z
pdata	ENDS
;	COMDAT pdata
pdata	SEGMENT
$pdata$??1?$ImVector@UImGuiTabBar@@@@QEAA@XZ DD imagerel $LN4
	DD	imagerel $LN4+41
	DD	imagerel $unwind$??1?$ImVector@UImGuiTabBar@@@@QEAA@XZ
pdata	ENDS
;	COMDAT pdata
pdata	SEGMENT
$pdata$?clear@?$ImVector@UImGuiTabBar@@@@QEAAXXZ DD imagerel $LN4
	DD	imagerel $LN4+76
	DD	imagerel $unwind$?clear@?$ImVector@UImGuiTabBar@@@@QEAAXXZ
pdata	ENDS
;	COMDAT pdata
pdata	SEGMENT
$pdata$??0?$ImPool@UImGuiTabBar@@@@QEAA@XZ DD imagerel $LN5
	DD	imagerel $LN5+63
	DD	imagerel $unwind$??0?$ImPool@UImGuiTabBar@@@@QEAA@XZ
pdata	ENDS
;	COMDAT pdata
pdata	SEGMENT
$pdata$?dtor$0@?0???0?$ImPool@UImGuiTabBar@@@@QEAA@XZ@4HA DD imagerel ?dtor$0@?0???0?$ImPool@UImGuiTabBar@@@@QEAA@XZ@4HA
	DD	imagerel ?dtor$0@?0???0?$ImPool@UImGuiTabBar@@@@QEAA@XZ@4HA+24
	DD	imagerel $unwind$?dtor$0@?0???0?$ImPool@UImGuiTabBar@@@@QEAA@XZ@4HA
pdata	ENDS
;	COMDAT pdata
pdata	SEGMENT
$pdata$?dtor$1@?0???0?$ImPool@UImGuiTabBar@@@@QEAA@XZ@4HA DD imagerel ?dtor$1@?0???0?$ImPool@UImGuiTabBar@@@@QEAA@XZ@4HA
	DD	imagerel ?dtor$1@?0???0?$ImPool@UImGuiTabBar@@@@QEAA@XZ@4HA+28
	DD	imagerel $unwind$?dtor$1@?0???0?$ImPool@UImGuiTabBar@@@@QEAA@XZ@4HA
pdata	ENDS
;	COMDAT pdata
pdata	SEGMENT
$pdata$??1?$ImPool@UImGuiTabBar@@@@QEAA@XZ DD imagerel $LN5
	DD	imagerel $LN5+57
	DD	imagerel $unwind$??1?$ImPool@UImGuiTabBar@@@@QEAA@XZ
pdata	ENDS
;	COMDAT pdata
pdata	SEGMENT
$pdata$?dtor$0@?0???1?$ImPool@UImGuiTabBar@@@@QEAA@XZ@4HA DD imagerel ?dtor$0@?0???1?$ImPool@UImGuiTabBar@@@@QEAA@XZ@4HA
	DD	imagerel ?dtor$0@?0???1?$ImPool@UImGuiTabBar@@@@QEAA@XZ@4HA+24
	DD	imagerel $unwind$?dtor$0@?0???1?$ImPool@UImGuiTabBar@@@@QEAA@XZ@4HA
pdata	ENDS
;	COMDAT pdata
pdata	SEGMENT
$pdata$?dtor$1@?0???1?$ImPool@UImGuiTabBar@@@@QEAA@XZ@4HA DD imagerel ?dtor$1@?0???1?$ImPool@UImGuiTabBar@@@@QEAA@XZ@4HA
	DD	imagerel ?dtor$1@?0???1?$ImPool@UImGuiTabBar@@@@QEAA@XZ@4HA+28
	DD	imagerel $unwind$?dtor$1@?0???1?$ImPool@UImGuiTabBar@@@@QEAA@XZ@4HA
pdata	ENDS
;	COMDAT pdata
pdata	SEGMENT
$pdata$?GetByIndex@?$ImPool@UImGuiTabBar@@@@QEAAPEAUImGuiTabBar@@H@Z DD imagerel $LN3
	DD	imagerel $LN3+42
	DD	imagerel $unwind$?GetByIndex@?$ImPool@UImGuiTabBar@@@@QEAAPEAUImGuiTabBar@@H@Z
pdata	ENDS
;	COMDAT pdata
pdata	SEGMENT
$pdata$?Clear@?$ImPool@UImGuiTabBar@@@@QEAAXXZ DD imagerel $LN7
	DD	imagerel $LN7+176
	DD	imagerel $unwind$?Clear@?$ImPool@UImGuiTabBar@@@@QEAAXXZ
pdata	ENDS
;	COMDAT pdata
pdata	SEGMENT
$pdata$??1?$ImVector@UImGuiTabBarSortItem@@@@QEAA@XZ DD imagerel $LN4
	DD	imagerel $LN4+41
	DD	imagerel $unwind$??1?$ImVector@UImGuiTabBarSortItem@@@@QEAA@XZ
pdata	ENDS
;	COMDAT pdata
pdata	SEGMENT
$pdata$??1?$ImVector@PEAUImGuiTabBar@@@@QEAA@XZ DD imagerel $LN4
	DD	imagerel $LN4+41
	DD	imagerel $unwind$??1?$ImVector@PEAUImGuiTabBar@@@@QEAA@XZ
pdata	ENDS
;	COMDAT pdata
pdata	SEGMENT
$pdata$??0ImGuiContext@@QEAA@PEAUImFontAtlas@@@Z DD imagerel $LN31
	DD	imagerel $LN31+3169
	DD	imagerel $unwind$??0ImGuiContext@@QEAA@PEAUImFontAtlas@@@Z
pdata	ENDS
;	COMDAT pdata
pdata	SEGMENT
$pdata$?dtor$0@?0???0ImGuiContext@@QEAA@PEAUImFontAtlas@@@Z@4HA DD imagerel ?dtor$0@?0???0ImGuiContext@@QEAA@PEAUImFontAtlas@@@Z@4HA
	DD	imagerel ?dtor$0@?0???0ImGuiContext@@QEAA@PEAUImFontAtlas@@@Z@4HA+31
	DD	imagerel $unwind$?dtor$0@?0???0ImGuiContext@@QEAA@PEAUImFontAtlas@@@Z@4HA
pdata	ENDS
;	COMDAT pdata
pdata	SEGMENT
$pdata$?dtor$1@?0???0ImGuiContext@@QEAA@PEAUImFontAtlas@@@Z@4HA DD imagerel ?dtor$1@?0???0ImGuiContext@@QEAA@PEAUImFontAtlas@@@Z@4HA
	DD	imagerel ?dtor$1@?0???0ImGuiContext@@QEAA@PEAUImFontAtlas@@@Z@4HA+34
	DD	imagerel $unwind$?dtor$1@?0???0ImGuiContext@@QEAA@PEAUImFontAtlas@@@Z@4HA
pdata	ENDS
;	COMDAT pdata
pdata	SEGMENT
$pdata$?dtor$2@?0???0ImGuiContext@@QEAA@PEAUImFontAtlas@@@Z@4HA DD imagerel ?dtor$2@?0???0ImGuiContext@@QEAA@PEAUImFontAtlas@@@Z@4HA
	DD	imagerel ?dtor$2@?0???0ImGuiContext@@QEAA@PEAUImFontAtlas@@@Z@4HA+34
	DD	imagerel $unwind$?dtor$2@?0???0ImGuiContext@@QEAA@PEAUImFontAtlas@@@Z@4HA
pdata	ENDS
;	COMDAT pdata
pdata	SEGMENT
$pdata$?dtor$3@?0???0ImGuiContext@@QEAA@PEAUImFontAtlas@@@Z@4HA DD imagerel ?dtor$3@?0???0ImGuiContext@@QEAA@PEAUImFontAtlas@@@Z@4HA
	DD	imagerel ?dtor$3@?0???0ImGuiContext@@QEAA@PEAUImFontAtlas@@@Z@4HA+34
	DD	imagerel $unwind$?dtor$3@?0???0ImGuiContext@@QEAA@PEAUImFontAtlas@@@Z@4HA
pdata	ENDS
;	COMDAT pdata
pdata	SEGMENT
$pdata$?dtor$4@?0???0ImGuiContext@@QEAA@PEAUImFontAtlas@@@Z@4HA DD imagerel ?dtor$4@?0???0ImGuiContext@@QEAA@PEAUImFontAtlas@@@Z@4HA
	DD	imagerel ?dtor$4@?0???0ImGuiContext@@QEAA@PEAUImFontAtlas@@@Z@4HA+34
	DD	imagerel $unwind$?dtor$4@?0???0ImGuiContext@@QEAA@PEAUImFontAtlas@@@Z@4HA
pdata	ENDS
;	COMDAT pdata
pdata	SEGMENT
$pdata$?dtor$5@?0???0ImGuiContext@@QEAA@PEAUImFontAtlas@@@Z@4HA DD imagerel ?dtor$5@?0???0ImGuiContext@@QEAA@PEAUImFontAtlas@@@Z@4HA
	DD	imagerel ?dtor$5@?0???0ImGuiContext@@QEAA@PEAUImFontAtlas@@@Z@4HA+34
	DD	imagerel $unwind$?dtor$5@?0???0ImGuiContext@@QEAA@PEAUImFontAtlas@@@Z@4HA
pdata	ENDS
;	COMDAT pdata
pdata	SEGMENT
$pdata$?dtor$6@?0???0ImGuiContext@@QEAA@PEAUImFontAtlas@@@Z@4HA DD imagerel ?dtor$6@?0???0ImGuiContext@@QEAA@PEAUImFontAtlas@@@Z@4HA
	DD	imagerel ?dtor$6@?0???0ImGuiContext@@QEAA@PEAUImFontAtlas@@@Z@4HA+34
	DD	imagerel $unwind$?dtor$6@?0???0ImGuiContext@@QEAA@PEAUImFontAtlas@@@Z@4HA
pdata	ENDS
;	COMDAT pdata
pdata	SEGMENT
$pdata$?dtor$7@?0???0ImGuiContext@@QEAA@PEAUImFontAtlas@@@Z@4HA DD imagerel ?dtor$7@?0???0ImGuiContext@@QEAA@PEAUImFontAtlas@@@Z@4HA
	DD	imagerel ?dtor$7@?0???0ImGuiContext@@QEAA@PEAUImFontAtlas@@@Z@4HA+34
	DD	imagerel $unwind$?dtor$7@?0???0ImGuiContext@@QEAA@PEAUImFontAtlas@@@Z@4HA
pdata	ENDS
;	COMDAT pdata
pdata	SEGMENT
$pdata$?dtor$8@?0???0ImGuiContext@@QEAA@PEAUImFontAtlas@@@Z@4HA DD imagerel ?dtor$8@?0???0ImGuiContext@@QEAA@PEAUImFontAtlas@@@Z@4HA
	DD	imagerel ?dtor$8@?0???0ImGuiContext@@QEAA@PEAUImFontAtlas@@@Z@4HA+34
	DD	imagerel $unwind$?dtor$8@?0???0ImGuiContext@@QEAA@PEAUImFontAtlas@@@Z@4HA
pdata	ENDS
;	COMDAT pdata
pdata	SEGMENT
$pdata$?dtor$9@?0???0ImGuiContext@@QEAA@PEAUImFontAtlas@@@Z@4HA DD imagerel ?dtor$9@?0???0ImGuiContext@@QEAA@PEAUImFontAtlas@@@Z@4HA
	DD	imagerel ?dtor$9@?0???0ImGuiContext@@QEAA@PEAUImFontAtlas@@@Z@4HA+34
	DD	imagerel $unwind$?dtor$9@?0???0ImGuiContext@@QEAA@PEAUImFontAtlas@@@Z@4HA
pdata	ENDS
;	COMDAT pdata
pdata	SEGMENT
$pdata$?dtor$10@?0???0ImGuiContext@@QEAA@PEAUImFontAtlas@@@Z@4HA DD imagerel ?dtor$10@?0???0ImGuiContext@@QEAA@PEAUImFontAtlas@@@Z@4HA
	DD	imagerel ?dtor$10@?0???0ImGuiContext@@QEAA@PEAUImFontAtlas@@@Z@4HA+34
	DD	imagerel $unwind$?dtor$10@?0???0ImGuiContext@@QEAA@PEAUImFontAtlas@@@Z@4HA
pdata	ENDS
;	COMDAT pdata
pdata	SEGMENT
$pdata$?dtor$11@?0???0ImGuiContext@@QEAA@PEAUImFontAtlas@@@Z@4HA DD imagerel ?dtor$11@?0???0ImGuiContext@@QEAA@PEAUImFontAtlas@@@Z@4HA
	DD	imagerel ?dtor$11@?0???0ImGuiContext@@QEAA@PEAUImFontAtlas@@@Z@4HA+34
	DD	imagerel $unwind$?dtor$11@?0???0ImGuiContext@@QEAA@PEAUImFontAtlas@@@Z@4HA
pdata	ENDS
;	COMDAT pdata
pdata	SEGMENT
$pdata$?dtor$12@?0???0ImGuiContext@@QEAA@PEAUImFontAtlas@@@Z@4HA DD imagerel ?dtor$12@?0???0ImGuiContext@@QEAA@PEAUImFontAtlas@@@Z@4HA
	DD	imagerel ?dtor$12@?0???0ImGuiContext@@QEAA@PEAUImFontAtlas@@@Z@4HA+34
	DD	imagerel $unwind$?dtor$12@?0???0ImGuiContext@@QEAA@PEAUImFontAtlas@@@Z@4HA
pdata	ENDS
;	COMDAT pdata
pdata	SEGMENT
$pdata$?dtor$13@?0???0ImGuiContext@@QEAA@PEAUImFontAtlas@@@Z@4HA DD imagerel ?dtor$13@?0???0ImGuiContext@@QEAA@PEAUImFontAtlas@@@Z@4HA
	DD	imagerel ?dtor$13@?0???0ImGuiContext@@QEAA@PEAUImFontAtlas@@@Z@4HA+34
	DD	imagerel $unwind$?dtor$13@?0???0ImGuiContext@@QEAA@PEAUImFontAtlas@@@Z@4HA
pdata	ENDS
;	COMDAT pdata
pdata	SEGMENT
$pdata$?dtor$14@?0???0ImGuiContext@@QEAA@PEAUImFontAtlas@@@Z@4HA DD imagerel ?dtor$14@?0???0ImGuiContext@@QEAA@PEAUImFontAtlas@@@Z@4HA
	DD	imagerel ?dtor$14@?0???0ImGuiContext@@QEAA@PEAUImFontAtlas@@@Z@4HA+34
	DD	imagerel $unwind$?dtor$14@?0???0ImGuiContext@@QEAA@PEAUImFontAtlas@@@Z@4HA
pdata	ENDS
;	COMDAT pdata
pdata	SEGMENT
$pdata$?dtor$15@?0???0ImGuiContext@@QEAA@PEAUImFontAtlas@@@Z@4HA DD imagerel ?dtor$15@?0???0ImGuiContext@@QEAA@PEAUImFontAtlas@@@Z@4HA
	DD	imagerel ?dtor$15@?0???0ImGuiContext@@QEAA@PEAUImFontAtlas@@@Z@4HA+34
	DD	imagerel $unwind$?dtor$15@?0???0ImGuiContext@@QEAA@PEAUImFontAtlas@@@Z@4HA
pdata	ENDS
;	COMDAT pdata
pdata	SEGMENT
$pdata$?dtor$16@?0???0ImGuiContext@@QEAA@PEAUImFontAtlas@@@Z@4HA DD imagerel ?dtor$16@?0???0ImGuiContext@@QEAA@PEAUImFontAtlas@@@Z@4HA
	DD	imagerel ?dtor$16@?0???0ImGuiContext@@QEAA@PEAUImFontAtlas@@@Z@4HA+34
	DD	imagerel $unwind$?dtor$16@?0???0ImGuiContext@@QEAA@PEAUImFontAtlas@@@Z@4HA
pdata	ENDS
;	COMDAT pdata
pdata	SEGMENT
$pdata$?dtor$17@?0???0ImGuiContext@@QEAA@PEAUImFontAtlas@@@Z@4HA DD imagerel ?dtor$17@?0???0ImGuiContext@@QEAA@PEAUImFontAtlas@@@Z@4HA
	DD	imagerel ?dtor$17@?0???0ImGuiContext@@QEAA@PEAUImFontAtlas@@@Z@4HA+34
	DD	imagerel $unwind$?dtor$17@?0???0ImGuiContext@@QEAA@PEAUImFontAtlas@@@Z@4HA
pdata	ENDS
;	COMDAT pdata
pdata	SEGMENT
$pdata$?dtor$18@?0???0ImGuiContext@@QEAA@PEAUImFontAtlas@@@Z@4HA DD imagerel ?dtor$18@?0???0ImGuiContext@@QEAA@PEAUImFontAtlas@@@Z@4HA
	DD	imagerel ?dtor$18@?0???0ImGuiContext@@QEAA@PEAUImFontAtlas@@@Z@4HA+34
	DD	imagerel $unwind$?dtor$18@?0???0ImGuiContext@@QEAA@PEAUImFontAtlas@@@Z@4HA
pdata	ENDS
;	COMDAT pdata
pdata	SEGMENT
$pdata$?dtor$19@?0???0ImGuiContext@@QEAA@PEAUImFontAtlas@@@Z@4HA DD imagerel ?dtor$19@?0???0ImGuiContext@@QEAA@PEAUImFontAtlas@@@Z@4HA
	DD	imagerel ?dtor$19@?0???0ImGuiContext@@QEAA@PEAUImFontAtlas@@@Z@4HA+34
	DD	imagerel $unwind$?dtor$19@?0???0ImGuiContext@@QEAA@PEAUImFontAtlas@@@Z@4HA
pdata	ENDS
;	COMDAT pdata
pdata	SEGMENT
$pdata$?dtor$20@?0???0ImGuiContext@@QEAA@PEAUImFontAtlas@@@Z@4HA DD imagerel ?dtor$20@?0???0ImGuiContext@@QEAA@PEAUImFontAtlas@@@Z@4HA
	DD	imagerel ?dtor$20@?0???0ImGuiContext@@QEAA@PEAUImFontAtlas@@@Z@4HA+34
	DD	imagerel $unwind$?dtor$20@?0???0ImGuiContext@@QEAA@PEAUImFontAtlas@@@Z@4HA
pdata	ENDS
;	COMDAT pdata
pdata	SEGMENT
$pdata$?dtor$21@?0???0ImGuiContext@@QEAA@PEAUImFontAtlas@@@Z@4HA DD imagerel ?dtor$21@?0???0ImGuiContext@@QEAA@PEAUImFontAtlas@@@Z@4HA
	DD	imagerel ?dtor$21@?0???0ImGuiContext@@QEAA@PEAUImFontAtlas@@@Z@4HA+35
	DD	imagerel $unwind$?dtor$21@?0???0ImGuiContext@@QEAA@PEAUImFontAtlas@@@Z@4HA
pdata	ENDS
;	COMDAT pdata
pdata	SEGMENT
$pdata$??1ImGuiContext@@QEAA@XZ DD imagerel $LN24
	DD	imagerel $LN24+432
	DD	imagerel $unwind$??1ImGuiContext@@QEAA@XZ
pdata	ENDS
;	COMDAT pdata
pdata	SEGMENT
$pdata$?dtor$0@?0???1ImGuiContext@@QEAA@XZ@4HA DD imagerel ?dtor$0@?0???1ImGuiContext@@QEAA@XZ@4HA
	DD	imagerel ?dtor$0@?0???1ImGuiContext@@QEAA@XZ@4HA+28
	DD	imagerel $unwind$?dtor$0@?0???1ImGuiContext@@QEAA@XZ@4HA
pdata	ENDS
;	COMDAT pdata
pdata	SEGMENT
$pdata$?dtor$1@?0???1ImGuiContext@@QEAA@XZ@4HA DD imagerel ?dtor$1@?0???1ImGuiContext@@QEAA@XZ@4HA
	DD	imagerel ?dtor$1@?0???1ImGuiContext@@QEAA@XZ@4HA+31
	DD	imagerel $unwind$?dtor$1@?0???1ImGuiContext@@QEAA@XZ@4HA
pdata	ENDS
;	COMDAT pdata
pdata	SEGMENT
$pdata$?dtor$2@?0???1ImGuiContext@@QEAA@XZ@4HA DD imagerel ?dtor$2@?0???1ImGuiContext@@QEAA@XZ@4HA
	DD	imagerel ?dtor$2@?0???1ImGuiContext@@QEAA@XZ@4HA+31
	DD	imagerel $unwind$?dtor$2@?0???1ImGuiContext@@QEAA@XZ@4HA
pdata	ENDS
;	COMDAT pdata
pdata	SEGMENT
$pdata$?dtor$3@?0???1ImGuiContext@@QEAA@XZ@4HA DD imagerel ?dtor$3@?0???1ImGuiContext@@QEAA@XZ@4HA
	DD	imagerel ?dtor$3@?0???1ImGuiContext@@QEAA@XZ@4HA+31
	DD	imagerel $unwind$?dtor$3@?0???1ImGuiContext@@QEAA@XZ@4HA
pdata	ENDS
;	COMDAT pdata
pdata	SEGMENT
$pdata$?dtor$4@?0???1ImGuiContext@@QEAA@XZ@4HA DD imagerel ?dtor$4@?0???1ImGuiContext@@QEAA@XZ@4HA
	DD	imagerel ?dtor$4@?0???1ImGuiContext@@QEAA@XZ@4HA+31
	DD	imagerel $unwind$?dtor$4@?0???1ImGuiContext@@QEAA@XZ@4HA
pdata	ENDS
;	COMDAT pdata
pdata	SEGMENT
$pdata$?dtor$5@?0???1ImGuiContext@@QEAA@XZ@4HA DD imagerel ?dtor$5@?0???1ImGuiContext@@QEAA@XZ@4HA
	DD	imagerel ?dtor$5@?0???1ImGuiContext@@QEAA@XZ@4HA+31
	DD	imagerel $unwind$?dtor$5@?0???1ImGuiContext@@QEAA@XZ@4HA
pdata	ENDS
;	COMDAT pdata
pdata	SEGMENT
$pdata$?dtor$6@?0???1ImGuiContext@@QEAA@XZ@4HA DD imagerel ?dtor$6@?0???1ImGuiContext@@QEAA@XZ@4HA
	DD	imagerel ?dtor$6@?0???1ImGuiContext@@QEAA@XZ@4HA+31
	DD	imagerel $unwind$?dtor$6@?0???1ImGuiContext@@QEAA@XZ@4HA
pdata	ENDS
;	COMDAT pdata
pdata	SEGMENT
$pdata$?dtor$7@?0???1ImGuiContext@@QEAA@XZ@4HA DD imagerel ?dtor$7@?0???1ImGuiContext@@QEAA@XZ@4HA
	DD	imagerel ?dtor$7@?0???1ImGuiContext@@QEAA@XZ@4HA+31
	DD	imagerel $unwind$?dtor$7@?0???1ImGuiContext@@QEAA@XZ@4HA
pdata	ENDS
;	COMDAT pdata
pdata	SEGMENT
$pdata$?dtor$8@?0???1ImGuiContext@@QEAA@XZ@4HA DD imagerel ?dtor$8@?0???1ImGuiContext@@QEAA@XZ@4HA
	DD	imagerel ?dtor$8@?0???1ImGuiContext@@QEAA@XZ@4HA+31
	DD	imagerel $unwind$?dtor$8@?0???1ImGuiContext@@QEAA@XZ@4HA
pdata	ENDS
;	COMDAT pdata
pdata	SEGMENT
$pdata$?dtor$9@?0???1ImGuiContext@@QEAA@XZ@4HA DD imagerel ?dtor$9@?0???1ImGuiContext@@QEAA@XZ@4HA
	DD	imagerel ?dtor$9@?0???1ImGuiContext@@QEAA@XZ@4HA+31
	DD	imagerel $unwind$?dtor$9@?0???1ImGuiContext@@QEAA@XZ@4HA
pdata	ENDS
;	COMDAT pdata
pdata	SEGMENT
$pdata$?dtor$10@?0???1ImGuiContext@@QEAA@XZ@4HA DD imagerel ?dtor$10@?0???1ImGuiContext@@QEAA@XZ@4HA
	DD	imagerel ?dtor$10@?0???1ImGuiContext@@QEAA@XZ@4HA+31
	DD	imagerel $unwind$?dtor$10@?0???1ImGuiContext@@QEAA@XZ@4HA
pdata	ENDS
;	COMDAT pdata
pdata	SEGMENT
$pdata$?dtor$11@?0???1ImGuiContext@@QEAA@XZ@4HA DD imagerel ?dtor$11@?0???1ImGuiContext@@QEAA@XZ@4HA
	DD	imagerel ?dtor$11@?0???1ImGuiContext@@QEAA@XZ@4HA+31
	DD	imagerel $unwind$?dtor$11@?0???1ImGuiContext@@QEAA@XZ@4HA
pdata	ENDS
;	COMDAT pdata
pdata	SEGMENT
$pdata$?dtor$12@?0???1ImGuiContext@@QEAA@XZ@4HA DD imagerel ?dtor$12@?0???1ImGuiContext@@QEAA@XZ@4HA
	DD	imagerel ?dtor$12@?0???1ImGuiContext@@QEAA@XZ@4HA+31
	DD	imagerel $unwind$?dtor$12@?0???1ImGuiContext@@QEAA@XZ@4HA
pdata	ENDS
;	COMDAT pdata
pdata	SEGMENT
$pdata$?dtor$13@?0???1ImGuiContext@@QEAA@XZ@4HA DD imagerel ?dtor$13@?0???1ImGuiContext@@QEAA@XZ@4HA
	DD	imagerel ?dtor$13@?0???1ImGuiContext@@QEAA@XZ@4HA+31
	DD	imagerel $unwind$?dtor$13@?0???1ImGuiContext@@QEAA@XZ@4HA
pdata	ENDS
;	COMDAT pdata
pdata	SEGMENT
$pdata$?dtor$14@?0???1ImGuiContext@@QEAA@XZ@4HA DD imagerel ?dtor$14@?0???1ImGuiContext@@QEAA@XZ@4HA
	DD	imagerel ?dtor$14@?0???1ImGuiContext@@QEAA@XZ@4HA+31
	DD	imagerel $unwind$?dtor$14@?0???1ImGuiContext@@QEAA@XZ@4HA
pdata	ENDS
;	COMDAT pdata
pdata	SEGMENT
$pdata$?dtor$15@?0???1ImGuiContext@@QEAA@XZ@4HA DD imagerel ?dtor$15@?0???1ImGuiContext@@QEAA@XZ@4HA
	DD	imagerel ?dtor$15@?0???1ImGuiContext@@QEAA@XZ@4HA+31
	DD	imagerel $unwind$?dtor$15@?0???1ImGuiContext@@QEAA@XZ@4HA
pdata	ENDS
;	COMDAT pdata
pdata	SEGMENT
$pdata$?dtor$16@?0???1ImGuiContext@@QEAA@XZ@4HA DD imagerel ?dtor$16@?0???1ImGuiContext@@QEAA@XZ@4HA
	DD	imagerel ?dtor$16@?0???1ImGuiContext@@QEAA@XZ@4HA+31
	DD	imagerel $unwind$?dtor$16@?0???1ImGuiContext@@QEAA@XZ@4HA
pdata	ENDS
;	COMDAT pdata
pdata	SEGMENT
$pdata$?dtor$17@?0???1ImGuiContext@@QEAA@XZ@4HA DD imagerel ?dtor$17@?0???1ImGuiContext@@QEAA@XZ@4HA
	DD	imagerel ?dtor$17@?0???1ImGuiContext@@QEAA@XZ@4HA+31
	DD	imagerel $unwind$?dtor$17@?0???1ImGuiContext@@QEAA@XZ@4HA
pdata	ENDS
;	COMDAT pdata
pdata	SEGMENT
$pdata$?dtor$18@?0???1ImGuiContext@@QEAA@XZ@4HA DD imagerel ?dtor$18@?0???1ImGuiContext@@QEAA@XZ@4HA
	DD	imagerel ?dtor$18@?0???1ImGuiContext@@QEAA@XZ@4HA+31
	DD	imagerel $unwind$?dtor$18@?0???1ImGuiContext@@QEAA@XZ@4HA
pdata	ENDS
;	COMDAT pdata
pdata	SEGMENT
$pdata$?dtor$19@?0???1ImGuiContext@@QEAA@XZ@4HA DD imagerel ?dtor$19@?0???1ImGuiContext@@QEAA@XZ@4HA
	DD	imagerel ?dtor$19@?0???1ImGuiContext@@QEAA@XZ@4HA+31
	DD	imagerel $unwind$?dtor$19@?0???1ImGuiContext@@QEAA@XZ@4HA
pdata	ENDS
;	COMDAT pdata
pdata	SEGMENT
$pdata$?dtor$20@?0???1ImGuiContext@@QEAA@XZ@4HA DD imagerel ?dtor$20@?0???1ImGuiContext@@QEAA@XZ@4HA
	DD	imagerel ?dtor$20@?0???1ImGuiContext@@QEAA@XZ@4HA+31
	DD	imagerel $unwind$?dtor$20@?0???1ImGuiContext@@QEAA@XZ@4HA
pdata	ENDS
;	COMDAT pdata
pdata	SEGMENT
$pdata$??_GImGuiContext@@QEAAPEAXI@Z DD imagerel $LN4
	DD	imagerel $LN4+60
	DD	imagerel $unwind$??_GImGuiContext@@QEAAPEAXI@Z
pdata	ENDS
;	COMDAT pdata
pdata	SEGMENT
$pdata$??1?$ImVector@UImGuiGroupData@@@@QEAA@XZ DD imagerel $LN4
	DD	imagerel $LN4+41
	DD	imagerel $unwind$??1?$ImVector@UImGuiGroupData@@@@QEAA@XZ
pdata	ENDS
;	COMDAT pdata
pdata	SEGMENT
$pdata$?_grow_capacity@?$ImVector@UImGuiGroupData@@@@QEBAHH@Z DD imagerel $LN7
	DD	imagerel $LN7+101
	DD	imagerel $unwind$?_grow_capacity@?$ImVector@UImGuiGroupData@@@@QEBAHH@Z
pdata	ENDS
;	COMDAT pdata
pdata	SEGMENT
$pdata$?resize@?$ImVector@UImGuiGroupData@@@@QEAAXH@Z DD imagerel $LN4
	DD	imagerel $LN4+70
	DD	imagerel $unwind$?resize@?$ImVector@UImGuiGroupData@@@@QEAAXH@Z
pdata	ENDS
;	COMDAT pdata
pdata	SEGMENT
$pdata$?reserve@?$ImVector@UImGuiGroupData@@@@QEAAXH@Z DD imagerel $LN5
	DD	imagerel $LN5+143
	DD	imagerel $unwind$?reserve@?$ImVector@UImGuiGroupData@@@@QEAAXH@Z
pdata	ENDS
;	COMDAT pdata
pdata	SEGMENT
$pdata$??0ImGuiWindowTempData@@QEAA@XZ DD imagerel $LN8
	DD	imagerel $LN8+1107
	DD	imagerel $unwind$??0ImGuiWindowTempData@@QEAA@XZ
pdata	ENDS
;	COMDAT pdata
pdata	SEGMENT
$pdata$?dtor$0@?0???0ImGuiWindowTempData@@QEAA@XZ@4HA DD imagerel ?dtor$0@?0???0ImGuiWindowTempData@@QEAA@XZ@4HA
	DD	imagerel ?dtor$0@?0???0ImGuiWindowTempData@@QEAA@XZ@4HA+34
	DD	imagerel $unwind$?dtor$0@?0???0ImGuiWindowTempData@@QEAA@XZ@4HA
pdata	ENDS
;	COMDAT pdata
pdata	SEGMENT
$pdata$?dtor$1@?0???0ImGuiWindowTempData@@QEAA@XZ@4HA DD imagerel ?dtor$1@?0???0ImGuiWindowTempData@@QEAA@XZ@4HA
	DD	imagerel ?dtor$1@?0???0ImGuiWindowTempData@@QEAA@XZ@4HA+34
	DD	imagerel $unwind$?dtor$1@?0???0ImGuiWindowTempData@@QEAA@XZ@4HA
pdata	ENDS
;	COMDAT pdata
pdata	SEGMENT
$pdata$?dtor$2@?0???0ImGuiWindowTempData@@QEAA@XZ@4HA DD imagerel ?dtor$2@?0???0ImGuiWindowTempData@@QEAA@XZ@4HA
	DD	imagerel ?dtor$2@?0???0ImGuiWindowTempData@@QEAA@XZ@4HA+34
	DD	imagerel $unwind$?dtor$2@?0???0ImGuiWindowTempData@@QEAA@XZ@4HA
pdata	ENDS
;	COMDAT pdata
pdata	SEGMENT
$pdata$?dtor$3@?0???0ImGuiWindowTempData@@QEAA@XZ@4HA DD imagerel ?dtor$3@?0???0ImGuiWindowTempData@@QEAA@XZ@4HA
	DD	imagerel ?dtor$3@?0???0ImGuiWindowTempData@@QEAA@XZ@4HA+34
	DD	imagerel $unwind$?dtor$3@?0???0ImGuiWindowTempData@@QEAA@XZ@4HA
pdata	ENDS
;	COMDAT pdata
pdata	SEGMENT
$pdata$?dtor$4@?0???0ImGuiWindowTempData@@QEAA@XZ@4HA DD imagerel ?dtor$4@?0???0ImGuiWindowTempData@@QEAA@XZ@4HA
	DD	imagerel ?dtor$4@?0???0ImGuiWindowTempData@@QEAA@XZ@4HA+34
	DD	imagerel $unwind$?dtor$4@?0???0ImGuiWindowTempData@@QEAA@XZ@4HA
pdata	ENDS
;	COMDAT pdata
pdata	SEGMENT
$pdata$??1ImGuiWindowTempData@@QEAA@XZ DD imagerel $LN8
	DD	imagerel $LN8+114
	DD	imagerel $unwind$??1ImGuiWindowTempData@@QEAA@XZ
pdata	ENDS
;	COMDAT pdata
pdata	SEGMENT
$pdata$?dtor$0@?0???1ImGuiWindowTempData@@QEAA@XZ@4HA DD imagerel ?dtor$0@?0???1ImGuiWindowTempData@@QEAA@XZ@4HA
	DD	imagerel ?dtor$0@?0???1ImGuiWindowTempData@@QEAA@XZ@4HA+31
	DD	imagerel $unwind$?dtor$0@?0???1ImGuiWindowTempData@@QEAA@XZ@4HA
pdata	ENDS
;	COMDAT pdata
pdata	SEGMENT
$pdata$?dtor$1@?0???1ImGuiWindowTempData@@QEAA@XZ@4HA DD imagerel ?dtor$1@?0???1ImGuiWindowTempData@@QEAA@XZ@4HA
	DD	imagerel ?dtor$1@?0???1ImGuiWindowTempData@@QEAA@XZ@4HA+31
	DD	imagerel $unwind$?dtor$1@?0???1ImGuiWindowTempData@@QEAA@XZ@4HA
pdata	ENDS
;	COMDAT pdata
pdata	SEGMENT
$pdata$?dtor$2@?0???1ImGuiWindowTempData@@QEAA@XZ@4HA DD imagerel ?dtor$2@?0???1ImGuiWindowTempData@@QEAA@XZ@4HA
	DD	imagerel ?dtor$2@?0???1ImGuiWindowTempData@@QEAA@XZ@4HA+31
	DD	imagerel $unwind$?dtor$2@?0???1ImGuiWindowTempData@@QEAA@XZ@4HA
pdata	ENDS
;	COMDAT pdata
pdata	SEGMENT
$pdata$?dtor$3@?0???1ImGuiWindowTempData@@QEAA@XZ@4HA DD imagerel ?dtor$3@?0???1ImGuiWindowTempData@@QEAA@XZ@4HA
	DD	imagerel ?dtor$3@?0???1ImGuiWindowTempData@@QEAA@XZ@4HA+31
	DD	imagerel $unwind$?dtor$3@?0???1ImGuiWindowTempData@@QEAA@XZ@4HA
pdata	ENDS
;	COMDAT pdata
pdata	SEGMENT
$pdata$?dtor$4@?0???1ImGuiWindowTempData@@QEAA@XZ@4HA DD imagerel ?dtor$4@?0???1ImGuiWindowTempData@@QEAA@XZ@4HA
	DD	imagerel ?dtor$4@?0???1ImGuiWindowTempData@@QEAA@XZ@4HA+31
	DD	imagerel $unwind$?dtor$4@?0???1ImGuiWindowTempData@@QEAA@XZ@4HA
pdata	ENDS
;	COMDAT pdata
pdata	SEGMENT
$pdata$??1?$ImVector@I@@QEAA@XZ DD imagerel $LN4
	DD	imagerel $LN4+41
	DD	imagerel $unwind$??1?$ImVector@I@@QEAA@XZ
pdata	ENDS
;	COMDAT pdata
pdata	SEGMENT
$pdata$?_grow_capacity@?$ImVector@I@@QEBAHH@Z DD imagerel $LN7
	DD	imagerel $LN7+101
	DD	imagerel $unwind$?_grow_capacity@?$ImVector@I@@QEBAHH@Z
pdata	ENDS
;	COMDAT pdata
pdata	SEGMENT
$pdata$?resize@?$ImVector@I@@QEAAXH@Z DD imagerel $LN4
	DD	imagerel $LN4+70
	DD	imagerel $unwind$?resize@?$ImVector@I@@QEAAXH@Z
pdata	ENDS
;	COMDAT pdata
pdata	SEGMENT
$pdata$?reserve@?$ImVector@I@@QEAAXH@Z DD imagerel $LN5
	DD	imagerel $LN5+143
	DD	imagerel $unwind$?reserve@?$ImVector@I@@QEAAXH@Z
pdata	ENDS
;	COMDAT pdata
pdata	SEGMENT
$pdata$?push_back@?$ImVector@I@@QEAAXAEBI@Z DD imagerel $LN4
	DD	imagerel $LN4+126
	DD	imagerel $unwind$?push_back@?$ImVector@I@@QEAAXAEBI@Z
pdata	ENDS
;	COMDAT pdata
pdata	SEGMENT
$pdata$??1?$ImVector@UImGuiColumnsSet@@@@QEAA@XZ DD imagerel $LN4
	DD	imagerel $LN4+41
	DD	imagerel $unwind$??1?$ImVector@UImGuiColumnsSet@@@@QEAA@XZ
pdata	ENDS
;	COMDAT pdata
pdata	SEGMENT
$pdata$?_grow_capacity@?$ImVector@UImGuiColumnsSet@@@@QEBAHH@Z DD imagerel $LN7
	DD	imagerel $LN7+101
	DD	imagerel $unwind$?_grow_capacity@?$ImVector@UImGuiColumnsSet@@@@QEBAHH@Z
pdata	ENDS
;	COMDAT pdata
pdata	SEGMENT
$pdata$?reserve@?$ImVector@UImGuiColumnsSet@@@@QEAAXH@Z DD imagerel $LN5
	DD	imagerel $LN5+143
	DD	imagerel $unwind$?reserve@?$ImVector@UImGuiColumnsSet@@@@QEAAXH@Z
pdata	ENDS
;	COMDAT pdata
pdata	SEGMENT
$pdata$?push_back@?$ImVector@UImGuiColumnsSet@@@@QEAAXAEBUImGuiColumnsSet@@@Z DD imagerel $LN4
	DD	imagerel $LN4+126
	DD	imagerel $unwind$?push_back@?$ImVector@UImGuiColumnsSet@@@@QEAAXAEBUImGuiColumnsSet@@@Z
pdata	ENDS
pdata	SEGMENT
$pdata$??0ImGuiWindow@@QEAA@PEAUImGuiContext@@PEBD@Z DD imagerel $LN8
	DD	imagerel $LN8+2146
	DD	imagerel $unwind$??0ImGuiWindow@@QEAA@PEAUImGuiContext@@PEBD@Z
pdata	ENDS
pdata	SEGMENT
$pdata$?dtor$0@?0???0ImGuiWindow@@QEAA@PEAUImGuiContext@@PEBD@Z@4HA DD imagerel ?dtor$0@?0???0ImGuiWindow@@QEAA@PEAUImGuiContext@@PEBD@Z@4HA
	DD	imagerel ?dtor$0@?0???0ImGuiWindow@@QEAA@PEAUImGuiContext@@PEBD@Z@4HA+34
	DD	imagerel $unwind$?dtor$0@?0???0ImGuiWindow@@QEAA@PEAUImGuiContext@@PEBD@Z@4HA
$pdata$?dtor$1@?0???0ImGuiWindow@@QEAA@PEAUImGuiContext@@PEBD@Z@4HA DD imagerel ?dtor$1@?0???0ImGuiWindow@@QEAA@PEAUImGuiContext@@PEBD@Z@4HA
	DD	imagerel ?dtor$1@?0???0ImGuiWindow@@QEAA@PEAUImGuiContext@@PEBD@Z@4HA+34
	DD	imagerel $unwind$?dtor$1@?0???0ImGuiWindow@@QEAA@PEAUImGuiContext@@PEBD@Z@4HA
$pdata$?dtor$2@?0???0ImGuiWindow@@QEAA@PEAUImGuiContext@@PEBD@Z@4HA DD imagerel ?dtor$2@?0???0ImGuiWindow@@QEAA@PEAUImGuiContext@@PEBD@Z@4HA
	DD	imagerel ?dtor$2@?0???0ImGuiWindow@@QEAA@PEAUImGuiContext@@PEBD@Z@4HA+34
	DD	imagerel $unwind$?dtor$2@?0???0ImGuiWindow@@QEAA@PEAUImGuiContext@@PEBD@Z@4HA
$pdata$?dtor$3@?0???0ImGuiWindow@@QEAA@PEAUImGuiContext@@PEBD@Z@4HA DD imagerel ?dtor$3@?0???0ImGuiWindow@@QEAA@PEAUImGuiContext@@PEBD@Z@4HA
	DD	imagerel ?dtor$3@?0???0ImGuiWindow@@QEAA@PEAUImGuiContext@@PEBD@Z@4HA+34
	DD	imagerel $unwind$?dtor$3@?0???0ImGuiWindow@@QEAA@PEAUImGuiContext@@PEBD@Z@4HA
$pdata$?dtor$4@?0???0ImGuiWindow@@QEAA@PEAUImGuiContext@@PEBD@Z@4HA DD imagerel ?dtor$4@?0???0ImGuiWindow@@QEAA@PEAUImGuiContext@@PEBD@Z@4HA
	DD	imagerel ?dtor$4@?0???0ImGuiWindow@@QEAA@PEAUImGuiContext@@PEBD@Z@4HA+34
	DD	imagerel $unwind$?dtor$4@?0???0ImGuiWindow@@QEAA@PEAUImGuiContext@@PEBD@Z@4HA
pdata	ENDS
pdata	SEGMENT
$pdata$??1ImGuiWindow@@QEAA@XZ DD imagerel $LN11
	DD	imagerel $LN11+201
	DD	imagerel $unwind$??1ImGuiWindow@@QEAA@XZ
pdata	ENDS
pdata	SEGMENT
$pdata$?dtor$0@?0???1ImGuiWindow@@QEAA@XZ@4HA DD imagerel ?dtor$0@?0???1ImGuiWindow@@QEAA@XZ@4HA
	DD	imagerel ?dtor$0@?0???1ImGuiWindow@@QEAA@XZ@4HA+31
	DD	imagerel $unwind$?dtor$0@?0???1ImGuiWindow@@QEAA@XZ@4HA
$pdata$?dtor$1@?0???1ImGuiWindow@@QEAA@XZ@4HA DD imagerel ?dtor$1@?0???1ImGuiWindow@@QEAA@XZ@4HA
	DD	imagerel ?dtor$1@?0???1ImGuiWindow@@QEAA@XZ@4HA+31
	DD	imagerel $unwind$?dtor$1@?0???1ImGuiWindow@@QEAA@XZ@4HA
$pdata$?dtor$2@?0???1ImGuiWindow@@QEAA@XZ@4HA DD imagerel ?dtor$2@?0???1ImGuiWindow@@QEAA@XZ@4HA
	DD	imagerel ?dtor$2@?0???1ImGuiWindow@@QEAA@XZ@4HA+31
	DD	imagerel $unwind$?dtor$2@?0???1ImGuiWindow@@QEAA@XZ@4HA
$pdata$?dtor$3@?0???1ImGuiWindow@@QEAA@XZ@4HA DD imagerel ?dtor$3@?0???1ImGuiWindow@@QEAA@XZ@4HA
	DD	imagerel ?dtor$3@?0???1ImGuiWindow@@QEAA@XZ@4HA+31
	DD	imagerel $unwind$?dtor$3@?0???1ImGuiWindow@@QEAA@XZ@4HA
$pdata$?dtor$4@?0???1ImGuiWindow@@QEAA@XZ@4HA DD imagerel ?dtor$4@?0???1ImGuiWindow@@QEAA@XZ@4HA
	DD	imagerel ?dtor$4@?0???1ImGuiWindow@@QEAA@XZ@4HA+31
	DD	imagerel $unwind$?dtor$4@?0???1ImGuiWindow@@QEAA@XZ@4HA
pdata	ENDS
pdata	SEGMENT
$pdata$?GetID@ImGuiWindow@@QEAAIPEBD0@Z DD imagerel $LN5
	DD	imagerel $LN5+134
	DD	imagerel $unwind$?GetID@ImGuiWindow@@QEAAIPEBD0@Z
$pdata$?GetID@ImGuiWindow@@QEAAIPEBX@Z DD imagerel $LN3
	DD	imagerel $LN3+81
	DD	imagerel $unwind$?GetID@ImGuiWindow@@QEAAIPEBX@Z
$pdata$?GetIDNoKeepAlive@ImGuiWindow@@QEAAIPEBD0@Z DD imagerel $LN5
	DD	imagerel $LN5+117
	DD	imagerel $unwind$?GetIDNoKeepAlive@ImGuiWindow@@QEAAIPEBD0@Z
$pdata$?GetIDNoKeepAlive@ImGuiWindow@@QEAAIPEBX@Z DD imagerel $LN3
	DD	imagerel $LN3+64
	DD	imagerel $unwind$?GetIDNoKeepAlive@ImGuiWindow@@QEAAIPEBX@Z
$pdata$?GetIDFromRectangle@ImGuiWindow@@QEAAIAEBUImRect@@@Z DD imagerel $LN3
	DD	imagerel $LN3+220
	DD	imagerel $unwind$?GetIDFromRectangle@ImGuiWindow@@QEAAIAEBUImRect@@@Z
pdata	ENDS
;	COMDAT pdata
pdata	SEGMENT
$pdata$?Rect@ImGuiWindow@@QEBA?AUImRect@@XZ DD imagerel $LN3
	DD	imagerel $LN3+102
	DD	imagerel $unwind$?Rect@ImGuiWindow@@QEBA?AUImRect@@XZ
pdata	ENDS
;	COMDAT pdata
pdata	SEGMENT
$pdata$?TitleBarHeight@ImGuiWindow@@QEBAMXZ DD imagerel $LN5
	DD	imagerel $LN5+89
	DD	imagerel $unwind$?TitleBarHeight@ImGuiWindow@@QEBAMXZ
pdata	ENDS
;	COMDAT pdata
pdata	SEGMENT
$pdata$?TitleBarRect@ImGuiWindow@@QEBA?AUImRect@@XZ DD imagerel $LN3
	DD	imagerel $LN3+131
	DD	imagerel $unwind$?TitleBarRect@ImGuiWindow@@QEBA?AUImRect@@XZ
pdata	ENDS
;	COMDAT pdata
pdata	SEGMENT
$pdata$?MenuBarHeight@ImGuiWindow@@QEBAMXZ DD imagerel $LN5
	DD	imagerel $LN5+111
	DD	imagerel $unwind$?MenuBarHeight@ImGuiWindow@@QEBAMXZ
pdata	ENDS
;	COMDAT pdata
pdata	SEGMENT
$pdata$?MenuBarRect@ImGuiWindow@@QEBA?AUImRect@@XZ DD imagerel $LN3
	DD	imagerel $LN3+168
	DD	imagerel $unwind$?MenuBarRect@ImGuiWindow@@QEBA?AUImRect@@XZ
pdata	ENDS
;	COMDAT pdata
pdata	SEGMENT
$pdata$??_GImGuiWindow@@QEAAPEAXI@Z DD imagerel $LN4
	DD	imagerel $LN4+60
	DD	imagerel $unwind$??_GImGuiWindow@@QEAAPEAXI@Z
pdata	ENDS
;	COMDAT pdata
pdata	SEGMENT
$pdata$??1?$ImVector@UImGuiTabItem@@@@QEAA@XZ DD imagerel $LN4
	DD	imagerel $LN4+41
	DD	imagerel $unwind$??1?$ImVector@UImGuiTabItem@@@@QEAA@XZ
pdata	ENDS
;	COMDAT pdata
pdata	SEGMENT
$pdata$??1ImGuiTabBar@@QEAA@XZ DD imagerel $LN5
	DD	imagerel $LN5+50
	DD	imagerel $unwind$??1ImGuiTabBar@@QEAA@XZ
pdata	ENDS
;	COMDAT pdata
pdata	SEGMENT
$pdata$?dtor$0@?0???1ImGuiTabBar@@QEAA@XZ@4HA DD imagerel ?dtor$0@?0???1ImGuiTabBar@@QEAA@XZ@4HA
	DD	imagerel ?dtor$0@?0???1ImGuiTabBar@@QEAA@XZ@4HA+28
	DD	imagerel $unwind$?dtor$0@?0???1ImGuiTabBar@@QEAA@XZ@4HA
pdata	ENDS
;	COMDAT pdata
pdata	SEGMENT
$pdata$?dtor$1@?0???1ImGuiTabBar@@QEAA@XZ@4HA DD imagerel ?dtor$1@?0???1ImGuiTabBar@@QEAA@XZ@4HA
	DD	imagerel ?dtor$1@?0???1ImGuiTabBar@@QEAA@XZ@4HA+28
	DD	imagerel $unwind$?dtor$1@?0???1ImGuiTabBar@@QEAA@XZ@4HA
pdata	ENDS
;	COMDAT pdata
pdata	SEGMENT
$pdata$??_GImGuiTabBar@@QEAAPEAXI@Z DD imagerel $LN4
	DD	imagerel $LN4+60
	DD	imagerel $unwind$??_GImGuiTabBar@@QEAAPEAXI@Z
pdata	ENDS
;	COMDAT pdata
pdata	SEGMENT
$pdata$?GetCurrentWindowRead@ImGui@@YAPEAUImGuiWindow@@XZ DD imagerel $LN3
	DD	imagerel $LN3+31
	DD	imagerel $unwind$?GetCurrentWindowRead@ImGui@@YAPEAUImGuiWindow@@XZ
pdata	ENDS
;	COMDAT pdata
pdata	SEGMENT
$pdata$?GetCurrentWindow@ImGui@@YAPEAUImGuiWindow@@XZ DD imagerel $LN3
	DD	imagerel $LN3+46
	DD	imagerel $unwind$?GetCurrentWindow@ImGui@@YAPEAUImGuiWindow@@XZ
pdata	ENDS
pdata	SEGMENT
$pdata$?FindWindowByID@ImGui@@YAPEAUImGuiWindow@@I@Z DD imagerel $LN3
	DD	imagerel $LN3+55
	DD	imagerel $unwind$?FindWindowByID@ImGui@@YAPEAUImGuiWindow@@I@Z
$pdata$?FindWindowByName@ImGui@@YAPEAUImGuiWindow@@PEBD@Z DD imagerel $LN3
	DD	imagerel $LN3+42
	DD	imagerel $unwind$?FindWindowByName@ImGui@@YAPEAUImGuiWindow@@PEBD@Z
$pdata$?FocusWindow@ImGui@@YAXPEAUImGuiWindow@@@Z DD imagerel $LN12
	DD	imagerel $LN12+361
	DD	imagerel $unwind$?FocusWindow@ImGui@@YAXPEAUImGuiWindow@@@Z
$pdata$?FocusPreviousWindowIgnoringOne@ImGui@@YAXPEAUImGuiWindow@@@Z DD imagerel $LN8
	DD	imagerel $LN8+202
	DD	imagerel $unwind$?FocusPreviousWindowIgnoringOne@ImGui@@YAXPEAUImGuiWindow@@@Z
$pdata$?BringWindowToFocusFront@ImGui@@YAXPEAUImGuiWindow@@@Z DD imagerel $LN8
	DD	imagerel $LN8+334
	DD	imagerel $unwind$?BringWindowToFocusFront@ImGui@@YAXPEAUImGuiWindow@@@Z
$pdata$?BringWindowToDisplayFront@ImGui@@YAXPEAUImGuiWindow@@@Z DD imagerel $LN9
	DD	imagerel $LN9+366
	DD	imagerel $unwind$?BringWindowToDisplayFront@ImGui@@YAXPEAUImGuiWindow@@@Z
$pdata$?BringWindowToDisplayBack@ImGui@@YAXPEAUImGuiWindow@@@Z DD imagerel $LN8
	DD	imagerel $LN8+302
	DD	imagerel $unwind$?BringWindowToDisplayBack@ImGui@@YAXPEAUImGuiWindow@@@Z
$pdata$?CalcWindowExpectedSize@ImGui@@YA?AUImVec2@@PEAUImGuiWindow@@@Z DD imagerel $LN3
	DD	imagerel $LN3+79
	DD	imagerel $unwind$?CalcWindowExpectedSize@ImGui@@YA?AUImVec2@@PEAUImGuiWindow@@@Z
$pdata$?IsWindowNavFocusable@ImGui@@YA_NPEAUImGuiWindow@@@Z DD imagerel $LN5
	DD	imagerel $LN5+83
	DD	imagerel $unwind$?IsWindowNavFocusable@ImGui@@YA_NPEAUImGuiWindow@@@Z
$pdata$?GetWindowScrollMaxX@ImGui@@YAMPEAUImGuiWindow@@@Z DD imagerel $LN3
	DD	imagerel $LN3+62
	DD	imagerel $unwind$?GetWindowScrollMaxX@ImGui@@YAMPEAUImGuiWindow@@@Z
$pdata$?GetWindowScrollMaxY@ImGui@@YAMPEAUImGuiWindow@@@Z DD imagerel $LN3
	DD	imagerel $LN3+65
	DD	imagerel $unwind$?GetWindowScrollMaxY@ImGui@@YAMPEAUImGuiWindow@@@Z
$pdata$?GetWindowAllowedExtentRect@ImGui@@YA?AUImRect@@PEAUImGuiWindow@@@Z DD imagerel $LN7
	DD	imagerel $LN7+232
	DD	imagerel $unwind$?GetWindowAllowedExtentRect@ImGui@@YA?AUImRect@@PEAUImGuiWindow@@@Z
$pdata$?SetWindowPos@ImGui@@YAXPEAUImGuiWindow@@AEBUImVec2@@H@Z DD imagerel $LN4
	DD	imagerel $LN4+260
	DD	imagerel $unwind$?SetWindowPos@ImGui@@YAXPEAUImGuiWindow@@AEBUImVec2@@H@Z
$pdata$?SetWindowSize@ImGui@@YAXPEAUImGuiWindow@@AEBUImVec2@@H@Z DD imagerel $LN8
	DD	imagerel $LN8+256
	DD	imagerel $unwind$?SetWindowSize@ImGui@@YAXPEAUImGuiWindow@@AEBUImVec2@@H@Z
$pdata$?SetCurrentFont@ImGui@@YAXPEAUImFont@@@Z DD imagerel $LN5
	DD	imagerel $LN5+264
	DD	imagerel $unwind$?SetCurrentFont@ImGui@@YAXPEAUImFont@@@Z
pdata	ENDS
;	COMDAT pdata
pdata	SEGMENT
$pdata$?GetDefaultFont@ImGui@@YAPEAUImFont@@XZ DD imagerel $LN5
	DD	imagerel $LN5+101
	DD	imagerel $unwind$?GetDefaultFont@ImGui@@YAPEAUImFont@@XZ
pdata	ENDS
pdata	SEGMENT
$pdata$?Initialize@ImGui@@YAXPEAUImGuiContext@@@Z DD imagerel $LN3
	DD	imagerel $LN3+31
	DD	imagerel $unwind$?Initialize@ImGui@@YAXPEAUImGuiContext@@@Z
$pdata$?Shutdown@ImGui@@YAXPEAUImGuiContext@@@Z DD imagerel $LN8
	DD	imagerel $LN8+622
	DD	imagerel $unwind$?Shutdown@ImGui@@YAXPEAUImGuiContext@@@Z
$pdata$?UpdateHoveredWindowAndCaptureFlags@ImGui@@YAXXZ DD imagerel $LN38
	DD	imagerel $LN38+996
	DD	imagerel $unwind$?UpdateHoveredWindowAndCaptureFlags@ImGui@@YAXXZ
$pdata$?StartMouseMovingWindow@ImGui@@YAXPEAUImGuiWindow@@@Z DD imagerel $LN6
	DD	imagerel $LN6+198
	DD	imagerel $unwind$?StartMouseMovingWindow@ImGui@@YAXPEAUImGuiWindow@@@Z
$pdata$?UpdateMouseMovingWindowNewFrame@ImGui@@YAXXZ DD imagerel $LN12
	DD	imagerel $LN12+371
	DD	imagerel $unwind$?UpdateMouseMovingWindowNewFrame@ImGui@@YAXXZ
$pdata$?UpdateMouseMovingWindowEndFrame@ImGui@@YAXXZ DD imagerel $LN21
	DD	imagerel $LN21+568
	DD	imagerel $unwind$?UpdateMouseMovingWindowEndFrame@ImGui@@YAXXZ
$pdata$?SetActiveID@ImGui@@YAXIPEAUImGuiWindow@@@Z DD imagerel $LN10
	DD	imagerel $LN10+369
	DD	imagerel $unwind$?SetActiveID@ImGui@@YAXIPEAUImGuiWindow@@@Z
$pdata$?SetFocusID@ImGui@@YAXIPEAUImGuiWindow@@@Z DD imagerel $LN7
	DD	imagerel $LN7+384
	DD	imagerel $unwind$?SetFocusID@ImGui@@YAXIPEAUImGuiWindow@@@Z
$pdata$?ClearActiveID@ImGui@@YAXXZ DD imagerel $LN3
	DD	imagerel $LN3+19
	DD	imagerel $unwind$?ClearActiveID@ImGui@@YAXXZ
$pdata$?GetHoveredID@ImGui@@YAIXZ DD imagerel $LN5
	DD	imagerel $LN5+68
	DD	imagerel $unwind$?GetHoveredID@ImGui@@YAIXZ
$pdata$?SetHoveredID@ImGui@@YAXI@Z DD imagerel $LN4
	DD	imagerel $LN4+102
	DD	imagerel $unwind$?SetHoveredID@ImGui@@YAXI@Z
$pdata$?KeepAliveID@ImGui@@YAXI@Z DD imagerel $LN5
	DD	imagerel $LN5+81
	DD	imagerel $unwind$?KeepAliveID@ImGui@@YAXI@Z
$pdata$?MarkItemEdited@ImGui@@YAXI@Z DD imagerel $LN3
	DD	imagerel $LN3+72
	DD	imagerel $unwind$?MarkItemEdited@ImGui@@YAXI@Z
$pdata$?ItemSize@ImGui@@YAXAEBUImVec2@@M@Z DD imagerel $LN5
	DD	imagerel $LN5+512
	DD	imagerel $unwind$?ItemSize@ImGui@@YAXAEBUImVec2@@M@Z
$pdata$?ItemSize@ImGui@@YAXAEBUImRect@@M@Z DD imagerel $LN3
	DD	imagerel $LN3+50
	DD	imagerel $unwind$?ItemSize@ImGui@@YAXAEBUImRect@@M@Z
$pdata$?ItemAdd@ImGui@@YA_NAEBUImRect@@IPEBU2@@Z DD imagerel $LN13
	DD	imagerel $LN13+453
	DD	imagerel $unwind$?ItemAdd@ImGui@@YA_NAEBUImRect@@IPEBU2@@Z
$pdata$?ItemHoverable@ImGui@@YA_NAEBUImRect@@I@Z DD imagerel $LN10
	DD	imagerel $LN10+286
	DD	imagerel $unwind$?ItemHoverable@ImGui@@YA_NAEBUImRect@@I@Z
$pdata$?IsClippedEx@ImGui@@YA_NAEBUImRect@@I_N@Z DD imagerel $LN7
	DD	imagerel $LN7+122
	DD	imagerel $unwind$?IsClippedEx@ImGui@@YA_NAEBUImRect@@I_N@Z
$pdata$?FocusableItemRegister@ImGui@@YA_NPEAUImGuiWindow@@I_N@Z DD imagerel $LN13
	DD	imagerel $LN13+404
	DD	imagerel $unwind$?FocusableItemRegister@ImGui@@YA_NPEAUImGuiWindow@@I_N@Z
$pdata$?CalcItemSize@ImGui@@YA?AUImVec2@@U2@MM@Z DD imagerel $LN11
	DD	imagerel $LN11+370
	DD	imagerel $unwind$?CalcItemSize@ImGui@@YA?AUImVec2@@U2@MM@Z
$pdata$?CalcWrapWidthForPos@ImGui@@YAMAEBUImVec2@@M@Z DD imagerel $LN7
	DD	imagerel $LN7+179
	DD	imagerel $unwind$?CalcWrapWidthForPos@ImGui@@YAMAEBUImVec2@@M@Z
$pdata$?PushMultiItemsWidths@ImGui@@YAXHM@Z DD imagerel $LN7
	DD	imagerel $LN7+355
	DD	imagerel $unwind$?PushMultiItemsWidths@ImGui@@YAXHM@Z
$pdata$?PushItemFlag@ImGui@@YAXH_N@Z DD imagerel $LN5
	DD	imagerel $LN5+139
	DD	imagerel $unwind$?PushItemFlag@ImGui@@YAXH_N@Z
$pdata$?PopItemFlag@ImGui@@YAXXZ DD imagerel $LN5
	DD	imagerel $LN5+114
	DD	imagerel $unwind$?PopItemFlag@ImGui@@YAXXZ
$pdata$?OpenPopupEx@ImGui@@YAXI@Z DD imagerel $LN9
	DD	imagerel $LN9+562
	DD	imagerel $unwind$?OpenPopupEx@ImGui@@YAXI@Z
$pdata$?ClosePopupToLevel@ImGui@@YAXH_N@Z DD imagerel $LN7
	DD	imagerel $LN7+208
	DD	imagerel $unwind$?ClosePopupToLevel@ImGui@@YAXH_N@Z
$pdata$?ClosePopupsOverWindow@ImGui@@YAXPEAUImGuiWindow@@@Z DD imagerel $LN16
	DD	imagerel $LN16+380
	DD	imagerel $unwind$?ClosePopupsOverWindow@ImGui@@YAXPEAUImGuiWindow@@@Z
$pdata$?IsPopupOpen@ImGui@@YA_NI@Z DD imagerel $LN5
	DD	imagerel $LN5+117
	DD	imagerel $unwind$?IsPopupOpen@ImGui@@YA_NI@Z
$pdata$?BeginPopupEx@ImGui@@YA_NIH@Z DD imagerel $LN7
	DD	imagerel $LN7+221
	DD	imagerel $unwind$?BeginPopupEx@ImGui@@YA_NIH@Z
$pdata$?BeginTooltipEx@ImGui@@YAXH_N@Z DD imagerel $LN6
	DD	imagerel $LN6+260
	DD	imagerel $unwind$?BeginTooltipEx@ImGui@@YAXH_N@Z
$pdata$?GetFrontMostPopupModal@ImGui@@YAPEAUImGuiWindow@@XZ DD imagerel $LN8
	DD	imagerel $LN8+119
	DD	imagerel $unwind$?GetFrontMostPopupModal@ImGui@@YAPEAUImGuiWindow@@XZ
$pdata$?FindBestWindowPosForPopup@ImGui@@YA?AUImVec2@@PEAUImGuiWindow@@@Z DD imagerel $LN11
	DD	imagerel $LN11+1407
	DD	imagerel $unwind$?FindBestWindowPosForPopup@ImGui@@YA?AUImVec2@@PEAUImGuiWindow@@@Z
$pdata$?FindBestWindowPosForPopupEx@ImGui@@YA?AUImVec2@@AEBU2@0PEAHAEBUImRect@@2W4ImGuiPopupPositionPolicy@@@Z DD imagerel $LN43
	DD	imagerel $LN43+1727
	DD	imagerel $unwind$?FindBestWindowPosForPopupEx@ImGui@@YA?AUImVec2@@AEBU2@0PEAHAEBUImRect@@2W4ImGuiPopupPositionPolicy@@@Z
$pdata$?NavInitWindow@ImGui@@YAXPEAUImGuiWindow@@_N@Z DD imagerel $LN8
	DD	imagerel $LN8+266
	DD	imagerel $unwind$?NavInitWindow@ImGui@@YAXPEAUImGuiWindow@@_N@Z
$pdata$?NavMoveRequestButNoResultYet@ImGui@@YA_NXZ DD imagerel $LN5
	DD	imagerel $LN5+85
	DD	imagerel $unwind$?NavMoveRequestButNoResultYet@ImGui@@YA_NXZ
$pdata$?NavMoveRequestCancel@ImGui@@YAXXZ DD imagerel $LN3
	DD	imagerel $LN3+39
	DD	imagerel $unwind$?NavMoveRequestCancel@ImGui@@YAXXZ
$pdata$?NavMoveRequestForward@ImGui@@YAXHHAEBUImRect@@H@Z DD imagerel $LN3
	DD	imagerel $LN3+156
	DD	imagerel $unwind$?NavMoveRequestForward@ImGui@@YAXHHAEBUImRect@@H@Z
$pdata$?NavMoveRequestTryWrapping@ImGui@@YAXPEAUImGuiWindow@@H@Z DD imagerel $LN13
	DD	imagerel $LN13+748
	DD	imagerel $unwind$?NavMoveRequestTryWrapping@ImGui@@YAXPEAUImGuiWindow@@H@Z
$pdata$?GetNavInputAmount@ImGui@@YAMHW4ImGuiInputReadMode@@@Z DD imagerel $LN14
	DD	imagerel $LN14+559
	DD	imagerel $unwind$?GetNavInputAmount@ImGui@@YAMHW4ImGuiInputReadMode@@@Z
$pdata$?GetNavInputAmount2d@ImGui@@YA?AUImVec2@@HW4ImGuiInputReadMode@@MM@Z DD imagerel $LN10
	DD	imagerel $LN10+700
	DD	imagerel $unwind$?GetNavInputAmount2d@ImGui@@YA?AUImVec2@@HW4ImGuiInputReadMode@@MM@Z
$pdata$?CalcTypematicPressedRepeatAmount@ImGui@@YAHMMMM@Z DD imagerel $LN8
	DD	imagerel $LN8+160
	DD	imagerel $unwind$?CalcTypematicPressedRepeatAmount@ImGui@@YAHMMMM@Z
$pdata$?ActivateItem@ImGui@@YAXI@Z DD imagerel $LN3
	DD	imagerel $LN3+38
	DD	imagerel $unwind$?ActivateItem@ImGui@@YAXI@Z
$pdata$?SetNavID@ImGui@@YAXIH@Z DD imagerel $LN3
	DD	imagerel $LN3+69
	DD	imagerel $unwind$?SetNavID@ImGui@@YAXIH@Z
$pdata$?SetNavIDWithRectRel@ImGui@@YAXIHAEBUImRect@@@Z DD imagerel $LN3
	DD	imagerel $LN3+128
	DD	imagerel $unwind$?SetNavIDWithRectRel@ImGui@@YAXIHAEBUImRect@@@Z
pdata	ENDS
;	COMDAT pdata
pdata	SEGMENT
$pdata$?IsKeyPressedMap@ImGui@@YA_NH_N@Z DD imagerel $LN5
	DD	imagerel $LN5+74
	DD	imagerel $unwind$?IsKeyPressedMap@ImGui@@YA_NH_N@Z
pdata	ENDS
;	COMDAT pdata
pdata	SEGMENT
$pdata$?IsNavInputDown@ImGui@@YA_NH@Z DD imagerel $LN5
	DD	imagerel $LN5+63
	DD	imagerel $unwind$?IsNavInputDown@ImGui@@YA_NH@Z
pdata	ENDS
;	COMDAT pdata
pdata	SEGMENT
$pdata$?IsNavInputPressed@ImGui@@YA_NHW4ImGuiInputReadMode@@@Z DD imagerel $LN5
	DD	imagerel $LN5+62
	DD	imagerel $unwind$?IsNavInputPressed@ImGui@@YA_NHW4ImGuiInputReadMode@@@Z
pdata	ENDS
;	COMDAT pdata
pdata	SEGMENT
$pdata$?IsNavInputPressedAnyOfTwo@ImGui@@YA_NHHW4ImGuiInputReadMode@@@Z DD imagerel $LN5
	DD	imagerel $LN5+99
	DD	imagerel $unwind$?IsNavInputPressedAnyOfTwo@ImGui@@YA_NHHW4ImGuiInputReadMode@@@Z
pdata	ENDS
pdata	SEGMENT
$pdata$?BeginDragDropTargetCustom@ImGui@@YA_NAEBUImRect@@I@Z DD imagerel $LN9
	DD	imagerel $LN9+249
	DD	imagerel $unwind$?BeginDragDropTargetCustom@ImGui@@YA_NAEBUImRect@@I@Z
$pdata$?ClearDragDrop@ImGui@@YAXXZ DD imagerel $LN3
	DD	imagerel $LN3+180
	DD	imagerel $unwind$?ClearDragDrop@ImGui@@YAXXZ
$pdata$?IsDragDropPayloadBeingAccepted@ImGui@@YA_NXZ DD imagerel $LN5
	DD	imagerel $LN5+71
	DD	imagerel $unwind$?IsDragDropPayloadBeingAccepted@ImGui@@YA_NXZ
$pdata$?BeginColumns@ImGui@@YAXPEBDHH@Z DD imagerel $LN20
	DD	imagerel $LN20+1273
	DD	imagerel $unwind$?BeginColumns@ImGui@@YAXPEBDHH@Z
$pdata$?EndColumns@ImGui@@YAXXZ DD imagerel $LN22
	DD	imagerel $LN22+1270
	DD	imagerel $unwind$?EndColumns@ImGui@@YAXXZ
$pdata$?PushColumnClipRect@ImGui@@YAXH@Z DD imagerel $LN4
	DD	imagerel $LN4+152
	DD	imagerel $unwind$?PushColumnClipRect@ImGui@@YAXH@Z
$pdata$?RenderText@ImGui@@YAXUImVec2@@PEBD1_N@Z DD imagerel $LN7
	DD	imagerel $LN7+1130
	DD	imagerel $unwind$?RenderText@ImGui@@YAXUImVec2@@PEBD1_N@Z
$pdata$?RenderTextWrapped@ImGui@@YAXUImVec2@@PEBD1M@Z DD imagerel $LN5
	DD	imagerel $LN5+1120
	DD	imagerel $unwind$?RenderTextWrapped@ImGui@@YAXUImVec2@@PEBD1M@Z
$pdata$?RenderTextClipped@ImGui@@YAXAEBUImVec2@@0PEBD1PEBU2@0PEBUImRect@@@Z DD imagerel $LN4
	DD	imagerel $LN4+201
	DD	imagerel $unwind$?RenderTextClipped@ImGui@@YAXAEBUImVec2@@0PEBD1PEBU2@0PEBUImRect@@@Z
$pdata$?RenderTextClippedEx@ImGui@@YAXPEAUImDrawList@@AEBUImVec2@@1PEBD2PEBU3@1PEBUImRect@@@Z DD imagerel $LN18
	DD	imagerel $LN18+898
	DD	imagerel $unwind$?RenderTextClippedEx@ImGui@@YAXPEAUImDrawList@@AEBUImVec2@@1PEBD2PEBU3@1PEBUImRect@@@Z
$pdata$?RenderFrame@ImGui@@YAXUImVec2@@0I_NM@Z DD imagerel $LN4
	DD	imagerel $LN4+520
	DD	imagerel $unwind$?RenderFrame@ImGui@@YAXUImVec2@@0I_NM@Z
$pdata$?RenderFrameBorder@ImGui@@YAXUImVec2@@0M@Z DD imagerel $LN4
	DD	imagerel $LN4+420
	DD	imagerel $unwind$?RenderFrameBorder@ImGui@@YAXUImVec2@@0M@Z
$pdata$?RenderArrow@ImGui@@YAXUImVec2@@HM@Z DD imagerel $LN13
	DD	imagerel $LN13+830
	DD	imagerel $unwind$?RenderArrow@ImGui@@YAXUImVec2@@HM@Z
$pdata$?RenderBullet@ImGui@@YAXUImVec2@@@Z DD imagerel $LN3
	DD	imagerel $LN3+141
	DD	imagerel $unwind$?RenderBullet@ImGui@@YAXUImVec2@@@Z
$pdata$?RenderCheckMark@ImGui@@YAXUImVec2@@IM@Z DD imagerel $LN3
	DD	imagerel $LN3+571
	DD	imagerel $unwind$?RenderCheckMark@ImGui@@YAXUImVec2@@IM@Z
$pdata$?RenderNavHighlight@ImGui@@YAXAEBUImRect@@IH@Z DD imagerel $LN12
	DD	imagerel $LN12+806
	DD	imagerel $unwind$?RenderNavHighlight@ImGui@@YAXAEBUImRect@@IH@Z
$pdata$?FindRenderedTextEnd@ImGui@@YAPEBDPEBD0@Z DD imagerel $LN7
	DD	imagerel $LN7+128
	DD	imagerel $unwind$?FindRenderedTextEnd@ImGui@@YAPEBDPEBD0@Z
$pdata$?SetCurrentWindow@@YAXPEAUImGuiWindow@@@Z DD imagerel ?SetCurrentWindow@@YAXPEAUImGuiWindow@@@Z
	DD	imagerel ?SetCurrentWindow@@YAXPEAUImGuiWindow@@@Z+105
	DD	imagerel $unwind$?SetCurrentWindow@@YAXPEAUImGuiWindow@@@Z
$pdata$?FindHoveredWindow@@YAXXZ DD imagerel ?FindHoveredWindow@@YAXXZ
	DD	imagerel ?FindHoveredWindow@@YAXXZ+614
	DD	imagerel $unwind$?FindHoveredWindow@@YAXXZ
$pdata$?CreateNewWindow@@YAPEAUImGuiWindow@@PEBDUImVec2@@H@Z DD imagerel ?CreateNewWindow@@YAPEAUImGuiWindow@@PEBDUImVec2@@H@Z
	DD	imagerel ?CreateNewWindow@@YAPEAUImGuiWindow@@PEBDUImVec2@@H@Z+675
	DD	imagerel $unwind$?CreateNewWindow@@YAPEAUImGuiWindow@@PEBDUImVec2@@H@Z
pdata	ENDS
pdata	SEGMENT
$pdata$?dtor$0@?0??CreateNewWindow@@YAPEAUImGuiWindow@@PEBDUImVec2@@H@Z@4HA DD imagerel ?dtor$0@?0??CreateNewWindow@@YAPEAUImGuiWindow@@PEBDUImVec2@@H@Z@4HA
	DD	imagerel ?dtor$0@?0??CreateNewWindow@@YAPEAUImGuiWindow@@PEBDUImVec2@@H@Z@4HA+35
	DD	imagerel $unwind$?dtor$0@?0??CreateNewWindow@@YAPEAUImGuiWindow@@PEBDUImVec2@@H@Z@4HA
pdata	ENDS
pdata	SEGMENT
$pdata$?CheckStacksSize@@YAXPEAUImGuiWindow@@_N@Z DD imagerel ?CheckStacksSize@@YAXPEAUImGuiWindow@@_N@Z
	DD	imagerel ?CheckStacksSize@@YAXPEAUImGuiWindow@@_N@Z+361
	DD	imagerel $unwind$?CheckStacksSize@@YAXPEAUImGuiWindow@@_N@Z
$pdata$?CalcNextScrollFromScrollTargetAndClamp@@YA?AUImVec2@@PEAUImGuiWindow@@_N@Z DD imagerel ?CalcNextScrollFromScrollTargetAndClamp@@YA?AUImVec2@@PEAUImGuiWindow@@_N@Z
	DD	imagerel ?CalcNextScrollFromScrollTargetAndClamp@@YA?AUImVec2@@PEAUImGuiWindow@@_N@Z+608
	DD	imagerel $unwind$?CalcNextScrollFromScrollTargetAndClamp@@YA?AUImVec2@@PEAUImGuiWindow@@_N@Z
$pdata$?AddDrawListToDrawData@@YAXPEAU?$ImVector@PEAUImDrawList@@@@PEAUImDrawList@@@Z DD imagerel ?AddDrawListToDrawData@@YAXPEAU?$ImVector@PEAUImDrawList@@@@PEAUImDrawList@@@Z
	DD	imagerel ?AddDrawListToDrawData@@YAXPEAU?$ImVector@PEAUImDrawList@@@@PEAUImDrawList@@@Z+152
	DD	imagerel $unwind$?AddDrawListToDrawData@@YAXPEAU?$ImVector@PEAUImDrawList@@@@PEAUImDrawList@@@Z
$pdata$?AddWindowToSortBuffer@@YAXPEAU?$ImVector@PEAUImGuiWindow@@@@PEAUImGuiWindow@@@Z DD imagerel ?AddWindowToSortBuffer@@YAXPEAU?$ImVector@PEAUImGuiWindow@@@@PEAUImGuiWindow@@@Z
	DD	imagerel ?AddWindowToSortBuffer@@YAXPEAU?$ImVector@PEAUImGuiWindow@@@@PEAUImGuiWindow@@@Z+230
	DD	imagerel $unwind$?AddWindowToSortBuffer@@YAXPEAU?$ImVector@PEAUImGuiWindow@@@@PEAUImGuiWindow@@@Z
$pdata$?GetViewportRect@@YA?AUImRect@@XZ DD imagerel ?GetViewportRect@@YA?AUImRect@@XZ
	DD	imagerel ?GetViewportRect@@YA?AUImRect@@XZ+73
	DD	imagerel $unwind$?GetViewportRect@@YA?AUImRect@@XZ
$pdata$?GetClipboardTextFn_DefaultImpl@@YAPEBDPEAX@Z DD imagerel ?GetClipboardTextFn_DefaultImpl@@YAPEBDPEAX@Z
	DD	imagerel ?GetClipboardTextFn_DefaultImpl@@YAPEBDPEAX@Z+283
	DD	imagerel $unwind$?GetClipboardTextFn_DefaultImpl@@YAPEBDPEAX@Z
pdata	ENDS
pdata	SEGMENT
$pdata$?dtor$0@?0??GetClipboardTextFn_DefaultImpl@@YAPEBDPEAX@Z@4HA DD imagerel ?dtor$0@?0??GetClipboardTextFn_DefaultImpl@@YAPEBDPEAX@Z@4HA
	DD	imagerel ?dtor$0@?0??GetClipboardTextFn_DefaultImpl@@YAPEBDPEAX@Z@4HA+27
	DD	imagerel $unwind$?dtor$0@?0??GetClipboardTextFn_DefaultImpl@@YAPEBDPEAX@Z@4HA
pdata	ENDS
pdata	SEGMENT
$pdata$?SetClipboardTextFn_DefaultImpl@@YAXPEAXPEBD@Z DD imagerel ?SetClipboardTextFn_DefaultImpl@@YAXPEAXPEBD@Z
	DD	imagerel ?SetClipboardTextFn_DefaultImpl@@YAXPEAXPEBD@Z+203
	DD	imagerel $unwind$?SetClipboardTextFn_DefaultImpl@@YAXPEAXPEBD@Z
$pdata$?ImeSetInputScreenPosFn_DefaultImpl@@YAXHH@Z DD imagerel ?ImeSetInputScreenPosFn_DefaultImpl@@YAXHH@Z
	DD	imagerel ?ImeSetInputScreenPosFn_DefaultImpl@@YAXHH@Z+150
	DD	imagerel $unwind$?ImeSetInputScreenPosFn_DefaultImpl@@YAXHH@Z
$pdata$?BeginChildEx@ImGui@@YA_NPEBDIAEBUImVec2@@_NH@Z DD imagerel ?BeginChildEx@ImGui@@YA_NPEBDIAEBUImVec2@@_NH@Z
	DD	imagerel ?BeginChildEx@ImGui@@YA_NPEBDIAEBUImVec2@@_NH@Z+770
	DD	imagerel $unwind$?BeginChildEx@ImGui@@YA_NPEBDIAEBUImVec2@@_NH@Z
$pdata$?NavUpdate@ImGui@@YAXXZ DD imagerel ?NavUpdate@ImGui@@YAXXZ
	DD	imagerel ?NavUpdate@ImGui@@YAXXZ+5812
	DD	imagerel $unwind$?NavUpdate@ImGui@@YAXXZ
$pdata$?NavUpdateWindowing@ImGui@@YAXXZ DD imagerel ?NavUpdateWindowing@ImGui@@YAXXZ
	DD	imagerel ?NavUpdateWindowing@ImGui@@YAXXZ+2360
	DD	imagerel $unwind$?NavUpdateWindowing@ImGui@@YAXXZ
$pdata$?NavUpdateMoveResult@ImGui@@YAXXZ DD imagerel ?NavUpdateMoveResult@ImGui@@YAXXZ
	DD	imagerel ?NavUpdateMoveResult@ImGui@@YAXXZ+904
	DD	imagerel $unwind$?NavUpdateMoveResult@ImGui@@YAXXZ
$pdata$?NavUpdatePageUpPageDown@ImGui@@YAMH@Z DD imagerel ?NavUpdatePageUpPageDown@ImGui@@YAMH@Z
	DD	imagerel ?NavUpdatePageUpPageDown@ImGui@@YAMH@Z+850
	DD	imagerel $unwind$?NavUpdatePageUpPageDown@ImGui@@YAMH@Z
$pdata$?NavUpdateAnyRequestFlag@ImGui@@YAXXZ DD imagerel ?NavUpdateAnyRequestFlag@ImGui@@YAXXZ
	DD	imagerel ?NavUpdateAnyRequestFlag@ImGui@@YAXXZ+102
	DD	imagerel $unwind$?NavUpdateAnyRequestFlag@ImGui@@YAXXZ
$pdata$?NavProcessItem@ImGui@@YAXPEAUImGuiWindow@@AEBUImRect@@I@Z DD imagerel ?NavProcessItem@ImGui@@YAXPEAUImGuiWindow@@AEBUImRect@@I@Z
	DD	imagerel ?NavProcessItem@ImGui@@YAXPEAUImGuiWindow@@AEBUImRect@@I@Z+1171
	DD	imagerel $unwind$?NavProcessItem@ImGui@@YAXPEAUImGuiWindow@@AEBUImRect@@I@Z
$pdata$?NavCalcPreferredRefPos@ImGui@@YA?AUImVec2@@XZ DD imagerel ?NavCalcPreferredRefPos@ImGui@@YA?AUImVec2@@XZ
	DD	imagerel ?NavCalcPreferredRefPos@ImGui@@YA?AUImVec2@@XZ+510
	DD	imagerel $unwind$?NavCalcPreferredRefPos@ImGui@@YA?AUImVec2@@XZ
$pdata$?NavSaveLastChildNavWindow@ImGui@@YAXPEAUImGuiWindow@@@Z DD imagerel ?NavSaveLastChildNavWindow@ImGui@@YAXPEAUImGuiWindow@@@Z
	DD	imagerel ?NavSaveLastChildNavWindow@ImGui@@YAXPEAUImGuiWindow@@@Z+113
	DD	imagerel $unwind$?NavSaveLastChildNavWindow@ImGui@@YAXPEAUImGuiWindow@@@Z
$pdata$?NavRestoreLastChildNavWindow@ImGui@@YAPEAUImGuiWindow@@PEAU2@@Z DD imagerel ?NavRestoreLastChildNavWindow@ImGui@@YAPEAUImGuiWindow@@PEAU2@@Z
	DD	imagerel ?NavRestoreLastChildNavWindow@ImGui@@YAPEAUImGuiWindow@@PEAU2@@Z+60
	DD	imagerel $unwind$?NavRestoreLastChildNavWindow@ImGui@@YAPEAUImGuiWindow@@PEAU2@@Z
$pdata$?UpdateMouseInputs@ImGui@@YAXXZ DD imagerel ?UpdateMouseInputs@ImGui@@YAXXZ
	DD	imagerel ?UpdateMouseInputs@ImGui@@YAXXZ+1634
	DD	imagerel $unwind$?UpdateMouseInputs@ImGui@@YAXXZ
$pdata$?UpdateMouseWheel@ImGui@@YAXXZ DD imagerel ?UpdateMouseWheel@ImGui@@YAXXZ
	DD	imagerel ?UpdateMouseWheel@ImGui@@YAXXZ+991
	DD	imagerel $unwind$?UpdateMouseWheel@ImGui@@YAXXZ
$pdata$?UpdateManualResize@ImGui@@YAXPEAUImGuiWindow@@AEBUImVec2@@PEAHHQEAI@Z DD imagerel ?UpdateManualResize@ImGui@@YAXPEAUImGuiWindow@@AEBUImVec2@@PEAHHQEAI@Z
	DD	imagerel ?UpdateManualResize@ImGui@@YAXPEAUImGuiWindow@@AEBUImVec2@@PEAHHQEAI@Z+2728
	DD	imagerel $unwind$?UpdateManualResize@ImGui@@YAXPEAUImGuiWindow@@AEBUImVec2@@PEAHHQEAI@Z
$pdata$?RenderOuterBorders@ImGui@@YAXPEAUImGuiWindow@@@Z DD imagerel ?RenderOuterBorders@ImGui@@YAXPEAUImGuiWindow@@@Z
	DD	imagerel ?RenderOuterBorders@ImGui@@YAXPEAUImGuiWindow@@@Z+1838
	DD	imagerel $unwind$?RenderOuterBorders@ImGui@@YAXPEAUImGuiWindow@@@Z
pdata	ENDS
pdata	SEGMENT
$pdata$?dtor$0@?0??RenderOuterBorders@ImGui@@YAXPEAUImGuiWindow@@@Z@4HA DD imagerel ?dtor$0@?0??RenderOuterBorders@ImGui@@YAXPEAUImGuiWindow@@@Z@4HA
	DD	imagerel ?dtor$0@?0??RenderOuterBorders@ImGui@@YAXPEAUImGuiWindow@@@Z@4HA+27
	DD	imagerel $unwind$?dtor$0@?0??RenderOuterBorders@ImGui@@YAXPEAUImGuiWindow@@@Z@4HA
pdata	ENDS
pdata	SEGMENT
$pdata$?MallocWrapper@@YAPEAX_KPEAX@Z DD imagerel ?MallocWrapper@@YAPEAX_KPEAX@Z
	DD	imagerel ?MallocWrapper@@YAPEAX_KPEAX@Z+29
	DD	imagerel $unwind$?MallocWrapper@@YAPEAX_KPEAX@Z
$pdata$?FreeWrapper@@YAXPEAX0@Z DD imagerel ?FreeWrapper@@YAXPEAX0@Z
	DD	imagerel ?FreeWrapper@@YAXPEAX0@Z+30
	DD	imagerel $unwind$?FreeWrapper@@YAXPEAX0@Z
$pdata$??$ImSwap@M@@YAXAEAM0@Z DD imagerel ??$ImSwap@M@@YAXAEAM0@Z
	DD	imagerel ??$ImSwap@M@@YAXAEAM0@Z+65
	DD	imagerel $unwind$??$ImSwap@M@@YAXAEAM0@Z
$pdata$?LowerBound@@YAPEAUPair@ImGuiStorage@@AEAU?$ImVector@UPair@ImGuiStorage@@@@I@Z DD imagerel ?LowerBound@@YAPEAUPair@ImGuiStorage@@AEAU?$ImVector@UPair@ImGuiStorage@@@@I@Z
	DD	imagerel ?LowerBound@@YAPEAUPair@ImGuiStorage@@AEAU?$ImVector@UPair@ImGuiStorage@@@@I@Z+200
	DD	imagerel $unwind$?LowerBound@@YAPEAUPair@ImGuiStorage@@AEAU?$ImVector@UPair@ImGuiStorage@@@@I@Z
$pdata$?SetCursorPosYAndSetupDummyPrevLine@@YAXMM@Z DD imagerel ?SetCursorPosYAndSetupDummyPrevLine@@YAXMM@Z
	DD	imagerel ?SetCursorPosYAndSetupDummyPrevLine@@YAXMM@Z+153
	DD	imagerel $unwind$?SetCursorPosYAndSetupDummyPrevLine@@YAXMM@Z
$pdata$?IsWindowContentHoverable@@YA_NPEAUImGuiWindow@@H@Z DD imagerel ?IsWindowContentHoverable@@YA_NPEAUImGuiWindow@@H@Z
	DD	imagerel ?IsWindowContentHoverable@@YA_NPEAUImGuiWindow@@H@Z+161
	DD	imagerel $unwind$?IsWindowContentHoverable@@YA_NPEAUImGuiWindow@@H@Z
pdata	ENDS
;	COMDAT pdata
pdata	SEGMENT
$pdata$??$IM_DELETE@UImGuiContext@@@@YAXPEAUImGuiContext@@@Z DD imagerel $LN4
	DD	imagerel $LN4+45
	DD	imagerel $unwind$??$IM_DELETE@UImGuiContext@@@@YAXPEAUImGuiContext@@@Z
pdata	ENDS
pdata	SEGMENT
$pdata$?IsWindowActiveAndVisible@@YA_NPEAUImGuiWindow@@@Z DD imagerel ?IsWindowActiveAndVisible@@YA_NPEAUImGuiWindow@@@Z
	DD	imagerel ?IsWindowActiveAndVisible@@YA_NPEAUImGuiWindow@@@Z+63
	DD	imagerel $unwind$?IsWindowActiveAndVisible@@YA_NPEAUImGuiWindow@@@Z
$pdata$??$ImClamp@M@@YAMMMM@Z DD imagerel ??$ImClamp@M@@YAMMMM@Z
	DD	imagerel ??$ImClamp@M@@YAMMMM@Z+108
	DD	imagerel $unwind$??$ImClamp@M@@YAMMMM@Z
pdata	ENDS
;	COMDAT pdata
pdata	SEGMENT
$pdata$??$IM_DELETE@UImFontAtlas@@@@YAXPEAUImFontAtlas@@@Z DD imagerel $LN4
	DD	imagerel $LN4+45
	DD	imagerel $unwind$??$IM_DELETE@UImFontAtlas@@@@YAXPEAUImFontAtlas@@@Z
pdata	ENDS
;	COMDAT pdata
pdata	SEGMENT
$pdata$??$IM_DELETE@UImGuiWindow@@@@YAXPEAUImGuiWindow@@@Z DD imagerel $LN4
	DD	imagerel $LN4+45
	DD	imagerel $unwind$??$IM_DELETE@UImGuiWindow@@@@YAXPEAUImGuiWindow@@@Z
pdata	ENDS
pdata	SEGMENT
$pdata$?ChildWindowComparer@@YAHPEBX0@Z DD imagerel ?ChildWindowComparer@@YAHPEBX0@Z
	DD	imagerel ?ChildWindowComparer@@YAHPEBX0@Z+160
	DD	imagerel $unwind$?ChildWindowComparer@@YAHPEBX0@Z
$pdata$?AddWindowToDrawData@@YAXPEAU?$ImVector@PEAUImDrawList@@@@PEAUImGuiWindow@@@Z DD imagerel ?AddWindowToDrawData@@YAXPEAU?$ImVector@PEAUImDrawList@@@@PEAUImGuiWindow@@@Z
	DD	imagerel ?AddWindowToDrawData@@YAXPEAU?$ImVector@PEAUImDrawList@@@@PEAUImGuiWindow@@@Z+188
	DD	imagerel $unwind$?AddWindowToDrawData@@YAXPEAU?$ImVector@PEAUImDrawList@@@@PEAUImGuiWindow@@@Z
$pdata$?AddRootWindowToDrawData@@YAXPEAUImGuiWindow@@@Z DD imagerel ?AddRootWindowToDrawData@@YAXPEAUImGuiWindow@@@Z
	DD	imagerel ?AddRootWindowToDrawData@@YAXPEAUImGuiWindow@@@Z+117
	DD	imagerel $unwind$?AddRootWindowToDrawData@@YAXPEAUImGuiWindow@@@Z
$pdata$?SetupDrawData@@YAXPEAU?$ImVector@PEAUImDrawList@@@@PEAUImDrawData@@@Z DD imagerel ?SetupDrawData@@YAXPEAU?$ImVector@PEAUImDrawList@@@@PEAUImDrawData@@@Z
	DD	imagerel ?SetupDrawData@@YAXPEAU?$ImVector@PEAUImDrawList@@@@PEAUImDrawData@@@Z+304
	DD	imagerel $unwind$?SetupDrawData@@YAXPEAU?$ImVector@PEAUImDrawList@@@@PEAUImDrawData@@@Z
$pdata$??$ImClamp@H@@YAHHHH@Z DD imagerel ??$ImClamp@H@@YAHHHH@Z
	DD	imagerel ??$ImClamp@H@@YAHHHH@Z+79
	DD	imagerel $unwind$??$ImClamp@H@@YAHHHH@Z
$pdata$?SetWindowConditionAllowFlags@@YAXPEAUImGuiWindow@@H_N@Z DD imagerel ?SetWindowConditionAllowFlags@@YAXPEAUImGuiWindow@@H_N@Z
	DD	imagerel ?SetWindowConditionAllowFlags@@YAXPEAUImGuiWindow@@H_N@Z+236
	DD	imagerel $unwind$?SetWindowConditionAllowFlags@@YAXPEAUImGuiWindow@@H_N@Z
$pdata$?CalcSizeAfterConstraint@@YA?AUImVec2@@PEAUImGuiWindow@@U1@@Z DD imagerel ?CalcSizeAfterConstraint@@YA?AUImVec2@@PEAUImGuiWindow@@U1@@Z
	DD	imagerel ?CalcSizeAfterConstraint@@YA?AUImVec2@@PEAUImGuiWindow@@U1@@Z+628
	DD	imagerel $unwind$?CalcSizeAfterConstraint@@YA?AUImVec2@@PEAUImGuiWindow@@U1@@Z
$pdata$?CalcSizeContents@@YA?AUImVec2@@PEAUImGuiWindow@@@Z DD imagerel ?CalcSizeContents@@YA?AUImVec2@@PEAUImGuiWindow@@@Z
	DD	imagerel ?CalcSizeContents@@YA?AUImVec2@@PEAUImGuiWindow@@@Z+388
	DD	imagerel $unwind$?CalcSizeContents@@YA?AUImVec2@@PEAUImGuiWindow@@@Z
$pdata$?CalcSizeAutoFit@@YA?AUImVec2@@PEAUImGuiWindow@@AEBU1@@Z DD imagerel ?CalcSizeAutoFit@@YA?AUImVec2@@PEAUImGuiWindow@@AEBU1@@Z
	DD	imagerel ?CalcSizeAutoFit@@YA?AUImVec2@@PEAUImGuiWindow@@AEBU1@@Z+573
	DD	imagerel $unwind$?CalcSizeAutoFit@@YA?AUImVec2@@PEAUImGuiWindow@@AEBU1@@Z
$pdata$?CalcResizePosSizeFromAnyCorner@@YAXPEAUImGuiWindow@@AEBUImVec2@@1PEAU2@2@Z DD imagerel ?CalcResizePosSizeFromAnyCorner@@YAXPEAUImGuiWindow@@AEBUImVec2@@1PEAU2@2@Z
	DD	imagerel ?CalcResizePosSizeFromAnyCorner@@YAXPEAUImGuiWindow@@AEBUImVec2@@1PEAU2@2@Z+302
	DD	imagerel $unwind$?CalcResizePosSizeFromAnyCorner@@YAXPEAUImGuiWindow@@AEBUImVec2@@1PEAU2@2@Z
pdata	ENDS
;	COMDAT pdata
pdata	SEGMENT
$pdata$??__Eresize_grip_def@@YAXXZ DD imagerel ??__Eresize_grip_def@@YAXXZ
	DD	imagerel ??__Eresize_grip_def@@YAXXZ+293
	DD	imagerel $unwind$??__Eresize_grip_def@@YAXXZ
pdata	ENDS
pdata	SEGMENT
$pdata$?GetResizeBorderRect@@YA?AUImRect@@PEAUImGuiWindow@@HMM@Z DD imagerel ?GetResizeBorderRect@@YA?AUImRect@@PEAUImGuiWindow@@HMM@Z
	DD	imagerel ?GetResizeBorderRect@@YA?AUImRect@@PEAUImGuiWindow@@HMM@Z+571
	DD	imagerel $unwind$?GetResizeBorderRect@@YA?AUImRect@@PEAUImGuiWindow@@HMM@Z
$pdata$?NavClampRectToVisibleAreaForMoveDir@@YAXHAEAUImRect@@AEBU1@@Z DD imagerel ?NavClampRectToVisibleAreaForMoveDir@@YAXHAEAUImRect@@AEBU1@@Z
	DD	imagerel ?NavClampRectToVisibleAreaForMoveDir@@YAXHAEAUImRect@@AEBU1@@Z+215
	DD	imagerel $unwind$?NavClampRectToVisibleAreaForMoveDir@@YAXHAEAUImRect@@AEBU1@@Z
$pdata$?NavScoreItem@@YA_NPEAUImGuiNavMoveResult@@UImRect@@@Z DD imagerel ?NavScoreItem@@YA_NPEAUImGuiNavMoveResult@@UImRect@@@Z
	DD	imagerel ?NavScoreItem@@YA_NPEAUImGuiNavMoveResult@@UImRect@@@Z+1617
	DD	imagerel $unwind$?NavScoreItem@@YA_NPEAUImGuiNavMoveResult@@UImRect@@@Z
$pdata$?NavRestoreLayer@@YAXW4ImGuiNavLayer@@@Z DD imagerel ?NavRestoreLayer@@YAXW4ImGuiNavLayer@@@Z
	DD	imagerel ?NavRestoreLayer@@YAXW4ImGuiNavLayer@@@Z+216
	DD	imagerel $unwind$?NavRestoreLayer@@YAXW4ImGuiNavLayer@@@Z
$pdata$?NavScrollToBringItemIntoView@@YAXPEAUImGuiWindow@@AEBUImRect@@@Z DD imagerel ?NavScrollToBringItemIntoView@@YAXPEAUImGuiWindow@@AEBUImRect@@@Z
	DD	imagerel ?NavScrollToBringItemIntoView@@YAXPEAUImGuiWindow@@AEBUImRect@@@Z+654
	DD	imagerel $unwind$?NavScrollToBringItemIntoView@@YAXPEAUImGuiWindow@@AEBUImRect@@@Z
$pdata$?FindWindowFocusIndex@@YAHPEAUImGuiWindow@@@Z DD imagerel ?FindWindowFocusIndex@@YAHPEAUImGuiWindow@@@Z
	DD	imagerel ?FindWindowFocusIndex@@YAHPEAUImGuiWindow@@@Z+115
	DD	imagerel $unwind$?FindWindowFocusIndex@@YAHPEAUImGuiWindow@@@Z
$pdata$?FindWindowNavFocusable@@YAPEAUImGuiWindow@@HHH@Z DD imagerel ?FindWindowNavFocusable@@YAPEAUImGuiWindow@@HHH@Z
	DD	imagerel ?FindWindowNavFocusable@@YAPEAUImGuiWindow@@HHH@Z+181
	DD	imagerel $unwind$?FindWindowNavFocusable@@YAPEAUImGuiWindow@@HHH@Z
$pdata$?NavUpdateWindowingHighlightWindow@@YAXH@Z DD imagerel ?NavUpdateWindowingHighlightWindow@@YAXH@Z
	DD	imagerel ?NavUpdateWindowingHighlightWindow@@YAXH@Z+236
	DD	imagerel $unwind$?NavUpdateWindowingHighlightWindow@@YAXH@Z
$pdata$?GetDraggedColumnOffset@@YAMPEAUImGuiColumnsSet@@H@Z DD imagerel ?GetDraggedColumnOffset@@YAMPEAUImGuiColumnsSet@@H@Z
	DD	imagerel ?GetDraggedColumnOffset@@YAMPEAUImGuiColumnsSet@@H@Z+226
	DD	imagerel $unwind$?GetDraggedColumnOffset@@YAMPEAUImGuiColumnsSet@@H@Z
$pdata$?GetColumnWidthEx@@YAMPEAUImGuiColumnsSet@@H_N@Z DD imagerel ?GetColumnWidthEx@@YAMPEAUImGuiColumnsSet@@H_N@Z
	DD	imagerel ?GetColumnWidthEx@@YAMPEAUImGuiColumnsSet@@H_N@Z+242
	DD	imagerel $unwind$?GetColumnWidthEx@@YAMPEAUImGuiColumnsSet@@H_N@Z
$pdata$?FindOrAddColumnsSet@@YAPEAUImGuiColumnsSet@@PEAUImGuiWindow@@I@Z DD imagerel ?FindOrAddColumnsSet@@YAPEAUImGuiColumnsSet@@PEAUImGuiWindow@@I@Z
	DD	imagerel ?FindOrAddColumnsSet@@YAPEAUImGuiColumnsSet@@PEAUImGuiWindow@@I@Z+264
	DD	imagerel $unwind$?FindOrAddColumnsSet@@YAPEAUImGuiColumnsSet@@PEAUImGuiWindow@@I@Z
pdata	ENDS
pdata	SEGMENT
$pdata$?dtor$0@?0??FindOrAddColumnsSet@@YAPEAUImGuiColumnsSet@@PEAUImGuiWindow@@I@Z@4HA DD imagerel ?dtor$0@?0??FindOrAddColumnsSet@@YAPEAUImGuiColumnsSet@@PEAUImGuiWindow@@I@Z@4HA
	DD	imagerel ?dtor$0@?0??FindOrAddColumnsSet@@YAPEAUImGuiColumnsSet@@PEAUImGuiWindow@@I@Z@4HA+24
	DD	imagerel $unwind$?dtor$0@?0??FindOrAddColumnsSet@@YAPEAUImGuiColumnsSet@@PEAUImGuiWindow@@I@Z@4HA
pdata	ENDS
;	COMDAT pdata
pdata	SEGMENT
$pdata$??__Fbuf_local@?1??GetClipboardTextFn_DefaultImpl@@YAPEBDPEAX@Z@YAXXZ DD imagerel ??__Fbuf_local@?1??GetClipboardTextFn_DefaultImpl@@YAPEBDPEAX@Z@YAXXZ
	DD	imagerel ??__Fbuf_local@?1??GetClipboardTextFn_DefaultImpl@@YAPEBDPEAX@Z@YAXXZ+22
	DD	imagerel $unwind$??__Fbuf_local@?1??GetClipboardTextFn_DefaultImpl@@YAPEBDPEAX@Z@YAXXZ
pdata	ENDS
pdata	SEGMENT
$pdata$?NodeDrawList@Funcs@?1??ShowMetricsWindow@ImGui@@YAXPEA_N@Z@SAXPEAUImGuiWindow@@PEAUImDrawList@@PEBD@Z DD imagerel ?NodeDrawList@Funcs@?1??ShowMetricsWindow@ImGui@@YAXPEA_N@Z@SAXPEAUImGuiWindow@@PEAUImDrawList@@PEBD@Z
	DD	imagerel ?NodeDrawList@Funcs@?1??ShowMetricsWindow@ImGui@@YAXPEA_N@Z@SAXPEAUImGuiWindow@@PEAUImDrawList@@PEBD@Z+2347
	DD	imagerel $unwind$?NodeDrawList@Funcs@?1??ShowMetricsWindow@ImGui@@YAXPEA_N@Z@SAXPEAUImGuiWindow@@PEAUImDrawList@@PEBD@Z
pdata	ENDS
pdata	SEGMENT
$pdata$?dtor$0@?0??NodeDrawList@Funcs@?1??ShowMetricsWindow@ImGui@@YAXPEA_N@Z@SAXPEAUImGuiWindow@@PEAUImDrawList@@PEBD@Z@4HA DD imagerel ?dtor$0@?0??NodeDrawList@Funcs@?1??ShowMetricsWindow@ImGui@@YAXPEA_N@Z@SAXPEAUImGuiWindow@@PEAUImDrawList@@PEBD@Z@4HA
	DD	imagerel ?dtor$0@?0??NodeDrawList@Funcs@?1??ShowMetricsWindow@ImGui@@YAXPEA_N@Z@SAXPEAUImGuiWindow@@PEAUImDrawList@@PEBD@Z@4HA+27
	DD	imagerel $unwind$?dtor$0@?0??NodeDrawList@Funcs@?1??ShowMetricsWindow@ImGui@@YAXPEA_N@Z@SAXPEAUImGuiWindow@@PEAUImDrawList@@PEBD@Z@4HA
pdata	ENDS
pdata	SEGMENT
$pdata$?NodeWindows@Funcs@?1??ShowMetricsWindow@ImGui@@YAXPEA_N@Z@SAXAEAU?$ImVector@PEAUImGuiWindow@@@@PEBD@Z DD imagerel ?NodeWindows@Funcs@?1??ShowMetricsWindow@ImGui@@YAXPEA_N@Z@SAXAEAU?$ImVector@PEAUImGuiWindow@@@@PEBD@Z
	DD	imagerel ?NodeWindows@Funcs@?1??ShowMetricsWindow@ImGui@@YAXPEA_N@Z@SAXAEAU?$ImVector@PEAUImGuiWindow@@@@PEBD@Z+129
	DD	imagerel $unwind$?NodeWindows@Funcs@?1??ShowMetricsWindow@ImGui@@YAXPEA_N@Z@SAXAEAU?$ImVector@PEAUImGuiWindow@@@@PEBD@Z
$pdata$?NodeWindow@Funcs@?1??ShowMetricsWindow@ImGui@@YAXPEA_N@Z@SAXPEAUImGuiWindow@@PEBD@Z DD imagerel ?NodeWindow@Funcs@?1??ShowMetricsWindow@ImGui@@YAXPEA_N@Z@SAXPEAUImGuiWindow@@PEBD@Z
	DD	imagerel ?NodeWindow@Funcs@?1??ShowMetricsWindow@ImGui@@YAXPEA_N@Z@SAXPEAUImGuiWindow@@PEBD@Z+2302
	DD	imagerel $unwind$?NodeWindow@Funcs@?1??ShowMetricsWindow@ImGui@@YAXPEA_N@Z@SAXPEAUImGuiWindow@@PEBD@Z
$pdata$?NodeTabBar@Funcs@?1??ShowMetricsWindow@ImGui@@YAXPEA_N@Z@SAXPEAUImGuiTabBar@@@Z DD imagerel ?NodeTabBar@Funcs@?1??ShowMetricsWindow@ImGui@@YAXPEA_N@Z@SAXPEAUImGuiTabBar@@@Z
	DD	imagerel ?NodeTabBar@Funcs@?1??ShowMetricsWindow@ImGui@@YAXPEA_N@Z@SAXPEAUImGuiTabBar@@@Z+524
	DD	imagerel $unwind$?NodeTabBar@Funcs@?1??ShowMetricsWindow@ImGui@@YAXPEA_N@Z@SAXPEAUImGuiTabBar@@@Z
pdata	ENDS
;	COMDAT pdata
pdata	SEGMENT
$pdata$??__E?id@?$codecvt@DDU_Mbstatet@@@std@@2V0locale@2@A@@YAXXZ DD imagerel ??__E?id@?$codecvt@DDU_Mbstatet@@@std@@2V0locale@2@A@@YAXXZ
	DD	imagerel ??__E?id@?$codecvt@DDU_Mbstatet@@@std@@2V0locale@2@A@@YAXXZ+22
	DD	imagerel $unwind$??__E?id@?$codecvt@DDU_Mbstatet@@@std@@2V0locale@2@A@@YAXXZ
pdata	ENDS
;	COMDAT pdata
pdata	SEGMENT
$pdata$??__E?id@?$num_put@DV?$ostreambuf_iterator@DU?$char_traits@D@std@@@std@@@std@@2V0locale@2@A@@YAXXZ DD imagerel ??__E?id@?$num_put@DV?$ostreambuf_iterator@DU?$char_traits@D@std@@@std@@@std@@2V0locale@2@A@@YAXXZ
	DD	imagerel ??__E?id@?$num_put@DV?$ostreambuf_iterator@DU?$char_traits@D@std@@@std@@@std@@2V0locale@2@A@@YAXXZ+22
	DD	imagerel $unwind$??__E?id@?$num_put@DV?$ostreambuf_iterator@DU?$char_traits@D@std@@@std@@@std@@2V0locale@2@A@@YAXXZ
pdata	ENDS
;	COMDAT pdata
pdata	SEGMENT
$pdata$??__E?id@?$collate@D@std@@2V0locale@2@A@@YAXXZ DD imagerel ??__E?id@?$collate@D@std@@2V0locale@2@A@@YAXXZ
	DD	imagerel ??__E?id@?$collate@D@std@@2V0locale@2@A@@YAXXZ+22
	DD	imagerel $unwind$??__E?id@?$collate@D@std@@2V0locale@2@A@@YAXXZ
pdata	ENDS
;	COMDAT pdata
pdata	SEGMENT
$pdata$??__E?id@?$numpunct@D@std@@2V0locale@2@A@@YAXXZ DD imagerel ??__E?id@?$numpunct@D@std@@2V0locale@2@A@@YAXXZ
	DD	imagerel ??__E?id@?$numpunct@D@std@@2V0locale@2@A@@YAXXZ+22
	DD	imagerel $unwind$??__E?id@?$numpunct@D@std@@2V0locale@2@A@@YAXXZ
pdata	ENDS
CRT$XCU	SEGMENT
?wsinit_$initializer$@detail@httplib@@3P6AXXZEA DQ FLAT:??__Ewsinit_@detail@httplib@@YAXXZ ; httplib::detail::wsinit_$initializer$
CRT$XCU	ENDS
;	COMDAT __xmm@80000000800000008000000080000000
CONST	SEGMENT
__xmm@80000000800000008000000080000000 DB 00H, 00H, 00H, 080H, 00H, 00H, 00H
	DB	080H, 00H, 00H, 00H, 080H, 00H, 00H, 00H, 080H
CONST	ENDS
;	COMDAT __real@ff7fffff
CONST	SEGMENT
__real@ff7fffff DD 0ff7fffffr			; -3.40282e+38
CONST	ENDS
;	COMDAT __real@c87a0000
CONST	SEGMENT
__real@c87a0000 DD 0c87a0000r			; -256000
CONST	ENDS
;	COMDAT __real@c7efffffe0000000
CONST	SEGMENT
__real@c7efffffe0000000 DQ 0c7efffffe0000000r	; -3.40282e+38
CONST	ENDS
;	COMDAT __real@bf800000
CONST	SEGMENT
__real@bf800000 DD 0bf800000r			; -1
CONST	ENDS
;	COMDAT __real@bf5db22d
CONST	SEGMENT
__real@bf5db22d DD 0bf5db22dr			; -0.866
CONST	ENDS
;	COMDAT __real@bf400000
CONST	SEGMENT
__real@bf400000 DD 0bf400000r			; -0.75
CONST	ENDS
;	COMDAT __real@beaaaaab
CONST	SEGMENT
__real@beaaaaab DD 0beaaaaabr			; -0.333333
CONST	ENDS
;	COMDAT __real@7f7fffff
CONST	SEGMENT
__real@7f7fffff DD 07f7fffffr			; 3.40282e+38
CONST	ENDS
;	COMDAT __real@461c3c00
CONST	SEGMENT
__real@461c3c00 DD 0461c3c00r			; 9999
CONST	ENDS
;	COMDAT __real@447a0000
CONST	SEGMENT
__real@447a0000 DD 0447a0000r			; 1000
CONST	ENDS
;	COMDAT __real@44480000
CONST	SEGMENT
__real@44480000 DD 044480000r			; 800
CONST	ENDS
;	COMDAT __real@44160000
CONST	SEGMENT
__real@44160000 DD 044160000r			; 600
CONST	ENDS
;	COMDAT __real@43c80000
CONST	SEGMENT
__real@43c80000 DD 043c80000r			; 400
CONST	ENDS
;	COMDAT __real@437f0000
CONST	SEGMENT
__real@437f0000 DD 0437f0000r			; 255
CONST	ENDS
;	COMDAT __real@42f00000
CONST	SEGMENT
__real@42f00000 DD 042f00000r			; 120
CONST	ENDS
;	COMDAT __real@42c80000
CONST	SEGMENT
__real@42c80000 DD 042c80000r			; 100
CONST	ENDS
;	COMDAT __real@42700000
CONST	SEGMENT
__real@42700000 DD 042700000r			; 60
CONST	ENDS
;	COMDAT __real@42000000
CONST	SEGMENT
__real@42000000 DD 042000000r			; 32
CONST	ENDS
;	COMDAT __real@41c00000
CONST	SEGMENT
__real@41c00000 DD 041c00000r			; 24
CONST	ENDS
;	COMDAT __real@41a80000
CONST	SEGMENT
__real@41a80000 DD 041a80000r			; 21
CONST	ENDS
;	COMDAT __real@41980000
CONST	SEGMENT
__real@41980000 DD 041980000r			; 19
CONST	ENDS
;	COMDAT __real@41800000
CONST	SEGMENT
__real@41800000 DD 041800000r			; 16
CONST	ENDS
;	COMDAT __real@41200000
CONST	SEGMENT
__real@41200000 DD 041200000r			; 10
CONST	ENDS
;	COMDAT __real@41100000
CONST	SEGMENT
__real@41100000 DD 041100000r			; 9
CONST	ENDS
;	COMDAT __real@41000000
CONST	SEGMENT
__real@41000000 DD 041000000r			; 8
CONST	ENDS
;	COMDAT __real@40e00000
CONST	SEGMENT
__real@40e00000 DD 040e00000r			; 7
CONST	ENDS
;	COMDAT __real@40c00000
CONST	SEGMENT
__real@40c00000 DD 040c00000r			; 6
CONST	ENDS
;	COMDAT __real@40a00000
CONST	SEGMENT
__real@40a00000 DD 040a00000r			; 5
CONST	ENDS
;	COMDAT __real@4096cbe4
CONST	SEGMENT
__real@4096cbe4 DD 04096cbe4r			; 4.71239
CONST	ENDS
;	COMDAT __real@40800000
CONST	SEGMENT
__real@40800000 DD 040800000r			; 4
CONST	ENDS
;	COMDAT __real@40600000
CONST	SEGMENT
__real@40600000 DD 040600000r			; 3.5
CONST	ENDS
;	COMDAT __real@40490fdb
CONST	SEGMENT
__real@40490fdb DD 040490fdbr			; 3.14159
CONST	ENDS
;	COMDAT __real@40400000
CONST	SEGMENT
__real@40400000 DD 040400000r			; 3
CONST	ENDS
;	COMDAT __real@40200000
CONST	SEGMENT
__real@40200000 DD 040200000r			; 2.5
CONST	ENDS
;	COMDAT __real@40000000
CONST	SEGMENT
__real@40000000 DD 040000000r			; 2
CONST	ENDS
;	COMDAT __real@3fc90fdb
CONST	SEGMENT
__real@3fc90fdb DD 03fc90fdbr			; 1.5708
CONST	ENDS
;	COMDAT __real@3faccccd
CONST	SEGMENT
__real@3faccccd DD 03faccccdr			; 1.35
CONST	ENDS
;	COMDAT __real@3fa00000
CONST	SEGMENT
__real@3fa00000 DD 03fa00000r			; 1.25
CONST	ENDS
;	COMDAT __real@3f800000
CONST	SEGMENT
__real@3f800000 DD 03f800000r			; 1
CONST	ENDS
;	COMDAT __real@3f733333
CONST	SEGMENT
__real@3f733333 DD 03f733333r			; 0.95
CONST	ENDS
;	COMDAT __real@3f5db22d
CONST	SEGMENT
__real@3f5db22d DD 03f5db22dr			; 0.866
CONST	ENDS
;	COMDAT __real@3f4ccccd
CONST	SEGMENT
__real@3f4ccccd DD 03f4ccccdr			; 0.8
CONST	ENDS
;	COMDAT __real@3f490fdb
CONST	SEGMENT
__real@3f490fdb DD 03f490fdbr			; 0.785398
CONST	ENDS
;	COMDAT __real@3f400000
CONST	SEGMENT
__real@3f400000 DD 03f400000r			; 0.75
CONST	ENDS
;	COMDAT __real@3f333333
CONST	SEGMENT
__real@3f333333 DD 03f333333r			; 0.7
CONST	ENDS
;	COMDAT __real@3f2b851f
CONST	SEGMENT
__real@3f2b851f DD 03f2b851fr			; 0.67
CONST	ENDS
;	COMDAT __real@3f266666
CONST	SEGMENT
__real@3f266666 DD 03f266666r			; 0.65
CONST	ENDS
;	COMDAT __real@3f19999a
CONST	SEGMENT
__real@3f19999a DD 03f19999ar			; 0.6
CONST	ENDS
;	COMDAT __real@3f000000
CONST	SEGMENT
__real@3f000000 DD 03f000000r			; 0.5
CONST	ENDS
;	COMDAT __real@3ecccccd
CONST	SEGMENT
__real@3ecccccd DD 03ecccccdr			; 0.4
CONST	ENDS
;	COMDAT __real@3e99999a
CONST	SEGMENT
__real@3e99999a DD 03e99999ar			; 0.3
CONST	ENDS
;	COMDAT __real@3e800000
CONST	SEGMENT
__real@3e800000 DD 03e800000r			; 0.25
CONST	ENDS
;	COMDAT __real@3e4ccccd
CONST	SEGMENT
__real@3e4ccccd DD 03e4ccccdr			; 0.2
CONST	ENDS
;	COMDAT __real@3e2aaaab
CONST	SEGMENT
__real@3e2aaaab DD 03e2aaaabr			; 0.166667
CONST	ENDS
;	COMDAT __real@3dcccccd
CONST	SEGMENT
__real@3dcccccd DD 03dcccccdr			; 0.1
CONST	ENDS
;	COMDAT __real@3d4ccccd
CONST	SEGMENT
__real@3d4ccccd DD 03d4ccccdr			; 0.05
CONST	ENDS
;	COMDAT __real@3d23d70a
CONST	SEGMENT
__real@3d23d70a DD 03d23d70ar			; 0.04
CONST	ENDS
;	COMDAT __real@3c888889
CONST	SEGMENT
__real@3c888889 DD 03c888889r			; 0.0166667
CONST	ENDS
;	COMDAT __real@3c23d70a
CONST	SEGMENT
__real@3c23d70a DD 03c23d70ar			; 0.01
CONST	ENDS
;	COMDAT __real@3b808081
CONST	SEGMENT
__real@3b808081 DD 03b808081r			; 0.00392157
CONST	ENDS
;	COMDAT __real@38d1b717
CONST	SEGMENT
__real@38d1b717 DD 038d1b717r			; 0.0001
CONST	ENDS
;	COMDAT __real@3727c5ac
CONST	SEGMENT
__real@3727c5ac DD 03727c5acr			; 1e-05
CONST	ENDS
;	COMDAT __real@1e3ce508
CONST	SEGMENT
__real@1e3ce508 DD 01e3ce508r			; 1e-20
CONST	ENDS
;	COMDAT __real@00000000
CONST	SEGMENT
__real@00000000 DD 000000000r			; 0
CONST	ENDS
;	COMDAT ??_C@_02DPKJAMEF@?$CFd@
CONST	SEGMENT
??_C@_02DPKJAMEF@?$CFd@ DB '%d', 00H			; `string'
CONST	ENDS
;	COMDAT ??_C@_0DJ@OPOHHHAC@DragDrop?3?5?$CFd?0?5SourceId?5?$DN?50x?$CF08X@
CONST	SEGMENT
??_C@_0DJ@OPOHHHAC@DragDrop?3?5?$CFd?0?5SourceId?5?$DN?50x?$CF08X@ DB 'Dr'
	DB	'agDrop: %d, SourceId = 0x%08X, Payload "%s" (%d bytes)', 00H ; `string'
CONST	ENDS
;	COMDAT ??_C@_0BL@MDEMGJOE@NavWindowingTarget?3?5?8?$CFlld?8@
CONST	SEGMENT
??_C@_0BL@MDEMGJOE@NavWindowingTarget?3?5?8?$CFlld?8@ DB 'NavWindowingTar'
	DB	'get: ''%lld''', 00H				; `string'
CONST	ENDS
;	COMDAT ??_C@_0DC@PBLGJJAI@NavDisableHighlight?3?5?$CFd?0?5NavDis@
CONST	SEGMENT
??_C@_0DC@PBLGJJAI@NavDisableHighlight?3?5?$CFd?0?5NavDis@ DB 'NavDisable'
	DB	'Highlight: %d, NavDisableMouseHover: %d', 00H ; `string'
CONST	ENDS
;	COMDAT ??_C@_0CK@FMBJOEO@NavActivateId?3?50x?$CF08X?0?5NavInput@
CONST	SEGMENT
??_C@_0CK@FMBJOEO@NavActivateId?3?50x?$CF08X?0?5NavInput@ DB 'NavActivate'
	DB	'Id: 0x%08X, NavInputId: 0x%08X', 00H	; `string'
CONST	ENDS
;	COMDAT ??_C@_0BO@PADIALFI@NavActive?3?5?$CFd?0?5NavVisible?3?5?$CFd@
CONST	SEGMENT
??_C@_0BO@PADIALFI@NavActive?3?5?$CFd?0?5NavVisible?3?5?$CFd@ DB 'NavActi'
	DB	've: %d, NavVisible: %d', 00H		; `string'
CONST	ENDS
;	COMDAT ??_C@_0BD@HIKDFBG@NavInputSource?3?5?$CFs@
CONST	SEGMENT
??_C@_0BD@HIKDFBG@NavInputSource?3?5?$CFs@ DB 'NavInputSource: %s', 00H ; `string'
CONST	ENDS
;	COMDAT ??_C@_0BM@KFFINKHC@NavId?3?50x?$CF08X?0?5NavLayer?3?5?$CFd@
CONST	SEGMENT
??_C@_0BM@KFFINKHC@NavId?3?50x?$CF08X?0?5NavLayer?3?5?$CFd@ DB 'NavId: 0x'
	DB	'%08X, NavLayer: %d', 00H			; `string'
CONST	ENDS
;	COMDAT ??_C@_0BC@NLCAEKMP@NavWindow?3?5?8?$CFlld?8@
CONST	SEGMENT
??_C@_0BC@NLCAEKMP@NavWindow?3?5?8?$CFlld?8@ DB 'NavWindow: ''%lld''', 00H ; `string'
CONST	ENDS
;	COMDAT ??_C@_0BF@CFCDIHDM@MovingWindow?3?5?8?$CFlld?8@
CONST	SEGMENT
??_C@_0BF@CFCDIHDM@MovingWindow?3?5?8?$CFlld?8@ DB 'MovingWindow: ''%lld'''
	DB	00H						; `string'
CONST	ENDS
;	COMDAT ??_C@_0BH@CKLACKBD@ActiveIdWindow?3?5?8?$CFlld?8@
CONST	SEGMENT
??_C@_0BH@CKLACKBD@ActiveIdWindow?3?5?8?$CFlld?8@ DB 'ActiveIdWindow: ''%'
	DB	'lld''', 00H					; `string'
CONST	ENDS
;	COMDAT ??_C@_0EB@PEJDHKLE@ActiveId?3?50x?$CF08X?10x?$CF08X?5?$CI?$CF?42f?5s@
CONST	SEGMENT
??_C@_0EB@PEJDHKLE@ActiveId?3?50x?$CF08X?10x?$CF08X?5?$CI?$CF?42f?5s@ DB 'A'
	DB	'ctiveId: 0x%08X/0x%08X (%.2f sec), AllowOverlap: %d, Source: '
	DB	'%s', 00H					; `string'
CONST	ENDS
;	COMDAT ??_C@_0DG@FAAGHPBL@HoveredId?3?50x?$CF08X?10x?$CF08X?5?$CI?$CF?42f?5@
CONST	SEGMENT
??_C@_0DG@FAAGHPBL@HoveredId?3?50x?$CF08X?10x?$CF08X?5?$CI?$CF?42f?5@ DB 'H'
	DB	'overedId: 0x%08X/0x%08X (%.2f sec), AllowOverlap: %d', 00H ; `string'
CONST	ENDS
;	COMDAT ??_C@_0BK@PENLHICC@HoveredRootWindow?3?5?8?$CFlld?8@
CONST	SEGMENT
??_C@_0BK@PENLHICC@HoveredRootWindow?3?5?8?$CFlld?8@ DB 'HoveredRootWindo'
	DB	'w: ''%lld''', 00H				; `string'
CONST	ENDS
;	COMDAT ??_C@_0BG@CLFHKGNJ@HoveredWindow?3?5?8?$CFlld?8@
CONST	SEGMENT
??_C@_0BG@CLFHKGNJ@HoveredWindow?3?5?8?$CFlld?8@ DB 'HoveredWindow: ''%ll'
	DB	'd''', 00H					; `string'
CONST	ENDS
;	COMDAT ??_C@_0L@GFEAGONP@NavGamepad@
CONST	SEGMENT
??_C@_0L@GFEAGONP@NavGamepad@ DB 'NavGamepad', 00H	; `string'
CONST	ENDS
;	COMDAT ??_C@_0M@BGJILJC@NavKeyboard@
CONST	SEGMENT
??_C@_0M@BGJILJC@NavKeyboard@ DB 'NavKeyboard', 00H	; `string'
CONST	ENDS
;	COMDAT ??_C@_03JFAAHAIK@Nav@
CONST	SEGMENT
??_C@_03JFAAHAIK@Nav@ DB 'Nav', 00H			; `string'
CONST	ENDS
;	COMDAT ??_C@_05PEEFLODH@Mouse@
CONST	SEGMENT
??_C@_05PEEFLODH@Mouse@ DB 'Mouse', 00H			; `string'
CONST	ENDS
;	COMDAT ??_C@_04OHJIHAFH@None@
CONST	SEGMENT
??_C@_04OHJIHAFH@None@ DB 'None', 00H			; `string'
CONST	ENDS
;	COMDAT ??_C@_0P@DKNCHHLP@Internal?5state@
CONST	SEGMENT
??_C@_0P@DKNCHHLP@Internal?5state@ DB 'Internal state', 00H ; `string'
CONST	ENDS
;	COMDAT ??_C@_07NBICDJOO@TabBars@
CONST	SEGMENT
??_C@_07NBICDJOO@TabBars@ DB 'TabBars', 00H		; `string'
CONST	ENDS
;	COMDAT ??_C@_0O@JLIGAOM@Tab?5Bars?5?$CI?$CFd?$CJ@
CONST	SEGMENT
??_C@_0O@JLIGAOM@Tab?5Bars?5?$CI?$CFd?$CJ@ DB 'Tab Bars (%d)', 00H ; `string'
CONST	ENDS
;	COMDAT ??_C@_0CC@KHIGFAF@PopupID?3?5?$CF08x?0?5Window?3?5?8?$CFlld?8?$CFs@
CONST	SEGMENT
??_C@_0CC@KHIGFAF@PopupID?3?5?$CF08x?0?5Window?3?5?8?$CFlld?8?$CFs@ DB 'P'
	DB	'opupID: %08x, Window: ''%lld''%s%s', 00H	; `string'
CONST	ENDS
;	COMDAT ??_C@_0N@FFCBFAEB@?5ChildWindow@
CONST	SEGMENT
??_C@_0N@FFCBFAEB@?5ChildWindow@ DB ' ChildWindow', 00H	; `string'
CONST	ENDS
;	COMDAT ??_C@_0L@CMJPHOMG@?5ChildMenu@
CONST	SEGMENT
??_C@_0L@CMJPHOMG@?5ChildMenu@ DB ' ChildMenu', 00H	; `string'
CONST	ENDS
;	COMDAT ??_C@_06ENDEIGLN@Popups@
CONST	SEGMENT
??_C@_06ENDEIGLN@Popups@ DB 'Popups', 00H		; `string'
CONST	ENDS
;	COMDAT ??_C@_0M@CMLJJLKO@Popups?5?$CI?$CFd?$CJ@
CONST	SEGMENT
??_C@_0M@CMLJJLKO@Popups?5?$CI?$CFd?$CJ@ DB 'Popups (%d)', 00H ; `string'
CONST	ENDS
;	COMDAT ??_C@_0BG@JOELHCIA@Active?5DrawLists?5?$CI?$CFd?$CJ@
CONST	SEGMENT
??_C@_0BG@JOELHCIA@Active?5DrawLists?5?$CI?$CFd?$CJ@ DB 'Active DrawLists'
	DB	' (%d)', 00H					; `string'
CONST	ENDS
;	COMDAT ??_C@_07LDLFNPGN@Windows@
CONST	SEGMENT
??_C@_07LDLFNPGN@Windows@ DB 'Windows', 00H		; `string'
CONST	ENDS
;	COMDAT ??_C@_0BO@BAAKGIGK@Ctrl?5shows?5window?5begin?5order@
CONST	SEGMENT
??_C@_0BO@BAAKGIGK@Ctrl?5shows?5window?5begin?5order@ DB 'Ctrl shows wind'
	DB	'ow begin order', 00H			; `string'
CONST	ENDS
;	COMDAT ??_C@_0DF@PLCAEOIM@Show?5clipping?5rectangles?5when?5h@
CONST	SEGMENT
??_C@_0DF@PLCAEOIM@Show?5clipping?5rectangles?5when?5h@ DB 'Show clipping'
	DB	' rectangles when hovering draw commands', 00H ; `string'
CONST	ENDS
;	COMDAT ??_C@_0P@EGHDCIHB@?$CFd?5allocations@
CONST	SEGMENT
??_C@_0P@EGHDCIHB@?$CFd?5allocations@ DB '%d allocations', 00H ; `string'
CONST	ENDS
;	COMDAT ??_C@_0BP@OPGGNCEP@?$CFd?5active?5windows?5?$CI?$CFd?5visible?$CJ@
CONST	SEGMENT
??_C@_0BP@OPGGNCEP@?$CFd?5active?5windows?5?$CI?$CFd?5visible?$CJ@ DB '%d'
	DB	' active windows (%d visible)', 00H		; `string'
CONST	ENDS
;	COMDAT ??_C@_0CH@HHKODNBE@?$CFd?5vertices?0?5?$CFd?5indices?5?$CI?$CFd?5tri@
CONST	SEGMENT
??_C@_0CH@HHKODNBE@?$CFd?5vertices?0?5?$CFd?5indices?5?$CI?$CFd?5tri@ DB '%'
	DB	'd vertices, %d indices (%d triangles)', 00H	; `string'
CONST	ENDS
;	COMDAT ??_C@_0CN@EIPBEGMP@Application?5average?5?$CF?43f?5ms?1fra@
CONST	SEGMENT
??_C@_0CN@EIPBEGMP@Application?5average?5?$CF?43f?5ms?1fra@ DB 'Applicati'
	DB	'on average %.3f ms/frame (%.1f FPS)', 00H	; `string'
CONST	ENDS
;	COMDAT ??_C@_0O@NCHBJMJF@Dear?5ImGui?5?$CFs@
CONST	SEGMENT
??_C@_0O@NCHBJMJF@Dear?5ImGui?5?$CFs@ DB 'Dear ImGui %s', 00H ; `string'
CONST	ENDS
;	COMDAT ??_C@_0O@JMODJGLN@ImGui?5Metrics@
CONST	SEGMENT
??_C@_0O@JMODJGLN@ImGui?5Metrics@ DB 'ImGui Metrics', 00H ; `string'
CONST	ENDS
;	COMDAT ??_C@_0BC@NHDMGCPM@?$CF02d?$CFc?5Tab?50x?$CF08X@
CONST	SEGMENT
??_C@_0BC@NHDMGCPM@?$CF02d?$CFc?5Tab?50x?$CF08X@ DB '%02d%c Tab 0x%08X', 00H ; `string'
CONST	ENDS
;	COMDAT ??_C@_01PPODPGHN@?$DO@
CONST	SEGMENT
??_C@_01PPODPGHN@?$DO@ DB '>', 00H			; `string'
CONST	ENDS
;	COMDAT ??_C@_01MNNFJEPP@?$DM@
CONST	SEGMENT
??_C@_01MNNFJEPP@?$DM@ DB '<', 00H			; `string'
CONST	ENDS
;	COMDAT ??_C@_02DKCKIIND@?$CFs@
CONST	SEGMENT
??_C@_02DKCKIIND@?$CFs@ DB '%s', 00H			; `string'
CONST	ENDS
;	COMDAT ??_C@_0BD@HNMBCOGC@TabBar?5?$CI?$CFd?5tabs?$CJ?$CFs@
CONST	SEGMENT
??_C@_0BD@HNMBCOGC@TabBar?5?$CI?$CFd?5tabs?$CJ?$CFs@ DB 'TabBar (%d tabs)'
	DB	'%s', 00H					; `string'
CONST	ENDS
;	COMDAT ??_C@_0M@MDILNFHC@?5?$CKInactive?$CK@
CONST	SEGMENT
??_C@_0M@MDILNFHC@?5?$CKInactive?$CK@ DB ' *Inactive*', 00H ; `string'
CONST	ENDS
;	COMDAT ??_C@_0BC@PDGNHIHG@Storage?3?5?$CFd?5bytes@
CONST	SEGMENT
??_C@_0BC@PDGNHIHG@Storage?3?5?$CFd?5bytes@ DB 'Storage: %d bytes', 00H ; `string'
CONST	ENDS
;	COMDAT ??_C@_0CJ@CPAFBJNN@Column?5?$CF02d?3?5OffsetNorm?5?$CF?43f?5?$CI?$DN@
CONST	SEGMENT
??_C@_0CJ@CPAFBJNN@Column?5?$CF02d?3?5OffsetNorm?5?$CF?43f?5?$CI?$DN@ DB 'C'
	DB	'olumn %02d: OffsetNorm %.3f (= %.1f px)', 00H ; `string'
CONST	ENDS
;	COMDAT ??_C@_0CF@PKFCLBKA@Width?3?5?$CF?41f?5?$CIMinX?3?5?$CF?41f?0?5MaxX?3?5@
CONST	SEGMENT
??_C@_0CF@PKFCLBKA@Width?3?5?$CF?41f?5?$CIMinX?3?5?$CF?41f?0?5MaxX?3?5@ DB 'W'
	DB	'idth: %.1f (MinX: %.1f, MaxX: %.1f)', 00H	; `string'
CONST	ENDS
;	COMDAT ??_C@_0CN@LMOAIACO@Columns?5Id?3?50x?$CF08X?0?5Count?3?5?$CFd?0?5@
CONST	SEGMENT
??_C@_0CN@LMOAIACO@Columns?5Id?3?50x?$CF08X?0?5Count?3?5?$CFd?0?5@ DB 'Co'
	DB	'lumns Id: 0x%08X, Count: %d, Flags: 0x%04X', 00H ; `string'
CONST	ENDS
;	COMDAT ??_C@_07IBCCJKML@Columns@
CONST	SEGMENT
??_C@_07IBCCJKML@Columns@ DB 'Columns', 00H		; `string'
CONST	ENDS
;	COMDAT ??_C@_0BC@FIDDFLAI@Columns?5sets?5?$CI?$CFd?$CJ@
CONST	SEGMENT
??_C@_0BC@FIDDFLAI@Columns?5sets?5?$CI?$CFd?$CJ@ DB 'Columns sets (%d)', 00H ; `string'
CONST	ENDS
;	COMDAT ??_C@_0N@BGDHDNPO@ChildWindows@
CONST	SEGMENT
??_C@_0N@BGDHDNPO@ChildWindows@ DB 'ChildWindows', 00H	; `string'
CONST	ENDS
;	COMDAT ??_C@_0N@BPPHAMMO@ParentWindow@
CONST	SEGMENT
??_C@_0N@BPPHAMMO@ParentWindow@ DB 'ParentWindow', 00H	; `string'
CONST	ENDS
;	COMDAT ??_C@_0L@EHLMOHOL@RootWindow@
CONST	SEGMENT
??_C@_0L@EHLMOHOL@RootWindow@ DB 'RootWindow', 00H	; `string'
CONST	ENDS
;	COMDAT ??_C@_0BG@KHCECGOM@NavRectRel?$FL0?$FN?3?5?$DMNone?$DO@
CONST	SEGMENT
??_C@_0BG@KHCECGOM@NavRectRel?$FL0?$FN?3?5?$DMNone?$DO@ DB 'NavRectRel[0]'
	DB	': <None>', 00H				; `string'
CONST	ENDS
;	COMDAT ??_C@_0CG@HFMDFCIJ@NavRectRel?$FL0?$FN?3?5?$CI?$CF?41f?0?$CF?41f?$CJ?$CI?$CF?41f@
CONST	SEGMENT
??_C@_0CG@HFMDFCIJ@NavRectRel?$FL0?$FN?3?5?$CI?$CF?41f?0?$CF?41f?$CJ?$CI?$CF?41f@ DB 'N'
	DB	'avRectRel[0]: (%.1f,%.1f)(%.1f,%.1f)', 00H	; `string'
CONST	ENDS
;	COMDAT ??_C@_0BM@NPFIBFIA@NavLastChildNavWindow?3?5?$CFlld@
CONST	SEGMENT
??_C@_0BM@NPFIBFIA@NavLastChildNavWindow?3?5?$CFlld@ DB 'NavLastChildNavW'
	DB	'indow: %lld', 00H				; `string'
CONST	ENDS
;	COMDAT ??_C@_0DC@CFCLKJDH@NavLastIds?3?50x?$CF08X?00x?$CF08X?0?5NavL@
CONST	SEGMENT
??_C@_0DC@CFCLKJDH@NavLastIds?3?50x?$CF08X?00x?$CF08X?0?5NavL@ DB 'NavLas'
	DB	'tIds: 0x%08X,0x%08X, NavLayerActiveMask: %X', 00H ; `string'
CONST	ENDS
;	COMDAT ??_C@_0DM@DJJIBEFM@Appearing?3?5?$CFd?0?5Hidden?3?5?$CFd?5?$CIReg?5@
CONST	SEGMENT
??_C@_0DM@DJJIBEFM@Appearing?3?5?$CFd?0?5Hidden?3?5?$CFd?5?$CIReg?5@ DB 'A'
	DB	'ppearing: %d, Hidden: %d (Reg %d Resize %d), SkipItems: %d', 00H ; `string'
CONST	ENDS
;	COMDAT ??_C@_0DO@LPCMGHLI@Active?3?5?$CFd?1?$CFd?0?5WriteAccessed?3?5?$CF@
CONST	SEGMENT
??_C@_0DO@LPCMGHLI@Active?3?5?$CFd?1?$CFd?0?5WriteAccessed?3?5?$CF@ DB 'A'
	DB	'ctive: %d/%d, WriteAccessed: %d, BeginOrderWithinContext: %d', 00H ; `string'
CONST	ENDS
;	COMDAT ??_C@_0BO@JAHLHNNL@Scroll?3?5?$CI?$CF?42f?1?$CF?42f?0?$CF?42f?1?$CF?42f?$CJ@
CONST	SEGMENT
??_C@_0BO@JAHLHNNL@Scroll?3?5?$CI?$CF?42f?1?$CF?42f?0?$CF?42f?1?$CF?42f?$CJ@ DB 'S'
	DB	'croll: (%.2f/%.2f,%.2f/%.2f)', 00H		; `string'
CONST	ENDS
;	COMDAT ??_C@_0CF@HFFEAFCN@Flags?3?50x?$CF08X?5?$CI?$CFs?$CFs?$CFs?$CFs?$CFs?$CFs?$CFs?$CFs@
CONST	SEGMENT
??_C@_0CF@HFFEAFCN@Flags?3?50x?$CF08X?5?$CI?$CFs?$CFs?$CFs?$CFs?$CFs?$CFs?$CFs?$CFs@ DB 'F'
	DB	'lags: 0x%08X (%s%s%s%s%s%s%s%s%s..)', 00H	; `string'
CONST	ENDS
;	COMDAT ??_C@_06MMFPNIIL@Child?5@
CONST	SEGMENT
??_C@_06MMFPNIIL@Child?5@ DB 'Child ', 00H		; `string'
CONST	ENDS
;	COMDAT ??_C@_08LGECAIGF@Tooltip?5@
CONST	SEGMENT
??_C@_08LGECAIGF@Tooltip?5@ DB 'Tooltip ', 00H		; `string'
CONST	ENDS
;	COMDAT ??_C@_06NMKCIICK@Popup?5@
CONST	SEGMENT
??_C@_06NMKCIICK@Popup?5@ DB 'Popup ', 00H		; `string'
CONST	ENDS
;	COMDAT ??_C@_06IFIMNOLK@Modal?5@
CONST	SEGMENT
??_C@_06IFIMNOLK@Modal?5@ DB 'Modal ', 00H		; `string'
CONST	ENDS
;	COMDAT ??_C@_0L@OPMMHACC@ChildMenu?5@
CONST	SEGMENT
??_C@_0L@OPMMHACC@ChildMenu?5@ DB 'ChildMenu ', 00H	; `string'
CONST	ENDS
;	COMDAT ??_C@_0BB@EBNDPMCP@NoSavedSettings?5@
CONST	SEGMENT
??_C@_0BB@EBNDPMCP@NoSavedSettings?5@ DB 'NoSavedSettings ', 00H ; `string'
CONST	ENDS
;	COMDAT ??_C@_0O@LAPEOEIJ@NoMouseInputs@
CONST	SEGMENT
??_C@_0O@LAPEOEIJ@NoMouseInputs@ DB 'NoMouseInputs', 00H ; `string'
CONST	ENDS
;	COMDAT ??_C@_0M@COLEABDL@NoNavInputs@
CONST	SEGMENT
??_C@_0M@COLEABDL@NoNavInputs@ DB 'NoNavInputs', 00H	; `string'
CONST	ENDS
;	COMDAT ??_C@_0BB@GGEIPOID@AlwaysAutoResize@
CONST	SEGMENT
??_C@_0BB@GGEIPOID@AlwaysAutoResize@ DB 'AlwaysAutoResize', 00H ; `string'
CONST	ENDS
;	COMDAT ??_C@_0DO@PMCJMPLH@Pos?3?5?$CI?$CF?41f?0?$CF?41f?$CJ?0?5Size?3?5?$CI?$CF?41f?0?$CF@
CONST	SEGMENT
??_C@_0DO@PMCJMPLH@Pos?3?5?$CI?$CF?41f?0?$CF?41f?$CJ?0?5Size?3?5?$CI?$CF?41f?0?$CF@ DB 'P'
	DB	'os: (%.1f,%.1f), Size: (%.1f,%.1f), SizeContents (%.1f,%.1f)', 00H ; `string'
CONST	ENDS
;	COMDAT ??_C@_08IJNCDCKF@DrawList@
CONST	SEGMENT
??_C@_08IJNCDCKF@DrawList@ DB 'DrawList', 00H		; `string'
CONST	ENDS
;	COMDAT ??_C@_0BD@KOKNLAED@?$CFs?5?8?$CFs?8?0?5?$CFd?5?$EA?50x?$CFp@
CONST	SEGMENT
??_C@_0BD@KOKNLAED@?$CFs?5?8?$CFs?8?0?5?$CFd?5?$EA?50x?$CFp@ DB '%s ''%s'''
	DB	', %d @ 0x%p', 00H				; `string'
CONST	ENDS
;	COMDAT ??_C@_06BKKJGDHO@Window@
CONST	SEGMENT
??_C@_06BKKJGDHO@Window@ DB 'Window', 00H		; `string'
CONST	ENDS
;	COMDAT ??_C@_07JMKCEEPK@?$CFs?5?$CI?$CFd?$CJ@
CONST	SEGMENT
??_C@_07JMKCEEPK@?$CFs?5?$CI?$CFd?$CJ@ DB '%s (%d)', 00H ; `string'
CONST	ENDS
;	COMDAT ??_C@_0DG@MPIFBGBG@?$CFs?5?$CF04d?3?5pos?5?$CI?$CF8?42f?0?$CF8?42f?$CJ?0?5uv?5@
CONST	SEGMENT
??_C@_0DG@MPIFBGBG@?$CFs?5?$CF04d?3?5pos?5?$CI?$CF8?42f?0?$CF8?42f?$CJ?0?5uv?5@ DB '%'
	DB	's %04d: pos (%8.2f,%8.2f), uv (%.6f,%.6f), col %08X', 0aH, 00H ; `string'
CONST	ENDS
;	COMDAT ??_C@_03NDEAONJP@?5?5?5@
CONST	SEGMENT
??_C@_03NDEAONJP@?5?5?5@ DB '   ', 00H			; `string'
CONST	ENDS
;	COMDAT ??_C@_03DAKNAIGI@idx@
CONST	SEGMENT
??_C@_03DAKNAIGI@idx@ DB 'idx', 00H			; `string'
CONST	ENDS
;	COMDAT ??_C@_0EB@BKFKDBKJ@Draw?5?$CF4d?5?$CFs?5vtx?0?5tex?50x?$CFp?0?5clip@
CONST	SEGMENT
??_C@_0EB@BKFKDBKJ@Draw?5?$CF4d?5?$CFs?5vtx?0?5tex?50x?$CFp?0?5clip@ DB 'D'
	DB	'raw %4d %s vtx, tex 0x%p, clip_rect (%4.0f,%4.0f)-(%4.0f,%4.0'
	DB	'f)', 00H					; `string'
CONST	ENDS
;	COMDAT ??_C@_0M@NGJKDAN@non?9indexed@
CONST	SEGMENT
??_C@_0M@NGJKDAN@non?9indexed@ DB 'non-indexed', 00H	; `string'
CONST	ENDS
;	COMDAT ??_C@_07KNEBDGNE@indexed@
CONST	SEGMENT
??_C@_07KNEBDGNE@indexed@ DB 'indexed', 00H		; `string'
CONST	ENDS
;	COMDAT ??_C@_0BK@FDNBBNBF@Callback?5?$CFp?0?5user_data?5?$CFp@
CONST	SEGMENT
??_C@_0BK@FDNBBNBF@Callback?5?$CFp?0?5user_data?5?$CFp@ DB 'Callback %p, '
	DB	'user_data %p', 00H				; `string'
CONST	ENDS
;	COMDAT ??_C@_0BE@LDCFEMCB@CURRENTLY?5APPENDING@
CONST	SEGMENT
??_C@_0BE@LDCFEMCB@CURRENTLY?5APPENDING@ DB 'CURRENTLY APPENDING', 00H ; `string'
CONST	ENDS
;	COMDAT ??_C@_0CH@BMBAOAAJ@?$CFs?3?5?8?$CFlld?8?5?$CFd?5vtx?0?5?$CFd?5indices?0?5@
CONST	SEGMENT
??_C@_0CH@BMBAOAAJ@?$CFs?3?5?8?$CFlld?8?5?$CFd?5vtx?0?5?$CFd?5indices?0?5@ DB '%'
	DB	's: ''%lld'' %d vtx, %d indices, %d cmds', 00H ; `string'
CONST	ENDS
;	COMDAT ?show_draw_cmd_clip_rects@?1??ShowMetricsWindow@ImGui@@YAXPEA_N@Z@4_NA
_DATA	SEGMENT
?show_draw_cmd_clip_rects@?1??ShowMetricsWindow@ImGui@@YAXPEA_N@Z@4_NA DB 01H ; `ImGui::ShowMetricsWindow'::`2'::show_draw_cmd_clip_rects
_DATA	ENDS
;	COMDAT ??_C@_0O@KMAIKFAM@?$CDSourceExtern@
CONST	SEGMENT
??_C@_0O@KMAIKFAM@?$CDSourceExtern@ DB '#SourceExtern', 00H ; `string'
CONST	ENDS
;	COMDAT ??_C@_07HIFEPIJN@columns@
CONST	SEGMENT
??_C@_07HIFEPIJN@columns@ DB 'columns', 00H		; `string'
CONST	ENDS
;	COMDAT ??_C@_0N@OOFNFKBH@void_context@
CONST	SEGMENT
??_C@_0N@OOFNFKBH@void_context@ DB 'void_context', 00H	; `string'
CONST	ENDS
;	COMDAT ??_C@_0P@DCJGJLLM@window_context@
CONST	SEGMENT
??_C@_0P@DCJGJLLM@window_context@ DB 'window_context', 00H ; `string'
CONST	ENDS
;	COMDAT ??_C@_0BF@DKJDPJG@?$CD?$CD?$CL?9P?4o?4p?4u?4p_?$CL?9?$CF08x@
CONST	SEGMENT
??_C@_0BF@DKJDPJG@?$CD?$CD?$CL?9P?4o?4p?4u?4p_?$CL?9?$CF08x@ DB '##+-P.o.'
	DB	'p.u.p_+-%08x', 00H				; `string'
CONST	ENDS
;	COMDAT ??_C@_0BD@IMJHKMJC@?$CD?$CD?$CL?9M?4e?4n?4u_?$CL?9?$CF02d@
CONST	SEGMENT
??_C@_0BD@IMJHKMJC@?$CD?$CD?$CL?9M?4e?4n?4u_?$CL?9?$CF02d@ DB '##+-M.e.n.'
	DB	'u_+-%02d', 00H				; `string'
CONST	ENDS
;	COMDAT ??_C@_0BB@PMCDEDKJ@?$CD?$CD?$CL?9Tooip?$CL?9_?$CF02d@
CONST	SEGMENT
??_C@_0BB@PMCDEDKJ@?$CD?$CD?$CL?9Tooip?$CL?9_?$CF02d@ DB '##+-Tooip+-_%02'
	DB	'd', 00H					; `string'
CONST	ENDS
;	COMDAT ??_C@_0BB@JOEAHKNC@ModalWindowDimBg@
CONST	SEGMENT
??_C@_0BB@JOEAHKNC@ModalWindowDimBg@ DB 'ModalWindowDimBg', 00H ; `string'
CONST	ENDS
;	COMDAT ??_C@_0BC@JHKONDGH@NavWindowingDimBg@
CONST	SEGMENT
??_C@_0BC@JHKONDGH@NavWindowingDimBg@ DB 'NavWindowingDimBg', 00H ; `string'
CONST	ENDS
;	COMDAT ??_C@_0BG@MCGDEFOI@NavWindowingHighlight@
CONST	SEGMENT
??_C@_0BG@MCGDEFOI@NavWindowingHighlight@ DB 'NavWindowingHighlight', 00H ; `string'
CONST	ENDS
;	COMDAT ??_C@_0N@ENCIHEPH@NavHighlight@
CONST	SEGMENT
??_C@_0N@ENCIHEPH@NavHighlight@ DB 'NavHighlight', 00H	; `string'
CONST	ENDS
;	COMDAT ??_C@_0P@GDDMCLOI@DragDropTarget@
CONST	SEGMENT
??_C@_0P@GDDMCLOI@DragDropTarget@ DB 'DragDropTarget', 00H ; `string'
CONST	ENDS
;	COMDAT ??_C@_0P@IBBLAEBJ@TextSelectedBg@
CONST	SEGMENT
??_C@_0P@IBBLAEBJ@TextSelectedBg@ DB 'TextSelectedBg', 00H ; `string'
CONST	ENDS
;	COMDAT ??_C@_0BF@GJALJGDC@PlotHistogramHovered@
CONST	SEGMENT
??_C@_0BF@GJALJGDC@PlotHistogramHovered@ DB 'PlotHistogramHovered', 00H ; `string'
CONST	ENDS
;	COMDAT ??_C@_0O@EEKOCENA@PlotHistogram@
CONST	SEGMENT
??_C@_0O@EEKOCENA@PlotHistogram@ DB 'PlotHistogram', 00H ; `string'
CONST	ENDS
;	COMDAT ??_C@_0BB@OMALNJLN@PlotLinesHovered@
CONST	SEGMENT
??_C@_0BB@OMALNJLN@PlotLinesHovered@ DB 'PlotLinesHovered', 00H ; `string'
CONST	ENDS
;	COMDAT ??_C@_09HDJFFJLL@PlotLines@
CONST	SEGMENT
??_C@_09HDJFFJLL@PlotLines@ DB 'PlotLines', 00H		; `string'
CONST	ENDS
;	COMDAT ??_C@_0BD@JMEALEPP@TabUnfocusedActive@
CONST	SEGMENT
??_C@_0BD@JMEALEPP@TabUnfocusedActive@ DB 'TabUnfocusedActive', 00H ; `string'
CONST	ENDS
;	COMDAT ??_C@_0N@KLEENDFP@TabUnfocused@
CONST	SEGMENT
??_C@_0N@KLEENDFP@TabUnfocused@ DB 'TabUnfocused', 00H	; `string'
CONST	ENDS
;	COMDAT ??_C@_09BLMKPFCF@TabActive@
CONST	SEGMENT
??_C@_09BLMKPFCF@TabActive@ DB 'TabActive', 00H		; `string'
CONST	ENDS
;	COMDAT ??_C@_0L@JFDLBKBD@TabHovered@
CONST	SEGMENT
??_C@_0L@JFDLBKBD@TabHovered@ DB 'TabHovered', 00H	; `string'
CONST	ENDS
;	COMDAT ??_C@_03IEAKBACE@Tab@
CONST	SEGMENT
??_C@_03IEAKBACE@Tab@ DB 'Tab', 00H			; `string'
CONST	ENDS
;	COMDAT ??_C@_0BB@NBBKHKIC@ResizeGripActive@
CONST	SEGMENT
??_C@_0BB@NBBKHKIC@ResizeGripActive@ DB 'ResizeGripActive', 00H ; `string'
CONST	ENDS
;	COMDAT ??_C@_0BC@NNEDPMNH@ResizeGripHovered@
CONST	SEGMENT
??_C@_0BC@NNEDPMNH@ResizeGripHovered@ DB 'ResizeGripHovered', 00H ; `string'
CONST	ENDS
;	COMDAT ??_C@_0L@NGBDNFNJ@ResizeGrip@
CONST	SEGMENT
??_C@_0L@NGBDNFNJ@ResizeGrip@ DB 'ResizeGrip', 00H	; `string'
CONST	ENDS
;	COMDAT ??_C@_0BA@BPNGFOJM@SeparatorActive@
CONST	SEGMENT
??_C@_0BA@BPNGFOJM@SeparatorActive@ DB 'SeparatorActive', 00H ; `string'
CONST	ENDS
;	COMDAT ??_C@_0BB@CHICANJA@SeparatorHovered@
CONST	SEGMENT
??_C@_0BB@CHICANJA@SeparatorHovered@ DB 'SeparatorHovered', 00H ; `string'
CONST	ENDS
;	COMDAT ??_C@_09IBFEOKHN@Separator@
CONST	SEGMENT
??_C@_09IBFEOKHN@Separator@ DB 'Separator', 00H		; `string'
CONST	ENDS
;	COMDAT ??_C@_0N@HILFCJOI@HeaderActive@
CONST	SEGMENT
??_C@_0N@HILFCJOI@HeaderActive@ DB 'HeaderActive', 00H	; `string'
CONST	ENDS
;	COMDAT ??_C@_0O@HAINNLMC@HeaderHovered@
CONST	SEGMENT
??_C@_0O@HAINNLMC@HeaderHovered@ DB 'HeaderHovered', 00H ; `string'
CONST	ENDS
;	COMDAT ??_C@_06OENKJGA@Header@
CONST	SEGMENT
??_C@_06OENKJGA@Header@ DB 'Header', 00H		; `string'
CONST	ENDS
;	COMDAT ??_C@_0N@IMHOFKJ@ButtonActive@
CONST	SEGMENT
??_C@_0N@IMHOFKJ@ButtonActive@ DB 'ButtonActive', 00H	; `string'
CONST	ENDS
;	COMDAT ??_C@_0O@HBCGNIAI@ButtonHovered@
CONST	SEGMENT
??_C@_0O@HBCGNIAI@ButtonHovered@ DB 'ButtonHovered', 00H ; `string'
CONST	ENDS
;	COMDAT ??_C@_06LKBCGDFD@Button@
CONST	SEGMENT
??_C@_06LKBCGDFD@Button@ DB 'Button', 00H		; `string'
CONST	ENDS
;	COMDAT ??_C@_0BB@HBOBMOMP@SliderGrabActive@
CONST	SEGMENT
??_C@_0BB@HBOBMOMP@SliderGrabActive@ DB 'SliderGrabActive', 00H ; `string'
CONST	ENDS
;	COMDAT ??_C@_0L@LAMBADIC@SliderGrab@
CONST	SEGMENT
??_C@_0L@LAMBADIC@SliderGrab@ DB 'SliderGrab', 00H	; `string'
CONST	ENDS
;	COMDAT ??_C@_09DMKAANGE@CheckMark@
CONST	SEGMENT
??_C@_09DMKAANGE@CheckMark@ DB 'CheckMark', 00H		; `string'
CONST	ENDS
;	COMDAT ??_C@_0BE@GODMFNCF@ScrollbarGrabActive@
CONST	SEGMENT
??_C@_0BE@GODMFNCF@ScrollbarGrabActive@ DB 'ScrollbarGrabActive', 00H ; `string'
CONST	ENDS
;	COMDAT ??_C@_0BF@JFEOOMLL@ScrollbarGrabHovered@
CONST	SEGMENT
??_C@_0BF@JFEOOMLL@ScrollbarGrabHovered@ DB 'ScrollbarGrabHovered', 00H ; `string'
CONST	ENDS
;	COMDAT ??_C@_0O@HABIDNBE@ScrollbarGrab@
CONST	SEGMENT
??_C@_0O@HABIDNBE@ScrollbarGrab@ DB 'ScrollbarGrab', 00H ; `string'
CONST	ENDS
;	COMDAT ??_C@_0M@MFDHPFJF@ScrollbarBg@
CONST	SEGMENT
??_C@_0M@MFDHPFJF@ScrollbarBg@ DB 'ScrollbarBg', 00H	; `string'
CONST	ENDS
;	COMDAT ??_C@_09GEKCKLDE@MenuBarBg@
CONST	SEGMENT
??_C@_09GEKCKLDE@MenuBarBg@ DB 'MenuBarBg', 00H		; `string'
CONST	ENDS
;	COMDAT ??_C@_0BB@EGCOMBJG@TitleBgCollapsed@
CONST	SEGMENT
??_C@_0BB@EGCOMBJG@TitleBgCollapsed@ DB 'TitleBgCollapsed', 00H ; `string'
CONST	ENDS
;	COMDAT ??_C@_0O@JHBFJHNE@TitleBgActive@
CONST	SEGMENT
??_C@_0O@JHBFJHNE@TitleBgActive@ DB 'TitleBgActive', 00H ; `string'
CONST	ENDS
;	COMDAT ??_C@_07MMLEKCPI@TitleBg@
CONST	SEGMENT
??_C@_07MMLEKCPI@TitleBg@ DB 'TitleBg', 00H		; `string'
CONST	ENDS
;	COMDAT ??_C@_0O@BGDCDDEA@FrameBgActive@
CONST	SEGMENT
??_C@_0O@BGDCDDEA@FrameBgActive@ DB 'FrameBgActive', 00H ; `string'
CONST	ENDS
;	COMDAT ??_C@_0P@KIOOHHAC@FrameBgHovered@
CONST	SEGMENT
??_C@_0P@KIOOHHAC@FrameBgHovered@ DB 'FrameBgHovered', 00H ; `string'
CONST	ENDS
;	COMDAT ??_C@_07PJIIOGAC@FrameBg@
CONST	SEGMENT
??_C@_07PJIIOGAC@FrameBg@ DB 'FrameBg', 00H		; `string'
CONST	ENDS
;	COMDAT ??_C@_0N@DECGFAEC@BorderShadow@
CONST	SEGMENT
??_C@_0N@DECGFAEC@BorderShadow@ DB 'BorderShadow', 00H	; `string'
CONST	ENDS
;	COMDAT ??_C@_06CMOGDIBK@Border@
CONST	SEGMENT
??_C@_06CMOGDIBK@Border@ DB 'Border', 00H		; `string'
CONST	ENDS
;	COMDAT ??_C@_07LKIIIJHA@PopupBg@
CONST	SEGMENT
??_C@_07LKIIIJHA@PopupBg@ DB 'PopupBg', 00H		; `string'
CONST	ENDS
;	COMDAT ??_C@_07BLEJOHFO@ChildBg@
CONST	SEGMENT
??_C@_07BLEJOHFO@ChildBg@ DB 'ChildBg', 00H		; `string'
CONST	ENDS
;	COMDAT ??_C@_08DMKFNKPN@WindowBg@
CONST	SEGMENT
??_C@_08DMKFNKPN@WindowBg@ DB 'WindowBg', 00H		; `string'
CONST	ENDS
;	COMDAT ??_C@_0N@LNHHFNPK@TextDisabled@
CONST	SEGMENT
??_C@_0N@LNHHFNPK@TextDisabled@ DB 'TextDisabled', 00H	; `string'
CONST	ENDS
;	COMDAT ??_C@_04OJAHODMC@Text@
CONST	SEGMENT
??_C@_04OJAHODMC@Text@ DB 'Text', 00H			; `string'
CONST	ENDS
;	COMDAT ??_C@_06KIIKKNMI@?$CDCLOSE@
CONST	SEGMENT
??_C@_06KIIKKNMI@?$CDCLOSE@ DB '#CLOSE', 00H		; `string'
CONST	ENDS
;	COMDAT ??_C@_09BJOGEADB@?$CDCOLLAPSE@
CONST	SEGMENT
??_C@_09BJOGEADB@?$CDCOLLAPSE@ DB '#COLLAPSE', 00H	; `string'
CONST	ENDS
;	COMDAT ??_C@_07HDHBJEOI@?$CDRESIZE@
CONST	SEGMENT
??_C@_07HDHBJEOI@?$CDRESIZE@ DB '#RESIZE', 00H		; `string'
CONST	ENDS
;	COMDAT ??_C@_09ONMJNNOG@?$CFlld?9?$CF08X@
CONST	SEGMENT
??_C@_09ONMJNNOG@?$CFlld?9?$CF08X@ DB '%lld-%08X', 00H	; `string'
CONST	ENDS
;	COMDAT ??_C@_0N@CCJDMNMD@?$CFlld?9?$CFs?$CL?$CF08X@
CONST	SEGMENT
??_C@_0N@CCJDMNMD@?$CFlld?9?$CFs?$CL?$CF08X@ DB '%lld-%s+%08X', 00H ; `string'
CONST	ENDS
;	COMDAT ??_C@_03KHICJKCI@?4?4?4@
CONST	SEGMENT
??_C@_03KHICJKCI@?4?4?4@ DB '...', 00H			; `string'
CONST	ENDS
;	COMDAT ??_C@_07MCAEODGB@Default@
CONST	SEGMENT
??_C@_07MCAEODGB@Default@ DB 'Default', 00H		; `string'
CONST	ENDS
;	COMDAT ??_C@_01HIHLOKLC@1@
CONST	SEGMENT
??_C@_01HIHLOKLC@1@ DB '1', 00H				; `string'
CONST	ENDS
;	COMDAT ??_C@_05EJCOBEBF@?$CDMOVE@
CONST	SEGMENT
??_C@_05EJCOBEBF@?$CDMOVE@ DB '#MOVE', 00H		; `string'
CONST	ENDS
_DATA	SEGMENT
?GImAllocatorAllocFunc@@3P6APEAX_KPEAX@ZEA DQ FLAT:?MallocWrapper@@YAPEAX_KPEAX@Z ; GImAllocatorAllocFunc
?GImAllocatorFreeFunc@@3P6AXPEAX0@ZEA DQ FLAT:?FreeWrapper@@YAXPEAX0@Z ; GImAllocatorFreeFunc
_DATA	ENDS
;	COMDAT ??_C@_07JLDOGPMM@?$CD?$CD?$CL?9oly@
CONST	SEGMENT
??_C@_07JLDOGPMM@?$CD?$CD?$CL?9oly@ DB '##+-oly', 00H	; `string'
CONST	ENDS
;	COMDAT ??_C@_07NBCGADJA@Unknown@
CONST	SEGMENT
??_C@_07NBCGADJA@Unknown@ DB 'Unknown', 00H		; `string'
CONST	ENDS
;	COMDAT ??_C@_00CNPNBAHC@@
CONST	SEGMENT
??_C@_00CNPNBAHC@@ DB 00H				; `string'
CONST	ENDS
;	COMDAT ??_C@_01NBENCBCI@?$CK@
CONST	SEGMENT
??_C@_01NBENCBCI@?$CK@ DB '*', 00H			; `string'
CONST	ENDS
;	COMDAT xdata
xdata	SEGMENT
$unwind$??__E?id@?$numpunct@D@std@@2V0locale@2@A@@YAXXZ DD 010401H
	DD	04204H
xdata	ENDS
;	COMDAT xdata
xdata	SEGMENT
$unwind$??__E?id@?$collate@D@std@@2V0locale@2@A@@YAXXZ DD 010401H
	DD	04204H
xdata	ENDS
;	COMDAT xdata
xdata	SEGMENT
$unwind$??__E?id@?$num_put@DV?$ostreambuf_iterator@DU?$char_traits@D@std@@@std@@@std@@2V0locale@2@A@@YAXXZ DD 010401H
	DD	04204H
xdata	ENDS
;	COMDAT xdata
xdata	SEGMENT
$unwind$??__E?id@?$codecvt@DDU_Mbstatet@@@std@@2V0locale@2@A@@YAXXZ DD 010401H
	DD	04204H
xdata	ENDS
;	COMDAT xdata
xdata	SEGMENT
$unwind$??__Fbuf_local@?1??GetClipboardTextFn_DefaultImpl@@YAPEBDPEAX@Z@YAXXZ DD 010401H
	DD	04204H
xdata	ENDS
;	COMDAT xdata
xdata	SEGMENT
$unwind$??__Eresize_grip_def@@YAXXZ DD 010401H
	DD	04204H
xdata	ENDS
;	COMDAT xdata
xdata	SEGMENT
$unwind$??$IM_DELETE@UImGuiWindow@@@@YAXPEAUImGuiWindow@@@Z DD 010901H
	DD	04209H
xdata	ENDS
;	COMDAT xdata
xdata	SEGMENT
$unwind$??$IM_DELETE@UImFontAtlas@@@@YAXPEAUImFontAtlas@@@Z DD 010901H
	DD	04209H
xdata	ENDS
;	COMDAT xdata
xdata	SEGMENT
$unwind$??$IM_DELETE@UImGuiContext@@@@YAXPEAUImGuiContext@@@Z DD 010901H
	DD	04209H
xdata	ENDS
;	COMDAT xdata
xdata	SEGMENT
$unwind$?IsNavInputPressedAnyOfTwo@ImGui@@YA_NHHW4ImGuiInputReadMode@@@Z DD 011101H
	DD	06211H
xdata	ENDS
;	COMDAT xdata
xdata	SEGMENT
$unwind$?IsNavInputPressed@ImGui@@YA_NHW4ImGuiInputReadMode@@@Z DD 010c01H
	DD	0620cH
xdata	ENDS
;	COMDAT xdata
xdata	SEGMENT
$unwind$?IsNavInputDown@ImGui@@YA_NH@Z DD 010801H
	DD	02208H
xdata	ENDS
;	COMDAT xdata
xdata	SEGMENT
$unwind$?IsKeyPressedMap@ImGui@@YA_NH_N@Z DD 010c01H
	DD	0620cH
xdata	ENDS
;	COMDAT xdata
xdata	SEGMENT
$unwind$?GetDefaultFont@ImGui@@YAPEAUImFont@@XZ DD 010401H
	DD	08204H
xdata	ENDS
;	COMDAT xdata
xdata	SEGMENT
$unwind$?GetCurrentWindow@ImGui@@YAPEAUImGuiWindow@@XZ DD 010401H
	DD	02204H
xdata	ENDS
;	COMDAT xdata
xdata	SEGMENT
$unwind$?GetCurrentWindowRead@ImGui@@YAPEAUImGuiWindow@@XZ DD 010401H
	DD	02204H
xdata	ENDS
;	COMDAT xdata
xdata	SEGMENT
$unwind$??_GImGuiTabBar@@QEAAPEAXI@Z DD 010d01H
	DD	0420dH
xdata	ENDS
;	COMDAT xdata
xdata	SEGMENT
$unwind$?dtor$1@?0???1ImGuiTabBar@@QEAA@XZ@4HA DD 020601H
	DD	050023206H
xdata	ENDS
;	COMDAT xdata
xdata	SEGMENT
$unwind$?dtor$0@?0???1ImGuiTabBar@@QEAA@XZ@4HA DD 020601H
	DD	050023206H
xdata	ENDS
;	COMDAT xdata
xdata	SEGMENT
$ip2state$??1ImGuiTabBar@@QEAA@XZ DB 06H
	DB	00H
	DB	00H
	DB	012H
	DB	02H
	DB	'$'
	DB	00H
xdata	ENDS
;	COMDAT xdata
xdata	SEGMENT
$stateUnwindMap$??1ImGuiTabBar@@QEAA@XZ DB 04H
	DB	0eH
	DD	imagerel ?dtor$0@?0???1ImGuiTabBar@@QEAA@XZ@4HA
	DB	02eH
	DD	imagerel ?dtor$1@?0???1ImGuiTabBar@@QEAA@XZ@4HA
xdata	ENDS
;	COMDAT xdata
xdata	SEGMENT
$cppxdata$??1ImGuiTabBar@@QEAA@XZ DB 048H
	DD	imagerel $stateUnwindMap$??1ImGuiTabBar@@QEAA@XZ
	DD	imagerel $ip2state$??1ImGuiTabBar@@QEAA@XZ
xdata	ENDS
;	COMDAT xdata
xdata	SEGMENT
$unwind$??1ImGuiTabBar@@QEAA@XZ DD 010911H
	DD	04209H
	DD	imagerel __CxxFrameHandler4
	DD	imagerel $cppxdata$??1ImGuiTabBar@@QEAA@XZ
xdata	ENDS
;	COMDAT xdata
xdata	SEGMENT
$ip2state$??1?$ImVector@UImGuiTabItem@@@@QEAA@XZ DB 02H
	DB	00H
	DB	00H
xdata	ENDS
;	COMDAT xdata
xdata	SEGMENT
$cppxdata$??1?$ImVector@UImGuiTabItem@@@@QEAA@XZ DB 040H
	DD	imagerel $ip2state$??1?$ImVector@UImGuiTabItem@@@@QEAA@XZ
xdata	ENDS
;	COMDAT xdata
xdata	SEGMENT
$unwind$??1?$ImVector@UImGuiTabItem@@@@QEAA@XZ DD 010919H
	DD	04209H
	DD	imagerel __CxxFrameHandler4
	DD	imagerel $cppxdata$??1?$ImVector@UImGuiTabItem@@@@QEAA@XZ
xdata	ENDS
;	COMDAT xdata
xdata	SEGMENT
$unwind$??_GImGuiWindow@@QEAAPEAXI@Z DD 010d01H
	DD	0420dH
xdata	ENDS
;	COMDAT xdata
xdata	SEGMENT
$unwind$?MenuBarRect@ImGuiWindow@@QEBA?AUImRect@@XZ DD 010e01H
	DD	0820eH
xdata	ENDS
;	COMDAT xdata
xdata	SEGMENT
$unwind$?MenuBarHeight@ImGuiWindow@@QEBAMXZ DD 010901H
	DD	06209H
xdata	ENDS
;	COMDAT xdata
xdata	SEGMENT
$unwind$?TitleBarRect@ImGuiWindow@@QEBA?AUImRect@@XZ DD 010e01H
	DD	0620eH
xdata	ENDS
;	COMDAT xdata
xdata	SEGMENT
$unwind$?TitleBarHeight@ImGuiWindow@@QEBAMXZ DD 010901H
	DD	06209H
xdata	ENDS
;	COMDAT xdata
xdata	SEGMENT
$unwind$?Rect@ImGuiWindow@@QEBA?AUImRect@@XZ DD 010e01H
	DD	0620eH
xdata	ENDS
;	COMDAT xdata
xdata	SEGMENT
$unwind$?push_back@?$ImVector@UImGuiColumnsSet@@@@QEAAXAEBUImGuiColumnsSet@@@Z DD 010e01H
	DD	0420eH
xdata	ENDS
;	COMDAT xdata
xdata	SEGMENT
$unwind$?reserve@?$ImVector@UImGuiColumnsSet@@@@QEAAXH@Z DD 010d01H
