; Listing generated by Microsoft (R) Optimizing Compiler Version 19.43.34810.0 

include listing.inc

INCLUDELIB LIBCMT
INCLUDELIB OLDNAMES

PUBLIC	??_C@_06GLKGGCJO@LcOpen@			; `string'
PUBLIC	??_C@_06GJPHNGFG@LcRead@			; `string'
PUBLIC	??_C@_0O@CBBNAKKC@LcReadScatter@		; `string'
PUBLIC	??_C@_07MBHEMNEL@LcWrite@			; `string'
PUBLIC	??_C@_0P@DAJMPOFM@LcWriteScatter@		; `string'
PUBLIC	??_C@_0M@HBBFEIGD@LcGetOption@			; `string'
PUBLIC	??_C@_0M@FPFAGJPB@LcSetOption@			; `string'
PUBLIC	??_C@_09DCHLEDFD@LcCommand@			; `string'
PUBLIC	??_C@_03HPADHAHE@N?1A@				; `string'
PUBLIC	??_C@_03HDGGCCPD@X86@				; `string'
PUBLIC	??_C@_06IDLKBMKC@X86PAE@			; `string'
PUBLIC	??_C@_03ELMOGNHL@X64@				; `string'
PUBLIC	??_C@_05DKFIPBAL@ARM64@				; `string'
PUBLIC	??_C@_04PCJGBDOP@Zero@				; `string'
PUBLIC	??_C@_04HJMOFLDF@Free@				; `string'
PUBLIC	??_C@_07LNBDIIPN@Standby@			; `string'
PUBLIC	??_C@_07PFEKAJBJ@Modifiy@			; `string'
PUBLIC	??_C@_07DGKCKENG@ModNoWr@			; `string'
PUBLIC	??_C@_03KHCCLPOB@Bad@				; `string'
PUBLIC	??_C@_06MAFFGDO@Active@				; `string'
PUBLIC	??_C@_07KADDEKFE@Transit@			; `string'
PUBLIC	??_C@_01JOAMLHOP@?9@				; `string'
PUBLIC	??_C@_06CGLFEPBO@Unused@			; `string'
PUBLIC	??_C@_08LBAJPEDB@ProcPriv@			; `string'
PUBLIC	??_C@_09BGPMMIPE@PageTable@			; `string'
PUBLIC	??_C@_09MFCNICMF@LargePage@			; `string'
PUBLIC	??_C@_0L@DHBAIELD@DriverLock@			; `string'
PUBLIC	??_C@_09PKFILKGD@Shareable@			; `string'
PUBLIC	??_C@_04PBAHLACE@File@				; `string'
PUBLIC	_Avx2WmemEnabledWeakValue
;	COMDAT _Avx2WmemEnabledWeakValue
_BSS	SEGMENT
_Avx2WmemEnabledWeakValue DD 01H DUP (?)
_BSS	ENDS
;	COMDAT ??_C@_04PBAHLACE@File@
CONST	SEGMENT
??_C@_04PBAHLACE@File@ DB 'File', 00H			; `string'
CONST	ENDS
;	COMDAT ??_C@_09PKFILKGD@Shareable@
CONST	SEGMENT
??_C@_09PKFILKGD@Shareable@ DB 'Shareable', 00H		; `string'
CONST	ENDS
;	COMDAT ??_C@_0L@DHBAIELD@DriverLock@
CONST	SEGMENT
??_C@_0L@DHBAIELD@DriverLock@ DB 'DriverLock', 00H	; `string'
CONST	ENDS
;	COMDAT ??_C@_09MFCNICMF@LargePage@
CONST	SEGMENT
??_C@_09MFCNICMF@LargePage@ DB 'LargePage', 00H		; `string'
CONST	ENDS
;	COMDAT ??_C@_09BGPMMIPE@PageTable@
CONST	SEGMENT
??_C@_09BGPMMIPE@PageTable@ DB 'PageTable', 00H		; `string'
CONST	ENDS
;	COMDAT ??_C@_08LBAJPEDB@ProcPriv@
CONST	SEGMENT
??_C@_08LBAJPEDB@ProcPriv@ DB 'ProcPriv', 00H		; `string'
CONST	ENDS
;	COMDAT ??_C@_06CGLFEPBO@Unused@
CONST	SEGMENT
??_C@_06CGLFEPBO@Unused@ DB 'Unused', 00H		; `string'
CONST	ENDS
;	COMDAT ??_C@_01JOAMLHOP@?9@
CONST	SEGMENT
??_C@_01JOAMLHOP@?9@ DB '-', 00H			; `string'
CONST	ENDS
;	COMDAT ??_C@_07KADDEKFE@Transit@
CONST	SEGMENT
??_C@_07KADDEKFE@Transit@ DB 'Transit', 00H		; `string'
CONST	ENDS
;	COMDAT ??_C@_06MAFFGDO@Active@
CONST	SEGMENT
??_C@_06MAFFGDO@Active@ DB 'Active', 00H		; `string'
CONST	ENDS
;	COMDAT ??_C@_03KHCCLPOB@Bad@
CONST	SEGMENT
??_C@_03KHCCLPOB@Bad@ DB 'Bad', 00H			; `string'
CONST	ENDS
;	COMDAT ??_C@_07DGKCKENG@ModNoWr@
CONST	SEGMENT
??_C@_07DGKCKENG@ModNoWr@ DB 'ModNoWr', 00H		; `string'
CONST	ENDS
;	COMDAT ??_C@_07PFEKAJBJ@Modifiy@
CONST	SEGMENT
??_C@_07PFEKAJBJ@Modifiy@ DB 'Modifiy', 00H		; `string'
CONST	ENDS
;	COMDAT ??_C@_07LNBDIIPN@Standby@
CONST	SEGMENT
??_C@_07LNBDIIPN@Standby@ DB 'Standby', 00H		; `string'
CONST	ENDS
;	COMDAT ??_C@_04HJMOFLDF@Free@
CONST	SEGMENT
??_C@_04HJMOFLDF@Free@ DB 'Free', 00H			; `string'
CONST	ENDS
;	COMDAT ??_C@_04PCJGBDOP@Zero@
CONST	SEGMENT
??_C@_04PCJGBDOP@Zero@ DB 'Zero', 00H			; `string'
CONST	ENDS
;	COMDAT ??_C@_05DKFIPBAL@ARM64@
CONST	SEGMENT
??_C@_05DKFIPBAL@ARM64@ DB 'ARM64', 00H			; `string'
CONST	ENDS
;	COMDAT ??_C@_03ELMOGNHL@X64@
CONST	SEGMENT
??_C@_03ELMOGNHL@X64@ DB 'X64', 00H			; `string'
CONST	ENDS
;	COMDAT ??_C@_06IDLKBMKC@X86PAE@
CONST	SEGMENT
??_C@_06IDLKBMKC@X86PAE@ DB 'X86PAE', 00H		; `string'
CONST	ENDS
;	COMDAT ??_C@_03HDGGCCPD@X86@
CONST	SEGMENT
??_C@_03HDGGCCPD@X86@ DB 'X86', 00H			; `string'
CONST	ENDS
;	COMDAT ??_C@_03HPADHAHE@N?1A@
CONST	SEGMENT
??_C@_03HPADHAHE@N?1A@ DB 'N/A', 00H			; `string'
CONST	ENDS
;	COMDAT ??_C@_09DCHLEDFD@LcCommand@
CONST	SEGMENT
??_C@_09DCHLEDFD@LcCommand@ DB 'LcCommand', 00H		; `string'
CONST	ENDS
;	COMDAT ??_C@_0M@FPFAGJPB@LcSetOption@
CONST	SEGMENT
??_C@_0M@FPFAGJPB@LcSetOption@ DB 'LcSetOption', 00H	; `string'
CONST	ENDS
;	COMDAT ??_C@_0M@HBBFEIGD@LcGetOption@
CONST	SEGMENT
??_C@_0M@HBBFEIGD@LcGetOption@ DB 'LcGetOption', 00H	; `string'
CONST	ENDS
;	COMDAT ??_C@_0P@DAJMPOFM@LcWriteScatter@
CONST	SEGMENT
??_C@_0P@DAJMPOFM@LcWriteScatter@ DB 'LcWriteScatter', 00H ; `string'
CONST	ENDS
;	COMDAT ??_C@_07MBHEMNEL@LcWrite@
CONST	SEGMENT
??_C@_07MBHEMNEL@LcWrite@ DB 'LcWrite', 00H		; `string'
CONST	ENDS
;	COMDAT ??_C@_0O@CBBNAKKC@LcReadScatter@
CONST	SEGMENT
??_C@_0O@CBBNAKKC@LcReadScatter@ DB 'LcReadScatter', 00H ; `string'
CONST	ENDS
;	COMDAT ??_C@_06GJPHNGFG@LcRead@
CONST	SEGMENT
??_C@_06GJPHNGFG@LcRead@ DB 'LcRead', 00H		; `string'
CONST	ENDS
;	COMDAT ??_C@_06GLKGGCJO@LcOpen@
CONST	SEGMENT
??_C@_06GLKGGCJO@LcOpen@ DB 'LcOpen', 00H		; `string'
CONST	ENDS
PUBLIC	??_H@YAXPEAX_K1P6APEAX0@Z@Z			; `vector constructor iterator'
PUBLIC	??2@YAPEAX_KPEAX@Z				; operator new
PUBLIC	__local_stdio_scanf_options
PUBLIC	_vsscanf_l
PUBLIC	sscanf
PUBLIC	fabsf
PUBLIC	?abs@@YAMM@Z					; abs
PUBLIC	?copy@?$_Char_traits@DH@std@@SAPEADQEADQEBD_K@Z	; std::_Char_traits<char,int>::copy
PUBLIC	?move@?$_Char_traits@DH@std@@SAPEADQEADQEBD_K@Z	; std::_Char_traits<char,int>::move
PUBLIC	?length@?$_Narrow_char_traits@DH@std@@SA_KQEBD@Z ; std::_Narrow_char_traits<char,int>::length
PUBLIC	?assign@?$_Narrow_char_traits@DH@std@@SAPEADQEAD_KD@Z ; std::_Narrow_char_traits<char,int>::assign
PUBLIC	?assign@?$_Narrow_char_traits@DH@std@@SAXAEADAEBD@Z ; std::_Narrow_char_traits<char,int>::assign
PUBLIC	??0exception@std@@QEAA@QEBDH@Z			; std::exception::exception
PUBLIC	??0exception@std@@QEAA@AEBV01@@Z		; std::exception::exception
PUBLIC	??1exception@std@@UEAA@XZ			; std::exception::~exception
PUBLIC	?what@exception@std@@UEBAPEBDXZ			; std::exception::what
PUBLIC	??_Gexception@std@@UEAAPEAXI@Z			; std::exception::`scalar deleting destructor'
PUBLIC	??0bad_alloc@std@@AEAA@QEBD@Z			; std::bad_alloc::bad_alloc
PUBLIC	??1bad_alloc@std@@UEAA@XZ			; std::bad_alloc::~bad_alloc
PUBLIC	??0bad_alloc@std@@QEAA@AEBV01@@Z		; std::bad_alloc::bad_alloc
PUBLIC	??_Gbad_alloc@std@@UEAAPEAXI@Z			; std::bad_alloc::`scalar deleting destructor'
PUBLIC	??0bad_array_new_length@std@@QEAA@XZ		; std::bad_array_new_length::bad_array_new_length
PUBLIC	??1bad_array_new_length@std@@UEAA@XZ		; std::bad_array_new_length::~bad_array_new_length
PUBLIC	??0bad_array_new_length@std@@QEAA@AEBV01@@Z	; std::bad_array_new_length::bad_array_new_length
PUBLIC	??_Gbad_array_new_length@std@@UEAAPEAXI@Z	; std::bad_array_new_length::`scalar deleting destructor'
PUBLIC	?_Throw_bad_array_new_length@std@@YAXXZ		; std::_Throw_bad_array_new_length
PUBLIC	?_Allocate@_Default_allocate_traits@std@@SAPEAX_K@Z ; std::_Default_allocate_traits::_Allocate
PUBLIC	?_Adjust_manually_vector_aligned@std@@YAXAEAPEAXAEA_K@Z ; std::_Adjust_manually_vector_aligned
PUBLIC	?_Orphan_all@_Container_base0@std@@QEAAXXZ	; std::_Container_base0::_Orphan_all
PUBLIC	?_Swap_proxy_and_iterators@_Container_base0@std@@QEAAXAEAU12@@Z ; std::_Container_base0::_Swap_proxy_and_iterators
PUBLIC	?_Alloc_proxy@_Container_base0@std@@QEAAXAEBU_Fake_allocator@2@@Z ; std::_Container_base0::_Alloc_proxy
PUBLIC	??0_Fake_proxy_ptr_impl@std@@QEAA@AEBU_Fake_allocator@1@AEBU_Container_base0@1@@Z ; std::_Fake_proxy_ptr_impl::_Fake_proxy_ptr_impl
PUBLIC	?_Release@_Fake_proxy_ptr_impl@std@@QEAAXXZ	; std::_Fake_proxy_ptr_impl::_Release
PUBLIC	?_Xlen_string@std@@YAXXZ			; std::_Xlen_string
PUBLIC	??0?$allocator@D@std@@QEAA@XZ			; std::allocator<char>::allocator<char>
PUBLIC	?deallocate@?$allocator@D@std@@QEAAXQEAD_K@Z	; std::allocator<char>::deallocate
PUBLIC	?allocate@?$allocator@D@std@@QEAAPEAD_K@Z	; std::allocator<char>::allocate
PUBLIC	?max_size@?$_Default_allocator_traits@V?$allocator@D@std@@@std@@SA_KAEBV?$allocator@D@2@@Z ; std::_Default_allocator_traits<std::allocator<char> >::max_size
PUBLIC	??0?$_String_val@U?$_Simple_types@D@std@@@std@@QEAA@XZ ; std::_String_val<std::_Simple_types<char> >::_String_val<std::_Simple_types<char> >
PUBLIC	?_Myptr@?$_String_val@U?$_Simple_types@D@std@@@std@@QEAAPEADXZ ; std::_String_val<std::_Simple_types<char> >::_Myptr
PUBLIC	?_Myptr@?$_String_val@U?$_Simple_types@D@std@@@std@@QEBAPEBDXZ ; std::_String_val<std::_Simple_types<char> >::_Myptr
PUBLIC	?_Large_mode_engaged@?$_String_val@U?$_Simple_types@D@std@@@std@@QEBA_NXZ ; std::_String_val<std::_Simple_types<char> >::_Large_mode_engaged
PUBLIC	?_Activate_SSO_buffer@?$_String_val@U?$_Simple_types@D@std@@@std@@QEAAXXZ ; std::_String_val<std::_Simple_types<char> >::_Activate_SSO_buffer
PUBLIC	?_Check_offset@?$_String_val@U?$_Simple_types@D@std@@@std@@QEBAX_K@Z ; std::_String_val<std::_Simple_types<char> >::_Check_offset
PUBLIC	?_Xran@?$_String_val@U?$_Simple_types@D@std@@@std@@SAXXZ ; std::_String_val<std::_Simple_types<char> >::_Xran
PUBLIC	??0_Bxty@?$_String_val@U?$_Simple_types@D@std@@@std@@QEAA@XZ ; std::_String_val<std::_Simple_types<char> >::_Bxty::_Bxty
PUBLIC	??1_Bxty@?$_String_val@U?$_Simple_types@D@std@@@std@@QEAA@XZ ; std::_String_val<std::_Simple_types<char> >::_Bxty::~_Bxty
PUBLIC	?_Switch_to_buf@_Bxty@?$_String_val@U?$_Simple_types@D@std@@@std@@QEAAXXZ ; std::_String_val<std::_Simple_types<char> >::_Bxty::_Switch_to_buf
PUBLIC	??1?$_String_val@U?$_Simple_types@D@std@@@std@@QEAA@XZ ; std::_String_val<std::_Simple_types<char> >::~_String_val<std::_Simple_types<char> >
PUBLIC	??0?$basic_string@DU?$char_traits@D@std@@V?$allocator@D@2@@std@@QEAA@QEBD@Z ; std::basic_string<char,std::char_traits<char>,std::allocator<char> >::basic_string<char,std::char_traits<char>,std::allocator<char> >
PUBLIC	?_Deallocate_for_capacity@?$basic_string@DU?$char_traits@D@std@@V?$allocator@D@2@@std@@CAXAEAV?$allocator@D@2@QEAD_K@Z ; std::basic_string<char,std::char_traits<char>,std::allocator<char> >::_Deallocate_for_capacity
PUBLIC	??0?$basic_string@DU?$char_traits@D@std@@V?$allocator@D@2@@std@@QEAA@$$QEAV01@@Z ; std::basic_string<char,std::char_traits<char>,std::allocator<char> >::basic_string<char,std::char_traits<char>,std::allocator<char> >
PUBLIC	?_Take_contents@?$basic_string@DU?$char_traits@D@std@@V?$allocator@D@2@@std@@AEAAXAEAV12@@Z ; std::basic_string<char,std::char_traits<char>,std::allocator<char> >::_Take_contents
PUBLIC	??1?$basic_string@DU?$char_traits@D@std@@V?$allocator@D@2@@std@@QEAA@XZ ; std::basic_string<char,std::char_traits<char>,std::allocator<char> >::~basic_string<char,std::char_traits<char>,std::allocator<char> >
PUBLIC	??4?$basic_string@DU?$char_traits@D@std@@V?$allocator@D@2@@std@@QEAAAEAV01@QEBD@Z ; std::basic_string<char,std::char_traits<char>,std::allocator<char> >::operator=
PUBLIC	??Y?$basic_string@DU?$char_traits@D@std@@V?$allocator@D@2@@std@@QEAAAEAV01@AEBV01@@Z ; std::basic_string<char,std::char_traits<char>,std::allocator<char> >::operator+=
PUBLIC	?append@?$basic_string@DU?$char_traits@D@std@@V?$allocator@D@2@@std@@QEAAAEAV12@AEBV12@@Z ; std::basic_string<char,std::char_traits<char>,std::allocator<char> >::append
PUBLIC	?append@?$basic_string@DU?$char_traits@D@std@@V?$allocator@D@2@@std@@QEAAAEAV12@QEBD_K@Z ; std::basic_string<char,std::char_traits<char>,std::allocator<char> >::append
PUBLIC	?append@?$basic_string@DU?$char_traits@D@std@@V?$allocator@D@2@@std@@QEAAAEAV12@_KD@Z ; std::basic_string<char,std::char_traits<char>,std::allocator<char> >::append
PUBLIC	?assign@?$basic_string@DU?$char_traits@D@std@@V?$allocator@D@2@@std@@QEAAAEAV12@QEBD_K@Z ; std::basic_string<char,std::char_traits<char>,std::allocator<char> >::assign
PUBLIC	?assign@?$basic_string@DU?$char_traits@D@std@@V?$allocator@D@2@@std@@QEAAAEAV12@QEBD@Z ; std::basic_string<char,std::char_traits<char>,std::allocator<char> >::assign
PUBLIC	?insert@?$basic_string@DU?$char_traits@D@std@@V?$allocator@D@2@@std@@QEAAAEAV12@_KQEBD0@Z ; std::basic_string<char,std::char_traits<char>,std::allocator<char> >::insert
PUBLIC	?insert@?$basic_string@DU?$char_traits@D@std@@V?$allocator@D@2@@std@@QEAAAEAV12@_KQEBD@Z ; std::basic_string<char,std::char_traits<char>,std::allocator<char> >::insert
PUBLIC	?c_str@?$basic_string@DU?$char_traits@D@std@@V?$allocator@D@2@@std@@QEBAPEBDXZ ; std::basic_string<char,std::char_traits<char>,std::allocator<char> >::c_str
PUBLIC	?size@?$basic_string@DU?$char_traits@D@std@@V?$allocator@D@2@@std@@QEBA_KXZ ; std::basic_string<char,std::char_traits<char>,std::allocator<char> >::size
PUBLIC	?max_size@?$basic_string@DU?$char_traits@D@std@@V?$allocator@D@2@@std@@QEBA_KXZ ; std::basic_string<char,std::char_traits<char>,std::allocator<char> >::max_size
PUBLIC	?resize@?$basic_string@DU?$char_traits@D@std@@V?$allocator@D@2@@std@@QEAAX_KD@Z ; std::basic_string<char,std::char_traits<char>,std::allocator<char> >::resize
PUBLIC	?capacity@?$basic_string@DU?$char_traits@D@std@@V?$allocator@D@2@@std@@QEBA_KXZ ; std::basic_string<char,std::char_traits<char>,std::allocator<char> >::capacity
PUBLIC	?_Calculate_growth@?$basic_string@DU?$char_traits@D@std@@V?$allocator@D@2@@std@@CA_K_K00@Z ; std::basic_string<char,std::char_traits<char>,std::allocator<char> >::_Calculate_growth
PUBLIC	?_Calculate_growth@?$basic_string@DU?$char_traits@D@std@@V?$allocator@D@2@@std@@AEBA_K_K@Z ; std::basic_string<char,std::char_traits<char>,std::allocator<char> >::_Calculate_growth
PUBLIC	?_Eos@?$basic_string@DU?$char_traits@D@std@@V?$allocator@D@2@@std@@AEAAX_K@Z ; std::basic_string<char,std::char_traits<char>,std::allocator<char> >::_Eos
PUBLIC	?_Tidy_deallocate@?$basic_string@DU?$char_traits@D@std@@V?$allocator@D@2@@std@@AEAAXXZ ; std::basic_string<char,std::char_traits<char>,std::allocator<char> >::_Tidy_deallocate
PUBLIC	?_Swap_proxy_and_iterators@?$basic_string@DU?$char_traits@D@std@@V?$allocator@D@2@@std@@AEAAXAEAV12@@Z ; std::basic_string<char,std::char_traits<char>,std::allocator<char> >::_Swap_proxy_and_iterators
PUBLIC	?_Getal@?$basic_string@DU?$char_traits@D@std@@V?$allocator@D@2@@std@@AEAAAEAV?$allocator@D@2@XZ ; std::basic_string<char,std::char_traits<char>,std::allocator<char> >::_Getal
PUBLIC	?_Getal@?$basic_string@DU?$char_traits@D@std@@V?$allocator@D@2@@std@@AEBAAEBV?$allocator@D@2@XZ ; std::basic_string<char,std::char_traits<char>,std::allocator<char> >::_Getal
PUBLIC	?_Get_first@?$_Compressed_pair@V?$allocator@D@std@@V?$_String_val@U?$_Simple_types@D@std@@@2@$00@std@@QEAAAEAV?$allocator@D@2@XZ ; std::_Compressed_pair<std::allocator<char>,std::_String_val<std::_Simple_types<char> >,1>::_Get_first
PUBLIC	?_Get_first@?$_Compressed_pair@V?$allocator@D@std@@V?$_String_val@U?$_Simple_types@D@std@@@2@$00@std@@QEBAAEBV?$allocator@D@2@XZ ; std::_Compressed_pair<std::allocator<char>,std::_String_val<std::_Simple_types<char> >,1>::_Get_first
PUBLIC	??1?$_Compressed_pair@V?$allocator@D@std@@V?$_String_val@U?$_Simple_types@D@std@@@2@$00@std@@QEAA@XZ ; std::_Compressed_pair<std::allocator<char>,std::_String_val<std::_Simple_types<char> >,1>::~_Compressed_pair<std::allocator<char>,std::_String_val<std::_Simple_types<char> >,1>
PUBLIC	??$min@_K@std@@YAAEB_KAEB_K0@Z			; std::min<unsigned __int64>
PUBLIC	??$move@AEAV?$basic_string@DU?$char_traits@D@std@@V?$allocator@D@2@@std@@@std@@YA$$QEAV?$basic_string@DU?$char_traits@D@std@@V?$allocator@D@2@@0@AEAV10@@Z ; std::move<std::basic_string<char,std::char_traits<char>,std::allocator<char> > &>
PUBLIC	??$?HDU?$char_traits@D@std@@V?$allocator@D@1@@std@@YA?AV?$basic_string@DU?$char_traits@D@std@@V?$allocator@D@2@@0@QEBD$$QEAV10@@Z ; std::operator+<char,std::char_traits<char>,std::allocator<char> >
PUBLIC	??0WSInit@detail@httplib@@QEAA@XZ		; httplib::detail::WSInit::WSInit
PUBLIC	??1WSInit@detail@httplib@@QEAA@XZ		; httplib::detail::WSInit::~WSInit
PUBLIC	??0SSLInit@detail@httplib@@QEAA@XZ		; httplib::detail::SSLInit::SSLInit
PUBLIC	?MakeVectorRegister@Math@Core@IronMan@@YA?AT__m128@@IIII@Z ; IronMan::Core::Math::MakeVectorRegister
PUBLIC	?MakeVectorRegister@Math@Core@IronMan@@YA?AT__m128@@MMMM@Z ; IronMan::Core::Math::MakeVectorRegister
PUBLIC	??0ImVec2@@QEAA@XZ				; ImVec2::ImVec2
PUBLIC	??0ImVec2@@QEAA@MM@Z				; ImVec2::ImVec2
PUBLIC	??AImVec2@@QEBAM_K@Z				; ImVec2::operator[]
PUBLIC	??AImVec2@@QEAAAEAM_K@Z				; ImVec2::operator[]
PUBLIC	??0ImVec4@@QEAA@XZ				; ImVec4::ImVec4
PUBLIC	??0ImVec4@@QEAA@MMMM@Z				; ImVec4::ImVec4
PUBLIC	?Separator@ImGui@@YAXXZ				; ImGui::Separator
PUBLIC	?NewLine@ImGui@@YAXXZ				; ImGui::NewLine
PUBLIC	?Spacing@ImGui@@YAXXZ				; ImGui::Spacing
PUBLIC	?Dummy@ImGui@@YAXAEBUImVec2@@@Z			; ImGui::Dummy
PUBLIC	?AlignTextToFramePadding@ImGui@@YAXXZ		; ImGui::AlignTextToFramePadding
PUBLIC	?TextUnformatted@ImGui@@YAXPEBD0@Z		; ImGui::TextUnformatted
PUBLIC	?TextUnformatted2@ImGui@@YAXPEBD0@Z		; ImGui::TextUnformatted2
PUBLIC	?Text@ImGui@@YAXPEBDZZ				; ImGui::Text
PUBLIC	?TextV@ImGui@@YAXPEBDPEAD@Z			; ImGui::TextV
PUBLIC	?TextColored@ImGui@@YAXAEBUImVec4@@PEBDZZ	; ImGui::TextColored
PUBLIC	?TextColoredV@ImGui@@YAXAEBUImVec4@@PEBDPEAD@Z	; ImGui::TextColoredV
PUBLIC	?TextDisabled@ImGui@@YAXPEBDZZ			; ImGui::TextDisabled
PUBLIC	?TextDisabledV@ImGui@@YAXPEBDPEAD@Z		; ImGui::TextDisabledV
PUBLIC	?TextWrapped@ImGui@@YAXPEBDZZ			; ImGui::TextWrapped
PUBLIC	?TextWrappedV@ImGui@@YAXPEBDPEAD@Z		; ImGui::TextWrappedV
PUBLIC	?LabelText@ImGui@@YAXPEBD0ZZ			; ImGui::LabelText
PUBLIC	?LabelTextV@ImGui@@YAXPEBD0PEAD@Z		; ImGui::LabelTextV
PUBLIC	?BulletText@ImGui@@YAXPEBDZZ			; ImGui::BulletText
PUBLIC	?BulletTextV@ImGui@@YAXPEBDPEAD@Z		; ImGui::BulletTextV
PUBLIC	?Button@ImGui@@YA_NPEBDAEBUImVec2@@@Z		; ImGui::Button
PUBLIC	?SmallButton@ImGui@@YA_NPEBD@Z			; ImGui::SmallButton
PUBLIC	?InvisibleButton@ImGui@@YA_NPEBDAEBUImVec2@@@Z	; ImGui::InvisibleButton
PUBLIC	?ArrowButton@ImGui@@YA_NPEBDH@Z			; ImGui::ArrowButton
PUBLIC	?Image@ImGui@@YAXPEAXAEBUImVec2@@11AEBUImVec4@@2@Z ; ImGui::Image
PUBLIC	?ImageButton@ImGui@@YA_NPEAXAEBUImVec2@@11HAEBUImVec4@@2@Z ; ImGui::ImageButton
PUBLIC	?Checkbox@ImGui@@YA_NPEBDPEA_N@Z		; ImGui::Checkbox
PUBLIC	?Checkbox1@ImGui@@YA_NPEBDPEAHPEAM@Z		; ImGui::Checkbox1
PUBLIC	?Checkbox2@ImGui@@YA_NPEBDPEAH@Z		; ImGui::Checkbox2
PUBLIC	?ToggleButton@ImGui@@YA_NPEBDPEA_NMMM@Z		; ImGui::ToggleButton
PUBLIC	?CheckboxFlags@ImGui@@YA_NPEBDPEAII@Z		; ImGui::CheckboxFlags
PUBLIC	?RadioButton@ImGui@@YA_NPEBD_N@Z		; ImGui::RadioButton
PUBLIC	?RadioButton@ImGui@@YA_NPEBDPEAHH@Z		; ImGui::RadioButton
PUBLIC	?ProgressBar@ImGui@@YAXMAEBUImVec2@@PEBD@Z	; ImGui::ProgressBar
PUBLIC	?Bullet@ImGui@@YAXXZ				; ImGui::Bullet
PUBLIC	?BeginCombo@ImGui@@YA_NPEBD0H@Z			; ImGui::BeginCombo
PUBLIC	?EndCombo@ImGui@@YAXXZ				; ImGui::EndCombo
PUBLIC	?Combo@ImGui@@YA_NPEBDPEAHQEBQEBDHH@Z		; ImGui::Combo
PUBLIC	?Combo@ImGui@@YA_NPEBDPEAH0H@Z			; ImGui::Combo
PUBLIC	?Combo@ImGui@@YA_NPEBDPEAHP6A_NPEAXHPEAPEBD@Z2HH@Z ; ImGui::Combo
PUBLIC	?MultiCombo@ImGui@@YAXPEBDQEA_NQEAPEBDH@Z	; ImGui::MultiCombo
PUBLIC	?DragFloat@ImGui@@YA_NPEBDPEAMMMM0M@Z		; ImGui::DragFloat
PUBLIC	?DragFloat2@ImGui@@YA_NPEBDQEAMMMM0M@Z		; ImGui::DragFloat2
PUBLIC	?DragFloat3@ImGui@@YA_NPEBDQEAMMMM0M@Z		; ImGui::DragFloat3
PUBLIC	?DragFloat4@ImGui@@YA_NPEBDQEAMMMM0M@Z		; ImGui::DragFloat4
PUBLIC	?DragFloatRange2@ImGui@@YA_NPEBDPEAM1MMM00M@Z	; ImGui::DragFloatRange2
PUBLIC	?DragInt@ImGui@@YA_NPEBDPEAHMHH0@Z		; ImGui::DragInt
PUBLIC	?DragInt2@ImGui@@YA_NPEBDQEAHMHH0@Z		; ImGui::DragInt2
PUBLIC	?DragInt3@ImGui@@YA_NPEBDQEAHMHH0@Z		; ImGui::DragInt3
PUBLIC	?DragInt4@ImGui@@YA_NPEBDQEAHMHH0@Z		; ImGui::DragInt4
PUBLIC	?DragIntRange2@ImGui@@YA_NPEBDPEAH1MHH00@Z	; ImGui::DragIntRange2
PUBLIC	?DragScalar@ImGui@@YA_NPEBDHPEAXMPEBX20M@Z	; ImGui::DragScalar
PUBLIC	?DragScalarN@ImGui@@YA_NPEBDHPEAXHMPEBX20M@Z	; ImGui::DragScalarN
PUBLIC	?SliderFloat@ImGui@@YA_NPEBDPEAMMM0M_N@Z	; ImGui::SliderFloat
PUBLIC	?SliderFloat2@ImGui@@YA_NPEBDQEAMMM0M@Z		; ImGui::SliderFloat2
PUBLIC	?SliderFloat3@ImGui@@YA_NPEBDQEAMMM0M@Z		; ImGui::SliderFloat3
PUBLIC	?SliderFloat4@ImGui@@YA_NPEBDQEAMMM0M@Z		; ImGui::SliderFloat4
PUBLIC	?SliderAngle@ImGui@@YA_NPEBDPEAMMM0@Z		; ImGui::SliderAngle
PUBLIC	?SliderInt@ImGui@@YA_NPEBDPEAHHH0_N@Z		; ImGui::SliderInt
PUBLIC	?SliderInt2@ImGui@@YA_NPEBDQEAHHH0@Z		; ImGui::SliderInt2
PUBLIC	?SliderInt3@ImGui@@YA_NPEBDQEAHHH0@Z		; ImGui::SliderInt3
PUBLIC	?SliderInt4@ImGui@@YA_NPEBDQEAHHH0@Z		; ImGui::SliderInt4
PUBLIC	?SliderScalar@ImGui@@YA_NPEBDHPEAXPEBX20M_N@Z	; ImGui::SliderScalar
PUBLIC	?SliderScalarN@ImGui@@YA_NPEBDHPEAXHPEBX20M@Z	; ImGui::SliderScalarN
PUBLIC	?VSliderFloat@ImGui@@YA_NPEBDAEBUImVec2@@PEAMMM0M@Z ; ImGui::VSliderFloat
PUBLIC	?VSliderInt@ImGui@@YA_NPEBDAEBUImVec2@@PEAHHH0@Z ; ImGui::VSliderInt
PUBLIC	?VSliderScalar@ImGui@@YA_NPEBDAEBUImVec2@@HPEAXPEBX30M@Z ; ImGui::VSliderScalar
PUBLIC	?RenderTextOverlay@ImGui@@YAXUImVec2@@PEBD1_N@Z	; ImGui::RenderTextOverlay
PUBLIC	?InputText@ImGui@@YA_NPEBDPEAV?$basic_string@DU?$char_traits@D@std@@V?$allocator@D@2@@std@@_KHP6AHPEAUImGuiInputTextCallbackData@@@ZPEAX@Z ; ImGui::InputText
PUBLIC	?InputTextMultiline@ImGui@@YA_NPEBDPEAV?$basic_string@DU?$char_traits@D@std@@V?$allocator@D@2@@std@@AEBUImVec2@@HP6AHPEAUImGuiInputTextCallbackData@@@ZPEAX@Z ; ImGui::InputTextMultiline
PUBLIC	?InputText@ImGui@@YA_NPEBDPEAD_KHP6AHPEAUImGuiInputTextCallbackData@@@ZPEAX@Z ; ImGui::InputText
PUBLIC	?InputTextMultiline@ImGui@@YA_NPEBDPEAD_KAEBUImVec2@@HP6AHPEAUImGuiInputTextCallbackData@@@ZPEAX@Z ; ImGui::InputTextMultiline
PUBLIC	?InputFloat@ImGui@@YA_NPEBDPEAMMM0H@Z		; ImGui::InputFloat
PUBLIC	?InputFloat2@ImGui@@YA_NPEBDQEAM0H@Z		; ImGui::InputFloat2
PUBLIC	?InputFloat3@ImGui@@YA_NPEBDQEAM0H@Z		; ImGui::InputFloat3
PUBLIC	?InputFloat4@ImGui@@YA_NPEBDQEAM0H@Z		; ImGui::InputFloat4
PUBLIC	?InputInt@ImGui@@YA_NPEBDPEAHHHH@Z		; ImGui::InputInt
PUBLIC	?InputInt2@ImGui@@YA_NPEBDQEAHH@Z		; ImGui::InputInt2
PUBLIC	?InputInt3@ImGui@@YA_NPEBDQEAHH@Z		; ImGui::InputInt3
PUBLIC	?InputInt4@ImGui@@YA_NPEBDQEAHH@Z		; ImGui::InputInt4
PUBLIC	?InputDouble@ImGui@@YA_NPEBDPEANNN0H@Z		; ImGui::InputDouble
PUBLIC	?InputScalar@ImGui@@YA_NPEBDHPEAXPEBX20H@Z	; ImGui::InputScalar
PUBLIC	?InputScalarN@ImGui@@YA_NPEBDHPEAXHPEBX20H@Z	; ImGui::InputScalarN
PUBLIC	?ColorEdit3@ImGui@@YA_NPEBDQEAMH@Z		; ImGui::ColorEdit3
PUBLIC	?ColorEdit4@ImGui@@YA_NPEBDQEAMH@Z		; ImGui::ColorEdit4
PUBLIC	?ColorPicker3@ImGui@@YA_NPEBDQEAMH@Z		; ImGui::ColorPicker3
PUBLIC	?ColorPicker4@ImGui@@YA_NPEBDQEAMHPEBM@Z	; ImGui::ColorPicker4
PUBLIC	?ColorButton@ImGui@@YA_NPEBDAEBUImVec4@@HUImVec2@@@Z ; ImGui::ColorButton
PUBLIC	?SetColorEditOptions@ImGui@@YAXH@Z		; ImGui::SetColorEditOptions
PUBLIC	?BufferingBar@ImGui@@YA_NPEBDMAEBUImVec2@@AEBI2@Z ; ImGui::BufferingBar
PUBLIC	?Spinner@ImGui@@YA_NPEBDMHAEBI@Z		; ImGui::Spinner
PUBLIC	?TreeNode@ImGui@@YA_NPEBD@Z			; ImGui::TreeNode
PUBLIC	?TreeNode@ImGui@@YA_NPEBD0ZZ			; ImGui::TreeNode
PUBLIC	?TreeNode@ImGui@@YA_NPEBXPEBDZZ			; ImGui::TreeNode
PUBLIC	?TreeNodeV@ImGui@@YA_NPEBD0PEAD@Z		; ImGui::TreeNodeV
PUBLIC	?TreeNodeV@ImGui@@YA_NPEBXPEBDPEAD@Z		; ImGui::TreeNodeV
PUBLIC	?TreeNodeEx@ImGui@@YA_NPEBDH@Z			; ImGui::TreeNodeEx
PUBLIC	?TreeNodeEx@ImGui@@YA_NPEBDH0ZZ			; ImGui::TreeNodeEx
PUBLIC	?TreeNodeEx@ImGui@@YA_NPEBXHPEBDZZ		; ImGui::TreeNodeEx
PUBLIC	?TreeNodeExV@ImGui@@YA_NPEBDH0PEAD@Z		; ImGui::TreeNodeExV
PUBLIC	?TreeNodeExV@ImGui@@YA_NPEBXHPEBDPEAD@Z		; ImGui::TreeNodeExV
PUBLIC	?TreePush@ImGui@@YAXPEBD@Z			; ImGui::TreePush
PUBLIC	?TreePush@ImGui@@YAXPEBX@Z			; ImGui::TreePush
PUBLIC	?TreePop@ImGui@@YAXXZ				; ImGui::TreePop
PUBLIC	?TreeAdvanceToLabelPos@ImGui@@YAXXZ		; ImGui::TreeAdvanceToLabelPos
PUBLIC	?GetTreeNodeToLabelSpacing@ImGui@@YAMXZ		; ImGui::GetTreeNodeToLabelSpacing
PUBLIC	?SetNextTreeNodeOpen@ImGui@@YAX_NH@Z		; ImGui::SetNextTreeNodeOpen
PUBLIC	?CollapsingHeader@ImGui@@YA_NPEBDH@Z		; ImGui::CollapsingHeader
PUBLIC	?CollapsingHeader@ImGui@@YA_NPEBDPEA_NH@Z	; ImGui::CollapsingHeader
PUBLIC	?Selectable@ImGui@@YA_NPEBD_NHAEBUImVec2@@@Z	; ImGui::Selectable
PUBLIC	?Selectable@ImGui@@YA_NPEBDPEA_NHAEBUImVec2@@@Z	; ImGui::Selectable
PUBLIC	?ListBox@ImGui@@YA_NPEBDPEAHQEBQEBDHH@Z		; ImGui::ListBox
PUBLIC	?ListBox@ImGui@@YA_NPEBDPEAHP6A_NPEAXHPEAPEBD@Z2HH@Z ; ImGui::ListBox
PUBLIC	?ListBoxHeader@ImGui@@YA_NPEBDAEBUImVec2@@@Z	; ImGui::ListBoxHeader
PUBLIC	?ListBoxHeader@ImGui@@YA_NPEBDHH@Z		; ImGui::ListBoxHeader
PUBLIC	?ListBoxFooter@ImGui@@YAXXZ			; ImGui::ListBoxFooter
PUBLIC	?PlotLines@ImGui@@YAXPEBDPEBMHH0MMUImVec2@@H@Z	; ImGui::PlotLines
PUBLIC	?PlotLines@ImGui@@YAXPEBDP6AMPEAXH@Z1HH0MMUImVec2@@@Z ; ImGui::PlotLines
PUBLIC	?PlotHistogram@ImGui@@YAXPEBDPEBMHH0MMUImVec2@@H@Z ; ImGui::PlotHistogram
PUBLIC	?PlotHistogram@ImGui@@YAXPEBDP6AMPEAXH@Z1HH0MMUImVec2@@@Z ; ImGui::PlotHistogram
PUBLIC	?Value@ImGui@@YAXPEBD_N@Z			; ImGui::Value
PUBLIC	?Value@ImGui@@YAXPEBDH@Z			; ImGui::Value
PUBLIC	?Value@ImGui@@YAXPEBDI@Z			; ImGui::Value
PUBLIC	?Value@ImGui@@YAXPEBDM0@Z			; ImGui::Value
PUBLIC	?BeginMainMenuBar@ImGui@@YA_NXZ			; ImGui::BeginMainMenuBar
PUBLIC	?EndMainMenuBar@ImGui@@YAXXZ			; ImGui::EndMainMenuBar
PUBLIC	?BeginMenuBar@ImGui@@YA_NXZ			; ImGui::BeginMenuBar
PUBLIC	?EndMenuBar@ImGui@@YAXXZ			; ImGui::EndMenuBar
PUBLIC	?BeginMenu@ImGui@@YA_NPEBD_N@Z			; ImGui::BeginMenu
PUBLIC	?EndMenu@ImGui@@YAXXZ				; ImGui::EndMenu
PUBLIC	?MenuItem@ImGui@@YA_NPEBD0_N1@Z			; ImGui::MenuItem
PUBLIC	?MenuItem@ImGui@@YA_NPEBD0PEA_N_N@Z		; ImGui::MenuItem
PUBLIC	?BeginTabBar@ImGui@@YA_NPEBDH@Z			; ImGui::BeginTabBar
PUBLIC	?EndTabBar@ImGui@@YAXXZ				; ImGui::EndTabBar
PUBLIC	?BeginTabItem@ImGui@@YA_NPEBDPEA_NH@Z		; ImGui::BeginTabItem
PUBLIC	?EndTabItem@ImGui@@YAXXZ			; ImGui::EndTabItem
PUBLIC	?SetTabItemClosed@ImGui@@YAXPEBD@Z		; ImGui::SetTabItemClosed
PUBLIC	??A?$ImVector@G@@QEAAAEAGH@Z			; ImVector<unsigned short>::operator[]
PUBLIC	??A?$ImVector@G@@QEBAAEBGH@Z			; ImVector<unsigned short>::operator[]
PUBLIC	?_grow_capacity@?$ImVector@G@@QEBAHH@Z		; ImVector<unsigned short>::_grow_capacity
PUBLIC	?resize@?$ImVector@G@@QEAAXH@Z			; ImVector<unsigned short>::resize
PUBLIC	?reserve@?$ImVector@G@@QEAAXH@Z			; ImVector<unsigned short>::reserve
PUBLIC	?InsertChars@ImGuiInputTextCallbackData@@QEAAXHPEBD0@Z ; ImGuiInputTextCallbackData::InsertChars
PUBLIC	??0ImGuiInputTextCallbackData@@QEAA@XZ		; ImGuiInputTextCallbackData::ImGuiInputTextCallbackData
PUBLIC	?DeleteChars@ImGuiInputTextCallbackData@@QEAAXHH@Z ; ImGuiInputTextCallbackData::DeleteChars
PUBLIC	?InputFloat@ImGui@@YA_NPEBDPEAMMMHH@Z		; ImGui::InputFloat
PUBLIC	?InputFloat2@ImGui@@YA_NPEBDQEAMHH@Z		; ImGui::InputFloat2
PUBLIC	?InputFloat3@ImGui@@YA_NPEBDQEAMHH@Z		; ImGui::InputFloat3
PUBLIC	?InputFloat4@ImGui@@YA_NPEBDQEAMHH@Z		; ImGui::InputFloat4
PUBLIC	??2@YAPEAX_KUImNewDummy@@PEAX@Z			; operator new
PUBLIC	??3@YAXPEAXUImNewDummy@@0@Z			; operator delete
PUBLIC	??0?$ImVector@D@@QEAA@XZ			; ImVector<char>::ImVector<char>
PUBLIC	??1?$ImVector@D@@QEAA@XZ			; ImVector<char>::~ImVector<char>
PUBLIC	?_grow_capacity@?$ImVector@D@@QEBAHH@Z		; ImVector<char>::_grow_capacity
PUBLIC	?resize@?$ImVector@D@@QEAAXH@Z			; ImVector<char>::resize
PUBLIC	?reserve@?$ImVector@D@@QEAAXH@Z			; ImVector<char>::reserve
PUBLIC	??0ImGuiTextBuffer@@QEAA@XZ			; ImGuiTextBuffer::ImGuiTextBuffer
PUBLIC	?size@ImGuiTextBuffer@@QEBAHXZ			; ImGuiTextBuffer::size
PUBLIC	??1ImGuiTextBuffer@@QEAA@XZ			; ImGuiTextBuffer::~ImGuiTextBuffer
PUBLIC	??0ImGuiListClipper@@QEAA@HM@Z			; ImGuiListClipper::ImGuiListClipper
PUBLIC	??1ImGuiListClipper@@QEAA@XZ			; ImGuiListClipper::~ImGuiListClipper
PUBLIC	??0ImColor@@QEAA@HHHH@Z				; ImColor::ImColor
PUBLIC	??BImColor@@QEBAIXZ				; ImColor::operator unsigned int
PUBLIC	?_grow_capacity@?$ImVector@UImVec2@@@@QEBAHH@Z	; ImVector<ImVec2>::_grow_capacity
PUBLIC	?reserve@?$ImVector@UImVec2@@@@QEAAXH@Z		; ImVector<ImVec2>::reserve
PUBLIC	?push_back@?$ImVector@UImVec2@@@@QEAAXAEBUImVec2@@@Z ; ImVector<ImVec2>::push_back
PUBLIC	?PathClear@ImDrawList@@QEAAXXZ			; ImDrawList::PathClear
PUBLIC	?PathLineTo@ImDrawList@@QEAAXAEBUImVec2@@@Z	; ImDrawList::PathLineTo
PUBLIC	?PathFillConvex@ImDrawList@@QEAAXI@Z		; ImDrawList::PathFillConvex
PUBLIC	?PathStroke@ImDrawList@@QEAAXI_NM@Z		; ImDrawList::PathStroke
PUBLIC	?PrimWriteVtx@ImDrawList@@QEAAXAEBUImVec2@@0I@Z	; ImDrawList::PrimWriteVtx
PUBLIC	?PrimWriteIdx@ImDrawList@@QEAAXG@Z		; ImDrawList::PrimWriteIdx
PUBLIC	?PrimVtx@ImDrawList@@QEAAXAEBUImVec2@@0I@Z	; ImDrawList::PrimVtx
PUBLIC	??A?$ImVector@M@@QEBAAEBMH@Z			; ImVector<float>::operator[]
PUBLIC	?GetCharAdvance@ImFont@@QEBAMG@Z		; ImFont::GetCharAdvance
PUBLIC	?ImParseFormatFindStart@@YAPEBDPEBD@Z		; ImParseFormatFindStart
PUBLIC	?ImParseFormatFindEnd@@YAPEBDPEBD@Z		; ImParseFormatFindEnd
PUBLIC	?ImParseFormatTrimDecorations@@YAPEBDPEBDPEAD_K@Z ; ImParseFormatTrimDecorations
PUBLIC	?ImParseFormatPrecision@@YAHPEBDH@Z		; ImParseFormatPrecision
PUBLIC	??0ImRect@@QEAA@XZ				; ImRect::ImRect
PUBLIC	??0ImRect@@QEAA@AEBUImVec2@@0@Z			; ImRect::ImRect
PUBLIC	??0ImRect@@QEAA@AEBUImVec4@@@Z			; ImRect::ImRect
PUBLIC	??0ImRect@@QEAA@MMMM@Z				; ImRect::ImRect
PUBLIC	?GetCenter@ImRect@@QEBA?AUImVec2@@XZ		; ImRect::GetCenter
PUBLIC	?GetSize@ImRect@@QEBA?AUImVec2@@XZ		; ImRect::GetSize
PUBLIC	?GetWidth@ImRect@@QEBAMXZ			; ImRect::GetWidth
PUBLIC	?GetHeight@ImRect@@QEBAMXZ			; ImRect::GetHeight
PUBLIC	?GetTL@ImRect@@QEBA?AUImVec2@@XZ		; ImRect::GetTL
PUBLIC	?GetTR@ImRect@@QEBA?AUImVec2@@XZ		; ImRect::GetTR
PUBLIC	?GetBL@ImRect@@QEBA?AUImVec2@@XZ		; ImRect::GetBL
PUBLIC	?GetBR@ImRect@@QEBA?AUImVec2@@XZ		; ImRect::GetBR
PUBLIC	?Contains@ImRect@@QEBA_NAEBUImVec2@@@Z		; ImRect::Contains
PUBLIC	?Contains@ImRect@@QEBA_NAEBU1@@Z		; ImRect::Contains
PUBLIC	?Overlaps@ImRect@@QEBA_NAEBU1@@Z		; ImRect::Overlaps
PUBLIC	?Expand@ImRect@@QEAAXM@Z			; ImRect::Expand
PUBLIC	?Expand@ImRect@@QEAAXAEBUImVec2@@@Z		; ImRect::Expand
PUBLIC	?Translate@ImRect@@QEAAXAEBUImVec2@@@Z		; ImRect::Translate
PUBLIC	?ClipWith@ImRect@@QEAAXAEBU1@@Z			; ImRect::ClipWith
PUBLIC	??0ImGuiMenuColumns@@QEAA@XZ			; ImGuiMenuColumns::ImGuiMenuColumns
PUBLIC	?Update@ImGuiMenuColumns@@QEAAXHM_N@Z		; ImGuiMenuColumns::Update
PUBLIC	?DeclColumns@ImGuiMenuColumns@@QEAAMMMM@Z	; ImGuiMenuColumns::DeclColumns
PUBLIC	?CalcExtraSpace@ImGuiMenuColumns@@QEAAMM@Z	; ImGuiMenuColumns::CalcExtraSpace
PUBLIC	?CursorAnimReset@ImGuiInputTextState@@QEAAXXZ	; ImGuiInputTextState::CursorAnimReset
PUBLIC	?CursorClamp@ImGuiInputTextState@@QEAAXXZ	; ImGuiInputTextState::CursorClamp
PUBLIC	?HasSelection@ImGuiInputTextState@@QEBA_NXZ	; ImGuiInputTextState::HasSelection
PUBLIC	?ClearSelection@ImGuiInputTextState@@QEAAXXZ	; ImGuiInputTextState::ClearSelection
PUBLIC	?SelectAll@ImGuiInputTextState@@QEAAXXZ		; ImGuiInputTextState::SelectAll
PUBLIC	?OnKeyPressed@ImGuiInputTextState@@QEAAXH@Z	; ImGuiInputTextState::OnKeyPressed
PUBLIC	??A?$ImVector@UImGuiPopupRef@@@@QEAAAEAUImGuiPopupRef@@H@Z ; ImVector<ImGuiPopupRef>::operator[]
PUBLIC	??A?$ImVector@UImGuiTabBar@@@@QEAAAEAUImGuiTabBar@@H@Z ; ImVector<ImGuiTabBar>::operator[]
PUBLIC	?_grow_capacity@?$ImVector@UImGuiTabBar@@@@QEBAHH@Z ; ImVector<ImGuiTabBar>::_grow_capacity
PUBLIC	?resize@?$ImVector@UImGuiTabBar@@@@QEAAXH@Z	; ImVector<ImGuiTabBar>::resize
PUBLIC	?reserve@?$ImVector@UImGuiTabBar@@@@QEAAXH@Z	; ImVector<ImGuiTabBar>::reserve
PUBLIC	?GetOrAddByKey@?$ImPool@UImGuiTabBar@@@@QEAAPEAUImGuiTabBar@@I@Z ; ImPool<ImGuiTabBar>::GetOrAddByKey
PUBLIC	?Add@?$ImPool@UImGuiTabBar@@@@QEAAPEAUImGuiTabBar@@XZ ; ImPool<ImGuiTabBar>::Add
PUBLIC	??A?$ImVector@UImGuiTabBarSortItem@@@@QEAAAEAUImGuiTabBarSortItem@@H@Z ; ImVector<ImGuiTabBarSortItem>::operator[]
PUBLIC	?_grow_capacity@?$ImVector@UImGuiTabBarSortItem@@@@QEBAHH@Z ; ImVector<ImGuiTabBarSortItem>::_grow_capacity
PUBLIC	?resize@?$ImVector@UImGuiTabBarSortItem@@@@QEAAXH@Z ; ImVector<ImGuiTabBarSortItem>::resize
PUBLIC	?reserve@?$ImVector@UImGuiTabBarSortItem@@@@QEAAXH@Z ; ImVector<ImGuiTabBarSortItem>::reserve
PUBLIC	?back@?$ImVector@PEAUImGuiTabBar@@@@QEAAAEAPEAUImGuiTabBar@@XZ ; ImVector<ImGuiTabBar *>::back
PUBLIC	?_grow_capacity@?$ImVector@PEAUImGuiTabBar@@@@QEBAHH@Z ; ImVector<ImGuiTabBar *>::_grow_capacity
PUBLIC	?reserve@?$ImVector@PEAUImGuiTabBar@@@@QEAAXH@Z	; ImVector<ImGuiTabBar *>::reserve
PUBLIC	?push_back@?$ImVector@PEAUImGuiTabBar@@@@QEAAXAEBQEAUImGuiTabBar@@@Z ; ImVector<ImGuiTabBar *>::push_back
PUBLIC	?pop_back@?$ImVector@PEAUImGuiTabBar@@@@QEAAXXZ	; ImVector<ImGuiTabBar *>::pop_back
PUBLIC	?empty@?$ImVector@UImGuiGroupData@@@@QEBA_NXZ	; ImVector<ImGuiGroupData>::empty
PUBLIC	?back@?$ImVector@UImGuiGroupData@@@@QEAAAEAUImGuiGroupData@@XZ ; ImVector<ImGuiGroupData>::back
PUBLIC	?back@?$ImVector@I@@QEAAAEAIXZ			; ImVector<unsigned int>::back
PUBLIC	?_grow_capacity@?$ImVector@I@@QEBAHH@Z		; ImVector<unsigned int>::_grow_capacity
PUBLIC	?reserve@?$ImVector@I@@QEAAXH@Z			; ImVector<unsigned int>::reserve
PUBLIC	?push_back@?$ImVector@I@@QEAAXAEBI@Z		; ImVector<unsigned int>::push_back
PUBLIC	?pop_back@?$ImVector@I@@QEAAXXZ			; ImVector<unsigned int>::pop_back
PUBLIC	?Rect@ImGuiWindow@@QEBA?AUImRect@@XZ		; ImGuiWindow::Rect
PUBLIC	?CalcFontSize@ImGuiWindow@@QEBAMXZ		; ImGuiWindow::CalcFontSize
PUBLIC	?TitleBarHeight@ImGuiWindow@@QEBAMXZ		; ImGuiWindow::TitleBarHeight
PUBLIC	?MenuBarHeight@ImGuiWindow@@QEBAMXZ		; ImGuiWindow::MenuBarHeight
PUBLIC	?MenuBarRect@ImGuiWindow@@QEBA?AUImRect@@XZ	; ImGuiWindow::MenuBarRect
PUBLIC	??0ImGuiItemHoveredDataBackup@@QEAA@XZ		; ImGuiItemHoveredDataBackup::ImGuiItemHoveredDataBackup
PUBLIC	?Backup@ImGuiItemHoveredDataBackup@@QEAAXXZ	; ImGuiItemHoveredDataBackup::Backup
PUBLIC	?Restore@ImGuiItemHoveredDataBackup@@QEBAXXZ	; ImGuiItemHoveredDataBackup::Restore
PUBLIC	??0ImGuiTabItem@@QEAA@XZ			; ImGuiTabItem::ImGuiTabItem
PUBLIC	??0?$ImVector@UImGuiTabItem@@@@QEAA@XZ		; ImVector<ImGuiTabItem>::ImVector<ImGuiTabItem>
PUBLIC	??1?$ImVector@UImGuiTabItem@@@@QEAA@XZ		; ImVector<ImGuiTabItem>::~ImVector<ImGuiTabItem>
PUBLIC	??A?$ImVector@UImGuiTabItem@@@@QEAAAEAUImGuiTabItem@@H@Z ; ImVector<ImGuiTabItem>::operator[]
PUBLIC	?back@?$ImVector@UImGuiTabItem@@@@QEAAAEAUImGuiTabItem@@XZ ; ImVector<ImGuiTabItem>::back
PUBLIC	?_grow_capacity@?$ImVector@UImGuiTabItem@@@@QEBAHH@Z ; ImVector<ImGuiTabItem>::_grow_capacity
PUBLIC	?resize@?$ImVector@UImGuiTabItem@@@@QEAAXH@Z	; ImVector<ImGuiTabItem>::resize
PUBLIC	?reserve@?$ImVector@UImGuiTabItem@@@@QEAAXH@Z	; ImVector<ImGuiTabItem>::reserve
PUBLIC	?push_back@?$ImVector@UImGuiTabItem@@@@QEAAXAEBUImGuiTabItem@@@Z ; ImVector<ImGuiTabItem>::push_back
PUBLIC	?erase@?$ImVector@UImGuiTabItem@@@@QEAAPEAUImGuiTabItem@@PEBU2@@Z ; ImVector<ImGuiTabItem>::erase
PUBLIC	?index_from_ptr@?$ImVector@UImGuiTabItem@@@@QEBAHPEBUImGuiTabItem@@@Z ; ImVector<ImGuiTabItem>::index_from_ptr
PUBLIC	??0ImGuiTabBar@@QEAA@XZ				; ImGuiTabBar::ImGuiTabBar
PUBLIC	?GetTabOrder@ImGuiTabBar@@QEBAHPEBUImGuiTabItem@@@Z ; ImGuiTabBar::GetTabOrder
PUBLIC	?GetTabName@ImGuiTabBar@@QEBAPEBDPEBUImGuiTabItem@@@Z ; ImGuiTabBar::GetTabName
PUBLIC	?GetCurrentWindow@ImGui@@YAPEAUImGuiWindow@@XZ	; ImGui::GetCurrentWindow
PUBLIC	?IsKeyPressedMap@ImGui@@YA_NH_N@Z		; ImGui::IsKeyPressedMap
PUBLIC	?IsNavInputDown@ImGui@@YA_NH@Z			; ImGui::IsNavInputDown
PUBLIC	?IsNavInputPressed@ImGui@@YA_NHW4ImGuiInputReadMode@@@Z ; ImGui::IsNavInputPressed
PUBLIC	?BeginTabBarEx@ImGui@@YA_NPEAUImGuiTabBar@@AEBUImRect@@H@Z ; ImGui::BeginTabBarEx
PUBLIC	?TabBarFindTabByID@ImGui@@YAPEAUImGuiTabItem@@PEAUImGuiTabBar@@I@Z ; ImGui::TabBarFindTabByID
PUBLIC	?TabBarRemoveTab@ImGui@@YAXPEAUImGuiTabBar@@I@Z	; ImGui::TabBarRemoveTab
PUBLIC	?TabBarCloseTab@ImGui@@YAXPEAUImGuiTabBar@@PEAUImGuiTabItem@@@Z ; ImGui::TabBarCloseTab
PUBLIC	?TabBarQueueChangeTabOrder@ImGui@@YAXPEAUImGuiTabBar@@PEBUImGuiTabItem@@H@Z ; ImGui::TabBarQueueChangeTabOrder
PUBLIC	?TabItemEx@ImGui@@YA_NPEAUImGuiTabBar@@PEBDPEA_NH@Z ; ImGui::TabItemEx
PUBLIC	?TabItemCalcSize@ImGui@@YA?AUImVec2@@PEBD_N@Z	; ImGui::TabItemCalcSize
PUBLIC	?TabItemBackground@ImGui@@YAXPEAUImDrawList@@AEBUImRect@@HI@Z ; ImGui::TabItemBackground
PUBLIC	?TabItemLabelAndCloseButton@ImGui@@YA_NPEAUImDrawList@@AEBUImRect@@HUImVec2@@PEBDII@Z ; ImGui::TabItemLabelAndCloseButton
PUBLIC	?RenderColorRectWithAlphaCheckerboard@ImGui@@YAXUImVec2@@0IM0MH@Z ; ImGui::RenderColorRectWithAlphaCheckerboard
PUBLIC	?ButtonEx@ImGui@@YA_NPEBDAEBUImVec2@@H@Z	; ImGui::ButtonEx
PUBLIC	?CloseButton@ImGui@@YA_NIAEBUImVec2@@M@Z	; ImGui::CloseButton
PUBLIC	?CollapseButton@ImGui@@YA_NIAEBUImVec2@@@Z	; ImGui::CollapseButton
PUBLIC	?ArrowButtonEx@ImGui@@YA_NPEBDHUImVec2@@H@Z	; ImGui::ArrowButtonEx
PUBLIC	?Scrollbar@ImGui@@YAXW4ImGuiAxis@@@Z		; ImGui::Scrollbar
PUBLIC	?GetScrollbarID@ImGui@@YAIPEAUImGuiWindow@@W4ImGuiAxis@@@Z ; ImGui::GetScrollbarID
PUBLIC	?VerticalSeparator@ImGui@@YAXXZ			; ImGui::VerticalSeparator
PUBLIC	?ButtonBehavior@ImGui@@YA_NAEBUImRect@@IPEA_N1H@Z ; ImGui::ButtonBehavior
PUBLIC	?DragBehavior@ImGui@@YA_NIHPEAXMPEBX1PEBDMH@Z	; ImGui::DragBehavior
PUBLIC	?SliderBehavior@ImGui@@YA_NAEBUImRect@@IHPEAXPEBX2PEBDMHPEAU2@@Z ; ImGui::SliderBehavior
PUBLIC	?SplitterBehavior@ImGui@@YA_NAEBUImRect@@IW4ImGuiAxis@@PEAM2MMMM@Z ; ImGui::SplitterBehavior
PUBLIC	?TreeNodeBehavior@ImGui@@YA_NIHPEBD0@Z		; ImGui::TreeNodeBehavior
PUBLIC	?TreeNodeBehaviorIsOpen@ImGui@@YA_NIH@Z		; ImGui::TreeNodeBehaviorIsOpen
PUBLIC	?TreePushRawID@ImGui@@YAXI@Z			; ImGui::TreePushRawID
PUBLIC	?InputTextEx@ImGui@@YA_NPEBDPEADHAEBUImVec2@@HP6AHPEAUImGuiInputTextCallbackData@@@ZPEAX@Z ; ImGui::InputTextEx
PUBLIC	?InputScalarAsWidgetReplacement@ImGui@@YA_NAEBUImRect@@IPEBDHPEAX1@Z ; ImGui::InputScalarAsWidgetReplacement
PUBLIC	?ColorTooltip@ImGui@@YAXPEBDPEBMH@Z		; ImGui::ColorTooltip
PUBLIC	?ColorEditOptionsPopup@ImGui@@YAXPEBMH@Z	; ImGui::ColorEditOptionsPopup
PUBLIC	?ColorPickerOptionsPopup@ImGui@@YAXPEBMH@Z	; ImGui::ColorPickerOptionsPopup
PUBLIC	?PlotEx@ImGui@@YAXW4ImGuiPlotType@@PEBDP6AMPEAXH@Z2HH1MMUImVec2@@@Z ; ImGui::PlotEx
PUBLIC	??1ImGuiDataTypeInfo@@QEAA@XZ			; ImGuiDataTypeInfo::~ImGuiDataTypeInfo
PUBLIC	??$DragBehaviorT@HHM@ImGui@@YA_NHPEAHMHHPEBDMH@Z ; ImGui::DragBehaviorT<int,int,float>
PUBLIC	??$DragBehaviorT@IHM@ImGui@@YA_NHPEAIMIIPEBDMH@Z ; ImGui::DragBehaviorT<unsigned int,int,float>
PUBLIC	??$DragBehaviorT@_J_JN@ImGui@@YA_NHPEA_JM_J1PEBDMH@Z ; ImGui::DragBehaviorT<__int64,__int64,double>
PUBLIC	??$DragBehaviorT@_K_JN@ImGui@@YA_NHPEA_KM_K1PEBDMH@Z ; ImGui::DragBehaviorT<unsigned __int64,__int64,double>
PUBLIC	??$DragBehaviorT@MMM@ImGui@@YA_NHPEAMMMMPEBDMH@Z ; ImGui::DragBehaviorT<float,float,float>
PUBLIC	??$DragBehaviorT@NNN@ImGui@@YA_NHPEANMNNPEBDMH@Z ; ImGui::DragBehaviorT<double,double,double>
PUBLIC	??$SliderBehaviorT@HHM@ImGui@@YA_NAEBUImRect@@IHPEAHHHPEBDMHPEAU1@@Z ; ImGui::SliderBehaviorT<int,int,float>
PUBLIC	??$SliderBehaviorT@IHM@ImGui@@YA_NAEBUImRect@@IHPEAIIIPEBDMHPEAU1@@Z ; ImGui::SliderBehaviorT<unsigned int,int,float>
PUBLIC	??$SliderBehaviorT@_J_JN@ImGui@@YA_NAEBUImRect@@IHPEA_J_J2PEBDMHPEAU1@@Z ; ImGui::SliderBehaviorT<__int64,__int64,double>
PUBLIC	??$SliderBehaviorT@_K_JN@ImGui@@YA_NAEBUImRect@@IHPEA_K_K2PEBDMHPEAU1@@Z ; ImGui::SliderBehaviorT<unsigned __int64,__int64,double>
PUBLIC	??$SliderBehaviorT@MMM@ImGui@@YA_NAEBUImRect@@IHPEAMMMPEBDMHPEAU1@@Z ; ImGui::SliderBehaviorT<float,float,float>
PUBLIC	??$SliderBehaviorT@NNN@ImGui@@YA_NAEBUImRect@@IHPEANNNPEBDMHPEAU1@@Z ; ImGui::SliderBehaviorT<double,double,double>
PUBLIC	??0ImGuiPlotArrayGetterData@@QEAA@PEBMH@Z	; ImGuiPlotArrayGetterData::ImGuiPlotArrayGetterData
PUBLIC	??$_Allocate_at_least_helper@V?$allocator@D@std@@@std@@YAPEADAEAV?$allocator@D@0@AEA_K@Z ; std::_Allocate_at_least_helper<std::allocator<char> >
PUBLIC	??$_Unfancy@D@std@@YAPEADPEAD@Z			; std::_Unfancy<char>
PUBLIC	??$max@_K@std@@YAAEB_KAEB_K0@Z			; std::max<unsigned __int64>
PUBLIC	??$_Max_limit@_J@std@@YA_JXZ			; std::_Max_limit<__int64>
PUBLIC	??$addressof@V?$_String_val@U?$_Simple_types@D@std@@@std@@@std@@YAPEAV?$_String_val@U?$_Simple_types@D@std@@@0@AEAV10@@Z ; std::addressof<std::_String_val<std::_Simple_types<char> > >
PUBLIC	??R<lambda_66f57f934f28d61049862f64df852ff0>@@QEBA@QEAD_KQEBD@Z ; <lambda_66f57f934f28d61049862f64df852ff0>::operator()
PUBLIC	??$_Reallocate_for@V<lambda_66f57f934f28d61049862f64df852ff0>@@PEBD@?$basic_string@DU?$char_traits@D@std@@V?$allocator@D@2@@std@@AEAAAEAV01@_KV<lambda_66f57f934f28d61049862f64df852ff0>@@PEBD@Z ; std::basic_string<char,std::char_traits<char>,std::allocator<char> >::_Reallocate_for<<lambda_66f57f934f28d61049862f64df852ff0>,char const *>
PUBLIC	??$_Convert_size@_K_K@std@@YA_K_K@Z		; std::_Convert_size<unsigned __int64,unsigned __int64>
PUBLIC	??R<lambda_65e615be2a453ca0576c979606f46740>@@QEBA@QEADQEBD_K12@Z ; <lambda_65e615be2a453ca0576c979606f46740>::operator()
PUBLIC	??$_Reallocate_grow_by@V<lambda_65e615be2a453ca0576c979606f46740>@@PEBD_K@?$basic_string@DU?$char_traits@D@std@@V?$allocator@D@2@@std@@AEAAAEAV01@_KV<lambda_65e615be2a453ca0576c979606f46740>@@PEBD_K@Z ; std::basic_string<char,std::char_traits<char>,std::allocator<char> >::_Reallocate_grow_by<<lambda_65e615be2a453ca0576c979606f46740>,char const *,unsigned __int64>
PUBLIC	??$move@AEAV?$allocator@D@std@@@std@@YA$$QEAV?$allocator@D@0@AEAV10@@Z ; std::move<std::allocator<char> &>
PUBLIC	??$?0V?$allocator@D@std@@$$V@?$_Compressed_pair@V?$allocator@D@std@@V?$_String_val@U?$_Simple_types@D@std@@@2@$00@std@@QEAA@U_One_then_variadic_args_t@1@$$QEAV?$allocator@D@1@@Z ; std::_Compressed_pair<std::allocator<char>,std::_String_val<std::_Simple_types<char> >,1>::_Compressed_pair<std::allocator<char>,std::_String_val<std::_Simple_types<char> >,1><std::allocator<char> >
PUBLIC	??$?0$$V@?$_Compressed_pair@V?$allocator@D@std@@V?$_String_val@U?$_Simple_types@D@std@@@2@$00@std@@QEAA@U_Zero_then_variadic_args_t@1@@Z ; std::_Compressed_pair<std::allocator<char>,std::_String_val<std::_Simple_types<char> >,1>::_Compressed_pair<std::allocator<char>,std::_String_val<std::_Simple_types<char> >,1><>
PUBLIC	??$_Construct@$00PEBD@?$basic_string@DU?$char_traits@D@std@@V?$allocator@D@2@@std@@AEAAXQEBD_K@Z ; std::basic_string<char,std::char_traits<char>,std::allocator<char> >::_Construct<1,char const *>
PUBLIC	??R<lambda_e1befb086ad3257e3f042a63030725f7>@@QEBA@QEADQEBD_K2D@Z ; <lambda_e1befb086ad3257e3f042a63030725f7>::operator()
PUBLIC	??$_Reallocate_grow_by@V<lambda_e1befb086ad3257e3f042a63030725f7>@@_KD@?$basic_string@DU?$char_traits@D@std@@V?$allocator@D@2@@std@@AEAAAEAV01@_KV<lambda_e1befb086ad3257e3f042a63030725f7>@@_KD@Z ; std::basic_string<char,std::char_traits<char>,std::allocator<char> >::_Reallocate_grow_by<<lambda_e1befb086ad3257e3f042a63030725f7>,unsigned __int64,char>
PUBLIC	??$_Construct_in_place@PEADAEAPEAD@std@@YAXAEAPEAD0@Z ; std::_Construct_in_place<char *,char * &>
PUBLIC	??$_Deallocate@$0BA@@std@@YAXPEAX_K@Z		; std::_Deallocate<16>
PUBLIC	??$_Allocate@$0BA@U_Default_allocate_traits@std@@@std@@YAPEAX_K@Z ; std::_Allocate<16,std::_Default_allocate_traits>
PUBLIC	??$_Construct_in_place@PEADAEBQEAD@std@@YAXAEAPEADAEBQEAD@Z ; std::_Construct_in_place<char *,char * const &>
PUBLIC	??$_Destroy_in_place@PEAD@std@@YAXAEAPEAD@Z	; std::_Destroy_in_place<char *>
PUBLIC	??$RoundScalarWithFormatT@HH@ImGui@@YAHPEBDHH@Z	; ImGui::RoundScalarWithFormatT<int,int>
PUBLIC	??$RoundScalarWithFormatT@IH@ImGui@@YAIPEBDHI@Z	; ImGui::RoundScalarWithFormatT<unsigned int,int>
PUBLIC	??$RoundScalarWithFormatT@_J_J@ImGui@@YA_JPEBDH_J@Z ; ImGui::RoundScalarWithFormatT<__int64,__int64>
PUBLIC	??$RoundScalarWithFormatT@_K_J@ImGui@@YA_KPEBDH_K@Z ; ImGui::RoundScalarWithFormatT<unsigned __int64,__int64>
PUBLIC	??$RoundScalarWithFormatT@MM@ImGui@@YAMPEBDHM@Z	; ImGui::RoundScalarWithFormatT<float,float>
PUBLIC	??$RoundScalarWithFormatT@NN@ImGui@@YANPEBDHN@Z	; ImGui::RoundScalarWithFormatT<double,double>
PUBLIC	??$SliderCalcRatioFromValueT@HM@ImGui@@YAMHHHHMM@Z ; ImGui::SliderCalcRatioFromValueT<int,float>
PUBLIC	??$SliderCalcRatioFromValueT@IM@ImGui@@YAMHIIIMM@Z ; ImGui::SliderCalcRatioFromValueT<unsigned int,float>
PUBLIC	??$SliderCalcRatioFromValueT@_JN@ImGui@@YAMH_J00MM@Z ; ImGui::SliderCalcRatioFromValueT<__int64,double>
PUBLIC	??$SliderCalcRatioFromValueT@_KN@ImGui@@YAMH_K00MM@Z ; ImGui::SliderCalcRatioFromValueT<unsigned __int64,double>
PUBLIC	??$SliderCalcRatioFromValueT@MM@ImGui@@YAMHMMMMM@Z ; ImGui::SliderCalcRatioFromValueT<float,float>
PUBLIC	??$SliderCalcRatioFromValueT@NN@ImGui@@YAMHNNNMM@Z ; ImGui::SliderCalcRatioFromValueT<double,double>
PUBLIC	??$_Allocate_for_capacity@$0A@@?$basic_string@DU?$char_traits@D@std@@V?$allocator@D@2@@std@@CAPEADAEAV?$allocator@D@1@AEA_K@Z ; std::basic_string<char,std::char_traits<char>,std::allocator<char> >::_Allocate_for_capacity<0>
PUBLIC	??$forward@V?$allocator@D@std@@@std@@YA$$QEAV?$allocator@D@0@AEAV10@@Z ; std::forward<std::allocator<char> >
PUBLIC	??$addressof@PEAD@std@@YAPEAPEADAEAPEAD@Z	; std::addressof<char *>
PUBLIC	??$forward@AEAPEAD@std@@YAAEAPEADAEAPEAD@Z	; std::forward<char * &>
PUBLIC	??$_Allocate_manually_vector_aligned@U_Default_allocate_traits@std@@@std@@YAPEAX_K@Z ; std::_Allocate_manually_vector_aligned<std::_Default_allocate_traits>
PUBLIC	??$forward@AEBQEAD@std@@YAAEBQEADAEBQEAD@Z	; std::forward<char * const &>
PUBLIC	??$_Get_size_of_n@$00@std@@YA_K_K@Z		; std::_Get_size_of_n<1>
PUBLIC	??R<lambda_f3a66ab6a0570788f31503db83886f49>@@QEBA@QEADQEBD_K212@Z ; <lambda_f3a66ab6a0570788f31503db83886f49>::operator()
PUBLIC	??$_Reallocate_grow_by@V<lambda_f3a66ab6a0570788f31503db83886f49>@@_KPEBD_K@?$basic_string@DU?$char_traits@D@std@@V?$allocator@D@2@@std@@AEAAAEAV01@_KV<lambda_f3a66ab6a0570788f31503db83886f49>@@_KPEBD2@Z ; std::basic_string<char,std::char_traits<char>,std::allocator<char> >::_Reallocate_grow_by<<lambda_f3a66ab6a0570788f31503db83886f49>,unsigned __int64,char const *,unsigned __int64>
PUBLIC	??$?0$0A@@id@locale@std@@QEAA@XZ		; std::locale::id::id<0>
PUBLIC	?_OptionsStorage@?1??__local_stdio_scanf_options@@9@4_KA ; `__local_stdio_scanf_options'::`2'::_OptionsStorage
PUBLIC	??_7exception@std@@6B@				; std::exception::`vftable'
PUBLIC	??_C@_0BC@EOODALEL@Unknown?5exception@		; `string'
PUBLIC	??_7bad_alloc@std@@6B@				; std::bad_alloc::`vftable'
PUBLIC	??_7bad_array_new_length@std@@6B@		; std::bad_array_new_length::`vftable'
PUBLIC	??_C@_0BF@KINCDENJ@bad?5array?5new?5length@	; `string'
PUBLIC	??_R0?AVexception@std@@@8			; std::exception `RTTI Type Descriptor'
PUBLIC	_CT??_R0?AVexception@std@@@8??0exception@std@@QEAA@AEBV01@@Z24
PUBLIC	_TI3?AVbad_array_new_length@std@@
PUBLIC	_CTA3?AVbad_array_new_length@std@@
PUBLIC	??_R0?AVbad_array_new_length@std@@@8		; std::bad_array_new_length `RTTI Type Descriptor'
PUBLIC	_CT??_R0?AVbad_array_new_length@std@@@8??0bad_array_new_length@std@@QEAA@AEBV01@@Z24
PUBLIC	??_R0?AVbad_alloc@std@@@8			; std::bad_alloc `RTTI Type Descriptor'
PUBLIC	_CT??_R0?AVbad_alloc@std@@@8??0bad_alloc@std@@QEAA@AEBV01@@Z24
PUBLIC	?_Fake_alloc@std@@3U_Fake_allocator@1@B		; std::_Fake_alloc
PUBLIC	??_C@_0BA@JFNIOLAK@string?5too?5long@		; `string'
PUBLIC	??_C@_02NJPGOMH@?$CFf@				; `string'
PUBLIC	??_C@_05LAPONLG@false@				; `string'
PUBLIC	??_C@_04LOAJBDKD@true@				; `string'
PUBLIC	??_C@_01NBENCBCI@?$CK@				; `string'
PUBLIC	??_C@_00CNPNBAHC@@				; `string'
PUBLIC	??_C@_02KEGNLNML@?0?5@				; `string'
PUBLIC	??_C@_08ENAFOMOP@?$CDSCROLLX@			; `string'
PUBLIC	??_C@_08FEBONNKO@?$CDSCROLLY@			; `string'
PUBLIC	??_C@_06EBHDMMP@?$CDimage@			; `string'
PUBLIC	??_C@_06KLKJBGEJ@?$CF?40f?$CF?$CF@		; `string'
PUBLIC	??_C@_0BD@JMKMPHNG@?$CD?$CD?$CL?9C?4o?4m?4b?4o_?$CF02d@ ; `string'
PUBLIC	??_C@_0P@HFPOEILF@?$CKUnknown?5item?$CK@	; `string'
PUBLIC	??_C@_04OHJIHAFH@None@				; `string'
PUBLIC	??_C@_02DPKJAMEF@?$CFd@				; `string'
PUBLIC	??_C@_02GMHACPFF@?$CFu@				; `string'
PUBLIC	??_C@_05LLAMLEHD@?$CFI64d@			; `string'
PUBLIC	??_C@_05OINFJHGD@?$CFI64u@			; `string'
PUBLIC	??_C@_03DLDNIBIK@?$CFlf@			; `string'
PUBLIC	??_C@_09JKJEEIJP@?$CF?4?$CKs?$CF?$CFd?$CFs@	; `string'
PUBLIC	??_C@_07DCHPOBDK@?$CD?$CD?$CL?9min@		; `string'
PUBLIC	??_C@_07CAPEAFFF@?$CD?$CD?$CL?9max@		; `string'
PUBLIC	??_C@_08FKIHKODH@?$CF?40f?5deg@			; `string'
PUBLIC	??_C@_01MIFGBAGJ@?$CL@				; `string'
PUBLIC	??_C@_06DNBDMDIL@?$CF?$CF?4?$CFdf@		; `string'
PUBLIC	??_C@_04JIMNDDED@?$CF08X@			; `string'
PUBLIC	??_C@_07FFNLLALM@M?30?4000@			; `string'
PUBLIC	??_C@_05BNGMMMAL@M?3000@			; `string'
PUBLIC	??_C@_03CEFFAPNG@?$CD?$CDX@			; `string'
PUBLIC	??_C@_03DNEODOJH@?$CD?$CDY@			; `string'
PUBLIC	??_C@_03BGGDGNFE@?$CD?$CDZ@			; `string'
PUBLIC	??_C@_03KDMNBDBJ@?$CD?$CDW@			; `string'
PUBLIC	??_C@_03GOOLIKIF@?$CF3d@			; `string'
PUBLIC	??_C@_05FELKPNOB@R?3?$CF3d@			; `string'
PUBLIC	??_C@_05HKBGOMJ@G?3?$CF3d@			; `string'
PUBLIC	??_C@_05FHGMPPHK@B?3?$CF3d@			; `string'
PUBLIC	??_C@_05NBPIINNE@A?3?$CF3d@			; `string'
PUBLIC	??_C@_05PGPHNMBM@H?3?$CF3d@			; `string'
PUBLIC	??_C@_05JPOGCOEE@S?3?$CF3d@			; `string'
PUBLIC	??_C@_05MPCLLPPH@V?3?$CF3d@			; `string'
PUBLIC	??_C@_05ONBKDNLK@?$CF0?43f@			; `string'
PUBLIC	??_C@_07CCOKENNH@R?3?$CF0?43f@			; `string'
PUBLIC	??_C@_07BGLBHCJI@G?3?$CF0?43f@			; `string'
PUBLIC	??_C@_07FOFBHMPM@B?3?$CF0?43f@			; `string'
PUBLIC	??_C@_07NANOHLBP@A?3?$CF0?43f@			; `string'
PUBLIC	??_C@_07MPJBGADE@H?3?$CF0?43f@			; `string'
PUBLIC	??_C@_07OOEAENEJ@S?3?$CF0?43f@			; `string'
PUBLIC	??_C@_07KGKAEDCN@V?3?$CF0?43f@			; `string'
PUBLIC	??_C@_07JKKCBBMM@context@			; `string'
PUBLIC	??_C@_0BC@CKPCOFBK@?$CD?$CF02X?$CF02X?$CF02X?$CF02X@ ; `string'
PUBLIC	??_C@_0O@MBPBDFLP@?$CD?$CF02X?$CF02X?$CF02X@	; `string'
PUBLIC	??_C@_08HDCBKACM@?$CD?$CD?$CL?9Text@		; `string'
PUBLIC	??_C@_0BB@DDMGLOLI@?$CF02X?$CF02X?$CF02X?$CF02X@ ; `string'
PUBLIC	??_C@_0N@KODLFHPJ@?$CF02X?$CF02X?$CF02X@	; `string'
PUBLIC	??_C@_0BA@DICBDPDG@?$CD?$CD?$CL?9ColorButton@	; `string'
PUBLIC	??_C@_06MAKAMBBI@picker@			; `string'
PUBLIC	??_C@_0L@OPIIJFHG@?$CD?$CD?$CL?9picker@		; `string'
PUBLIC	??_C@_06LFKNFKEK@_COL3F@			; `string'
PUBLIC	??_C@_06LAOCEMMP@_COL4F@			; `string'
PUBLIC	??_C@_03PPLPHHG@hsv@				; `string'
PUBLIC	??_C@_02CPGMCOJE@sv@				; `string'
PUBLIC	??_C@_03GKJJMKFG@hue@				; `string'
PUBLIC	??_C@_05IAEKHIAN@alpha@				; `string'
PUBLIC	??_C@_0O@EALHHNOL@?$CD?$CD?$CDCurrent?$CD?$CD?$CD@ ; `string'
PUBLIC	??_C@_0M@BANGFOMF@?$CD?$CD?$CL?9current@	; `string'
PUBLIC	??_C@_0P@ECAOJHDA@?$CD?$CD?$CDOriginal?$CD?$CD?$CD@ ; `string'
PUBLIC	??_C@_0N@CHHIOJEB@?$CD?$CD?$CL?9original@	; `string'
PUBLIC	??_C@_07JMCOMEPF@?$CD?$CD?$CL?9rgb@		; `string'
PUBLIC	??_C@_07JGALKPPH@?$CD?$CD?$CL?9hsv@		; `string'
PUBLIC	??_C@_07BACDFNLL@?$CD?$CD?$CL?9hex@		; `string'
PUBLIC	??_C@_05PDOBBJNA@Color@				; `string'
PUBLIC	??_C@_0M@KBLIMBPK@?$CD?$CD?$CL?9preview@	; `string'
PUBLIC	??_C@_0DF@FAPNKOHO@?$CD?$CF02X?$CF02X?$CF02X?6R?3?5?$CFd?0?5G?3?5?$CFd?0?5B?3?5@ ; `string'
PUBLIC	??_C@_0EC@EBPMGCGK@?$CD?$CF02X?$CF02X?$CF02X?$CF02X?6R?3?$CFd?0?5G?3?$CFd?0?5B@ ; `string'
PUBLIC	??_C@_03ICFFBAI@RGB@				; `string'
PUBLIC	??_C@_03CAADKAK@HSV@				; `string'
PUBLIC	??_C@_03IECIMIEG@HEX@				; `string'
PUBLIC	??_C@_06FDBEKFBH@0?4?4255@			; `string'
PUBLIC	??_C@_0L@MDNPBJBM@0?400?4?41?400@		; `string'
PUBLIC	??_C@_09NMCCFHEI@Copy?5as?4?4@			; `string'
PUBLIC	??_C@_04OPMHGHMB@Copy@				; `string'
PUBLIC	??_C@_0BN@GKCJMPCH@?$CI?$CF?43ff?0?5?$CF?43ff?0?5?$CF?43ff?0?5?$CF?43ff?$CJ@ ; `string'
PUBLIC	??_C@_0O@EJHNAHBL@?$CI?$CFd?0?$CFd?0?$CFd?0?$CFd?$CJ@ ; `string'
PUBLIC	??_C@_0P@GDANBODO@0x?$CF02X?$CF02X?$CF02X@	; `string'
PUBLIC	??_C@_0BD@MLNOPBDA@0x?$CF02X?$CF02X?$CF02X?$CF02X@ ; `string'
PUBLIC	??_C@_0P@OGDNCJGJ@?$CD?$CD?$CL?9selectable@	; `string'
PUBLIC	??_C@_0BA@PODNGMKL@?$CD?$CD?$CL?9dummypicker@	; `string'
PUBLIC	??_C@_09KEDLMDJL@Alpha?5Bar@			; `string'
PUBLIC	??_C@_09GHACPMKF@?$CDTreePush@			; `string'
PUBLIC	??_C@_0BE@OBCBLNMM@?$CFd?3?5?$CF8?44g?6?$CFd?3?5?$CF8?44g@ ; `string'
PUBLIC	??_C@_09OADNPGHP@?$CFd?3?5?$CF8?44g@		; `string'
PUBLIC	??_C@_06DJHOIPC@?$CFs?3?5?$CFs@			; `string'
PUBLIC	??_C@_06GBEGMGE@?$CFs?3?5?$CFd@			; `string'
PUBLIC	??_C@_07EKEPIENH@?$CF?$CFs?3?5?$CFs@		; `string'
PUBLIC	??_C@_08KELGKKHF@?$CFs?3?5?$CF?43f@		; `string'
PUBLIC	??_C@_0BC@ELGDDMPM@?$CD?$CDMain?$CL?9Menu?$CL?9Bar@ ; `string'
PUBLIC	??_C@_0M@GEGHBGML@?$CD?$CD?$CL?9menubar@	; `string'
PUBLIC	??_C@_05HNDBPIGD@?$CD?$CD?$CL?9?$DM@		; `string'
PUBLIC	??_C@_05EPAHJKOB@?$CD?$CD?$CL?9?$DO@		; `string'
PUBLIC	??_C@_05HHKHFPOM@?$CD?$CD?$CL?9v@		; `string'
PUBLIC	??_C@_04EBNJJJJI@?$CF?4?$CKs@			; `string'
PUBLIC	?id@?$num_put@DV?$ostreambuf_iterator@DU?$char_traits@D@std@@@std@@@std@@2V0locale@2@A ; std::num_put<char,std::ostreambuf_iterator<char,std::char_traits<char> > >::id
PUBLIC	?id@?$codecvt@DDU_Mbstatet@@@std@@2V0locale@2@A	; std::codecvt<char,char,_Mbstatet>::id
PUBLIC	?id@?$numpunct@D@std@@2V0locale@2@A		; std::numpunct<char>::id
PUBLIC	??_C@_0BI@CFPLBAOH@invalid?5string?5position@	; `string'
PUBLIC	?id@?$collate@D@std@@2V0locale@2@A		; std::collate<char>::id
PUBLIC	??_R4exception@std@@6B@				; std::exception::`RTTI Complete Object Locator'
PUBLIC	??_R3exception@std@@8				; std::exception::`RTTI Class Hierarchy Descriptor'
PUBLIC	??_R2exception@std@@8				; std::exception::`RTTI Base Class Array'
PUBLIC	??_R1A@?0A@EA@exception@std@@8			; std::exception::`RTTI Base Class Descriptor at (0,-1,0,64)'
PUBLIC	??_R4bad_array_new_length@std@@6B@		; std::bad_array_new_length::`RTTI Complete Object Locator'
PUBLIC	??_R3bad_array_new_length@std@@8		; std::bad_array_new_length::`RTTI Class Hierarchy Descriptor'
PUBLIC	??_R2bad_array_new_length@std@@8		; std::bad_array_new_length::`RTTI Base Class Array'
PUBLIC	??_R1A@?0A@EA@bad_array_new_length@std@@8	; std::bad_array_new_length::`RTTI Base Class Descriptor at (0,-1,0,64)'
PUBLIC	??_R1A@?0A@EA@bad_alloc@std@@8			; std::bad_alloc::`RTTI Base Class Descriptor at (0,-1,0,64)'
PUBLIC	??_R3bad_alloc@std@@8				; std::bad_alloc::`RTTI Class Hierarchy Descriptor'
PUBLIC	??_R2bad_alloc@std@@8				; std::bad_alloc::`RTTI Base Class Array'
PUBLIC	??_R4bad_alloc@std@@6B@				; std::bad_alloc::`RTTI Complete Object Locator'
PUBLIC	__real@00000000
PUBLIC	__real@0000000000000000
PUBLIC	__real@00800000
PUBLIC	__real@358637bd
PUBLIC	__real@3727c5ac
PUBLIC	__real@38d1b717
PUBLIC	__real@3b808081
PUBLIC	__real@3c23d70a
PUBLIC	__real@3cdd2f1b
PUBLIC	__real@3da3d70a
PUBLIC	__real@3dcccccd
PUBLIC	__real@3e09374c
PUBLIC	__real@3e19999a
PUBLIC	__real@3e3851ec
PUBLIC	__real@3e4ccccd
PUBLIC	__real@3e800000
PUBLIC	__real@3e99999a
PUBLIC	__real@3ebcb924
PUBLIC	__real@3ec7ae14
PUBLIC	__real@3ecccccd
PUBLIC	__real@3ececbfb
PUBLIC	__real@3ef0f0f1
PUBLIC	__real@3effbe77
PUBLIC	__real@3f000000
PUBLIC	__real@3f0ccccd
PUBLIC	__real@3f128f5c
PUBLIC	__real@3f266666
PUBLIC	__real@3f333333
PUBLIC	__real@3f350481
PUBLIC	__real@3f47ae14
PUBLIC	__real@3f48c8c9
PUBLIC	__real@3f4a3d71
PUBLIC	__real@3f4ccccd
PUBLIC	__real@3f52d2d3
PUBLIC	__real@3f5adaba
PUBLIC	__real@3f5db22d
PUBLIC	__real@3f5db3d0
PUBLIC	__real@3f7fbe77
PUBLIC	__real@3f7ff972
PUBLIC	__real@3f800000
PUBLIC	__real@3f99999a
PUBLIC	__real@3fb33333
PUBLIC	__real@3fc00000
PUBLIC	__real@3fd9999a
PUBLIC	__real@3fe0000000000000
PUBLIC	__real@3ff0000000000000
PUBLIC	__real@3ffcccccc0000000
PUBLIC	__real@40000000
PUBLIC	__real@4004000000000000
PUBLIC	__real@400e666666666666
PUBLIC	__real@40200000
PUBLIC	__real@4020000000000000
PUBLIC	__real@4024000000000000
PUBLIC	__real@4024800000000000
PUBLIC	__real@403f5c29
PUBLIC	__real@40400000
PUBLIC	__real@40490fdb
PUBLIC	__real@4059000000000000
PUBLIC	__real@40800000
PUBLIC	__real@40a00000
PUBLIC	__real@40b33333
PUBLIC	__real@40c00000
PUBLIC	__real@40c90fdb
PUBLIC	__real@40e00000
PUBLIC	__real@40eccccd
PUBLIC	__real@41000000
PUBLIC	__real@41100000
PUBLIC	__real@41200000
PUBLIC	__real@41400000
PUBLIC	__real@41800000
PUBLIC	__real@41a00000
PUBLIC	__real@41f00000
PUBLIC	__real@428c0000
PUBLIC	__real@42c80000
PUBLIC	__real@437f0000
PUBLIC	__real@43b40000
PUBLIC	__real@43e0000000000000
PUBLIC	__real@47efffffe0000000
PUBLIC	__real@5f000000
PUBLIC	__real@7f7fffff
PUBLIC	__real@7fefffffffffffff
PUBLIC	__real@be99999a
PUBLIC	__real@bf000000
PUBLIC	__real@bf400000
PUBLIC	__real@bf5db3d0
PUBLIC	__real@bf800000
PUBLIC	__real@c059000000000000
PUBLIC	__real@c1100000
PUBLIC	__real@c1400000
PUBLIC	__real@c2c80000
PUBLIC	__real@ff7fffff
PUBLIC	__real@ffefffffffffffff
PUBLIC	__xmm@80000000000000008000000000000000
PUBLIC	__xmm@80000000800000008000000080000000
EXTRN	??_M@YAXPEAX_K1P6AX0@Z@Z:PROC			; `eh vector destructor iterator'
EXTRN	??2@YAPEAX_K@Z:PROC				; operator new
EXTRN	??3@YAXPEAX_K@Z:PROC				; operator delete
EXTRN	atexit:PROC
EXTRN	_Init_thread_header:PROC
EXTRN	_Init_thread_abort:PROC
EXTRN	_Init_thread_footer:PROC
EXTRN	_invalid_parameter_noinfo_noreturn:PROC
EXTRN	__stdio_common_vsscanf:PROC
EXTRN	memchr:PROC
EXTRN	memcmp:PROC
EXTRN	memcpy:PROC
EXTRN	memmove:PROC
EXTRN	memset:PROC
EXTRN	strcmp:PROC
EXTRN	strlen:PROC
EXTRN	fabs:PROC
EXTRN	pow:PROC
EXTRN	atof:PROC
EXTRN	atan2f:PROC
EXTRN	cosf:PROC
EXTRN	fmodf:PROC
EXTRN	powf:PROC
EXTRN	sinf:PROC
EXTRN	qsort:PROC
EXTRN	?_Xlength_error@std@@YAXPEBD@Z:PROC		; std::_Xlength_error
EXTRN	?_Xout_of_range@std@@YAXPEBD@Z:PROC		; std::_Xout_of_range
EXTRN	__std_exception_copy:PROC
EXTRN	__std_exception_destroy:PROC
EXTRN	??_Eexception@std@@UEAAPEAXI@Z:PROC		; std::exception::`vector deleting destructor'
EXTRN	??_Ebad_alloc@std@@UEAAPEAXI@Z:PROC		; std::bad_alloc::`vector deleting destructor'
EXTRN	??_Ebad_array_new_length@std@@UEAAPEAXI@Z:PROC	; std::bad_array_new_length::`vector deleting destructor'
EXTRN	isprint:PROC
EXTRN	__imp_IsBadReadPtr:PROC
EXTRN	__imp_WSAStartup:PROC
EXTRN	__imp_WSACleanup:PROC
EXTRN	OPENSSL_init_ssl:PROC
EXTRN	?GetStyle@ImGui@@YAAEAUImGuiStyle@@XZ:PROC	; ImGui::GetStyle
EXTRN	?Begin@ImGui@@YA_NPEBDPEA_NH@Z:PROC		; ImGui::Begin
EXTRN	?End@ImGui@@YAXXZ:PROC				; ImGui::End
EXTRN	?GetWindowDrawList@ImGui@@YAPEAUImDrawList@@XZ:PROC ; ImGui::GetWindowDrawList
EXTRN	?GetContentRegionMax@ImGui@@YA?AUImVec2@@XZ:PROC ; ImGui::GetContentRegionMax
EXTRN	?GetContentRegionAvail@ImGui@@YA?AUImVec2@@XZ:PROC ; ImGui::GetContentRegionAvail
EXTRN	?GetWindowContentRegionMax@ImGui@@YA?AUImVec2@@XZ:PROC ; ImGui::GetWindowContentRegionMax
EXTRN	?SetNextWindowPos@ImGui@@YAXAEBUImVec2@@H0@Z:PROC ; ImGui::SetNextWindowPos
EXTRN	?SetNextWindowSize@ImGui@@YAXAEBUImVec2@@H@Z:PROC ; ImGui::SetNextWindowSize
EXTRN	?SetNextWindowSizeConstraints@ImGui@@YAXAEBUImVec2@@0P6AXPEAUImGuiSizeCallbackData@@@ZPEAX@Z:PROC ; ImGui::SetNextWindowSizeConstraints
EXTRN	?GetScrollMaxY@ImGui@@YAMXZ:PROC		; ImGui::GetScrollMaxY
EXTRN	?PushFont@ImGui@@YAXPEAUImFont@@@Z:PROC		; ImGui::PushFont
EXTRN	?PopFont@ImGui@@YAXXZ:PROC			; ImGui::PopFont
EXTRN	?PushStyleColor@ImGui@@YAXHAEBUImVec4@@@Z:PROC	; ImGui::PushStyleColor
EXTRN	?PopStyleColor@ImGui@@YAXH@Z:PROC		; ImGui::PopStyleColor
EXTRN	?PushStyleVar@ImGui@@YAXHM@Z:PROC		; ImGui::PushStyleVar
EXTRN	?PushStyleVar@ImGui@@YAXHAEBUImVec2@@@Z:PROC	; ImGui::PushStyleVar
EXTRN	?PopStyleVar@ImGui@@YAXH@Z:PROC			; ImGui::PopStyleVar
EXTRN	?GetFontTexUvWhitePixel@ImGui@@YA?AUImVec2@@XZ:PROC ; ImGui::GetFontTexUvWhitePixel
EXTRN	?GetColorU32@ImGui@@YAIHM@Z:PROC		; ImGui::GetColorU32
EXTRN	?GetColorU32@ImGui@@YAIAEBUImVec4@@@Z:PROC	; ImGui::GetColorU32
EXTRN	?GetColorU32@ImGui@@YAIQEAM@Z:PROC		; ImGui::GetColorU32
EXTRN	?GetColorU32@ImGui@@YAII@Z:PROC			; ImGui::GetColorU32
EXTRN	?PushItemWidth@ImGui@@YAXM@Z:PROC		; ImGui::PushItemWidth
EXTRN	?PopItemWidth@ImGui@@YAXXZ:PROC			; ImGui::PopItemWidth
EXTRN	?CalcItemWidth@ImGui@@YAMXZ:PROC		; ImGui::CalcItemWidth
EXTRN	?PushTextWrapPos@ImGui@@YAXM@Z:PROC		; ImGui::PushTextWrapPos
EXTRN	?PopTextWrapPos@ImGui@@YAXXZ:PROC		; ImGui::PopTextWrapPos
EXTRN	?SameLine@ImGui@@YAXMMM@Z:PROC			; ImGui::SameLine
EXTRN	?Indent@ImGui@@YAXM@Z:PROC			; ImGui::Indent
EXTRN	?Unindent@ImGui@@YAXM@Z:PROC			; ImGui::Unindent
EXTRN	?BeginGroup@ImGui@@YAXXZ:PROC			; ImGui::BeginGroup
EXTRN	?EndGroup@ImGui@@YAXXZ:PROC			; ImGui::EndGroup
EXTRN	?GetCursorScreenPos@ImGui@@YA?AUImVec2@@XZ:PROC	; ImGui::GetCursorScreenPos
EXTRN	?SetCursorScreenPos@ImGui@@YAXAEBUImVec2@@@Z:PROC ; ImGui::SetCursorScreenPos
EXTRN	?GetTextLineHeight@ImGui@@YAMXZ:PROC		; ImGui::GetTextLineHeight
EXTRN	?GetTextLineHeightWithSpacing@ImGui@@YAMXZ:PROC	; ImGui::GetTextLineHeightWithSpacing
EXTRN	?GetFrameHeight@ImGui@@YAMXZ:PROC		; ImGui::GetFrameHeight
EXTRN	?PushID@ImGui@@YAXPEBD@Z:PROC			; ImGui::PushID
EXTRN	?PushID@ImGui@@YAXPEBX@Z:PROC			; ImGui::PushID
EXTRN	?PushID@ImGui@@YAXH@Z:PROC			; ImGui::PushID
EXTRN	?PopID@ImGui@@YAXXZ:PROC			; ImGui::PopID
EXTRN	?GetID@ImGui@@YAIPEBD@Z:PROC			; ImGui::GetID
EXTRN	?EndTooltip@ImGui@@YAXXZ:PROC			; ImGui::EndTooltip
EXTRN	?SetTooltip@ImGui@@YAXPEBDZZ:PROC		; ImGui::SetTooltip
EXTRN	?OpenPopup@ImGui@@YAXPEBD@Z:PROC		; ImGui::OpenPopup
EXTRN	?BeginPopup@ImGui@@YA_NPEBDH@Z:PROC		; ImGui::BeginPopup
EXTRN	?EndPopup@ImGui@@YAXXZ:PROC			; ImGui::EndPopup
EXTRN	?OpenPopupOnItemClick@ImGui@@YA_NPEBDH@Z:PROC	; ImGui::OpenPopupOnItemClick
EXTRN	?CloseCurrentPopup@ImGui@@YAXXZ:PROC		; ImGui::CloseCurrentPopup
EXTRN	?BeginDragDropSource@ImGui@@YA_NH@Z:PROC	; ImGui::BeginDragDropSource
EXTRN	?SetDragDropPayload@ImGui@@YA_NPEBDPEBX_KH@Z:PROC ; ImGui::SetDragDropPayload
EXTRN	?EndDragDropSource@ImGui@@YAXXZ:PROC		; ImGui::EndDragDropSource
EXTRN	?BeginDragDropTarget@ImGui@@YA_NXZ:PROC		; ImGui::BeginDragDropTarget
EXTRN	?AcceptDragDropPayload@ImGui@@YAPEBUImGuiPayload@@PEBDH@Z:PROC ; ImGui::AcceptDragDropPayload
EXTRN	?EndDragDropTarget@ImGui@@YAXXZ:PROC		; ImGui::EndDragDropTarget
EXTRN	?PushClipRect@ImGui@@YAXAEBUImVec2@@0_N@Z:PROC	; ImGui::PushClipRect
EXTRN	?PopClipRect@ImGui@@YAXXZ:PROC			; ImGui::PopClipRect
EXTRN	?SetItemDefaultFocus@ImGui@@YAXXZ:PROC		; ImGui::SetItemDefaultFocus
EXTRN	?IsItemHovered@ImGui@@YA_NH@Z:PROC		; ImGui::IsItemHovered
EXTRN	?IsItemActive@ImGui@@YA_NXZ:PROC		; ImGui::IsItemActive
EXTRN	?SetItemAllowOverlap@ImGui@@YAXXZ:PROC		; ImGui::SetItemAllowOverlap
EXTRN	?IsRectVisible@ImGui@@YA_NAEBUImVec2@@0@Z:PROC	; ImGui::IsRectVisible
EXTRN	?CalcTextSize@ImGui@@YA?AUImVec2@@PEBD0_NM@Z:PROC ; ImGui::CalcTextSize
EXTRN	?BeginChildFrame@ImGui@@YA_NIAEBUImVec2@@H@Z:PROC ; ImGui::BeginChildFrame
EXTRN	?EndChildFrame@ImGui@@YAXXZ:PROC		; ImGui::EndChildFrame
EXTRN	?ColorConvertFloat4ToU32@ImGui@@YAIAEBUImVec4@@@Z:PROC ; ImGui::ColorConvertFloat4ToU32
EXTRN	?ColorConvertRGBtoHSV@ImGui@@YAXMMMAEAM00@Z:PROC ; ImGui::ColorConvertRGBtoHSV
EXTRN	?ColorConvertHSVtoRGB@ImGui@@YAXMMMAEAM00@Z:PROC ; ImGui::ColorConvertHSVtoRGB
EXTRN	?IsKeyPressed@ImGui@@YA_NH_N@Z:PROC		; ImGui::IsKeyPressed
EXTRN	?IsMouseClicked@ImGui@@YA_NH_N@Z:PROC		; ImGui::IsMouseClicked
EXTRN	?IsMouseReleased@ImGui@@YA_NH@Z:PROC		; ImGui::IsMouseReleased
EXTRN	?IsMouseDragging@ImGui@@YA_NHM@Z:PROC		; ImGui::IsMouseDragging
EXTRN	?IsMouseHoveringRect@ImGui@@YA_NAEBUImVec2@@0_N@Z:PROC ; ImGui::IsMouseHoveringRect
EXTRN	?IsMousePosValid@ImGui@@YA_NPEBUImVec2@@@Z:PROC	; ImGui::IsMousePosValid
EXTRN	?SetMouseCursor@ImGui@@YAXH@Z:PROC		; ImGui::SetMouseCursor
EXTRN	?GetClipboardText@ImGui@@YAPEBDXZ:PROC		; ImGui::GetClipboardText
EXTRN	?SetClipboardText@ImGui@@YAXPEBD@Z:PROC		; ImGui::SetClipboardText
EXTRN	?MemAlloc@ImGui@@YAPEAX_K@Z:PROC		; ImGui::MemAlloc
EXTRN	?MemFree@ImGui@@YAXPEAX@Z:PROC			; ImGui::MemFree
EXTRN	??0ImGuiStyle@@QEAA@XZ:PROC			; ImGuiStyle::ImGuiStyle
EXTRN	?append@ImGuiTextBuffer@@QEAAXPEBD0@Z:PROC	; ImGuiTextBuffer::append
EXTRN	?GetInt@ImGuiStorage@@QEBAHIH@Z:PROC		; ImGuiStorage::GetInt
EXTRN	?SetInt@ImGuiStorage@@QEAAXIH@Z:PROC		; ImGuiStorage::SetInt
EXTRN	?GetIntRef@ImGuiStorage@@QEAAPEAHIH@Z:PROC	; ImGuiStorage::GetIntRef
EXTRN	?Step@ImGuiListClipper@@QEAA_NXZ:PROC		; ImGuiListClipper::Step
EXTRN	?Begin@ImGuiListClipper@@QEAAXHM@Z:PROC		; ImGuiListClipper::Begin
EXTRN	?AddLine@ImDrawList@@QEAAXAEBUImVec2@@0IM@Z:PROC ; ImDrawList::AddLine
EXTRN	?AddRect@ImDrawList@@QEAAXAEBUImVec2@@0IMHM@Z:PROC ; ImDrawList::AddRect
EXTRN	?AddRectFilled@ImDrawList@@QEAAXAEBUImVec2@@0IMH@Z:PROC ; ImDrawList::AddRectFilled
EXTRN	?AddRectFilledMultiColor@ImDrawList@@QEAAXAEBUImVec2@@0IIII@Z:PROC ; ImDrawList::AddRectFilledMultiColor
EXTRN	?AddTriangle@ImDrawList@@QEAAXAEBUImVec2@@00IM@Z:PROC ; ImDrawList::AddTriangle
EXTRN	?AddCircle@ImDrawList@@QEAAXAEBUImVec2@@MIHM@Z:PROC ; ImDrawList::AddCircle
EXTRN	?AddCircleFilled@ImDrawList@@QEAAXAEBUImVec2@@MIH@Z:PROC ; ImDrawList::AddCircleFilled
EXTRN	?AddText@ImDrawList@@QEAAXPEBUImFont@@MAEBUImVec2@@IPEBD2MPEBUImVec4@@@Z:PROC ; ImDrawList::AddText
EXTRN	?AddImage@ImDrawList@@QEAAXPEAXAEBUImVec2@@111I@Z:PROC ; ImDrawList::AddImage
EXTRN	?AddPolyline@ImDrawList@@QEAAXPEBUImVec2@@HI_NM@Z:PROC ; ImDrawList::AddPolyline
EXTRN	?AddConvexPolyFilled@ImDrawList@@QEAAXPEBUImVec2@@HI@Z:PROC ; ImDrawList::AddConvexPolyFilled
EXTRN	?PathArcTo@ImDrawList@@QEAAXAEBUImVec2@@MMMH@Z:PROC ; ImDrawList::PathArcTo
EXTRN	?PathArcToFast@ImDrawList@@QEAAXAEBUImVec2@@MHH@Z:PROC ; ImDrawList::PathArcToFast
EXTRN	?PrimReserve@ImDrawList@@QEAAXHH@Z:PROC		; ImDrawList::PrimReserve
EXTRN	?FindGlyph@ImFont@@QEBAPEBUImFontGlyph@@G@Z:PROC ; ImFont::FindGlyph
EXTRN	?CalcTextSizeA@ImFont@@QEBA?AUImVec2@@MMMPEBD0PEAPEBD@Z:PROC ; ImFont::CalcTextSizeA
EXTRN	?ImTextStrToUtf8@@YAHPEADHPEBG1@Z:PROC		; ImTextStrToUtf8
EXTRN	?ImTextCharFromUtf8@@YAHPEAIPEBD1@Z:PROC	; ImTextCharFromUtf8
EXTRN	?ImTextStrFromUtf8@@YAHPEAGHPEBD1PEAPEBD@Z:PROC	; ImTextStrFromUtf8
EXTRN	?ImTextCountCharsFromUtf8@@YAHPEBD0@Z:PROC	; ImTextCountCharsFromUtf8
EXTRN	?ImTextCountUtf8BytesFromChar@@YAHPEBD0@Z:PROC	; ImTextCountUtf8BytesFromChar
EXTRN	?ImTextCountUtf8BytesFromStr@@YAHPEBG0@Z:PROC	; ImTextCountUtf8BytesFromStr
EXTRN	?ImHashStr@@YAIPEBD_KI@Z:PROC			; ImHashStr
EXTRN	?ImTriangleContainsPoint@@YA_NAEBUImVec2@@000@Z:PROC ; ImTriangleContainsPoint
EXTRN	?ImTriangleClosestPoint@@YA?AUImVec2@@AEBU1@000@Z:PROC ; ImTriangleClosestPoint
EXTRN	?ImTriangleBarycentricCoords@@YAXAEBUImVec2@@000AEAM11@Z:PROC ; ImTriangleBarycentricCoords
EXTRN	?ImStrncpy@@YAXPEADPEBD_K@Z:PROC		; ImStrncpy
EXTRN	?ImStrbolW@@YAPEBGPEBG0@Z:PROC			; ImStrbolW
EXTRN	?ImStrTrimBlanks@@YAXPEAD@Z:PROC		; ImStrTrimBlanks
EXTRN	?ImFormatString@@YAHPEAD_KPEBDZZ:PROC		; ImFormatString
EXTRN	?ImFormatStringV@@YAHPEAD_KPEBD0@Z:PROC		; ImFormatStringV
EXTRN	?GetID@ImGuiWindow@@QEAAIPEBD0@Z:PROC		; ImGuiWindow::GetID
EXTRN	?GetID@ImGuiWindow@@QEAAIPEBX@Z:PROC		; ImGuiWindow::GetID
EXTRN	?GetIDNoKeepAlive@ImGuiWindow@@QEAAIPEBD0@Z:PROC ; ImGuiWindow::GetIDNoKeepAlive
EXTRN	?FindWindowByName@ImGui@@YAPEAUImGuiWindow@@PEBD@Z:PROC ; ImGui::FindWindowByName
EXTRN	?FocusWindow@ImGui@@YAXPEAUImGuiWindow@@@Z:PROC	; ImGui::FocusWindow
EXTRN	?FocusPreviousWindowIgnoringOne@ImGui@@YAXPEAUImGuiWindow@@@Z:PROC ; ImGui::FocusPreviousWindowIgnoringOne
EXTRN	?CalcWindowExpectedSize@ImGui@@YA?AUImVec2@@PEAUImGuiWindow@@@Z:PROC ; ImGui::CalcWindowExpectedSize
EXTRN	?SetWindowScrollY@ImGui@@YAXPEAUImGuiWindow@@M@Z:PROC ; ImGui::SetWindowScrollY
EXTRN	?GetWindowAllowedExtentRect@ImGui@@YA?AUImRect@@PEAUImGuiWindow@@@Z:PROC ; ImGui::GetWindowAllowedExtentRect
EXTRN	?StartMouseMovingWindow@ImGui@@YAXPEAUImGuiWindow@@@Z:PROC ; ImGui::StartMouseMovingWindow
EXTRN	?SetActiveID@ImGui@@YAXIPEAUImGuiWindow@@@Z:PROC ; ImGui::SetActiveID
EXTRN	?SetFocusID@ImGui@@YAXIPEAUImGuiWindow@@@Z:PROC	; ImGui::SetFocusID
EXTRN	?ClearActiveID@ImGui@@YAXXZ:PROC		; ImGui::ClearActiveID
EXTRN	?SetHoveredID@ImGui@@YAXI@Z:PROC		; ImGui::SetHoveredID
EXTRN	?KeepAliveID@ImGui@@YAXI@Z:PROC			; ImGui::KeepAliveID
EXTRN	?MarkItemEdited@ImGui@@YAXI@Z:PROC		; ImGui::MarkItemEdited
EXTRN	?ItemSize@ImGui@@YAXAEBUImVec2@@M@Z:PROC	; ImGui::ItemSize
EXTRN	?ItemSize@ImGui@@YAXAEBUImRect@@M@Z:PROC	; ImGui::ItemSize
EXTRN	?ItemAdd@ImGui@@YA_NAEBUImRect@@IPEBU2@@Z:PROC	; ImGui::ItemAdd
EXTRN	?ItemHoverable@ImGui@@YA_NAEBUImRect@@I@Z:PROC	; ImGui::ItemHoverable
EXTRN	?IsClippedEx@ImGui@@YA_NAEBUImRect@@I_N@Z:PROC	; ImGui::IsClippedEx
EXTRN	?FocusableItemRegister@ImGui@@YA_NPEAUImGuiWindow@@I_N@Z:PROC ; ImGui::FocusableItemRegister
EXTRN	?FocusableItemUnregister@ImGui@@YAXPEAUImGuiWindow@@@Z:PROC ; ImGui::FocusableItemUnregister
EXTRN	?CalcItemSize@ImGui@@YA?AUImVec2@@U2@MM@Z:PROC	; ImGui::CalcItemSize
EXTRN	?CalcWrapWidthForPos@ImGui@@YAMAEBUImVec2@@M@Z:PROC ; ImGui::CalcWrapWidthForPos
EXTRN	?PushMultiItemsWidths@ImGui@@YAXHM@Z:PROC	; ImGui::PushMultiItemsWidths
EXTRN	?PushItemFlag@ImGui@@YAXH_N@Z:PROC		; ImGui::PushItemFlag
EXTRN	?PopItemFlag@ImGui@@YAXXZ:PROC			; ImGui::PopItemFlag
EXTRN	?OpenPopupEx@ImGui@@YAXI@Z:PROC			; ImGui::OpenPopupEx
EXTRN	?ClosePopupToLevel@ImGui@@YAXH_N@Z:PROC		; ImGui::ClosePopupToLevel
EXTRN	?IsPopupOpen@ImGui@@YA_NI@Z:PROC		; ImGui::IsPopupOpen
EXTRN	?BeginPopupEx@ImGui@@YA_NIH@Z:PROC		; ImGui::BeginPopupEx
EXTRN	?BeginTooltipEx@ImGui@@YAXH_N@Z:PROC		; ImGui::BeginTooltipEx
EXTRN	?FindBestWindowPosForPopupEx@ImGui@@YA?AUImVec2@@AEBU2@0PEAHAEBUImRect@@2W4ImGuiPopupPositionPolicy@@@Z:PROC ; ImGui::FindBestWindowPosForPopupEx
EXTRN	?NavMoveRequestButNoResultYet@ImGui@@YA_NXZ:PROC ; ImGui::NavMoveRequestButNoResultYet
EXTRN	?NavMoveRequestCancel@ImGui@@YAXXZ:PROC		; ImGui::NavMoveRequestCancel
EXTRN	?GetNavInputAmount@ImGui@@YAMHW4ImGuiInputReadMode@@@Z:PROC ; ImGui::GetNavInputAmount
EXTRN	?GetNavInputAmount2d@ImGui@@YA?AUImVec2@@HW4ImGuiInputReadMode@@MM@Z:PROC ; ImGui::GetNavInputAmount2d
EXTRN	?CalcTypematicPressedRepeatAmount@ImGui@@YAHMMMM@Z:PROC ; ImGui::CalcTypematicPressedRepeatAmount
EXTRN	?SetNavID@ImGui@@YAXIH@Z:PROC			; ImGui::SetNavID
EXTRN	?SetNavIDWithRectRel@ImGui@@YAXIHAEBUImRect@@@Z:PROC ; ImGui::SetNavIDWithRectRel
EXTRN	?PushColumnClipRect@ImGui@@YAXH@Z:PROC		; ImGui::PushColumnClipRect
EXTRN	?RenderText@ImGui@@YAXUImVec2@@PEBD1_N@Z:PROC	; ImGui::RenderText
EXTRN	?RenderTextWrapped@ImGui@@YAXUImVec2@@PEBD1M@Z:PROC ; ImGui::RenderTextWrapped
EXTRN	?RenderTextClipped@ImGui@@YAXAEBUImVec2@@0PEBD1PEBU2@0PEBUImRect@@@Z:PROC ; ImGui::RenderTextClipped
EXTRN	?RenderTextClippedEx@ImGui@@YAXPEAUImDrawList@@AEBUImVec2@@1PEBD2PEBU3@1PEBUImRect@@@Z:PROC ; ImGui::RenderTextClippedEx
EXTRN	?RenderFrame@ImGui@@YAXUImVec2@@0I_NM@Z:PROC	; ImGui::RenderFrame
EXTRN	?RenderFrameBorder@ImGui@@YAXUImVec2@@0M@Z:PROC	; ImGui::RenderFrameBorder
EXTRN	?RenderArrow@ImGui@@YAXUImVec2@@HM@Z:PROC	; ImGui::RenderArrow
EXTRN	?RenderBullet@ImGui@@YAXUImVec2@@@Z:PROC	; ImGui::RenderBullet
EXTRN	?RenderCheckMark@ImGui@@YAXUImVec2@@IM@Z:PROC	; ImGui::RenderCheckMark
EXTRN	?RenderNavHighlight@ImGui@@YAXAEBUImRect@@IH@Z:PROC ; ImGui::RenderNavHighlight
EXTRN	?FindRenderedTextEnd@ImGui@@YAPEBDPEBD0@Z:PROC	; ImGui::FindRenderedTextEnd
EXTRN	?RenderArrowPointingAt@ImGui@@YAXPEAUImDrawList@@UImVec2@@1HI@Z:PROC ; ImGui::RenderArrowPointingAt
EXTRN	?RenderRectFilledRangeH@ImGui@@YAXPEAUImDrawList@@AEBUImRect@@IMMM@Z:PROC ; ImGui::RenderRectFilledRangeH
EXTRN	?RenderPixelEllipsis@ImGui@@YAXPEAUImDrawList@@UImVec2@@HI@Z:PROC ; ImGui::RenderPixelEllipsis
EXTRN	?ShadeVertsLinearColorGradientKeepAlpha@ImGui@@YAXPEAUImDrawList@@HHUImVec2@@1II@Z:PROC ; ImGui::ShadeVertsLinearColorGradientKeepAlpha
EXTRN	_CxxThrowException:PROC
EXTRN	__CxxFrameHandler4:PROC
EXTRN	__GSHandlerCheck:PROC
EXTRN	__GSHandlerCheck_EH4:PROC
EXTRN	__security_check_cookie:PROC
EXTRN	_Init_thread_epoch:DWORD
EXTRN	??_7type_info@@6B@:BYTE				; type_info::`vftable'
EXTRN	?GImGui@@3PEAUImGuiContext@@EA:QWORD		; GImGui
EXTRN	__ImageBase:BYTE
EXTRN	__security_cookie:QWORD
EXTRN	_fltused:DWORD
EXTRN	_tls_index:DWORD
;	COMDAT ?_OptionsStorage@?1??__local_stdio_scanf_options@@9@4_KA
_BSS	SEGMENT
?_OptionsStorage@?1??__local_stdio_scanf_options@@9@4_KA DQ 01H DUP (?) ; `__local_stdio_scanf_options'::`2'::_OptionsStorage
_BSS	ENDS
_BSS	SEGMENT
?wsinit_@detail@httplib@@3VWSInit@12@A DB 01H DUP (?)	; httplib::detail::wsinit_
	ALIGN	4

?sslinit_@detail@httplib@@3VSSLInit@12@A DB 01H DUP (?)	; httplib::detail::sslinit_
	ALIGN	8

?XYZMask@Math@Core@IronMan@@3T__m128@@B DB 010H DUP (?)	; IronMan::Core::Math::XYZMask
?QINV_SIGN_MASK@Math@Core@IronMan@@3T__m128@@B DB 010H DUP (?) ; IronMan::Core::Math::QINV_SIGN_MASK
?GDataTypeInfo@@3QBUImGuiDataTypeInfo@@B DB 01b0H DUP (?) ; GDataTypeInfo
_BSS	ENDS
;	COMDAT ?ids@?BD@??ColorEdit4@ImGui@@YA_NPEBDQEAMH@Z@4PAV?$basic_string@DU?$char_traits@D@std@@V?$allocator@D@2@@std@@A
_BSS	SEGMENT
?ids@?BD@??ColorEdit4@ImGui@@YA_NPEBDQEAMH@Z@4PAV?$basic_string@DU?$char_traits@D@std@@V?$allocator@D@2@@std@@A DB 080H DUP (?) ; `ImGui::ColorEdit4'::`19'::ids
_BSS	ENDS
;	COMDAT ?$TSS0@?BD@??ColorEdit4@ImGui@@YA_NPEBDQEAMH@Z@4HA
_BSS	SEGMENT
?$TSS0@?BD@??ColorEdit4@ImGui@@YA_NPEBDQEAMH@Z@4HA DD 01H DUP (?) ; `ImGui::ColorEdit4'::`19'::$TSS0
_BSS	ENDS
;	COMDAT ?fmt_table_int@?BD@??ColorEdit4@ImGui@@YA_NPEBDQEAMH@Z@4PAY03V?$basic_string@DU?$char_traits@D@std@@V?$allocator@D@2@@std@@A
_BSS	SEGMENT
?fmt_table_int@?BD@??ColorEdit4@ImGui@@YA_NPEBDQEAMH@Z@4PAY03V?$basic_string@DU?$char_traits@D@std@@V?$allocator@D@2@@std@@A DB 0180H DUP (?) ; `ImGui::ColorEdit4'::`19'::fmt_table_int
_BSS	ENDS
;	COMDAT ?$TSS1@?BD@??ColorEdit4@ImGui@@YA_NPEBDQEAMH@Z@4HA
_BSS	SEGMENT
?$TSS1@?BD@??ColorEdit4@ImGui@@YA_NPEBDQEAMH@Z@4HA DD 01H DUP (?) ; `ImGui::ColorEdit4'::`19'::$TSS1
_BSS	ENDS
;	COMDAT ?fmt_table_float@?BD@??ColorEdit4@ImGui@@YA_NPEBDQEAMH@Z@4PAY03V?$basic_string@DU?$char_traits@D@std@@V?$allocator@D@2@@std@@A
_BSS	SEGMENT
?fmt_table_float@?BD@??ColorEdit4@ImGui@@YA_NPEBDQEAMH@Z@4PAY03V?$basic_string@DU?$char_traits@D@std@@V?$allocator@D@2@@std@@A DB 0180H DUP (?) ; `ImGui::ColorEdit4'::`19'::fmt_table_float
_BSS	ENDS
;	COMDAT ?$TSS2@?BD@??ColorEdit4@ImGui@@YA_NPEBDQEAMH@Z@4HA
_BSS	SEGMENT
?$TSS2@?BD@??ColorEdit4@ImGui@@YA_NPEBDQEAMH@Z@4HA DD 01H DUP (?) ; `ImGui::ColorEdit4'::`19'::$TSS2
_BSS	ENDS
;	COMDAT ?id@?$num_put@DV?$ostreambuf_iterator@DU?$char_traits@D@std@@@std@@@std@@2V0locale@2@A
_BSS	SEGMENT
?id@?$num_put@DV?$ostreambuf_iterator@DU?$char_traits@D@std@@@std@@@std@@2V0locale@2@A DQ 01H DUP (?) ; std::num_put<char,std::ostreambuf_iterator<char,std::char_traits<char> > >::id
_BSS	ENDS
;	COMDAT ?id@?$codecvt@DDU_Mbstatet@@@std@@2V0locale@2@A
_BSS	SEGMENT
?id@?$codecvt@DDU_Mbstatet@@@std@@2V0locale@2@A DQ 01H DUP (?) ; std::codecvt<char,char,_Mbstatet>::id
_BSS	ENDS
;	COMDAT ?id@?$numpunct@D@std@@2V0locale@2@A
_BSS	SEGMENT
?id@?$numpunct@D@std@@2V0locale@2@A DQ 01H DUP (?)	; std::numpunct<char>::id
_BSS	ENDS
;	COMDAT ?id@?$collate@D@std@@2V0locale@2@A
_BSS	SEGMENT
?id@?$collate@D@std@@2V0locale@2@A DQ 01H DUP (?)	; std::collate<char>::id
_BSS	ENDS
;	COMDAT pdata
pdata	SEGMENT
$pdata$??_H@YAXPEAX_K1P6APEAX0@Z@Z DD imagerel $LN5
	DD	imagerel $LN5+102
	DD	imagerel $unwind$??_H@YAXPEAX_K1P6APEAX0@Z@Z
pdata	ENDS
;	COMDAT pdata
pdata	SEGMENT
$pdata$_vsscanf_l DD imagerel $LN3
	DD	imagerel $LN3+79
	DD	imagerel $unwind$_vsscanf_l
pdata	ENDS
;	COMDAT pdata
pdata	SEGMENT
$pdata$sscanf DD imagerel $LN3
	DD	imagerel $LN3+79
	DD	imagerel $unwind$sscanf
pdata	ENDS
;	COMDAT pdata
pdata	SEGMENT
$pdata$fabsf DD	imagerel $LN3
	DD	imagerel $LN3+30
	DD	imagerel $unwind$fabsf
pdata	ENDS
;	COMDAT pdata
pdata	SEGMENT
$pdata$?abs@@YAMM@Z DD imagerel $LN3
	DD	imagerel $LN3+27
	DD	imagerel $unwind$?abs@@YAMM@Z
pdata	ENDS
;	COMDAT pdata
pdata	SEGMENT
$pdata$?copy@?$_Char_traits@DH@std@@SAPEADQEADQEBD_K@Z DD imagerel $LN3
	DD	imagerel $LN3+49
	DD	imagerel $unwind$?copy@?$_Char_traits@DH@std@@SAPEADQEADQEBD_K@Z
pdata	ENDS
;	COMDAT pdata
pdata	SEGMENT
$pdata$?move@?$_Char_traits@DH@std@@SAPEADQEADQEBD_K@Z DD imagerel $LN3
	DD	imagerel $LN3+49
	DD	imagerel $unwind$?move@?$_Char_traits@DH@std@@SAPEADQEADQEBD_K@Z
pdata	ENDS
;	COMDAT pdata
pdata	SEGMENT
$pdata$?length@?$_Narrow_char_traits@DH@std@@SA_KQEBD@Z DD imagerel $LN4
	DD	imagerel $LN4+55
	DD	imagerel $unwind$?length@?$_Narrow_char_traits@DH@std@@SA_KQEBD@Z
pdata	ENDS
;	COMDAT pdata
pdata	SEGMENT
$pdata$?assign@?$_Narrow_char_traits@DH@std@@SAPEADQEAD_KD@Z DD imagerel $LN3
	DD	imagerel $LN3+47
	DD	imagerel $unwind$?assign@?$_Narrow_char_traits@DH@std@@SAPEADQEAD_KD@Z
pdata	ENDS
;	COMDAT pdata
pdata	SEGMENT
$pdata$??0exception@std@@QEAA@QEBDH@Z DD imagerel $LN3
	DD	imagerel $LN3+73
	DD	imagerel $unwind$??0exception@std@@QEAA@QEBDH@Z
pdata	ENDS
;	COMDAT pdata
pdata	SEGMENT
$pdata$??0exception@std@@QEAA@AEBV01@@Z DD imagerel $LN3
	DD	imagerel $LN3+89
	DD	imagerel $unwind$??0exception@std@@QEAA@AEBV01@@Z
pdata	ENDS
;	COMDAT pdata
pdata	SEGMENT
$pdata$??1exception@std@@UEAA@XZ DD imagerel $LN3
	DD	imagerel $LN3+47
	DD	imagerel $unwind$??1exception@std@@UEAA@XZ
pdata	ENDS
;	COMDAT pdata
pdata	SEGMENT
$pdata$?what@exception@std@@UEBAPEBDXZ DD imagerel $LN5
	DD	imagerel $LN5+56
	DD	imagerel $unwind$?what@exception@std@@UEBAPEBDXZ
pdata	ENDS
;	COMDAT pdata
pdata	SEGMENT
$pdata$??_Gexception@std@@UEAAPEAXI@Z DD imagerel $LN4
	DD	imagerel $LN4+60
	DD	imagerel $unwind$??_Gexception@std@@UEAAPEAXI@Z
pdata	ENDS
;	COMDAT pdata
pdata	SEGMENT
$pdata$??0bad_alloc@std@@AEAA@QEBD@Z DD imagerel $LN4
	DD	imagerel $LN4+61
	DD	imagerel $unwind$??0bad_alloc@std@@AEAA@QEBD@Z
pdata	ENDS
;	COMDAT pdata
pdata	SEGMENT
$pdata$?dtor$0@?0???0bad_alloc@std@@AEAA@QEBD@Z@4HA DD imagerel ?dtor$0@?0???0bad_alloc@std@@AEAA@QEBD@Z@4HA
	DD	imagerel ?dtor$0@?0???0bad_alloc@std@@AEAA@QEBD@Z@4HA+24
	DD	imagerel $unwind$?dtor$0@?0???0bad_alloc@std@@AEAA@QEBD@Z@4HA
pdata	ENDS
;	COMDAT pdata
pdata	SEGMENT
$pdata$??1bad_alloc@std@@UEAA@XZ DD imagerel $LN4
	DD	imagerel $LN4+25
	DD	imagerel $unwind$??1bad_alloc@std@@UEAA@XZ
pdata	ENDS
;	COMDAT pdata
pdata	SEGMENT
$pdata$?dtor$0@?0???1bad_alloc@std@@UEAA@XZ@4HA DD imagerel ?dtor$0@?0???1bad_alloc@std@@UEAA@XZ@4HA
	DD	imagerel ?dtor$0@?0???1bad_alloc@std@@UEAA@XZ@4HA+24
	DD	imagerel $unwind$?dtor$0@?0???1bad_alloc@std@@UEAA@XZ@4HA
pdata	ENDS
;	COMDAT pdata
pdata	SEGMENT
$pdata$??0bad_alloc@std@@QEAA@AEBV01@@Z DD imagerel $LN4
	DD	imagerel $LN4+55
	DD	imagerel $unwind$??0bad_alloc@std@@QEAA@AEBV01@@Z
pdata	ENDS
;	COMDAT pdata
pdata	SEGMENT
$pdata$?dtor$0@?0???0bad_alloc@std@@QEAA@AEBV01@@Z@4HA DD imagerel ?dtor$0@?0???0bad_alloc@std@@QEAA@AEBV01@@Z@4HA
	DD	imagerel ?dtor$0@?0???0bad_alloc@std@@QEAA@AEBV01@@Z@4HA+24
	DD	imagerel $unwind$?dtor$0@?0???0bad_alloc@std@@QEAA@AEBV01@@Z@4HA
pdata	ENDS
;	COMDAT pdata
pdata	SEGMENT
$pdata$??_Gbad_alloc@std@@UEAAPEAXI@Z DD imagerel $LN4
	DD	imagerel $LN4+60
	DD	imagerel $unwind$??_Gbad_alloc@std@@UEAAPEAXI@Z
pdata	ENDS
;	COMDAT pdata
pdata	SEGMENT
$pdata$??0bad_array_new_length@std@@QEAA@XZ DD imagerel $LN4
	DD	imagerel $LN4+52
	DD	imagerel $unwind$??0bad_array_new_length@std@@QEAA@XZ
pdata	ENDS
;	COMDAT pdata
pdata	SEGMENT
$pdata$?dtor$0@?0???0bad_array_new_length@std@@QEAA@XZ@4HA DD imagerel ?dtor$0@?0???0bad_array_new_length@std@@QEAA@XZ@4HA
	DD	imagerel ?dtor$0@?0???0bad_array_new_length@std@@QEAA@XZ@4HA+24
	DD	imagerel $unwind$?dtor$0@?0???0bad_array_new_length@std@@QEAA@XZ@4HA
pdata	ENDS
;	COMDAT pdata
pdata	SEGMENT
$pdata$??1bad_array_new_length@std@@UEAA@XZ DD imagerel $LN4
	DD	imagerel $LN4+25
	DD	imagerel $unwind$??1bad_array_new_length@std@@UEAA@XZ
pdata	ENDS
;	COMDAT pdata
pdata	SEGMENT
$pdata$?dtor$0@?0???1bad_array_new_length@std@@UEAA@XZ@4HA DD imagerel ?dtor$0@?0???1bad_array_new_length@std@@UEAA@XZ@4HA
	DD	imagerel ?dtor$0@?0???1bad_array_new_length@std@@UEAA@XZ@4HA+24
	DD	imagerel $unwind$?dtor$0@?0???1bad_array_new_length@std@@UEAA@XZ@4HA
pdata	ENDS
;	COMDAT pdata
pdata	SEGMENT
$pdata$??0bad_array_new_length@std@@QEAA@AEBV01@@Z DD imagerel $LN4
	DD	imagerel $LN4+55
	DD	imagerel $unwind$??0bad_array_new_length@std@@QEAA@AEBV01@@Z
pdata	ENDS
;	COMDAT pdata
pdata	SEGMENT
$pdata$?dtor$0@?0???0bad_array_new_length@std@@QEAA@AEBV01@@Z@4HA DD imagerel ?dtor$0@?0???0bad_array_new_length@std@@QEAA@AEBV01@@Z@4HA
	DD	imagerel ?dtor$0@?0???0bad_array_new_length@std@@QEAA@AEBV01@@Z@4HA+24
	DD	imagerel $unwind$?dtor$0@?0???0bad_array_new_length@std@@QEAA@AEBV01@@Z@4HA
pdata	ENDS
;	COMDAT pdata
pdata	SEGMENT
$pdata$??_Gbad_array_new_length@std@@UEAAPEAXI@Z DD imagerel $LN4
	DD	imagerel $LN4+60
	DD	imagerel $unwind$??_Gbad_array_new_length@std@@UEAAPEAXI@Z
pdata	ENDS
;	COMDAT pdata
pdata	SEGMENT
$pdata$?_Throw_bad_array_new_length@std@@YAXXZ DD imagerel $LN3
	DD	imagerel $LN3+37
	DD	imagerel $unwind$?_Throw_bad_array_new_length@std@@YAXXZ
pdata	ENDS
;	COMDAT pdata
pdata	SEGMENT
$pdata$?_Allocate@_Default_allocate_traits@std@@SAPEAX_K@Z DD imagerel $LN3
	DD	imagerel $LN3+24
	DD	imagerel $unwind$?_Allocate@_Default_allocate_traits@std@@SAPEAX_K@Z
pdata	ENDS
;	COMDAT pdata
pdata	SEGMENT
$pdata$?_Adjust_manually_vector_aligned@std@@YAXAEAPEAXAEA_K@Z DD imagerel $LN11
	DD	imagerel $LN11+154
	DD	imagerel $unwind$?_Adjust_manually_vector_aligned@std@@YAXAEAPEAXAEA_K@Z
pdata	ENDS
;	COMDAT pdata
pdata	SEGMENT
$pdata$?_Xlen_string@std@@YAXXZ DD imagerel $LN3
	DD	imagerel $LN3+22
	DD	imagerel $unwind$?_Xlen_string@std@@YAXXZ
pdata	ENDS
;	COMDAT pdata
pdata	SEGMENT
$pdata$?deallocate@?$allocator@D@std@@QEAAXQEAD_K@Z DD imagerel $LN3
	DD	imagerel $LN3+40
	DD	imagerel $unwind$?deallocate@?$allocator@D@std@@QEAAXQEAD_K@Z
pdata	ENDS
;	COMDAT pdata
pdata	SEGMENT
$pdata$?allocate@?$allocator@D@std@@QEAAPEAD_K@Z DD imagerel $LN3
	DD	imagerel $LN3+37
	DD	imagerel $unwind$?allocate@?$allocator@D@std@@QEAAPEAD_K@Z
pdata	ENDS
;	COMDAT pdata
pdata	SEGMENT
$pdata$??0?$_String_val@U?$_Simple_types@D@std@@@std@@QEAA@XZ DD imagerel $LN4
	DD	imagerel $LN4+59
	DD	imagerel $unwind$??0?$_String_val@U?$_Simple_types@D@std@@@std@@QEAA@XZ
pdata	ENDS
;	COMDAT pdata
pdata	SEGMENT
$pdata$?dtor$0@?0???0?$_String_val@U?$_Simple_types@D@std@@@std@@QEAA@XZ@4HA DD imagerel ?dtor$0@?0???0?$_String_val@U?$_Simple_types@D@std@@@std@@QEAA@XZ@4HA
	DD	imagerel ?dtor$0@?0???0?$_String_val@U?$_Simple_types@D@std@@@std@@QEAA@XZ@4HA+24
	DD	imagerel $unwind$?dtor$0@?0???0?$_String_val@U?$_Simple_types@D@std@@@std@@QEAA@XZ@4HA
pdata	ENDS
;	COMDAT pdata
pdata	SEGMENT
$pdata$?_Myptr@?$_String_val@U?$_Simple_types@D@std@@@std@@QEAAPEADXZ DD imagerel $LN4
	DD	imagerel $LN4+64
	DD	imagerel $unwind$?_Myptr@?$_String_val@U?$_Simple_types@D@std@@@std@@QEAAPEADXZ
pdata	ENDS
;	COMDAT pdata
pdata	SEGMENT
$pdata$?_Myptr@?$_String_val@U?$_Simple_types@D@std@@@std@@QEBAPEBDXZ DD imagerel $LN4
	DD	imagerel $LN4+64
	DD	imagerel $unwind$?_Myptr@?$_String_val@U?$_Simple_types@D@std@@@std@@QEBAPEBDXZ
pdata	ENDS
;	COMDAT pdata
pdata	SEGMENT
$pdata$?_Large_mode_engaged@?$_String_val@U?$_Simple_types@D@std@@@std@@QEBA_NXZ DD imagerel $LN5
	DD	imagerel $LN5+46
	DD	imagerel $unwind$?_Large_mode_engaged@?$_String_val@U?$_Simple_types@D@std@@@std@@QEBA_NXZ
pdata	ENDS
;	COMDAT pdata
pdata	SEGMENT
$pdata$?_Check_offset@?$_String_val@U?$_Simple_types@D@std@@@std@@QEBAX_K@Z DD imagerel $LN4
	DD	imagerel $LN4+41
	DD	imagerel $unwind$?_Check_offset@?$_String_val@U?$_Simple_types@D@std@@@std@@QEBAX_K@Z
pdata	ENDS
;	COMDAT pdata
pdata	SEGMENT
$pdata$?_Xran@?$_String_val@U?$_Simple_types@D@std@@@std@@SAXXZ DD imagerel $LN3
	DD	imagerel $LN3+22
	DD	imagerel $unwind$?_Xran@?$_String_val@U?$_Simple_types@D@std@@@std@@SAXXZ
pdata	ENDS
;	COMDAT pdata
pdata	SEGMENT
$pdata$??0_Bxty@?$_String_val@U?$_Simple_types@D@std@@@std@@QEAA@XZ DD imagerel $LN3
	DD	imagerel $LN3+32
	DD	imagerel $unwind$??0_Bxty@?$_String_val@U?$_Simple_types@D@std@@@std@@QEAA@XZ
pdata	ENDS
;	COMDAT pdata
pdata	SEGMENT
$pdata$?_Switch_to_buf@_Bxty@?$_String_val@U?$_Simple_types@D@std@@@std@@QEAAXXZ DD imagerel $LN3
	DD	imagerel $LN3+28
	DD	imagerel $unwind$?_Switch_to_buf@_Bxty@?$_String_val@U?$_Simple_types@D@std@@@std@@QEAAXXZ
pdata	ENDS
;	COMDAT pdata
pdata	SEGMENT
$pdata$??1?$_String_val@U?$_Simple_types@D@std@@@std@@QEAA@XZ DD imagerel $LN4
	DD	imagerel $LN4+28
	DD	imagerel $unwind$??1?$_String_val@U?$_Simple_types@D@std@@@std@@QEAA@XZ
pdata	ENDS
;	COMDAT pdata
pdata	SEGMENT
$pdata$?dtor$0@?0???1?$_String_val@U?$_Simple_types@D@std@@@std@@QEAA@XZ@4HA DD imagerel ?dtor$0@?0???1?$_String_val@U?$_Simple_types@D@std@@@std@@QEAA@XZ@4HA
	DD	imagerel ?dtor$0@?0???1?$_String_val@U?$_Simple_types@D@std@@@std@@QEAA@XZ@4HA+24
	DD	imagerel $unwind$?dtor$0@?0???1?$_String_val@U?$_Simple_types@D@std@@@std@@QEAA@XZ@4HA
pdata	ENDS
;	COMDAT pdata
pdata	SEGMENT
$pdata$??0?$basic_string@DU?$char_traits@D@std@@V?$allocator@D@2@@std@@QEAA@QEBD@Z DD imagerel $LN4
	DD	imagerel $LN4+87
	DD	imagerel $unwind$??0?$basic_string@DU?$char_traits@D@std@@V?$allocator@D@2@@std@@QEAA@QEBD@Z
pdata	ENDS
;	COMDAT pdata
pdata	SEGMENT
$pdata$?dtor$0@?0???0?$basic_string@DU?$char_traits@D@std@@V?$allocator@D@2@@std@@QEAA@QEBD@Z@4HA DD imagerel ?dtor$0@?0???0?$basic_string@DU?$char_traits@D@std@@V?$allocator@D@2@@std@@QEAA@QEBD@Z@4HA
	DD	imagerel ?dtor$0@?0???0?$basic_string@DU?$char_traits@D@std@@V?$allocator@D@2@@std@@QEAA@QEBD@Z@4HA+24
	DD	imagerel $unwind$?dtor$0@?0???0?$basic_string@DU?$char_traits@D@std@@V?$allocator@D@2@@std@@QEAA@QEBD@Z@4HA
pdata	ENDS
;	COMDAT pdata
pdata	SEGMENT
$pdata$?_Deallocate_for_capacity@?$basic_string@DU?$char_traits@D@std@@V?$allocator@D@2@@std@@CAXAEAV?$allocator@D@2@QEAD_K@Z DD imagerel $LN3
	DD	imagerel $LN3+51
	DD	imagerel $unwind$?_Deallocate_for_capacity@?$basic_string@DU?$char_traits@D@std@@V?$allocator@D@2@@std@@CAXAEAV?$allocator@D@2@QEAD_K@Z
pdata	ENDS
;	COMDAT pdata
pdata	SEGMENT
$pdata$??0?$basic_string@DU?$char_traits@D@std@@V?$allocator@D@2@@std@@QEAA@$$QEAV01@@Z DD imagerel $LN4
	DD	imagerel $LN4+130
	DD	imagerel $unwind$??0?$basic_string@DU?$char_traits@D@std@@V?$allocator@D@2@@std@@QEAA@$$QEAV01@@Z
pdata	ENDS
;	COMDAT pdata
pdata	SEGMENT
$pdata$?dtor$0@?0???0?$basic_string@DU?$char_traits@D@std@@V?$allocator@D@2@@std@@QEAA@$$QEAV01@@Z@4HA DD imagerel ?dtor$0@?0???0?$basic_string@DU?$char_traits@D@std@@V?$allocator@D@2@@std@@QEAA@$$QEAV01@@Z@4HA
	DD	imagerel ?dtor$0@?0???0?$basic_string@DU?$char_traits@D@std@@V?$allocator@D@2@@std@@QEAA@$$QEAV01@@Z@4HA+24
	DD	imagerel $unwind$?dtor$0@?0???0?$basic_string@DU?$char_traits@D@std@@V?$allocator@D@2@@std@@QEAA@$$QEAV01@@Z@4HA
pdata	ENDS
;	COMDAT pdata
pdata	SEGMENT
$pdata$?_Take_contents@?$basic_string@DU?$char_traits@D@std@@V?$allocator@D@2@@std@@AEAAXAEAV12@@Z DD imagerel $LN5
	DD	imagerel $LN5+411
	DD	imagerel $unwind$?_Take_contents@?$basic_string@DU?$char_traits@D@std@@V?$allocator@D@2@@std@@AEAAXAEAV12@@Z
pdata	ENDS
;	COMDAT pdata
pdata	SEGMENT
$pdata$??1?$basic_string@DU?$char_traits@D@std@@V?$allocator@D@2@@std@@QEAA@XZ DD imagerel $LN4
	DD	imagerel $LN4+39
	DD	imagerel $unwind$??1?$basic_string@DU?$char_traits@D@std@@V?$allocator@D@2@@std@@QEAA@XZ
pdata	ENDS
;	COMDAT pdata
pdata	SEGMENT
$pdata$?dtor$0@?0???1?$basic_string@DU?$char_traits@D@std@@V?$allocator@D@2@@std@@QEAA@XZ@4HA DD imagerel ?dtor$0@?0???1?$basic_string@DU?$char_traits@D@std@@V?$allocator@D@2@@std@@QEAA@XZ@4HA
	DD	imagerel ?dtor$0@?0???1?$basic_string@DU?$char_traits@D@std@@V?$allocator@D@2@@std@@QEAA@XZ@4HA+24
	DD	imagerel $unwind$?dtor$0@?0???1?$basic_string@DU?$char_traits@D@std@@V?$allocator@D@2@@std@@QEAA@XZ@4HA
pdata	ENDS
;	COMDAT pdata
pdata	SEGMENT
$pdata$??4?$basic_string@DU?$char_traits@D@std@@V?$allocator@D@2@@std@@QEAAAEAV01@QEBD@Z DD imagerel $LN3
	DD	imagerel $LN3+34
	DD	imagerel $unwind$??4?$basic_string@DU?$char_traits@D@std@@V?$allocator@D@2@@std@@QEAAAEAV01@QEBD@Z
pdata	ENDS
;	COMDAT pdata
pdata	SEGMENT
$pdata$??Y?$basic_string@DU?$char_traits@D@std@@V?$allocator@D@2@@std@@QEAAAEAV01@AEBV01@@Z DD imagerel $LN3
	DD	imagerel $LN3+34
	DD	imagerel $unwind$??Y?$basic_string@DU?$char_traits@D@std@@V?$allocator@D@2@@std@@QEAAAEAV01@AEBV01@@Z
pdata	ENDS
;	COMDAT pdata
pdata	SEGMENT
$pdata$?append@?$basic_string@DU?$char_traits@D@std@@V?$allocator@D@2@@std@@QEAAAEAV12@AEBV12@@Z DD imagerel $LN3
	DD	imagerel $LN3+71
	DD	imagerel $unwind$?append@?$basic_string@DU?$char_traits@D@std@@V?$allocator@D@2@@std@@QEAAAEAV12@AEBV12@@Z
pdata	ENDS
;	COMDAT pdata
pdata	SEGMENT
$pdata$?append@?$basic_string@DU?$char_traits@D@std@@V?$allocator@D@2@@std@@QEAAAEAV12@QEBD_K@Z DD imagerel $LN4
	DD	imagerel $LN4+252
	DD	imagerel $unwind$?append@?$basic_string@DU?$char_traits@D@std@@V?$allocator@D@2@@std@@QEAAAEAV12@QEBD_K@Z
pdata	ENDS
;	COMDAT pdata
pdata	SEGMENT
$pdata$?append@?$basic_string@DU?$char_traits@D@std@@V?$allocator@D@2@@std@@QEAAAEAV12@_KD@Z DD imagerel $LN4
	DD	imagerel $LN4+252
	DD	imagerel $unwind$?append@?$basic_string@DU?$char_traits@D@std@@V?$allocator@D@2@@std@@QEAAAEAV12@_KD@Z
pdata	ENDS
;	COMDAT pdata
pdata	SEGMENT
$pdata$?assign@?$basic_string@DU?$char_traits@D@std@@V?$allocator@D@2@@std@@QEAAAEAV12@QEBD_K@Z DD imagerel $LN4
	DD	imagerel $LN4+180
	DD	imagerel $unwind$?assign@?$basic_string@DU?$char_traits@D@std@@V?$allocator@D@2@@std@@QEAAAEAV12@QEBD_K@Z
pdata	ENDS
;	COMDAT pdata
pdata	SEGMENT
$pdata$?assign@?$basic_string@DU?$char_traits@D@std@@V?$allocator@D@2@@std@@QEAAAEAV12@QEBD@Z DD imagerel $LN3
	DD	imagerel $LN3+55
	DD	imagerel $unwind$?assign@?$basic_string@DU?$char_traits@D@std@@V?$allocator@D@2@@std@@QEAAAEAV12@QEBD@Z
pdata	ENDS
;	COMDAT pdata
pdata	SEGMENT
$pdata$?insert@?$basic_string@DU?$char_traits@D@std@@V?$allocator@D@2@@std@@QEAAAEAV12@_KQEBD0@Z DD imagerel $LN11
	DD	imagerel $LN11+590
	DD	imagerel $unwind$?insert@?$basic_string@DU?$char_traits@D@std@@V?$allocator@D@2@@std@@QEAAAEAV12@_KQEBD0@Z
pdata	ENDS
;	COMDAT pdata
pdata	SEGMENT
$pdata$?insert@?$basic_string@DU?$char_traits@D@std@@V?$allocator@D@2@@std@@QEAAAEAV12@_KQEBD@Z DD imagerel $LN3
	DD	imagerel $LN3+65
	DD	imagerel $unwind$?insert@?$basic_string@DU?$char_traits@D@std@@V?$allocator@D@2@@std@@QEAAAEAV12@_KQEBD@Z
pdata	ENDS
;	COMDAT pdata
pdata	SEGMENT
$pdata$?c_str@?$basic_string@DU?$char_traits@D@std@@V?$allocator@D@2@@std@@QEBAPEBDXZ DD imagerel $LN3
	DD	imagerel $LN3+27
	DD	imagerel $unwind$?c_str@?$basic_string@DU?$char_traits@D@std@@V?$allocator@D@2@@std@@QEBAPEBDXZ
pdata	ENDS
;	COMDAT pdata
pdata	SEGMENT
$pdata$?max_size@?$basic_string@DU?$char_traits@D@std@@V?$allocator@D@2@@std@@QEBA_KXZ DD imagerel $LN3
	DD	imagerel $LN3+110
	DD	imagerel $unwind$?max_size@?$basic_string@DU?$char_traits@D@std@@V?$allocator@D@2@@std@@QEBA_KXZ
pdata	ENDS
;	COMDAT pdata
pdata	SEGMENT
$pdata$?resize@?$basic_string@DU?$char_traits@D@std@@V?$allocator@D@2@@std@@QEAAX_KD@Z DD imagerel $LN5
	DD	imagerel $LN5+105
	DD	imagerel $unwind$?resize@?$basic_string@DU?$char_traits@D@std@@V?$allocator@D@2@@std@@QEAAX_KD@Z
pdata	ENDS
;	COMDAT pdata
pdata	SEGMENT
$pdata$?_Calculate_growth@?$basic_string@DU?$char_traits@D@std@@V?$allocator@D@2@@std@@CA_K_K00@Z DD imagerel $LN5
	DD	imagerel $LN5+146
	DD	imagerel $unwind$?_Calculate_growth@?$basic_string@DU?$char_traits@D@std@@V?$allocator@D@2@@std@@CA_K_K00@Z
pdata	ENDS
;	COMDAT pdata
pdata	SEGMENT
$pdata$?_Calculate_growth@?$basic_string@DU?$char_traits@D@std@@V?$allocator@D@2@@std@@AEBA_K_K@Z DD imagerel $LN3
	DD	imagerel $LN3+68
	DD	imagerel $unwind$?_Calculate_growth@?$basic_string@DU?$char_traits@D@std@@V?$allocator@D@2@@std@@AEBA_K_K@Z
pdata	ENDS
;	COMDAT pdata
pdata	SEGMENT
$pdata$?_Eos@?$basic_string@DU?$char_traits@D@std@@V?$allocator@D@2@@std@@AEAAX_K@Z DD imagerel $LN3
	DD	imagerel $LN3+70
	DD	imagerel $unwind$?_Eos@?$basic_string@DU?$char_traits@D@std@@V?$allocator@D@2@@std@@AEAAX_K@Z
pdata	ENDS
;	COMDAT pdata
pdata	SEGMENT
$pdata$?_Tidy_deallocate@?$basic_string@DU?$char_traits@D@std@@V?$allocator@D@2@@std@@AEAAXXZ DD imagerel $LN4
	DD	imagerel $LN4+173
	DD	imagerel $unwind$?_Tidy_deallocate@?$basic_string@DU?$char_traits@D@std@@V?$allocator@D@2@@std@@AEAAXXZ
pdata	ENDS
;	COMDAT pdata
pdata	SEGMENT
$pdata$?_Swap_proxy_and_iterators@?$basic_string@DU?$char_traits@D@std@@V?$allocator@D@2@@std@@AEAAXAEAV12@@Z DD imagerel $LN3
	DD	imagerel $LN3+48
	DD	imagerel $unwind$?_Swap_proxy_and_iterators@?$basic_string@DU?$char_traits@D@std@@V?$allocator@D@2@@std@@AEAAXAEAV12@@Z
pdata	ENDS
;	COMDAT pdata
pdata	SEGMENT
$pdata$?_Getal@?$basic_string@DU?$char_traits@D@std@@V?$allocator@D@2@@std@@AEAAAEAV?$allocator@D@2@XZ DD imagerel $LN3
	DD	imagerel $LN3+27
	DD	imagerel $unwind$?_Getal@?$basic_string@DU?$char_traits@D@std@@V?$allocator@D@2@@std@@AEAAAEAV?$allocator@D@2@XZ
pdata	ENDS
;	COMDAT pdata
pdata	SEGMENT
$pdata$?_Getal@?$basic_string@DU?$char_traits@D@std@@V?$allocator@D@2@@std@@AEBAAEBV?$allocator@D@2@XZ DD imagerel $LN3
	DD	imagerel $LN3+27
	DD	imagerel $unwind$?_Getal@?$basic_string@DU?$char_traits@D@std@@V?$allocator@D@2@@std@@AEBAAEBV?$allocator@D@2@XZ
pdata	ENDS
;	COMDAT pdata
pdata	SEGMENT
$pdata$??1?$_Compressed_pair@V?$allocator@D@std@@V?$_String_val@U?$_Simple_types@D@std@@@2@$00@std@@QEAA@XZ DD imagerel $LN4
	DD	imagerel $LN4+28
	DD	imagerel $unwind$??1?$_Compressed_pair@V?$allocator@D@std@@V?$_String_val@U?$_Simple_types@D@std@@@2@$00@std@@QEAA@XZ
pdata	ENDS
;	COMDAT pdata
pdata	SEGMENT
$pdata$?dtor$0@?0???1?$_Compressed_pair@V?$allocator@D@std@@V?$_String_val@U?$_Simple_types@D@std@@@2@$00@std@@QEAA@XZ@4HA DD imagerel ?dtor$0@?0???1?$_Compressed_pair@V?$allocator@D@std@@V?$_String_val@U?$_Simple_types@D@std@@@2@$00@std@@QEAA@XZ@4HA
	DD	imagerel ?dtor$0@?0???1?$_Compressed_pair@V?$allocator@D@std@@V?$_String_val@U?$_Simple_types@D@std@@@2@$00@std@@QEAA@XZ@4HA+24
	DD	imagerel $unwind$?dtor$0@?0???1?$_Compressed_pair@V?$allocator@D@std@@V?$_String_val@U?$_Simple_types@D@std@@@2@$00@std@@QEAA@XZ@4HA
pdata	ENDS
;	COMDAT pdata
pdata	SEGMENT
$pdata$??$min@_K@std@@YAAEB_KAEB_K0@Z DD imagerel $LN5
	DD	imagerel $LN5+71
	DD	imagerel $unwind$??$min@_K@std@@YAAEB_KAEB_K0@Z
pdata	ENDS
;	COMDAT pdata
pdata	SEGMENT
$pdata$??$?HDU?$char_traits@D@std@@V?$allocator@D@1@@std@@YA?AV?$basic_string@DU?$char_traits@D@std@@V?$allocator@D@2@@0@QEBD$$QEAV10@@Z DD imagerel $LN5
	DD	imagerel $LN5+88
	DD	imagerel $unwind$??$?HDU?$char_traits@D@std@@V?$allocator@D@1@@std@@YA?AV?$basic_string@DU?$char_traits@D@std@@V?$allocator@D@2@@0@QEBD$$QEAV10@@Z
pdata	ENDS
;	COMDAT pdata
pdata	SEGMENT
$pdata$?dtor$0@?0???$?HDU?$char_traits@D@std@@V?$allocator@D@1@@std@@YA?AV?$basic_string@DU?$char_traits@D@std@@V?$allocator@D@2@@0@QEBD$$QEAV10@@Z@4HA DD imagerel ?dtor$0@?0???$?HDU?$char_traits@D@std@@V?$allocator@D@1@@std@@YA?AV?$basic_string@DU?$char_traits@D@std@@V?$allocator@D@2@@0@QEBD$$QEAV10@@Z@4HA
	DD	imagerel ?dtor$0@?0???$?HDU?$char_traits@D@std@@V?$allocator@D@1@@std@@YA?AV?$basic_string@DU?$char_traits@D@std@@V?$allocator@D@2@@0@QEBD$$QEAV10@@Z@4HA+38
	DD	imagerel $unwind$?dtor$0@?0???$?HDU?$char_traits@D@std@@V?$allocator@D@1@@std@@YA?AV?$basic_string@DU?$char_traits@D@std@@V?$allocator@D@2@@0@QEBD$$QEAV10@@Z@4HA
pdata	ENDS
;	COMDAT pdata
pdata	SEGMENT
$pdata$??0WSInit@detail@httplib@@QEAA@XZ DD imagerel $LN4
	DD	imagerel $LN4+103
	DD	imagerel $unwind$??0WSInit@detail@httplib@@QEAA@XZ
pdata	ENDS
;	COMDAT pdata
pdata	SEGMENT
$pdata$??1WSInit@detail@httplib@@QEAA@XZ DD imagerel $LN4
	DD	imagerel $LN4+33
	DD	imagerel $unwind$??1WSInit@detail@httplib@@QEAA@XZ
pdata	ENDS
;	COMDAT pdata
pdata	SEGMENT
$pdata$??__Ewsinit_@detail@httplib@@YAXXZ DD imagerel ??__Ewsinit_@detail@httplib@@YAXXZ
	DD	imagerel ??__Ewsinit_@detail@httplib@@YAXXZ+34
	DD	imagerel $unwind$??__Ewsinit_@detail@httplib@@YAXXZ
pdata	ENDS
;	COMDAT pdata
pdata	SEGMENT
$pdata$??__Fwsinit_@detail@httplib@@YAXXZ DD imagerel ??__Fwsinit_@detail@httplib@@YAXXZ
	DD	imagerel ??__Fwsinit_@detail@httplib@@YAXXZ+22
	DD	imagerel $unwind$??__Fwsinit_@detail@httplib@@YAXXZ
pdata	ENDS
;	COMDAT pdata
pdata	SEGMENT
$pdata$??0SSLInit@detail@httplib@@QEAA@XZ DD imagerel $LN3
	DD	imagerel $LN3+32
	DD	imagerel $unwind$??0SSLInit@detail@httplib@@QEAA@XZ
pdata	ENDS
;	COMDAT pdata
pdata	SEGMENT
$pdata$??__Esslinit_@detail@httplib@@YAXXZ DD imagerel ??__Esslinit_@detail@httplib@@YAXXZ
	DD	imagerel ??__Esslinit_@detail@httplib@@YAXXZ+22
	DD	imagerel $unwind$??__Esslinit_@detail@httplib@@YAXXZ
pdata	ENDS
;	COMDAT pdata
pdata	SEGMENT
$pdata$?MakeVectorRegister@Math@Core@IronMan@@YA?AT__m128@@IIII@Z DD imagerel $LN3
	DD	imagerel $LN3+116
	DD	imagerel $unwind$?MakeVectorRegister@Math@Core@IronMan@@YA?AT__m128@@IIII@Z
pdata	ENDS
;	COMDAT pdata
pdata	SEGMENT
$pdata$?MakeVectorRegister@Math@Core@IronMan@@YA?AT__m128@@MMMM@Z DD imagerel $LN3
	DD	imagerel $LN3+77
	DD	imagerel $unwind$?MakeVectorRegister@Math@Core@IronMan@@YA?AT__m128@@MMMM@Z
pdata	ENDS
;	COMDAT pdata
pdata	SEGMENT
$pdata$??__EXYZMask@Math@Core@IronMan@@YAXXZ DD imagerel ??__EXYZMask@Math@Core@IronMan@@YAXXZ
	DD	imagerel ??__EXYZMask@Math@Core@IronMan@@YAXXZ+40
	DD	imagerel $unwind$??__EXYZMask@Math@Core@IronMan@@YAXXZ
pdata	ENDS
;	COMDAT pdata
pdata	SEGMENT
$pdata$??__EQINV_SIGN_MASK@Math@Core@IronMan@@YAXXZ DD imagerel ??__EQINV_SIGN_MASK@Math@Core@IronMan@@YAXXZ
	DD	imagerel ??__EQINV_SIGN_MASK@Math@Core@IronMan@@YAXXZ+53
	DD	imagerel $unwind$??__EQINV_SIGN_MASK@Math@Core@IronMan@@YAXXZ
pdata	ENDS
pdata	SEGMENT
$pdata$?Separator@ImGui@@YAXXZ DD imagerel $LN12
	DD	imagerel $LN12+587
	DD	imagerel $unwind$?Separator@ImGui@@YAXXZ
$pdata$?NewLine@ImGui@@YAXXZ DD imagerel $LN6
	DD	imagerel $LN6+184
	DD	imagerel $unwind$?NewLine@ImGui@@YAXXZ
$pdata$?Spacing@ImGui@@YAXXZ DD imagerel $LN4
	DD	imagerel $LN4+62
	DD	imagerel $unwind$?Spacing@ImGui@@YAXXZ
$pdata$?Dummy@ImGui@@YAXAEBUImVec2@@@Z DD imagerel $LN4
	DD	imagerel $LN4+126
	DD	imagerel $unwind$?Dummy@ImGui@@YAXAEBUImVec2@@@Z
$pdata$?AlignTextToFramePadding@ImGui@@YAXXZ DD imagerel $LN4
	DD	imagerel $LN4+168
	DD	imagerel $unwind$?AlignTextToFramePadding@ImGui@@YAXXZ
$pdata$?TextUnformatted@ImGui@@YAXPEBD0@Z DD imagerel $LN25
	DD	imagerel $LN25+1497
	DD	imagerel $unwind$?TextUnformatted@ImGui@@YAXPEBD0@Z
$pdata$?TextUnformatted2@ImGui@@YAXPEBD0@Z DD imagerel $LN25
	DD	imagerel $LN25+1523
	DD	imagerel $unwind$?TextUnformatted2@ImGui@@YAXPEBD0@Z
$pdata$?Text@ImGui@@YAXPEBDZZ DD imagerel $LN3
	DD	imagerel $LN3+63
	DD	imagerel $unwind$?Text@ImGui@@YAXPEBDZZ
$pdata$?TextV@ImGui@@YAXPEBDPEAD@Z DD imagerel $LN4
	DD	imagerel $LN4+135
	DD	imagerel $unwind$?TextV@ImGui@@YAXPEBDPEAD@Z
$pdata$?TextColored@ImGui@@YAXAEBUImVec4@@PEBDZZ DD imagerel $LN3
	DD	imagerel $LN3+68
	DD	imagerel $unwind$?TextColored@ImGui@@YAXAEBUImVec4@@PEBDZZ
$pdata$?TextColoredV@ImGui@@YAXAEBUImVec4@@PEBDPEAD@Z DD imagerel $LN3
	DD	imagerel $LN3+62
	DD	imagerel $unwind$?TextColoredV@ImGui@@YAXAEBUImVec4@@PEBDPEAD@Z
$pdata$?TextDisabled@ImGui@@YAXPEBDZZ DD imagerel $LN3
	DD	imagerel $LN3+63
	DD	imagerel $unwind$?TextDisabled@ImGui@@YAXPEBDZZ
$pdata$?TextDisabledV@ImGui@@YAXPEBDPEAD@Z DD imagerel $LN3
	DD	imagerel $LN3+79
	DD	imagerel $unwind$?TextDisabledV@ImGui@@YAXPEBDPEAD@Z
$pdata$?TextWrapped@ImGui@@YAXPEBDZZ DD imagerel $LN3
	DD	imagerel $LN3+63
	DD	imagerel $unwind$?TextWrapped@ImGui@@YAXPEBDZZ
$pdata$?TextWrappedV@ImGui@@YAXPEBDPEAD@Z DD imagerel $LN7
	DD	imagerel $LN7+121
	DD	imagerel $unwind$?TextWrappedV@ImGui@@YAXPEBDPEAD@Z
$pdata$?LabelText@ImGui@@YAXPEBD0ZZ DD imagerel $LN3
	DD	imagerel $LN3+68
	DD	imagerel $unwind$?LabelText@ImGui@@YAXPEBD0ZZ
$pdata$?LabelTextV@ImGui@@YAXPEBD0PEAD@Z DD imagerel $LN8
	DD	imagerel $LN8+743
	DD	imagerel $unwind$?LabelTextV@ImGui@@YAXPEBD0PEAD@Z
$pdata$?BulletText@ImGui@@YAXPEBDZZ DD imagerel $LN3
	DD	imagerel $LN3+63
	DD	imagerel $unwind$?BulletText@ImGui@@YAXPEBDZZ
$pdata$?BulletTextV@ImGui@@YAXPEBDPEAD@Z DD imagerel $LN7
	DD	imagerel $LN7+782
	DD	imagerel $unwind$?BulletTextV@ImGui@@YAXPEBDPEAD@Z
$pdata$?Button@ImGui@@YA_NPEBDAEBUImVec2@@@Z DD imagerel $LN3
	DD	imagerel $LN3+37
	DD	imagerel $unwind$?Button@ImGui@@YA_NPEBDAEBUImVec2@@@Z
$pdata$?SmallButton@ImGui@@YA_NPEBD@Z DD imagerel $LN3
	DD	imagerel $LN3+124
	DD	imagerel $unwind$?SmallButton@ImGui@@YA_NPEBD@Z
$pdata$?InvisibleButton@ImGui@@YA_NPEBDAEBUImVec2@@@Z DD imagerel $LN5
	DD	imagerel $LN5+237
	DD	imagerel $unwind$?InvisibleButton@ImGui@@YA_NPEBDAEBUImVec2@@@Z
$pdata$?ArrowButton@ImGui@@YA_NPEBDH@Z DD imagerel $LN3
	DD	imagerel $LN3+71
	DD	imagerel $unwind$?ArrowButton@ImGui@@YA_NPEBDH@Z
$pdata$?Image@ImGui@@YAXPEAXAEBUImVec2@@11AEBUImVec4@@2@Z DD imagerel $LN8
	DD	imagerel $LN8+668
	DD	imagerel $unwind$?Image@ImGui@@YAXPEAXAEBUImVec2@@11AEBUImVec4@@2@Z
$pdata$?ImageButton@ImGui@@YA_NPEAXAEBUImVec2@@11HAEBUImVec4@@2@Z DD imagerel $LN13
	DD	imagerel $LN13+1059
	DD	imagerel $unwind$?ImageButton@ImGui@@YA_NPEAXAEBUImVec2@@11HAEBUImVec4@@2@Z
$pdata$?Checkbox@ImGui@@YA_NPEBDPEA_N@Z DD imagerel $LN19
	DD	imagerel $LN19+1076
	DD	imagerel $unwind$?Checkbox@ImGui@@YA_NPEBDPEA_N@Z
$pdata$?Checkbox1@ImGui@@YA_NPEBDPEAHPEAM@Z DD imagerel $LN13
	DD	imagerel $LN13+1556
	DD	imagerel $unwind$?Checkbox1@ImGui@@YA_NPEBDPEAHPEAM@Z
$pdata$?Checkbox2@ImGui@@YA_NPEBDPEAH@Z DD imagerel $LN13
	DD	imagerel $LN13+6249
	DD	imagerel $unwind$?Checkbox2@ImGui@@YA_NPEBDPEAH@Z
$pdata$?ToggleButton@ImGui@@YA_NPEBDPEA_NMMM@Z DD imagerel $LN22
	DD	imagerel $LN22+1775
	DD	imagerel $unwind$?ToggleButton@ImGui@@YA_NPEBDPEA_NMMM@Z
$pdata$?CheckboxFlags@ImGui@@YA_NPEBDPEAII@Z DD imagerel $LN8
	DD	imagerel $LN8+158
	DD	imagerel $unwind$?CheckboxFlags@ImGui@@YA_NPEBDPEAII@Z
$pdata$?RadioButton@ImGui@@YA_NPEBD_N@Z DD imagerel $LN15
	DD	imagerel $LN15+1366
	DD	imagerel $unwind$?RadioButton@ImGui@@YA_NPEBD_N@Z
$pdata$?RadioButton@ImGui@@YA_NPEBDPEAHH@Z DD imagerel $LN6
	DD	imagerel $LN6+93
	DD	imagerel $unwind$?RadioButton@ImGui@@YA_NPEBDPEAHH@Z
$pdata$?ProgressBar@ImGui@@YAXMAEBUImVec2@@PEBD@Z DD imagerel $LN7
	DD	imagerel $LN7+1039
	DD	imagerel $unwind$?ProgressBar@ImGui@@YAXMAEBUImVec2@@PEBD@Z
$pdata$?Bullet@ImGui@@YAXXZ DD imagerel $LN5
	DD	imagerel $LN5+463
	DD	imagerel $unwind$?Bullet@ImGui@@YAXXZ
$pdata$?BeginCombo@ImGui@@YA_NPEBD0H@Z DD imagerel $LN37
	DD	imagerel $LN37+2518
	DD	imagerel $unwind$?BeginCombo@ImGui@@YA_NPEBD0H@Z
$pdata$?EndCombo@ImGui@@YAXXZ DD imagerel $LN3
	DD	imagerel $LN3+15
	DD	imagerel $unwind$?EndCombo@ImGui@@YAXXZ
$pdata$?Combo@ImGui@@YA_NPEBDPEAHQEBQEBDHH@Z DD imagerel $LN3
	DD	imagerel $LN3+81
	DD	imagerel $unwind$?Combo@ImGui@@YA_NPEBDPEAHQEBQEBDHH@Z
$pdata$?Combo@ImGui@@YA_NPEBDPEAH0H@Z DD imagerel $LN5
	DD	imagerel $LN5+148
	DD	imagerel $unwind$?Combo@ImGui@@YA_NPEBDPEAH0H@Z
$pdata$?Combo@ImGui@@YA_NPEBDPEAHP6A_NPEAXHPEAPEBD@Z2HH@Z DD imagerel $LN16
	DD	imagerel $LN16+572
	DD	imagerel $unwind$?Combo@ImGui@@YA_NPEBDPEAHP6A_NPEAXHPEAPEBD@Z2HH@Z
$pdata$?MultiCombo@ImGui@@YAXPEBDQEA_NQEAPEBDH@Z DD imagerel $LN16
	DD	imagerel $LN16+556
	DD	imagerel $unwind$?MultiCombo@ImGui@@YAXPEBDQEA_NQEAPEBDH@Z
pdata	ENDS
pdata	SEGMENT
$pdata$?dtor$0@?0??MultiCombo@ImGui@@YAXPEBDQEA_NQEAPEBDH@Z@4HA DD imagerel ?dtor$0@?0??MultiCombo@ImGui@@YAXPEBDQEA_NQEAPEBDH@Z@4HA
	DD	imagerel ?dtor$0@?0??MultiCombo@ImGui@@YAXPEBDQEA_NQEAPEBDH@Z@4HA+24
	DD	imagerel $unwind$?dtor$0@?0??MultiCombo@ImGui@@YAXPEBDQEA_NQEAPEBDH@Z@4HA
$pdata$?dtor$1@?0??MultiCombo@ImGui@@YAXPEBDQEA_NQEAPEBDH@Z@4HA DD imagerel ?dtor$1@?0??MultiCombo@ImGui@@YAXPEBDQEA_NQEAPEBDH@Z@4HA
	DD	imagerel ?dtor$1@?0??MultiCombo@ImGui@@YAXPEBDQEA_NQEAPEBDH@Z@4HA+27
	DD	imagerel $unwind$?dtor$1@?0??MultiCombo@ImGui@@YAXPEBDQEA_NQEAPEBDH@Z@4HA
$pdata$?dtor$2@?0??MultiCombo@ImGui@@YAXPEBDQEA_NQEAPEBDH@Z@4HA DD imagerel ?dtor$2@?0??MultiCombo@ImGui@@YAXPEBDQEA_NQEAPEBDH@Z@4HA
	DD	imagerel ?dtor$2@?0??MultiCombo@ImGui@@YAXPEBDQEA_NQEAPEBDH@Z@4HA+27
	DD	imagerel $unwind$?dtor$2@?0??MultiCombo@ImGui@@YAXPEBDQEA_NQEAPEBDH@Z@4HA
pdata	ENDS
pdata	SEGMENT
$pdata$?DragFloat@ImGui@@YA_NPEBDPEAMMMM0M@Z DD imagerel $LN3
	DD	imagerel $LN3+102
	DD	imagerel $unwind$?DragFloat@ImGui@@YA_NPEBDPEAMMMM0M@Z
$pdata$?DragFloat2@ImGui@@YA_NPEBDQEAMMMM0M@Z DD imagerel $LN3
	DD	imagerel $LN3+120
	DD	imagerel $unwind$?DragFloat2@ImGui@@YA_NPEBDQEAMMMM0M@Z
$pdata$?DragFloat3@ImGui@@YA_NPEBDQEAMMMM0M@Z DD imagerel $LN3
	DD	imagerel $LN3+120
	DD	imagerel $unwind$?DragFloat3@ImGui@@YA_NPEBDQEAMMMM0M@Z
$pdata$?DragFloat4@ImGui@@YA_NPEBDQEAMMMM0M@Z DD imagerel $LN3
	DD	imagerel $LN3+120
	DD	imagerel $unwind$?DragFloat4@ImGui@@YA_NPEBDQEAMMMM0M@Z
$pdata$?DragFloatRange2@ImGui@@YA_NPEBDPEAM1MMM00M@Z DD imagerel $LN14
	DD	imagerel $LN14+691
	DD	imagerel $unwind$?DragFloatRange2@ImGui@@YA_NPEBDPEAM1MMM00M@Z
$pdata$?DragInt@ImGui@@YA_NPEBDPEAHMHH0@Z DD imagerel $LN3
	DD	imagerel $LN3+97
	DD	imagerel $unwind$?DragInt@ImGui@@YA_NPEBDPEAHMHH0@Z
$pdata$?DragInt2@ImGui@@YA_NPEBDQEAHMHH0@Z DD imagerel $LN3
	DD	imagerel $LN3+115
	DD	imagerel $unwind$?DragInt2@ImGui@@YA_NPEBDQEAHMHH0@Z
$pdata$?DragInt3@ImGui@@YA_NPEBDQEAHMHH0@Z DD imagerel $LN3
	DD	imagerel $LN3+115
	DD	imagerel $unwind$?DragInt3@ImGui@@YA_NPEBDQEAHMHH0@Z
$pdata$?DragInt4@ImGui@@YA_NPEBDQEAHMHH0@Z DD imagerel $LN3
	DD	imagerel $LN3+115
	DD	imagerel $unwind$?DragInt4@ImGui@@YA_NPEBDQEAHMHH0@Z
$pdata$?DragIntRange2@ImGui@@YA_NPEBDPEAH1MHH00@Z DD imagerel $LN14
	DD	imagerel $LN14+581
	DD	imagerel $unwind$?DragIntRange2@ImGui@@YA_NPEBDPEAH1MHH00@Z
$pdata$?DragScalar@ImGui@@YA_NPEBDHPEAXMPEBX20M@Z DD imagerel $LN28
	DD	imagerel $LN28+1625
	DD	imagerel $unwind$?DragScalar@ImGui@@YA_NPEBDHPEAXMPEBX20M@Z
$pdata$?DragScalarN@ImGui@@YA_NPEBDHPEAXHMPEBX20M@Z DD imagerel $LN7
	DD	imagerel $LN7+408
	DD	imagerel $unwind$?DragScalarN@ImGui@@YA_NPEBDHPEAXHMPEBX20M@Z
$pdata$?SliderFloat@ImGui@@YA_NPEBDPEAMMM0M_N@Z DD imagerel $LN3
	DD	imagerel $LN3+100
	DD	imagerel $unwind$?SliderFloat@ImGui@@YA_NPEBDPEAMMM0M_N@Z
$pdata$?SliderFloat2@ImGui@@YA_NPEBDQEAMMM0M@Z DD imagerel $LN3
	DD	imagerel $LN3+99
	DD	imagerel $unwind$?SliderFloat2@ImGui@@YA_NPEBDQEAMMM0M@Z
$pdata$?SliderFloat3@ImGui@@YA_NPEBDQEAMMM0M@Z DD imagerel $LN3
	DD	imagerel $LN3+99
	DD	imagerel $unwind$?SliderFloat3@ImGui@@YA_NPEBDQEAMMM0M@Z
$pdata$?SliderFloat4@ImGui@@YA_NPEBDQEAMMM0M@Z DD imagerel $LN3
	DD	imagerel $LN3+99
	DD	imagerel $unwind$?SliderFloat4@ImGui@@YA_NPEBDQEAMMM0M@Z
$pdata$?SliderAngle@ImGui@@YA_NPEBDPEAMMM0@Z DD imagerel $LN4
	DD	imagerel $LN4+187
	DD	imagerel $unwind$?SliderAngle@ImGui@@YA_NPEBDPEAMMM0@Z
$pdata$?SliderInt@ImGui@@YA_NPEBDPEAHHH0_N@Z DD imagerel $LN3
	DD	imagerel $LN3+91
	DD	imagerel $unwind$?SliderInt@ImGui@@YA_NPEBDPEAHHH0_N@Z
$pdata$?SliderInt2@ImGui@@YA_NPEBDQEAHHH0@Z DD imagerel $LN3
	DD	imagerel $LN3+96
	DD	imagerel $unwind$?SliderInt2@ImGui@@YA_NPEBDQEAHHH0@Z
$pdata$?SliderInt3@ImGui@@YA_NPEBDQEAHHH0@Z DD imagerel $LN3
	DD	imagerel $LN3+96
	DD	imagerel $unwind$?SliderInt3@ImGui@@YA_NPEBDQEAHHH0@Z
$pdata$?SliderInt4@ImGui@@YA_NPEBDQEAHHH0@Z DD imagerel $LN3
	DD	imagerel $LN3+96
	DD	imagerel $unwind$?SliderInt4@ImGui@@YA_NPEBDQEAHHH0@Z
$pdata$?SliderScalar@ImGui@@YA_NPEBDHPEAXPEBX20M_N@Z DD imagerel $LN26
	DD	imagerel $LN26+3774
	DD	imagerel $unwind$?SliderScalar@ImGui@@YA_NPEBDHPEAXPEBX20M_N@Z
$pdata$?SliderScalarN@ImGui@@YA_NPEBDHPEAXHPEBX20M@Z DD imagerel $LN7
	DD	imagerel $LN7+399
	DD	imagerel $unwind$?SliderScalarN@ImGui@@YA_NPEBDHPEAXHPEBX20M@Z
$pdata$?VSliderFloat@ImGui@@YA_NPEBDAEBUImVec2@@PEAMMM0M@Z DD imagerel $LN3
	DD	imagerel $LN3+101
	DD	imagerel $unwind$?VSliderFloat@ImGui@@YA_NPEBDAEBUImVec2@@PEAMMM0M@Z
$pdata$?VSliderInt@ImGui@@YA_NPEBDAEBUImVec2@@PEAHHH0@Z DD imagerel $LN3
	DD	imagerel $LN3+96
	DD	imagerel $unwind$?VSliderInt@ImGui@@YA_NPEBDAEBUImVec2@@PEAHHH0@Z
$pdata$?VSliderScalar@ImGui@@YA_NPEBDAEBUImVec2@@HPEAXPEBX30M@Z DD imagerel $LN21
	DD	imagerel $LN21+1477
	DD	imagerel $unwind$?VSliderScalar@ImGui@@YA_NPEBDAEBUImVec2@@HPEAXPEBX30M@Z
$pdata$?RenderTextOverlay@ImGui@@YAXUImVec2@@PEBD1_N@Z DD imagerel $LN7
	DD	imagerel $LN7+1302
	DD	imagerel $unwind$?RenderTextOverlay@ImGui@@YAXUImVec2@@PEBD1_N@Z
$pdata$?InputText@ImGui@@YA_NPEBDPEAV?$basic_string@DU?$char_traits@D@std@@V?$allocator@D@2@@std@@_KHP6AHPEAUImGuiInputTextCallbackData@@@ZPEAX@Z DD imagerel $LN5
	DD	imagerel $LN5+193
	DD	imagerel $unwind$?InputText@ImGui@@YA_NPEBDPEAV?$basic_string@DU?$char_traits@D@std@@V?$allocator@D@2@@std@@_KHP6AHPEAUImGuiInputTextCallbackData@@@ZPEAX@Z
$pdata$?InputTextMultiline@ImGui@@YA_NPEBDPEAV?$basic_string@DU?$char_traits@D@std@@V?$allocator@D@2@@std@@AEBUImVec2@@HP6AHPEAUImGuiInputTextCallbackData@@@ZPEAX@Z DD imagerel $LN3
	DD	imagerel $LN3+189
	DD	imagerel $unwind$?InputTextMultiline@ImGui@@YA_NPEBDPEAV?$basic_string@DU?$char_traits@D@std@@V?$allocator@D@2@@std@@AEBUImVec2@@HP6AHPEAUImGuiInputTextCallbackData@@@ZPEAX@Z
$pdata$?InputText@ImGui@@YA_NPEBDPEAD_KHP6AHPEAUImGuiInputTextCallbackData@@@ZPEAX@Z DD imagerel $LN3
	DD	imagerel $LN3+102
	DD	imagerel $unwind$?InputText@ImGui@@YA_NPEBDPEAD_KHP6AHPEAUImGuiInputTextCallbackData@@@ZPEAX@Z
$pdata$?InputTextMultiline@ImGui@@YA_NPEBDPEAD_KAEBUImVec2@@HP6AHPEAUImGuiInputTextCallbackData@@@ZPEAX@Z DD imagerel $LN3
	DD	imagerel $LN3+89
	DD	imagerel $unwind$?InputTextMultiline@ImGui@@YA_NPEBDPEAD_KAEBUImVec2@@HP6AHPEAUImGuiInputTextCallbackData@@@ZPEAX@Z
$pdata$?InputFloat@ImGui@@YA_NPEBDPEAMMM0H@Z DD imagerel $LN7
	DD	imagerel $LN7+202
	DD	imagerel $unwind$?InputFloat@ImGui@@YA_NPEBDPEAMMM0H@Z
$pdata$?InputFloat2@ImGui@@YA_NPEBDQEAM0H@Z DD imagerel $LN3
	DD	imagerel $LN3+91
	DD	imagerel $unwind$?InputFloat2@ImGui@@YA_NPEBDQEAM0H@Z
$pdata$?InputFloat3@ImGui@@YA_NPEBDQEAM0H@Z DD imagerel $LN3
	DD	imagerel $LN3+91
	DD	imagerel $unwind$?InputFloat3@ImGui@@YA_NPEBDQEAM0H@Z
$pdata$?InputFloat4@ImGui@@YA_NPEBDQEAM0H@Z DD imagerel $LN3
	DD	imagerel $LN3+91
	DD	imagerel $unwind$?InputFloat4@ImGui@@YA_NPEBDQEAM0H@Z
$pdata$?InputInt@ImGui@@YA_NPEBDPEAHHHH@Z DD imagerel $LN9
	DD	imagerel $LN9+216
	DD	imagerel $unwind$?InputInt@ImGui@@YA_NPEBDPEAHHHH@Z
$pdata$?InputInt2@ImGui@@YA_NPEBDQEAHH@Z DD imagerel $LN3
	DD	imagerel $LN3+85
	DD	imagerel $unwind$?InputInt2@ImGui@@YA_NPEBDQEAHH@Z
$pdata$?InputInt3@ImGui@@YA_NPEBDQEAHH@Z DD imagerel $LN3
	DD	imagerel $LN3+85
	DD	imagerel $unwind$?InputInt3@ImGui@@YA_NPEBDQEAHH@Z
$pdata$?InputInt4@ImGui@@YA_NPEBDQEAHH@Z DD imagerel $LN3
	DD	imagerel $LN3+85
	DD	imagerel $unwind$?InputInt4@ImGui@@YA_NPEBDQEAHH@Z
$pdata$?InputDouble@ImGui@@YA_NPEBDPEANNN0H@Z DD imagerel $LN7
	DD	imagerel $LN7+204
	DD	imagerel $unwind$?InputDouble@ImGui@@YA_NPEBDPEANNN0H@Z
$pdata$?InputScalar@ImGui@@YA_NPEBDHPEAXPEBX20H@Z DD imagerel $LN17
	DD	imagerel $LN17+1120
	DD	imagerel $unwind$?InputScalar@ImGui@@YA_NPEBDHPEAXPEBX20H@Z
$pdata$?InputScalarN@ImGui@@YA_NPEBDHPEAXHPEBX20H@Z DD imagerel $LN7
	DD	imagerel $LN7+390
	DD	imagerel $unwind$?InputScalarN@ImGui@@YA_NPEBDHPEAXHPEBX20H@Z
$pdata$?ColorEdit3@ImGui@@YA_NPEBDQEAMH@Z DD imagerel $LN3
	DD	imagerel $LN3+49
	DD	imagerel $unwind$?ColorEdit3@ImGui@@YA_NPEBDQEAMH@Z
$pdata$?ColorEdit4@ImGui@@YA_NPEBDQEAMH@Z DD imagerel $LN117
	DD	imagerel $LN117+5840
	DD	imagerel $unwind$?ColorEdit4@ImGui@@YA_NPEBDQEAMH@Z
pdata	ENDS
pdata	SEGMENT
$pdata$?dtor$0@?0??ColorEdit4@ImGui@@YA_NPEBDQEAMH@Z@4HA DD imagerel ?dtor$0@?0??ColorEdit4@ImGui@@YA_NPEBDQEAMH@Z@4HA
	DD	imagerel ?dtor$0@?0??ColorEdit4@ImGui@@YA_NPEBDQEAMH@Z@4HA+27
	DD	imagerel $unwind$?dtor$0@?0??ColorEdit4@ImGui@@YA_NPEBDQEAMH@Z@4HA
$pdata$?dtor$1@?0??ColorEdit4@ImGui@@YA_NPEBDQEAMH@Z@4HA DD imagerel ?dtor$1@?0??ColorEdit4@ImGui@@YA_NPEBDQEAMH@Z@4HA
	DD	imagerel ?dtor$1@?0??ColorEdit4@ImGui@@YA_NPEBDQEAMH@Z@4HA+27
	DD	imagerel $unwind$?dtor$1@?0??ColorEdit4@ImGui@@YA_NPEBDQEAMH@Z@4HA
$pdata$?dtor$2@?0??ColorEdit4@ImGui@@YA_NPEBDQEAMH@Z@4HA DD imagerel ?dtor$2@?0??ColorEdit4@ImGui@@YA_NPEBDQEAMH@Z@4HA
	DD	imagerel ?dtor$2@?0??ColorEdit4@ImGui@@YA_NPEBDQEAMH@Z@4HA+27
	DD	imagerel $unwind$?dtor$2@?0??ColorEdit4@ImGui@@YA_NPEBDQEAMH@Z@4HA
$pdata$?dtor$3@?0??ColorEdit4@ImGui@@YA_NPEBDQEAMH@Z@4HA DD imagerel ?dtor$3@?0??ColorEdit4@ImGui@@YA_NPEBDQEAMH@Z@4HA
	DD	imagerel ?dtor$3@?0??ColorEdit4@ImGui@@YA_NPEBDQEAMH@Z@4HA+27
	DD	imagerel $unwind$?dtor$3@?0??ColorEdit4@ImGui@@YA_NPEBDQEAMH@Z@4HA
$pdata$?dtor$5@?0??ColorEdit4@ImGui@@YA_NPEBDQEAMH@Z@4HA DD imagerel ?dtor$5@?0??ColorEdit4@ImGui@@YA_NPEBDQEAMH@Z@4HA
	DD	imagerel ?dtor$5@?0??ColorEdit4@ImGui@@YA_NPEBDQEAMH@Z@4HA+27
	DD	imagerel $unwind$?dtor$5@?0??ColorEdit4@ImGui@@YA_NPEBDQEAMH@Z@4HA
$pdata$?dtor$6@?0??ColorEdit4@ImGui@@YA_NPEBDQEAMH@Z@4HA DD imagerel ?dtor$6@?0??ColorEdit4@ImGui@@YA_NPEBDQEAMH@Z@4HA
	DD	imagerel ?dtor$6@?0??ColorEdit4@ImGui@@YA_NPEBDQEAMH@Z@4HA+27
	DD	imagerel $unwind$?dtor$6@?0??ColorEdit4@ImGui@@YA_NPEBDQEAMH@Z@4HA
$pdata$?dtor$7@?0??ColorEdit4@ImGui@@YA_NPEBDQEAMH@Z@4HA DD imagerel ?dtor$7@?0??ColorEdit4@ImGui@@YA_NPEBDQEAMH@Z@4HA
	DD	imagerel ?dtor$7@?0??ColorEdit4@ImGui@@YA_NPEBDQEAMH@Z@4HA+27
	DD	imagerel $unwind$?dtor$7@?0??ColorEdit4@ImGui@@YA_NPEBDQEAMH@Z@4HA
$pdata$?dtor$8@?0??ColorEdit4@ImGui@@YA_NPEBDQEAMH@Z@4HA DD imagerel ?dtor$8@?0??ColorEdit4@ImGui@@YA_NPEBDQEAMH@Z@4HA
	DD	imagerel ?dtor$8@?0??ColorEdit4@ImGui@@YA_NPEBDQEAMH@Z@4HA+27
	DD	imagerel $unwind$?dtor$8@?0??ColorEdit4@ImGui@@YA_NPEBDQEAMH@Z@4HA
$pdata$?dtor$9@?0??ColorEdit4@ImGui@@YA_NPEBDQEAMH@Z@4HA DD imagerel ?dtor$9@?0??ColorEdit4@ImGui@@YA_NPEBDQEAMH@Z@4HA
	DD	imagerel ?dtor$9@?0??ColorEdit4@ImGui@@YA_NPEBDQEAMH@Z@4HA+27
	DD	imagerel $unwind$?dtor$9@?0??ColorEdit4@ImGui@@YA_NPEBDQEAMH@Z@4HA
$pdata$?dtor$10@?0??ColorEdit4@ImGui@@YA_NPEBDQEAMH@Z@4HA DD imagerel ?dtor$10@?0??ColorEdit4@ImGui@@YA_NPEBDQEAMH@Z@4HA
	DD	imagerel ?dtor$10@?0??ColorEdit4@ImGui@@YA_NPEBDQEAMH@Z@4HA+27
	DD	imagerel $unwind$?dtor$10@?0??ColorEdit4@ImGui@@YA_NPEBDQEAMH@Z@4HA
$pdata$?dtor$11@?0??ColorEdit4@ImGui@@YA_NPEBDQEAMH@Z@4HA DD imagerel ?dtor$11@?0??ColorEdit4@ImGui@@YA_NPEBDQEAMH@Z@4HA
	DD	imagerel ?dtor$11@?0??ColorEdit4@ImGui@@YA_NPEBDQEAMH@Z@4HA+27
	DD	imagerel $unwind$?dtor$11@?0??ColorEdit4@ImGui@@YA_NPEBDQEAMH@Z@4HA
$pdata$?dtor$12@?0??ColorEdit4@ImGui@@YA_NPEBDQEAMH@Z@4HA DD imagerel ?dtor$12@?0??ColorEdit4@ImGui@@YA_NPEBDQEAMH@Z@4HA
	DD	imagerel ?dtor$12@?0??ColorEdit4@ImGui@@YA_NPEBDQEAMH@Z@4HA+27
	DD	imagerel $unwind$?dtor$12@?0??ColorEdit4@ImGui@@YA_NPEBDQEAMH@Z@4HA
$pdata$?dtor$13@?0??ColorEdit4@ImGui@@YA_NPEBDQEAMH@Z@4HA DD imagerel ?dtor$13@?0??ColorEdit4@ImGui@@YA_NPEBDQEAMH@Z@4HA
	DD	imagerel ?dtor$13@?0??ColorEdit4@ImGui@@YA_NPEBDQEAMH@Z@4HA+27
	DD	imagerel $unwind$?dtor$13@?0??ColorEdit4@ImGui@@YA_NPEBDQEAMH@Z@4HA
$pdata$?dtor$14@?0??ColorEdit4@ImGui@@YA_NPEBDQEAMH@Z@4HA DD imagerel ?dtor$14@?0??ColorEdit4@ImGui@@YA_NPEBDQEAMH@Z@4HA
	DD	imagerel ?dtor$14@?0??ColorEdit4@ImGui@@YA_NPEBDQEAMH@Z@4HA+27
	DD	imagerel $unwind$?dtor$14@?0??ColorEdit4@ImGui@@YA_NPEBDQEAMH@Z@4HA
$pdata$?dtor$15@?0??ColorEdit4@ImGui@@YA_NPEBDQEAMH@Z@4HA DD imagerel ?dtor$15@?0??ColorEdit4@ImGui@@YA_NPEBDQEAMH@Z@4HA
	DD	imagerel ?dtor$15@?0??ColorEdit4@ImGui@@YA_NPEBDQEAMH@Z@4HA+27
	DD	imagerel $unwind$?dtor$15@?0??ColorEdit4@ImGui@@YA_NPEBDQEAMH@Z@4HA
$pdata$?dtor$16@?0??ColorEdit4@ImGui@@YA_NPEBDQEAMH@Z@4HA DD imagerel ?dtor$16@?0??ColorEdit4@ImGui@@YA_NPEBDQEAMH@Z@4HA
	DD	imagerel ?dtor$16@?0??ColorEdit4@ImGui@@YA_NPEBDQEAMH@Z@4HA+27
	DD	imagerel $unwind$?dtor$16@?0??ColorEdit4@ImGui@@YA_NPEBDQEAMH@Z@4HA
$pdata$?dtor$18@?0??ColorEdit4@ImGui@@YA_NPEBDQEAMH@Z@4HA DD imagerel ?dtor$18@?0??ColorEdit4@ImGui@@YA_NPEBDQEAMH@Z@4HA
	DD	imagerel ?dtor$18@?0??ColorEdit4@ImGui@@YA_NPEBDQEAMH@Z@4HA+27
	DD	imagerel $unwind$?dtor$18@?0??ColorEdit4@ImGui@@YA_NPEBDQEAMH@Z@4HA
$pdata$?dtor$19@?0??ColorEdit4@ImGui@@YA_NPEBDQEAMH@Z@4HA DD imagerel ?dtor$19@?0??ColorEdit4@ImGui@@YA_NPEBDQEAMH@Z@4HA
	DD	imagerel ?dtor$19@?0??ColorEdit4@ImGui@@YA_NPEBDQEAMH@Z@4HA+27
	DD	imagerel $unwind$?dtor$19@?0??ColorEdit4@ImGui@@YA_NPEBDQEAMH@Z@4HA
$pdata$?dtor$20@?0??ColorEdit4@ImGui@@YA_NPEBDQEAMH@Z@4HA DD imagerel ?dtor$20@?0??ColorEdit4@ImGui@@YA_NPEBDQEAMH@Z@4HA
	DD	imagerel ?dtor$20@?0??ColorEdit4@ImGui@@YA_NPEBDQEAMH@Z@4HA+27
	DD	imagerel $unwind$?dtor$20@?0??ColorEdit4@ImGui@@YA_NPEBDQEAMH@Z@4HA
$pdata$?dtor$21@?0??ColorEdit4@ImGui@@YA_NPEBDQEAMH@Z@4HA DD imagerel ?dtor$21@?0??ColorEdit4@ImGui@@YA_NPEBDQEAMH@Z@4HA
	DD	imagerel ?dtor$21@?0??ColorEdit4@ImGui@@YA_NPEBDQEAMH@Z@4HA+27
	DD	imagerel $unwind$?dtor$21@?0??ColorEdit4@ImGui@@YA_NPEBDQEAMH@Z@4HA
$pdata$?dtor$22@?0??ColorEdit4@ImGui@@YA_NPEBDQEAMH@Z@4HA DD imagerel ?dtor$22@?0??ColorEdit4@ImGui@@YA_NPEBDQEAMH@Z@4HA
	DD	imagerel ?dtor$22@?0??ColorEdit4@ImGui@@YA_NPEBDQEAMH@Z@4HA+27
	DD	imagerel $unwind$?dtor$22@?0??ColorEdit4@ImGui@@YA_NPEBDQEAMH@Z@4HA
$pdata$?dtor$23@?0??ColorEdit4@ImGui@@YA_NPEBDQEAMH@Z@4HA DD imagerel ?dtor$23@?0??ColorEdit4@ImGui@@YA_NPEBDQEAMH@Z@4HA
	DD	imagerel ?dtor$23@?0??ColorEdit4@ImGui@@YA_NPEBDQEAMH@Z@4HA+27
	DD	imagerel $unwind$?dtor$23@?0??ColorEdit4@ImGui@@YA_NPEBDQEAMH@Z@4HA
$pdata$?dtor$24@?0??ColorEdit4@ImGui@@YA_NPEBDQEAMH@Z@4HA DD imagerel ?dtor$24@?0??ColorEdit4@ImGui@@YA_NPEBDQEAMH@Z@4HA
	DD	imagerel ?dtor$24@?0??ColorEdit4@ImGui@@YA_NPEBDQEAMH@Z@4HA+27
	DD	imagerel $unwind$?dtor$24@?0??ColorEdit4@ImGui@@YA_NPEBDQEAMH@Z@4HA
$pdata$?dtor$25@?0??ColorEdit4@ImGui@@YA_NPEBDQEAMH@Z@4HA DD imagerel ?dtor$25@?0??ColorEdit4@ImGui@@YA_NPEBDQEAMH@Z@4HA
	DD	imagerel ?dtor$25@?0??ColorEdit4@ImGui@@YA_NPEBDQEAMH@Z@4HA+27
	DD	imagerel $unwind$?dtor$25@?0??ColorEdit4@ImGui@@YA_NPEBDQEAMH@Z@4HA
$pdata$?dtor$26@?0??ColorEdit4@ImGui@@YA_NPEBDQEAMH@Z@4HA DD imagerel ?dtor$26@?0??ColorEdit4@ImGui@@YA_NPEBDQEAMH@Z@4HA
	DD	imagerel ?dtor$26@?0??ColorEdit4@ImGui@@YA_NPEBDQEAMH@Z@4HA+27
	DD	imagerel $unwind$?dtor$26@?0??ColorEdit4@ImGui@@YA_NPEBDQEAMH@Z@4HA
$pdata$?dtor$27@?0??ColorEdit4@ImGui@@YA_NPEBDQEAMH@Z@4HA DD imagerel ?dtor$27@?0??ColorEdit4@ImGui@@YA_NPEBDQEAMH@Z@4HA
	DD	imagerel ?dtor$27@?0??ColorEdit4@ImGui@@YA_NPEBDQEAMH@Z@4HA+27
	DD	imagerel $unwind$?dtor$27@?0??ColorEdit4@ImGui@@YA_NPEBDQEAMH@Z@4HA
$pdata$?dtor$28@?0??ColorEdit4@ImGui@@YA_NPEBDQEAMH@Z@4HA DD imagerel ?dtor$28@?0??ColorEdit4@ImGui@@YA_NPEBDQEAMH@Z@4HA
	DD	imagerel ?dtor$28@?0??ColorEdit4@ImGui@@YA_NPEBDQEAMH@Z@4HA+27
	DD	imagerel $unwind$?dtor$28@?0??ColorEdit4@ImGui@@YA_NPEBDQEAMH@Z@4HA
$pdata$?dtor$29@?0??ColorEdit4@ImGui@@YA_NPEBDQEAMH@Z@4HA DD imagerel ?dtor$29@?0??ColorEdit4@ImGui@@YA_NPEBDQEAMH@Z@4HA
	DD	imagerel ?dtor$29@?0??ColorEdit4@ImGui@@YA_NPEBDQEAMH@Z@4HA+27
	DD	imagerel $unwind$?dtor$29@?0??ColorEdit4@ImGui@@YA_NPEBDQEAMH@Z@4HA
pdata	ENDS
pdata	SEGMENT
$pdata$?ColorPicker3@ImGui@@YA_NPEBDQEAMH@Z DD imagerel $LN4
	DD	imagerel $LN4+284
	DD	imagerel $unwind$?ColorPicker3@ImGui@@YA_NPEBDQEAMH@Z
$pdata$?ColorPicker4@ImGui@@YA_NPEBDQEAMHPEBM@Z DD imagerel $LN87
	DD	imagerel $LN87+9303
	DD	imagerel $unwind$?ColorPicker4@ImGui@@YA_NPEBDQEAMHPEBM@Z
$pdata$?ColorButton@ImGui@@YA_NPEBDAEBUImVec4@@HUImVec2@@@Z DD imagerel $LN21
	DD	imagerel $LN21+2387
	DD	imagerel $unwind$?ColorButton@ImGui@@YA_NPEBDAEBUImVec4@@HUImVec2@@@Z
$pdata$?SetColorEditOptions@ImGui@@YAXH@Z DD imagerel $LN6
	DD	imagerel $LN6+113
	DD	imagerel $unwind$?SetColorEditOptions@ImGui@@YAXH@Z
$pdata$?BufferingBar@ImGui@@YA_NPEBDMAEBUImVec2@@AEBI2@Z DD imagerel $LN5
	DD	imagerel $LN5+1378
	DD	imagerel $unwind$?BufferingBar@ImGui@@YA_NPEBDMAEBUImVec2@@AEBI2@Z
$pdata$?Spinner@ImGui@@YA_NPEBDMHAEBI@Z DD imagerel $LN8
	DD	imagerel $LN8+888
	DD	imagerel $unwind$?Spinner@ImGui@@YA_NPEBDMHAEBI@Z
$pdata$?TreeNode@ImGui@@YA_NPEBD@Z DD imagerel $LN4
	DD	imagerel $LN4+76
	DD	imagerel $unwind$?TreeNode@ImGui@@YA_NPEBD@Z
$pdata$?TreeNode@ImGui@@YA_NPEBD0ZZ DD imagerel $LN3
	DD	imagerel $LN3+79
	DD	imagerel $unwind$?TreeNode@ImGui@@YA_NPEBD0ZZ
$pdata$?TreeNode@ImGui@@YA_NPEBXPEBDZZ DD imagerel $LN3
	DD	imagerel $LN3+79
	DD	imagerel $unwind$?TreeNode@ImGui@@YA_NPEBXPEBDZZ
$pdata$?TreeNodeV@ImGui@@YA_NPEBD0PEAD@Z DD imagerel $LN3
	DD	imagerel $LN3+46
	DD	imagerel $unwind$?TreeNodeV@ImGui@@YA_NPEBD0PEAD@Z
$pdata$?TreeNodeV@ImGui@@YA_NPEBXPEBDPEAD@Z DD imagerel $LN3
	DD	imagerel $LN3+46
	DD	imagerel $unwind$?TreeNodeV@ImGui@@YA_NPEBXPEBDPEAD@Z
$pdata$?TreeNodeEx@ImGui@@YA_NPEBDH@Z DD imagerel $LN4
	DD	imagerel $LN4+82
	DD	imagerel $unwind$?TreeNodeEx@ImGui@@YA_NPEBDH@Z
$pdata$?TreeNodeEx@ImGui@@YA_NPEBDH0ZZ DD imagerel $LN3
	DD	imagerel $LN3+80
	DD	imagerel $unwind$?TreeNodeEx@ImGui@@YA_NPEBDH0ZZ
$pdata$?TreeNodeEx@ImGui@@YA_NPEBXHPEBDZZ DD imagerel $LN3
	DD	imagerel $LN3+80
	DD	imagerel $unwind$?TreeNodeEx@ImGui@@YA_NPEBXHPEBDZZ
$pdata$?TreeNodeExV@ImGui@@YA_NPEBDH0PEAD@Z DD imagerel $LN4
	DD	imagerel $LN4+179
	DD	imagerel $unwind$?TreeNodeExV@ImGui@@YA_NPEBDH0PEAD@Z
$pdata$?TreeNodeExV@ImGui@@YA_NPEBXHPEBDPEAD@Z DD imagerel $LN4
	DD	imagerel $LN4+176
	DD	imagerel $unwind$?TreeNodeExV@ImGui@@YA_NPEBXHPEBDPEAD@Z
$pdata$?TreePush@ImGui@@YAXPEBD@Z DD imagerel $LN5
	DD	imagerel $LN5+99
	DD	imagerel $unwind$?TreePush@ImGui@@YAXPEBD@Z
$pdata$?TreePush@ImGui@@YAXPEBX@Z DD imagerel $LN5
	DD	imagerel $LN5+99
	DD	imagerel $unwind$?TreePush@ImGui@@YAXPEBX@Z
$pdata$?TreePop@ImGui@@YAXXZ DD imagerel $LN5
	DD	imagerel $LN5+309
	DD	imagerel $unwind$?TreePop@ImGui@@YAXXZ
$pdata$?TreeAdvanceToLabelPos@ImGui@@YAXXZ DD imagerel $LN3
	DD	imagerel $LN3+90
	DD	imagerel $unwind$?TreeAdvanceToLabelPos@ImGui@@YAXXZ
$pdata$?GetTreeNodeToLabelSpacing@ImGui@@YAMXZ DD imagerel $LN3
	DD	imagerel $LN3+59
	DD	imagerel $unwind$?GetTreeNodeToLabelSpacing@ImGui@@YAMXZ
$pdata$?SetNextTreeNodeOpen@ImGui@@YAX_NH@Z DD imagerel $LN6
	DD	imagerel $LN6+104
	DD	imagerel $unwind$?SetNextTreeNodeOpen@ImGui@@YAX_NH@Z
$pdata$?CollapsingHeader@ImGui@@YA_NPEBDH@Z DD imagerel $LN4
	DD	imagerel $LN4+95
	DD	imagerel $unwind$?CollapsingHeader@ImGui@@YA_NPEBDH@Z
$pdata$?CollapsingHeader@ImGui@@YA_NPEBDPEA_NH@Z DD imagerel $LN9
	DD	imagerel $LN9+466
	DD	imagerel $unwind$?CollapsingHeader@ImGui@@YA_NPEBDPEA_NH@Z
$pdata$?Selectable@ImGui@@YA_NPEBD_NHAEBUImVec2@@@Z DD imagerel $LN45
	DD	imagerel $LN45+2029
	DD	imagerel $unwind$?Selectable@ImGui@@YA_NPEBD_NHAEBUImVec2@@@Z
$pdata$?Selectable@ImGui@@YA_NPEBDPEA_NHAEBUImVec2@@@Z DD imagerel $LN6
	DD	imagerel $LN6+112
	DD	imagerel $unwind$?Selectable@ImGui@@YA_NPEBDPEA_NHAEBUImVec2@@@Z
$pdata$?ListBox@ImGui@@YA_NPEBDPEAHQEBQEBDHH@Z DD imagerel $LN3
	DD	imagerel $LN3+81
	DD	imagerel $unwind$?ListBox@ImGui@@YA_NPEBDPEAHQEBQEBDHH@Z
$pdata$?ListBox@ImGui@@YA_NPEBDPEAHP6A_NPEAXHPEAPEBD@Z2HH@Z DD imagerel $LN16
	DD	imagerel $LN16+443
	DD	imagerel $unwind$?ListBox@ImGui@@YA_NPEBDPEAHP6A_NPEAXHPEAPEBD@Z2HH@Z
pdata	ENDS
pdata	SEGMENT
$pdata$?dtor$0@?0??ListBox@ImGui@@YA_NPEBDPEAHP6A_NPEAXHPEAPEBD@Z2HH@Z@4HA DD imagerel ?dtor$0@?0??ListBox@ImGui@@YA_NPEBDPEAHP6A_NPEAXHPEAPEBD@Z2HH@Z@4HA
	DD	imagerel ?dtor$0@?0??ListBox@ImGui@@YA_NPEBDPEAHP6A_NPEAXHPEAPEBD@Z2HH@Z@4HA+24
	DD	imagerel $unwind$?dtor$0@?0??ListBox@ImGui@@YA_NPEBDPEAHP6A_NPEAXHPEAPEBD@Z2HH@Z@4HA
pdata	ENDS
pdata	SEGMENT
$pdata$?ListBoxHeader@ImGui@@YA_NPEBDAEBUImVec2@@@Z DD imagerel $LN8
	DD	imagerel $LN8+711
	DD	imagerel $unwind$?ListBoxHeader@ImGui@@YA_NPEBDAEBUImVec2@@@Z
$pdata$?ListBoxHeader@ImGui@@YA_NPEBDHH@Z DD imagerel $LN6
	DD	imagerel $LN6+195
	DD	imagerel $unwind$?ListBoxHeader@ImGui@@YA_NPEBDHH@Z
$pdata$?ListBoxFooter@ImGui@@YAXXZ DD imagerel $LN3
	DD	imagerel $LN3+135
	DD	imagerel $unwind$?ListBoxFooter@ImGui@@YAXXZ
$pdata$?PlotLines@ImGui@@YAXPEBDPEBMHH0MMUImVec2@@H@Z DD imagerel $LN3
	DD	imagerel $LN3+155
	DD	imagerel $unwind$?PlotLines@ImGui@@YAXPEBDPEBMHH0MMUImVec2@@H@Z
$pdata$?PlotLines@ImGui@@YAXPEBDP6AMPEAXH@Z1HH0MMUImVec2@@@Z DD imagerel $LN3
	DD	imagerel $LN3+127
	DD	imagerel $unwind$?PlotLines@ImGui@@YAXPEBDP6AMPEAXH@Z1HH0MMUImVec2@@@Z
$pdata$?PlotHistogram@ImGui@@YAXPEBDPEBMHH0MMUImVec2@@H@Z DD imagerel $LN3
	DD	imagerel $LN3+158
	DD	imagerel $unwind$?PlotHistogram@ImGui@@YAXPEBDPEBMHH0MMUImVec2@@H@Z
$pdata$?PlotHistogram@ImGui@@YAXPEBDP6AMPEAXH@Z1HH0MMUImVec2@@@Z DD imagerel $LN3
	DD	imagerel $LN3+130
	DD	imagerel $unwind$?PlotHistogram@ImGui@@YAXPEBDP6AMPEAXH@Z1HH0MMUImVec2@@@Z
$pdata$?Value@ImGui@@YAXPEBD_N@Z DD imagerel $LN5
	DD	imagerel $LN5+76
	DD	imagerel $unwind$?Value@ImGui@@YAXPEBD_N@Z
$pdata$?Value@ImGui@@YAXPEBDH@Z DD imagerel $LN3
	DD	imagerel $LN3+41
	DD	imagerel $unwind$?Value@ImGui@@YAXPEBDH@Z
$pdata$?Value@ImGui@@YAXPEBDI@Z DD imagerel $LN3
	DD	imagerel $LN3+41
	DD	imagerel $unwind$?Value@ImGui@@YAXPEBDI@Z
$pdata$?Value@ImGui@@YAXPEBDM0@Z DD imagerel $LN5
	DD	imagerel $LN5+170
	DD	imagerel $unwind$?Value@ImGui@@YAXPEBDM0@Z
$pdata$?BeginMainMenuBar@ImGui@@YA_NXZ DD imagerel $LN6
	DD	imagerel $LN6+435
	DD	imagerel $unwind$?BeginMainMenuBar@ImGui@@YA_NXZ
$pdata$?EndMainMenuBar@ImGui@@YAXXZ DD imagerel $LN4
	DD	imagerel $LN4+90
	DD	imagerel $unwind$?EndMainMenuBar@ImGui@@YAXXZ
$pdata$?BeginMenuBar@ImGui@@YA_NXZ DD imagerel $LN5
	DD	imagerel $LN5+442
	DD	imagerel $unwind$?BeginMenuBar@ImGui@@YA_NXZ
$pdata$?EndMenuBar@ImGui@@YAXXZ DD imagerel $LN9
	DD	imagerel $LN9+510
	DD	imagerel $unwind$?EndMenuBar@ImGui@@YAXXZ
$pdata$?BeginMenu@ImGui@@YA_NPEBD_N@Z DD imagerel $LN53
	DD	imagerel $LN53+3033
	DD	imagerel $unwind$?BeginMenu@ImGui@@YA_NPEBD_N@Z
$pdata$?EndMenu@ImGui@@YAXXZ DD imagerel $LN4
	DD	imagerel $LN4+149
	DD	imagerel $unwind$?EndMenu@ImGui@@YAXXZ
$pdata$?MenuItem@ImGui@@YA_NPEBD0_N1@Z DD imagerel $LN17
	DD	imagerel $LN17+1187
	DD	imagerel $unwind$?MenuItem@ImGui@@YA_NPEBD0_N1@Z
$pdata$?MenuItem@ImGui@@YA_NPEBD0PEA_N_N@Z DD imagerel $LN9
	DD	imagerel $LN9+155
	DD	imagerel $unwind$?MenuItem@ImGui@@YA_NPEBD0PEA_N_N@Z
$pdata$?BeginTabBar@ImGui@@YA_NPEBDH@Z DD imagerel $LN4
	DD	imagerel $LN4+274
	DD	imagerel $unwind$?BeginTabBar@ImGui@@YA_NPEBDH@Z
$pdata$?EndTabBar@ImGui@@YAXXZ DD imagerel $LN11
	DD	imagerel $LN11+303
	DD	imagerel $unwind$?EndTabBar@ImGui@@YAXXZ
$pdata$?BeginTabItem@ImGui@@YA_NPEBDPEA_NH@Z DD imagerel $LN5
	DD	imagerel $LN5+230
	DD	imagerel $unwind$?BeginTabItem@ImGui@@YA_NPEBDPEA_NH@Z
$pdata$?EndTabItem@ImGui@@YAXXZ DD imagerel $LN5
	DD	imagerel $LN5+152
	DD	imagerel $unwind$?EndTabItem@ImGui@@YAXXZ
$pdata$?SetTabItemClosed@ImGui@@YAXPEBD@Z DD imagerel $LN6
	DD	imagerel $LN6+171
	DD	imagerel $unwind$?SetTabItemClosed@ImGui@@YAXPEBD@Z
pdata	ENDS
;	COMDAT pdata
pdata	SEGMENT
$pdata$?_grow_capacity@?$ImVector@G@@QEBAHH@Z DD imagerel $LN7
	DD	imagerel $LN7+101
	DD	imagerel $unwind$?_grow_capacity@?$ImVector@G@@QEBAHH@Z
pdata	ENDS
;	COMDAT pdata
pdata	SEGMENT
$pdata$?resize@?$ImVector@G@@QEAAXH@Z DD imagerel $LN4
	DD	imagerel $LN4+70
	DD	imagerel $unwind$?resize@?$ImVector@G@@QEAAXH@Z
pdata	ENDS
;	COMDAT pdata
pdata	SEGMENT
$pdata$?reserve@?$ImVector@G@@QEAAXH@Z DD imagerel $LN5
	DD	imagerel $LN5+141
	DD	imagerel $unwind$?reserve@?$ImVector@G@@QEAAXH@Z
pdata	ENDS
pdata	SEGMENT
$pdata$?InsertChars@ImGuiInputTextCallbackData@@QEAAXHPEBD0@Z DD imagerel $LN11
	DD	imagerel $LN11+579
	DD	imagerel $unwind$?InsertChars@ImGuiInputTextCallbackData@@QEAAXHPEBD0@Z
$pdata$??0ImGuiInputTextCallbackData@@QEAA@XZ DD imagerel $LN3
	DD	imagerel $LN3+38
	DD	imagerel $unwind$??0ImGuiInputTextCallbackData@@QEAA@XZ
$pdata$?DeleteChars@ImGuiInputTextCallbackData@@QEAAXHH@Z DD imagerel $LN8
	DD	imagerel $LN8+281
	DD	imagerel $unwind$?DeleteChars@ImGuiInputTextCallbackData@@QEAAXHH@Z
$pdata$?InputFloat@ImGui@@YA_NPEBDPEAMMMHH@Z DD imagerel $LN4
	DD	imagerel $LN4+200
	DD	imagerel $unwind$?InputFloat@ImGui@@YA_NPEBDPEAMMMHH@Z
$pdata$?InputFloat2@ImGui@@YA_NPEBDQEAMHH@Z DD imagerel $LN4
	DD	imagerel $LN4+215
	DD	imagerel $unwind$?InputFloat2@ImGui@@YA_NPEBDQEAMHH@Z
$pdata$?InputFloat3@ImGui@@YA_NPEBDQEAMHH@Z DD imagerel $LN4
	DD	imagerel $LN4+215
	DD	imagerel $unwind$?InputFloat3@ImGui@@YA_NPEBDQEAMHH@Z
$pdata$?InputFloat4@ImGui@@YA_NPEBDQEAMHH@Z DD imagerel $LN4
	DD	imagerel $LN4+215
	DD	imagerel $unwind$?InputFloat4@ImGui@@YA_NPEBDQEAMHH@Z
pdata	ENDS
;	COMDAT pdata
pdata	SEGMENT
$pdata$??1?$ImVector@D@@QEAA@XZ DD imagerel $LN4
	DD	imagerel $LN4+41
	DD	imagerel $unwind$??1?$ImVector@D@@QEAA@XZ
pdata	ENDS
;	COMDAT pdata
pdata	SEGMENT
$pdata$?_grow_capacity@?$ImVector@D@@QEBAHH@Z DD imagerel $LN7
	DD	imagerel $LN7+101
	DD	imagerel $unwind$?_grow_capacity@?$ImVector@D@@QEBAHH@Z
pdata	ENDS
;	COMDAT pdata
pdata	SEGMENT
$pdata$?resize@?$ImVector@D@@QEAAXH@Z DD imagerel $LN4
	DD	imagerel $LN4+70
	DD	imagerel $unwind$?resize@?$ImVector@D@@QEAAXH@Z
pdata	ENDS
;	COMDAT pdata
pdata	SEGMENT
$pdata$?reserve@?$ImVector@D@@QEAAXH@Z DD imagerel $LN5
	DD	imagerel $LN5+135
	DD	imagerel $unwind$?reserve@?$ImVector@D@@QEAAXH@Z
pdata	ENDS
;	COMDAT pdata
pdata	SEGMENT
$pdata$??0ImGuiTextBuffer@@QEAA@XZ DD imagerel $LN4
	DD	imagerel $LN4+33
	DD	imagerel $unwind$??0ImGuiTextBuffer@@QEAA@XZ
pdata	ENDS
;	COMDAT pdata
pdata	SEGMENT
$pdata$?dtor$0@?0???0ImGuiTextBuffer@@QEAA@XZ@4HA DD imagerel ?dtor$0@?0???0ImGuiTextBuffer@@QEAA@XZ@4HA
	DD	imagerel ?dtor$0@?0???0ImGuiTextBuffer@@QEAA@XZ@4HA+24
	DD	imagerel $unwind$?dtor$0@?0???0ImGuiTextBuffer@@QEAA@XZ@4HA
pdata	ENDS
;	COMDAT pdata
pdata	SEGMENT
$pdata$?size@ImGuiTextBuffer@@QEBAHXZ DD imagerel $LN5
	DD	imagerel $LN5+48
	DD	imagerel $unwind$?size@ImGuiTextBuffer@@QEBAHXZ
pdata	ENDS
;	COMDAT pdata
pdata	SEGMENT
$pdata$??1ImGuiTextBuffer@@QEAA@XZ DD imagerel $LN4
	DD	imagerel $LN4+28
	DD	imagerel $unwind$??1ImGuiTextBuffer@@QEAA@XZ
pdata	ENDS
;	COMDAT pdata
pdata	SEGMENT
$pdata$?dtor$0@?0???1ImGuiTextBuffer@@QEAA@XZ@4HA DD imagerel ?dtor$0@?0???1ImGuiTextBuffer@@QEAA@XZ@4HA
	DD	imagerel ?dtor$0@?0???1ImGuiTextBuffer@@QEAA@XZ@4HA+24
	DD	imagerel $unwind$?dtor$0@?0???1ImGuiTextBuffer@@QEAA@XZ@4HA
pdata	ENDS
;	COMDAT pdata
pdata	SEGMENT
$pdata$??0ImGuiListClipper@@QEAA@HM@Z DD imagerel $LN3
	DD	imagerel $LN3+50
	DD	imagerel $unwind$??0ImGuiListClipper@@QEAA@HM@Z
pdata	ENDS
;	COMDAT pdata
pdata	SEGMENT
$pdata$??0ImColor@@QEAA@HHHH@Z DD imagerel $LN3
	DD	imagerel $LN3+147
	DD	imagerel $unwind$??0ImColor@@QEAA@HHHH@Z
pdata	ENDS
;	COMDAT pdata
pdata	SEGMENT
$pdata$??BImColor@@QEBAIXZ DD imagerel $LN3
	DD	imagerel $LN3+27
	DD	imagerel $unwind$??BImColor@@QEBAIXZ
pdata	ENDS
;	COMDAT pdata
pdata	SEGMENT
$pdata$?_grow_capacity@?$ImVector@UImVec2@@@@QEBAHH@Z DD imagerel $LN7
	DD	imagerel $LN7+101
	DD	imagerel $unwind$?_grow_capacity@?$ImVector@UImVec2@@@@QEBAHH@Z
pdata	ENDS
;	COMDAT pdata
pdata	SEGMENT
$pdata$?reserve@?$ImVector@UImVec2@@@@QEAAXH@Z DD imagerel $LN5
	DD	imagerel $LN5+143
	DD	imagerel $unwind$?reserve@?$ImVector@UImVec2@@@@QEAAXH@Z
pdata	ENDS
;	COMDAT pdata
pdata	SEGMENT
$pdata$?push_back@?$ImVector@UImVec2@@@@QEAAXAEBUImVec2@@@Z DD imagerel $LN4
	DD	imagerel $LN4+126
	DD	imagerel $unwind$?push_back@?$ImVector@UImVec2@@@@QEAAXAEBUImVec2@@@Z
pdata	ENDS
;	COMDAT pdata
pdata	SEGMENT
$pdata$?PathLineTo@ImDrawList@@QEAAXAEBUImVec2@@@Z DD imagerel $LN3
	DD	imagerel $LN3+51
	DD	imagerel $unwind$?PathLineTo@ImDrawList@@QEAAXAEBUImVec2@@@Z
pdata	ENDS
;	COMDAT pdata
pdata	SEGMENT
$pdata$?PathFillConvex@ImDrawList@@QEAAXI@Z DD imagerel $LN3
	DD	imagerel $LN3+72
	DD	imagerel $unwind$?PathFillConvex@ImDrawList@@QEAAXI@Z
pdata	ENDS
;	COMDAT pdata
pdata	SEGMENT
$pdata$?PathStroke@ImDrawList@@QEAAXI_NM@Z DD imagerel $LN3
	DD	imagerel $LN3+104
	DD	imagerel $unwind$?PathStroke@ImDrawList@@QEAAXI_NM@Z
pdata	ENDS
;	COMDAT pdata
pdata	SEGMENT
$pdata$?PrimVtx@ImDrawList@@QEAAXAEBUImVec2@@0I@Z DD imagerel $LN3
	DD	imagerel $LN3+74
	DD	imagerel $unwind$?PrimVtx@ImDrawList@@QEAAXAEBUImVec2@@0I@Z
pdata	ENDS
;	COMDAT pdata
pdata	SEGMENT
$pdata$?GetCharAdvance@ImFont@@QEBAMG@Z DD imagerel $LN5
	DD	imagerel $LN5+94
	DD	imagerel $unwind$?GetCharAdvance@ImFont@@QEBAMG@Z
pdata	ENDS
pdata	SEGMENT
$pdata$?ImCharIsBlankA@@YA_ND@Z DD imagerel ?ImCharIsBlankA@@YA_ND@Z
	DD	imagerel ?ImCharIsBlankA@@YA_ND@Z+53
	DD	imagerel $unwind$?ImCharIsBlankA@@YA_ND@Z
$pdata$?ImCharIsBlankW@@YA_NI@Z DD imagerel ?ImCharIsBlankW@@YA_NI@Z
	DD	imagerel ?ImCharIsBlankW@@YA_NI@Z+57
	DD	imagerel $unwind$?ImCharIsBlankW@@YA_NI@Z
$pdata$?ImParseFormatFindStart@@YAPEBDPEBD@Z DD imagerel $LN8
	DD	imagerel $LN8+126
	DD	imagerel $unwind$?ImParseFormatFindStart@@YAPEBDPEBD@Z
$pdata$?ImParseFormatFindEnd@@YAPEBDPEBD@Z DD imagerel $LN9
	DD	imagerel $LN9+235
	DD	imagerel $unwind$?ImParseFormatFindEnd@@YAPEBDPEBD@Z
$pdata$?ImParseFormatTrimDecorations@@YAPEBDPEBDPEAD_K@Z DD imagerel $LN5
	DD	imagerel $LN5+168
	DD	imagerel $unwind$?ImParseFormatTrimDecorations@@YAPEBDPEBDPEAD_K@Z
$pdata$?ImParseFormatPrecision@@YAHPEBDH@Z DD imagerel $LN15
	DD	imagerel $LN15+298
	DD	imagerel $unwind$?ImParseFormatPrecision@@YAHPEBDH@Z
$pdata$??D@YA?AUImVec2@@AEBU0@M@Z DD imagerel ??D@YA?AUImVec2@@AEBU0@M@Z
	DD	imagerel ??D@YA?AUImVec2@@AEBU0@M@Z+74
	DD	imagerel $unwind$??D@YA?AUImVec2@@AEBU0@M@Z
$pdata$??H@YA?AUImVec2@@AEBU0@0@Z DD imagerel ??H@YA?AUImVec2@@AEBU0@0@Z
	DD	imagerel ??H@YA?AUImVec2@@AEBU0@0@Z+80
	DD	imagerel $unwind$??H@YA?AUImVec2@@AEBU0@0@Z
$pdata$??G@YA?AUImVec2@@AEBU0@0@Z DD imagerel ??G@YA?AUImVec2@@AEBU0@0@Z
	DD	imagerel ??G@YA?AUImVec2@@AEBU0@0@Z+80
	DD	imagerel $unwind$??G@YA?AUImVec2@@AEBU0@0@Z
$pdata$?ImFabs@@YAMM@Z DD imagerel ?ImFabs@@YAMM@Z
	DD	imagerel ?ImFabs@@YAMM@Z+26
	DD	imagerel $unwind$?ImFabs@@YAMM@Z
$pdata$?ImPow@@YAMMM@Z DD imagerel ?ImPow@@YAMMM@Z
	DD	imagerel ?ImPow@@YAMMM@Z+38
	DD	imagerel $unwind$?ImPow@@YAMMM@Z
$pdata$?ImPow@@YANNN@Z DD imagerel ?ImPow@@YANNN@Z
	DD	imagerel ?ImPow@@YANNN@Z+38
	DD	imagerel $unwind$?ImPow@@YANNN@Z
$pdata$?ImFmod@@YAMMM@Z DD imagerel ?ImFmod@@YAMMM@Z
	DD	imagerel ?ImFmod@@YAMMM@Z+38
	DD	imagerel $unwind$?ImFmod@@YAMMM@Z
$pdata$?ImCos@@YAMM@Z DD imagerel ?ImCos@@YAMM@Z
	DD	imagerel ?ImCos@@YAMM@Z+26
	DD	imagerel $unwind$?ImCos@@YAMM@Z
$pdata$?ImSin@@YAMM@Z DD imagerel ?ImSin@@YAMM@Z
	DD	imagerel ?ImSin@@YAMM@Z+26
	DD	imagerel $unwind$?ImSin@@YAMM@Z
$pdata$?ImAtan2@@YAMMM@Z DD imagerel ?ImAtan2@@YAMMM@Z
	DD	imagerel ?ImAtan2@@YAMMM@Z+38
	DD	imagerel $unwind$?ImAtan2@@YAMMM@Z
$pdata$?ImAtof@@YANPEBD@Z DD imagerel ?ImAtof@@YANPEBD@Z
	DD	imagerel ?ImAtof@@YANPEBD@Z+24
	DD	imagerel $unwind$?ImAtof@@YANPEBD@Z
$pdata$?ImMin@@YA?AUImVec2@@AEBU1@0@Z DD imagerel ?ImMin@@YA?AUImVec2@@AEBU1@0@Z
	DD	imagerel ?ImMin@@YA?AUImVec2@@AEBU1@0@Z+157
	DD	imagerel $unwind$?ImMin@@YA?AUImVec2@@AEBU1@0@Z
$pdata$?ImMax@@YA?AUImVec2@@AEBU1@0@Z DD imagerel ?ImMax@@YA?AUImVec2@@AEBU1@0@Z
	DD	imagerel ?ImMax@@YA?AUImVec2@@AEBU1@0@Z+157
	DD	imagerel $unwind$?ImMax@@YA?AUImVec2@@AEBU1@0@Z
$pdata$?ImLerp@@YA?AUImVec2@@AEBU1@0M@Z DD imagerel ?ImLerp@@YA?AUImVec2@@AEBU1@0M@Z
	DD	imagerel ?ImLerp@@YA?AUImVec2@@AEBU1@0M@Z+131
	DD	imagerel $unwind$?ImLerp@@YA?AUImVec2@@AEBU1@0M@Z
$pdata$?ImLerp@@YA?AUImVec2@@AEBU1@00@Z DD imagerel ?ImLerp@@YA?AUImVec2@@AEBU1@00@Z
	DD	imagerel ?ImLerp@@YA?AUImVec2@@AEBU1@00@Z+137
	DD	imagerel $unwind$?ImLerp@@YA?AUImVec2@@AEBU1@00@Z
$pdata$?ImSaturate@@YAMM@Z DD imagerel ?ImSaturate@@YAMM@Z
	DD	imagerel ?ImSaturate@@YAMM@Z+94
	DD	imagerel $unwind$?ImSaturate@@YAMM@Z
$pdata$?ImRotate@@YA?AUImVec2@@AEBU1@MM@Z DD imagerel ?ImRotate@@YA?AUImVec2@@AEBU1@MM@Z
	DD	imagerel ?ImRotate@@YA?AUImVec2@@AEBU1@MM@Z+119
	DD	imagerel $unwind$?ImRotate@@YA?AUImVec2@@AEBU1@MM@Z
$pdata$?ImLinearSweep@@YAMMMM@Z DD imagerel ?ImLinearSweep@@YAMMMM@Z
	DD	imagerel ?ImLinearSweep@@YAMMMM@Z+109
	DD	imagerel $unwind$?ImLinearSweep@@YAMMMM@Z
$pdata$??$ImMin@M@@YAMMM@Z DD imagerel ??$ImMin@M@@YAMMM@Z
	DD	imagerel ??$ImMin@M@@YAMMM@Z+63
	DD	imagerel $unwind$??$ImMin@M@@YAMMM@Z
$pdata$??$ImMax@M@@YAMMM@Z DD imagerel ??$ImMax@M@@YAMMM@Z
	DD	imagerel ??$ImMax@M@@YAMMM@Z+63
	DD	imagerel $unwind$??$ImMax@M@@YAMMM@Z
pdata	ENDS
;	COMDAT pdata
pdata	SEGMENT
$pdata$??0ImRect@@QEAA@XZ DD imagerel $LN3
	DD	imagerel $LN3+96
	DD	imagerel $unwind$??0ImRect@@QEAA@XZ
pdata	ENDS
;	COMDAT pdata
pdata	SEGMENT
$pdata$??0ImRect@@QEAA@AEBUImVec4@@@Z DD imagerel $LN3
	DD	imagerel $LN3+108
	DD	imagerel $unwind$??0ImRect@@QEAA@AEBUImVec4@@@Z
pdata	ENDS
;	COMDAT pdata
pdata	SEGMENT
$pdata$??0ImRect@@QEAA@MMMM@Z DD imagerel $LN3
	DD	imagerel $LN3+106
	DD	imagerel $unwind$??0ImRect@@QEAA@MMMM@Z
pdata	ENDS
;	COMDAT pdata
pdata	SEGMENT
$pdata$?GetCenter@ImRect@@QEBA?AUImVec2@@XZ DD imagerel $LN3
	DD	imagerel $LN3+92
	DD	imagerel $unwind$?GetCenter@ImRect@@QEBA?AUImVec2@@XZ
pdata	ENDS
;	COMDAT pdata
pdata	SEGMENT
$pdata$?GetSize@ImRect@@QEBA?AUImVec2@@XZ DD imagerel $LN3
	DD	imagerel $LN3+76
	DD	imagerel $unwind$?GetSize@ImRect@@QEBA?AUImVec2@@XZ
pdata	ENDS
;	COMDAT pdata
pdata	SEGMENT
$pdata$?GetTR@ImRect@@QEBA?AUImVec2@@XZ DD imagerel $LN3
	DD	imagerel $LN3+54
	DD	imagerel $unwind$?GetTR@ImRect@@QEBA?AUImVec2@@XZ
pdata	ENDS
;	COMDAT pdata
pdata	SEGMENT
$pdata$?GetBL@ImRect@@QEBA?AUImVec2@@XZ DD imagerel $LN3
	DD	imagerel $LN3+53
	DD	imagerel $unwind$?GetBL@ImRect@@QEBA?AUImVec2@@XZ
pdata	ENDS
;	COMDAT pdata
pdata	SEGMENT
$pdata$?Contains@ImRect@@QEBA_NAEBUImVec2@@@Z DD imagerel $LN5
	DD	imagerel $LN5+120
	DD	imagerel $unwind$?Contains@ImRect@@QEBA_NAEBUImVec2@@@Z
pdata	ENDS
;	COMDAT pdata
pdata	SEGMENT
$pdata$?Contains@ImRect@@QEBA_NAEBU1@@Z DD imagerel $LN5
	DD	imagerel $LN5+121
	DD	imagerel $unwind$?Contains@ImRect@@QEBA_NAEBU1@@Z
pdata	ENDS
;	COMDAT pdata
pdata	SEGMENT
$pdata$?Overlaps@ImRect@@QEBA_NAEBU1@@Z DD imagerel $LN5
	DD	imagerel $LN5+121
	DD	imagerel $unwind$?Overlaps@ImRect@@QEBA_NAEBU1@@Z
pdata	ENDS
;	COMDAT pdata
pdata	SEGMENT
$pdata$?ClipWith@ImRect@@QEAAXAEBU1@@Z DD imagerel $LN3
	DD	imagerel $LN3+102
	DD	imagerel $unwind$?ClipWith@ImRect@@QEAAXAEBU1@@Z
pdata	ENDS
pdata	SEGMENT
$pdata$??0ImGuiMenuColumns@@QEAA@XZ DD imagerel $LN3
	DD	imagerel $LN3+120
	DD	imagerel $unwind$??0ImGuiMenuColumns@@QEAA@XZ
$pdata$?Update@ImGuiMenuColumns@@QEAAXHM_N@Z DD imagerel $LN8
	DD	imagerel $LN8+302
	DD	imagerel $unwind$?Update@ImGuiMenuColumns@@QEAAXHM_N@Z
$pdata$?DeclColumns@ImGuiMenuColumns@@QEAAMMMM@Z DD imagerel $LN8
	DD	imagerel $LN8+359
	DD	imagerel $unwind$?DeclColumns@ImGuiMenuColumns@@QEAAMMMM@Z
$pdata$?CalcExtraSpace@ImGuiMenuColumns@@QEAAMM@Z DD imagerel $LN3
	DD	imagerel $LN3+46
	DD	imagerel $unwind$?CalcExtraSpace@ImGuiMenuColumns@@QEAAMM@Z
pdata	ENDS
;	COMDAT pdata
pdata	SEGMENT
$pdata$?CursorClamp@ImGuiInputTextState@@QEAAXXZ DD imagerel $LN3
	DD	imagerel $LN3+101
	DD	imagerel $unwind$?CursorClamp@ImGuiInputTextState@@QEAAXXZ
pdata	ENDS
;	COMDAT pdata
pdata	SEGMENT
$pdata$?HasSelection@ImGuiInputTextState@@QEBA_NXZ DD imagerel $LN5
	DD	imagerel $LN5+52
	DD	imagerel $unwind$?HasSelection@ImGuiInputTextState@@QEBA_NXZ
pdata	ENDS
pdata	SEGMENT
$pdata$?OnKeyPressed@ImGuiInputTextState@@QEAAXH@Z DD imagerel $LN3
	DD	imagerel $LN3+68
	DD	imagerel $unwind$?OnKeyPressed@ImGuiInputTextState@@QEAAXH@Z
$pdata$??$ImMin@H@@YAHHH@Z DD imagerel ??$ImMin@H@@YAHHH@Z
	DD	imagerel ??$ImMin@H@@YAHHH@Z+46
	DD	imagerel $unwind$??$ImMin@H@@YAHHH@Z
pdata	ENDS
;	COMDAT pdata
pdata	SEGMENT
$pdata$?_grow_capacity@?$ImVector@UImGuiTabBar@@@@QEBAHH@Z DD imagerel $LN7
	DD	imagerel $LN7+101
	DD	imagerel $unwind$?_grow_capacity@?$ImVector@UImGuiTabBar@@@@QEBAHH@Z
pdata	ENDS
;	COMDAT pdata
pdata	SEGMENT
$pdata$?resize@?$ImVector@UImGuiTabBar@@@@QEAAXH@Z DD imagerel $LN4
	DD	imagerel $LN4+70
	DD	imagerel $unwind$?resize@?$ImVector@UImGuiTabBar@@@@QEAAXH@Z
pdata	ENDS
;	COMDAT pdata
pdata	SEGMENT
$pdata$?reserve@?$ImVector@UImGuiTabBar@@@@QEAAXH@Z DD imagerel $LN5
	DD	imagerel $LN5+149
	DD	imagerel $unwind$?reserve@?$ImVector@UImGuiTabBar@@@@QEAAXH@Z
pdata	ENDS
;	COMDAT pdata
pdata	SEGMENT
$pdata$?GetOrAddByKey@?$ImPool@UImGuiTabBar@@@@QEAAPEAUImGuiTabBar@@I@Z DD imagerel $LN4
	DD	imagerel $LN4+121
	DD	imagerel $unwind$?GetOrAddByKey@?$ImPool@UImGuiTabBar@@@@QEAAPEAUImGuiTabBar@@I@Z
pdata	ENDS
;	COMDAT pdata
pdata	SEGMENT
$pdata$?Add@?$ImPool@UImGuiTabBar@@@@QEAAPEAUImGuiTabBar@@XZ DD imagerel $LN8
	DD	imagerel $LN8+289
	DD	imagerel $unwind$?Add@?$ImPool@UImGuiTabBar@@@@QEAAPEAUImGuiTabBar@@XZ
pdata	ENDS
;	COMDAT pdata
pdata	SEGMENT
$pdata$?dtor$0@?0??Add@?$ImPool@UImGuiTabBar@@@@QEAAPEAUImGuiTabBar@@XZ@4HA DD imagerel ?dtor$0@?0??Add@?$ImPool@UImGuiTabBar@@@@QEAAPEAUImGuiTabBar@@XZ@4HA
	DD	imagerel ?dtor$0@?0??Add@?$ImPool@UImGuiTabBar@@@@QEAAPEAUImGuiTabBar@@XZ@4HA+35
	DD	imagerel $unwind$?dtor$0@?0??Add@?$ImPool@UImGuiTabBar@@@@QEAAPEAUImGuiTabBar@@XZ@4HA
pdata	ENDS
;	COMDAT pdata
pdata	SEGMENT
$pdata$?_grow_capacity@?$ImVector@UImGuiTabBarSortItem@@@@QEBAHH@Z DD imagerel $LN7
	DD	imagerel $LN7+101
	DD	imagerel $unwind$?_grow_capacity@?$ImVector@UImGuiTabBarSortItem@@@@QEBAHH@Z
pdata	ENDS
;	COMDAT pdata
pdata	SEGMENT
$pdata$?resize@?$ImVector@UImGuiTabBarSortItem@@@@QEAAXH@Z DD imagerel $LN4
	DD	imagerel $LN4+70
	DD	imagerel $unwind$?resize@?$ImVector@UImGuiTabBarSortItem@@@@QEAAXH@Z
pdata	ENDS
;	COMDAT pdata
pdata	SEGMENT
$pdata$?reserve@?$ImVector@UImGuiTabBarSortItem@@@@QEAAXH@Z DD imagerel $LN5
	DD	imagerel $LN5+143
	DD	imagerel $unwind$?reserve@?$ImVector@UImGuiTabBarSortItem@@@@QEAAXH@Z
pdata	ENDS
;	COMDAT pdata
pdata	SEGMENT
$pdata$?_grow_capacity@?$ImVector@PEAUImGuiTabBar@@@@QEBAHH@Z DD imagerel $LN7
	DD	imagerel $LN7+101
	DD	imagerel $unwind$?_grow_capacity@?$ImVector@PEAUImGuiTabBar@@@@QEBAHH@Z
pdata	ENDS
;	COMDAT pdata
pdata	SEGMENT
$pdata$?reserve@?$ImVector@PEAUImGuiTabBar@@@@QEAAXH@Z DD imagerel $LN5
	DD	imagerel $LN5+143
	DD	imagerel $unwind$?reserve@?$ImVector@PEAUImGuiTabBar@@@@QEAAXH@Z
pdata	ENDS
;	COMDAT pdata
pdata	SEGMENT
$pdata$?push_back@?$ImVector@PEAUImGuiTabBar@@@@QEAAXAEBQEAUImGuiTabBar@@@Z DD imagerel $LN4
	DD	imagerel $LN4+126
	DD	imagerel $unwind$?push_back@?$ImVector@PEAUImGuiTabBar@@@@QEAAXAEBQEAUImGuiTabBar@@@Z
pdata	ENDS
;	COMDAT pdata
pdata	SEGMENT
$pdata$?empty@?$ImVector@UImGuiGroupData@@@@QEBA_NXZ DD imagerel $LN5
	DD	imagerel $LN5+44
	DD	imagerel $unwind$?empty@?$ImVector@UImGuiGroupData@@@@QEBA_NXZ
pdata	ENDS
;	COMDAT pdata
pdata	SEGMENT
$pdata$?_grow_capacity@?$ImVector@I@@QEBAHH@Z DD imagerel $LN7
	DD	imagerel $LN7+101
	DD	imagerel $unwind$?_grow_capacity@?$ImVector@I@@QEBAHH@Z
pdata	ENDS
;	COMDAT pdata
pdata	SEGMENT
$pdata$?reserve@?$ImVector@I@@QEAAXH@Z DD imagerel $LN5
	DD	imagerel $LN5+143
	DD	imagerel $unwind$?reserve@?$ImVector@I@@QEAAXH@Z
pdata	ENDS
;	COMDAT pdata
pdata	SEGMENT
$pdata$?push_back@?$ImVector@I@@QEAAXAEBI@Z DD imagerel $LN4
	DD	imagerel $LN4+126
	DD	imagerel $unwind$?push_back@?$ImVector@I@@QEAAXAEBI@Z
pdata	ENDS
;	COMDAT pdata
pdata	SEGMENT
$pdata$?Rect@ImGuiWindow@@QEBA?AUImRect@@XZ DD imagerel $LN3
	DD	imagerel $LN3+102
	DD	imagerel $unwind$?Rect@ImGuiWindow@@QEBA?AUImRect@@XZ
pdata	ENDS
;	COMDAT pdata
pdata	SEGMENT
$pdata$?TitleBarHeight@ImGuiWindow@@QEBAMXZ DD imagerel $LN5
	DD	imagerel $LN5+89
	DD	imagerel $unwind$?TitleBarHeight@ImGuiWindow@@QEBAMXZ
pdata	ENDS
;	COMDAT pdata
pdata	SEGMENT
$pdata$?MenuBarHeight@ImGuiWindow@@QEBAMXZ DD imagerel $LN5
	DD	imagerel $LN5+111
	DD	imagerel $unwind$?MenuBarHeight@ImGuiWindow@@QEBAMXZ
pdata	ENDS
;	COMDAT pdata
pdata	SEGMENT
$pdata$?MenuBarRect@ImGuiWindow@@QEBA?AUImRect@@XZ DD imagerel $LN3
	DD	imagerel $LN3+168
	DD	imagerel $unwind$?MenuBarRect@ImGuiWindow@@QEBA?AUImRect@@XZ
pdata	ENDS
;	COMDAT pdata
pdata	SEGMENT
$pdata$??0ImGuiItemHoveredDataBackup@@QEAA@XZ DD imagerel $LN3
	DD	imagerel $LN3+60
	DD	imagerel $unwind$??0ImGuiItemHoveredDataBackup@@QEAA@XZ
pdata	ENDS
;	COMDAT pdata
pdata	SEGMENT
$pdata$?Backup@ImGuiItemHoveredDataBackup@@QEAAXXZ DD imagerel $LN3
	DD	imagerel $LN3+122
	DD	imagerel $unwind$?Backup@ImGuiItemHoveredDataBackup@@QEAAXXZ
pdata	ENDS
;	COMDAT pdata
pdata	SEGMENT
$pdata$?Restore@ImGuiItemHoveredDataBackup@@QEBAXXZ DD imagerel $LN3
	DD	imagerel $LN3+122
	DD	imagerel $unwind$?Restore@ImGuiItemHoveredDataBackup@@QEBAXXZ
pdata	ENDS
;	COMDAT pdata
pdata	SEGMENT
$pdata$??1?$ImVector@UImGuiTabItem@@@@QEAA@XZ DD imagerel $LN4
	DD	imagerel $LN4+41
	DD	imagerel $unwind$??1?$ImVector@UImGuiTabItem@@@@QEAA@XZ
pdata	ENDS
;	COMDAT pdata
pdata	SEGMENT
$pdata$?_grow_capacity@?$ImVector@UImGuiTabItem@@@@QEBAHH@Z DD imagerel $LN7
	DD	imagerel $LN7+101
	DD	imagerel $unwind$?_grow_capacity@?$ImVector@UImGuiTabItem@@@@QEBAHH@Z
pdata	ENDS
;	COMDAT pdata
pdata	SEGMENT
$pdata$?resize@?$ImVector@UImGuiTabItem@@@@QEAAXH@Z DD imagerel $LN4
	DD	imagerel $LN4+70
	DD	imagerel $unwind$?resize@?$ImVector@UImGuiTabItem@@@@QEAAXH@Z
pdata	ENDS
;	COMDAT pdata
pdata	SEGMENT
$pdata$?reserve@?$ImVector@UImGuiTabItem@@@@QEAAXH@Z DD imagerel $LN5
	DD	imagerel $LN5+143
	DD	imagerel $unwind$?reserve@?$ImVector@UImGuiTabItem@@@@QEAAXH@Z
pdata	ENDS
;	COMDAT pdata
pdata	SEGMENT
$pdata$?push_back@?$ImVector@UImGuiTabItem@@@@QEAAXAEBUImGuiTabItem@@@Z DD imagerel $LN4
	DD	imagerel $LN4+126
	DD	imagerel $unwind$?push_back@?$ImVector@UImGuiTabItem@@@@QEAAXAEBUImGuiTabItem@@@Z
pdata	ENDS
;	COMDAT pdata
pdata	SEGMENT
$pdata$?erase@?$ImVector@UImGuiTabItem@@@@QEAAPEAUImGuiTabItem@@PEBU2@@Z DD imagerel $LN3
	DD	imagerel $LN3+158
	DD	imagerel $unwind$?erase@?$ImVector@UImGuiTabItem@@@@QEAAPEAUImGuiTabItem@@PEBU2@@Z
pdata	ENDS
;	COMDAT pdata
pdata	SEGMENT
$pdata$?index_from_ptr@?$ImVector@UImGuiTabItem@@@@QEBAHPEBUImGuiTabItem@@@Z DD imagerel $LN3
	DD	imagerel $LN3+50
	DD	imagerel $unwind$?index_from_ptr@?$ImVector@UImGuiTabItem@@@@QEBAHPEBUImGuiTabItem@@@Z
pdata	ENDS
pdata	SEGMENT
$pdata$??0ImGuiTabBar@@QEAA@XZ DD imagerel $LN5
	DD	imagerel $LN5+293
	DD	imagerel $unwind$??0ImGuiTabBar@@QEAA@XZ
pdata	ENDS
pdata	SEGMENT
$pdata$?dtor$0@?0???0ImGuiTabBar@@QEAA@XZ@4HA DD imagerel ?dtor$0@?0???0ImGuiTabBar@@QEAA@XZ@4HA
	DD	imagerel ?dtor$0@?0???0ImGuiTabBar@@QEAA@XZ@4HA+28
	DD	imagerel $unwind$?dtor$0@?0???0ImGuiTabBar@@QEAA@XZ@4HA
$pdata$?dtor$1@?0???0ImGuiTabBar@@QEAA@XZ@4HA DD imagerel ?dtor$1@?0???0ImGuiTabBar@@QEAA@XZ@4HA
	DD	imagerel ?dtor$1@?0???0ImGuiTabBar@@QEAA@XZ@4HA+28
	DD	imagerel $unwind$?dtor$1@?0???0ImGuiTabBar@@QEAA@XZ@4HA
pdata	ENDS
;	COMDAT pdata
pdata	SEGMENT
$pdata$?GetTabOrder@ImGuiTabBar@@QEBAHPEBUImGuiTabItem@@@Z DD imagerel $LN3
	DD	imagerel $LN3+48
	DD	imagerel $unwind$?GetTabOrder@ImGuiTabBar@@QEBAHPEBUImGuiTabItem@@@Z
pdata	ENDS
;	COMDAT pdata
pdata	SEGMENT
$pdata$?GetCurrentWindow@ImGui@@YAPEAUImGuiWindow@@XZ DD imagerel $LN3
	DD	imagerel $LN3+46
	DD	imagerel $unwind$?GetCurrentWindow@ImGui@@YAPEAUImGuiWindow@@XZ
pdata	ENDS
;	COMDAT pdata
pdata	SEGMENT
$pdata$?IsKeyPressedMap@ImGui@@YA_NH_N@Z DD imagerel $LN5
	DD	imagerel $LN5+74
	DD	imagerel $unwind$?IsKeyPressedMap@ImGui@@YA_NH_N@Z
pdata	ENDS
;	COMDAT pdata
pdata	SEGMENT
$pdata$?IsNavInputDown@ImGui@@YA_NH@Z DD imagerel $LN5
	DD	imagerel $LN5+63
	DD	imagerel $unwind$?IsNavInputDown@ImGui@@YA_NH@Z
pdata	ENDS
;	COMDAT pdata
pdata	SEGMENT
$pdata$?IsNavInputPressed@ImGui@@YA_NHW4ImGuiInputReadMode@@@Z DD imagerel $LN5
	DD	imagerel $LN5+62
	DD	imagerel $unwind$?IsNavInputPressed@ImGui@@YA_NHW4ImGuiInputReadMode@@@Z
pdata	ENDS
pdata	SEGMENT
$pdata$?BeginTabBarEx@ImGui@@YA_NPEAUImGuiTabBar@@AEBUImRect@@H@Z DD imagerel $LN10
	DD	imagerel $LN10+844
	DD	imagerel $unwind$?BeginTabBarEx@ImGui@@YA_NPEAUImGuiTabBar@@AEBUImRect@@H@Z
$pdata$?TabBarFindTabByID@ImGui@@YAPEAUImGuiTabItem@@PEAUImGuiTabBar@@I@Z DD imagerel $LN8
	DD	imagerel $LN8+130
	DD	imagerel $unwind$?TabBarFindTabByID@ImGui@@YAPEAUImGuiTabItem@@PEAUImGuiTabBar@@I@Z
$pdata$?TabBarRemoveTab@ImGui@@YAXPEAUImGuiTabBar@@I@Z DD imagerel $LN7
	DD	imagerel $LN7+151
	DD	imagerel $unwind$?TabBarRemoveTab@ImGui@@YAXPEAUImGuiTabBar@@I@Z
$pdata$?TabItemEx@ImGui@@YA_NPEAUImGuiTabBar@@PEBDPEA_NH@Z DD imagerel $LN63
	DD	imagerel $LN63+2990
	DD	imagerel $unwind$?TabItemEx@ImGui@@YA_NPEAUImGuiTabBar@@PEBDPEA_NH@Z
$pdata$?TabItemCalcSize@ImGui@@YA?AUImVec2@@PEBD_N@Z DD imagerel $LN5
	DD	imagerel $LN5+297
	DD	imagerel $unwind$?TabItemCalcSize@ImGui@@YA?AUImVec2@@PEBD_N@Z
$pdata$?TabItemBackground@ImGui@@YAXPEAUImDrawList@@AEBUImRect@@HI@Z DD imagerel $LN4
	DD	imagerel $LN4+859
	DD	imagerel $unwind$?TabItemBackground@ImGui@@YAXPEAUImDrawList@@AEBUImRect@@HI@Z
$pdata$?TabItemLabelAndCloseButton@ImGui@@YA_NPEAUImDrawList@@AEBUImRect@@HUImVec2@@PEBDII@Z DD imagerel $LN17
	DD	imagerel $LN17+2005
	DD	imagerel $unwind$?TabItemLabelAndCloseButton@ImGui@@YA_NPEAUImDrawList@@AEBUImRect@@HUImVec2@@PEBDII@Z
$pdata$?RenderColorRectWithAlphaCheckerboard@ImGui@@YAXUImVec2@@0IM0MH@Z DD imagerel $LN21
	DD	imagerel $LN21+1002
	DD	imagerel $unwind$?RenderColorRectWithAlphaCheckerboard@ImGui@@YAXUImVec2@@0IM0MH@Z
$pdata$?ButtonEx@ImGui@@YA_NPEBDAEBUImVec2@@H@Z DD imagerel $LN15
	DD	imagerel $LN15+852
	DD	imagerel $unwind$?ButtonEx@ImGui@@YA_NPEBDAEBUImVec2@@H@Z
$pdata$?CloseButton@ImGui@@YA_NIAEBUImVec2@@M@Z DD imagerel $LN9
	DD	imagerel $LN9+976
	DD	imagerel $unwind$?CloseButton@ImGui@@YA_NIAEBUImVec2@@M@Z
$pdata$?CollapseButton@ImGui@@YA_NIAEBUImVec2@@@Z DD imagerel $LN12
	DD	imagerel $LN12+696
	DD	imagerel $unwind$?CollapseButton@ImGui@@YA_NIAEBUImVec2@@@Z
$pdata$?ArrowButtonEx@ImGui@@YA_NPEBDHUImVec2@@H@Z DD imagerel $LN12
	DD	imagerel $LN12+657
	DD	imagerel $unwind$?ArrowButtonEx@ImGui@@YA_NPEBDHUImVec2@@H@Z
$pdata$?Scrollbar@ImGui@@YAXW4ImGuiAxis@@@Z DD imagerel $LN57
	DD	imagerel $LN57+3234
	DD	imagerel $unwind$?Scrollbar@ImGui@@YAXW4ImGuiAxis@@@Z
$pdata$?GetScrollbarID@ImGui@@YAIPEAUImGuiWindow@@W4ImGuiAxis@@@Z DD imagerel $LN5
	DD	imagerel $LN5+69
	DD	imagerel $unwind$?GetScrollbarID@ImGui@@YAIPEAUImGuiWindow@@W4ImGuiAxis@@@Z
$pdata$?VerticalSeparator@ImGui@@YAXXZ DD imagerel $LN5
	DD	imagerel $LN5+422
	DD	imagerel $unwind$?VerticalSeparator@ImGui@@YAXXZ
$pdata$?ButtonBehavior@ImGui@@YA_NAEBUImRect@@IPEA_N1H@Z DD imagerel $LN59
	DD	imagerel $LN59+1922
	DD	imagerel $unwind$?ButtonBehavior@ImGui@@YA_NAEBUImRect@@IPEA_N1H@Z
$pdata$?DragBehavior@ImGui@@YA_NIHPEAXMPEBX1PEBDMH@Z DD imagerel $LN42
	DD	imagerel $LN42+1404
	DD	imagerel $unwind$?DragBehavior@ImGui@@YA_NIHPEAXMPEBX1PEBDMH@Z
$pdata$?SliderBehavior@ImGui@@YA_NAEBUImRect@@IHPEAXPEBX2PEBDMHPEAU2@@Z DD imagerel $LN13
	DD	imagerel $LN13+808
	DD	imagerel $unwind$?SliderBehavior@ImGui@@YA_NAEBUImRect@@IHPEAXPEBX2PEBDMHPEAU2@@Z
$pdata$?SplitterBehavior@ImGui@@YA_NAEBUImRect@@IW4ImGuiAxis@@PEAM2MMMM@Z DD imagerel $LN26
	DD	imagerel $LN26+1161
	DD	imagerel $unwind$?SplitterBehavior@ImGui@@YA_NAEBUImRect@@IW4ImGuiAxis@@PEAM2MMMM@Z
$pdata$?TreeNodeBehavior@ImGui@@YA_NIHPEBD0@Z DD imagerel $LN65
	DD	imagerel $LN65+3177
	DD	imagerel $unwind$?TreeNodeBehavior@ImGui@@YA_NIHPEBD0@Z
$pdata$?TreeNodeBehaviorIsOpen@ImGui@@YA_NIH@Z DD imagerel $LN16
	DD	imagerel $LN16+367
	DD	imagerel $unwind$?TreeNodeBehaviorIsOpen@ImGui@@YA_NIH@Z
$pdata$?TreePushRawID@ImGui@@YAXI@Z DD imagerel $LN3
	DD	imagerel $LN3+87
	DD	imagerel $unwind$?TreePushRawID@ImGui@@YAXI@Z
$pdata$?InputTextEx@ImGui@@YA_NPEBDPEADHAEBUImVec2@@HP6AHPEAUImGuiInputTextCallbackData@@@ZPEAX@Z DD imagerel $LN310
	DD	imagerel $LN310+14752
	DD	imagerel $unwind$?InputTextEx@ImGui@@YA_NPEBDPEADHAEBUImVec2@@HP6AHPEAUImGuiInputTextCallbackData@@@ZPEAX@Z
$pdata$?InputScalarAsWidgetReplacement@ImGui@@YA_NAEBUImRect@@IPEBDHPEAX1@Z DD imagerel $LN8
	DD	imagerel $LN8+409
	DD	imagerel $unwind$?InputScalarAsWidgetReplacement@ImGui@@YA_NAEBUImRect@@IPEBDHPEAX1@Z
$pdata$?ColorTooltip@ImGui@@YAXPEBDPEBMH@Z DD imagerel $LN10
	DD	imagerel $LN10+1082
	DD	imagerel $unwind$?ColorTooltip@ImGui@@YAXPEBDPEBMH@Z
$pdata$?ColorEditOptionsPopup@ImGui@@YAXPEBMH@Z DD imagerel $LN41
	DD	imagerel $LN41+1489
	DD	imagerel $unwind$?ColorEditOptionsPopup@ImGui@@YAXPEBMH@Z
$pdata$?ColorPickerOptionsPopup@ImGui@@YAXPEBMH@Z DD imagerel $LN22
	DD	imagerel $LN22+698
	DD	imagerel $unwind$?ColorPickerOptionsPopup@ImGui@@YAXPEBMH@Z
$pdata$?PlotEx@ImGui@@YAXW4ImGuiPlotType@@PEBDP6AMPEAXH@Z2HH1MMUImVec2@@@Z DD imagerel $LN51
	DD	imagerel $LN51+3098
	DD	imagerel $unwind$?PlotEx@ImGui@@YAXW4ImGuiPlotType@@PEBDP6AMPEAXH@Z2HH1MMUImVec2@@@Z
$pdata$?DataTypeFormatString@@YAHPEADHHPEBXPEBD@Z DD imagerel ?DataTypeFormatString@@YAHPEADHHPEBXPEBD@Z
	DD	imagerel ?DataTypeFormatString@@YAHPEADHHPEBXPEBD@Z+222
	DD	imagerel $unwind$?DataTypeFormatString@@YAHPEADHHPEBXPEBD@Z
$pdata$?DataTypeApplyOp@@YAXHHPEAX0PEBX@Z DD imagerel ?DataTypeApplyOp@@YAXHHPEAX0PEBX@Z
	DD	imagerel ?DataTypeApplyOp@@YAXHHPEAX0PEBX@Z+508
	DD	imagerel $unwind$?DataTypeApplyOp@@YAXHHPEAX0PEBX@Z
$pdata$?DataTypeApplyOpFromText@@YA_NPEBD0HPEAX0@Z DD imagerel ?DataTypeApplyOpFromText@@YA_NPEBD0HPEAX0@Z
	DD	imagerel ?DataTypeApplyOpFromText@@YA_NPEBD0HPEAX0@Z+1383
	DD	imagerel $unwind$?DataTypeApplyOpFromText@@YA_NPEBD0HPEAX0@Z
$pdata$?InputTextFilterCharacter@@YA_NPEAIHP6AHPEAUImGuiInputTextCallbackData@@@ZPEAX@Z DD imagerel ?InputTextFilterCharacter@@YA_NPEAIHP6AHPEAUImGuiInputTextCallbackData@@@ZPEAX@Z
	DD	imagerel ?InputTextFilterCharacter@@YA_NPEAIHP6AHPEAUImGuiInputTextCallbackData@@@ZPEAX@Z+770
	DD	imagerel $unwind$?InputTextFilterCharacter@@YA_NPEAIHP6AHPEAUImGuiInputTextCallbackData@@@ZPEAX@Z
$pdata$?InputTextCalcTextLenAndLineCount@@YAHPEBDPEAPEBD@Z DD imagerel ?InputTextCalcTextLenAndLineCount@@YAHPEBDPEAPEBD@Z
	DD	imagerel ?InputTextCalcTextLenAndLineCount@@YAHPEBDPEAPEBD@Z+185
	DD	imagerel $unwind$?InputTextCalcTextLenAndLineCount@@YAHPEBDPEAPEBD@Z
$pdata$?InputTextCalcTextSizeW@@YA?AUImVec2@@PEBG0PEAPEBGPEAU1@_N@Z DD imagerel ?InputTextCalcTextSizeW@@YA?AUImVec2@@PEBG0PEAPEBGPEAU1@_N@Z
	DD	imagerel ?InputTextCalcTextSizeW@@YA?AUImVec2@@PEBG0PEAPEBGPEAU1@_N@Z+504
	DD	imagerel $unwind$?InputTextCalcTextSizeW@@YA?AUImVec2@@PEBG0PEAPEBGPEAU1@_N@Z
$pdata$??$ImClamp@M@@YAMMMM@Z DD imagerel ??$ImClamp@M@@YAMMMM@Z
	DD	imagerel ??$ImClamp@M@@YAMMMM@Z+108
	DD	imagerel $unwind$??$ImClamp@M@@YAMMMM@Z
$pdata$?CalcMaxPopupHeightFromItemCount@@YAMH@Z DD imagerel ?CalcMaxPopupHeightFromItemCount@@YAMH@Z
	DD	imagerel ?CalcMaxPopupHeightFromItemCount@@YAMH@Z+111
	DD	imagerel $unwind$?CalcMaxPopupHeightFromItemCount@@YAMH@Z
$pdata$?Items_ArrayGetter@@YA_NPEAXHPEAPEBD@Z DD imagerel ?Items_ArrayGetter@@YA_NPEAXHPEAPEBD@Z
	DD	imagerel ?Items_ArrayGetter@@YA_NPEAXHPEAPEBD@Z+63
	DD	imagerel $unwind$?Items_ArrayGetter@@YA_NPEAXHPEAPEBD@Z
$pdata$?Items_SingleStringGetter@@YA_NPEAXHPEAPEBD@Z DD imagerel ?Items_SingleStringGetter@@YA_NPEAXHPEAPEBD@Z
	DD	imagerel ?Items_SingleStringGetter@@YA_NPEAXHPEAPEBD@Z+151
	DD	imagerel $unwind$?Items_SingleStringGetter@@YA_NPEAXHPEAPEBD@Z
pdata	ENDS
;	COMDAT pdata
pdata	SEGMENT
$pdata$??1ImGuiDataTypeInfo@@QEAA@XZ DD imagerel $LN5
	DD	imagerel $LN5+50
	DD	imagerel $unwind$??1ImGuiDataTypeInfo@@QEAA@XZ
pdata	ENDS
;	COMDAT pdata
pdata	SEGMENT
$pdata$?dtor$0@?0???1ImGuiDataTypeInfo@@QEAA@XZ@4HA DD imagerel ?dtor$0@?0???1ImGuiDataTypeInfo@@QEAA@XZ@4HA
	DD	imagerel ?dtor$0@?0???1ImGuiDataTypeInfo@@QEAA@XZ@4HA+28
	DD	imagerel $unwind$?dtor$0@?0???1ImGuiDataTypeInfo@@QEAA@XZ@4HA
pdata	ENDS
;	COMDAT pdata
pdata	SEGMENT
$pdata$?dtor$1@?0???1ImGuiDataTypeInfo@@QEAA@XZ@4HA DD imagerel ?dtor$1@?0???1ImGuiDataTypeInfo@@QEAA@XZ@4HA
	DD	imagerel ?dtor$1@?0???1ImGuiDataTypeInfo@@QEAA@XZ@4HA+28
	DD	imagerel $unwind$?dtor$1@?0???1ImGuiDataTypeInfo@@QEAA@XZ@4HA
pdata	ENDS
;	COMDAT pdata
pdata	SEGMENT
$pdata$??__EGDataTypeInfo@@YAXXZ DD imagerel ??__EGDataTypeInfo@@YAXXZ
	DD	imagerel ??__EGDataTypeInfo@@YAXXZ+328
	DD	imagerel $unwind$??__EGDataTypeInfo@@YAXXZ
pdata	ENDS
;	COMDAT pdata
pdata	SEGMENT
$pdata$?dtor$0@?0???__EGDataTypeInfo@@YAXXZ@4HA DD imagerel ?dtor$0@?0???__EGDataTypeInfo@@YAXXZ@4HA
	DD	imagerel ?dtor$0@?0???__EGDataTypeInfo@@YAXXZ@4HA+27
	DD	imagerel $unwind$?dtor$0@?0???__EGDataTypeInfo@@YAXXZ@4HA
pdata	ENDS
;	COMDAT pdata
pdata	SEGMENT
$pdata$?dtor$2@?0???__EGDataTypeInfo@@YAXXZ@4HA DD imagerel ?dtor$2@?0???__EGDataTypeInfo@@YAXXZ@4HA
	DD	imagerel ?dtor$2@?0???__EGDataTypeInfo@@YAXXZ@4HA+27
	DD	imagerel $unwind$?dtor$2@?0???__EGDataTypeInfo@@YAXXZ@4HA
pdata	ENDS
;	COMDAT pdata
pdata	SEGMENT
$pdata$?dtor$3@?0???__EGDataTypeInfo@@YAXXZ@4HA DD imagerel ?dtor$3@?0???__EGDataTypeInfo@@YAXXZ@4HA
	DD	imagerel ?dtor$3@?0???__EGDataTypeInfo@@YAXXZ@4HA+27
	DD	imagerel $unwind$?dtor$3@?0???__EGDataTypeInfo@@YAXXZ@4HA
pdata	ENDS
;	COMDAT pdata
pdata	SEGMENT
$pdata$?dtor$5@?0???__EGDataTypeInfo@@YAXXZ@4HA DD imagerel ?dtor$5@?0???__EGDataTypeInfo@@YAXXZ@4HA
	DD	imagerel ?dtor$5@?0???__EGDataTypeInfo@@YAXXZ@4HA+31
	DD	imagerel $unwind$?dtor$5@?0???__EGDataTypeInfo@@YAXXZ@4HA
pdata	ENDS
;	COMDAT pdata
pdata	SEGMENT
$pdata$?dtor$6@?0???__EGDataTypeInfo@@YAXXZ@4HA DD imagerel ?dtor$6@?0???__EGDataTypeInfo@@YAXXZ@4HA
	DD	imagerel ?dtor$6@?0???__EGDataTypeInfo@@YAXXZ@4HA+27
	DD	imagerel $unwind$?dtor$6@?0???__EGDataTypeInfo@@YAXXZ@4HA
pdata	ENDS
;	COMDAT pdata
pdata	SEGMENT
$pdata$?dtor$8@?0???__EGDataTypeInfo@@YAXXZ@4HA DD imagerel ?dtor$8@?0???__EGDataTypeInfo@@YAXXZ@4HA
	DD	imagerel ?dtor$8@?0???__EGDataTypeInfo@@YAXXZ@4HA+34
	DD	imagerel $unwind$?dtor$8@?0???__EGDataTypeInfo@@YAXXZ@4HA
pdata	ENDS
;	COMDAT pdata
pdata	SEGMENT
$pdata$?dtor$9@?0???__EGDataTypeInfo@@YAXXZ@4HA DD imagerel ?dtor$9@?0???__EGDataTypeInfo@@YAXXZ@4HA
	DD	imagerel ?dtor$9@?0???__EGDataTypeInfo@@YAXXZ@4HA+27
	DD	imagerel $unwind$?dtor$9@?0???__EGDataTypeInfo@@YAXXZ@4HA
pdata	ENDS
;	COMDAT pdata
pdata	SEGMENT
$pdata$?dtor$11@?0???__EGDataTypeInfo@@YAXXZ@4HA DD imagerel ?dtor$11@?0???__EGDataTypeInfo@@YAXXZ@4HA
	DD	imagerel ?dtor$11@?0???__EGDataTypeInfo@@YAXXZ@4HA+34
	DD	imagerel $unwind$?dtor$11@?0???__EGDataTypeInfo@@YAXXZ@4HA
pdata	ENDS
;	COMDAT pdata
pdata	SEGMENT
$pdata$?dtor$12@?0???__EGDataTypeInfo@@YAXXZ@4HA DD imagerel ?dtor$12@?0???__EGDataTypeInfo@@YAXXZ@4HA
	DD	imagerel ?dtor$12@?0???__EGDataTypeInfo@@YAXXZ@4HA+27
	DD	imagerel $unwind$?dtor$12@?0???__EGDataTypeInfo@@YAXXZ@4HA
pdata	ENDS
;	COMDAT pdata
pdata	SEGMENT
$pdata$?dtor$14@?0???__EGDataTypeInfo@@YAXXZ@4HA DD imagerel ?dtor$14@?0???__EGDataTypeInfo@@YAXXZ@4HA
	DD	imagerel ?dtor$14@?0???__EGDataTypeInfo@@YAXXZ@4HA+34
	DD	imagerel $unwind$?dtor$14@?0???__EGDataTypeInfo@@YAXXZ@4HA
pdata	ENDS
;	COMDAT pdata
pdata	SEGMENT
$pdata$?dtor$15@?0???__EGDataTypeInfo@@YAXXZ@4HA DD imagerel ?dtor$15@?0???__EGDataTypeInfo@@YAXXZ@4HA
	DD	imagerel ?dtor$15@?0???__EGDataTypeInfo@@YAXXZ@4HA+27
	DD	imagerel $unwind$?dtor$15@?0???__EGDataTypeInfo@@YAXXZ@4HA
pdata	ENDS
;	COMDAT pdata
pdata	SEGMENT
$pdata$??__FGDataTypeInfo@@YAXXZ DD imagerel ??__FGDataTypeInfo@@YAXXZ
	DD	imagerel ??__FGDataTypeInfo@@YAXXZ+40
	DD	imagerel $unwind$??__FGDataTypeInfo@@YAXXZ
pdata	ENDS
pdata	SEGMENT
$pdata$?PatchFormatStringFloatToInt@@YAPEBDPEBD@Z DD imagerel ?PatchFormatStringFloatToInt@@YAPEBDPEBD@Z
	DD	imagerel ?PatchFormatStringFloatToInt@@YAPEBDPEBD@Z+354
	DD	imagerel $unwind$?PatchFormatStringFloatToInt@@YAPEBDPEBD@Z
$pdata$?GetMinimumStepAtDecimalPrecision@@YAMH@Z DD imagerel ?GetMinimumStepAtDecimalPrecision@@YAMH@Z
	DD	imagerel ?GetMinimumStepAtDecimalPrecision@@YAMH@Z+100
	DD	imagerel $unwind$?GetMinimumStepAtDecimalPrecision@@YAMH@Z
pdata	ENDS
;	COMDAT pdata
pdata	SEGMENT
$pdata$??$DragBehaviorT@HHM@ImGui@@YA_NHPEAHMHHPEBDMH@Z DD imagerel $LN48
	DD	imagerel $LN48+1897
	DD	imagerel $unwind$??$DragBehaviorT@HHM@ImGui@@YA_NHPEAHMHHPEBDMH@Z
pdata	ENDS
;	COMDAT pdata
pdata	SEGMENT
$pdata$??$DragBehaviorT@IHM@ImGui@@YA_NHPEAIMIIPEBDMH@Z DD imagerel $LN48
	DD	imagerel $LN48+1923
	DD	imagerel $unwind$??$DragBehaviorT@IHM@ImGui@@YA_NHPEAIMIIPEBDMH@Z
pdata	ENDS
;	COMDAT pdata
pdata	SEGMENT
$pdata$??$DragBehaviorT@_J_JN@ImGui@@YA_NHPEA_JM_J1PEBDMH@Z DD imagerel $LN48
	DD	imagerel $LN48+2036
	DD	imagerel $unwind$??$DragBehaviorT@_J_JN@ImGui@@YA_NHPEA_JM_J1PEBDMH@Z
pdata	ENDS
;	COMDAT pdata
pdata	SEGMENT
$pdata$??$DragBehaviorT@_K_JN@ImGui@@YA_NHPEA_KM_K1PEBDMH@Z DD imagerel $LN66
	DD	imagerel $LN66+2402
	DD	imagerel $unwind$??$DragBehaviorT@_K_JN@ImGui@@YA_NHPEA_KM_K1PEBDMH@Z
pdata	ENDS
;	COMDAT pdata
pdata	SEGMENT
$pdata$??$DragBehaviorT@MMM@ImGui@@YA_NHPEAMMMMPEBDMH@Z DD imagerel $LN50
	DD	imagerel $LN50+1929
	DD	imagerel $unwind$??$DragBehaviorT@MMM@ImGui@@YA_NHPEAMMMMPEBDMH@Z
pdata	ENDS
;	COMDAT pdata
pdata	SEGMENT
$pdata$??$DragBehaviorT@NNN@ImGui@@YA_NHPEANMNNPEBDMH@Z DD imagerel $LN50
	DD	imagerel $LN50+2007
	DD	imagerel $unwind$??$DragBehaviorT@NNN@ImGui@@YA_NHPEANMNNPEBDMH@Z
pdata	ENDS
pdata	SEGMENT
$pdata$??$ImMax@H@@YAHHH@Z DD imagerel ??$ImMax@H@@YAHHH@Z
	DD	imagerel ??$ImMax@H@@YAHHH@Z+46
	DD	imagerel $unwind$??$ImMax@H@@YAHHH@Z
pdata	ENDS
;	COMDAT pdata
pdata	SEGMENT
$pdata$??$SliderBehaviorT@HHM@ImGui@@YA_NAEBUImRect@@IHPEAHHHPEBDMHPEAU1@@Z DD imagerel $LN68
	DD	imagerel $LN68+3013
	DD	imagerel $unwind$??$SliderBehaviorT@HHM@ImGui@@YA_NAEBUImRect@@IHPEAHHHPEBDMHPEAU1@@Z
pdata	ENDS
;	COMDAT pdata
pdata	SEGMENT
$pdata$??$SliderBehaviorT@IHM@ImGui@@YA_NAEBUImRect@@IHPEAIIIPEBDMHPEAU1@@Z DD imagerel $LN68
	DD	imagerel $LN68+3036
	DD	imagerel $unwind$??$SliderBehaviorT@IHM@ImGui@@YA_NAEBUImRect@@IHPEAIIIPEBDMHPEAU1@@Z
pdata	ENDS
;	COMDAT pdata
pdata	SEGMENT
$pdata$??$SliderBehaviorT@_J_JN@ImGui@@YA_NAEBUImRect@@IHPEA_J_J2PEBDMHPEAU1@@Z DD imagerel $LN68
	DD	imagerel $LN68+3123
	DD	imagerel $unwind$??$SliderBehaviorT@_J_JN@ImGui@@YA_NAEBUImRect@@IHPEA_J_J2PEBDMHPEAU1@@Z
pdata	ENDS
;	COMDAT pdata
pdata	SEGMENT
$pdata$??$SliderBehaviorT@_K_JN@ImGui@@YA_NAEBUImRect@@IHPEA_K_K2PEBDMHPEAU1@@Z DD imagerel $LN84
	DD	imagerel $LN84+3464
	DD	imagerel $unwind$??$SliderBehaviorT@_K_JN@ImGui@@YA_NAEBUImRect@@IHPEA_K_K2PEBDMHPEAU1@@Z
pdata	ENDS
;	COMDAT pdata
pdata	SEGMENT
$pdata$??$SliderBehaviorT@MMM@ImGui@@YA_NAEBUImRect@@IHPEAMMMPEBDMHPEAU1@@Z DD imagerel $LN69
	DD	imagerel $LN69+3075
	DD	imagerel $unwind$??$SliderBehaviorT@MMM@ImGui@@YA_NAEBUImRect@@IHPEAMMMPEBDMHPEAU1@@Z
pdata	ENDS
;	COMDAT pdata
pdata	SEGMENT
$pdata$??$SliderBehaviorT@NNN@ImGui@@YA_NAEBUImRect@@IHPEANNNPEBDMHPEAU1@@Z DD imagerel $LN69
	DD	imagerel $LN69+3133
	DD	imagerel $unwind$??$SliderBehaviorT@NNN@ImGui@@YA_NAEBUImRect@@IHPEANNNPEBDMHPEAU1@@Z
pdata	ENDS
pdata	SEGMENT
$pdata$??$ImMin@_K@@YA_K_K0@Z DD imagerel ??$ImMin@_K@@YA_K_K0@Z
	DD	imagerel ??$ImMin@_K@@YA_K_K0@Z+55
	DD	imagerel $unwind$??$ImMin@_K@@YA_K_K0@Z
$pdata$??$ImAtoi@H@@YAPEBDPEBDPEAH@Z DD imagerel ??$ImAtoi@H@@YAPEBDPEBDPEAH@Z
	DD	imagerel ??$ImAtoi@H@@YAPEBDPEBDPEAH@Z+203
	DD	imagerel $unwind$??$ImAtoi@H@@YAPEBDPEBDPEAH@Z
$pdata$?InputTextCallback@@YAHPEAUImGuiInputTextCallbackData@@@Z DD imagerel ?InputTextCallback@@YAHPEAUImGuiInputTextCallbackData@@@Z
	DD	imagerel ?InputTextCallback@@YAHPEAUImGuiInputTextCallbackData@@@Z+158
	DD	imagerel $unwind$?InputTextCallback@@YAHPEAUImGuiInputTextCallbackData@@@Z
$pdata$?STB_TEXTEDIT_GETCHAR@ImGuiStb@@YAGPEBUImGuiInputTextState@@H@Z DD imagerel ?STB_TEXTEDIT_GETCHAR@ImGuiStb@@YAGPEBUImGuiInputTextState@@H@Z
	DD	imagerel ?STB_TEXTEDIT_GETCHAR@ImGuiStb@@YAGPEBUImGuiInputTextState@@H@Z+49
	DD	imagerel $unwind$?STB_TEXTEDIT_GETCHAR@ImGuiStb@@YAGPEBUImGuiInputTextState@@H@Z
$pdata$?STB_TEXTEDIT_GETWIDTH@ImGuiStb@@YAMPEAUImGuiInputTextState@@HH@Z DD imagerel ?STB_TEXTEDIT_GETWIDTH@ImGuiStb@@YAMPEAUImGuiInputTextState@@HH@Z
	DD	imagerel ?STB_TEXTEDIT_GETWIDTH@ImGuiStb@@YAMPEAUImGuiInputTextState@@HH@Z+155
	DD	imagerel $unwind$?STB_TEXTEDIT_GETWIDTH@ImGuiStb@@YAMPEAUImGuiInputTextState@@HH@Z
$pdata$?STB_TEXTEDIT_KEYTOTEXT@ImGuiStb@@YAHH@Z DD imagerel ?STB_TEXTEDIT_KEYTOTEXT@ImGuiStb@@YAHH@Z
	DD	imagerel ?STB_TEXTEDIT_KEYTOTEXT@ImGuiStb@@YAHH@Z+42
	DD	imagerel $unwind$?STB_TEXTEDIT_KEYTOTEXT@ImGuiStb@@YAHH@Z
$pdata$?STB_TEXTEDIT_LAYOUTROW@ImGuiStb@@YAXPEAUStbTexteditRow@1@PEAUImGuiInputTextState@@H@Z DD imagerel ?STB_TEXTEDIT_LAYOUTROW@ImGuiStb@@YAXPEAUStbTexteditRow@1@PEAUImGuiInputTextState@@H@Z
	DD	imagerel ?STB_TEXTEDIT_LAYOUTROW@ImGuiStb@@YAXPEAUStbTexteditRow@1@PEAUImGuiInputTextState@@H@Z+223
	DD	imagerel $unwind$?STB_TEXTEDIT_LAYOUTROW@ImGuiStb@@YAXPEAUStbTexteditRow@1@PEAUImGuiInputTextState@@H@Z
$pdata$?is_separator@ImGuiStb@@YA_NI@Z DD imagerel ?is_separator@ImGuiStb@@YA_NI@Z
	DD	imagerel ?is_separator@ImGuiStb@@YA_NI@Z+115
	DD	imagerel $unwind$?is_separator@ImGuiStb@@YA_NI@Z
$pdata$?is_word_boundary_from_right@ImGuiStb@@YAHPEAUImGuiInputTextState@@H@Z DD imagerel ?is_word_boundary_from_right@ImGuiStb@@YAHPEAUImGuiInputTextState@@H@Z
	DD	imagerel ?is_word_boundary_from_right@ImGuiStb@@YAHPEAUImGuiInputTextState@@H@Z+159
	DD	imagerel $unwind$?is_word_boundary_from_right@ImGuiStb@@YAHPEAUImGuiInputTextState@@H@Z
$pdata$?STB_TEXTEDIT_MOVEWORDLEFT_IMPL@ImGuiStb@@YAHPEAUImGuiInputTextState@@H@Z DD imagerel ?STB_TEXTEDIT_MOVEWORDLEFT_IMPL@ImGuiStb@@YAHPEAUImGuiInputTextState@@H@Z
	DD	imagerel ?STB_TEXTEDIT_MOVEWORDLEFT_IMPL@ImGuiStb@@YAHPEAUImGuiInputTextState@@H@Z+94
	DD	imagerel $unwind$?STB_TEXTEDIT_MOVEWORDLEFT_IMPL@ImGuiStb@@YAHPEAUImGuiInputTextState@@H@Z
$pdata$?STB_TEXTEDIT_MOVEWORDRIGHT_IMPL@ImGuiStb@@YAHPEAUImGuiInputTextState@@H@Z DD imagerel ?STB_TEXTEDIT_MOVEWORDRIGHT_IMPL@ImGuiStb@@YAHPEAUImGuiInputTextState@@H@Z
	DD	imagerel ?STB_TEXTEDIT_MOVEWORDRIGHT_IMPL@ImGuiStb@@YAHPEAUImGuiInputTextState@@H@Z+112
	DD	imagerel $unwind$?STB_TEXTEDIT_MOVEWORDRIGHT_IMPL@ImGuiStb@@YAHPEAUImGuiInputTextState@@H@Z
$pdata$?STB_TEXTEDIT_DELETECHARS@ImGuiStb@@YAXPEAUImGuiInputTextState@@HH@Z DD imagerel ?STB_TEXTEDIT_DELETECHARS@ImGuiStb@@YAXPEAUImGuiInputTextState@@HH@Z
	DD	imagerel ?STB_TEXTEDIT_DELETECHARS@ImGuiStb@@YAXPEAUImGuiInputTextState@@HH@Z+248
	DD	imagerel $unwind$?STB_TEXTEDIT_DELETECHARS@ImGuiStb@@YAXPEAUImGuiInputTextState@@HH@Z
$pdata$?STB_TEXTEDIT_INSERTCHARS@ImGuiStb@@YA_NPEAUImGuiInputTextState@@HPEBGH@Z DD imagerel ?STB_TEXTEDIT_INSERTCHARS@ImGuiStb@@YA_NPEAUImGuiInputTextState@@HPEBGH@Z
	DD	imagerel ?STB_TEXTEDIT_INSERTCHARS@ImGuiStb@@YA_NPEAUImGuiInputTextState@@HPEBGH@Z+478
	DD	imagerel $unwind$?STB_TEXTEDIT_INSERTCHARS@ImGuiStb@@YA_NPEAUImGuiInputTextState@@HPEBGH@Z
$pdata$??$ImClamp@H@@YAHHHH@Z DD imagerel ??$ImClamp@H@@YAHHHH@Z
	DD	imagerel ??$ImClamp@H@@YAHHHH@Z+79
	DD	imagerel $unwind$??$ImClamp@H@@YAHHHH@Z
$pdata$?stb_text_locate_coord@ImGuiStb@@YAHPEAUImGuiInputTextState@@MM@Z DD imagerel ?stb_text_locate_coord@ImGuiStb@@YAHPEAUImGuiInputTextState@@MM@Z
	DD	imagerel ?stb_text_locate_coord@ImGuiStb@@YAHPEAUImGuiInputTextState@@MM@Z+586
	DD	imagerel $unwind$?stb_text_locate_coord@ImGuiStb@@YAHPEAUImGuiInputTextState@@MM@Z
$pdata$?stb_textedit_click@ImGuiStb@@YAXPEAUImGuiInputTextState@@PEAUSTB_TexteditState@1@MM@Z DD imagerel ?stb_textedit_click@ImGuiStb@@YAXPEAUImGuiInputTextState@@PEAUSTB_TexteditState@1@MM@Z
	DD	imagerel ?stb_textedit_click@ImGuiStb@@YAXPEAUImGuiInputTextState@@PEAUSTB_TexteditState@1@MM@Z+170
	DD	imagerel $unwind$?stb_textedit_click@ImGuiStb@@YAXPEAUImGuiInputTextState@@PEAUSTB_TexteditState@1@MM@Z
$pdata$?stb_textedit_drag@ImGuiStb@@YAXPEAUImGuiInputTextState@@PEAUSTB_TexteditState@1@MM@Z DD imagerel ?stb_textedit_drag@ImGuiStb@@YAXPEAUImGuiInputTextState@@PEAUSTB_TexteditState@1@MM@Z
	DD	imagerel ?stb_textedit_drag@ImGuiStb@@YAXPEAUImGuiInputTextState@@PEAUSTB_TexteditState@1@MM@Z+192
	DD	imagerel $unwind$?stb_textedit_drag@ImGuiStb@@YAXPEAUImGuiInputTextState@@PEAUSTB_TexteditState@1@MM@Z
$pdata$?stb_text_undo@ImGuiStb@@YAXPEAUImGuiInputTextState@@PEAUSTB_TexteditState@1@@Z DD imagerel ?stb_text_undo@ImGuiStb@@YAXPEAUImGuiInputTextState@@PEAUSTB_TexteditState@1@@Z
	DD	imagerel ?stb_text_undo@ImGuiStb@@YAXPEAUImGuiInputTextState@@PEAUSTB_TexteditState@1@@Z+691
	DD	imagerel $unwind$?stb_text_undo@ImGuiStb@@YAXPEAUImGuiInputTextState@@PEAUSTB_TexteditState@1@@Z
$pdata$?stb_text_redo@ImGuiStb@@YAXPEAUImGuiInputTextState@@PEAUSTB_TexteditState@1@@Z DD imagerel ?stb_text_redo@ImGuiStb@@YAXPEAUImGuiInputTextState@@PEAUSTB_TexteditState@1@@Z
	DD	imagerel ?stb_text_redo@ImGuiStb@@YAXPEAUImGuiInputTextState@@PEAUSTB_TexteditState@1@@Z+591
	DD	imagerel $unwind$?stb_text_redo@ImGuiStb@@YAXPEAUImGuiInputTextState@@PEAUSTB_TexteditState@1@@Z
$pdata$?stb_text_makeundo_delete@ImGuiStb@@YAXPEAUImGuiInputTextState@@PEAUSTB_TexteditState@1@HH@Z DD imagerel ?stb_text_makeundo_delete@ImGuiStb@@YAXPEAUImGuiInputTextState@@PEAUSTB_TexteditState@1@HH@Z
	DD	imagerel ?stb_text_makeundo_delete@ImGuiStb@@YAXPEAUImGuiInputTextState@@PEAUSTB_TexteditState@1@HH@Z+141
	DD	imagerel $unwind$?stb_text_makeundo_delete@ImGuiStb@@YAXPEAUImGuiInputTextState@@PEAUSTB_TexteditState@1@HH@Z
$pdata$?stb_text_makeundo_insert@ImGuiStb@@YAXPEAUSTB_TexteditState@1@HH@Z DD imagerel ?stb_text_makeundo_insert@ImGuiStb@@YAXPEAUSTB_TexteditState@1@HH@Z
	DD	imagerel ?stb_text_makeundo_insert@ImGuiStb@@YAXPEAUSTB_TexteditState@1@HH@Z+53
	DD	imagerel $unwind$?stb_text_makeundo_insert@ImGuiStb@@YAXPEAUSTB_TexteditState@1@HH@Z
$pdata$?stb_text_makeundo_replace@ImGuiStb@@YAXPEAUImGuiInputTextState@@PEAUSTB_TexteditState@1@HHH@Z DD imagerel ?stb_text_makeundo_replace@ImGuiStb@@YAXPEAUImGuiInputTextState@@PEAUSTB_TexteditState@1@HHH@Z
	DD	imagerel ?stb_text_makeundo_replace@ImGuiStb@@YAXPEAUImGuiInputTextState@@PEAUSTB_TexteditState@1@HHH@Z+143
	DD	imagerel $unwind$?stb_text_makeundo_replace@ImGuiStb@@YAXPEAUImGuiInputTextState@@PEAUSTB_TexteditState@1@HHH@Z
$pdata$?stb_textedit_find_charpos@ImGuiStb@@YAXPEAUStbFindState@1@PEAUImGuiInputTextState@@HH@Z DD imagerel ?stb_textedit_find_charpos@ImGuiStb@@YAXPEAUStbFindState@1@PEAUImGuiInputTextState@@HH@Z
	DD	imagerel ?stb_textedit_find_charpos@ImGuiStb@@YAXPEAUStbFindState@1@PEAUImGuiInputTextState@@HH@Z+645
	DD	imagerel $unwind$?stb_textedit_find_charpos@ImGuiStb@@YAXPEAUStbFindState@1@PEAUImGuiInputTextState@@HH@Z
$pdata$?stb_textedit_clamp@ImGuiStb@@YAXPEAUImGuiInputTextState@@PEAUSTB_TexteditState@1@@Z DD imagerel ?stb_textedit_clamp@ImGuiStb@@YAXPEAUImGuiInputTextState@@PEAUSTB_TexteditState@1@@Z
	DD	imagerel ?stb_textedit_clamp@ImGuiStb@@YAXPEAUImGuiInputTextState@@PEAUSTB_TexteditState@1@@Z+160
	DD	imagerel $unwind$?stb_textedit_clamp@ImGuiStb@@YAXPEAUImGuiInputTextState@@PEAUSTB_TexteditState@1@@Z
$pdata$?stb_textedit_delete@ImGuiStb@@YAXPEAUImGuiInputTextState@@PEAUSTB_TexteditState@1@HH@Z DD imagerel ?stb_textedit_delete@ImGuiStb@@YAXPEAUImGuiInputTextState@@PEAUSTB_TexteditState@1@HH@Z
	DD	imagerel ?stb_textedit_delete@ImGuiStb@@YAXPEAUImGuiInputTextState@@PEAUSTB_TexteditState@1@HH@Z+82
	DD	imagerel $unwind$?stb_textedit_delete@ImGuiStb@@YAXPEAUImGuiInputTextState@@PEAUSTB_TexteditState@1@HH@Z
$pdata$?stb_textedit_delete_selection@ImGuiStb@@YAXPEAUImGuiInputTextState@@PEAUSTB_TexteditState@1@@Z DD imagerel ?stb_textedit_delete_selection@ImGuiStb@@YAXPEAUImGuiInputTextState@@PEAUSTB_TexteditState@1@@Z
	DD	imagerel ?stb_textedit_delete_selection@ImGuiStb@@YAXPEAUImGuiInputTextState@@PEAUSTB_TexteditState@1@@Z+236
	DD	imagerel $unwind$?stb_textedit_delete_selection@ImGuiStb@@YAXPEAUImGuiInputTextState@@PEAUSTB_TexteditState@1@@Z
$pdata$?stb_textedit_sortselection@ImGuiStb@@YAXPEAUSTB_TexteditState@1@@Z DD imagerel ?stb_textedit_sortselection@ImGuiStb@@YAXPEAUSTB_TexteditState@1@@Z
	DD	imagerel ?stb_textedit_sortselection@ImGuiStb@@YAXPEAUSTB_TexteditState@1@@Z+70
	DD	imagerel $unwind$?stb_textedit_sortselection@ImGuiStb@@YAXPEAUSTB_TexteditState@1@@Z
$pdata$?stb_textedit_move_to_first@ImGuiStb@@YAXPEAUSTB_TexteditState@1@@Z DD imagerel ?stb_textedit_move_to_first@ImGuiStb@@YAXPEAUSTB_TexteditState@1@@Z
	DD	imagerel ?stb_textedit_move_to_first@ImGuiStb@@YAXPEAUSTB_TexteditState@1@@Z+82
	DD	imagerel $unwind$?stb_textedit_move_to_first@ImGuiStb@@YAXPEAUSTB_TexteditState@1@@Z
$pdata$?stb_textedit_move_to_last@ImGuiStb@@YAXPEAUImGuiInputTextState@@PEAUSTB_TexteditState@1@@Z DD imagerel ?stb_textedit_move_to_last@ImGuiStb@@YAXPEAUImGuiInputTextState@@PEAUSTB_TexteditState@1@@Z
	DD	imagerel ?stb_textedit_move_to_last@ImGuiStb@@YAXPEAUImGuiInputTextState@@PEAUSTB_TexteditState@1@@Z+102
	DD	imagerel $unwind$?stb_textedit_move_to_last@ImGuiStb@@YAXPEAUImGuiInputTextState@@PEAUSTB_TexteditState@1@@Z
$pdata$?stb_textedit_cut@ImGuiStb@@YAHPEAUImGuiInputTextState@@PEAUSTB_TexteditState@1@@Z DD imagerel ?stb_textedit_cut@ImGuiStb@@YAHPEAUImGuiInputTextState@@PEAUSTB_TexteditState@1@@Z
	DD	imagerel ?stb_textedit_cut@ImGuiStb@@YAHPEAUImGuiInputTextState@@PEAUSTB_TexteditState@1@@Z+70
	DD	imagerel $unwind$?stb_textedit_cut@ImGuiStb@@YAHPEAUImGuiInputTextState@@PEAUSTB_TexteditState@1@@Z
$pdata$?stb_textedit_paste_internal@ImGuiStb@@YAHPEAUImGuiInputTextState@@PEAUSTB_TexteditState@1@PEAGH@Z DD imagerel ?stb_textedit_paste_internal@ImGuiStb@@YAHPEAUImGuiInputTextState@@PEAUSTB_TexteditState@1@PEAGH@Z
	DD	imagerel ?stb_textedit_paste_internal@ImGuiStb@@YAHPEAUImGuiInputTextState@@PEAUSTB_TexteditState@1@PEAGH@Z+195
	DD	imagerel $unwind$?stb_textedit_paste_internal@ImGuiStb@@YAHPEAUImGuiInputTextState@@PEAUSTB_TexteditState@1@PEAGH@Z
$pdata$?stb_textedit_key@ImGuiStb@@YAXPEAUImGuiInputTextState@@PEAUSTB_TexteditState@1@H@Z DD imagerel ?stb_textedit_key@ImGuiStb@@YAXPEAUImGuiInputTextState@@PEAUSTB_TexteditState@1@H@Z
	DD	imagerel ?stb_textedit_key@ImGuiStb@@YAXPEAUImGuiInputTextState@@PEAUSTB_TexteditState@1@H@Z+4152
	DD	imagerel $unwind$?stb_textedit_key@ImGuiStb@@YAXPEAUImGuiInputTextState@@PEAUSTB_TexteditState@1@H@Z
$pdata$?stb_textedit_discard_undo@ImGuiStb@@YAXPEAUStbUndoState@1@@Z DD imagerel ?stb_textedit_discard_undo@ImGuiStb@@YAXPEAUStbUndoState@1@@Z
	DD	imagerel ?stb_textedit_discard_undo@ImGuiStb@@YAXPEAUStbUndoState@1@@Z+365
	DD	imagerel $unwind$?stb_textedit_discard_undo@ImGuiStb@@YAXPEAUStbUndoState@1@@Z
$pdata$?stb_textedit_discard_redo@ImGuiStb@@YAXPEAUStbUndoState@1@@Z DD imagerel ?stb_textedit_discard_redo@ImGuiStb@@YAXPEAUStbUndoState@1@@Z
	DD	imagerel ?stb_textedit_discard_redo@ImGuiStb@@YAXPEAUStbUndoState@1@@Z+482
	DD	imagerel $unwind$?stb_textedit_discard_redo@ImGuiStb@@YAXPEAUStbUndoState@1@@Z
$pdata$?stb_text_create_undo_record@ImGuiStb@@YAPEAUStbUndoRecord@1@PEAUStbUndoState@1@H@Z DD imagerel ?stb_text_create_undo_record@ImGuiStb@@YAPEAUStbUndoRecord@1@PEAUStbUndoState@1@H@Z
	DD	imagerel ?stb_text_create_undo_record@ImGuiStb@@YAPEAUStbUndoRecord@1@PEAUStbUndoState@1@H@Z+200
	DD	imagerel $unwind$?stb_text_create_undo_record@ImGuiStb@@YAPEAUStbUndoRecord@1@PEAUStbUndoState@1@H@Z
$pdata$?stb_text_createundo@ImGuiStb@@YAPEAGPEAUStbUndoState@1@HHH@Z DD imagerel ?stb_text_createundo@ImGuiStb@@YAPEAGPEAUStbUndoState@1@HHH@Z
	DD	imagerel ?stb_text_createundo@ImGuiStb@@YAPEAGPEAUStbUndoState@1@HHH@Z+186
	DD	imagerel $unwind$?stb_text_createundo@ImGuiStb@@YAPEAGPEAUStbUndoState@1@HHH@Z
$pdata$?stb_textedit_initialize_state@ImGuiStb@@YAXPEAUSTB_TexteditState@1@H@Z DD imagerel ?stb_textedit_initialize_state@ImGuiStb@@YAXPEAUSTB_TexteditState@1@H@Z
	DD	imagerel ?stb_textedit_initialize_state@ImGuiStb@@YAXPEAUSTB_TexteditState@1@H@Z+33
	DD	imagerel $unwind$?stb_textedit_initialize_state@ImGuiStb@@YAXPEAUSTB_TexteditState@1@H@Z
$pdata$?stb_textedit_paste@ImGuiStb@@YAHPEAUImGuiInputTextState@@PEAUSTB_TexteditState@1@PEBGH@Z DD imagerel ?stb_textedit_paste@ImGuiStb@@YAHPEAUImGuiInputTextState@@PEAUSTB_TexteditState@1@PEBGH@Z
	DD	imagerel ?stb_textedit_paste@ImGuiStb@@YAHPEAUImGuiInputTextState@@PEAUSTB_TexteditState@1@PEBGH@Z+54
	DD	imagerel $unwind$?stb_textedit_paste@ImGuiStb@@YAHPEAUImGuiInputTextState@@PEAUSTB_TexteditState@1@PEBGH@Z
pdata	ENDS
;	COMDAT pdata
pdata	SEGMENT
$pdata$??__Fids@?BD@??ColorEdit4@ImGui@@YA_NPEBDQEAMH@Z@YAXXZ DD imagerel ??__Fids@?BD@??ColorEdit4@ImGui@@YA_NPEBDQEAMH@Z@YAXXZ
	DD	imagerel ??__Fids@?BD@??ColorEdit4@ImGui@@YA_NPEBDQEAMH@Z@YAXXZ+40
	DD	imagerel $unwind$??__Fids@?BD@??ColorEdit4@ImGui@@YA_NPEBDQEAMH@Z@YAXXZ
pdata	ENDS
;	COMDAT pdata
pdata	SEGMENT
$pdata$??__Ffmt_table_int@?BD@??ColorEdit4@ImGui@@YA_NPEBDQEAMH@Z@YAXXZ DD imagerel ??__Ffmt_table_int@?BD@??ColorEdit4@ImGui@@YA_NPEBDQEAMH@Z@YAXXZ
	DD	imagerel ??__Ffmt_table_int@?BD@??ColorEdit4@ImGui@@YA_NPEBDQEAMH@Z@YAXXZ+58
	DD	imagerel $unwind$??__Ffmt_table_int@?BD@??ColorEdit4@ImGui@@YA_NPEBDQEAMH@Z@YAXXZ
pdata	ENDS
;	COMDAT pdata
pdata	SEGMENT
$pdata$??__Ffmt_table_float@?BD@??ColorEdit4@ImGui@@YA_NPEBDQEAMH@Z@YAXXZ DD imagerel ??__Ffmt_table_float@?BD@??ColorEdit4@ImGui@@YA_NPEBDQEAMH@Z@YAXXZ
	DD	imagerel ??__Ffmt_table_float@?BD@??ColorEdit4@ImGui@@YA_NPEBDQEAMH@Z@YAXXZ+58
	DD	imagerel $unwind$??__Ffmt_table_float@?BD@??ColorEdit4@ImGui@@YA_NPEBDQEAMH@Z@YAXXZ
pdata	ENDS
pdata	SEGMENT
$pdata$?ImAlphaBlendColor@@YAIII@Z DD imagerel ?ImAlphaBlendColor@@YAIII@Z
	DD	imagerel ?ImAlphaBlendColor@@YAIII@Z+195
	DD	imagerel $unwind$?ImAlphaBlendColor@@YAIII@Z
$pdata$?RenderArrowsForVerticalBar@@YAXPEAUImDrawList@@UImVec2@@1M@Z DD imagerel ?RenderArrowsForVerticalBar@@YAXPEAUImDrawList@@UImVec2@@1M@Z
	DD	imagerel ?RenderArrowsForVerticalBar@@YAXPEAUImDrawList@@UImVec2@@1M@Z+504
	DD	imagerel $unwind$?RenderArrowsForVerticalBar@@YAXPEAUImDrawList@@UImVec2@@1M@Z
$pdata$?Plot_ArrayGetter@@YAMPEAXH@Z DD imagerel ?Plot_ArrayGetter@@YAMPEAXH@Z
	DD	imagerel ?Plot_ArrayGetter@@YAMPEAXH@Z+69
	DD	imagerel $unwind$?Plot_ArrayGetter@@YAMPEAXH@Z
$pdata$?TabBarLayout@ImGui@@YAXPEAUImGuiTabBar@@@Z DD imagerel ?TabBarLayout@ImGui@@YAXPEAUImGuiTabBar@@@Z
	DD	imagerel ?TabBarLayout@ImGui@@YAXPEAUImGuiTabBar@@@Z+3266
	DD	imagerel $unwind$?TabBarLayout@ImGui@@YAXPEAUImGuiTabBar@@@Z
$pdata$?TabBarCalcTabID@ImGui@@YAIPEAUImGuiTabBar@@PEBD@Z DD imagerel ?TabBarCalcTabID@ImGui@@YAIPEAUImGuiTabBar@@PEBD@Z
	DD	imagerel ?TabBarCalcTabID@ImGui@@YAIPEAUImGuiTabBar@@PEBD@Z+109
	DD	imagerel $unwind$?TabBarCalcTabID@ImGui@@YAIPEAUImGuiTabBar@@PEBD@Z
$pdata$?TabBarCalcMaxTabWidth@ImGui@@YAMXZ DD imagerel ?TabBarCalcMaxTabWidth@ImGui@@YAMXZ
	DD	imagerel ?TabBarCalcMaxTabWidth@ImGui@@YAMXZ+40
	DD	imagerel $unwind$?TabBarCalcMaxTabWidth@ImGui@@YAMXZ
$pdata$?TabBarScrollClamp@ImGui@@YAMPEAUImGuiTabBar@@M@Z DD imagerel ?TabBarScrollClamp@ImGui@@YAMPEAUImGuiTabBar@@M@Z
	DD	imagerel ?TabBarScrollClamp@ImGui@@YAMPEAUImGuiTabBar@@M@Z+88
	DD	imagerel $unwind$?TabBarScrollClamp@ImGui@@YAMPEAUImGuiTabBar@@M@Z
$pdata$?TabBarScrollToTab@ImGui@@YAXPEAUImGuiTabBar@@PEAUImGuiTabItem@@@Z DD imagerel ?TabBarScrollToTab@ImGui@@YAXPEAUImGuiTabBar@@PEAUImGuiTabItem@@@Z
	DD	imagerel ?TabBarScrollToTab@ImGui@@YAXPEAUImGuiTabBar@@PEAUImGuiTabItem@@@Z+330
	DD	imagerel $unwind$?TabBarScrollToTab@ImGui@@YAXPEAUImGuiTabBar@@PEAUImGuiTabItem@@@Z
$pdata$?TabBarScrollingButtons@ImGui@@YAPEAUImGuiTabItem@@PEAUImGuiTabBar@@@Z DD imagerel ?TabBarScrollingButtons@ImGui@@YAPEAUImGuiTabItem@@PEAUImGuiTabBar@@@Z
	DD	imagerel ?TabBarScrollingButtons@ImGui@@YAPEAUImGuiTabItem@@PEAUImGuiTabBar@@@Z+1177
	DD	imagerel $unwind$?TabBarScrollingButtons@ImGui@@YAPEAUImGuiTabItem@@PEAUImGuiTabBar@@@Z
$pdata$?TabBarTabListPopupButton@ImGui@@YAPEAUImGuiTabItem@@PEAUImGuiTabBar@@@Z DD imagerel ?TabBarTabListPopupButton@ImGui@@YAPEAUImGuiTabItem@@PEAUImGuiTabBar@@@Z
	DD	imagerel ?TabBarTabListPopupButton@ImGui@@YAPEAUImGuiTabItem@@PEAUImGuiTabBar@@@Z+616
	DD	imagerel $unwind$?TabBarTabListPopupButton@ImGui@@YAPEAUImGuiTabItem@@PEAUImGuiTabBar@@@Z
$pdata$?TabItemComparerByVisibleOffset@@YAHPEBX0@Z DD imagerel ?TabItemComparerByVisibleOffset@@YAHPEBX0@Z
	DD	imagerel ?TabItemComparerByVisibleOffset@@YAHPEBX0@Z+61
	DD	imagerel $unwind$?TabItemComparerByVisibleOffset@@YAHPEBX0@Z
$pdata$?TabBarSortItemComparer@@YAHPEBX0@Z DD imagerel ?TabBarSortItemComparer@@YAHPEBX0@Z
	DD	imagerel ?TabBarSortItemComparer@@YAHPEBX0@Z+93
	DD	imagerel $unwind$?TabBarSortItemComparer@@YAHPEBX0@Z
pdata	ENDS
;	COMDAT pdata
pdata	SEGMENT
$pdata$??$_Allocate_at_least_helper@V?$allocator@D@std@@@std@@YAPEADAEAV?$allocator@D@0@AEA_K@Z DD imagerel $LN3
	DD	imagerel $LN3+37
	DD	imagerel $unwind$??$_Allocate_at_least_helper@V?$allocator@D@std@@@std@@YAPEADAEAV?$allocator@D@0@AEA_K@Z
pdata	ENDS
;	COMDAT pdata
pdata	SEGMENT
$pdata$??$max@_K@std@@YAAEB_KAEB_K0@Z DD imagerel $LN5
	DD	imagerel $LN5+71
	DD	imagerel $unwind$??$max@_K@std@@YAAEB_KAEB_K0@Z
pdata	ENDS
;	COMDAT pdata
pdata	SEGMENT
$pdata$??$_Max_limit@_J@std@@YA_JXZ DD imagerel $LN3
	DD	imagerel $LN3+27
	DD	imagerel $unwind$??$_Max_limit@_J@std@@YA_JXZ
pdata	ENDS
;	COMDAT pdata
pdata	SEGMENT
$pdata$??R<lambda_66f57f934f28d61049862f64df852ff0>@@QEBA@QEAD_KQEBD@Z DD imagerel $LN3
	DD	imagerel $LN3+85
	DD	imagerel $unwind$??R<lambda_66f57f934f28d61049862f64df852ff0>@@QEBA@QEAD_KQEBD@Z
pdata	ENDS
;	COMDAT pdata
pdata	SEGMENT
$pdata$??$_Reallocate_for@V<lambda_66f57f934f28d61049862f64df852ff0>@@PEBD@?$basic_string@DU?$char_traits@D@std@@V?$allocator@D@2@@std@@AEAAAEAV01@_KV<lambda_66f57f934f28d61049862f64df852ff0>@@PEBD@Z DD imagerel $LN6
	DD	imagerel $LN6+266
	DD	imagerel $unwind$??$_Reallocate_for@V<lambda_66f57f934f28d61049862f64df852ff0>@@PEBD@?$basic_string@DU?$char_traits@D@std@@V?$allocator@D@2@@std@@AEAAAEAV01@_KV<lambda_66f57f934f28d61049862f64df852ff0>@@PEBD@Z
pdata	ENDS
;	COMDAT pdata
pdata	SEGMENT
$pdata$??R<lambda_65e615be2a453ca0576c979606f46740>@@QEBA@QEADQEBD_K12@Z DD imagerel $LN3
	DD	imagerel $LN3+130
	DD	imagerel $unwind$??R<lambda_65e615be2a453ca0576c979606f46740>@@QEBA@QEADQEBD_K12@Z
pdata	ENDS
;	COMDAT pdata
pdata	SEGMENT
$pdata$??$_Reallocate_grow_by@V<lambda_65e615be2a453ca0576c979606f46740>@@PEBD_K@?$basic_string@DU?$char_traits@D@std@@V?$allocator@D@2@@std@@AEAAAEAV01@_KV<lambda_65e615be2a453ca0576c979606f46740>@@PEBD_K@Z DD imagerel $LN6
	DD	imagerel $LN6+450
	DD	imagerel $unwind$??$_Reallocate_grow_by@V<lambda_65e615be2a453ca0576c979606f46740>@@PEBD_K@?$basic_string@DU?$char_traits@D@std@@V?$allocator@D@2@@std@@AEAAAEAV01@_KV<lambda_65e615be2a453ca0576c979606f46740>@@PEBD_K@Z
pdata	ENDS
;	COMDAT pdata
pdata	SEGMENT
$pdata$??$?0V?$allocator@D@std@@$$V@?$_Compressed_pair@V?$allocator@D@std@@V?$_String_val@U?$_Simple_types@D@std@@@2@$00@std@@QEAA@U_One_then_variadic_args_t@1@$$QEAV?$allocator@D@1@@Z DD imagerel $LN4
	DD	imagerel $LN4+52
	DD	imagerel $unwind$??$?0V?$allocator@D@std@@$$V@?$_Compressed_pair@V?$allocator@D@std@@V?$_String_val@U?$_Simple_types@D@std@@@2@$00@std@@QEAA@U_One_then_variadic_args_t@1@$$QEAV?$allocator@D@1@@Z
pdata	ENDS
;	COMDAT pdata
pdata	SEGMENT
$pdata$?dtor$0@?0???$?0V?$allocator@D@std@@$$V@?$_Compressed_pair@V?$allocator@D@std@@V?$_String_val@U?$_Simple_types@D@std@@@2@$00@std@@QEAA@U_One_then_variadic_args_t@1@$$QEAV?$allocator@D@1@@Z@4HA DD imagerel ?dtor$0@?0???$?0V?$allocator@D@std@@$$V@?$_Compressed_pair@V?$allocator@D@std@@V?$_String_val@U?$_Simple_types@D@std@@@2@$00@std@@QEAA@U_One_then_variadic_args_t@1@$$QEAV?$allocator@D@1@@Z@4HA
	DD	imagerel ?dtor$0@?0???$?0V?$allocator@D@std@@$$V@?$_Compressed_pair@V?$allocator@D@std@@V?$_String_val@U?$_Simple_types@D@std@@@2@$00@std@@QEAA@U_One_then_variadic_args_t@1@$$QEAV?$allocator@D@1@@Z@4HA+24
	DD	imagerel $unwind$?dtor$0@?0???$?0V?$allocator@D@std@@$$V@?$_Compressed_pair@V?$allocator@D@std@@V?$_String_val@U?$_Simple_types@D@std@@@2@$00@std@@QEAA@U_One_then_variadic_args_t@1@$$QEAV?$allocator@D@1@@Z@4HA
pdata	ENDS
;	COMDAT pdata
pdata	SEGMENT
$pdata$??$?0$$V@?$_Compressed_pair@V?$allocator@D@std@@V?$_String_val@U?$_Simple_types@D@std@@@2@$00@std@@QEAA@U_Zero_then_variadic_args_t@1@@Z DD imagerel $LN4
	DD	imagerel $LN4+47
	DD	imagerel $unwind$??$?0$$V@?$_Compressed_pair@V?$allocator@D@std@@V?$_String_val@U?$_Simple_types@D@std@@@2@$00@std@@QEAA@U_Zero_then_variadic_args_t@1@@Z
pdata	ENDS
;	COMDAT pdata
pdata	SEGMENT
$pdata$?dtor$0@?0???$?0$$V@?$_Compressed_pair@V?$allocator@D@std@@V?$_String_val@U?$_Simple_types@D@std@@@2@$00@std@@QEAA@U_Zero_then_variadic_args_t@1@@Z@4HA DD imagerel ?dtor$0@?0???$?0$$V@?$_Compressed_pair@V?$allocator@D@std@@V?$_String_val@U?$_Simple_types@D@std@@@2@$00@std@@QEAA@U_Zero_then_variadic_args_t@1@@Z@4HA
	DD	imagerel ?dtor$0@?0???$?0$$V@?$_Compressed_pair@V?$allocator@D@std@@V?$_String_val@U?$_Simple_types@D@std@@@2@$00@std@@QEAA@U_Zero_then_variadic_args_t@1@@Z@4HA+24
	DD	imagerel $unwind$?dtor$0@?0???$?0$$V@?$_Compressed_pair@V?$allocator@D@std@@V?$_String_val@U?$_Simple_types@D@std@@@2@$00@std@@QEAA@U_Zero_then_variadic_args_t@1@@Z@4HA
pdata	ENDS
;	COMDAT pdata
pdata	SEGMENT
$pdata$??$_Construct@$00PEBD@?$basic_string@DU?$char_traits@D@std@@V?$allocator@D@2@@std@@AEAAXQEBD_K@Z DD imagerel $LN5
	DD	imagerel $LN5+388
	DD	imagerel $unwind$??$_Construct@$00PEBD@?$basic_string@DU?$char_traits@D@std@@V?$allocator@D@2@@std@@AEAAXQEBD_K@Z
pdata	ENDS
;	COMDAT pdata
pdata	SEGMENT
$pdata$??R<lambda_e1befb086ad3257e3f042a63030725f7>@@QEBA@QEADQEBD_K2D@Z DD imagerel $LN3
	DD	imagerel $LN3+131
	DD	imagerel $unwind$??R<lambda_e1befb086ad3257e3f042a63030725f7>@@QEBA@QEADQEBD_K2D@Z
pdata	ENDS
;	COMDAT pdata
pdata	SEGMENT
$pdata$??$_Reallocate_grow_by@V<lambda_e1befb086ad3257e3f042a63030725f7>@@_KD@?$basic_string@DU?$char_traits@D@std@@V?$allocator@D@2@@std@@AEAAAEAV01@_KV<lambda_e1befb086ad3257e3f042a63030725f7>@@_KD@Z DD imagerel $LN6
	DD	imagerel $LN6+448
	DD	imagerel $unwind$??$_Reallocate_grow_by@V<lambda_e1befb086ad3257e3f042a63030725f7>@@_KD@?$basic_string@DU?$char_traits@D@std@@V?$allocator@D@2@@std@@AEAAAEAV01@_KV<lambda_e1befb086ad3257e3f042a63030725f7>@@_KD@Z
pdata	ENDS
;	COMDAT pdata
pdata	SEGMENT
$pdata$??$_Construct_in_place@PEADAEAPEAD@std@@YAXAEAPEAD0@Z DD imagerel $LN3
	DD	imagerel $LN3+68
	DD	imagerel $unwind$??$_Construct_in_place@PEADAEAPEAD@std@@YAXAEAPEAD0@Z
pdata	ENDS
;	COMDAT pdata
pdata	SEGMENT
$pdata$??$_Deallocate@$0BA@@std@@YAXPEAX_K@Z DD imagerel $LN4
	DD	imagerel $LN4+62
	DD	imagerel $unwind$??$_Deallocate@$0BA@@std@@YAXPEAX_K@Z
pdata	ENDS
;	COMDAT pdata
pdata	SEGMENT
$pdata$??$_Allocate@$0BA@U_Default_allocate_traits@std@@@std@@YAPEAX_K@Z DD imagerel $LN5
	DD	imagerel $LN5+59
	DD	imagerel $unwind$??$_Allocate@$0BA@U_Default_allocate_traits@std@@@std@@YAPEAX_K@Z
pdata	ENDS
;	COMDAT pdata
pdata	SEGMENT
$pdata$??$_Construct_in_place@PEADAEBQEAD@std@@YAXAEAPEADAEBQEAD@Z DD imagerel $LN3
	DD	imagerel $LN3+68
	DD	imagerel $unwind$??$_Construct_in_place@PEADAEBQEAD@std@@YAXAEAPEADAEBQEAD@Z
pdata	ENDS
;	COMDAT pdata
pdata	SEGMENT
$pdata$??$RoundScalarWithFormatT@HH@ImGui@@YAHPEBDHH@Z DD imagerel $LN10
	DD	imagerel $LN10+268
	DD	imagerel $unwind$??$RoundScalarWithFormatT@HH@ImGui@@YAHPEBDHH@Z
pdata	ENDS
;	COMDAT pdata
pdata	SEGMENT
$pdata$??$RoundScalarWithFormatT@IH@ImGui@@YAIPEBDHI@Z DD imagerel $LN10
	DD	imagerel $LN10+269
	DD	imagerel $unwind$??$RoundScalarWithFormatT@IH@ImGui@@YAIPEBDHI@Z
pdata	ENDS
;	COMDAT pdata
pdata	SEGMENT
$pdata$??$RoundScalarWithFormatT@_J_J@ImGui@@YA_JPEBDH_J@Z DD imagerel $LN10
	DD	imagerel $LN10+272
	DD	imagerel $unwind$??$RoundScalarWithFormatT@_J_J@ImGui@@YA_JPEBDH_J@Z
pdata	ENDS
;	COMDAT pdata
pdata	SEGMENT
$pdata$??$RoundScalarWithFormatT@_K_J@ImGui@@YA_KPEBDH_K@Z DD imagerel $LN11
	DD	imagerel $LN11+321
	DD	imagerel $unwind$??$RoundScalarWithFormatT@_K_J@ImGui@@YA_KPEBDH_K@Z
pdata	ENDS
;	COMDAT pdata
pdata	SEGMENT
$pdata$??$RoundScalarWithFormatT@MM@ImGui@@YAMPEBDHM@Z DD imagerel $LN10
	DD	imagerel $LN10+284
	DD	imagerel $unwind$??$RoundScalarWithFormatT@MM@ImGui@@YAMPEBDHM@Z
pdata	ENDS
;	COMDAT pdata
pdata	SEGMENT
$pdata$??$RoundScalarWithFormatT@NN@ImGui@@YANPEBDHN@Z DD imagerel $LN10
	DD	imagerel $LN10+277
	DD	imagerel $unwind$??$RoundScalarWithFormatT@NN@ImGui@@YANPEBDHN@Z
pdata	ENDS
;	COMDAT pdata
pdata	SEGMENT
$pdata$??$SliderCalcRatioFromValueT@HM@ImGui@@YAMHHHHMM@Z DD imagerel $LN13
	DD	imagerel $LN13+508
	DD	imagerel $unwind$??$SliderCalcRatioFromValueT@HM@ImGui@@YAMHHHHMM@Z
pdata	ENDS
;	COMDAT pdata
pdata	SEGMENT
$pdata$??$SliderCalcRatioFromValueT@IM@ImGui@@YAMHIIIMM@Z DD imagerel $LN13
	DD	imagerel $LN13+525
	DD	imagerel $unwind$??$SliderCalcRatioFromValueT@IM@ImGui@@YAMHIIIMM@Z
pdata	ENDS
pdata	SEGMENT
$pdata$??$ImMin@I@@YAIII@Z DD imagerel ??$ImMin@I@@YAIII@Z
	DD	imagerel ??$ImMin@I@@YAIII@Z+46
	DD	imagerel $unwind$??$ImMin@I@@YAIII@Z
$pdata$??$ImMax@I@@YAIII@Z DD imagerel ??$ImMax@I@@YAIII@Z
	DD	imagerel ??$ImMax@I@@YAIII@Z+46
	DD	imagerel $unwind$??$ImMax@I@@YAIII@Z
pdata	ENDS
;	COMDAT pdata
pdata	SEGMENT
$pdata$??$SliderCalcRatioFromValueT@_JN@ImGui@@YAMH_J00MM@Z DD imagerel $LN13
	DD	imagerel $LN13+617
	DD	imagerel $unwind$??$SliderCalcRatioFromValueT@_JN@ImGui@@YAMH_J00MM@Z
pdata	ENDS
pdata	SEGMENT
$pdata$??$ImMin@_J@@YA_J_J0@Z DD imagerel ??$ImMin@_J@@YA_J_J0@Z
	DD	imagerel ??$ImMin@_J@@YA_J_J0@Z+55
	DD	imagerel $unwind$??$ImMin@_J@@YA_J_J0@Z
$pdata$??$ImMax@_J@@YA_J_J0@Z DD imagerel ??$ImMax@_J@@YA_J_J0@Z
	DD	imagerel ??$ImMax@_J@@YA_J_J0@Z+55
	DD	imagerel $unwind$??$ImMax@_J@@YA_J_J0@Z
pdata	ENDS
;	COMDAT pdata
pdata	SEGMENT
$pdata$??$SliderCalcRatioFromValueT@_KN@ImGui@@YAMH_K00MM@Z DD imagerel $LN23
	DD	imagerel $LN23+780
	DD	imagerel $unwind$??$SliderCalcRatioFromValueT@_KN@ImGui@@YAMH_K00MM@Z
pdata	ENDS
pdata	SEGMENT
$pdata$??$ImMax@_K@@YA_K_K0@Z DD imagerel ??$ImMax@_K@@YA_K_K0@Z
	DD	imagerel ??$ImMax@_K@@YA_K_K0@Z+55
	DD	imagerel $unwind$??$ImMax@_K@@YA_K_K0@Z
pdata	ENDS
;	COMDAT pdata
pdata	SEGMENT
$pdata$??$SliderCalcRatioFromValueT@MM@ImGui@@YAMHMMMMM@Z DD imagerel $LN13
	DD	imagerel $LN13+517
	DD	imagerel $unwind$??$SliderCalcRatioFromValueT@MM@ImGui@@YAMHMMMMM@Z
pdata	ENDS
;	COMDAT pdata
pdata	SEGMENT
$pdata$??$SliderCalcRatioFromValueT@NN@ImGui@@YAMHNNNMM@Z DD imagerel $LN13
	DD	imagerel $LN13+550
	DD	imagerel $unwind$??$SliderCalcRatioFromValueT@NN@ImGui@@YAMHNNNMM@Z
pdata	ENDS
pdata	SEGMENT
$pdata$??$ImMin@N@@YANNN@Z DD imagerel ??$ImMin@N@@YANNN@Z
	DD	imagerel ??$ImMin@N@@YANNN@Z+64
	DD	imagerel $unwind$??$ImMin@N@@YANNN@Z
$pdata$??$ImMax@N@@YANNN@Z DD imagerel ??$ImMax@N@@YANNN@Z
	DD	imagerel ??$ImMax@N@@YANNN@Z+64
	DD	imagerel $unwind$??$ImMax@N@@YANNN@Z
pdata	ENDS
;	COMDAT pdata
pdata	SEGMENT
$pdata$??$_Allocate_for_capacity@$0A@@?$basic_string@DU?$char_traits@D@std@@V?$allocator@D@2@@std@@CAPEADAEAV?$allocator@D@1@AEA_K@Z DD imagerel $LN3
	DD	imagerel $LN3+91
	DD	imagerel $unwind$??$_Allocate_for_capacity@$0A@@?$basic_string@DU?$char_traits@D@std@@V?$allocator@D@2@@std@@CAPEADAEAV?$allocator@D@1@AEA_K@Z
pdata	ENDS
;	COMDAT pdata
pdata	SEGMENT
$pdata$??$_Allocate_manually_vector_aligned@U_Default_allocate_traits@std@@@std@@YAPEAX_K@Z DD imagerel $LN12
	DD	imagerel $LN12+135
	DD	imagerel $unwind$??$_Allocate_manually_vector_aligned@U_Default_allocate_traits@std@@@std@@YAPEAX_K@Z
pdata	ENDS
;	COMDAT pdata
pdata	SEGMENT
$pdata$??$_Get_size_of_n@$00@std@@YA_K_K@Z DD imagerel $LN3
	DD	imagerel $LN3+23
	DD	imagerel $unwind$??$_Get_size_of_n@$00@std@@YA_K_K@Z
pdata	ENDS
;	COMDAT pdata
pdata	SEGMENT
$pdata$??R<lambda_f3a66ab6a0570788f31503db83886f49>@@QEBA@QEADQEBD_K212@Z DD imagerel $LN3
	DD	imagerel $LN3+164
	DD	imagerel $unwind$??R<lambda_f3a66ab6a0570788f31503db83886f49>@@QEBA@QEADQEBD_K212@Z
pdata	ENDS
;	COMDAT pdata
pdata	SEGMENT
$pdata$??$_Reallocate_grow_by@V<lambda_f3a66ab6a0570788f31503db83886f49>@@_KPEBD_K@?$basic_string@DU?$char_traits@D@std@@V?$allocator@D@2@@std@@AEAAAEAV01@_KV<lambda_f3a66ab6a0570788f31503db83886f49>@@_KPEBD2@Z DD imagerel $LN6
	DD	imagerel $LN6+485
	DD	imagerel $unwind$??$_Reallocate_grow_by@V<lambda_f3a66ab6a0570788f31503db83886f49>@@_KPEBD_K@?$basic_string@DU?$char_traits@D@std@@V?$allocator@D@2@@std@@AEAAAEAV01@_KV<lambda_f3a66ab6a0570788f31503db83886f49>@@_KPEBD2@Z
pdata	ENDS
;	COMDAT pdata
pdata	SEGMENT
$pdata$??__E?id@?$codecvt@DDU_Mbstatet@@@std@@2V0locale@2@A@@YAXXZ DD imagerel ??__E?id@?$codecvt@DDU_Mbstatet@@@std@@2V0locale@2@A@@YAXXZ
	DD	imagerel ??__E?id@?$codecvt@DDU_Mbstatet@@@std@@2V0locale@2@A@@YAXXZ+22
	DD	imagerel $unwind$??__E?id@?$codecvt@DDU_Mbstatet@@@std@@2V0locale@2@A@@YAXXZ
pdata	ENDS
;	COMDAT pdata
pdata	SEGMENT
$pdata$??__E?id@?$num_put@DV?$ostreambuf_iterator@DU?$char_traits@D@std@@@std@@@std@@2V0locale@2@A@@YAXXZ DD imagerel ??__E?id@?$num_put@DV?$ostreambuf_iterator@DU?$char_traits@D@std@@@std@@@std@@2V0locale@2@A@@YAXXZ
	DD	imagerel ??__E?id@?$num_put@DV?$ostreambuf_iterator@DU?$char_traits@D@std@@@std@@@std@@2V0locale@2@A@@YAXXZ+22
	DD	imagerel $unwind$??__E?id@?$num_put@DV?$ostreambuf_iterator@DU?$char_traits@D@std@@@std@@@std@@2V0locale@2@A@@YAXXZ
pdata	ENDS
;	COMDAT pdata
pdata	SEGMENT
$pdata$??__E?id@?$collate@D@std@@2V0locale@2@A@@YAXXZ DD imagerel ??__E?id@?$collate@D@std@@2V0locale@2@A@@YAXXZ
	DD	imagerel ??__E?id@?$collate@D@std@@2V0locale@2@A@@YAXXZ+22
	DD	imagerel $unwind$??__E?id@?$collate@D@std@@2V0locale@2@A@@YAXXZ
pdata	ENDS
;	COMDAT pdata
pdata	SEGMENT
$pdata$??__E?id@?$numpunct@D@std@@2V0locale@2@A@@YAXXZ DD imagerel ??__E?id@?$numpunct@D@std@@2V0locale@2@A@@YAXXZ
	DD	imagerel ??__E?id@?$numpunct@D@std@@2V0locale@2@A@@YAXXZ+22
	DD	imagerel $unwind$??__E?id@?$numpunct@D@std@@2V0locale@2@A@@YAXXZ
pdata	ENDS
pdata	SEGMENT
$pdata$??$ImAtoi@_J@@YAPEBDPEBDPEA_J@Z DD imagerel ??$ImAtoi@_J@@YAPEBDPEBDPEA_J@Z
	DD	imagerel ??$ImAtoi@_J@@YAPEBDPEBDPEA_J@Z+222
	DD	imagerel $unwind$??$ImAtoi@_J@@YAPEBDPEBDPEA_J@Z
$pdata$??$ImAtoi@M@@YAPEBDPEBDPEAM@Z DD imagerel ??$ImAtoi@M@@YAPEBDPEBDPEAM@Z
	DD	imagerel ??$ImAtoi@M@@YAPEBDPEBDPEAM@Z+243
	DD	imagerel $unwind$??$ImAtoi@M@@YAPEBDPEBDPEAM@Z
$pdata$??$ImAtoi@N@@YAPEBDPEBDPEAN@Z DD imagerel ??$ImAtoi@N@@YAPEBDPEBDPEAN@Z
	DD	imagerel ??$ImAtoi@N@@YAPEBDPEBDPEAN@Z+245
	DD	imagerel $unwind$??$ImAtoi@N@@YAPEBDPEBDPEAN@Z
$pdata$??$ImClamp@I@@YAIIII@Z DD imagerel ??$ImClamp@I@@YAIIII@Z
	DD	imagerel ??$ImClamp@I@@YAIIII@Z+79
	DD	imagerel $unwind$??$ImClamp@I@@YAIIII@Z
$pdata$??$ImClamp@_J@@YA_J_J00@Z DD imagerel ??$ImClamp@_J@@YA_J_J00@Z
	DD	imagerel ??$ImClamp@_J@@YA_J_J00@Z+94
	DD	imagerel $unwind$??$ImClamp@_J@@YA_J_J00@Z
$pdata$??$ImClamp@_K@@YA_K_K00@Z DD imagerel ??$ImClamp@_K@@YA_K_K00@Z
	DD	imagerel ??$ImClamp@_K@@YA_K_K00@Z+94
	DD	imagerel $unwind$??$ImClamp@_K@@YA_K_K00@Z
$pdata$??$ImClamp@N@@YANNNN@Z DD imagerel ??$ImClamp@N@@YANNNN@Z
	DD	imagerel ??$ImClamp@N@@YANNNN@Z+110
	DD	imagerel $unwind$??$ImClamp@N@@YANNNN@Z
pdata	ENDS
CRT$XCU	SEGMENT
?wsinit_$initializer$@detail@httplib@@3P6AXXZEA DQ FLAT:??__Ewsinit_@detail@httplib@@YAXXZ ; httplib::detail::wsinit_$initializer$
CRT$XCU	ENDS
;	COMDAT __xmm@80000000800000008000000080000000
CONST	SEGMENT
__xmm@80000000800000008000000080000000 DB 00H, 00H, 00H, 080H, 00H, 00H, 00H
	DB	080H, 00H, 00H, 00H, 080H, 00H, 00H, 00H, 080H
CONST	ENDS
;	COMDAT __xmm@80000000000000008000000000000000
CONST	SEGMENT
__xmm@80000000000000008000000000000000 DB 00H, 00H, 00H, 00H, 00H, 00H, 00H
	DB	080H, 00H, 00H, 00H, 00H, 00H, 00H, 00H, 080H
CONST	ENDS
;	COMDAT __real@ffefffffffffffff
CONST	SEGMENT
__real@ffefffffffffffff DQ 0ffefffffffffffffr	; -1.79769e+308
CONST	ENDS
;	COMDAT __real@ff7fffff
CONST	SEGMENT
__real@ff7fffff DD 0ff7fffffr			; -3.40282e+38
CONST	ENDS
;	COMDAT __real@c2c80000
CONST	SEGMENT
__real@c2c80000 DD 0c2c80000r			; -100
CONST	ENDS
;	COMDAT __real@c1400000
CONST	SEGMENT
__real@c1400000 DD 0c1400000r			; -12
CONST	ENDS
;	COMDAT __real@c1100000
CONST	SEGMENT
__real@c1100000 DD 0c1100000r			; -9
CONST	ENDS
;	COMDAT __real@c059000000000000
CONST	SEGMENT
__real@c059000000000000 DQ 0c059000000000000r	; -100
CONST	ENDS
;	COMDAT __real@bf800000
CONST	SEGMENT
__real@bf800000 DD 0bf800000r			; -1
CONST	ENDS
;	COMDAT __real@bf5db3d0
CONST	SEGMENT
__real@bf5db3d0 DD 0bf5db3d0r			; -0.866025
CONST	ENDS
;	COMDAT __real@bf400000
CONST	SEGMENT
__real@bf400000 DD 0bf400000r			; -0.75
CONST	ENDS
;	COMDAT __real@bf000000
CONST	SEGMENT
__real@bf000000 DD 0bf000000r			; -0.5
CONST	ENDS
;	COMDAT __real@be99999a
CONST	SEGMENT
__real@be99999a DD 0be99999ar			; -0.3
CONST	ENDS
;	COMDAT __real@7fefffffffffffff
CONST	SEGMENT
__real@7fefffffffffffff DQ 07fefffffffffffffr	; 1.79769e+308
CONST	ENDS
;	COMDAT __real@7f7fffff
CONST	SEGMENT
__real@7f7fffff DD 07f7fffffr			; 3.40282e+38
CONST	ENDS
;	COMDAT __real@5f000000
CONST	SEGMENT
__real@5f000000 DD 05f000000r			; 9.22337e+18
CONST	ENDS
;	COMDAT __real@47efffffe0000000
CONST	SEGMENT
__real@47efffffe0000000 DQ 047efffffe0000000r	; 3.40282e+38
CONST	ENDS
;	COMDAT __real@43e0000000000000
CONST	SEGMENT
__real@43e0000000000000 DQ 043e0000000000000r	; 9.22337e+18
CONST	ENDS
;	COMDAT __real@43b40000
CONST	SEGMENT
__real@43b40000 DD 043b40000r			; 360
CONST	ENDS
;	COMDAT __real@437f0000
CONST	SEGMENT
__real@437f0000 DD 0437f0000r			; 255
CONST	ENDS
;	COMDAT __real@42c80000
CONST	SEGMENT
__real@42c80000 DD 042c80000r			; 100
CONST	ENDS
;	COMDAT __real@428c0000
CONST	SEGMENT
__real@428c0000 DD 0428c0000r			; 70
CONST	ENDS
;	COMDAT __real@41f00000
CONST	SEGMENT
__real@41f00000 DD 041f00000r			; 30
CONST	ENDS
;	COMDAT __real@41a00000
CONST	SEGMENT
__real@41a00000 DD 041a00000r			; 20
CONST	ENDS
;	COMDAT __real@41800000
CONST	SEGMENT
__real@41800000 DD 041800000r			; 16
CONST	ENDS
;	COMDAT __real@41400000
CONST	SEGMENT
__real@41400000 DD 041400000r			; 12
CONST	ENDS
;	COMDAT __real@41200000
CONST	SEGMENT
__real@41200000 DD 041200000r			; 10
CONST	ENDS
;	COMDAT __real@41100000
CONST	SEGMENT
__real@41100000 DD 041100000r			; 9
CONST	ENDS
;	COMDAT __real@41000000
CONST	SEGMENT
__real@41000000 DD 041000000r			; 8
CONST	ENDS
;	COMDAT __real@40eccccd
CONST	SEGMENT
__real@40eccccd DD 040eccccdr			; 7.4
CONST	ENDS
;	COMDAT __real@40e00000
CONST	SEGMENT
__real@40e00000 DD 040e00000r			; 7
CONST	ENDS
;	COMDAT __real@40c90fdb
CONST	SEGMENT
__real@40c90fdb DD 040c90fdbr			; 6.28319
CONST	ENDS
;	COMDAT __real@40c00000
CONST	SEGMENT
__real@40c00000 DD 040c00000r			; 6
CONST	ENDS
;	COMDAT __real@40b33333
CONST	SEGMENT
__real@40b33333 DD 040b33333r			; 5.6
CONST	ENDS
;	COMDAT __real@40a00000
CONST	SEGMENT
__real@40a00000 DD 040a00000r			; 5
CONST	ENDS
;	COMDAT __real@40800000
CONST	SEGMENT
__real@40800000 DD 040800000r			; 4
CONST	ENDS
;	COMDAT __real@4059000000000000
CONST	SEGMENT
__real@4059000000000000 DQ 04059000000000000r	; 100
CONST	ENDS
;	COMDAT __real@40490fdb
CONST	SEGMENT
__real@40490fdb DD 040490fdbr			; 3.14159
CONST	ENDS
;	COMDAT __real@40400000
CONST	SEGMENT
__real@40400000 DD 040400000r			; 3
CONST	ENDS
;	COMDAT __real@403f5c29
CONST	SEGMENT
__real@403f5c29 DD 0403f5c29r			; 2.99
CONST	ENDS
;	COMDAT __real@4024800000000000
CONST	SEGMENT
__real@4024800000000000 DQ 04024800000000000r	; 10.25
CONST	ENDS
;	COMDAT __real@4024000000000000
CONST	SEGMENT
__real@4024000000000000 DQ 04024000000000000r	; 10
CONST	ENDS
;	COMDAT __real@4020000000000000
CONST	SEGMENT
__real@4020000000000000 DQ 04020000000000000r	; 8
CONST	ENDS
;	COMDAT __real@40200000
CONST	SEGMENT
__real@40200000 DD 040200000r			; 2.5
CONST	ENDS
;	COMDAT __real@400e666666666666
CONST	SEGMENT
__real@400e666666666666 DQ 0400e666666666666r	; 3.8
CONST	ENDS
;	COMDAT __real@4004000000000000
CONST	SEGMENT
__real@4004000000000000 DQ 04004000000000000r	; 2.5
CONST	ENDS
;	COMDAT __real@40000000
CONST	SEGMENT
__real@40000000 DD 040000000r			; 2
CONST	ENDS
;	COMDAT __real@3ffcccccc0000000
CONST	SEGMENT
__real@3ffcccccc0000000 DQ 03ffcccccc0000000r	; 1.8
CONST	ENDS
;	COMDAT __real@3ff0000000000000
CONST	SEGMENT
__real@3ff0000000000000 DQ 03ff0000000000000r	; 1
CONST	ENDS
;	COMDAT __real@3fe0000000000000
CONST	SEGMENT
__real@3fe0000000000000 DQ 03fe0000000000000r	; 0.5
CONST	ENDS
;	COMDAT __real@3fd9999a
CONST	SEGMENT
__real@3fd9999a DD 03fd9999ar			; 1.7
CONST	ENDS
;	COMDAT __real@3fc00000
CONST	SEGMENT
__real@3fc00000 DD 03fc00000r			; 1.5
CONST	ENDS
;	COMDAT __real@3fb33333
CONST	SEGMENT
__real@3fb33333 DD 03fb33333r			; 1.4
CONST	ENDS
;	COMDAT __real@3f99999a
CONST	SEGMENT
__real@3f99999a DD 03f99999ar			; 1.2
CONST	ENDS
;	COMDAT __real@3f800000
CONST	SEGMENT
__real@3f800000 DD 03f800000r			; 1
CONST	ENDS
;	COMDAT __real@3f7ff972
CONST	SEGMENT
__real@3f7ff972 DD 03f7ff972r			; 0.9999
CONST	ENDS
;	COMDAT __real@3f7fbe77
CONST	SEGMENT
__real@3f7fbe77 DD 03f7fbe77r			; 0.999
CONST	ENDS
;	COMDAT __real@3f5db3d0
CONST	SEGMENT
__real@3f5db3d0 DD 03f5db3d0r			; 0.866025
CONST	ENDS
;	COMDAT __real@3f5db22d
CONST	SEGMENT
__real@3f5db22d DD 03f5db22dr			; 0.866
CONST	ENDS
;	COMDAT __real@3f5adaba
CONST	SEGMENT
__real@3f5adaba DD 03f5adabar			; 0.8549
CONST	ENDS
;	COMDAT __real@3f52d2d3
CONST	SEGMENT
__real@3f52d2d3 DD 03f52d2d3r			; 0.823529
CONST	ENDS
;	COMDAT __real@3f4ccccd
CONST	SEGMENT
__real@3f4ccccd DD 03f4ccccdr			; 0.8
CONST	ENDS
;	COMDAT __real@3f4a3d71
CONST	SEGMENT
__real@3f4a3d71 DD 03f4a3d71r			; 0.79
CONST	ENDS
;	COMDAT __real@3f48c8c9
CONST	SEGMENT
__real@3f48c8c9 DD 03f48c8c9r			; 0.784314
CONST	ENDS
;	COMDAT __real@3f47ae14
CONST	SEGMENT
__real@3f47ae14 DD 03f47ae14r			; 0.78
CONST	ENDS
;	COMDAT __real@3f350481
CONST	SEGMENT
__real@3f350481 DD 03f350481r			; 0.7071
CONST	ENDS
;	COMDAT __real@3f333333
CONST	SEGMENT
__real@3f333333 DD 03f333333r			; 0.7
CONST	ENDS
;	COMDAT __real@3f266666
CONST	SEGMENT
__real@3f266666 DD 03f266666r			; 0.65
CONST	ENDS
;	COMDAT __real@3f128f5c
CONST	SEGMENT
__real@3f128f5c DD 03f128f5cr			; 0.5725
CONST	ENDS
;	COMDAT __real@3f0ccccd
CONST	SEGMENT
__real@3f0ccccd DD 03f0ccccdr			; 0.55
CONST	ENDS
;	COMDAT __real@3f000000
CONST	SEGMENT
__real@3f000000 DD 03f000000r			; 0.5
CONST	ENDS
;	COMDAT __real@3effbe77
CONST	SEGMENT
__real@3effbe77 DD 03effbe77r			; 0.4995
CONST	ENDS
;	COMDAT __real@3ef0f0f1
CONST	SEGMENT
__real@3ef0f0f1 DD 03ef0f0f1r			; 0.470588
CONST	ENDS
;	COMDAT __real@3ececbfb
CONST	SEGMENT
__real@3ececbfb DD 03ececbfbr			; 0.4039
CONST	ENDS
;	COMDAT __real@3ecccccd
CONST	SEGMENT
__real@3ecccccd DD 03ecccccdr			; 0.4
CONST	ENDS
;	COMDAT __real@3ec7ae14
CONST	SEGMENT
__real@3ec7ae14 DD 03ec7ae14r			; 0.39
CONST	ENDS
;	COMDAT __real@3ebcb924
CONST	SEGMENT
__real@3ebcb924 DD 03ebcb924r			; 0.3686
CONST	ENDS
;	COMDAT __real@3e99999a
CONST	SEGMENT
__real@3e99999a DD 03e99999ar			; 0.3
CONST	ENDS
;	COMDAT __real@3e800000
CONST	SEGMENT
__real@3e800000 DD 03e800000r			; 0.25
CONST	ENDS
;	COMDAT __real@3e4ccccd
CONST	SEGMENT
__real@3e4ccccd DD 03e4ccccdr			; 0.2
CONST	ENDS
;	COMDAT __real@3e3851ec
CONST	SEGMENT
__real@3e3851ec DD 03e3851ecr			; 0.18
CONST	ENDS
;	COMDAT __real@3e19999a
CONST	SEGMENT
__real@3e19999a DD 03e19999ar			; 0.15
CONST	ENDS
;	COMDAT __real@3e09374c
CONST	SEGMENT
__real@3e09374c DD 03e09374cr			; 0.134
CONST	ENDS
;	COMDAT __real@3dcccccd
CONST	SEGMENT
__real@3dcccccd DD 03dcccccdr			; 0.1
CONST	ENDS
;	COMDAT __real@3da3d70a
CONST	SEGMENT
__real@3da3d70a DD 03da3d70ar			; 0.08
CONST	ENDS
;	COMDAT __real@3cdd2f1b
CONST	SEGMENT
__real@3cdd2f1b DD 03cdd2f1br			; 0.027
CONST	ENDS
;	COMDAT __real@3c23d70a
CONST	SEGMENT
__real@3c23d70a DD 03c23d70ar			; 0.01
CONST	ENDS
;	COMDAT __real@3b808081
CONST	SEGMENT
__real@3b808081 DD 03b808081r			; 0.00392157
CONST	ENDS
;	COMDAT __real@38d1b717
CONST	SEGMENT
__real@38d1b717 DD 038d1b717r			; 0.0001
CONST	ENDS
;	COMDAT __real@3727c5ac
CONST	SEGMENT
__real@3727c5ac DD 03727c5acr			; 1e-05
CONST	ENDS
;	COMDAT __real@358637bd
CONST	SEGMENT
__real@358637bd DD 0358637bdr			; 1e-06
CONST	ENDS
;	COMDAT __real@00800000
CONST	SEGMENT
__real@00800000 DD 000800000r			; 1.17549e-38
CONST	ENDS
;	COMDAT __real@0000000000000000
CONST	SEGMENT
__real@0000000000000000 DQ 00000000000000000r	; 0
CONST	ENDS
;	COMDAT __real@00000000
CONST	SEGMENT
__real@00000000 DD 000000000r			; 0
CONST	ENDS
;	COMDAT ??_R4bad_alloc@std@@6B@
rdata$r	SEGMENT
??_R4bad_alloc@std@@6B@ DD 01H				; std::bad_alloc::`RTTI Complete Object Locator'
	DD	00H
	DD	00H
	DD	imagerel ??_R0?AVbad_alloc@std@@@8
	DD	imagerel ??_R3bad_alloc@std@@8
	DD	imagerel ??_R4bad_alloc@std@@6B@
rdata$r	ENDS
;	COMDAT ??_R2bad_alloc@std@@8
rdata$r	SEGMENT
??_R2bad_alloc@std@@8 DD imagerel ??_R1A@?0A@EA@bad_alloc@std@@8 ; std::bad_alloc::`RTTI Base Class Array'
	DD	imagerel ??_R1A@?0A@EA@exception@std@@8
	ORG $+3
rdata$r	ENDS
;	COMDAT ??_R3bad_alloc@std@@8
rdata$r	SEGMENT
??_R3bad_alloc@std@@8 DD 00H				; std::bad_alloc::`RTTI Class Hierarchy Descriptor'
	DD	00H
	DD	02H
	DD	imagerel ??_R2bad_alloc@std@@8
rdata$r	ENDS
;	COMDAT ??_R1A@?0A@EA@bad_alloc@std@@8
rdata$r	SEGMENT
??_R1A@?0A@EA@bad_alloc@std@@8 DD imagerel ??_R0?AVbad_alloc@std@@@8 ; std::bad_alloc::`RTTI Base Class Descriptor at (0,-1,0,64)'
	DD	01H
	DD	00H
	DD	0ffffffffH
	DD	00H
	DD	040H
	DD	imagerel ??_R3bad_alloc@std@@8
rdata$r	ENDS
;	COMDAT ??_R1A@?0A@EA@bad_array_new_length@std@@8
rdata$r	SEGMENT
??_R1A@?0A@EA@bad_array_new_length@std@@8 DD imagerel ??_R0?AVbad_array_new_length@std@@@8 ; std::bad_array_new_length::`RTTI Base Class Descriptor at (0,-1,0,64)'
	DD	02H
	DD	00H
	DD	0ffffffffH
	DD	00H
	DD	040H
	DD	imagerel ??_R3bad_array_new_length@std@@8
rdata$r	ENDS
;	COMDAT ??_R2bad_array_new_length@std@@8
rdata$r	SEGMENT
??_R2bad_array_new_length@std@@8 DD imagerel ??_R1A@?0A@EA@bad_array_new_length@std@@8 ; std::bad_array_new_length::`RTTI Base Class Array'
	DD	imagerel ??_R1A@?0A@EA@bad_alloc@std@@8
	DD	imagerel ??_R1A@?0A@EA@exception@std@@8
	ORG $+3
rdata$r	ENDS
;	COMDAT ??_R3bad_array_new_length@std@@8
rdata$r	SEGMENT
??_R3bad_array_new_length@std@@8 DD 00H			; std::bad_array_new_length::`RTTI Class Hierarchy Descriptor'
	DD	00H
	DD	03H
	DD	imagerel ??_R2bad_array_new_length@std@@8
rdata$r	ENDS
;	COMDAT ??_R4bad_array_new_length@std@@6B@
rdata$r	SEGMENT
??_R4bad_array_new_length@std@@6B@ DD 01H		; std::bad_array_new_length::`RTTI Complete Object Locator'
	DD	00H
	DD	00H
	DD	imagerel ??_R0?AVbad_array_new_length@std@@@8
	DD	imagerel ??_R3bad_array_new_length@std@@8
	DD	imagerel ??_R4bad_array_new_length@std@@6B@
rdata$r	ENDS
;	COMDAT ??_R1A@?0A@EA@exception@std@@8
rdata$r	SEGMENT
??_R1A@?0A@EA@exception@std@@8 DD imagerel ??_R0?AVexception@std@@@8 ; std::exception::`RTTI Base Class Descriptor at (0,-1,0,64)'
	DD	00H
	DD	00H
	DD	0ffffffffH
	DD	00H
	DD	040H
	DD	imagerel ??_R3exception@std@@8
rdata$r	ENDS
;	COMDAT ??_R2exception@std@@8
rdata$r	SEGMENT
??_R2exception@std@@8 DD imagerel ??_R1A@?0A@EA@exception@std@@8 ; std::exception::`RTTI Base Class Array'
	ORG $+3
rdata$r	ENDS
;	COMDAT ??_R3exception@std@@8
rdata$r	SEGMENT
??_R3exception@std@@8 DD 00H				; std::exception::`RTTI Class Hierarchy Descriptor'
	DD	00H
	DD	01H
	DD	imagerel ??_R2exception@std@@8
rdata$r	ENDS
;	COMDAT ??_R4exception@std@@6B@
rdata$r	SEGMENT
??_R4exception@std@@6B@ DD 01H				; std::exception::`RTTI Complete Object Locator'
	DD	00H
	DD	00H
	DD	imagerel ??_R0?AVexception@std@@@8
	DD	imagerel ??_R3exception@std@@8
	DD	imagerel ??_R4exception@std@@6B@
rdata$r	ENDS
;	COMDAT ??_C@_0BI@CFPLBAOH@invalid?5string?5position@
CONST	SEGMENT
??_C@_0BI@CFPLBAOH@invalid?5string?5position@ DB 'invalid string position'
	DB	00H						; `string'
CONST	ENDS
;	COMDAT ??_C@_04EBNJJJJI@?$CF?4?$CKs@
CONST	SEGMENT
??_C@_04EBNJJJJI@?$CF?4?$CKs@ DB '%.*s', 00H		; `string'
CONST	ENDS
;	COMDAT ??_C@_05HHKHFPOM@?$CD?$CD?$CL?9v@
CONST	SEGMENT
??_C@_05HHKHFPOM@?$CD?$CD?$CL?9v@ DB '##+-v', 00H	; `string'
CONST	ENDS
;	COMDAT ??_C@_05EPAHJKOB@?$CD?$CD?$CL?9?$DO@
CONST	SEGMENT
??_C@_05EPAHJKOB@?$CD?$CD?$CL?9?$DO@ DB '##+->', 00H	; `string'
CONST	ENDS
;	COMDAT ??_C@_05HNDBPIGD@?$CD?$CD?$CL?9?$DM@
CONST	SEGMENT
??_C@_05HNDBPIGD@?$CD?$CD?$CL?9?$DM@ DB '##+-<', 00H	; `string'
CONST	ENDS
;	COMDAT ??_C@_0M@GEGHBGML@?$CD?$CD?$CL?9menubar@
CONST	SEGMENT
??_C@_0M@GEGHBGML@?$CD?$CD?$CL?9menubar@ DB '##+-menubar', 00H ; `string'
CONST	ENDS
;	COMDAT ??_C@_0BC@ELGDDMPM@?$CD?$CDMain?$CL?9Menu?$CL?9Bar@
CONST	SEGMENT
??_C@_0BC@ELGDDMPM@?$CD?$CDMain?$CL?9Menu?$CL?9Bar@ DB '##Main+-Menu+-Bar'
	DB	00H						; `string'
CONST	ENDS
;	COMDAT ??_C@_08KELGKKHF@?$CFs?3?5?$CF?43f@
CONST	SEGMENT
??_C@_08KELGKKHF@?$CFs?3?5?$CF?43f@ DB '%s: %.3f', 00H	; `string'
CONST	ENDS
;	COMDAT ??_C@_07EKEPIENH@?$CF?$CFs?3?5?$CFs@
CONST	SEGMENT
??_C@_07EKEPIENH@?$CF?$CFs?3?5?$CFs@ DB '%%s: %s', 00H	; `string'
CONST	ENDS
;	COMDAT ??_C@_06GBEGMGE@?$CFs?3?5?$CFd@
CONST	SEGMENT
??_C@_06GBEGMGE@?$CFs?3?5?$CFd@ DB '%s: %d', 00H	; `string'
CONST	ENDS
;	COMDAT ??_C@_06DJHOIPC@?$CFs?3?5?$CFs@
CONST	SEGMENT
??_C@_06DJHOIPC@?$CFs?3?5?$CFs@ DB '%s: %s', 00H	; `string'
CONST	ENDS
;	COMDAT ??_C@_09OADNPGHP@?$CFd?3?5?$CF8?44g@
CONST	SEGMENT
??_C@_09OADNPGHP@?$CFd?3?5?$CF8?44g@ DB '%d: %8.4g', 00H ; `string'
CONST	ENDS
;	COMDAT ??_C@_0BE@OBCBLNMM@?$CFd?3?5?$CF8?44g?6?$CFd?3?5?$CF8?44g@
CONST	SEGMENT
??_C@_0BE@OBCBLNMM@?$CFd?3?5?$CF8?44g?6?$CFd?3?5?$CF8?44g@ DB '%d: %8.4g', 0aH
	DB	'%d: %8.4g', 00H				; `string'
CONST	ENDS
;	COMDAT ??_C@_09GHACPMKF@?$CDTreePush@
CONST	SEGMENT
??_C@_09GHACPMKF@?$CDTreePush@ DB '#TreePush', 00H	; `string'
CONST	ENDS
;	COMDAT ??_C@_09KEDLMDJL@Alpha?5Bar@
CONST	SEGMENT
??_C@_09KEDLMDJL@Alpha?5Bar@ DB 'Alpha Bar', 00H	; `string'
CONST	ENDS
;	COMDAT ??_C@_0BA@PODNGMKL@?$CD?$CD?$CL?9dummypicker@
CONST	SEGMENT
??_C@_0BA@PODNGMKL@?$CD?$CD?$CL?9dummypicker@ DB '##+-dummypicker', 00H ; `string'
CONST	ENDS
;	COMDAT ??_C@_0P@OGDNCJGJ@?$CD?$CD?$CL?9selectable@
CONST	SEGMENT
??_C@_0P@OGDNCJGJ@?$CD?$CD?$CL?9selectable@ DB '##+-selectable', 00H ; `string'
CONST	ENDS
;	COMDAT ??_C@_0BD@MLNOPBDA@0x?$CF02X?$CF02X?$CF02X?$CF02X@
CONST	SEGMENT
??_C@_0BD@MLNOPBDA@0x?$CF02X?$CF02X?$CF02X?$CF02X@ DB '0x%02X%02X%02X%02X'
	DB	00H						; `string'
CONST	ENDS
;	COMDAT ??_C@_0P@GDANBODO@0x?$CF02X?$CF02X?$CF02X@
CONST	SEGMENT
??_C@_0P@GDANBODO@0x?$CF02X?$CF02X?$CF02X@ DB '0x%02X%02X%02X', 00H ; `string'
CONST	ENDS
;	COMDAT ??_C@_0O@EJHNAHBL@?$CI?$CFd?0?$CFd?0?$CFd?0?$CFd?$CJ@
CONST	SEGMENT
??_C@_0O@EJHNAHBL@?$CI?$CFd?0?$CFd?0?$CFd?0?$CFd?$CJ@ DB '(%d,%d,%d,%d)', 00H ; `string'
CONST	ENDS
;	COMDAT ??_C@_0BN@GKCJMPCH@?$CI?$CF?43ff?0?5?$CF?43ff?0?5?$CF?43ff?0?5?$CF?43ff?$CJ@
CONST	SEGMENT
??_C@_0BN@GKCJMPCH@?$CI?$CF?43ff?0?5?$CF?43ff?0?5?$CF?43ff?0?5?$CF?43ff?$CJ@ DB '('
	DB	'%.3ff, %.3ff, %.3ff, %.3ff)', 00H		; `string'
CONST	ENDS
;	COMDAT ??_C@_04OPMHGHMB@Copy@
CONST	SEGMENT
??_C@_04OPMHGHMB@Copy@ DB 'Copy', 00H			; `string'
CONST	ENDS
;	COMDAT ??_C@_09NMCCFHEI@Copy?5as?4?4@
CONST	SEGMENT
??_C@_09NMCCFHEI@Copy?5as?4?4@ DB 'Copy as..', 00H	; `string'
CONST	ENDS
;	COMDAT ??_C@_0L@MDNPBJBM@0?400?4?41?400@
CONST	SEGMENT
??_C@_0L@MDNPBJBM@0?400?4?41?400@ DB '0.00..1.00', 00H	; `string'
CONST	ENDS
;	COMDAT ??_C@_06FDBEKFBH@0?4?4255@
CONST	SEGMENT
??_C@_06FDBEKFBH@0?4?4255@ DB '0..255', 00H		; `string'
CONST	ENDS
;	COMDAT ??_C@_03IECIMIEG@HEX@
CONST	SEGMENT
??_C@_03IECIMIEG@HEX@ DB 'HEX', 00H			; `string'
CONST	ENDS
;	COMDAT ??_C@_03CAADKAK@HSV@
CONST	SEGMENT
??_C@_03CAADKAK@HSV@ DB 'HSV', 00H			; `string'
CONST	ENDS
;	COMDAT ??_C@_03ICFFBAI@RGB@
CONST	SEGMENT
??_C@_03ICFFBAI@RGB@ DB 'RGB', 00H			; `string'
CONST	ENDS
;	COMDAT ??_C@_0EC@EBPMGCGK@?$CD?$CF02X?$CF02X?$CF02X?$CF02X?6R?3?$CFd?0?5G?3?$CFd?0?5B@
CONST	SEGMENT
??_C@_0EC@EBPMGCGK@?$CD?$CF02X?$CF02X?$CF02X?$CF02X?6R?3?$CFd?0?5G?3?$CFd?0?5B@ DB '#'
	DB	'%02X%02X%02X%02X', 0aH, 'R:%d, G:%d, B:%d, A:%d', 0aH, '(%.3f'
	DB	', %.3f, %.3f, %.3f)', 00H			; `string'
CONST	ENDS
;	COMDAT ??_C@_0DF@FAPNKOHO@?$CD?$CF02X?$CF02X?$CF02X?6R?3?5?$CFd?0?5G?3?5?$CFd?0?5B?3?5@
CONST	SEGMENT
??_C@_0DF@FAPNKOHO@?$CD?$CF02X?$CF02X?$CF02X?6R?3?5?$CFd?0?5G?3?5?$CFd?0?5B?3?5@ DB '#'
	DB	'%02X%02X%02X', 0aH, 'R: %d, G: %d, B: %d', 0aH, '(%.3f, %.3f,'
	DB	' %.3f)', 00H				; `string'
CONST	ENDS
;	COMDAT ??_C@_0M@KBLIMBPK@?$CD?$CD?$CL?9preview@
CONST	SEGMENT
??_C@_0M@KBLIMBPK@?$CD?$CD?$CL?9preview@ DB '##+-preview', 00H ; `string'
CONST	ENDS
;	COMDAT ??_C@_05PDOBBJNA@Color@
CONST	SEGMENT
??_C@_05PDOBBJNA@Color@ DB 'Color', 00H			; `string'
CONST	ENDS
;	COMDAT ??_C@_07BACDFNLL@?$CD?$CD?$CL?9hex@
CONST	SEGMENT
??_C@_07BACDFNLL@?$CD?$CD?$CL?9hex@ DB '##+-hex', 00H	; `string'
CONST	ENDS
;	COMDAT ??_C@_07JGALKPPH@?$CD?$CD?$CL?9hsv@
CONST	SEGMENT
??_C@_07JGALKPPH@?$CD?$CD?$CL?9hsv@ DB '##+-hsv', 00H	; `string'
CONST	ENDS
;	COMDAT ??_C@_07JMCOMEPF@?$CD?$CD?$CL?9rgb@
CONST	SEGMENT
??_C@_07JMCOMEPF@?$CD?$CD?$CL?9rgb@ DB '##+-rgb', 00H	; `string'
CONST	ENDS
;	COMDAT ??_C@_0N@CHHIOJEB@?$CD?$CD?$CL?9original@
CONST	SEGMENT
??_C@_0N@CHHIOJEB@?$CD?$CD?$CL?9original@ DB '##+-original', 00H ; `string'
CONST	ENDS
;	COMDAT ??_C@_0P@ECAOJHDA@?$CD?$CD?$CDOriginal?$CD?$CD?$CD@
CONST	SEGMENT
??_C@_0P@ECAOJHDA@?$CD?$CD?$CDOriginal?$CD?$CD?$CD@ DB '###Original###', 00H ; `string'
CONST	ENDS
;	COMDAT ??_C@_0M@BANGFOMF@?$CD?$CD?$CL?9current@
CONST	SEGMENT
??_C@_0M@BANGFOMF@?$CD?$CD?$CL?9current@ DB '##+-current', 00H ; `string'
CONST	ENDS
;	COMDAT ??_C@_0O@EALHHNOL@?$CD?$CD?$CDCurrent?$CD?$CD?$CD@
CONST	SEGMENT
??_C@_0O@EALHHNOL@?$CD?$CD?$CDCurrent?$CD?$CD?$CD@ DB '###Current###', 00H ; `string'
CONST	ENDS
;	COMDAT ??_C@_05IAEKHIAN@alpha@
CONST	SEGMENT
??_C@_05IAEKHIAN@alpha@ DB 'alpha', 00H			; `string'
CONST	ENDS
;	COMDAT ??_C@_03GKJJMKFG@hue@
CONST	SEGMENT
??_C@_03GKJJMKFG@hue@ DB 'hue', 00H			; `string'
CONST	ENDS
;	COMDAT ??_C@_02CPGMCOJE@sv@
CONST	SEGMENT
??_C@_02CPGMCOJE@sv@ DB 'sv', 00H			; `string'
CONST	ENDS
;	COMDAT ??_C@_03PPLPHHG@hsv@
CONST	SEGMENT
??_C@_03PPLPHHG@hsv@ DB 'hsv', 00H			; `string'
CONST	ENDS
;	COMDAT ??_C@_06LAOCEMMP@_COL4F@
CONST	SEGMENT
??_C@_06LAOCEMMP@_COL4F@ DB '_COL4F', 00H		; `string'
CONST	ENDS
;	COMDAT ??_C@_06LFKNFKEK@_COL3F@
CONST	SEGMENT
??_C@_06LFKNFKEK@_COL3F@ DB '_COL3F', 00H		; `string'
CONST	ENDS
;	COMDAT ??_C@_0L@OPIIJFHG@?$CD?$CD?$CL?9picker@
CONST	SEGMENT
??_C@_0L@OPIIJFHG@?$CD?$CD?$CL?9picker@ DB '##+-picker', 00H ; `string'
CONST	ENDS
;	COMDAT ??_C@_06MAKAMBBI@picker@
CONST	SEGMENT
??_C@_06MAKAMBBI@picker@ DB 'picker', 00H		; `string'
CONST	ENDS
;	COMDAT ??_C@_0BA@DICBDPDG@?$CD?$CD?$CL?9ColorButton@
CONST	SEGMENT
??_C@_0BA@DICBDPDG@?$CD?$CD?$CL?9ColorButton@ DB '##+-ColorButton', 00H ; `string'
CONST	ENDS
;	COMDAT ??_C@_0N@KODLFHPJ@?$CF02X?$CF02X?$CF02X@
CONST	SEGMENT
??_C@_0N@KODLFHPJ@?$CF02X?$CF02X?$CF02X@ DB '%02X%02X%02X', 00H ; `string'
CONST	ENDS
;	COMDAT ??_C@_0BB@DDMGLOLI@?$CF02X?$CF02X?$CF02X?$CF02X@
CONST	SEGMENT
??_C@_0BB@DDMGLOLI@?$CF02X?$CF02X?$CF02X?$CF02X@ DB '%02X%02X%02X%02X', 00H ; `string'
CONST	ENDS
;	COMDAT ??_C@_08HDCBKACM@?$CD?$CD?$CL?9Text@
CONST	SEGMENT
??_C@_08HDCBKACM@?$CD?$CD?$CL?9Text@ DB '##+-Text', 00H	; `string'
CONST	ENDS
;	COMDAT ??_C@_0O@MBPBDFLP@?$CD?$CF02X?$CF02X?$CF02X@
CONST	SEGMENT
??_C@_0O@MBPBDFLP@?$CD?$CF02X?$CF02X?$CF02X@ DB '#%02X%02X%02X', 00H ; `string'
CONST	ENDS
;	COMDAT ??_C@_0BC@CKPCOFBK@?$CD?$CF02X?$CF02X?$CF02X?$CF02X@
CONST	SEGMENT
??_C@_0BC@CKPCOFBK@?$CD?$CF02X?$CF02X?$CF02X?$CF02X@ DB '#%02X%02X%02X%02'
	DB	'X', 00H					; `string'
CONST	ENDS
;	COMDAT ??_C@_07JKKCBBMM@context@
CONST	SEGMENT
??_C@_07JKKCBBMM@context@ DB 'context', 00H		; `string'
CONST	ENDS
;	COMDAT ??_C@_07KGKAEDCN@V?3?$CF0?43f@
CONST	SEGMENT
??_C@_07KGKAEDCN@V?3?$CF0?43f@ DB 'V:%0.3f', 00H	; `string'
CONST	ENDS
;	COMDAT ??_C@_07OOEAENEJ@S?3?$CF0?43f@
CONST	SEGMENT
??_C@_07OOEAENEJ@S?3?$CF0?43f@ DB 'S:%0.3f', 00H	; `string'
CONST	ENDS
;	COMDAT ??_C@_07MPJBGADE@H?3?$CF0?43f@
CONST	SEGMENT
??_C@_07MPJBGADE@H?3?$CF0?43f@ DB 'H:%0.3f', 00H	; `string'
CONST	ENDS
;	COMDAT ??_C@_07NANOHLBP@A?3?$CF0?43f@
CONST	SEGMENT
??_C@_07NANOHLBP@A?3?$CF0?43f@ DB 'A:%0.3f', 00H	; `string'
CONST	ENDS
;	COMDAT ??_C@_07FOFBHMPM@B?3?$CF0?43f@
CONST	SEGMENT
??_C@_07FOFBHMPM@B?3?$CF0?43f@ DB 'B:%0.3f', 00H	; `string'
CONST	ENDS
;	COMDAT ??_C@_07BGLBHCJI@G?3?$CF0?43f@
CONST	SEGMENT
??_C@_07BGLBHCJI@G?3?$CF0?43f@ DB 'G:%0.3f', 00H	; `string'
CONST	ENDS
;	COMDAT ??_C@_07CCOKENNH@R?3?$CF0?43f@
CONST	SEGMENT
??_C@_07CCOKENNH@R?3?$CF0?43f@ DB 'R:%0.3f', 00H	; `string'
CONST	ENDS
;	COMDAT ??_C@_05ONBKDNLK@?$CF0?43f@
CONST	SEGMENT
??_C@_05ONBKDNLK@?$CF0?43f@ DB '%0.3f', 00H		; `string'
CONST	ENDS
;	COMDAT ??_C@_05MPCLLPPH@V?3?$CF3d@
CONST	SEGMENT
??_C@_05MPCLLPPH@V?3?$CF3d@ DB 'V:%3d', 00H		; `string'
CONST	ENDS
;	COMDAT ??_C@_05JPOGCOEE@S?3?$CF3d@
CONST	SEGMENT
??_C@_05JPOGCOEE@S?3?$CF3d@ DB 'S:%3d', 00H		; `string'
CONST	ENDS
;	COMDAT ??_C@_05PGPHNMBM@H?3?$CF3d@
CONST	SEGMENT
??_C@_05PGPHNMBM@H?3?$CF3d@ DB 'H:%3d', 00H		; `string'
CONST	ENDS
;	COMDAT ??_C@_05NBPIINNE@A?3?$CF3d@
CONST	SEGMENT
??_C@_05NBPIINNE@A?3?$CF3d@ DB 'A:%3d', 00H		; `string'
CONST	ENDS
;	COMDAT ??_C@_05FHGMPPHK@B?3?$CF3d@
CONST	SEGMENT
??_C@_05FHGMPPHK@B?3?$CF3d@ DB 'B:%3d', 00H		; `string'
CONST	ENDS
;	COMDAT ??_C@_05HKBGOMJ@G?3?$CF3d@
CONST	SEGMENT
??_C@_05HKBGOMJ@G?3?$CF3d@ DB 'G:%3d', 00H		; `string'
CONST	ENDS
;	COMDAT ??_C@_05FELKPNOB@R?3?$CF3d@
CONST	SEGMENT
??_C@_05FELKPNOB@R?3?$CF3d@ DB 'R:%3d', 00H		; `string'
CONST	ENDS
;	COMDAT ??_C@_03GOOLIKIF@?$CF3d@
CONST	SEGMENT
??_C@_03GOOLIKIF@?$CF3d@ DB '%3d', 00H			; `string'
CONST	ENDS
;	COMDAT ??_C@_03KDMNBDBJ@?$CD?$CDW@
CONST	SEGMENT
??_C@_03KDMNBDBJ@?$CD?$CDW@ DB '##W', 00H		; `string'
CONST	ENDS
;	COMDAT ??_C@_03BGGDGNFE@?$CD?$CDZ@
CONST	SEGMENT
??_C@_03BGGDGNFE@?$CD?$CDZ@ DB '##Z', 00H		; `string'
CONST	ENDS
;	COMDAT ??_C@_03DNEODOJH@?$CD?$CDY@
CONST	SEGMENT
??_C@_03DNEODOJH@?$CD?$CDY@ DB '##Y', 00H		; `string'
CONST	ENDS
;	COMDAT ??_C@_03CEFFAPNG@?$CD?$CDX@
CONST	SEGMENT
??_C@_03CEFFAPNG@?$CD?$CDX@ DB '##X', 00H		; `string'
CONST	ENDS
;	COMDAT ??_C@_05BNGMMMAL@M?3000@
CONST	SEGMENT
??_C@_05BNGMMMAL@M?3000@ DB 'M:000', 00H		; `string'
CONST	ENDS
;	COMDAT ??_C@_07FFNLLALM@M?30?4000@
CONST	SEGMENT
??_C@_07FFNLLALM@M?30?4000@ DB 'M:0.000', 00H		; `string'
CONST	ENDS
_DATA	SEGMENT
?STB_TEXTEDIT_NEWLINE@ImGuiStb@@3GA DW 0aH		; ImGuiStb::STB_TEXTEDIT_NEWLINE
_DATA	ENDS
;	COMDAT ??_C@_04JIMNDDED@?$CF08X@
CONST	SEGMENT
??_C@_04JIMNDDED@?$CF08X@ DB '%08X', 00H		; `string'
CONST	ENDS
;	COMDAT ??_C@_06DNBDMDIL@?$CF?$CF?4?$CFdf@
CONST	SEGMENT
??_C@_06DNBDMDIL@?$CF?$CF?4?$CFdf@ DB '%%.%df', 00H	; `string'
CONST	ENDS
;	COMDAT ??_C@_01MIFGBAGJ@?$CL@
CONST	SEGMENT
??_C@_01MIFGBAGJ@?$CL@ DB '+', 00H			; `string'
CONST	ENDS
;	COMDAT ??_C@_08FKIHKODH@?$CF?40f?5deg@
CONST	SEGMENT
??_C@_08FKIHKODH@?$CF?40f?5deg@ DB '%.0f deg', 00H	; `string'
CONST	ENDS
;	COMDAT ??_C@_07CAPEAFFF@?$CD?$CD?$CL?9max@
CONST	SEGMENT
??_C@_07CAPEAFFF@?$CD?$CD?$CL?9max@ DB '##+-max', 00H	; `string'
CONST	ENDS
;	COMDAT ??_C@_07DCHPOBDK@?$CD?$CD?$CL?9min@
CONST	SEGMENT
??_C@_07DCHPOBDK@?$CD?$CD?$CL?9min@ DB '##+-min', 00H	; `string'
CONST	ENDS
;	COMDAT ?min_steps@?1??GetMinimumStepAtDecimalPrecision@@YAMH@Z@4QBMB
CONST	SEGMENT
?min_steps@?1??GetMinimumStepAtDecimalPrecision@@YAMH@Z@4QBMB DD 03f800000r ; 1 ; `GetMinimumStepAtDecimalPrecision'::`2'::min_steps
	DD	03dcccccdr			; 0.1
	DD	03c23d70ar			; 0.01
	DD	03a83126fr			; 0.001
	DD	038d1b717r			; 0.0001
	DD	03727c5acr			; 1e-05
	DD	0358637bdr			; 1e-06
	DD	033d6bf95r			; 1e-07
	DD	0322bcc77r			; 1e-08
	DD	03089705fr			; 1e-09
CONST	ENDS
;	COMDAT ??_C@_09JKJEEIJP@?$CF?4?$CKs?$CF?$CFd?$CFs@
CONST	SEGMENT
??_C@_09JKJEEIJP@?$CF?4?$CKs?$CF?$CFd?$CFs@ DB '%.*s%%d%s', 00H ; `string'
CONST	ENDS
;	COMDAT ??_C@_03DLDNIBIK@?$CFlf@
CONST	SEGMENT
??_C@_03DLDNIBIK@?$CFlf@ DB '%lf', 00H			; `string'
CONST	ENDS
;	COMDAT ??_C@_05OINFJHGD@?$CFI64u@
CONST	SEGMENT
??_C@_05OINFJHGD@?$CFI64u@ DB '%I64u', 00H		; `string'
CONST	ENDS
;	COMDAT ??_C@_05LLAMLEHD@?$CFI64d@
CONST	SEGMENT
??_C@_05LLAMLEHD@?$CFI64d@ DB '%I64d', 00H		; `string'
CONST	ENDS
;	COMDAT ??_C@_02GMHACPFF@?$CFu@
CONST	SEGMENT
??_C@_02GMHACPFF@?$CFu@ DB '%u', 00H			; `string'
CONST	ENDS
;	COMDAT ??_C@_02DPKJAMEF@?$CFd@
CONST	SEGMENT
??_C@_02DPKJAMEF@?$CFd@ DB '%d', 00H			; `string'
CONST	ENDS
;	COMDAT ??_C@_04OHJIHAFH@None@
CONST	SEGMENT
??_C@_04OHJIHAFH@None@ DB 'None', 00H			; `string'
CONST	ENDS
;	COMDAT ??_C@_0P@HFPOEILF@?$CKUnknown?5item?$CK@
CONST	SEGMENT
??_C@_0P@HFPOEILF@?$CKUnknown?5item?$CK@ DB '*Unknown item*', 00H ; `string'
CONST	ENDS
;	COMDAT ??_C@_0BD@JMKMPHNG@?$CD?$CD?$CL?9C?4o?4m?4b?4o_?$CF02d@
CONST	SEGMENT
??_C@_0BD@JMKMPHNG@?$CD?$CD?$CL?9C?4o?4m?4b?4o_?$CF02d@ DB '##+-C.o.m.b.o'
	DB	'_%02d', 00H					; `string'
CONST	ENDS
;	COMDAT ??_C@_06KLKJBGEJ@?$CF?40f?$CF?$CF@
CONST	SEGMENT
??_C@_06KLKJBGEJ@?$CF?40f?$CF?$CF@ DB '%.0f%%', 00H	; `string'
CONST	ENDS
;	COMDAT ??_C@_06EBHDMMP@?$CDimage@
CONST	SEGMENT
??_C@_06EBHDMMP@?$CDimage@ DB '#image', 00H		; `string'
CONST	ENDS
;	COMDAT ??_C@_08FEBONNKO@?$CDSCROLLY@
CONST	SEGMENT
??_C@_08FEBONNKO@?$CDSCROLLY@ DB '#SCROLLY', 00H	; `string'
CONST	ENDS
;	COMDAT ??_C@_08ENAFOMOP@?$CDSCROLLX@
CONST	SEGMENT
??_C@_08ENAFOMOP@?$CDSCROLLX@ DB '#SCROLLX', 00H	; `string'
CONST	ENDS
;	COMDAT ??_C@_02KEGNLNML@?0?5@
CONST	SEGMENT
??_C@_02KEGNLNML@?0?5@ DB ', ', 00H			; `string'
CONST	ENDS
;	COMDAT ??_C@_00CNPNBAHC@@
CONST	SEGMENT
??_C@_00CNPNBAHC@@ DB 00H				; `string'
CONST	ENDS
;	COMDAT ??_C@_01NBENCBCI@?$CK@
CONST	SEGMENT
??_C@_01NBENCBCI@?$CK@ DB '*', 00H			; `string'
CONST	ENDS
;	COMDAT ??_C@_04LOAJBDKD@true@
CONST	SEGMENT
??_C@_04LOAJBDKD@true@ DB 'true', 00H			; `string'
CONST	ENDS
;	COMDAT ??_C@_05LAPONLG@false@
CONST	SEGMENT
??_C@_05LAPONLG@false@ DB 'false', 00H			; `string'
CONST	ENDS
;	COMDAT ??_C@_02NJPGOMH@?$CFf@
CONST	SEGMENT
??_C@_02NJPGOMH@?$CFf@ DB '%f', 00H			; `string'
CONST	ENDS
;	COMDAT ??_C@_0BA@JFNIOLAK@string?5too?5long@
CONST	SEGMENT
??_C@_0BA@JFNIOLAK@string?5too?5long@ DB 'string too long', 00H ; `string'
CONST	ENDS
;	COMDAT ?_Fake_alloc@std@@3U_Fake_allocator@1@B
CONST	SEGMENT
?_Fake_alloc@std@@3U_Fake_allocator@1@B	ORG $+1		; std::_Fake_alloc
CONST	ENDS
;	COMDAT _CT??_R0?AVbad_alloc@std@@@8??0bad_alloc@std@@QEAA@AEBV01@@Z24
xdata$x	SEGMENT
_CT??_R0?AVbad_alloc@std@@@8??0bad_alloc@std@@QEAA@AEBV01@@Z24 DD 010H
	DD	imagerel ??_R0?AVbad_alloc@std@@@8
	DD	00H
	DD	0ffffffffH
	ORG $+4
	DD	018H
	DD	imagerel ??0bad_alloc@std@@QEAA@AEBV01@@Z
xdata$x	ENDS
;	COMDAT ??_R0?AVbad_alloc@std@@@8
data$r	SEGMENT
??_R0?AVbad_alloc@std@@@8 DQ FLAT:??_7type_info@@6B@	; std::bad_alloc `RTTI Type Descriptor'
	DQ	0000000000000000H
	DB	'.?AVbad_alloc@std@@', 00H
data$r	ENDS
;	COMDAT _CT??_R0?AVbad_array_new_length@std@@@8??0bad_array_new_length@std@@QEAA@AEBV01@@Z24
xdata$x	SEGMENT
_CT??_R0?AVbad_array_new_length@std@@@8??0bad_array_new_length@std@@QEAA@AEBV01@@Z24 DD 00H
	DD	imagerel ??_R0?AVbad_array_new_length@std@@@8
	DD	00H
	DD	0ffffffffH
	ORG $+4
	DD	018H
	DD	imagerel ??0bad_array_new_length@std@@QEAA@AEBV01@@Z
xdata$x	ENDS
;	COMDAT ??_R0?AVbad_array_new_length@std@@@8
data$r	SEGMENT
??_R0?AVbad_array_new_length@std@@@8 DQ FLAT:??_7type_info@@6B@ ; std::bad_array_new_length `RTTI Type Descriptor'
	DQ	0000000000000000H
	DB	'.?AVbad_array_new_length@std@@', 00H
data$r	ENDS
;	COMDAT _CTA3?AVbad_array_new_length@std@@
xdata$x	SEGMENT
_CTA3?AVbad_array_new_length@std@@ DD 03H
	DD	imagerel _CT??_R0?AVbad_array_new_length@std@@@8??0bad_array_new_length@std@@QEAA@AEBV01@@Z24
	DD	imagerel _CT??_R0?AVbad_alloc@std@@@8??0bad_alloc@std@@QEAA@AEBV01@@Z24
	DD	imagerel _CT??_R0?AVexception@std@@@8??0exception@std@@QEAA@AEBV01@@Z24
xdata$x	ENDS
;	COMDAT _TI3?AVbad_array_new_length@std@@
xdata$x	SEGMENT
_TI3?AVbad_array_new_length@std@@ DD 00H
	DD	imagerel ??1bad_array_new_length@std@@UEAA@XZ
	DD	00H
	DD	imagerel _CTA3?AVbad_array_new_length@std@@
xdata$x	ENDS
;	COMDAT _CT??_R0?AVexception@std@@@8??0exception@std@@QEAA@AEBV01@@Z24
xdata$x	SEGMENT
_CT??_R0?AVexception@std@@@8??0exception@std@@QEAA@AEBV01@@Z24 DD 00H
	DD	imagerel ??_R0?AVexception@std@@@8
	DD	00H
	DD	0ffffffffH
	ORG $+4
	DD	018H
	DD	imagerel ??0exception@std@@QEAA@AEBV01@@Z
xdata$x	ENDS
;	COMDAT ??_R0?AVexception@std@@@8
data$r	SEGMENT
??_R0?AVexception@std@@@8 DQ FLAT:??_7type_info@@6B@	; std::exception `RTTI Type Descriptor'
	DQ	0000000000000000H
	DB	'.?AVexception@std@@', 00H
data$r	ENDS
;	COMDAT ??_C@_0BF@KINCDENJ@bad?5array?5new?5length@
CONST	SEGMENT
??_C@_0BF@KINCDENJ@bad?5array?5new?5length@ DB 'bad array new length', 00H ; `string'
CONST	ENDS
;	COMDAT ??_7bad_array_new_length@std@@6B@
CONST	SEGMENT
??_7bad_array_new_length@std@@6B@ DQ FLAT:??_R4bad_array_new_length@std@@6B@ ; std::bad_array_new_length::`vftable'
	DQ	FLAT:??_Ebad_array_new_length@std@@UEAAPEAXI@Z
	DQ	FLAT:?what@exception@std@@UEBAPEBDXZ
CONST	ENDS
;	COMDAT ??_7bad_alloc@std@@6B@
CONST	SEGMENT
??_7bad_alloc@std@@6B@ DQ FLAT:??_R4bad_alloc@std@@6B@	; std::bad_alloc::`vftable'
	DQ	FLAT:??_Ebad_alloc@std@@UEAAPEAXI@Z
	DQ	FLAT:?what@exception@std@@UEBAPEBDXZ
CONST	ENDS
;	COMDAT ??_C@_0BC@EOODALEL@Unknown?5exception@
CONST	SEGMENT
??_C@_0BC@EOODALEL@Unknown?5exception@ DB 'Unknown exception', 00H ; `string'
CONST	ENDS
;	COMDAT ??_7exception@std@@6B@
CONST	SEGMENT
??_7exception@std@@6B@ DQ FLAT:??_R4exception@std@@6B@	; std::exception::`vftable'
	DQ	FLAT:??_Eexception@std@@UEAAPEAXI@Z
	DQ	FLAT:?what@exception@std@@UEBAPEBDXZ
CONST	ENDS
;	COMDAT xdata
xdata	SEGMENT
$unwind$??__E?id@?$numpunct@D@std@@2V0locale@2@A@@YAXXZ DD 010401H
	DD	04204H
xdata	ENDS
;	COMDAT xdata
xdata	SEGMENT
$unwind$??__E?id@?$collate@D@std@@2V0locale@2@A@@YAXXZ DD 010401H
	DD	04204H
xdata	ENDS
;	COMDAT xdata
xdata	SEGMENT
$unwind$??__E?id@?$num_put@DV?$ostreambuf_iterator@DU?$char_traits@D@std@@@std@@@std@@2V0locale@2@A@@YAXXZ DD 010401H
	DD	04204H
xdata	ENDS
;	COMDAT xdata
xdata	SEGMENT
$unwind$??__E?id@?$codecvt@DDU_Mbstatet@@@std@@2V0locale@2@A@@YAXXZ DD 010401H
	DD	04204H
xdata	ENDS
;	COMDAT xdata
xdata	SEGMENT
$unwind$??$_Reallocate_grow_by@V<lambda_f3a66ab6a0570788f31503db83886f49>@@_KPEBD_K@?$basic_string@DU?$char_traits@D@std@@V?$allocator@D@2@@std@@AEAAAEAV01@_KV<lambda_f3a66ab6a0570788f31503db83886f49>@@_KPEBD2@Z DD 021b01H
	DD	013011bH
xdata	ENDS
;	COMDAT xdata
xdata	SEGMENT
$unwind$??R<lambda_f3a66ab6a0570788f31503db83886f49>@@QEBA@QEADQEBD_K212@Z DD 011801H
	DD	06218H
xdata	ENDS
;	COMDAT xdata
xdata	SEGMENT
$unwind$??$_Get_size_of_n@$00@std@@YA_K_K@Z DD 010901H
	DD	02209H
xdata	ENDS
;	COMDAT xdata
xdata	SEGMENT
$unwind$??$_Allocate_manually_vector_aligned@U_Default_allocate_traits@std@@@std@@YAPEAX_K@Z DD 010901H
	DD	08209H
xdata	ENDS
;	COMDAT xdata
xdata	SEGMENT
$unwind$??$_Allocate_for_capacity@$0A@@?$basic_string@DU?$char_traits@D@std@@V?$allocator@D@2@@std@@CAPEADAEAV?$allocator@D@1@AEA_K@Z DD 010e01H
	DD	0620eH
xdata	ENDS
;	COMDAT xdata
xdata	SEGMENT
$unwind$??$SliderCalcRatioFromValueT@NN@ImGui@@YAMHNNNMM@Z DD 011a01H
	DD	0a21aH
xdata	ENDS
;	COMDAT xdata
xdata	SEGMENT
$unwind$??$SliderCalcRatioFromValueT@MM@ImGui@@YAMHMMMMM@Z DD 011a01H
	DD	0821aH
xdata	ENDS
;	COMDAT xdata
xdata	SEGMENT
$unwind$??$SliderCalcRatioFromValueT@_KN@ImGui@@YAMH_K00MM@Z DD 011701H
	DD	0c217H
xdata	ENDS
;	COMDAT xdata
xdata	SEGMENT
$unwind$??$SliderCalcRatioFromValueT@_JN@ImGui@@YAMH_J00MM@Z DD 011701H
	DD	0c217H
xdata	ENDS
;	COMDAT xdata
xdata	SEGMENT
$unwind$??$SliderCalcRatioFromValueT@IM@ImGui@@YAMHIIIMM@Z DD 011601H
	DD	0a216H
xdata	ENDS
;	COMDAT xdata
xdata	SEGMENT
$unwind$??$SliderCalcRatioFromValueT@HM@ImGui@@YAMHHHHMM@Z DD 011601H
	DD	0a216H
xdata	ENDS
;	COMDAT voltbl
voltbl	SEGMENT
_volmd	DW	020H
	DW	0100H
voltbl	ENDS
;	COMDAT xdata
xdata	SEGMENT
$unwind$??$RoundScalarWithFormatT@NN@ImGui@@YANPEBDHN@Z DD 022519H
	DD	0110116H
	DD	imagerel __GSHandlerCheck
	DD	070H
xdata	ENDS
;	COMDAT voltbl
voltbl	SEGMENT
_volmd	DW	020H
	DW	0107H
voltbl	ENDS
;	COMDAT xdata
xdata	SEGMENT
$unwind$??$RoundScalarWithFormatT@MM@ImGui@@YAMPEBDHM@Z DD 022519H
	DD	0110116H
	DD	imagerel __GSHandlerCheck
	DD	070H
xdata	ENDS
;	COMDAT voltbl
voltbl	SEGMENT
_volmd	DW	01fH
	DW	012cH
voltbl	ENDS
;	COMDAT xdata
xdata	SEGMENT
$unwind$??$RoundScalarWithFormatT@_K_J@ImGui@@YA_KPEBDH_K@Z DD 022419H
	DD	0110115H
	DD	imagerel __GSHandlerCheck
	DD	070H
xdata	ENDS
;	COMDAT voltbl
voltbl	SEGMENT
_volmd	DB	01fH
	DB	0fbH
voltbl	ENDS
;	COMDAT xdata
xdata	SEGMENT
$unwind$??$RoundScalarWithFormatT@_J_J@ImGui@@YA_JPEBDH_J@Z DD 022419H
	DD	0110115H
	DD	imagerel __GSHandlerCheck
	DD	070H
xdata	ENDS
;	COMDAT voltbl
voltbl	SEGMENT
_volmd	DB	01fH
	DB	0f8H
voltbl	ENDS
;	COMDAT xdata
xdata	SEGMENT
$unwind$??$RoundScalarWithFormatT@IH@ImGui@@YAIPEBDHI@Z DD 022419H
	DD	0110115H
	DD	imagerel __GSHandlerCheck
	DD	070H
xdata	ENDS
;	COMDAT voltbl
voltbl	SEGMENT
_volmd	DB	01fH
	DB	0f7H
voltbl	ENDS
;	COMDAT xdata
xdata	SEGMENT
$unwind$??$RoundScalarWithFormatT@HH@ImGui@@YAHPEBDHH@Z DD 022419H
	DD	0110115H
	DD	imagerel __GSHandlerCheck
	DD	070H
xdata	ENDS
;	COMDAT xdata
xdata	SEGMENT
$unwind$??$_Construct_in_place@PEADAEBQEAD@std@@YAXAEAPEADAEBQEAD@Z DD 010e01H
	DD	0620eH
xdata	ENDS
;	COMDAT xdata
xdata	SEGMENT
$unwind$??$_Allocate@$0BA@U_Default_allocate_traits@std@@@std@@YAPEAX_K@Z DD 010901H
	DD	04209H
xdata	ENDS
;	COMDAT xdata
xdata	SEGMENT
$ip2state$??$_Deallocate@$0BA@@std@@YAXPEAX_K@Z DB 02H
	DB	00H
	DB	00H
xdata	ENDS
;	COMDAT xdata
xdata	SEGMENT
$cppxdata$??$_Deallocate@$0BA@@std@@YAXPEAX_K@Z DB 040H
	DD	imagerel $ip2state$??$_Deallocate@$0BA@@std@@YAXPEAX_K@Z
xdata	ENDS
;	COMDAT xdata
xdata	SEGMENT
$unwind$??$_Deallocate@$0BA@@std@@YAXPEAX_K@Z DD 010e19H
	DD	0420eH
	DD	imagerel __CxxFrameHandler4
	DD	imagerel $cppxdata$??$_Deallocate@$0BA@@std@@YAXPEAX_K@Z
xdata	ENDS
;	COMDAT xdata
xdata	SEGMENT
$unwind$??$_Construct_in_place@PEADAEAPEAD@std@@YAXAEAPEAD0@Z DD 010e01H
	DD	0620eH
xdata	ENDS
;	COMDAT xdata
xdata	SEGMENT
$unwind$??$_Reallocate_grow_by@V<lambda_e1befb086ad3257e3f042a63030725f7>@@_KD@?$basic_string@DU?$char_traits@D@std@@V?$allocator@D@2@@std@@AEAAAEAV01@_KV<lambda_e1befb086ad3257e3f042a63030725f7>@@_KD@Z DD 021b01H
	DD	011011bH
xdata	ENDS
;	COMDAT xdata
xdata	SEGMENT
$unwind$??R<lambda_e1befb086ad3257e3f042a63030725f7>@@QEBA@QEADQEBD_K2D@Z DD 011801H
	DD	06218H
xdata	ENDS
;	COMDAT xdata
xdata	SEGMENT
$unwind$??$_Construct@$00PEBD@?$basic_string@DU?$char_traits@D@std@@V?$allocator@D@2@@std@@AEAAXQEBD_K@Z DD 011301H
	DD	0a213H
xdata	ENDS
;	COMDAT xdata
xdata	SEGMENT
$unwind$?dtor$0@?0???$?0$$V@?$_Compressed_pair@V?$allocator@D@std@@V?$_String_val@U?$_Simple_types@D@std@@@2@$00@std@@QEAA@U_Zero_then_variadic_args_t@1@@Z@4HA DD 020601H
	DD	050023206H
xdata	ENDS
;	COMDAT xdata
xdata	SEGMENT
$ip2state$??$?0$$V@?$_Compressed_pair@V?$allocator@D@std@@V?$_String_val@U?$_Simple_types@D@std@@@2@$00@std@@QEAA@U_Zero_then_variadic_args_t@1@@Z DB 02H
	DB	00H
	DB	00H
xdata	ENDS
;	COMDAT xdata
xdata	SEGMENT
$stateUnwindMap$??$?0$$V@?$_Compressed_pair@V?$allocator@D@std@@V?$_String_val@U?$_Simple_types@D@std@@@2@$00@std@@QEAA@U_Zero_then_variadic_args_t@1@@Z DB 02H
	DB	0eH
	DD	imagerel ?dtor$0@?0???$?0$$V@?$_Compressed_pair@V?$allocator@D@std@@V?$_String_val@U?$_Simple_types@D@std@@@2@$00@std@@QEAA@U_Zero_then_variadic_args_t@1@@Z@4HA
xdata	ENDS
;	COMDAT xdata
xdata	SEGMENT
$cppxdata$??$?0$$V@?$_Compressed_pair@V?$allocator@D@std@@V?$_String_val@U?$_Simple_types@D@std@@@2@$00@std@@QEAA@U_Zero_then_variadic_args_t@1@@Z DB 048H
	DD	imagerel $stateUnwindMap$??$?0$$V@?$_Compressed_pair@V?$allocator@D@std@@V?$_String_val@U?$_Simple_types@D@std@@@2@$00@std@@QEAA@U_Zero_then_variadic_args_t@1@@Z
	DD	imagerel $ip2state$??$?0$$V@?$_Compressed_pair@V?$allocator@D@std@@V?$_String_val@U?$_Simple_types@D@std@@@2@$00@std@@QEAA@U_Zero_then_variadic_args_t@1@@Z
xdata	ENDS
;	COMDAT xdata
xdata	SEGMENT
$unwind$??$?0$$V@?$_Compressed_pair@V?$allocator@D@std@@V?$_String_val@U?$_Simple_types@D@std@@@2@$00@std@@QEAA@U_Zero_then_variadic_args_t@1@@Z DD 010d11H
	DD	0420dH
	DD	imagerel __CxxFrameHandler4
	DD	imagerel $cppxdata$??$?0$$V@?$_Compressed_pair@V?$allocator@D@std@@V?$_String_val@U?$_Simple_types@D@std@@@2@$00@std@@QEAA@U_Zero_then_variadic_args_t@1@@Z
xdata	ENDS
;	COMDAT xdata
xdata	SEGMENT
$unwind$?dtor$0@?0???$?0V?$allocator@D@std@@$$V@?$_Compressed_pair@V?$allocator@D@std@@V?$_String_val@U?$_Simple_types@D@std@@@2@$00@std@@QEAA@U_One_then_variadic_args_t@1@$$QEAV?$allocator@D@1@@Z@4HA DD 020601H
	DD	050023206H
xdata	ENDS
;	COMDAT xdata
xdata	SEGMENT
$ip2state$??$?0V?$allocator@D@std@@$$V@?$_Compressed_pair@V?$allocator@D@std@@V?$_String_val@U?$_Simple_types@D@std@@@2@$00@std@@QEAA@U_One_then_variadic_args_t@1@$$QEAV?$allocator@D@1@@Z DB 02H
	DB	00H
	DB	00H
xdata	ENDS
;	COMDAT xdata
xdata	SEGMENT
$stateUnwindMap$??$?0V?$allocator@D@std@@$$V@?$_Compressed_pair@V?$allocator@D@std@@V?$_String_val@U?$_Simple_types@D@std@@@2@$00@std@@QEAA@U_One_then_variadic_args_t@1@$$QEAV?$allocator@D@1@@Z DB 02H
	DB	0eH
	DD	imagerel ?dtor$0@?0???$?0V?$allocator@D@std@@$$V@?$_Compressed_pair@V?$allocator@D@std@@V?$_String_val@U?$_Simple_types@D@std@@@2@$00@std@@QEAA@U_One_then_variadic_args_t@1@$$QEAV?$allocator@D@1@@Z@4HA
xdata	ENDS
;	COMDAT xdata
xdata	SEGMENT
$cppxdata$??$?0V?$allocator@D@std@@$$V@?$_Compressed_pair@V?$allocator@D@std@@V?$_String_val@U?$_Simple_types@D@std@@@2@$00@std@@QEAA@U_One_then_variadic_args_t@1@$$QEAV?$allocator@D@1@@Z DB 048H
	DD	imagerel $stateUnwindMap$??$?0V?$allocator@D@std@@$$V@?$_Compressed_pair@V?$allocator@D@std@@V?$_String_val@U?$_Simple_types@D@std@@@2@$00@std@@QEAA@U_One_then_variadic_args_t@1@$$QEAV?$allocator@D@1@@Z
	DD	imagerel $ip2state$??$?0V?$allocator@D@std@@$$V@?$_Compressed_pair@V?$allocator@D@std@@V?$_String_val@U?$_Simple_types@D@std@@@2@$00@std@@QEAA@U_One_then_variadic_args_t@1@$$QEAV?$allocator@D@1@@Z
xdata	ENDS
;	COMDAT xdata
xdata	SEGMENT
$unwind$??$?0V?$allocator@D@std@@$$V@?$_Compressed_pair@V?$allocator@D@std@@V?$_String_val@U?$_Simple_types@D@std@@@2@$00@std@@QEAA@U_One_then_variadic_args_t@1@$$QEAV?$allocator@D@1@@Z DD 011211H
	DD	04212H
	DD	imagerel __CxxFrameHandler4
	DD	imagerel $cppxdata$??$?0V?$allocator@D@std@@$$V@?$_Compressed_pair@V?$allocator@D@std@@V?$_String_val@U?$_Simple_types@D@std@@@2@$00@std@@QEAA@U_One_then_variadic_args_t@1@$$QEAV?$allocator@D@1@@Z
xdata	ENDS
;	COMDAT xdata
xdata	SEGMENT
$unwind$??$_Reallocate_grow_by@V<lambda_65e615be2a453ca0576c979606f46740>@@PEBD_K@?$basic_string@DU?$char_traits@D@std@@V?$allocator@D@2@@std@@AEAAAEAV01@_KV<lambda_65e615be2a453ca0576c979606f46740>@@PEBD_K@Z DD 021b01H
	DD	011011bH
xdata	ENDS
;	COMDAT xdata
xdata	SEGMENT
$unwind$??R<lambda_65e615be2a453ca0576c979606f46740>@@QEBA@QEADQEBD_K12@Z DD 011801H
	DD	06218H
xdata	ENDS
;	COMDAT xdata
xdata	SEGMENT
$unwind$??$_Reallocate_for@V<lambda_66f57f934f28d61049862f64df852ff0>@@PEBD@?$basic_string@DU?$char_traits@D@std@@V?$allocator@D@2@@std@@AEAAAEAV01@_KV<lambda_66f57f934f28d61049862f64df852ff0>@@PEBD@Z DD 011801H
	DD	08218H
xdata	ENDS
;	COMDAT xdata
xdata	SEGMENT
$unwind$??R<lambda_66f57f934f28d61049862f64df852ff0>@@QEBA@QEAD_KQEBD@Z DD 011801H
	DD	06218H
xdata	ENDS
;	COMDAT xdata
xdata	SEGMENT
$unwind$??$_Max_limit@_J@std@@YA_JXZ DD 010401H
	DD	02204H
xdata	ENDS
;	COMDAT xdata
xdata	SEGMENT
$unwind$??$max@_K@std@@YAAEB_KAEB_K0@Z DD 010e01H
	DD	0220eH
xdata	ENDS
;	COMDAT xdata
xdata	SEGMENT
$unwind$??$_Allocate_at_least_helper@V?$allocator@D@std@@@std@@YAPEADAEAV?$allocator@D@0@AEA_K@Z DD 010e01H
	DD	0420eH
xdata	ENDS
;	COMDAT xdata
xdata	SEGMENT
$unwind$??__Ffmt_table_float@?BD@??ColorEdit4@ImGui@@YA_NPEBDQEAMH@Z@YAXXZ DD 010401H
	DD	04204H
xdata	ENDS
;	COMDAT xdata
xdata	SEGMENT
$unwind$??__Ffmt_table_int@?BD@??ColorEdit4@ImGui@@YA_NPEBDQEAMH@Z@YAXXZ DD 010401H
	DD	04204H
xdata	ENDS
;	COMDAT xdata
xdata	SEGMENT
$unwind$??__Fids@?BD@??ColorEdit4@ImGui@@YA_NPEBDQEAMH@Z@YAXXZ DD 010401H
	DD	04204H
xdata	ENDS
;	COMDAT xdata
xdata	SEGMENT
$unwind$??$SliderBehaviorT@NNN@ImGui@@YA_NAEBUImRect@@IHPEANNNPEBDMHPEAU1@@Z DD 041c01H
	DD	02f011cH
	DD	060147015H
xdata	ENDS
;	COMDAT xdata
xdata	SEGMENT
$unwind$??$SliderBehaviorT@MMM@ImGui@@YA_NAEBUImRect@@IHPEAMMMPEBDMHPEAU1@@Z DD 041c01H
	DD	029011cH
	DD	060147015H
xdata	ENDS
;	COMDAT xdata
xdata	SEGMENT
$unwind$??$SliderBehaviorT@_K_JN@ImGui@@YA_NAEBUImRect@@IHPEA_K_K2PEBDMHPEAU1@@Z DD 041c01H
	DD	02f011cH
	DD	060147015H
xdata	ENDS
;	COMDAT xdata
xdata	SEGMENT
$unwind$??$SliderBehaviorT@_J_JN@ImGui@@YA_NAEBUImRect@@IHPEA_J_J2PEBDMHPEAU1@@Z DD 041c01H
	DD	02f011cH
	DD	060147015H
xdata	ENDS
;	COMDAT xdata
xdata	SEGMENT
$unwind$??$SliderBehaviorT@IHM@ImGui@@YA_NAEBUImRect@@IHPEAIIIPEBDMHPEAU1@@Z DD 041c01H
	DD	029011cH
	DD	060147015H
xdata	ENDS
;	COMDAT xdata
xdata	SEGMENT
$unwind$??$SliderBehaviorT@HHM@ImGui@@YA_NAEBUImRect@@IHPEAHHHPEBDMHPEAU1@@Z DD 041c01H
	DD	029011cH
	DD	060147015H
xdata	ENDS
;	COMDAT xdata
xdata	SEGMENT
$unwind$??$DragBehaviorT@NNN@ImGui@@YA_NHPEANMNNPEBDMH@Z DD 021c01H
	DD	019011cH
xdata	ENDS
;	COMDAT xdata
xdata	SEGMENT
$unwind$??$DragBehaviorT@MMM@ImGui@@YA_NHPEAMMMMPEBDMH@Z DD 021c01H
	DD	015011cH
xdata	ENDS
;	COMDAT xdata
xdata	SEGMENT
$unwind$??$DragBehaviorT@_K_JN@ImGui@@YA_NHPEA_KM_K1PEBDMH@Z DD 021b01H
	DD	019011bH
xdata	ENDS
;	COMDAT xdata
xdata	SEGMENT
$unwind$??$DragBehaviorT@_J_JN@ImGui@@YA_NHPEA_JM_J1PEBDMH@Z DD 021b01H
	DD	019011bH
xdata	ENDS
;	COMDAT xdata
xdata	SEGMENT
$unwind$??$DragBehaviorT@IHM@ImGui@@YA_NHPEAIMIIPEBDMH@Z DD 021b01H
	DD	015011bH
xdata	ENDS
;	COMDAT xdata
xdata	SEGMENT
$unwind$??$DragBehaviorT@HHM@ImGui@@YA_NHPEAHMHHPEBDMH@Z DD 021b01H
	DD	015011bH
xdata	ENDS
;	COMDAT xdata
xdata	SEGMENT
$unwind$??__FGDataTypeInfo@@YAXXZ DD 010401H
	DD	04204H
xdata	ENDS
;	COMDAT xdata
xdata	SEGMENT
$unwind$?dtor$15@?0???__EGDataTypeInfo@@YAXXZ@4HA DD 020601H
	DD	050023206H
xdata	ENDS
;	COMDAT xdata
xdata	SEGMENT
$unwind$?dtor$14@?0???__EGDataTypeInfo@@YAXXZ@4HA DD 020601H
	DD	050023206H
xdata	ENDS
;	COMDAT xdata
xdata	SEGMENT
$unwind$?dtor$12@?0???__EGDataTypeInfo@@YAXXZ@4HA DD 020601H
	DD	050023206H
xdata	ENDS
;	COMDAT xdata
xdata	SEGMENT
$unwind$?dtor$11@?0???__EGDataTypeInfo@@YAXXZ@4HA DD 020601H
	DD	050023206H
xdata	ENDS
;	COMDAT xdata
xdata	SEGMENT
$unwind$?dtor$9@?0???__EGDataTypeInfo@@YAXXZ@4HA DD 020601H
	DD	050023206H
xdata	ENDS
;	COMDAT xdata
xdata	SEGMENT
$unwind$?dtor$8@?0???__EGDataTypeInfo@@YAXXZ@4HA DD 020601H
	DD	050023206H
xdata	ENDS
;	COMDAT xdata
xdata	SEGMENT
$unwind$?dtor$6@?0???__EGDataTypeInfo@@YAXXZ@4HA DD 020601H
	DD	050023206H
xdata	ENDS
;	COMDAT xdata
xdata	SEGMENT
$unwind$?dtor$5@?0???__EGDataTypeInfo@@YAXXZ@4HA DD 020601H
	DD	050023206H
xdata	ENDS
;	COMDAT xdata
xdata	SEGMENT
$unwind$?dtor$3@?0???__EGDataTypeInfo@@YAXXZ@4HA DD 020601H
	DD	050023206H
xdata	ENDS
;	COMDAT xdata
xdata	SEGMENT
$unwind$?dtor$2@?0???__EGDataTypeInfo@@YAXXZ@4HA DD 020601H
	DD	050023206H
xdata	ENDS
;	COMDAT xdata
xdata	SEGMENT
$unwind$?dtor$0@?0???__EGDataTypeInfo@@YAXXZ@4HA DD 020601H
	DD	050023206H
xdata	ENDS
;	COMDAT xdata
xdata	SEGMENT
$ip2state$??__EGDataTypeInfo@@YAXXZ DB 01aH
	DB	00H
	DB	00H
	DB	'F'
	DB	02H
	DB	'('
	DB	04H
	DB	'>'
	DB	06H
	DB	'('
	DB	08H
	DB	'>'
	DB	0aH
	DB	'('
	DB	0cH
	DB	'>'
	DB	0eH
	DB	'('
	DB	010H
	DB	'>'
	DB	012H
	DB	'('
	DB	014H
	DB	'>'
	DB	016H
	DB	'('
	DB	00H
xdata	ENDS
;	COMDAT xdata
xdata	SEGMENT
$stateUnwindMap$??__EGDataTypeInfo@@YAXXZ DB 016H
	DB	0eH
	DD	imagerel ?dtor$0@?0???__EGDataTypeInfo@@YAXXZ@4HA
	DB	036H
	DD	imagerel ?dtor$2@?0???__EGDataTypeInfo@@YAXXZ@4HA
	DB	02eH
	DD	imagerel ?dtor$3@?0???__EGDataTypeInfo@@YAXXZ@4HA
	DB	056H
	DD	imagerel ?dtor$5@?0???__EGDataTypeInfo@@YAXXZ@4HA
	DB	02eH
	DD	imagerel ?dtor$6@?0???__EGDataTypeInfo@@YAXXZ@4HA
	DB	056H
	DD	imagerel ?dtor$8@?0???__EGDataTypeInfo@@YAXXZ@4HA
	DB	02eH
	DD	imagerel ?dtor$9@?0???__EGDataTypeInfo@@YAXXZ@4HA
	DB	056H
	DD	imagerel ?dtor$11@?0???__EGDataTypeInfo@@YAXXZ@4HA
	DB	02eH
	DD	imagerel ?dtor$12@?0???__EGDataTypeInfo@@YAXXZ@4HA
	DB	056H
	DD	imagerel ?dtor$14@?0???__EGDataTypeInfo@@YAXXZ@4HA
	DB	02eH
	DD	imagerel ?dtor$15@?0???__EGDataTypeInfo@@YAXXZ@4HA
xdata	ENDS
;	COMDAT xdata
xdata	SEGMENT
$cppxdata$??__EGDataTypeInfo@@YAXXZ DB 08H
	DD	imagerel $stateUnwindMap$??__EGDataTypeInfo@@YAXXZ
	DD	imagerel $ip2state$??__EGDataTypeInfo@@YAXXZ
xdata	ENDS
;	COMDAT xdata
xdata	SEGMENT
$unwind$??__EGDataTypeInfo@@YAXXZ DD 010411H
	DD	04204H
	DD	imagerel __CxxFrameHandler4
	DD	imagerel $cppxdata$??__EGDataTypeInfo@@YAXXZ
xdata	ENDS
;	COMDAT xdata
xdata	SEGMENT
$unwind$?dtor$1@?0???1ImGuiDataTypeInfo@@QEAA@XZ@4HA DD 020601H
	DD	050023206H
xdata	ENDS
;	COMDAT xdata
xdata	SEGMENT
$unwind$?dtor$0@?0???1ImGuiDataTypeInfo@@QEAA@XZ@4HA DD 020601H
	DD	050023206H
xdata	ENDS
;	COMDAT xdata
xdata	SEGMENT
$ip2state$??1ImGuiDataTypeInfo@@QEAA@XZ DB 06H
	DB	00H
	DB	00H
	DB	012H
	DB	02H
	DB	'$'
	DB	00H
xdata	ENDS
;	COMDAT xdata
xdata	SEGMENT
$stateUnwindMap$??1ImGuiDataTypeInfo@@QEAA@XZ DB 04H
	DB	0eH
	DD	imagerel ?dtor$0@?0???1ImGuiDataTypeInfo@@QEAA@XZ@4HA
	DB	02eH
	DD	imagerel ?dtor$1@?0???1ImGuiDataTypeInfo@@QEAA@XZ@4HA
xdata	ENDS
;	COMDAT xdata
xdata	SEGMENT
$cppxdata$??1ImGuiDataTypeInfo@@QEAA@XZ DB 048H
	DD	imagerel $stateUnwindMap$??1ImGuiDataTypeInfo@@QEAA@XZ
	DD	imagerel $ip2state$??1ImGuiDataTypeInfo@@QEAA@XZ
xdata	ENDS
;	COMDAT xdata
xdata	SEGMENT
$unwind$??1ImGuiDataTypeInfo@@QEAA@XZ DD 010911H
	DD	04209H
	DD	imagerel __CxxFrameHandler4
	DD	imagerel $cppxdata$??1ImGuiDataTypeInfo@@QEAA@XZ
xdata	ENDS
;	COMDAT xdata
xdata	SEGMENT
$unwind$?IsNavInputPressed@ImGui@@YA_NHW4ImGuiInputReadMode@@@Z DD 010c01H
	DD	0620cH
xdata	ENDS
;	COMDAT xdata
xdata	SEGMENT
$unwind$?IsNavInputDown@ImGui@@YA_NH@Z DD 010801H
	DD	02208H
xdata	ENDS
;	COMDAT xdata
xdata	SEGMENT
$unwind$?IsKeyPressedMap@ImGui@@YA_NH_N@Z DD 010c01H
	DD	0620cH
xdata	ENDS
;	COMDAT xdata
xdata	SEGMENT
$unwind$?GetCurrentWindow@ImGui@@YAPEAUImGuiWindow@@XZ DD 010401H
	DD	02204H
xdata	ENDS
;	COMDAT xdata
xdata	SEGMENT
$unwind$?GetTabOrder@ImGuiTabBar@@QEBAHPEBUImGuiTabItem@@@Z DD 010e01H
	DD	0620eH
xdata	ENDS
;	COMDAT xdata
xdata	SEGMENT
$unwind$?index_from_ptr@?$ImVector@UImGuiTabItem@@@@QEBAHPEBUImGuiTabItem@@@Z DD 010e01H
	DD	0220eH
xdata	ENDS
;	COMDAT xdata
xdata	SEGMENT
$unwind$?erase@?$ImVector@UImGuiTabItem@@@@QEAAPEAUImGuiTabItem@@PEBU2@@Z DD 010e01H
	DD	0620eH
xdata	ENDS
;	COMDAT xdata
xdata	SEGMENT
$unwind$?push_back@?$ImVector@UImGuiTabItem@@@@QEAAXAEBUImGuiTabItem@@@Z DD 010e01H
	DD	0420eH
xdata	ENDS
;	COMDAT xdata
xdata	SEGMENT
$unwind$?reserve@?$ImVector@UImGuiTabItem@@@@QEAAXH@Z DD 010d01H
	DD	0620dH
xdata	ENDS
;	COMDAT xdata
xdata	SEGMENT
$unwind$?resize@?$ImVector@UImGuiTabItem@@@@QEAAXH@Z DD 010d01H
	DD	0420dH
xdata	ENDS
;	COMDAT xdata
xdata	SEGMENT
$unwind$?_grow_capacity@?$ImVector@UImGuiTabItem@@@@QEBAHH@Z DD 010d01H
	DD	0220dH
xdata	ENDS
;	COMDAT xdata
xdata	SEGMENT
$ip2state$??1?$ImVector@UImGuiTabItem@@@@QEAA@XZ DB 02H
	DB	00H
	DB	00H
xdata	ENDS
;	COMDAT xdata
xdata	SEGMENT
$cppxdata$??1?$ImVector@UImGuiTabItem@@@@QEAA@XZ DB 040H
	DD	imagerel $ip2state$??1?$ImVector@UImGuiTabItem@@@@QEAA@XZ
xdata	ENDS
;	COMDAT xdata
xdata	SEGMENT
$unwind$??1?$ImVector@UImGuiTabItem@@@@QEAA@XZ DD 010919H
	DD	04209H
	DD	imagerel __CxxFrameHandler4
	DD	imagerel $cppxdata$??1?$ImVector@UImGuiTabItem@@@@QEAA@XZ
xdata	ENDS
;	COMDAT xdata
xdata	SEGMENT
$unwind$?Restore@ImGuiItemHoveredDataBackup@@QEBAXXZ DD 030b01H
	DD	07007220bH
	DD	06006H
xdata	ENDS
;	COMDAT xdata
xdata	SEGMENT
$unwind$?Backup@ImGuiItemHoveredDataBackup@@QEAAXXZ DD 030b01H
	DD	07007220bH
	DD	06006H
xdata	ENDS
;	COMDAT xdata
xdata	SEGMENT
$unwind$??0ImGuiItemHoveredDataBackup@@QEAA@XZ DD 010901H
	DD	04209H
xdata	ENDS
;	COMDAT xdata
xdata	SEGMENT
$unwind$?MenuBarRect@ImGuiWindow@@QEBA?AUImRect@@XZ DD 010e01H
	DD	0820eH
xdata	ENDS
;	COMDAT xdata
xdata	SEGMENT
$unwind$?MenuBarHeight@ImGuiWindow@@QEBAMXZ DD 010901H
	DD	06209H
xdata	ENDS
;	COMDAT xdata
xdata	SEGMENT
$unwind$?TitleBarHeight@ImGuiWindow@@QEBAMXZ DD 010901H
	DD	06209H
xdata	ENDS
;	COMDAT xdata
xdata	SEGMENT
$unwind$?Rect@ImGuiWindow@@QEBA?AUImRect@@XZ DD 010e01H
	DD	0620eH
xdata	ENDS
;	COMDAT xdata
xdata	SEGMENT
$unwind$?push_back@?$ImVector@I@@QEAAXAEBI@Z DD 010e01H
	DD	0420eH
xdata	ENDS
;	COMDAT xdata
xdata	SEGMENT
$unwind$?reserve@?$ImVector@I@@QEAAXH@Z DD 010d01H
	DD	0620dH
xdata	ENDS
;	COMDAT xdata
xdata	SEGMENT
$unwind$?_grow_capacity@?$ImVector@I@@QEBAHH@Z DD 010d01H
	DD	0220dH
xdata	ENDS
;	COMDAT xdata
xdata	SEGMENT
$unwind$?empty@?$ImVector@UImGuiGroupData@@@@QEBA_NXZ DD 010901H
	DD	02209H
xdata	ENDS
;	COMDAT xdata
xdata	SEGMENT
$unwind$?push_back@?$ImVector@PEAUImGuiTabBar@@@@QEAAXAEBQEAUImGuiTabBar@@@Z DD 010e01H
	DD	0420eH
xdata	ENDS
;	COMDAT xdata
xdata	SEGMENT
$unwind$?reserve@?$ImVector@PEAUImGuiTabBar@@@@QEAAXH@Z DD 010d01H
	DD	0620dH
xdata	ENDS
;	COMDAT xdata
xdata	SEGMENT
$unwind$?_grow_capacity@?$ImVector@PEAUImGuiTabBar@@@@QEBAHH@Z DD 010d01H
	DD	0220dH
xdata	ENDS
;	COMDAT xdata
xdata	SEGMENT
$unwind$?reserve@?$ImVector@UImGuiTabBarSortItem@@@@QEAAXH@Z DD 010d01H
	DD	0620dH
xdata	ENDS
;	COMDAT xdata
xdata	SEGMENT
$unwind$?resize@?$ImVector@UImGuiTabBarSortItem@@@@QEAAXH@Z DD 010d01H
	DD	0420dH
xdata	ENDS
;	COMDAT xdata
xdata	SEGMENT
$unwind$?_grow_capacity@?$ImVector@UImGuiTabBarSortItem@@@@QEBAHH@Z DD 010d01H
	DD	0220dH
xdata	ENDS
;	COMDAT xdata
xdata	SEGMENT
$unwind$?dtor$0@?0??Add@?$ImPool@UImGuiTabBar@@@@QEAAPEAUImGuiTabBar@@XZ@4HA DD 020601H
	DD	050023206H
xdata	ENDS
;	COMDAT xdata
xdata	SEGMENT
$ip2state$?Add@?$ImPool@UImGuiTabBar@@@@QEAAPEAUImGuiTabBar@@XZ DB 06H
	DB	00H
	DB	00H
	DB	'U', 03H
	DB	02H
	DB	'X'
	DB	00H
xdata	ENDS
;	COMDAT xdata
xdata	SEGMENT
$stateUnwindMap$?Add@?$ImPool@UImGuiTabBar@@@@QEAAPEAUImGuiTabBar@@XZ DB 02H
	DB	0eH
	DD	imagerel ?dtor$0@?0??Add@?$ImPool@UImGuiTabBar@@@@QEAAPEAUImGuiTabBar@@XZ@4HA
xdata	ENDS
;	COMDAT xdata
xdata	SEGMENT
$cppxdata$?Add@?$ImPool@UImGuiTabBar@@@@QEAAPEAUImGuiTabBar@@XZ DB 08H
	DD	imagerel $stateUnwindMap$?Add@?$ImPool@UImGuiTabBar@@@@QEAAPEAUImGuiTabBar@@XZ
	DD	imagerel $ip2state$?Add@?$ImPool@UImGuiTabBar@@@@QEAAPEAUImGuiTabBar@@XZ
xdata	ENDS
;	COMDAT xdata
xdata	SEGMENT
$unwind$?Add@?$ImPool@UImGuiTabBar@@@@QEAAPEAUImGuiTabBar@@XZ DD 010911H
	DD	0e209H
	DD	imagerel __CxxFrameHandler4
	DD	imagerel $cppxdata$?Add@?$ImPool@UImGuiTabBar@@@@QEAAPEAUImGuiTabBar@@XZ
xdata	ENDS
;	COMDAT xdata
xdata	SEGMENT
$unwind$?GetOrAddByKey@?$ImPool@UImGuiTabBar@@@@QEAAPEAUImGuiTabBar@@I@Z DD 010d01H
	DD	0820dH
xdata	ENDS
;	COMDAT xdata
xdata	SEGMENT
$unwind$?reserve@?$ImVector@UImGuiTabBar@@@@QEAAXH@Z DD 010d01H
	DD	0620dH
xdata	ENDS
;	COMDAT xdata
xdata	SEGMENT
$unwind$?resize@?$ImVector@UImGuiTabBar@@@@QEAAXH@Z DD 010d01H
	DD	0420dH
xdata	ENDS
;	COMDAT xdata
xdata	SEGMENT
$unwind$?_grow_capacity@?$ImVector@UImGuiTabBar@@@@QEBAHH@Z DD 010d01H
	DD	0220dH
xdata	ENDS
;	COMDAT xdata
xdata	SEGMENT
$unwind$?HasSelection@ImGuiInputTextState@@QEBA_NXZ DD 010901H
	DD	02209H
xdata	ENDS
;	COMDAT xdata
xdata	SEGMENT
$unwind$?CursorClamp@ImGuiInputTextState@@QEAAXXZ DD 010901H
	DD	04209H
xdata	ENDS
;	COMDAT xdata
xdata	SEGMENT
$unwind$?ClipWith@ImRect@@QEAAXAEBU1@@Z DD 010e01H
	DD	0620eH
xdata	ENDS
;	COMDAT xdata
xdata	SEGMENT
$unwind$?Overlaps@ImRect@@QEBA_NAEBU1@@Z DD 010e01H
	DD	0220eH
xdata	ENDS
;	COMDAT xdata
xdata	SEGMENT
$unwind$?Contains@ImRect@@QEBA_NAEBU1@@Z DD 010e01H
	DD	0220eH
xdata	ENDS
;	COMDAT xdata
xdata	SEGMENT
$unwind$?Contains@ImRect@@QEBA_NAEBUImVec2@@@Z DD 010e01H
	DD	0220eH
xdata	ENDS
;	COMDAT xdata
xdata	SEGMENT
$unwind$?GetBL@ImRect@@QEBA?AUImVec2@@XZ DD 010e01H
	DD	0420eH
xdata	ENDS
;	COMDAT xdata
xdata	SEGMENT
$unwind$?GetTR@ImRect@@QEBA?AUImVec2@@XZ DD 010e01H
	DD	0420eH
xdata	ENDS
;	COMDAT xdata
xdata	SEGMENT
$unwind$?GetSize@ImRect@@QEBA?AUImVec2@@XZ DD 010e01H
	DD	0420eH
xdata	ENDS
;	COMDAT xdata
xdata	SEGMENT
$unwind$?GetCenter@ImRect@@QEBA?AUImVec2@@XZ DD 010e01H
	DD	0420eH
xdata	ENDS
;	COMDAT xdata
xdata	SEGMENT
$unwind$??0ImRect@@QEAA@MMMM@Z DD 011b01H
	DD	0621bH
xdata	ENDS
;	COMDAT xdata
xdata	SEGMENT
$unwind$??0ImRect@@QEAA@AEBUImVec4@@@Z DD 010e01H
	DD	0620eH
xdata	ENDS
;	COMDAT xdata
xdata	SEGMENT
$unwind$??0ImRect@@QEAA@XZ DD 010901H
	DD	06209H
xdata	ENDS
;	COMDAT xdata
xdata	SEGMENT
$unwind$?GetCharAdvance@ImFont@@QEBAMG@Z DD 010e01H
	DD	0620eH
xdata	ENDS
;	COMDAT xdata
xdata	SEGMENT
$unwind$?PrimVtx@ImDrawList@@QEAAXAEBUImVec2@@0I@Z DD 011801H
	DD	04218H
xdata	ENDS
;	COMDAT xdata
xdata	SEGMENT
$unwind$?PathStroke@ImDrawList@@QEAAXI_NM@Z DD 011801H
	DD	06218H
xdata	ENDS
;	COMDAT xdata
xdata	SEGMENT
$unwind$?PathFillConvex@ImDrawList@@QEAAXI@Z DD 010d01H
	DD	0420dH
xdata	ENDS
;	COMDAT xdata
xdata	SEGMENT
$unwind$?PathLineTo@ImDrawList@@QEAAXAEBUImVec2@@@Z DD 010e01H
	DD	0620eH
xdata	ENDS
;	COMDAT xdata
xdata	SEGMENT
$unwind$?push_back@?$ImVector@UImVec2@@@@QEAAXAEBUImVec2@@@Z DD 010e01H
	DD	0420eH
xdata	ENDS
;	COMDAT xdata
xdata	SEGMENT
$unwind$?reserve@?$ImVector@UImVec2@@@@QEAAXH@Z DD 010d01H
	DD	0620dH
xdata	ENDS
;	COMDAT xdata
xdata	SEGMENT
$unwind$?_grow_capacity@?$ImVector@UImVec2@@@@QEBAHH@Z DD 010d01H
	DD	0220dH
xdata	ENDS
;	COMDAT xdata
xdata	SEGMENT
$unwind$??BImColor@@QEBAIXZ DD 010901H
	DD	04209H
xdata	ENDS
;	COMDAT xdata
xdata	SEGMENT
$unwind$??0ImColor@@QEAA@HHHH@Z DD 011701H
	DD	06217H
xdata	ENDS
;	COMDAT xdata
xdata	SEGMENT
$unwind$??0ImGuiListClipper@@QEAA@HM@Z DD 011301H
	DD	04213H
xdata	ENDS
;	COMDAT xdata
xdata	SEGMENT
$unwind$?dtor$0@?0???1ImGuiTextBuffer@@QEAA@XZ@4HA DD 020601H
	DD	050023206H
xdata	ENDS
;	COMDAT xdata
xdata	SEGMENT
$ip2state$??1ImGuiTextBuffer@@QEAA@XZ DB 02H
	DB	00H
	DB	00H
xdata	ENDS
;	COMDAT xdata
xdata	SEGMENT
$stateUnwindMap$??1ImGuiTextBuffer@@QEAA@XZ DB 02H
	DB	0eH
	DD	imagerel ?dtor$0@?0???1ImGuiTextBuffer@@QEAA@XZ@4HA
xdata	ENDS
;	COMDAT xdata
xdata	SEGMENT
$cppxdata$??1ImGuiTextBuffer@@QEAA@XZ DB 048H
	DD	imagerel $stateUnwindMap$??1ImGuiTextBuffer@@QEAA@XZ
	DD	imagerel $ip2state$??1ImGuiTextBuffer@@QEAA@XZ
xdata	ENDS
;	COMDAT xdata
xdata	SEGMENT
$unwind$??1ImGuiTextBuffer@@QEAA@XZ DD 010911H
	DD	04209H
	DD	imagerel __CxxFrameHandler4
	DD	imagerel $cppxdata$??1ImGuiTextBuffer@@QEAA@XZ
xdata	ENDS
;	COMDAT xdata
xdata	SEGMENT
$unwind$?size@ImGuiTextBuffer@@QEBAHXZ DD 010901H
	DD	02209H
xdata	ENDS
;	COMDAT xdata
xdata	SEGMENT
$unwind$?dtor$0@?0???0ImGuiTextBuffer@@QEAA@XZ@4HA DD 020601H
	DD	050023206H
xdata	ENDS
;	COMDAT xdata
xdata	SEGMENT
$ip2state$??0ImGuiTextBuffer@@QEAA@XZ DB 02H
	DB	00H
	DB	00H
xdata	ENDS
;	COMDAT xdata
xdata	SEGMENT
$stateUnwindMap$??0ImGuiTextBuffer@@QEAA@XZ DB 02H
	DB	0eH
	DD	imagerel ?dtor$0@?0???0ImGuiTextBuffer@@QEAA@XZ@4HA
xdata	ENDS
;	COMDAT xdata
xdata	SEGMENT
$cppxdata$??0ImGuiTextBuffer@@QEAA@XZ DB 08H
	DD	imagerel $stateUnwindMap$??0ImGuiTextBuffer@@QEAA@XZ
	DD	imagerel $ip2state$??0ImGuiTextBuffer@@QEAA@XZ
xdata	ENDS
;	COMDAT xdata
xdata	SEGMENT
$unwind$??0ImGuiTextBuffer@@QEAA@XZ DD 010911H
	DD	04209H
	DD	imagerel __CxxFrameHandler4
	DD	imagerel $cppxdata$??0ImGuiTextBuffer@@QEAA@XZ
xdata	ENDS
;	COMDAT xdata
xdata	SEGMENT
$unwind$?reserve@?$ImVector@D@@QEAAXH@Z DD 010d01H
	DD	0620dH
xdata	ENDS
;	COMDAT xdata
xdata	SEGMENT
$unwind$?resize@?$ImVector@D@@QEAAXH@Z DD 010d01H
	DD	0420dH
xdata	ENDS
;	COMDAT xdata
xdata	SEGMENT
$unwind$?_grow_capacity@?$ImVector@D@@QEBAHH@Z DD 010d01H
	DD	0220dH
xdata	ENDS
;	COMDAT xdata
xdata	SEGMENT
$ip2state$??1?$ImVector@D@@QEAA@XZ DB 02H
	DB	00H
	DB	00H
xdata	ENDS
;	COMDAT xdata
xdata	SEGMENT
$cppxdata$??1?$ImVector@D@@QEAA@XZ DB 040H
	DD	imagerel $ip2state$??1?$ImVector@D@@QEAA@XZ
xdata	ENDS
;	COMDAT xdata
xdata	SEGMENT
$unwind$??1?$ImVector@D@@QEAA@XZ DD 010919H
	DD	04209H
	DD	imagerel __CxxFrameHandler4
	DD	imagerel $cppxdata$??1?$ImVector@D@@QEAA@XZ
xdata	ENDS
;	COMDAT xdata
xdata	SEGMENT
$unwind$?reserve@?$ImVector@G@@QEAAXH@Z DD 010d01H
	DD	0620dH
xdata	ENDS
;	COMDAT xdata
xdata	SEGMENT
$unwind$?resize@?$ImVector@G@@QEAAXH@Z DD 010d01H
	DD	0420dH
xdata	ENDS
;	COMDAT xdata
xdata	SEGMENT
$unwind$?_grow_capacity@?$ImVector@G@@QEBAHH@Z DD 010d01H
	DD	0220dH
xdata	ENDS
voltbl	SEGMENT
_volmd	DD	0ffffffffH
	DDSymXIndex: 	FLAT:?stb_textedit_key@ImGuiStb@@YAXPEAUImGuiInputTextState@@PEAUSTB_TexteditState@1@H@Z
	DD	020H
	DD	0fb1H
_volmd	DD	0ffffffffH
	DDSymXIndex: 	FLAT:?stb_textedit_find_charpos@ImGuiStb@@YAXPEAUStbFindState@1@PEAUImGuiInputTextState@@HH@Z
	DD	022H
	DD	0273H
_volmd	DD	0ffffffffH
	DDSymXIndex: 	FLAT:?stb_text_redo@ImGuiStb@@YAXPEAUImGuiInputTextState@@PEAUSTB_TexteditState@1@@Z
	DD	01aH
	DD	023bH
_volmd	DD	0ffffffffH
	DDSymXIndex: 	FLAT:?stb_text_undo@ImGuiStb@@YAXPEAUImGuiInputTextState@@PEAUSTB_TexteditState@1@@Z
	DD	01aH
	DD	029fH
_volmd	DD	0ffffffffH
	DDSymXIndex: 	FLAT:?stb_textedit_drag@ImGuiStb@@YAXPEAUImGuiInputTextState@@PEAUSTB_TexteditState@1@MM@Z
	DD	024H
	DD	0aeH
_volmd	DD	0ffffffffH
	DDSymXIndex: 	FLAT:?stb_textedit_click@ImGuiStb@@YAXPEAUImGuiInputTextState@@PEAUSTB_TexteditState@1@MM@Z
	DD	024H
	DD	098H
_volmd	DD	0ffffffffH
	DDSymXIndex: 	FLAT:?stb_text_locate_coord@ImGuiStb@@YAHPEAUImGuiInputTextState@@MM@Z
	DD	01fH
	DD	0238H
_volmd	DD	0ffffffffH
	DDSymXIndex: 	FLAT:?ColorEditOptionsPopup@ImGui@@YAXPEBMH@Z
	DD	01aH
	DD	05b9H
_volmd	DD	0ffffffffH
	DDSymXIndex: 	FLAT:?InputScalarAsWidgetReplacement@ImGui@@YA_NAEBUImRect@@IPEBDHPEAX1@Z
	DD	024H
	DD	0181H
_volmd	DD	0ffffffffH
	DDSymXIndex: 	FLAT:?InputFloat4@ImGui@@YA_NPEBDQEAMHH@Z
	DD	024H
	DD	0c3H
_volmd	DD	0ffffffffH
	DDSymXIndex: 	FLAT:?InputFloat3@ImGui@@YA_NPEBDQEAMHH@Z
	DD	024H
	DD	0c3H
_volmd	DD	0ffffffffH
	DDSymXIndex: 	FLAT:?InputFloat2@ImGui@@YA_NPEBDQEAMHH@Z
	DD	024H
	DD	0c3H
_volmd	DD	0ffffffffH
	DDSymXIndex: 	FLAT:?InputFloat@ImGui@@YA_NPEBDPEAMMMHH@Z
	DD	026H
	DD	0b4H
_volmd	DD	0ffffffffH
	DDSymXIndex: 	FLAT:?Value@ImGui@@YAXPEBDM0@Z
	DD	01eH
	DD	098H
_volmd	DD	0ffffffffH
	DDSymXIndex: 	FLAT:?ColorPicker4@ImGui@@YA_NPEBDQEAMHPEBM@Z
	DD	025H
	DD	0243fH
_volmd	DD	0ffffffffH
	DDSymXIndex: 	FLAT:?ColorPicker3@ImGui@@YA_NPEBDQEAMH@Z
	DD	01dH
	DD	010aH
_volmd	DD	0ffffffffH
	DDSymXIndex: 	FLAT:?ColorEdit4@ImGui@@YA_NPEBDQEAMH@Z
	DD	022H
	DD	016b6H
_volmd	DD	0ffffffffH
	DDSymXIndex: 	FLAT:?InputScalar@ImGui@@YA_NPEBDHPEAXPEBX20H@Z
	DD	024H
	DD	0448H
_volmd	DD	0ffffffffH
	DDSymXIndex: 	FLAT:?VSliderScalar@ImGui@@YA_NPEBDAEBUImVec2@@HPEAXPEBX30M@Z
	DD	025H
	DD	05adH
_volmd	DD	0ffffffffH
	DDSymXIndex: 	FLAT:?SliderScalar@ImGui@@YA_NPEBDHPEAXPEBX20M_N@Z
	DD	024H
	DD	0ea6H
_volmd	DD	0ffffffffH
	DDSymXIndex: 	FLAT:?DragScalar@ImGui@@YA_NPEBDHPEAXMPEBX20M@Z
	DD	025H
	DD	0641H
_volmd	DD	0ffffffffH
	DDSymXIndex: 	FLAT:?MultiCombo@ImGui@@YAXPEBDQEA_NQEAPEBDH@Z
	DD	025H
	DD	0214H
_volmd	DD	0ffffffffH
	DDSymXIndex: 	FLAT:?BeginCombo@ImGui@@YA_NPEBD0H@Z
	DD	020H
	DD	09beH
_volmd	DD	0ffffffffH
	DDSymXIndex: 	FLAT:?ProgressBar@ImGui@@YAXMAEBUImVec2@@PEBD@Z
	DD	021H
	DD	03f7H
_volmd	DD	0ffffffffH
	DDSymXIndex: 	FLAT:?Checkbox2@ImGui@@YA_NPEBDPEAH@Z
	DD	01dH
	DD	0184fH
voltbl	ENDS
xdata	SEGMENT
$unwind$?Separator@ImGui@@YAXXZ DD 020701H
	DD	0170107H
$unwind$?NewLine@ImGui@@YAXXZ DD 010401H
	DD	0a204H
$unwind$?Spacing@ImGui@@YAXXZ DD 010401H
	DD	06204H
$unwind$?Dummy@ImGui@@YAXAEBUImVec2@@@Z DD 010901H
	DD	08209H
$unwind$?AlignTextToFramePadding@ImGui@@YAXXZ DD 010401H
	DD	06204H
$unwind$?TextUnformatted@ImGui@@YAXPEBD0@Z DD 041301H
	DD	0250113H
	DD	0600b700cH
$unwind$?TextUnformatted2@ImGui@@YAXPEBD0@Z DD 041301H
	DD	0270113H
	DD	0600b700cH
$unwind$?Text@ImGui@@YAXPEBDZZ DD 011801H
	DD	06218H
