; Listing generated by Microsoft (R) Optimizing Compiler Version 19.43.34810.0 

include listing.inc

INCLUDELIB LIBCMT
INCLUDELIB OLDNAMES

PUBLIC	??_C@_06GLKGGCJO@LcOpen@			; `string'
PUBLIC	??_C@_06GJPHNGFG@LcRead@			; `string'
PUBLIC	??_C@_0O@CBBNAKKC@LcReadScatter@		; `string'
PUBLIC	??_C@_07MBHEMNEL@LcWrite@			; `string'
PUBLIC	??_C@_0P@DAJMPOFM@LcWriteScatter@		; `string'
PUBLIC	??_C@_0M@HBBFEIGD@LcGetOption@			; `string'
PUBLIC	??_C@_0M@FPFAGJPB@LcSetOption@			; `string'
PUBLIC	??_C@_09DCHLEDFD@LcCommand@			; `string'
PUBLIC	??_C@_03HPADHAHE@N?1A@				; `string'
PUBLIC	??_C@_03HDGGCCPD@X86@				; `string'
PUBLIC	??_C@_06IDLKBMKC@X86PAE@			; `string'
PUBLIC	??_C@_03ELMOGNHL@X64@				; `string'
PUBLIC	??_C@_05DKFIPBAL@ARM64@				; `string'
PUBLIC	??_C@_04PCJGBDOP@Zero@				; `string'
PUBLIC	??_C@_04HJMOFLDF@Free@				; `string'
PUBLIC	??_C@_07LNBDIIPN@Standby@			; `string'
PUBLIC	??_C@_07PFEKAJBJ@Modifiy@			; `string'
PUBLIC	??_C@_07DGKCKENG@ModNoWr@			; `string'
PUBLIC	??_C@_03KHCCLPOB@Bad@				; `string'
PUBLIC	??_C@_06MAFFGDO@Active@				; `string'
PUBLIC	??_C@_07KADDEKFE@Transit@			; `string'
PUBLIC	??_C@_01JOAMLHOP@?9@				; `string'
PUBLIC	??_C@_06CGLFEPBO@Unused@			; `string'
PUBLIC	??_C@_08LBAJPEDB@ProcPriv@			; `string'
PUBLIC	??_C@_09BGPMMIPE@PageTable@			; `string'
PUBLIC	??_C@_09MFCNICMF@LargePage@			; `string'
PUBLIC	??_C@_0L@DHBAIELD@DriverLock@			; `string'
PUBLIC	??_C@_09PKFILKGD@Shareable@			; `string'
PUBLIC	??_C@_04PBAHLACE@File@				; `string'
PUBLIC	_Avx2WmemEnabledWeakValue
;	COMDAT _Avx2WmemEnabledWeakValue
_BSS	SEGMENT
_Avx2WmemEnabledWeakValue DD 01H DUP (?)
_BSS	ENDS
;	COMDAT ??_C@_04PBAHLACE@File@
CONST	SEGMENT
??_C@_04PBAHLACE@File@ DB 'File', 00H			; `string'
CONST	ENDS
;	COMDAT ??_C@_09PKFILKGD@Shareable@
CONST	SEGMENT
??_C@_09PKFILKGD@Shareable@ DB 'Shareable', 00H		; `string'
CONST	ENDS
;	COMDAT ??_C@_0L@DHBAIELD@DriverLock@
CONST	SEGMENT
??_C@_0L@DHBAIELD@DriverLock@ DB 'DriverLock', 00H	; `string'
CONST	ENDS
;	COMDAT ??_C@_09MFCNICMF@LargePage@
CONST	SEGMENT
??_C@_09MFCNICMF@LargePage@ DB 'LargePage', 00H		; `string'
CONST	ENDS
;	COMDAT ??_C@_09BGPMMIPE@PageTable@
CONST	SEGMENT
??_C@_09BGPMMIPE@PageTable@ DB 'PageTable', 00H		; `string'
CONST	ENDS
;	COMDAT ??_C@_08LBAJPEDB@ProcPriv@
CONST	SEGMENT
??_C@_08LBAJPEDB@ProcPriv@ DB 'ProcPriv', 00H		; `string'
CONST	ENDS
;	COMDAT ??_C@_06CGLFEPBO@Unused@
CONST	SEGMENT
??_C@_06CGLFEPBO@Unused@ DB 'Unused', 00H		; `string'
CONST	ENDS
;	COMDAT ??_C@_01JOAMLHOP@?9@
CONST	SEGMENT
??_C@_01JOAMLHOP@?9@ DB '-', 00H			; `string'
CONST	ENDS
;	COMDAT ??_C@_07KADDEKFE@Transit@
CONST	SEGMENT
??_C@_07KADDEKFE@Transit@ DB 'Transit', 00H		; `string'
CONST	ENDS
;	COMDAT ??_C@_06MAFFGDO@Active@
CONST	SEGMENT
??_C@_06MAFFGDO@Active@ DB 'Active', 00H		; `string'
CONST	ENDS
;	COMDAT ??_C@_03KHCCLPOB@Bad@
CONST	SEGMENT
??_C@_03KHCCLPOB@Bad@ DB 'Bad', 00H			; `string'
CONST	ENDS
;	COMDAT ??_C@_07DGKCKENG@ModNoWr@
CONST	SEGMENT
??_C@_07DGKCKENG@ModNoWr@ DB 'ModNoWr', 00H		; `string'
CONST	ENDS
;	COMDAT ??_C@_07PFEKAJBJ@Modifiy@
CONST	SEGMENT
??_C@_07PFEKAJBJ@Modifiy@ DB 'Modifiy', 00H		; `string'
CONST	ENDS
;	COMDAT ??_C@_07LNBDIIPN@Standby@
CONST	SEGMENT
??_C@_07LNBDIIPN@Standby@ DB 'Standby', 00H		; `string'
CONST	ENDS
;	COMDAT ??_C@_04HJMOFLDF@Free@
CONST	SEGMENT
??_C@_04HJMOFLDF@Free@ DB 'Free', 00H			; `string'
CONST	ENDS
;	COMDAT ??_C@_04PCJGBDOP@Zero@
CONST	SEGMENT
??_C@_04PCJGBDOP@Zero@ DB 'Zero', 00H			; `string'
CONST	ENDS
;	COMDAT ??_C@_05DKFIPBAL@ARM64@
CONST	SEGMENT
??_C@_05DKFIPBAL@ARM64@ DB 'ARM64', 00H			; `string'
CONST	ENDS
;	COMDAT ??_C@_03ELMOGNHL@X64@
CONST	SEGMENT
??_C@_03ELMOGNHL@X64@ DB 'X64', 00H			; `string'
CONST	ENDS
;	COMDAT ??_C@_06IDLKBMKC@X86PAE@
CONST	SEGMENT
??_C@_06IDLKBMKC@X86PAE@ DB 'X86PAE', 00H		; `string'
CONST	ENDS
;	COMDAT ??_C@_03HDGGCCPD@X86@
CONST	SEGMENT
??_C@_03HDGGCCPD@X86@ DB 'X86', 00H			; `string'
CONST	ENDS
;	COMDAT ??_C@_03HPADHAHE@N?1A@
CONST	SEGMENT
??_C@_03HPADHAHE@N?1A@ DB 'N/A', 00H			; `string'
CONST	ENDS
;	COMDAT ??_C@_09DCHLEDFD@LcCommand@
CONST	SEGMENT
??_C@_09DCHLEDFD@LcCommand@ DB 'LcCommand', 00H		; `string'
CONST	ENDS
;	COMDAT ??_C@_0M@FPFAGJPB@LcSetOption@
CONST	SEGMENT
??_C@_0M@FPFAGJPB@LcSetOption@ DB 'LcSetOption', 00H	; `string'
CONST	ENDS
;	COMDAT ??_C@_0M@HBBFEIGD@LcGetOption@
CONST	SEGMENT
??_C@_0M@HBBFEIGD@LcGetOption@ DB 'LcGetOption', 00H	; `string'
CONST	ENDS
;	COMDAT ??_C@_0P@DAJMPOFM@LcWriteScatter@
CONST	SEGMENT
??_C@_0P@DAJMPOFM@LcWriteScatter@ DB 'LcWriteScatter', 00H ; `string'
CONST	ENDS
;	COMDAT ??_C@_07MBHEMNEL@LcWrite@
CONST	SEGMENT
??_C@_07MBHEMNEL@LcWrite@ DB 'LcWrite', 00H		; `string'
CONST	ENDS
;	COMDAT ??_C@_0O@CBBNAKKC@LcReadScatter@
CONST	SEGMENT
??_C@_0O@CBBNAKKC@LcReadScatter@ DB 'LcReadScatter', 00H ; `string'
CONST	ENDS
;	COMDAT ??_C@_06GJPHNGFG@LcRead@
CONST	SEGMENT
??_C@_06GJPHNGFG@LcRead@ DB 'LcRead', 00H		; `string'
CONST	ENDS
;	COMDAT ??_C@_06GLKGGCJO@LcOpen@
CONST	SEGMENT
??_C@_06GLKGGCJO@LcOpen@ DB 'LcOpen', 00H		; `string'
CONST	ENDS
PUBLIC	??_H@YAXPEAX_K1P6APEAX0@Z@Z			; `vector constructor iterator'
PUBLIC	__local_stdio_printf_options
PUBLIC	_vsprintf_s_l
PUBLIC	vsprintf_s
PUBLIC	??0WSInit@detail@httplib@@QEAA@XZ		; httplib::detail::WSInit::WSInit
PUBLIC	??1WSInit@detail@httplib@@QEAA@XZ		; httplib::detail::WSInit::~WSInit
PUBLIC	??0SSLInit@detail@httplib@@QEAA@XZ		; httplib::detail::SSLInit::SSLInit
PUBLIC	?MakeVectorRegister@Math@Core@IronMan@@YA?AT__m128@@IIII@Z ; IronMan::Core::Math::MakeVectorRegister
PUBLIC	?MakeVectorRegister@Math@Core@IronMan@@YA?AT__m128@@MMMM@Z ; IronMan::Core::Math::MakeVectorRegister
PUBLIC	??A?$ImVector@UImDrawCmd@@@@QEBAAEBUImDrawCmd@@H@Z ; ImVector<ImDrawCmd>::operator[]
PUBLIC	?ImGui_ImplDX11_Init@@YA_NPEAUID3D11Device@@PEAUID3D11DeviceContext@@@Z ; ImGui_ImplDX11_Init
PUBLIC	?ImGui_ImplDX11_Shutdown@@YAXXZ			; ImGui_ImplDX11_Shutdown
PUBLIC	?ImGui_ImplDX11_NewFrame@@YAXXZ			; ImGui_ImplDX11_NewFrame
PUBLIC	?ImGui_ImplDX11_RenderDrawData@@YAXPEAUImDrawData@@@Z ; ImGui_ImplDX11_RenderDrawData
PUBLIC	?ImGui_ImplDX11_InvalidateDeviceObjects@@YAXXZ	; ImGui_ImplDX11_InvalidateDeviceObjects
PUBLIC	?ImGui_ImplDX11_CreateDeviceObjects@@YA_NXZ	; ImGui_ImplDX11_CreateDeviceObjects
PUBLIC	??$sprintf_s@$0BAA@@@YAHAEAY0BAA@DPEBDZZ	; sprintf_s<256>
PUBLIC	??$IID_PPV_ARGS_Helper@UIDXGIDevice@@@@YAPEAPEAXPEAPEAUIDXGIDevice@@@Z ; IID_PPV_ARGS_Helper<IDXGIDevice>
PUBLIC	??$IID_PPV_ARGS_Helper@UIDXGIAdapter@@@@YAPEAPEAXPEAPEAUIDXGIAdapter@@@Z ; IID_PPV_ARGS_Helper<IDXGIAdapter>
PUBLIC	??$IID_PPV_ARGS_Helper@UIDXGIFactory@@@@YAPEAPEAXPEAPEAUIDXGIFactory@@@Z ; IID_PPV_ARGS_Helper<IDXGIFactory>
PUBLIC	??$?0$0A@@id@locale@std@@QEAA@XZ		; std::locale::id::id<0>
PUBLIC	?_OptionsStorage@?1??__local_stdio_printf_options@@9@4_KA ; `__local_stdio_printf_options'::`2'::_OptionsStorage
PUBLIC	??_C@_0BF@JFNDNALH@Failed?$CB?5HResult?5?3?5?$CFx@ ; `string'
PUBLIC	??_C@_0CNO@BDFPHIBE@cbuffer?5vertexBuffer?5?3?5register@ ; `string'
PUBLIC	??_C@_0BJC@PEIKANGF@struct?5PS_INPUT?5?5?5?5?5?5?5?5?5?5?5?5?$HL?5?5?5@ ; `string'
PUBLIC	??_C@_06BNDBNCGN@vs_4_0@			; `string'
PUBLIC	??_C@_04GHJNJNPO@main@				; `string'
PUBLIC	??_C@_08JPMAAECC@POSITION@			; `string'
PUBLIC	??_C@_08CMDKBPJM@TEXCOORD@			; `string'
PUBLIC	??_C@_05DPNLPLKI@COLOR@				; `string'
PUBLIC	??_C@_06HOOBOHFH@ps_4_0@			; `string'
PUBLIC	_GUID_54ec77fa_1377_44e6_8c32_88fd5f44c84c
PUBLIC	_GUID_2411e7e1_12ac_4ccf_bd14_9798e8534dc0
PUBLIC	_GUID_7b7166ec_21c7_44ae_b21a_c9ae321ae369
PUBLIC	??_C@_01HIHLOKLC@1@				; `string'
PUBLIC	?id@?$num_put@DV?$ostreambuf_iterator@DU?$char_traits@D@std@@@std@@@std@@2V0locale@2@A ; std::num_put<char,std::ostreambuf_iterator<char,std::char_traits<char> > >::id
PUBLIC	?id@?$codecvt@DDU_Mbstatet@@@std@@2V0locale@2@A	; std::codecvt<char,char,_Mbstatet>::id
PUBLIC	?id@?$numpunct@D@std@@2V0locale@2@A		; std::numpunct<char>::id
PUBLIC	?id@?$collate@D@std@@2V0locale@2@A		; std::collate<char>::id
PUBLIC	__real@3f000000
PUBLIC	__real@3f800000
PUBLIC	__real@40000000
PUBLIC	__real@bf800000
EXTRN	atexit:PROC
EXTRN	__stdio_common_vsprintf_s:PROC
EXTRN	memcpy:PROC
EXTRN	memset:PROC
EXTRN	strlen:PROC
EXTRN	__imp_GetCurrentProcess:PROC
EXTRN	__imp_TerminateProcess:PROC
EXTRN	__imp_MessageBoxA:PROC
EXTRN	__imp_WSAStartup:PROC
EXTRN	__imp_WSACleanup:PROC
EXTRN	OPENSSL_init_ssl:PROC
EXTRN	?GetIO@ImGui@@YAAEAUImGuiIO@@XZ:PROC		; ImGui::GetIO
EXTRN	?GetTexDataAsRGBA32@ImFontAtlas@@QEAAXPEAPEAEPEAH11@Z:PROC ; ImFontAtlas::GetTexDataAsRGBA32
EXTRN	D3DCompile:PROC
EXTRN	__CxxFrameHandler4:PROC
EXTRN	__GSHandlerCheck:PROC
EXTRN	__chkstk:PROC
EXTRN	__security_check_cookie:PROC
EXTRN	__security_cookie:QWORD
EXTRN	_fltused:DWORD
;	COMDAT ?_OptionsStorage@?1??__local_stdio_printf_options@@9@4_KA
_BSS	SEGMENT
?_OptionsStorage@?1??__local_stdio_printf_options@@9@4_KA DQ 01H DUP (?) ; `__local_stdio_printf_options'::`2'::_OptionsStorage
_BSS	ENDS
_BSS	SEGMENT
?wsinit_@detail@httplib@@3VWSInit@12@A DB 01H DUP (?)	; httplib::detail::wsinit_
	ALIGN	4

?sslinit_@detail@httplib@@3VSSLInit@12@A DB 01H DUP (?)	; httplib::detail::sslinit_
	ALIGN	8

?XYZMask@Math@Core@IronMan@@3T__m128@@B DB 010H DUP (?)	; IronMan::Core::Math::XYZMask
?QINV_SIGN_MASK@Math@Core@IronMan@@3T__m128@@B DB 010H DUP (?) ; IronMan::Core::Math::QINV_SIGN_MASK
?g_pd3dDevice@@3PEAUID3D11Device@@EA DQ 01H DUP (?)	; g_pd3dDevice
?g_pd3dDeviceContext@@3PEAUID3D11DeviceContext@@EA DQ 01H DUP (?) ; g_pd3dDeviceContext
?g_pFactory@@3PEAUIDXGIFactory@@EA DQ 01H DUP (?)	; g_pFactory
?g_pVB@@3PEAUID3D11Buffer@@EA DQ 01H DUP (?)		; g_pVB
?g_pIB@@3PEAUID3D11Buffer@@EA DQ 01H DUP (?)		; g_pIB
?g_pVertexShader@@3PEAUID3D11VertexShader@@EA DQ 01H DUP (?) ; g_pVertexShader
?g_pInputLayout@@3PEAUID3D11InputLayout@@EA DQ 01H DUP (?) ; g_pInputLayout
?g_pVertexConstantBuffer@@3PEAUID3D11Buffer@@EA DQ 01H DUP (?) ; g_pVertexConstantBuffer
?g_pPixelShader@@3PEAUID3D11PixelShader@@EA DQ 01H DUP (?) ; g_pPixelShader
?g_pFontSampler@@3PEAUID3D11SamplerState@@EA DQ 01H DUP (?) ; g_pFontSampler
?g_pFontTextureView@@3PEAUID3D11ShaderResourceView@@EA DQ 01H DUP (?) ; g_pFontTextureView
?g_pRasterizerState@@3PEAUID3D11RasterizerState@@EA DQ 01H DUP (?) ; g_pRasterizerState
?g_pBlendState@@3PEAUID3D11BlendState@@EA DQ 01H DUP (?) ; g_pBlendState
?g_pDepthStencilState@@3PEAUID3D11DepthStencilState@@EA DQ 01H DUP (?) ; g_pDepthStencilState
_BSS	ENDS
;	COMDAT ?id@?$num_put@DV?$ostreambuf_iterator@DU?$char_traits@D@std@@@std@@@std@@2V0locale@2@A
_BSS	SEGMENT
?id@?$num_put@DV?$ostreambuf_iterator@DU?$char_traits@D@std@@@std@@@std@@2V0locale@2@A DQ 01H DUP (?) ; std::num_put<char,std::ostreambuf_iterator<char,std::char_traits<char> > >::id
_BSS	ENDS
;	COMDAT ?id@?$codecvt@DDU_Mbstatet@@@std@@2V0locale@2@A
_BSS	SEGMENT
?id@?$codecvt@DDU_Mbstatet@@@std@@2V0locale@2@A DQ 01H DUP (?) ; std::codecvt<char,char,_Mbstatet>::id
_BSS	ENDS
;	COMDAT ?id@?$numpunct@D@std@@2V0locale@2@A
_BSS	SEGMENT
?id@?$numpunct@D@std@@2V0locale@2@A DQ 01H DUP (?)	; std::numpunct<char>::id
_BSS	ENDS
;	COMDAT ?id@?$collate@D@std@@2V0locale@2@A
_BSS	SEGMENT
?id@?$collate@D@std@@2V0locale@2@A DQ 01H DUP (?)	; std::collate<char>::id
_BSS	ENDS
;	COMDAT pdata
pdata	SEGMENT
$pdata$??_H@YAXPEAX_K1P6APEAX0@Z@Z DD imagerel $LN5
	DD	imagerel $LN5+102
	DD	imagerel $unwind$??_H@YAXPEAX_K1P6APEAX0@Z@Z
pdata	ENDS
;	COMDAT pdata
pdata	SEGMENT
$pdata$_vsprintf_s_l DD imagerel $LN5
	DD	imagerel $LN5+110
	DD	imagerel $unwind$_vsprintf_s_l
pdata	ENDS
;	COMDAT pdata
pdata	SEGMENT
$pdata$vsprintf_s DD imagerel $LN3
	DD	imagerel $LN3+62
	DD	imagerel $unwind$vsprintf_s
pdata	ENDS
;	COMDAT pdata
pdata	SEGMENT
$pdata$??0WSInit@detail@httplib@@QEAA@XZ DD imagerel $LN4
	DD	imagerel $LN4+103
	DD	imagerel $unwind$??0WSInit@detail@httplib@@QEAA@XZ
pdata	ENDS
;	COMDAT pdata
pdata	SEGMENT
$pdata$??1WSInit@detail@httplib@@QEAA@XZ DD imagerel $LN4
	DD	imagerel $LN4+33
	DD	imagerel $unwind$??1WSInit@detail@httplib@@QEAA@XZ
pdata	ENDS
;	COMDAT pdata
pdata	SEGMENT
$pdata$??__Ewsinit_@detail@httplib@@YAXXZ DD imagerel ??__Ewsinit_@detail@httplib@@YAXXZ
	DD	imagerel ??__Ewsinit_@detail@httplib@@YAXXZ+34
	DD	imagerel $unwind$??__Ewsinit_@detail@httplib@@YAXXZ
pdata	ENDS
;	COMDAT pdata
pdata	SEGMENT
$pdata$??__Fwsinit_@detail@httplib@@YAXXZ DD imagerel ??__Fwsinit_@detail@httplib@@YAXXZ
	DD	imagerel ??__Fwsinit_@detail@httplib@@YAXXZ+22
	DD	imagerel $unwind$??__Fwsinit_@detail@httplib@@YAXXZ
pdata	ENDS
;	COMDAT pdata
pdata	SEGMENT
$pdata$??0SSLInit@detail@httplib@@QEAA@XZ DD imagerel $LN3
	DD	imagerel $LN3+32
	DD	imagerel $unwind$??0SSLInit@detail@httplib@@QEAA@XZ
pdata	ENDS
;	COMDAT pdata
pdata	SEGMENT
$pdata$??__Esslinit_@detail@httplib@@YAXXZ DD imagerel ??__Esslinit_@detail@httplib@@YAXXZ
	DD	imagerel ??__Esslinit_@detail@httplib@@YAXXZ+22
	DD	imagerel $unwind$??__Esslinit_@detail@httplib@@YAXXZ
pdata	ENDS
;	COMDAT pdata
pdata	SEGMENT
$pdata$?MakeVectorRegister@Math@Core@IronMan@@YA?AT__m128@@IIII@Z DD imagerel $LN3
	DD	imagerel $LN3+116
	DD	imagerel $unwind$?MakeVectorRegister@Math@Core@IronMan@@YA?AT__m128@@IIII@Z
pdata	ENDS
;	COMDAT pdata
pdata	SEGMENT
$pdata$?MakeVectorRegister@Math@Core@IronMan@@YA?AT__m128@@MMMM@Z DD imagerel $LN3
	DD	imagerel $LN3+77
	DD	imagerel $unwind$?MakeVectorRegister@Math@Core@IronMan@@YA?AT__m128@@MMMM@Z
pdata	ENDS
;	COMDAT pdata
pdata	SEGMENT
$pdata$??__EXYZMask@Math@Core@IronMan@@YAXXZ DD imagerel ??__EXYZMask@Math@Core@IronMan@@YAXXZ
	DD	imagerel ??__EXYZMask@Math@Core@IronMan@@YAXXZ+40
	DD	imagerel $unwind$??__EXYZMask@Math@Core@IronMan@@YAXXZ
pdata	ENDS
;	COMDAT pdata
pdata	SEGMENT
$pdata$??__EQINV_SIGN_MASK@Math@Core@IronMan@@YAXXZ DD imagerel ??__EQINV_SIGN_MASK@Math@Core@IronMan@@YAXXZ
	DD	imagerel ??__EQINV_SIGN_MASK@Math@Core@IronMan@@YAXXZ+53
	DD	imagerel $unwind$??__EQINV_SIGN_MASK@Math@Core@IronMan@@YAXXZ
pdata	ENDS
pdata	SEGMENT
$pdata$?ImGui_ImplDX11_Init@@YA_NPEAUID3D11Device@@PEAUID3D11DeviceContext@@@Z DD imagerel $LN8
	DD	imagerel $LN8+349
	DD	imagerel $unwind$?ImGui_ImplDX11_Init@@YA_NPEAUID3D11Device@@PEAUID3D11DeviceContext@@@Z
$pdata$?ImGui_ImplDX11_Shutdown@@YAXXZ DD imagerel $LN4
	DD	imagerel $LN4+78
	DD	imagerel $unwind$?ImGui_ImplDX11_Shutdown@@YAXXZ
$pdata$?ImGui_ImplDX11_NewFrame@@YAXXZ DD imagerel $LN4
	DD	imagerel $LN4+25
	DD	imagerel $unwind$?ImGui_ImplDX11_NewFrame@@YAXXZ
$pdata$?ImGui_ImplDX11_RenderDrawData@@YAXPEAUImDrawData@@@Z DD imagerel $LN44
	DD	imagerel $LN44+5017
	DD	imagerel $unwind$?ImGui_ImplDX11_RenderDrawData@@YAXPEAUImDrawData@@@Z
$pdata$?ImGui_ImplDX11_InvalidateDeviceObjects@@YAXXZ DD imagerel $LN15
	DD	imagerel $LN15+495
	DD	imagerel $unwind$?ImGui_ImplDX11_InvalidateDeviceObjects@@YAXXZ
$pdata$?ImGui_ImplDX11_CreateDeviceObjects@@YA_NXZ DD imagerel $LN10
	DD	imagerel $LN10+1756
	DD	imagerel $unwind$?ImGui_ImplDX11_CreateDeviceObjects@@YA_NXZ
$pdata$?ImGui_ImplDX11_CreateFontsTexture@@YAXXZ DD imagerel ?ImGui_ImplDX11_CreateFontsTexture@@YAXXZ
	DD	imagerel ?ImGui_ImplDX11_CreateFontsTexture@@YAXXZ+731
	DD	imagerel $unwind$?ImGui_ImplDX11_CreateFontsTexture@@YAXXZ
pdata	ENDS
;	COMDAT pdata
pdata	SEGMENT
$pdata$??$sprintf_s@$0BAA@@@YAHAEAY0BAA@DPEBDZZ DD imagerel $LN3
	DD	imagerel $LN3+65
	DD	imagerel $unwind$??$sprintf_s@$0BAA@@@YAHAEAY0BAA@DPEBDZZ
pdata	ENDS
;	COMDAT pdata
pdata	SEGMENT
$pdata$??__E?id@?$codecvt@DDU_Mbstatet@@@std@@2V0locale@2@A@@YAXXZ DD imagerel ??__E?id@?$codecvt@DDU_Mbstatet@@@std@@2V0locale@2@A@@YAXXZ
	DD	imagerel ??__E?id@?$codecvt@DDU_Mbstatet@@@std@@2V0locale@2@A@@YAXXZ+22
	DD	imagerel $unwind$??__E?id@?$codecvt@DDU_Mbstatet@@@std@@2V0locale@2@A@@YAXXZ
pdata	ENDS
;	COMDAT pdata
pdata	SEGMENT
$pdata$??__E?id@?$num_put@DV?$ostreambuf_iterator@DU?$char_traits@D@std@@@std@@@std@@2V0locale@2@A@@YAXXZ DD imagerel ??__E?id@?$num_put@DV?$ostreambuf_iterator@DU?$char_traits@D@std@@@std@@@std@@2V0locale@2@A@@YAXXZ
	DD	imagerel ??__E?id@?$num_put@DV?$ostreambuf_iterator@DU?$char_traits@D@std@@@std@@@std@@2V0locale@2@A@@YAXXZ+22
	DD	imagerel $unwind$??__E?id@?$num_put@DV?$ostreambuf_iterator@DU?$char_traits@D@std@@@std@@@std@@2V0locale@2@A@@YAXXZ
pdata	ENDS
;	COMDAT pdata
pdata	SEGMENT
$pdata$??__E?id@?$collate@D@std@@2V0locale@2@A@@YAXXZ DD imagerel ??__E?id@?$collate@D@std@@2V0locale@2@A@@YAXXZ
	DD	imagerel ??__E?id@?$collate@D@std@@2V0locale@2@A@@YAXXZ+22
	DD	imagerel $unwind$??__E?id@?$collate@D@std@@2V0locale@2@A@@YAXXZ
pdata	ENDS
;	COMDAT pdata
pdata	SEGMENT
$pdata$??__E?id@?$numpunct@D@std@@2V0locale@2@A@@YAXXZ DD imagerel ??__E?id@?$numpunct@D@std@@2V0locale@2@A@@YAXXZ
	DD	imagerel ??__E?id@?$numpunct@D@std@@2V0locale@2@A@@YAXXZ+22
	DD	imagerel $unwind$??__E?id@?$numpunct@D@std@@2V0locale@2@A@@YAXXZ
pdata	ENDS
CRT$XCU	SEGMENT
?wsinit_$initializer$@detail@httplib@@3P6AXXZEA DQ FLAT:??__Ewsinit_@detail@httplib@@YAXXZ ; httplib::detail::wsinit_$initializer$
CRT$XCU	ENDS
;	COMDAT __real@bf800000
CONST	SEGMENT
__real@bf800000 DD 0bf800000r			; -1
CONST	ENDS
;	COMDAT __real@40000000
CONST	SEGMENT
__real@40000000 DD 040000000r			; 2
CONST	ENDS
;	COMDAT __real@3f800000
CONST	SEGMENT
__real@3f800000 DD 03f800000r			; 1
CONST	ENDS
;	COMDAT __real@3f000000
CONST	SEGMENT
__real@3f000000 DD 03f000000r			; 0.5
CONST	ENDS
;	COMDAT ??_C@_01HIHLOKLC@1@
CONST	SEGMENT
??_C@_01HIHLOKLC@1@ DB '1', 00H				; `string'
CONST	ENDS
;	COMDAT _GUID_7b7166ec_21c7_44ae_b21a_c9ae321ae369
CONST	SEGMENT
_GUID_7b7166ec_21c7_44ae_b21a_c9ae321ae369 DD 07b7166ecH
	DW	021c7H
	DW	044aeH
	DB	0b2H
	DB	01aH
	DB	0c9H
	DB	0aeH
	DB	032H
	DB	01aH
	DB	0e3H
	DB	069H
CONST	ENDS
;	COMDAT _GUID_2411e7e1_12ac_4ccf_bd14_9798e8534dc0
CONST	SEGMENT
_GUID_2411e7e1_12ac_4ccf_bd14_9798e8534dc0 DD 02411e7e1H
	DW	012acH
	DW	04ccfH
	DB	0bdH
	DB	014H
	DB	097H
	DB	098H
	DB	0e8H
	DB	053H
	DB	04dH
	DB	0c0H
CONST	ENDS
;	COMDAT _GUID_54ec77fa_1377_44e6_8c32_88fd5f44c84c
CONST	SEGMENT
_GUID_54ec77fa_1377_44e6_8c32_88fd5f44c84c DD 054ec77faH
	DW	01377H
	DW	044e6H
	DB	08cH
	DB	032H
	DB	088H
	DB	0fdH
	DB	05fH
	DB	044H
	DB	0c8H
	DB	04cH
CONST	ENDS
;	COMDAT ??_C@_06HOOBOHFH@ps_4_0@
CONST	SEGMENT
??_C@_06HOOBOHFH@ps_4_0@ DB 'ps_4_0', 00H		; `string'
CONST	ENDS
;	COMDAT ??_C@_05DPNLPLKI@COLOR@
CONST	SEGMENT
??_C@_05DPNLPLKI@COLOR@ DB 'COLOR', 00H			; `string'
CONST	ENDS
;	COMDAT ??_C@_08CMDKBPJM@TEXCOORD@
CONST	SEGMENT
??_C@_08CMDKBPJM@TEXCOORD@ DB 'TEXCOORD', 00H		; `string'
CONST	ENDS
;	COMDAT ??_C@_08JPMAAECC@POSITION@
CONST	SEGMENT
??_C@_08JPMAAECC@POSITION@ DB 'POSITION', 00H		; `string'
CONST	ENDS
;	COMDAT ??_C@_04GHJNJNPO@main@
CONST	SEGMENT
??_C@_04GHJNJNPO@main@ DB 'main', 00H			; `string'
CONST	ENDS
;	COMDAT ??_C@_06BNDBNCGN@vs_4_0@
CONST	SEGMENT
??_C@_06BNDBNCGN@vs_4_0@ DB 'vs_4_0', 00H		; `string'
CONST	ENDS
;	COMDAT ??_C@_0BJC@PEIKANGF@struct?5PS_INPUT?5?5?5?5?5?5?5?5?5?5?5?5?$HL?5?5?5@
CONST	SEGMENT
??_C@_0BJC@PEIKANGF@struct?5PS_INPUT?5?5?5?5?5?5?5?5?5?5?5?5?$HL?5?5?5@ DB 's'
	DB	'truct PS_INPUT            {            float4 pos : SV_POSITI'
	DB	'ON;            float4 col : COLOR0;            float2 uv  : T'
	DB	'EXCOORD0;            };            sampler sampler0;         '
	DB	'   Texture2D texture0;                        float4 main(PS_'
	DB	'INPUT input) : SV_Target            {            float4 out_c'
	DB	'ol = input.col * texture0.Sample(sampler0, input.uv);        '
	DB	'     return out_col;             }', 00H	; `string'
CONST	ENDS
;	COMDAT ?pixelShader@?BB@??ImGui_ImplDX11_CreateDeviceObjects@@YA_NXZ@4PEBDEB
_DATA	SEGMENT
?pixelShader@?BB@??ImGui_ImplDX11_CreateDeviceObjects@@YA_NXZ@4PEBDEB DQ FLAT:??_C@_0BJC@PEIKANGF@struct?5PS_INPUT?5?5?5?5?5?5?5?5?5?5?5?5?$HL?5?5?5@ ; `ImGui_ImplDX11_CreateDeviceObjects'::`17'::pixelShader
_DATA	ENDS
;	COMDAT ??_C@_0CNO@BDFPHIBE@cbuffer?5vertexBuffer?5?3?5register@
CONST	SEGMENT
??_C@_0CNO@BDFPHIBE@cbuffer?5vertexBuffer?5?3?5register@ DB 'cbuffer vert'
	DB	'exBuffer : register(b0)             {              float4x4 P'
	DB	'rojectionMatrix;             };            struct VS_INPUT   '
	DB	'         {              float2 pos : POSITION;              f'
	DB	'loat4 col : COLOR0;              float2 uv  : TEXCOORD0;     '
	DB	'       };                        struct PS_INPUT            {'
	DB	'              float4 pos : SV_POSITION;              float4 c'
	DB	'ol : COLOR0;              float2 uv  : TEXCOORD0;            '
	DB	'};                        PS_INPUT main(VS_INPUT input)      '
	DB	'      {              PS_INPUT output;              output.pos'
	DB	' = mul( ProjectionMatrix, float4(input.pos.xy, 0.f, 1.f));   '
	DB	'           output.col = input.col;              output.uv  = '
	DB	'input.uv;              return output;            }', 00H ; `string'
CONST	ENDS
;	COMDAT ?vertexShader@?6??ImGui_ImplDX11_CreateDeviceObjects@@YA_NXZ@4PEBDEB
_DATA	SEGMENT
?vertexShader@?6??ImGui_ImplDX11_CreateDeviceObjects@@YA_NXZ@4PEBDEB DQ FLAT:??_C@_0CNO@BDFPHIBE@cbuffer?5vertexBuffer?5?3?5register@ ; `ImGui_ImplDX11_CreateDeviceObjects'::`7'::vertexShader
_DATA	ENDS
;	COMDAT ??_C@_0BF@JFNDNALH@Failed?$CB?5HResult?5?3?5?$CFx@
CONST	SEGMENT
??_C@_0BF@JFNDNALH@Failed?$CB?5HResult?5?3?5?$CFx@ DB 'Failed! HResult : '
	DB	'%x', 00H					; `string'
CONST	ENDS
_DATA	SEGMENT
?g_VertexBufferSize@@3HA DD 01388H			; g_VertexBufferSize
?g_IndexBufferSize@@3HA DD 02710H			; g_IndexBufferSize
_DATA	ENDS
;	COMDAT xdata
xdata	SEGMENT
$unwind$??__E?id@?$numpunct@D@std@@2V0locale@2@A@@YAXXZ DD 010401H
	DD	04204H
xdata	ENDS
;	COMDAT xdata
xdata	SEGMENT
$unwind$??__E?id@?$collate@D@std@@2V0locale@2@A@@YAXXZ DD 010401H
	DD	04204H
xdata	ENDS
;	COMDAT xdata
xdata	SEGMENT
$unwind$??__E?id@?$num_put@DV?$ostreambuf_iterator@DU?$char_traits@D@std@@@std@@@std@@2V0locale@2@A@@YAXXZ DD 010401H
	DD	04204H
xdata	ENDS
;	COMDAT xdata
xdata	SEGMENT
$unwind$??__E?id@?$codecvt@DDU_Mbstatet@@@std@@2V0locale@2@A@@YAXXZ DD 010401H
	DD	04204H
xdata	ENDS
;	COMDAT xdata
xdata	SEGMENT
$ip2state$??$sprintf_s@$0BAA@@@YAHAEAY0BAA@DPEBDZZ DB 02H
	DB	00H
	DB	00H
xdata	ENDS
;	COMDAT xdata
xdata	SEGMENT
$cppxdata$??$sprintf_s@$0BAA@@@YAHAEAY0BAA@DPEBDZZ DB 040H
	DD	imagerel $ip2state$??$sprintf_s@$0BAA@@@YAHAEAY0BAA@DPEBDZZ
xdata	ENDS
;	COMDAT xdata
xdata	SEGMENT
$unwind$??$sprintf_s@$0BAA@@@YAHAEAY0BAA@DPEBDZZ DD 011819H
	DD	06218H
	DD	imagerel __CxxFrameHandler4
	DD	imagerel $cppxdata$??$sprintf_s@$0BAA@@@YAHAEAY0BAA@DPEBDZZ
xdata	ENDS
voltbl	SEGMENT
_volmd	DD	0ffffffffH
	DDSymXIndex: 	FLAT:?ImGui_ImplDX11_CreateFontsTexture@@YAXXZ
	DD	011H
	DD	02c3H
_volmd	DD	0ffffffffH
	DDSymXIndex: 	FLAT:?ImGui_ImplDX11_CreateDeviceObjects@@YA_NXZ
	DD	014H
	DD	06c2H
_volmd	DD	0ffffffffH
	DDSymXIndex: 	FLAT:?ImGui_ImplDX11_RenderDrawData@@YAXPEAUImDrawData@@@Z
	DD	01cH
	DD	01381H
voltbl	ENDS
xdata	SEGMENT
$unwind$?ImGui_ImplDX11_Init@@YA_NPEAUID3D11Device@@PEAUID3D11DeviceContext@@@Z DD 010e01H
	DD	0e20eH
$unwind$?ImGui_ImplDX11_Shutdown@@YAXXZ DD 010401H
	DD	04204H
$unwind$?ImGui_ImplDX11_NewFrame@@YAXXZ DD 010401H
	DD	04204H
$unwind$?ImGui_ImplDX11_RenderDrawData@@YAXPEAUImDrawData@@@Z DD 022419H
	DD	02cf0112H
	DD	imagerel __GSHandlerCheck
	DD	01660H
$unwind$?ImGui_ImplDX11_InvalidateDeviceObjects@@YAXXZ DD 010401H
	DD	04204H
$unwind$?ImGui_ImplDX11_CreateDeviceObjects@@YA_NXZ DD 041c19H
	DD	05f010aH
	DD	060027003H
	DD	imagerel __GSHandlerCheck
	DD	02e0H
$unwind$?ImGui_ImplDX11_CreateFontsTexture@@YAXXZ DD 021919H
	DD	0450107H
	DD	imagerel __GSHandlerCheck
	DD	0210H
xdata	ENDS
;	COMDAT xdata
xdata	SEGMENT
$unwind$??__EQINV_SIGN_MASK@Math@Core@IronMan@@YAXXZ DD 010401H
	DD	04204H
xdata	ENDS
;	COMDAT xdata
xdata	SEGMENT
$unwind$??__EXYZMask@Math@Core@IronMan@@YAXXZ DD 010401H
	DD	04204H
xdata	ENDS
;	COMDAT xdata
xdata	SEGMENT
$unwind$?MakeVectorRegister@Math@Core@IronMan@@YA?AT__m128@@MMMM@Z DD 011c01H
	DD	0221cH
xdata	ENDS
;	COMDAT voltbl
voltbl	SEGMENT
_volmd	DB	020H
	DB	062H
voltbl	ENDS
;	COMDAT xdata
xdata	SEGMENT
$unwind$?MakeVectorRegister@Math@Core@IronMan@@YA?AT__m128@@IIII@Z DD 012519H
	DD	06216H
	DD	imagerel __GSHandlerCheck
	DD	020H
xdata	ENDS
;	COMDAT xdata
xdata	SEGMENT
$unwind$??__Esslinit_@detail@httplib@@YAXXZ DD 010401H
	DD	04204H
xdata	ENDS
;	COMDAT xdata
xdata	SEGMENT
$unwind$??0SSLInit@detail@httplib@@QEAA@XZ DD 010901H
	DD	04209H
xdata	ENDS
;	COMDAT xdata
xdata	SEGMENT
$unwind$??__Fwsinit_@detail@httplib@@YAXXZ DD 010401H
	DD	04204H
xdata	ENDS
;	COMDAT xdata
xdata	SEGMENT
$unwind$??__Ewsinit_@detail@httplib@@YAXXZ DD 010401H
	DD	04204H
xdata	ENDS
;	COMDAT xdata
xdata	SEGMENT
$ip2state$??1WSInit@detail@httplib@@QEAA@XZ DB 02H
	DB	00H
	DB	00H
xdata	ENDS
;	COMDAT xdata
xdata	SEGMENT
$cppxdata$??1WSInit@detail@httplib@@QEAA@XZ DB 040H
	DD	imagerel $ip2state$??1WSInit@detail@httplib@@QEAA@XZ
xdata	ENDS
;	COMDAT xdata
xdata	SEGMENT
$unwind$??1WSInit@detail@httplib@@QEAA@XZ DD 010919H
	DD	04209H
	DD	imagerel __CxxFrameHandler4
	DD	imagerel $cppxdata$??1WSInit@detail@httplib@@QEAA@XZ
xdata	ENDS
;	COMDAT voltbl
voltbl	SEGMENT
_volmd	DB	016H
	DB	04fH
voltbl	ENDS
;	COMDAT xdata
xdata	SEGMENT
$unwind$??0WSInit@detail@httplib@@QEAA@XZ DD 021e19H
	DD	03b010cH
	DD	imagerel __GSHandlerCheck
	DD	01c0H
xdata	ENDS
;	COMDAT xdata
xdata	SEGMENT
$unwind$vsprintf_s DD 011801H
	DD	06218H
xdata	ENDS
;	COMDAT xdata
xdata	SEGMENT
$unwind$_vsprintf_s_l DD 011801H
	DD	08218H
xdata	ENDS
;	COMDAT xdata
xdata	SEGMENT
$unwind$??_H@YAXPEAX_K1P6APEAX0@Z@Z DD 011801H
	DD	06218H
xdata	ENDS
CRT$XCU	SEGMENT
?sslinit_$initializer$@detail@httplib@@3P6AXXZEA DQ FLAT:??__Esslinit_@detail@httplib@@YAXXZ ; httplib::detail::sslinit_$initializer$
CRT$XCU	ENDS
CRT$XCU	SEGMENT
?XYZMask$initializer$@Math@Core@IronMan@@3P6AXXZEA DQ FLAT:??__EXYZMask@Math@Core@IronMan@@YAXXZ ; IronMan::Core::Math::XYZMask$initializer$
CRT$XCU	ENDS
CRT$XCU	SEGMENT
?QINV_SIGN_MASK$initializer$@Math@Core@IronMan@@3P6AXXZEA DQ FLAT:??__EQINV_SIGN_MASK@Math@Core@IronMan@@YAXXZ ; IronMan::Core::Math::QINV_SIGN_MASK$initializer$
CRT$XCU	ENDS
;	COMDAT CRT$XCU
CRT$XCU	SEGMENT
??id$initializer$@?$codecvt@DDU_Mbstatet@@@std@@2P6AXXZEA@@3P6AXXZEA DQ FLAT:??__E?id@?$codecvt@DDU_Mbstatet@@@std@@2V0locale@2@A@@YAXXZ ; ??id$initializer$@?$codecvt@DDU_Mbstatet@@@std@@2P6AXXZEA@@3P6AXXZEA
CRT$XCU	ENDS
;	COMDAT CRT$XCU
CRT$XCU	SEGMENT
??id$initializer$@?$num_put@DV?$ostreambuf_iterator@DU?$char_traits@D@std@@@std@@@std@@2P6AXXZEA@@3P6AXXZEA DQ FLAT:??__E?id@?$num_put@DV?$ostreambuf_iterator@DU?$char_traits@D@std@@@std@@@std@@2V0locale@2@A@@YAXXZ ; ??id$initializer$@?$num_put@DV?$ostreambuf_iterator@DU?$char_traits@D@std@@@std@@@std@@2P6AXXZEA@@3P6AXXZEA
CRT$XCU	ENDS
;	COMDAT CRT$XCU
CRT$XCU	SEGMENT
??id$initializer$@?$collate@D@std@@2P6AXXZEA@@3P6AXXZEA DQ FLAT:??__E?id@?$collate@D@std@@2V0locale@2@A@@YAXXZ ; ??id$initializer$@?$collate@D@std@@2P6AXXZEA@@3P6AXXZEA
CRT$XCU	ENDS
;	COMDAT CRT$XCU
CRT$XCU	SEGMENT
??id$initializer$@?$numpunct@D@std@@2P6AXXZEA@@3P6AXXZEA DQ FLAT:??__E?id@?$numpunct@D@std@@2V0locale@2@A@@YAXXZ ; ??id$initializer$@?$numpunct@D@std@@2P6AXXZEA@@3P6AXXZEA
CRT$XCU	ENDS
; Function compile flags: /Odtp
; File C:\Program Files\Microsoft Visual Studio\2022\Community\VC\Tools\MSVC\14.43.34808\include\xlocnum
;	COMDAT ??__E?id@?$numpunct@D@std@@2V0locale@2@A@@YAXXZ
text$di	SEGMENT
??__E?id@?$numpunct@D@std@@2V0locale@2@A@@YAXXZ PROC	; `dynamic initializer for 'std::numpunct<char>::id'', COMDAT

; 236  : __PURE_APPDOMAIN_GLOBAL locale::id numpunct<_Elem>::id;

	sub	rsp, 40					; 00000028H
	lea	rcx, OFFSET FLAT:?id@?$numpunct@D@std@@2V0locale@2@A ; std::numpunct<char>::id
	call	??$?0$0A@@id@locale@std@@QEAA@XZ	; std::locale::id::id<0>
	npad	1
	add	rsp, 40					; 00000028H
	ret	0
??__E?id@?$numpunct@D@std@@2V0locale@2@A@@YAXXZ ENDP	; `dynamic initializer for 'std::numpunct<char>::id''
text$di	ENDS
; Function compile flags: /Odtp
; File C:\Program Files\Microsoft Visual Studio\2022\Community\VC\Tools\MSVC\14.43.34808\include\locale
;	COMDAT ??__E?id@?$collate@D@std@@2V0locale@2@A@@YAXXZ
text$di	SEGMENT
??__E?id@?$collate@D@std@@2V0locale@2@A@@YAXXZ PROC	; `dynamic initializer for 'std::collate<char>::id'', COMDAT

; 124  : __PURE_APPDOMAIN_GLOBAL locale::id collate<_Elem>::id;

	sub	rsp, 40					; 00000028H
	lea	rcx, OFFSET FLAT:?id@?$collate@D@std@@2V0locale@2@A ; std::collate<char>::id
	call	??$?0$0A@@id@locale@std@@QEAA@XZ	; std::locale::id::id<0>
	npad	1
	add	rsp, 40					; 00000028H
	ret	0
??__E?id@?$collate@D@std@@2V0locale@2@A@@YAXXZ ENDP	; `dynamic initializer for 'std::collate<char>::id''
text$di	ENDS
; Function compile flags: /Odtp
; File C:\Program Files\Microsoft Visual Studio\2022\Community\VC\Tools\MSVC\14.43.34808\include\xlocnum
;	COMDAT ??__E?id@?$num_put@DV?$ostreambuf_iterator@DU?$char_traits@D@std@@@std@@@std@@2V0locale@2@A@@YAXXZ
text$di	SEGMENT
??__E?id@?$num_put@DV?$ostreambuf_iterator@DU?$char_traits@D@std@@@std@@@std@@2V0locale@2@A@@YAXXZ PROC ; `dynamic initializer for 'std::num_put<char,std::ostreambuf_iterator<char,std::char_traits<char> > >::id'', COMDAT

; 1646 : __PURE_APPDOMAIN_GLOBAL locale::id num_put<_Elem, _OutIt>::id;

	sub	rsp, 40					; 00000028H
	lea	rcx, OFFSET FLAT:?id@?$num_put@DV?$ostreambuf_iterator@DU?$char_traits@D@std@@@std@@@std@@2V0locale@2@A ; std::num_put<char,std::ostreambuf_iterator<char,std::char_traits<char> > >::id
	call	??$?0$0A@@id@locale@std@@QEAA@XZ	; std::locale::id::id<0>
	npad	1
	add	rsp, 40					; 00000028H
	ret	0
??__E?id@?$num_put@DV?$ostreambuf_iterator@DU?$char_traits@D@std@@@std@@@std@@2V0locale@2@A@@YAXXZ ENDP ; `dynamic initializer for 'std::num_put<char,std::ostreambuf_iterator<char,std::char_traits<char> > >::id''
text$di	ENDS
; Function compile flags: /Odtp
; File C:\Program Files\Microsoft Visual Studio\2022\Community\VC\Tools\MSVC\14.43.34808\include\xlocale
;	COMDAT ??__E?id@?$codecvt@DDU_Mbstatet@@@std@@2V0locale@2@A@@YAXXZ
text$di	SEGMENT
??__E?id@?$codecvt@DDU_Mbstatet@@@std@@2V0locale@2@A@@YAXXZ PROC ; `dynamic initializer for 'std::codecvt<char,char,_Mbstatet>::id'', COMDAT

; 809  : __PURE_APPDOMAIN_GLOBAL locale::id codecvt<_Elem, _Byte, _Statype>::id;

	sub	rsp, 40					; 00000028H
	lea	rcx, OFFSET FLAT:?id@?$codecvt@DDU_Mbstatet@@@std@@2V0locale@2@A ; std::codecvt<char,char,_Mbstatet>::id
	call	??$?0$0A@@id@locale@std@@QEAA@XZ	; std::locale::id::id<0>
	npad	1
	add	rsp, 40					; 00000028H
	ret	0
??__E?id@?$codecvt@DDU_Mbstatet@@@std@@2V0locale@2@A@@YAXXZ ENDP ; `dynamic initializer for 'std::codecvt<char,char,_Mbstatet>::id''
text$di	ENDS
; Function compile flags: /Odtp
; File C:\Program Files\Microsoft Visual Studio\2022\Community\VC\Tools\MSVC\14.43.34808\include\xlocale
;	COMDAT ??$?0$0A@@id@locale@std@@QEAA@XZ
_TEXT	SEGMENT
this$ = 8
??$?0$0A@@id@locale@std@@QEAA@XZ PROC			; std::locale::id::id<0>, COMDAT

; 81   :         id() noexcept /* strengthened */ {}

	mov	QWORD PTR [rsp+8], rcx

; 82   : #endif // ^^^ !defined(_CRTBLD) ^^^
; 83   : 
; 84   :         id(const id&)            = delete;
; 85   :         id& operator=(const id&) = delete;
; 86   : 
; 87   :         template <int = 0> // TRANSITION, ABI
; 88   :         size_t _Get_index() { // get stamp, with lazy allocation
; 89   :             if (_Id == 0) { // still zero, allocate stamp
; 90   :                 _BEGIN_LOCK(_LOCK_LOCALE)
; 91   :                 if (_Id == 0) {
; 92   :                     _Id = static_cast<size_t>(++_Id_cnt);
; 93   :                 }
; 94   :                 _END_LOCK()
; 95   :             }
; 96   :             return _Id;
; 97   :         }
; 98   : 
; 99   : #ifdef _CRTBLD // TRANSITION, ABI: preserved for binary compatibility
; 100  :         __CLR_OR_THIS_CALL operator size_t() {
; 101  :             return _Get_index();
; 102  :         }
; 103  : #endif // defined(_CRTBLD)
; 104  : 
; 105  :     private:
; 106  :         size_t _Id = 0; // the identifier stamp

	mov	rax, QWORD PTR this$[rsp]
	mov	QWORD PTR [rax], 0

; 81   :         id() noexcept /* strengthened */ {}

	mov	rax, QWORD PTR this$[rsp]
	ret	0
??$?0$0A@@id@locale@std@@QEAA@XZ ENDP			; std::locale::id::id<0>
_TEXT	ENDS
; Function compile flags: /Odtp
; File C:\Program Files (x86)\Windows Kits\10\Include\10.0.26100.0\um\combaseapi.h
;	COMDAT ??$IID_PPV_ARGS_Helper@UIDXGIFactory@@@@YAPEAPEAXPEAPEAUIDXGIFactory@@@Z
_TEXT	SEGMENT
pp$ = 8
??$IID_PPV_ARGS_Helper@UIDXGIFactory@@@@YAPEAPEAXPEAPEAUIDXGIFactory@@@Z PROC ; IID_PPV_ARGS_Helper<IDXGIFactory>, COMDAT

; 355  :     {

	mov	QWORD PTR [rsp+8], rcx

; 356  : #pragma prefast(suppress: 6269, "Tool issue with unused static_cast")
; 357  :         (void)static_cast<IUnknown*>(*pp);    // make sure everyone derives from IUnknown
; 358  :         return reinterpret_cast<void**>(pp);

	mov	rax, QWORD PTR pp$[rsp]

; 359  :     }

	ret	0
??$IID_PPV_ARGS_Helper@UIDXGIFactory@@@@YAPEAPEAXPEAPEAUIDXGIFactory@@@Z ENDP ; IID_PPV_ARGS_Helper<IDXGIFactory>
_TEXT	ENDS
; Function compile flags: /Odtp
; File C:\Program Files (x86)\Windows Kits\10\Include\10.0.26100.0\um\combaseapi.h
;	COMDAT ??$IID_PPV_ARGS_Helper@UIDXGIAdapter@@@@YAPEAPEAXPEAPEAUIDXGIAdapter@@@Z
_TEXT	SEGMENT
pp$ = 8
??$IID_PPV_ARGS_Helper@UIDXGIAdapter@@@@YAPEAPEAXPEAPEAUIDXGIAdapter@@@Z PROC ; IID_PPV_ARGS_Helper<IDXGIAdapter>, COMDAT

; 355  :     {

	mov	QWORD PTR [rsp+8], rcx

; 356  : #pragma prefast(suppress: 6269, "Tool issue with unused static_cast")
; 357  :         (void)static_cast<IUnknown*>(*pp);    // make sure everyone derives from IUnknown
; 358  :         return reinterpret_cast<void**>(pp);

	mov	rax, QWORD PTR pp$[rsp]

; 359  :     }

	ret	0
??$IID_PPV_ARGS_Helper@UIDXGIAdapter@@@@YAPEAPEAXPEAPEAUIDXGIAdapter@@@Z ENDP ; IID_PPV_ARGS_Helper<IDXGIAdapter>
_TEXT	ENDS
; Function compile flags: /Odtp
; File C:\Program Files (x86)\Windows Kits\10\Include\10.0.26100.0\um\combaseapi.h
;	COMDAT ??$IID_PPV_ARGS_Helper@UIDXGIDevice@@@@YAPEAPEAXPEAPEAUIDXGIDevice@@@Z
_TEXT	SEGMENT
pp$ = 8
??$IID_PPV_ARGS_Helper@UIDXGIDevice@@@@YAPEAPEAXPEAPEAUIDXGIDevice@@@Z PROC ; IID_PPV_ARGS_Helper<IDXGIDevice>, COMDAT

; 355  :     {

	mov	QWORD PTR [rsp+8], rcx

; 356  : #pragma prefast(suppress: 6269, "Tool issue with unused static_cast")
; 357  :         (void)static_cast<IUnknown*>(*pp);    // make sure everyone derives from IUnknown
; 358  :         return reinterpret_cast<void**>(pp);

	mov	rax, QWORD PTR pp$[rsp]

; 359  :     }

	ret	0
??$IID_PPV_ARGS_Helper@UIDXGIDevice@@@@YAPEAPEAXPEAPEAUIDXGIDevice@@@Z ENDP ; IID_PPV_ARGS_Helper<IDXGIDevice>
_TEXT	ENDS
; Function compile flags: /Odtp
; File C:\Program Files (x86)\Windows Kits\10\Include\10.0.26100.0\ucrt\stdio.h
;	COMDAT ??$sprintf_s@$0BAA@@@YAHAEAY0BAA@DPEBDZZ
_TEXT	SEGMENT
_ArgList$ = 32
_Buffer$ = 64
_Format$ = 72
??$sprintf_s@$0BAA@@@YAHAEAY0BAA@DPEBDZZ PROC		; sprintf_s<256>, COMDAT

; 1840 :         )

$LN3:
	mov	QWORD PTR [rsp+16], rdx
	mov	QWORD PTR [rsp+8], rcx
	mov	QWORD PTR [rsp+24], r8
	mov	QWORD PTR [rsp+32], r9
	sub	rsp, 56					; 00000038H

; 1835 :     __DEFINE_CPP_OVERLOAD_SECURE_FUNC_0_1_ARGLIST(

	lea	rax, QWORD PTR _Format$[rsp+8]
	mov	QWORD PTR _ArgList$[rsp], rax
	mov	r9, QWORD PTR _ArgList$[rsp]
	mov	r8, QWORD PTR _Format$[rsp]
	mov	edx, 256				; 00000100H
	mov	rcx, QWORD PTR _Buffer$[rsp]
	call	vsprintf_s
	npad	1
	add	rsp, 56					; 00000038H
	ret	0
??$sprintf_s@$0BAA@@@YAHAEAY0BAA@DPEBDZZ ENDP		; sprintf_s<256>
_TEXT	ENDS
; Function compile flags: /Odtp
; File D:\c++\paoda\Core\DirectX\Imgui_dx11.cpp
_TEXT	SEGMENT
pTexture$1 = 48
width$ = 56
height$ = 60
Result$2 = 64
io$ = 72
tv72 = 80
pixels$ = 88
tv85 = 96
tv166 = 104
tv195 = 112
subResource$3 = 120
srvDesc$4 = 136
desc$5 = 160
desc$6 = 208
te$7 = 272
__$ArrayPad$ = 528
?ImGui_ImplDX11_CreateFontsTexture@@YAXXZ PROC		; ImGui_ImplDX11_CreateFontsTexture

; 255  : {

	sub	rsp, 552				; 00000228H
	mov	rax, QWORD PTR __security_cookie
	xor	rax, rsp
	mov	QWORD PTR __$ArrayPad$[rsp], rax

; 256  :     // Build texture atlas
; 257  :     ImGuiIO& io = ImGui::GetIO();

	call	?GetIO@ImGui@@YAAEAUImGuiIO@@XZ		; ImGui::GetIO
	mov	QWORD PTR io$[rsp], rax

; 258  :     unsigned char* pixels;
; 259  :     int width, height;
; 260  :     io.Fonts->GetTexDataAsRGBA32(&pixels, &width, &height);

	mov	rax, QWORD PTR io$[rsp]
	mov	rax, QWORD PTR [rax+160]
	mov	QWORD PTR tv72[rsp], rax
	mov	QWORD PTR [rsp+32], 0
	lea	r9, QWORD PTR height$[rsp]
	lea	r8, QWORD PTR width$[rsp]
	lea	rdx, QWORD PTR pixels$[rsp]
	mov	rcx, QWORD PTR tv72[rsp]
	call	?GetTexDataAsRGBA32@ImFontAtlas@@QEAAXPEAPEAEPEAH11@Z ; ImFontAtlas::GetTexDataAsRGBA32
	npad	1

; 261  :     // Upload texture to graphics system
; 262  :     {
; 263  :         D3D11_TEXTURE2D_DESC desc;
; 264  :         ZeroMemory(&desc, sizeof(desc));

	mov	r8d, 44					; 0000002cH
	xor	edx, edx
	lea	rcx, QWORD PTR desc$5[rsp]
	call	memset

; 265  :         desc.Width = width;

	mov	eax, DWORD PTR width$[rsp]
	mov	DWORD PTR desc$5[rsp], eax

; 266  :         desc.Height = height;

	mov	eax, DWORD PTR height$[rsp]
	mov	DWORD PTR desc$5[rsp+4], eax

; 267  :         desc.MipLevels = 1;

	mov	DWORD PTR desc$5[rsp+8], 1

; 268  :         desc.ArraySize = 1;

	mov	DWORD PTR desc$5[rsp+12], 1

; 269  :         desc.Format = DXGI_FORMAT_R8G8B8A8_UNORM;

	mov	DWORD PTR desc$5[rsp+16], 28

; 270  :         desc.SampleDesc.Count = 1;

	mov	DWORD PTR desc$5[rsp+20], 1

; 271  :         desc.Usage = D3D11_USAGE_DEFAULT;

	mov	DWORD PTR desc$5[rsp+28], 0

; 272  :         desc.BindFlags = D3D11_BIND_SHADER_RESOURCE;

	mov	DWORD PTR desc$5[rsp+32], 8

; 273  :         desc.CPUAccessFlags = 0;

	mov	DWORD PTR desc$5[rsp+36], 0

; 274  : 
; 275  :         ID3D11Texture2D* pTexture = NULL;

	mov	QWORD PTR pTexture$1[rsp], 0

; 276  :         D3D11_SUBRESOURCE_DATA subResource;
; 277  :         subResource.pSysMem = pixels;

	mov	rax, QWORD PTR pixels$[rsp]
	mov	QWORD PTR subResource$3[rsp], rax

; 278  :         subResource.SysMemPitch = desc.Width * 4;

	mov	eax, DWORD PTR desc$5[rsp]
	shl	eax, 2
	mov	DWORD PTR subResource$3[rsp+8], eax

; 279  :         subResource.SysMemSlicePitch = 0;

	mov	DWORD PTR subResource$3[rsp+12], 0

; 280  :         auto Result = g_pd3dDevice->CreateTexture2D(&desc, &subResource, &pTexture);

	mov	rax, QWORD PTR ?g_pd3dDevice@@3PEAUID3D11Device@@EA
	mov	rax, QWORD PTR [rax]
	mov	rax, QWORD PTR [rax+40]
	mov	QWORD PTR tv85[rsp], rax
	lea	r9, QWORD PTR pTexture$1[rsp]
	lea	r8, QWORD PTR subResource$3[rsp]
	lea	rdx, QWORD PTR desc$5[rsp]
	mov	rcx, QWORD PTR ?g_pd3dDevice@@3PEAUID3D11Device@@EA
	call	QWORD PTR tv85[rsp]
	mov	DWORD PTR Result$2[rsp], eax

; 281  :         if (pTexture)

	cmp	QWORD PTR pTexture$1[rsp], 0
	je	$LN2@ImGui_Impl

; 282  :         {
; 283  : 			// Create texture view
; 284  : 			D3D11_SHADER_RESOURCE_VIEW_DESC srvDesc;
; 285  : 			ZeroMemory(&srvDesc, sizeof(srvDesc));

	mov	r8d, 24
	xor	edx, edx
	lea	rcx, QWORD PTR srvDesc$4[rsp]
	call	memset

; 286  : 			srvDesc.Format = DXGI_FORMAT_R8G8B8A8_UNORM;

	mov	DWORD PTR srvDesc$4[rsp], 28

; 287  : 			srvDesc.ViewDimension = D3D11_SRV_DIMENSION_TEXTURE2D;

	mov	DWORD PTR srvDesc$4[rsp+4], 4

; 288  : 			srvDesc.Texture2D.MipLevels = desc.MipLevels;

	mov	eax, DWORD PTR desc$5[rsp+8]
	mov	DWORD PTR srvDesc$4[rsp+12], eax

; 289  : 			srvDesc.Texture2D.MostDetailedMip = 0;

	mov	DWORD PTR srvDesc$4[rsp+8], 0

; 290  : 			g_pd3dDevice->CreateShaderResourceView(pTexture, &srvDesc, &g_pFontTextureView);

	mov	rax, QWORD PTR ?g_pd3dDevice@@3PEAUID3D11Device@@EA
	mov	rax, QWORD PTR [rax]
	mov	rax, QWORD PTR [rax+56]
	mov	QWORD PTR tv166[rsp], rax
	lea	r9, OFFSET FLAT:?g_pFontTextureView@@3PEAUID3D11ShaderResourceView@@EA
	lea	r8, QWORD PTR srvDesc$4[rsp]
	mov	rdx, QWORD PTR pTexture$1[rsp]
	mov	rcx, QWORD PTR ?g_pd3dDevice@@3PEAUID3D11Device@@EA
	call	QWORD PTR tv166[rsp]

; 291  : 			pTexture->Release();

	mov	rax, QWORD PTR pTexture$1[rsp]
	mov	rax, QWORD PTR [rax]
	mov	rcx, QWORD PTR pTexture$1[rsp]
	call	QWORD PTR [rax+16]
	npad	1

; 292  :         }

	jmp	SHORT $LN3@ImGui_Impl
$LN2@ImGui_Impl:

; 293  :         else
; 294  :         {
; 295  :             char te[256];
; 296  :             sprintf_s(te, "Failed! HResult : %x", Result);

	mov	r8d, DWORD PTR Result$2[rsp]
	lea	rdx, OFFSET FLAT:??_C@_0BF@JFNDNALH@Failed?$CB?5HResult?5?3?5?$CFx@
	lea	rcx, QWORD PTR te$7[rsp]
	call	??$sprintf_s@$0BAA@@@YAHAEAY0BAA@DPEBDZZ ; sprintf_s<256>

; 297  :             MessageBoxA(0, te, 0, 0);

	xor	r9d, r9d
	xor	r8d, r8d
	lea	rdx, QWORD PTR te$7[rsp]
	xor	ecx, ecx
	call	QWORD PTR __imp_MessageBoxA

; 298  :             TerminateProcess(GetCurrentProcess(), 1);

	call	QWORD PTR __imp_GetCurrentProcess
	mov	edx, 1
	mov	rcx, rax
	call	QWORD PTR __imp_TerminateProcess
	npad	1
$LN3@ImGui_Impl:

; 299  :         }
; 300  : 
; 301  :     }
; 302  : 
; 303  :     // Store our identifier
; 304  :     io.Fonts->TexID = (ImTextureID)g_pFontTextureView;

	mov	rax, QWORD PTR io$[rsp]
	mov	rax, QWORD PTR [rax+160]
	mov	rcx, QWORD PTR ?g_pFontTextureView@@3PEAUID3D11ShaderResourceView@@EA
	mov	QWORD PTR [rax+16], rcx

; 305  : 
; 306  :     // Create texture sampler
; 307  :     {
; 308  :         D3D11_SAMPLER_DESC desc;
; 309  :         ZeroMemory(&desc, sizeof(desc));

	mov	r8d, 52					; 00000034H
	xor	edx, edx
	lea	rcx, QWORD PTR desc$6[rsp]
	call	memset

; 310  :         desc.Filter = D3D11_FILTER_MIN_MAG_MIP_LINEAR;

	mov	DWORD PTR desc$6[rsp], 21

; 311  :         desc.AddressU = D3D11_TEXTURE_ADDRESS_WRAP;

	mov	DWORD PTR desc$6[rsp+4], 1

; 312  :         desc.AddressV = D3D11_TEXTURE_ADDRESS_WRAP;

	mov	DWORD PTR desc$6[rsp+8], 1

; 313  :         desc.AddressW = D3D11_TEXTURE_ADDRESS_WRAP;

	mov	DWORD PTR desc$6[rsp+12], 1

; 314  :         desc.MipLODBias = 0.f;

	xorps	xmm0, xmm0
	movss	DWORD PTR desc$6[rsp+16], xmm0

; 315  :         desc.ComparisonFunc = D3D11_COMPARISON_ALWAYS;

	mov	DWORD PTR desc$6[rsp+24], 8

; 316  :         desc.MinLOD = 0.f;

	xorps	xmm0, xmm0
	movss	DWORD PTR desc$6[rsp+44], xmm0

; 317  :         desc.MaxLOD = 0.f;

	xorps	xmm0, xmm0
	movss	DWORD PTR desc$6[rsp+48], xmm0

; 318  :         g_pd3dDevice->CreateSamplerState(&desc, &g_pFontSampler);

	mov	rax, QWORD PTR ?g_pd3dDevice@@3PEAUID3D11Device@@EA
	mov	rax, QWORD PTR [rax]
	mov	rax, QWORD PTR [rax+184]
	mov	QWORD PTR tv195[rsp], rax
	lea	r8, OFFSET FLAT:?g_pFontSampler@@3PEAUID3D11SamplerState@@EA
	lea	rdx, QWORD PTR desc$6[rsp]
	mov	rcx, QWORD PTR ?g_pd3dDevice@@3PEAUID3D11Device@@EA
	call	QWORD PTR tv195[rsp]
	npad	1

; 319  :     }
; 320  : }

	mov	rcx, QWORD PTR __$ArrayPad$[rsp]
	xor	rcx, rsp
	call	__security_check_cookie
	add	rsp, 552				; 00000228H
	ret	0
?ImGui_ImplDX11_CreateFontsTexture@@YAXXZ ENDP		; ImGui_ImplDX11_CreateFontsTexture
_TEXT	ENDS
; Function compile flags: /Odtp
; File D:\c++\paoda\Core\DirectX\Imgui_dx11.cpp
_TEXT	SEGMENT
vertexShaderBlob$1 = 96
pixelShaderBlob$2 = 104
tv83 = 112
tv81 = 120
tv136 = 128
tv134 = 136
tv138 = 144
tv199 = 152
tv197 = 160
tv201 = 168
tv225 = 176
tv242 = 184
tv240 = 192
tv263 = 200
tv261 = 208
tv265 = 216
tv315 = 224
tv357 = 232
tv367 = 240
desc$3 = 248
desc$4 = 304
desc$5 = 328
desc$6 = 368
local_layout$7 = 640
__$ArrayPad$ = 736
?ImGui_ImplDX11_CreateDeviceObjects@@YA_NXZ PROC	; ImGui_ImplDX11_CreateDeviceObjects

; 323  : {

$LN10:
	push	rsi
	push	rdi
	sub	rsp, 760				; 000002f8H
	mov	rax, QWORD PTR __security_cookie
	xor	rax, rsp
	mov	QWORD PTR __$ArrayPad$[rsp], rax

; 324  :     if (!g_pd3dDevice)

	cmp	QWORD PTR ?g_pd3dDevice@@3PEAUID3D11Device@@EA, 0
	jne	SHORT $LN2@ImGui_Impl

; 325  :         return false;

	xor	al, al
	jmp	$LN1@ImGui_Impl
$LN2@ImGui_Impl:

; 326  :     if (g_pFontSampler)

	cmp	QWORD PTR ?g_pFontSampler@@3PEAUID3D11SamplerState@@EA, 0
	je	SHORT $LN3@ImGui_Impl

; 327  :         ImGui_ImplDX11_InvalidateDeviceObjects();

	call	?ImGui_ImplDX11_InvalidateDeviceObjects@@YAXXZ ; ImGui_ImplDX11_InvalidateDeviceObjects
	npad	1
$LN3@ImGui_Impl:

; 328  : 
; 329  :     // By using D3DCompile() from <d3dcompiler.h> / d3dcompiler.lib, we introduce a dependency to a given version of d3dcompiler_XX.dll (see D3DCOMPILER_DLL_A)
; 330  :     // If you would like to use this DX11 sample code but remove this dependency you can:
; 331  :     //  1) compile once, save the compiled shader blobs into a file or source code and pass them to CreateVertexShader()/CreatePixelShader() [preferred solution]
; 332  :     //  2) use code to detect any version of the DLL and grab a pointer to D3DCompile from the DLL.
; 333  :     // See https://github.com/ocornut/imgui/pull/638 for sources and details.
; 334  : 
; 335  :     // Create the vertex shader
; 336  :     {
; 337  : 		static const char* vertexShader =
; 338  : 			"cbuffer vertexBuffer : register(b0) \
; 339  :             {\
; 340  :               float4x4 ProjectionMatrix; \
; 341  :             };\
; 342  :             struct VS_INPUT\
; 343  :             {\
; 344  :               float2 pos : POSITION;\
; 345  :               float4 col : COLOR0;\
; 346  :               float2 uv  : TEXCOORD0;\
; 347  :             };\
; 348  :             \
; 349  :             struct PS_INPUT\
; 350  :             {\
; 351  :               float4 pos : SV_POSITION;\
; 352  :               float4 col : COLOR0;\
; 353  :               float2 uv  : TEXCOORD0;\
; 354  :             };\
; 355  :             \
; 356  :             PS_INPUT main(VS_INPUT input)\
; 357  :             {\
; 358  :               PS_INPUT output;\
; 359  :               output.pos = mul( ProjectionMatrix, float4(input.pos.xy, 0.f, 1.f));\
; 360  :               output.col = input.col;\
; 361  :               output.uv  = input.uv;\
; 362  :               return output;\
; 363  :             }";
; 364  : 
; 365  : 		ID3DBlob* vertexShaderBlob;
; 366  : 		if (FAILED(D3DCompile(vertexShader, strlen(vertexShader), nullptr, nullptr, nullptr, "main", "vs_4_0", 0, 0, &vertexShaderBlob, nullptr)))

	mov	rcx, QWORD PTR ?vertexShader@?6??ImGui_ImplDX11_CreateDeviceObjects@@YA_NXZ@4PEBDEB
	call	strlen
	mov	QWORD PTR tv83[rsp], rax
	mov	rax, QWORD PTR ?vertexShader@?6??ImGui_ImplDX11_CreateDeviceObjects@@YA_NXZ@4PEBDEB
	mov	QWORD PTR tv81[rsp], rax
	mov	QWORD PTR [rsp+80], 0
	lea	rax, QWORD PTR vertexShaderBlob$1[rsp]
	mov	QWORD PTR [rsp+72], rax
	mov	DWORD PTR [rsp+64], 0
	mov	DWORD PTR [rsp+56], 0
	lea	rax, OFFSET FLAT:??_C@_06BNDBNCGN@vs_4_0@
	mov	QWORD PTR [rsp+48], rax
	lea	rax, OFFSET FLAT:??_C@_04GHJNJNPO@main@
	mov	QWORD PTR [rsp+40], rax
	mov	QWORD PTR [rsp+32], 0
	xor	r9d, r9d
	xor	r8d, r8d
	mov	rdx, QWORD PTR tv83[rsp]
	mov	rcx, QWORD PTR tv81[rsp]
	call	D3DCompile
	test	eax, eax
	jge	SHORT $LN4@ImGui_Impl

; 367  : 			return false; // NB: Pass ID3DBlob* pErrorBlob to D3DCompile() to get error showing in (const char*)pErrorBlob->GetBufferPointer(). Make sure to Release() the blob!

	xor	al, al
	jmp	$LN1@ImGui_Impl
$LN4@ImGui_Impl:

; 368  : 		if (g_pd3dDevice->CreateVertexShader(vertexShaderBlob->GetBufferPointer(), vertexShaderBlob->GetBufferSize(), nullptr, &g_pVertexShader) != S_OK)

	mov	rax, QWORD PTR ?g_pd3dDevice@@3PEAUID3D11Device@@EA
	mov	rax, QWORD PTR [rax]
	mov	rax, QWORD PTR [rax+96]
	mov	QWORD PTR tv138[rsp], rax
	mov	rax, QWORD PTR vertexShaderBlob$1[rsp]
	mov	rax, QWORD PTR [rax]
	mov	rcx, QWORD PTR vertexShaderBlob$1[rsp]
	call	QWORD PTR [rax+32]
	mov	QWORD PTR tv136[rsp], rax
	mov	rax, QWORD PTR vertexShaderBlob$1[rsp]
	mov	rax, QWORD PTR [rax]
	mov	rcx, QWORD PTR vertexShaderBlob$1[rsp]
	call	QWORD PTR [rax+24]
	mov	QWORD PTR tv134[rsp], rax
	lea	rax, OFFSET FLAT:?g_pVertexShader@@3PEAUID3D11VertexShader@@EA
	mov	QWORD PTR [rsp+32], rax
	xor	r9d, r9d
	mov	r8, QWORD PTR tv136[rsp]
	mov	rdx, QWORD PTR tv134[rsp]
	mov	rcx, QWORD PTR ?g_pd3dDevice@@3PEAUID3D11Device@@EA
	call	QWORD PTR tv138[rsp]
	test	eax, eax
	je	SHORT $LN5@ImGui_Impl

; 369  : 		{
; 370  : 			vertexShaderBlob->Release();

	mov	rax, QWORD PTR vertexShaderBlob$1[rsp]
	mov	rax, QWORD PTR [rax]
	mov	rcx, QWORD PTR vertexShaderBlob$1[rsp]
	call	QWORD PTR [rax+16]

; 371  : 			return false;

	xor	al, al
	jmp	$LN1@ImGui_Impl
$LN5@ImGui_Impl:

; 372  : 		}
; 373  : 
; 374  : 		// Create the input layout
; 375  : 		D3D11_INPUT_ELEMENT_DESC local_layout[] =
; 376  : 		{
; 377  : 			{ "POSITION", 0, DXGI_FORMAT_R32G32_FLOAT,   0, (UINT)offsetof(ImDrawVert, pos), D3D11_INPUT_PER_VERTEX_DATA, 0 },

	lea	rax, OFFSET FLAT:??_C@_08JPMAAECC@POSITION@
	mov	QWORD PTR local_layout$7[rsp], rax
	mov	DWORD PTR local_layout$7[rsp+8], 0
	mov	DWORD PTR local_layout$7[rsp+12], 16
	mov	DWORD PTR local_layout$7[rsp+16], 0
	mov	DWORD PTR local_layout$7[rsp+20], 0
	mov	DWORD PTR local_layout$7[rsp+24], 0
	mov	DWORD PTR local_layout$7[rsp+28], 0

; 378  : 			{ "TEXCOORD", 0, DXGI_FORMAT_R32G32_FLOAT,   0, (UINT)offsetof(ImDrawVert, uv),  D3D11_INPUT_PER_VERTEX_DATA, 0 },

	lea	rax, OFFSET FLAT:??_C@_08CMDKBPJM@TEXCOORD@
	mov	QWORD PTR local_layout$7[rsp+32], rax
	mov	DWORD PTR local_layout$7[rsp+40], 0
	mov	DWORD PTR local_layout$7[rsp+44], 16
	mov	DWORD PTR local_layout$7[rsp+48], 0
	mov	DWORD PTR local_layout$7[rsp+52], 8
	mov	DWORD PTR local_layout$7[rsp+56], 0
	mov	DWORD PTR local_layout$7[rsp+60], 0

; 379  : 			{ "COLOR",    0, DXGI_FORMAT_R8G8B8A8_UNORM, 0, (UINT)offsetof(ImDrawVert, col), D3D11_INPUT_PER_VERTEX_DATA, 0 },

	lea	rax, OFFSET FLAT:??_C@_05DPNLPLKI@COLOR@
	mov	QWORD PTR local_layout$7[rsp+64], rax
	mov	DWORD PTR local_layout$7[rsp+72], 0
	mov	DWORD PTR local_layout$7[rsp+76], 28
	mov	DWORD PTR local_layout$7[rsp+80], 0
	mov	DWORD PTR local_layout$7[rsp+84], 16
	mov	DWORD PTR local_layout$7[rsp+88], 0
	mov	DWORD PTR local_layout$7[rsp+92], 0

; 380  : 		};
; 381  : 		if (g_pd3dDevice->CreateInputLayout(local_layout, 3, vertexShaderBlob->GetBufferPointer(), vertexShaderBlob->GetBufferSize(), &g_pInputLayout) != S_OK)

	mov	rax, QWORD PTR ?g_pd3dDevice@@3PEAUID3D11Device@@EA
	mov	rax, QWORD PTR [rax]
	mov	rax, QWORD PTR [rax+88]
	mov	QWORD PTR tv201[rsp], rax
	mov	rax, QWORD PTR vertexShaderBlob$1[rsp]
	mov	rax, QWORD PTR [rax]
	mov	rcx, QWORD PTR vertexShaderBlob$1[rsp]
	call	QWORD PTR [rax+32]
	mov	QWORD PTR tv199[rsp], rax
	mov	rax, QWORD PTR vertexShaderBlob$1[rsp]
	mov	rax, QWORD PTR [rax]
	mov	rcx, QWORD PTR vertexShaderBlob$1[rsp]
	call	QWORD PTR [rax+24]
	mov	QWORD PTR tv197[rsp], rax
	lea	rax, OFFSET FLAT:?g_pInputLayout@@3PEAUID3D11InputLayout@@EA
	mov	QWORD PTR [rsp+40], rax
	mov	rax, QWORD PTR tv199[rsp]
	mov	QWORD PTR [rsp+32], rax
	mov	r9, QWORD PTR tv197[rsp]
	mov	r8d, 3
	lea	rdx, QWORD PTR local_layout$7[rsp]
	mov	rcx, QWORD PTR ?g_pd3dDevice@@3PEAUID3D11Device@@EA
	call	QWORD PTR tv201[rsp]
	test	eax, eax
	je	SHORT $LN6@ImGui_Impl

; 382  : 		{
; 383  : 			vertexShaderBlob->Release();

	mov	rax, QWORD PTR vertexShaderBlob$1[rsp]
	mov	rax, QWORD PTR [rax]
	mov	rcx, QWORD PTR vertexShaderBlob$1[rsp]
	call	QWORD PTR [rax+16]

; 384  : 			return false;

	xor	al, al
	jmp	$LN1@ImGui_Impl
$LN6@ImGui_Impl:

; 385  : 		}
; 386  : 		vertexShaderBlob->Release();

	mov	rax, QWORD PTR vertexShaderBlob$1[rsp]
	mov	rax, QWORD PTR [rax]
	mov	rcx, QWORD PTR vertexShaderBlob$1[rsp]
	call	QWORD PTR [rax+16]
	npad	1

; 387  : 
; 388  : 		// Create the constant buffer
; 389  : 		{
; 390  : 			D3D11_BUFFER_DESC desc;
; 391  : 			desc.ByteWidth = sizeof(VERTEX_CONSTANT_BUFFER);

	mov	DWORD PTR desc$4[rsp], 64		; 00000040H

; 392  : 			desc.Usage = D3D11_USAGE_DYNAMIC;

	mov	DWORD PTR desc$4[rsp+4], 2

; 393  : 			desc.BindFlags = D3D11_BIND_CONSTANT_BUFFER;

	mov	DWORD PTR desc$4[rsp+8], 4

; 394  : 			desc.CPUAccessFlags = D3D11_CPU_ACCESS_WRITE;

	mov	DWORD PTR desc$4[rsp+12], 65536		; 00010000H

; 395  : 			desc.MiscFlags = 0;

	mov	DWORD PTR desc$4[rsp+16], 0

; 396  :             g_pd3dDevice->CreateBuffer(&desc, nullptr, &g_pVertexConstantBuffer);

	mov	rax, QWORD PTR ?g_pd3dDevice@@3PEAUID3D11Device@@EA
	mov	rax, QWORD PTR [rax]
	mov	rax, QWORD PTR [rax+24]
	mov	QWORD PTR tv225[rsp], rax
	lea	r9, OFFSET FLAT:?g_pVertexConstantBuffer@@3PEAUID3D11Buffer@@EA
	xor	r8d, r8d
	lea	rdx, QWORD PTR desc$4[rsp]
	mov	rcx, QWORD PTR ?g_pd3dDevice@@3PEAUID3D11Device@@EA
	call	QWORD PTR tv225[rsp]
	npad	1

; 397  : 		}
; 398  :     }
; 399  : 
; 400  :     // Create the pixel shader
; 401  :     {
; 402  : 		static const char* pixelShader =
; 403  : 			"struct PS_INPUT\
; 404  :             {\
; 405  :             float4 pos : SV_POSITION;\
; 406  :             float4 col : COLOR0;\
; 407  :             float2 uv  : TEXCOORD0;\
; 408  :             };\
; 409  :             sampler sampler0;\
; 410  :             Texture2D texture0;\
; 411  :             \
; 412  :             float4 main(PS_INPUT input) : SV_Target\
; 413  :             {\
; 414  :             float4 out_col = input.col * texture0.Sample(sampler0, input.uv); \
; 415  :             return out_col; \
; 416  :             }";
; 417  : 
; 418  : 		ID3DBlob* pixelShaderBlob;
; 419  : 		if (FAILED(D3DCompile(pixelShader, strlen(pixelShader), nullptr, nullptr, nullptr, "main", "ps_4_0", 0, 0, &pixelShaderBlob, nullptr)))

	mov	rcx, QWORD PTR ?pixelShader@?BB@??ImGui_ImplDX11_CreateDeviceObjects@@YA_NXZ@4PEBDEB
	call	strlen
	mov	QWORD PTR tv242[rsp], rax
	mov	rax, QWORD PTR ?pixelShader@?BB@??ImGui_ImplDX11_CreateDeviceObjects@@YA_NXZ@4PEBDEB
	mov	QWORD PTR tv240[rsp], rax
	mov	QWORD PTR [rsp+80], 0
	lea	rax, QWORD PTR pixelShaderBlob$2[rsp]
	mov	QWORD PTR [rsp+72], rax
	mov	DWORD PTR [rsp+64], 0
	mov	DWORD PTR [rsp+56], 0
	lea	rax, OFFSET FLAT:??_C@_06HOOBOHFH@ps_4_0@
	mov	QWORD PTR [rsp+48], rax
	lea	rax, OFFSET FLAT:??_C@_04GHJNJNPO@main@
	mov	QWORD PTR [rsp+40], rax
	mov	QWORD PTR [rsp+32], 0
	xor	r9d, r9d
	xor	r8d, r8d
	mov	rdx, QWORD PTR tv242[rsp]
	mov	rcx, QWORD PTR tv240[rsp]
	call	D3DCompile
	test	eax, eax
	jge	SHORT $LN7@ImGui_Impl

; 420  : 			return false; // NB: Pass ID3DBlob* pErrorBlob to D3DCompile() to get error showing in (const char*)pErrorBlob->GetBufferPointer(). Make sure to Release() the blob!

	xor	al, al
	jmp	$LN1@ImGui_Impl
$LN7@ImGui_Impl:

; 421  : 		if (g_pd3dDevice->CreatePixelShader(pixelShaderBlob->GetBufferPointer(), pixelShaderBlob->GetBufferSize(), nullptr, &g_pPixelShader) != S_OK)

	mov	rax, QWORD PTR ?g_pd3dDevice@@3PEAUID3D11Device@@EA
	mov	rax, QWORD PTR [rax]
	mov	rax, QWORD PTR [rax+120]
	mov	QWORD PTR tv265[rsp], rax
	mov	rax, QWORD PTR pixelShaderBlob$2[rsp]
	mov	rax, QWORD PTR [rax]
	mov	rcx, QWORD PTR pixelShaderBlob$2[rsp]
	call	QWORD PTR [rax+32]
	mov	QWORD PTR tv263[rsp], rax
	mov	rax, QWORD PTR pixelShaderBlob$2[rsp]
	mov	rax, QWORD PTR [rax]
	mov	rcx, QWORD PTR pixelShaderBlob$2[rsp]
	call	QWORD PTR [rax+24]
	mov	QWORD PTR tv261[rsp], rax
	lea	rax, OFFSET FLAT:?g_pPixelShader@@3PEAUID3D11PixelShader@@EA
	mov	QWORD PTR [rsp+32], rax
	xor	r9d, r9d
	mov	r8, QWORD PTR tv263[rsp]
	mov	rdx, QWORD PTR tv261[rsp]
	mov	rcx, QWORD PTR ?g_pd3dDevice@@3PEAUID3D11Device@@EA
	call	QWORD PTR tv265[rsp]
	test	eax, eax
	je	SHORT $LN8@ImGui_Impl

; 422  : 		{
; 423  : 			pixelShaderBlob->Release();

	mov	rax, QWORD PTR pixelShaderBlob$2[rsp]
	mov	rax, QWORD PTR [rax]
	mov	rcx, QWORD PTR pixelShaderBlob$2[rsp]
	call	QWORD PTR [rax+16]

; 424  : 			return false;

	xor	al, al
	jmp	$LN1@ImGui_Impl
$LN8@ImGui_Impl:

; 425  : 		}
; 426  : 		pixelShaderBlob->Release();

	mov	rax, QWORD PTR pixelShaderBlob$2[rsp]
	mov	rax, QWORD PTR [rax]
	mov	rcx, QWORD PTR pixelShaderBlob$2[rsp]
	call	QWORD PTR [rax+16]
	npad	1

; 427  :     }
; 428  : 
; 429  :     // Create the blending setup
; 430  :     {
; 431  :         D3D11_BLEND_DESC desc;
; 432  :         ZeroMemory(&desc, sizeof(desc));

	mov	r8d, 264				; 00000108H
	xor	edx, edx
	lea	rcx, QWORD PTR desc$6[rsp]
	call	memset

; 433  :         desc.AlphaToCoverageEnable = false;

	mov	DWORD PTR desc$6[rsp], 0

; 434  :         desc.RenderTarget[0].BlendEnable = true;

	mov	eax, 32					; 00000020H
	imul	rax, rax, 0
	mov	DWORD PTR desc$6[rsp+rax+8], 1

; 435  :         desc.RenderTarget[0].SrcBlend = D3D11_BLEND_SRC_ALPHA;

	mov	eax, 32					; 00000020H
	imul	rax, rax, 0
	mov	DWORD PTR desc$6[rsp+rax+12], 5

; 436  :         desc.RenderTarget[0].DestBlend = D3D11_BLEND_INV_SRC_ALPHA;

	mov	eax, 32					; 00000020H
	imul	rax, rax, 0
	mov	DWORD PTR desc$6[rsp+rax+16], 6

; 437  :         desc.RenderTarget[0].BlendOp = D3D11_BLEND_OP_ADD;

	mov	eax, 32					; 00000020H
	imul	rax, rax, 0
	mov	DWORD PTR desc$6[rsp+rax+20], 1

; 438  :         desc.RenderTarget[0].SrcBlendAlpha = D3D11_BLEND_INV_SRC_ALPHA;

	mov	eax, 32					; 00000020H
	imul	rax, rax, 0
	mov	DWORD PTR desc$6[rsp+rax+24], 6

; 439  :         desc.RenderTarget[0].DestBlendAlpha = D3D11_BLEND_ZERO;

	mov	eax, 32					; 00000020H
	imul	rax, rax, 0
	mov	DWORD PTR desc$6[rsp+rax+28], 1

; 440  :         desc.RenderTarget[0].BlendOpAlpha = D3D11_BLEND_OP_MAX;//

	mov	eax, 32					; 00000020H
	imul	rax, rax, 0
	mov	DWORD PTR desc$6[rsp+rax+32], 5

; 441  :         desc.RenderTarget[0].RenderTargetWriteMask = D3D11_COLOR_WRITE_ENABLE_ALL;

	mov	eax, 32					; 00000020H
	imul	rax, rax, 0
	mov	BYTE PTR desc$6[rsp+rax+36], 15

; 442  :         g_pd3dDevice->CreateBlendState(&desc, &g_pBlendState);

	mov	rax, QWORD PTR ?g_pd3dDevice@@3PEAUID3D11Device@@EA
	mov	rax, QWORD PTR [rax]
	mov	rax, QWORD PTR [rax+160]
	mov	QWORD PTR tv315[rsp], rax
	lea	r8, OFFSET FLAT:?g_pBlendState@@3PEAUID3D11BlendState@@EA
	lea	rdx, QWORD PTR desc$6[rsp]
	mov	rcx, QWORD PTR ?g_pd3dDevice@@3PEAUID3D11Device@@EA
	call	QWORD PTR tv315[rsp]
	npad	1

; 443  :     }
; 444  : 
; 445  :     // Create the rasterizer state
; 446  :     {
; 447  :         D3D11_RASTERIZER_DESC desc;
; 448  :         ZeroMemory(&desc, sizeof(desc));

	mov	r8d, 40					; 00000028H
	xor	edx, edx
	lea	rcx, QWORD PTR desc$5[rsp]
	call	memset

; 449  :         desc.FillMode = D3D11_FILL_SOLID;

	mov	DWORD PTR desc$5[rsp], 3

; 450  :         desc.CullMode = D3D11_CULL_NONE;

	mov	DWORD PTR desc$5[rsp+4], 1

; 451  :         desc.ScissorEnable = true;

	mov	DWORD PTR desc$5[rsp+28], 1

; 452  :         desc.DepthClipEnable = true;

	mov	DWORD PTR desc$5[rsp+24], 1

; 453  :         g_pd3dDevice->CreateRasterizerState(&desc, &g_pRasterizerState);

	mov	rax, QWORD PTR ?g_pd3dDevice@@3PEAUID3D11Device@@EA
	mov	rax, QWORD PTR [rax]
	mov	rax, QWORD PTR [rax+176]
	mov	QWORD PTR tv357[rsp], rax
	lea	r8, OFFSET FLAT:?g_pRasterizerState@@3PEAUID3D11RasterizerState@@EA
	lea	rdx, QWORD PTR desc$5[rsp]
	mov	rcx, QWORD PTR ?g_pd3dDevice@@3PEAUID3D11Device@@EA
	call	QWORD PTR tv357[rsp]
	npad	1

; 454  :     }
; 455  : 
; 456  :     // Create depth-stencil State
; 457  :     {
; 458  :         D3D11_DEPTH_STENCIL_DESC desc;
; 459  :         ZeroMemory(&desc, sizeof(desc));

	mov	r8d, 52					; 00000034H
	xor	edx, edx
	lea	rcx, QWORD PTR desc$3[rsp]
	call	memset

; 460  :         desc.DepthEnable = false;

	mov	DWORD PTR desc$3[rsp], 0

; 461  :         desc.DepthWriteMask = D3D11_DEPTH_WRITE_MASK_ALL;

	mov	DWORD PTR desc$3[rsp+4], 1

; 462  :         desc.DepthFunc = D3D11_COMPARISON_ALWAYS;

	mov	DWORD PTR desc$3[rsp+8], 8

; 463  :         desc.StencilEnable = false;

	mov	DWORD PTR desc$3[rsp+12], 0

; 464  :         desc.FrontFace.StencilFailOp = desc.FrontFace.StencilDepthFailOp = desc.FrontFace.StencilPassOp = D3D11_STENCIL_OP_KEEP;

	mov	DWORD PTR desc$3[rsp+28], 1
	mov	eax, DWORD PTR desc$3[rsp+28]
	mov	DWORD PTR desc$3[rsp+24], eax
	mov	eax, DWORD PTR desc$3[rsp+24]
	mov	DWORD PTR desc$3[rsp+20], eax

; 465  :         desc.FrontFace.StencilFunc = D3D11_COMPARISON_ALWAYS;

	mov	DWORD PTR desc$3[rsp+32], 8

; 466  :         desc.BackFace = desc.FrontFace;

	lea	rax, QWORD PTR desc$3[rsp+36]
	lea	rcx, QWORD PTR desc$3[rsp+20]
	mov	rdi, rax
	mov	rsi, rcx
	mov	ecx, 16
	rep movsb

; 467  :         g_pd3dDevice->CreateDepthStencilState(&desc, &g_pDepthStencilState);

	mov	rax, QWORD PTR ?g_pd3dDevice@@3PEAUID3D11Device@@EA
	mov	rax, QWORD PTR [rax]
	mov	rax, QWORD PTR [rax+168]
	mov	QWORD PTR tv367[rsp], rax
	lea	r8, OFFSET FLAT:?g_pDepthStencilState@@3PEAUID3D11DepthStencilState@@EA
	lea	rdx, QWORD PTR desc$3[rsp]
	mov	rcx, QWORD PTR ?g_pd3dDevice@@3PEAUID3D11Device@@EA
	call	QWORD PTR tv367[rsp]
	npad	1

; 468  :     }
; 469  :     ImGui_ImplDX11_CreateFontsTexture();

	call	?ImGui_ImplDX11_CreateFontsTexture@@YAXXZ ; ImGui_ImplDX11_CreateFontsTexture

; 470  :     return true;

	mov	al, 1
$LN1@ImGui_Impl:

; 471  : }

	mov	rcx, QWORD PTR __$ArrayPad$[rsp]
	xor	rcx, rsp
	call	__security_check_cookie
	add	rsp, 760				; 000002f8H
	pop	rdi
	pop	rsi
	ret	0
?ImGui_ImplDX11_CreateDeviceObjects@@YA_NXZ ENDP	; ImGui_ImplDX11_CreateDeviceObjects
_TEXT	ENDS
; Function compile flags: /Odtp
; File D:\c++\paoda\Core\DirectX\Imgui_dx11.cpp
_TEXT	SEGMENT
?ImGui_ImplDX11_InvalidateDeviceObjects@@YAXXZ PROC	; ImGui_ImplDX11_InvalidateDeviceObjects

; 474  : {

$LN15:
	sub	rsp, 40					; 00000028H

; 475  :     if (!g_pd3dDevice)

	cmp	QWORD PTR ?g_pd3dDevice@@3PEAUID3D11Device@@EA, 0
	jne	SHORT $LN2@ImGui_Impl

; 476  :         return;

	jmp	$LN1@ImGui_Impl
$LN2@ImGui_Impl:

; 477  : 
; 478  :     if (g_pFontSampler) { g_pFontSampler->Release(); g_pFontSampler = NULL; }

	cmp	QWORD PTR ?g_pFontSampler@@3PEAUID3D11SamplerState@@EA, 0
	je	SHORT $LN3@ImGui_Impl
	mov	rax, QWORD PTR ?g_pFontSampler@@3PEAUID3D11SamplerState@@EA
	mov	rax, QWORD PTR [rax]
	mov	rcx, QWORD PTR ?g_pFontSampler@@3PEAUID3D11SamplerState@@EA
	call	QWORD PTR [rax+16]
	mov	QWORD PTR ?g_pFontSampler@@3PEAUID3D11SamplerState@@EA, 0
$LN3@ImGui_Impl:

; 479  :     if (g_pFontTextureView) { g_pFontTextureView->Release(); g_pFontTextureView = NULL; ImGui::GetIO().Fonts->TexID = NULL; } // We copied g_pFontTextureView to io.Fonts->TexID so let's clear that as well.

	cmp	QWORD PTR ?g_pFontTextureView@@3PEAUID3D11ShaderResourceView@@EA, 0
	je	SHORT $LN4@ImGui_Impl
	mov	rax, QWORD PTR ?g_pFontTextureView@@3PEAUID3D11ShaderResourceView@@EA
	mov	rax, QWORD PTR [rax]
	mov	rcx, QWORD PTR ?g_pFontTextureView@@3PEAUID3D11ShaderResourceView@@EA
	call	QWORD PTR [rax+16]
	mov	QWORD PTR ?g_pFontTextureView@@3PEAUID3D11ShaderResourceView@@EA, 0
	call	?GetIO@ImGui@@YAAEAUImGuiIO@@XZ		; ImGui::GetIO
	mov	rax, QWORD PTR [rax+160]
	mov	QWORD PTR [rax+16], 0
$LN4@ImGui_Impl:

; 480  :     if (g_pIB) { g_pIB->Release(); g_pIB = NULL; }

	cmp	QWORD PTR ?g_pIB@@3PEAUID3D11Buffer@@EA, 0
	je	SHORT $LN5@ImGui_Impl
	mov	rax, QWORD PTR ?g_pIB@@3PEAUID3D11Buffer@@EA
	mov	rax, QWORD PTR [rax]
	mov	rcx, QWORD PTR ?g_pIB@@3PEAUID3D11Buffer@@EA
	call	QWORD PTR [rax+16]
	mov	QWORD PTR ?g_pIB@@3PEAUID3D11Buffer@@EA, 0
$LN5@ImGui_Impl:

; 481  :     if (g_pVB) { g_pVB->Release(); g_pVB = NULL; }

	cmp	QWORD PTR ?g_pVB@@3PEAUID3D11Buffer@@EA, 0
	je	SHORT $LN6@ImGui_Impl
	mov	rax, QWORD PTR ?g_pVB@@3PEAUID3D11Buffer@@EA
	mov	rax, QWORD PTR [rax]
	mov	rcx, QWORD PTR ?g_pVB@@3PEAUID3D11Buffer@@EA
	call	QWORD PTR [rax+16]
	mov	QWORD PTR ?g_pVB@@3PEAUID3D11Buffer@@EA, 0
$LN6@ImGui_Impl:

; 482  : 
; 483  :     if (g_pBlendState) { g_pBlendState->Release(); g_pBlendState = NULL; }

	cmp	QWORD PTR ?g_pBlendState@@3PEAUID3D11BlendState@@EA, 0
	je	SHORT $LN7@ImGui_Impl
	mov	rax, QWORD PTR ?g_pBlendState@@3PEAUID3D11BlendState@@EA
	mov	rax, QWORD PTR [rax]
	mov	rcx, QWORD PTR ?g_pBlendState@@3PEAUID3D11BlendState@@EA
	call	QWORD PTR [rax+16]
	mov	QWORD PTR ?g_pBlendState@@3PEAUID3D11BlendState@@EA, 0
$LN7@ImGui_Impl:

; 484  :     if (g_pDepthStencilState) { g_pDepthStencilState->Release(); g_pDepthStencilState = NULL; }

	cmp	QWORD PTR ?g_pDepthStencilState@@3PEAUID3D11DepthStencilState@@EA, 0
	je	SHORT $LN8@ImGui_Impl
	mov	rax, QWORD PTR ?g_pDepthStencilState@@3PEAUID3D11DepthStencilState@@EA
	mov	rax, QWORD PTR [rax]
	mov	rcx, QWORD PTR ?g_pDepthStencilState@@3PEAUID3D11DepthStencilState@@EA
	call	QWORD PTR [rax+16]
	mov	QWORD PTR ?g_pDepthStencilState@@3PEAUID3D11DepthStencilState@@EA, 0
$LN8@ImGui_Impl:

; 485  :     if (g_pRasterizerState) { g_pRasterizerState->Release(); g_pRasterizerState = NULL; }

	cmp	QWORD PTR ?g_pRasterizerState@@3PEAUID3D11RasterizerState@@EA, 0
	je	SHORT $LN9@ImGui_Impl
	mov	rax, QWORD PTR ?g_pRasterizerState@@3PEAUID3D11RasterizerState@@EA
	mov	rax, QWORD PTR [rax]
	mov	rcx, QWORD PTR ?g_pRasterizerState@@3PEAUID3D11RasterizerState@@EA
	call	QWORD PTR [rax+16]
	mov	QWORD PTR ?g_pRasterizerState@@3PEAUID3D11RasterizerState@@EA, 0
$LN9@ImGui_Impl:

; 486  :     if (g_pPixelShader) { g_pPixelShader->Release(); g_pPixelShader = NULL; }

	cmp	QWORD PTR ?g_pPixelShader@@3PEAUID3D11PixelShader@@EA, 0
	je	SHORT $LN10@ImGui_Impl
	mov	rax, QWORD PTR ?g_pPixelShader@@3PEAUID3D11PixelShader@@EA
	mov	rax, QWORD PTR [rax]
	mov	rcx, QWORD PTR ?g_pPixelShader@@3PEAUID3D11PixelShader@@EA
	call	QWORD PTR [rax+16]
	mov	QWORD PTR ?g_pPixelShader@@3PEAUID3D11PixelShader@@EA, 0
$LN10@ImGui_Impl:

; 487  :     if (g_pVertexConstantBuffer) { g_pVertexConstantBuffer->Release(); g_pVertexConstantBuffer = NULL; }

	cmp	QWORD PTR ?g_pVertexConstantBuffer@@3PEAUID3D11Buffer@@EA, 0
	je	SHORT $LN11@ImGui_Impl
	mov	rax, QWORD PTR ?g_pVertexConstantBuffer@@3PEAUID3D11Buffer@@EA
	mov	rax, QWORD PTR [rax]
	mov	rcx, QWORD PTR ?g_pVertexConstantBuffer@@3PEAUID3D11Buffer@@EA
	call	QWORD PTR [rax+16]
	mov	QWORD PTR ?g_pVertexConstantBuffer@@3PEAUID3D11Buffer@@EA, 0
$LN11@ImGui_Impl:

; 488  :     if (g_pInputLayout) { g_pInputLayout->Release(); g_pInputLayout = NULL; }

	cmp	QWORD PTR ?g_pInputLayout@@3PEAUID3D11InputLayout@@EA, 0
	je	SHORT $LN12@ImGui_Impl
	mov	rax, QWORD PTR ?g_pInputLayout@@3PEAUID3D11InputLayout@@EA
	mov	rax, QWORD PTR [rax]
	mov	rcx, QWORD PTR ?g_pInputLayout@@3PEAUID3D11InputLayout@@EA
	call	QWORD PTR [rax+16]
	mov	QWORD PTR ?g_pInputLayout@@3PEAUID3D11InputLayout@@EA, 0
$LN12@ImGui_Impl:

; 489  :     if (g_pVertexShader) { g_pVertexShader->Release(); g_pVertexShader = NULL; }

	cmp	QWORD PTR ?g_pVertexShader@@3PEAUID3D11VertexShader@@EA, 0
	je	SHORT $LN13@ImGui_Impl
	mov	rax, QWORD PTR ?g_pVertexShader@@3PEAUID3D11VertexShader@@EA
	mov	rax, QWORD PTR [rax]
	mov	rcx, QWORD PTR ?g_pVertexShader@@3PEAUID3D11VertexShader@@EA
	call	QWORD PTR [rax+16]
	mov	QWORD PTR ?g_pVertexShader@@3PEAUID3D11VertexShader@@EA, 0
$LN13@ImGui_Impl:
$LN1@ImGui_Impl:

; 490  : }

	add	rsp, 40					; 00000028H
	ret	0
?ImGui_ImplDX11_InvalidateDeviceObjects@@YAXXZ ENDP	; ImGui_ImplDX11_InvalidateDeviceObjects
_TEXT	ENDS
; Function compile flags: /Odtp
; File D:\c++\paoda\Core\DirectX\Imgui_dx11.cpp
_TEXT	SEGMENT
ctx$ = 48
i$1 = 56
i$2 = 60
pcmd$3 = 64
n$4 = 72
n$5 = 76
cmd_i$6 = 80
L$7 = 84
R$8 = 88
B$9 = 92
T$10 = 96
idx_offset$ = 100
vtx_offset$ = 104
cmd_list$11 = 112
clip_off$ = 120
cmd_list$12 = 128
offset$ = 136
stride$ = 140
vtx_dst$ = 144
idx_dst$ = 152
tv91 = 160
tv152 = 168
tv168 = 176
tv184 = 184
tv231 = 192
tv242 = 200
tv257 = 208
constant_buffer$13 = 216
tv361 = 224
tv368 = 232
tv375 = 240
tv381 = 248
tv389 = 256
tv396 = 264
tv404 = 272
tv412 = 280
tv420 = 288
tv428 = 296
tv436 = 304
tv442 = 312
tv450 = 320
tv460 = 328
tv466 = 336
tv512 = 344
tv518 = 352
tv528 = 360
tv536 = 368
tv542 = 376
tv550 = 384
tv558 = 392
tv566 = 400
tv574 = 408
tv582 = 416
tv589 = 424
tv595 = 432
tv614 = 440
tv621 = 448
tv680 = 456
texture_srv$14 = 464
tv689 = 472
tv698 = 480
tv710 = 488
tv717 = 496
tv723 = 504
tv739 = 512
tv754 = 520
tv770 = 528
tv786 = 536
tv802 = 544
tv839 = 552
tv855 = 560
tv890 = 568
tv898 = 576
tv916 = 584
tv930 = 592
vtx_resource$ = 600
idx_resource$ = 616
mapped_resource$15 = 632
old$ = 656
vp$ = 5552
r$16 = 5576
desc$17 = 5592
desc$18 = 5616
blend_factor$ = 5640
mvp$19 = 5664
__$ArrayPad$ = 5728
draw_data$ = 5760
?ImGui_ImplDX11_RenderDrawData@@YAXPEAUImDrawData@@@Z PROC ; ImGui_ImplDX11_RenderDrawData

; 61   : {

$LN44:
	mov	QWORD PTR [rsp+8], rcx
	mov	eax, 5752				; 00001678H
	call	__chkstk
	sub	rsp, rax
	mov	rax, QWORD PTR __security_cookie
	xor	rax, rsp
	mov	QWORD PTR __$ArrayPad$[rsp], rax

; 62   :     ID3D11DeviceContext* ctx = g_pd3dDeviceContext;

	mov	rax, QWORD PTR ?g_pd3dDeviceContext@@3PEAUID3D11DeviceContext@@EA
	mov	QWORD PTR ctx$[rsp], rax

; 63   : 
; 64   :     // Create and grow vertex/index buffers if needed
; 65   :     if (!g_pVB || g_VertexBufferSize < draw_data->TotalVtxCount)

	cmp	QWORD PTR ?g_pVB@@3PEAUID3D11Buffer@@EA, 0
	je	SHORT $LN18@ImGui_Impl
	mov	rax, QWORD PTR draw_data$[rsp]
	mov	eax, DWORD PTR [rax+28]
	cmp	DWORD PTR ?g_VertexBufferSize@@3HA, eax
	jge	$LN17@ImGui_Impl
$LN18@ImGui_Impl:

; 66   :     {
; 67   :         if (g_pVB) { g_pVB->Release(); g_pVB = NULL; }

	cmp	QWORD PTR ?g_pVB@@3PEAUID3D11Buffer@@EA, 0
	je	SHORT $LN19@ImGui_Impl
	mov	rax, QWORD PTR ?g_pVB@@3PEAUID3D11Buffer@@EA
	mov	rax, QWORD PTR [rax]
	mov	rcx, QWORD PTR ?g_pVB@@3PEAUID3D11Buffer@@EA
	call	QWORD PTR [rax+16]
	mov	QWORD PTR ?g_pVB@@3PEAUID3D11Buffer@@EA, 0
$LN19@ImGui_Impl:

; 68   :         g_VertexBufferSize = draw_data->TotalVtxCount + 5000;

	mov	rax, QWORD PTR draw_data$[rsp]
	mov	eax, DWORD PTR [rax+28]
	add	eax, 5000				; 00001388H
	mov	DWORD PTR ?g_VertexBufferSize@@3HA, eax

; 69   :         D3D11_BUFFER_DESC desc;
; 70   :         memset(&desc, 0, sizeof(D3D11_BUFFER_DESC));

	mov	r8d, 24
	xor	edx, edx
	lea	rcx, QWORD PTR desc$17[rsp]
	call	memset

; 71   :         desc.Usage = D3D11_USAGE_DYNAMIC;

	mov	DWORD PTR desc$17[rsp+4], 2

; 72   :         desc.ByteWidth = g_VertexBufferSize * sizeof(ImDrawVert);

	movsxd	rax, DWORD PTR ?g_VertexBufferSize@@3HA
	imul	rax, rax, 20
	mov	DWORD PTR desc$17[rsp], eax

; 73   :         desc.BindFlags = D3D11_BIND_VERTEX_BUFFER;

	mov	DWORD PTR desc$17[rsp+8], 1

; 74   :         desc.CPUAccessFlags = D3D11_CPU_ACCESS_WRITE;

	mov	DWORD PTR desc$17[rsp+12], 65536	; 00010000H

; 75   :         desc.MiscFlags = 0;

	mov	DWORD PTR desc$17[rsp+16], 0

; 76   :         if (g_pd3dDevice->CreateBuffer(&desc, NULL, &g_pVB) < 0)

	mov	rax, QWORD PTR ?g_pd3dDevice@@3PEAUID3D11Device@@EA
	mov	rax, QWORD PTR [rax]
	mov	rax, QWORD PTR [rax+24]
	mov	QWORD PTR tv91[rsp], rax
	lea	r9, OFFSET FLAT:?g_pVB@@3PEAUID3D11Buffer@@EA
	xor	r8d, r8d
	lea	rdx, QWORD PTR desc$17[rsp]
	mov	rcx, QWORD PTR ?g_pd3dDevice@@3PEAUID3D11Device@@EA
	call	QWORD PTR tv91[rsp]
	test	eax, eax
	jge	SHORT $LN20@ImGui_Impl

; 77   :             return;

	jmp	$LN1@ImGui_Impl
$LN20@ImGui_Impl:
$LN17@ImGui_Impl:

; 78   :     }
; 79   :     if (!g_pIB || g_IndexBufferSize < draw_data->TotalIdxCount)

	cmp	QWORD PTR ?g_pIB@@3PEAUID3D11Buffer@@EA, 0
	je	SHORT $LN22@ImGui_Impl
	mov	rax, QWORD PTR draw_data$[rsp]
	mov	eax, DWORD PTR [rax+24]
	cmp	DWORD PTR ?g_IndexBufferSize@@3HA, eax
	jge	$LN21@ImGui_Impl
$LN22@ImGui_Impl:

; 80   :     {
; 81   :         if (g_pIB) { g_pIB->Release(); g_pIB = NULL; }

	cmp	QWORD PTR ?g_pIB@@3PEAUID3D11Buffer@@EA, 0
	je	SHORT $LN23@ImGui_Impl
	mov	rax, QWORD PTR ?g_pIB@@3PEAUID3D11Buffer@@EA
	mov	rax, QWORD PTR [rax]
	mov	rcx, QWORD PTR ?g_pIB@@3PEAUID3D11Buffer@@EA
	call	QWORD PTR [rax+16]
	mov	QWORD PTR ?g_pIB@@3PEAUID3D11Buffer@@EA, 0
$LN23@ImGui_Impl:

; 82   :         g_IndexBufferSize = draw_data->TotalIdxCount + 10000;

	mov	rax, QWORD PTR draw_data$[rsp]
	mov	eax, DWORD PTR [rax+24]
	add	eax, 10000				; 00002710H
	mov	DWORD PTR ?g_IndexBufferSize@@3HA, eax

; 83   :         D3D11_BUFFER_DESC desc;
; 84   :         memset(&desc, 0, sizeof(D3D11_BUFFER_DESC));

	mov	r8d, 24
	xor	edx, edx
	lea	rcx, QWORD PTR desc$18[rsp]
	call	memset

; 85   :         desc.Usage = D3D11_USAGE_DYNAMIC;

	mov	DWORD PTR desc$18[rsp+4], 2

; 86   :         desc.ByteWidth = g_IndexBufferSize * sizeof(ImDrawIdx);

	movsxd	rax, DWORD PTR ?g_IndexBufferSize@@3HA
	shl	rax, 1
	mov	DWORD PTR desc$18[rsp], eax

; 87   :         desc.BindFlags = D3D11_BIND_INDEX_BUFFER;

	mov	DWORD PTR desc$18[rsp+8], 2

; 88   :         desc.CPUAccessFlags = D3D11_CPU_ACCESS_WRITE;

	mov	DWORD PTR desc$18[rsp+12], 65536	; 00010000H

; 89   :         if (g_pd3dDevice->CreateBuffer(&desc, NULL, &g_pIB) < 0)

	mov	rax, QWORD PTR ?g_pd3dDevice@@3PEAUID3D11Device@@EA
	mov	rax, QWORD PTR [rax]
	mov	rax, QWORD PTR [rax+24]
	mov	QWORD PTR tv152[rsp], rax
	lea	r9, OFFSET FLAT:?g_pIB@@3PEAUID3D11Buffer@@EA
	xor	r8d, r8d
	lea	rdx, QWORD PTR desc$18[rsp]
	mov	rcx, QWORD PTR ?g_pd3dDevice@@3PEAUID3D11Device@@EA
	call	QWORD PTR tv152[rsp]
	test	eax, eax
	jge	SHORT $LN24@ImGui_Impl

; 90   :             return;

	jmp	$LN1@ImGui_Impl
$LN24@ImGui_Impl:
$LN21@ImGui_Impl:

; 91   :     }
; 92   : 
; 93   :     // Copy and convert all vertices into a single contiguous buffer
; 94   :     D3D11_MAPPED_SUBRESOURCE vtx_resource, idx_resource;
; 95   :     if (ctx->Map(g_pVB, 0, D3D11_MAP_WRITE_DISCARD, 0, &vtx_resource) != S_OK)

	mov	rax, QWORD PTR ctx$[rsp]
	mov	rax, QWORD PTR [rax]
	mov	rax, QWORD PTR [rax+112]
	mov	QWORD PTR tv168[rsp], rax
	lea	rax, QWORD PTR vtx_resource$[rsp]
	mov	QWORD PTR [rsp+40], rax
	mov	DWORD PTR [rsp+32], 0
	mov	r9d, 4
	xor	r8d, r8d
	mov	rdx, QWORD PTR ?g_pVB@@3PEAUID3D11Buffer@@EA
	mov	rcx, QWORD PTR ctx$[rsp]
	call	QWORD PTR tv168[rsp]
	test	eax, eax
	je	SHORT $LN25@ImGui_Impl

; 96   :         return;

	jmp	$LN1@ImGui_Impl
$LN25@ImGui_Impl:

; 97   :     if (ctx->Map(g_pIB, 0, D3D11_MAP_WRITE_DISCARD, 0, &idx_resource) != S_OK)

	mov	rax, QWORD PTR ctx$[rsp]
	mov	rax, QWORD PTR [rax]
	mov	rax, QWORD PTR [rax+112]
	mov	QWORD PTR tv184[rsp], rax
	lea	rax, QWORD PTR idx_resource$[rsp]
	mov	QWORD PTR [rsp+40], rax
	mov	DWORD PTR [rsp+32], 0
	mov	r9d, 4
	xor	r8d, r8d
	mov	rdx, QWORD PTR ?g_pIB@@3PEAUID3D11Buffer@@EA
	mov	rcx, QWORD PTR ctx$[rsp]
	call	QWORD PTR tv184[rsp]
	test	eax, eax
	je	SHORT $LN26@ImGui_Impl

; 98   :         return;

	jmp	$LN1@ImGui_Impl
$LN26@ImGui_Impl:

; 99   :     ImDrawVert* vtx_dst = (ImDrawVert*)vtx_resource.pData;

	mov	rax, QWORD PTR vtx_resource$[rsp]
	mov	QWORD PTR vtx_dst$[rsp], rax

; 100  :     ImDrawIdx* idx_dst = (ImDrawIdx*)idx_resource.pData;

	mov	rax, QWORD PTR idx_resource$[rsp]
	mov	QWORD PTR idx_dst$[rsp], rax

; 101  :     for (int n = 0; n < draw_data->CmdListsCount; n++)

	mov	DWORD PTR n$4[rsp], 0
	jmp	SHORT $LN4@ImGui_Impl
$LN2@ImGui_Impl:
	mov	eax, DWORD PTR n$4[rsp]
	inc	eax
	mov	DWORD PTR n$4[rsp], eax
$LN4@ImGui_Impl:
	mov	rax, QWORD PTR draw_data$[rsp]
	mov	eax, DWORD PTR [rax+4]
	cmp	DWORD PTR n$4[rsp], eax
	jge	$LN3@ImGui_Impl

; 102  :     {
; 103  :         const ImDrawList* cmd_list = draw_data->CmdLists[n];

	movsxd	rax, DWORD PTR n$4[rsp]
	mov	rcx, QWORD PTR draw_data$[rsp]
	mov	rcx, QWORD PTR [rcx+16]
	mov	rax, QWORD PTR [rcx+rax*8]
	mov	QWORD PTR cmd_list$11[rsp], rax

; 104  :         memcpy(vtx_dst, cmd_list->VtxBuffer.Data, cmd_list->VtxBuffer.Size * sizeof(ImDrawVert));

	mov	rax, QWORD PTR cmd_list$11[rsp]
	movsxd	rax, DWORD PTR [rax]
	imul	rax, rax, 20
	mov	r8, rax
	mov	rax, QWORD PTR cmd_list$11[rsp]
	mov	rdx, QWORD PTR [rax+8]
	mov	rcx, QWORD PTR vtx_dst$[rsp]
	call	memcpy

; 105  :         memcpy(idx_dst, cmd_list->IdxBuffer.Data, cmd_list->IdxBuffer.Size * sizeof(ImDrawIdx));

	mov	rax, QWORD PTR cmd_list$11[rsp]
	movsxd	rax, DWORD PTR [rax+40]
	shl	rax, 1
	mov	r8, rax
	mov	rax, QWORD PTR cmd_list$11[rsp]
	mov	rdx, QWORD PTR [rax+48]
	mov	rcx, QWORD PTR idx_dst$[rsp]
	call	memcpy

; 106  :         vtx_dst += cmd_list->VtxBuffer.Size;

	mov	rax, QWORD PTR cmd_list$11[rsp]
	movsxd	rax, DWORD PTR [rax]
	imul	rax, rax, 20
	mov	rcx, QWORD PTR vtx_dst$[rsp]
	add	rcx, rax
	mov	rax, rcx
	mov	QWORD PTR vtx_dst$[rsp], rax

; 107  :         idx_dst += cmd_list->IdxBuffer.Size;

	mov	rax, QWORD PTR cmd_list$11[rsp]
	movsxd	rax, DWORD PTR [rax+40]
	mov	rcx, QWORD PTR idx_dst$[rsp]
	lea	rax, QWORD PTR [rcx+rax*2]
	mov	QWORD PTR idx_dst$[rsp], rax

; 108  :     }

	jmp	$LN2@ImGui_Impl
$LN3@ImGui_Impl:

; 109  :     ctx->Unmap(g_pVB, 0);

	mov	rax, QWORD PTR ctx$[rsp]
	mov	rax, QWORD PTR [rax]
	mov	rax, QWORD PTR [rax+120]
	mov	QWORD PTR tv231[rsp], rax
	xor	r8d, r8d
	mov	rdx, QWORD PTR ?g_pVB@@3PEAUID3D11Buffer@@EA
	mov	rcx, QWORD PTR ctx$[rsp]
	call	QWORD PTR tv231[rsp]

; 110  :     ctx->Unmap(g_pIB, 0);

	mov	rax, QWORD PTR ctx$[rsp]
	mov	rax, QWORD PTR [rax]
	mov	rax, QWORD PTR [rax+120]
	mov	QWORD PTR tv242[rsp], rax
	xor	r8d, r8d
	mov	rdx, QWORD PTR ?g_pIB@@3PEAUID3D11Buffer@@EA
	mov	rcx, QWORD PTR ctx$[rsp]
	call	QWORD PTR tv242[rsp]
	npad	1

; 111  : 
; 112  :     // Setup orthographic projection matrix into our constant buffer
; 113  :     // Our visible imgui space lies from draw_data->DisplayPos (top left) to draw_data->DisplayPos+data_data->DisplaySize (bottom right).
; 114  :     {
; 115  :         D3D11_MAPPED_SUBRESOURCE mapped_resource;
; 116  :         if (ctx->Map(g_pVertexConstantBuffer, 0, D3D11_MAP_WRITE_DISCARD, 0, &mapped_resource) != S_OK)

	mov	rax, QWORD PTR ctx$[rsp]
	mov	rax, QWORD PTR [rax]
	mov	rax, QWORD PTR [rax+112]
	mov	QWORD PTR tv257[rsp], rax
	lea	rax, QWORD PTR mapped_resource$15[rsp]
	mov	QWORD PTR [rsp+40], rax
	mov	DWORD PTR [rsp+32], 0
	mov	r9d, 4
	xor	r8d, r8d
	mov	rdx, QWORD PTR ?g_pVertexConstantBuffer@@3PEAUID3D11Buffer@@EA
	mov	rcx, QWORD PTR ctx$[rsp]
	call	QWORD PTR tv257[rsp]
	test	eax, eax
	je	SHORT $LN27@ImGui_Impl

; 117  :             return;

	jmp	$LN1@ImGui_Impl
$LN27@ImGui_Impl:

; 118  :         VERTEX_CONSTANT_BUFFER* constant_buffer = (VERTEX_CONSTANT_BUFFER*)mapped_resource.pData;

	mov	rax, QWORD PTR mapped_resource$15[rsp]
	mov	QWORD PTR constant_buffer$13[rsp], rax

; 119  :         float L = draw_data->DisplayPos.x;

	mov	rax, QWORD PTR draw_data$[rsp]
	movss	xmm0, DWORD PTR [rax+8]
	movss	DWORD PTR L$7[rsp], xmm0

; 120  :         float R = draw_data->DisplayPos.x + draw_data->DisplaySize.x;

	mov	rax, QWORD PTR draw_data$[rsp]
	mov	rcx, QWORD PTR draw_data$[rsp]
	movss	xmm0, DWORD PTR [rax+8]
	addss	xmm0, DWORD PTR [rcx+32]
	movss	DWORD PTR R$8[rsp], xmm0

; 121  :         float T = draw_data->DisplayPos.y;

	mov	rax, QWORD PTR draw_data$[rsp]
	movss	xmm0, DWORD PTR [rax+12]
	movss	DWORD PTR T$10[rsp], xmm0

; 122  :         float B = draw_data->DisplayPos.y + draw_data->DisplaySize.y;

	mov	rax, QWORD PTR draw_data$[rsp]
	mov	rcx, QWORD PTR draw_data$[rsp]
	movss	xmm0, DWORD PTR [rax+12]
	addss	xmm0, DWORD PTR [rcx+36]
	movss	DWORD PTR B$9[rsp], xmm0

; 123  :         float mvp[4][4] =
; 124  :         {
; 125  :             { 2.0f / (R - L),   0.0f,           0.0f,       0.0f },

	movss	xmm0, DWORD PTR R$8[rsp]
	subss	xmm0, DWORD PTR L$7[rsp]
	movss	xmm1, DWORD PTR __real@40000000
	divss	xmm1, xmm0
	movaps	xmm0, xmm1
	movss	DWORD PTR mvp$19[rsp], xmm0
	xorps	xmm0, xmm0
	movss	DWORD PTR mvp$19[rsp+4], xmm0
	xorps	xmm0, xmm0
	movss	DWORD PTR mvp$19[rsp+8], xmm0
	xorps	xmm0, xmm0
	movss	DWORD PTR mvp$19[rsp+12], xmm0

; 126  :             { 0.0f,         2.0f / (T - B),     0.0f,       0.0f },

	xorps	xmm0, xmm0
	movss	DWORD PTR mvp$19[rsp+16], xmm0
	movss	xmm0, DWORD PTR T$10[rsp]
	subss	xmm0, DWORD PTR B$9[rsp]
	movss	xmm1, DWORD PTR __real@40000000
	divss	xmm1, xmm0
	movaps	xmm0, xmm1
	movss	DWORD PTR mvp$19[rsp+20], xmm0
	xorps	xmm0, xmm0
	movss	DWORD PTR mvp$19[rsp+24], xmm0
	xorps	xmm0, xmm0
	movss	DWORD PTR mvp$19[rsp+28], xmm0

; 127  :             { 0.0f,         0.0f,           0.5f,       0.0f },

	xorps	xmm0, xmm0
	movss	DWORD PTR mvp$19[rsp+32], xmm0
	xorps	xmm0, xmm0
	movss	DWORD PTR mvp$19[rsp+36], xmm0
	movss	xmm0, DWORD PTR __real@3f000000
	movss	DWORD PTR mvp$19[rsp+40], xmm0
	xorps	xmm0, xmm0
	movss	DWORD PTR mvp$19[rsp+44], xmm0

; 128  :             { (R + L) / (L - R),  (T + B) / (B - T),    0.5f,       1.0f },

	movss	xmm0, DWORD PTR R$8[rsp]
	addss	xmm0, DWORD PTR L$7[rsp]
	movss	xmm1, DWORD PTR L$7[rsp]
	subss	xmm1, DWORD PTR R$8[rsp]
	divss	xmm0, xmm1
	movss	DWORD PTR mvp$19[rsp+48], xmm0
	movss	xmm0, DWORD PTR T$10[rsp]
	addss	xmm0, DWORD PTR B$9[rsp]
	movss	xmm1, DWORD PTR B$9[rsp]
	subss	xmm1, DWORD PTR T$10[rsp]
	divss	xmm0, xmm1
	movss	DWORD PTR mvp$19[rsp+52], xmm0
	movss	xmm0, DWORD PTR __real@3f000000
	movss	DWORD PTR mvp$19[rsp+56], xmm0
	movss	xmm0, DWORD PTR __real@3f800000
	movss	DWORD PTR mvp$19[rsp+60], xmm0

; 129  :         };
; 130  :         memcpy(&constant_buffer->mvp, mvp, sizeof(mvp));

	mov	rax, QWORD PTR constant_buffer$13[rsp]
	mov	r8d, 64					; 00000040H
	lea	rdx, QWORD PTR mvp$19[rsp]
	mov	rcx, rax
	call	memcpy

; 131  :         ctx->Unmap(g_pVertexConstantBuffer, 0);

	mov	rax, QWORD PTR ctx$[rsp]
	mov	rax, QWORD PTR [rax]
	mov	rax, QWORD PTR [rax+120]
	mov	QWORD PTR tv361[rsp], rax
	xor	r8d, r8d
	mov	rdx, QWORD PTR ?g_pVertexConstantBuffer@@3PEAUID3D11Buffer@@EA
	mov	rcx, QWORD PTR ctx$[rsp]
	call	QWORD PTR tv361[rsp]
	npad	1

; 132  :     }
; 133  : 
; 134  :     // Backup DX state that will be modified to restore it afterwards (unfortunately this is very ugly looking and verbose. Close your eyes!)
; 135  :     struct BACKUP_DX11_STATE
; 136  :     {
; 137  :         UINT                        ScissorRectsCount, ViewportsCount;
; 138  :         D3D11_RECT                  ScissorRects[D3D11_VIEWPORT_AND_SCISSORRECT_OBJECT_COUNT_PER_PIPELINE];
; 139  :         D3D11_VIEWPORT              Viewports[D3D11_VIEWPORT_AND_SCISSORRECT_OBJECT_COUNT_PER_PIPELINE];
; 140  :         ID3D11RasterizerState* RS;
; 141  :         ID3D11BlendState* BlendState;
; 142  :         FLOAT                       BlendFactor[4];
; 143  :         UINT                        SampleMask;
; 144  :         UINT                        StencilRef;
; 145  :         ID3D11DepthStencilState* DepthStencilState;
; 146  :         ID3D11ShaderResourceView* PSShaderResource;
; 147  :         ID3D11SamplerState* PSSampler;
; 148  :         ID3D11PixelShader* PS;
; 149  :         ID3D11VertexShader* VS;
; 150  :         UINT                        PSInstancesCount, VSInstancesCount;
; 151  :         ID3D11ClassInstance* PSInstances[256], * VSInstances[256];   // 256 is max according to PSSetShader documentation
; 152  :         D3D11_PRIMITIVE_TOPOLOGY    PrimitiveTopology;
; 153  :         ID3D11Buffer* IndexBuffer, * VertexBuffer, * VSConstantBuffer;
; 154  :         UINT                        IndexBufferOffset, VertexBufferStride, VertexBufferOffset;
; 155  :         DXGI_FORMAT                 IndexBufferFormat;
; 156  :         ID3D11InputLayout* InputLayout;
; 157  :     };
; 158  :     BACKUP_DX11_STATE old;
; 159  :     old.ScissorRectsCount = old.ViewportsCount = D3D11_VIEWPORT_AND_SCISSORRECT_OBJECT_COUNT_PER_PIPELINE;

	mov	DWORD PTR old$[rsp+4], 16
	mov	eax, DWORD PTR old$[rsp+4]
	mov	DWORD PTR old$[rsp], eax

; 160  :     ctx->RSGetScissorRects(&old.ScissorRectsCount, old.ScissorRects);

	mov	rax, QWORD PTR ctx$[rsp]
	mov	rax, QWORD PTR [rax]
	mov	rax, QWORD PTR [rax+768]
	mov	QWORD PTR tv368[rsp], rax
	lea	r8, QWORD PTR old$[rsp+8]
	lea	rdx, QWORD PTR old$[rsp]
	mov	rcx, QWORD PTR ctx$[rsp]
	call	QWORD PTR tv368[rsp]

; 161  :     ctx->RSGetViewports(&old.ViewportsCount, old.Viewports);

	mov	rax, QWORD PTR ctx$[rsp]
	mov	rax, QWORD PTR [rax]
	mov	rax, QWORD PTR [rax+760]
	mov	QWORD PTR tv375[rsp], rax
	lea	r8, QWORD PTR old$[rsp+264]
	lea	rdx, QWORD PTR old$[rsp+4]
	mov	rcx, QWORD PTR ctx$[rsp]
	call	QWORD PTR tv375[rsp]

; 162  :     ctx->RSGetState(&old.RS);

	mov	rax, QWORD PTR ctx$[rsp]
	mov	rax, QWORD PTR [rax]
	mov	rax, QWORD PTR [rax+752]
	mov	QWORD PTR tv381[rsp], rax
	lea	rdx, QWORD PTR old$[rsp+648]
	mov	rcx, QWORD PTR ctx$[rsp]
	call	QWORD PTR tv381[rsp]

; 163  :     ctx->OMGetBlendState(&old.BlendState, old.BlendFactor, &old.SampleMask);

	mov	rax, QWORD PTR ctx$[rsp]
	mov	rax, QWORD PTR [rax]
	mov	rax, QWORD PTR [rax+728]
	mov	QWORD PTR tv389[rsp], rax
	lea	r9, QWORD PTR old$[rsp+680]
	lea	r8, QWORD PTR old$[rsp+664]
	lea	rdx, QWORD PTR old$[rsp+656]
	mov	rcx, QWORD PTR ctx$[rsp]
	call	QWORD PTR tv389[rsp]

; 164  :     ctx->OMGetDepthStencilState(&old.DepthStencilState, &old.StencilRef);

	mov	rax, QWORD PTR ctx$[rsp]
	mov	rax, QWORD PTR [rax]
	mov	rax, QWORD PTR [rax+736]
	mov	QWORD PTR tv396[rsp], rax
	lea	r8, QWORD PTR old$[rsp+684]
	lea	rdx, QWORD PTR old$[rsp+688]
	mov	rcx, QWORD PTR ctx$[rsp]
	call	QWORD PTR tv396[rsp]

; 165  :     ctx->PSGetShaderResources(0, 1, &old.PSShaderResource);

	mov	rax, QWORD PTR ctx$[rsp]
	mov	rax, QWORD PTR [rax]
	mov	rax, QWORD PTR [rax+584]
	mov	QWORD PTR tv404[rsp], rax
	lea	r9, QWORD PTR old$[rsp+696]
	mov	r8d, 1
	xor	edx, edx
	mov	rcx, QWORD PTR ctx$[rsp]
	call	QWORD PTR tv404[rsp]

; 166  :     ctx->PSGetSamplers(0, 1, &old.PSSampler);

	mov	rax, QWORD PTR ctx$[rsp]
	mov	rax, QWORD PTR [rax]
	mov	rax, QWORD PTR [rax+600]
	mov	QWORD PTR tv412[rsp], rax
	lea	r9, QWORD PTR old$[rsp+704]
	mov	r8d, 1
	xor	edx, edx
	mov	rcx, QWORD PTR ctx$[rsp]
	call	QWORD PTR tv412[rsp]

; 167  :     old.PSInstancesCount = old.VSInstancesCount = 256;

	mov	DWORD PTR old$[rsp+732], 256		; 00000100H
	mov	eax, DWORD PTR old$[rsp+732]
	mov	DWORD PTR old$[rsp+728], eax

; 168  :     ctx->PSGetShader(&old.PS, old.PSInstances, &old.PSInstancesCount);

	mov	rax, QWORD PTR ctx$[rsp]
	mov	rax, QWORD PTR [rax]
	mov	rax, QWORD PTR [rax+592]
	mov	QWORD PTR tv420[rsp], rax
	lea	r9, QWORD PTR old$[rsp+728]
	lea	r8, QWORD PTR old$[rsp+736]
	lea	rdx, QWORD PTR old$[rsp+712]
	mov	rcx, QWORD PTR ctx$[rsp]
	call	QWORD PTR tv420[rsp]

; 169  :     ctx->VSGetShader(&old.VS, old.VSInstances, &old.VSInstancesCount);

	mov	rax, QWORD PTR ctx$[rsp]
	mov	rax, QWORD PTR [rax]
	mov	rax, QWORD PTR [rax+608]
	mov	QWORD PTR tv428[rsp], rax
	lea	r9, QWORD PTR old$[rsp+732]
	lea	r8, QWORD PTR old$[rsp+2784]
	lea	rdx, QWORD PTR old$[rsp+720]
	mov	rcx, QWORD PTR ctx$[rsp]
	call	QWORD PTR tv428[rsp]

; 170  :     ctx->VSGetConstantBuffers(0, 1, &old.VSConstantBuffer);

	mov	rax, QWORD PTR ctx$[rsp]
	mov	rax, QWORD PTR [rax]
	mov	rax, QWORD PTR [rax+576]
	mov	QWORD PTR tv436[rsp], rax
	lea	r9, QWORD PTR old$[rsp+4856]
	mov	r8d, 1
	xor	edx, edx
	mov	rcx, QWORD PTR ctx$[rsp]
	call	QWORD PTR tv436[rsp]

; 171  :     ctx->IAGetPrimitiveTopology(&old.PrimitiveTopology);

	mov	rax, QWORD PTR ctx$[rsp]
	mov	rax, QWORD PTR [rax]
	mov	rax, QWORD PTR [rax+664]
	mov	QWORD PTR tv442[rsp], rax
	lea	rdx, QWORD PTR old$[rsp+4832]
	mov	rcx, QWORD PTR ctx$[rsp]
	call	QWORD PTR tv442[rsp]

; 172  :     ctx->IAGetIndexBuffer(&old.IndexBuffer, &old.IndexBufferFormat, &old.IndexBufferOffset);

	mov	rax, QWORD PTR ctx$[rsp]
	mov	rax, QWORD PTR [rax]
	mov	rax, QWORD PTR [rax+640]
	mov	QWORD PTR tv450[rsp], rax
	lea	r9, QWORD PTR old$[rsp+4864]
	lea	r8, QWORD PTR old$[rsp+4876]
	lea	rdx, QWORD PTR old$[rsp+4840]
	mov	rcx, QWORD PTR ctx$[rsp]
	call	QWORD PTR tv450[rsp]

; 173  :     ctx->IAGetVertexBuffers(0, 1, &old.VertexBuffer, &old.VertexBufferStride, &old.VertexBufferOffset);

	mov	rax, QWORD PTR ctx$[rsp]
	mov	rax, QWORD PTR [rax]
	mov	rax, QWORD PTR [rax+632]
	mov	QWORD PTR tv460[rsp], rax
	lea	rax, QWORD PTR old$[rsp+4872]
	mov	QWORD PTR [rsp+40], rax
	lea	rax, QWORD PTR old$[rsp+4868]
	mov	QWORD PTR [rsp+32], rax
	lea	r9, QWORD PTR old$[rsp+4848]
	mov	r8d, 1
	xor	edx, edx
	mov	rcx, QWORD PTR ctx$[rsp]
	call	QWORD PTR tv460[rsp]

; 174  :     ctx->IAGetInputLayout(&old.InputLayout);

	mov	rax, QWORD PTR ctx$[rsp]
	mov	rax, QWORD PTR [rax]
	mov	rax, QWORD PTR [rax+624]
	mov	QWORD PTR tv466[rsp], rax
	lea	rdx, QWORD PTR old$[rsp+4880]
	mov	rcx, QWORD PTR ctx$[rsp]
	call	QWORD PTR tv466[rsp]

; 175  : 
; 176  :     // Setup viewport
; 177  :     D3D11_VIEWPORT vp;
; 178  :     memset(&vp, 0, sizeof(D3D11_VIEWPORT));

	mov	r8d, 24
	xor	edx, edx
	lea	rcx, QWORD PTR vp$[rsp]
	call	memset

; 179  :     vp.Width = draw_data->DisplaySize.x;

	mov	rax, QWORD PTR draw_data$[rsp]
	movss	xmm0, DWORD PTR [rax+32]
	movss	DWORD PTR vp$[rsp+8], xmm0

; 180  :     vp.Height = draw_data->DisplaySize.y;

	mov	rax, QWORD PTR draw_data$[rsp]
	movss	xmm0, DWORD PTR [rax+36]
	movss	DWORD PTR vp$[rsp+12], xmm0

; 181  :     vp.MinDepth = 0.0f;

	xorps	xmm0, xmm0
	movss	DWORD PTR vp$[rsp+16], xmm0

; 182  :     vp.MaxDepth = 1.0f;

	movss	xmm0, DWORD PTR __real@3f800000
	movss	DWORD PTR vp$[rsp+20], xmm0

; 183  :     vp.TopLeftX = vp.TopLeftY = 0;

	xorps	xmm0, xmm0
	movss	DWORD PTR vp$[rsp+4], xmm0
	movss	xmm0, DWORD PTR vp$[rsp+4]
	movss	DWORD PTR vp$[rsp], xmm0

; 184  :     ctx->RSSetViewports(1, &vp);

	mov	rax, QWORD PTR ctx$[rsp]
	mov	rax, QWORD PTR [rax]
	mov	rax, QWORD PTR [rax+352]
	mov	QWORD PTR tv512[rsp], rax
	lea	r8, QWORD PTR vp$[rsp]
	mov	edx, 1
	mov	rcx, QWORD PTR ctx$[rsp]
	call	QWORD PTR tv512[rsp]

; 185  : 
; 186  :     // Bind shader and vertex buffers
; 187  :     unsigned int stride = sizeof(ImDrawVert);

	mov	DWORD PTR stride$[rsp], 20

; 188  :     unsigned int offset = 0;

	mov	DWORD PTR offset$[rsp], 0

; 189  :     ctx->IASetInputLayout(g_pInputLayout);

	mov	rax, QWORD PTR ctx$[rsp]
	mov	rax, QWORD PTR [rax]
	mov	rax, QWORD PTR [rax+136]
	mov	QWORD PTR tv518[rsp], rax
	mov	rdx, QWORD PTR ?g_pInputLayout@@3PEAUID3D11InputLayout@@EA
	mov	rcx, QWORD PTR ctx$[rsp]
	call	QWORD PTR tv518[rsp]

; 190  :     ctx->IASetVertexBuffers(0, 1, &g_pVB, &stride, &offset);

	mov	rax, QWORD PTR ctx$[rsp]
	mov	rax, QWORD PTR [rax]
	mov	rax, QWORD PTR [rax+144]
	mov	QWORD PTR tv528[rsp], rax
	lea	rax, QWORD PTR offset$[rsp]
	mov	QWORD PTR [rsp+40], rax
	lea	rax, QWORD PTR stride$[rsp]
	mov	QWORD PTR [rsp+32], rax
	lea	r9, OFFSET FLAT:?g_pVB@@3PEAUID3D11Buffer@@EA
	mov	r8d, 1
	xor	edx, edx
	mov	rcx, QWORD PTR ctx$[rsp]
	call	QWORD PTR tv528[rsp]

; 191  :     ctx->IASetIndexBuffer(g_pIB, sizeof(ImDrawIdx) == 2 ? DXGI_FORMAT_R16_UINT : DXGI_FORMAT_R32_UINT, 0);

	mov	rax, QWORD PTR ctx$[rsp]
	mov	rax, QWORD PTR [rax]
	mov	rax, QWORD PTR [rax+152]
	mov	QWORD PTR tv536[rsp], rax
	xor	r9d, r9d
	mov	r8d, 57					; 00000039H
	mov	rdx, QWORD PTR ?g_pIB@@3PEAUID3D11Buffer@@EA
	mov	rcx, QWORD PTR ctx$[rsp]
	call	QWORD PTR tv536[rsp]

; 192  :     ctx->IASetPrimitiveTopology(D3D11_PRIMITIVE_TOPOLOGY_TRIANGLELIST);

	mov	rax, QWORD PTR ctx$[rsp]
	mov	rax, QWORD PTR [rax]
	mov	rax, QWORD PTR [rax+192]
	mov	QWORD PTR tv542[rsp], rax
	mov	edx, 4
	mov	rcx, QWORD PTR ctx$[rsp]
	call	QWORD PTR tv542[rsp]

; 193  :     ctx->VSSetShader(g_pVertexShader, NULL, 0);

	mov	rax, QWORD PTR ctx$[rsp]
	mov	rax, QWORD PTR [rax]
	mov	rax, QWORD PTR [rax+88]
	mov	QWORD PTR tv550[rsp], rax
	xor	r9d, r9d
	xor	r8d, r8d
	mov	rdx, QWORD PTR ?g_pVertexShader@@3PEAUID3D11VertexShader@@EA
	mov	rcx, QWORD PTR ctx$[rsp]
	call	QWORD PTR tv550[rsp]

; 194  :     ctx->VSSetConstantBuffers(0, 1, &g_pVertexConstantBuffer);

	mov	rax, QWORD PTR ctx$[rsp]
	mov	rax, QWORD PTR [rax]
	mov	rax, QWORD PTR [rax+56]
	mov	QWORD PTR tv558[rsp], rax
	lea	r9, OFFSET FLAT:?g_pVertexConstantBuffer@@3PEAUID3D11Buffer@@EA
	mov	r8d, 1
	xor	edx, edx
	mov	rcx, QWORD PTR ctx$[rsp]
	call	QWORD PTR tv558[rsp]

; 195  :     ctx->PSSetShader(g_pPixelShader, NULL, 0);

	mov	rax, QWORD PTR ctx$[rsp]
	mov	rax, QWORD PTR [rax]
	mov	rax, QWORD PTR [rax+72]
	mov	QWORD PTR tv566[rsp], rax
	xor	r9d, r9d
	xor	r8d, r8d
	mov	rdx, QWORD PTR ?g_pPixelShader@@3PEAUID3D11PixelShader@@EA
	mov	rcx, QWORD PTR ctx$[rsp]
	call	QWORD PTR tv566[rsp]

; 196  :     ctx->PSSetSamplers(0, 1, &g_pFontSampler);

	mov	rax, QWORD PTR ctx$[rsp]
	mov	rax, QWORD PTR [rax]
	mov	rax, QWORD PTR [rax+80]
	mov	QWORD PTR tv574[rsp], rax
	lea	r9, OFFSET FLAT:?g_pFontSampler@@3PEAUID3D11SamplerState@@EA
	mov	r8d, 1
	xor	edx, edx
	mov	rcx, QWORD PTR ctx$[rsp]
	call	QWORD PTR tv574[rsp]

; 197  : 
; 198  :     // Setup render state
; 199  :     const float blend_factor[4] = { 0.f, 0.f, 0.f, 0.f };

	xorps	xmm0, xmm0
	movss	DWORD PTR blend_factor$[rsp], xmm0
	xorps	xmm0, xmm0
	movss	DWORD PTR blend_factor$[rsp+4], xmm0
	xorps	xmm0, xmm0
	movss	DWORD PTR blend_factor$[rsp+8], xmm0
	xorps	xmm0, xmm0
	movss	DWORD PTR blend_factor$[rsp+12], xmm0

; 200  :     ctx->OMSetBlendState(g_pBlendState, blend_factor, 0xffffffff);

	mov	rax, QWORD PTR ctx$[rsp]
	mov	rax, QWORD PTR [rax]
	mov	rax, QWORD PTR [rax+280]
	mov	QWORD PTR tv582[rsp], rax
	mov	r9d, -1					; ffffffffH
	lea	r8, QWORD PTR blend_factor$[rsp]
	mov	rdx, QWORD PTR ?g_pBlendState@@3PEAUID3D11BlendState@@EA
	mov	rcx, QWORD PTR ctx$[rsp]
	call	QWORD PTR tv582[rsp]

; 201  :     ctx->OMSetDepthStencilState(g_pDepthStencilState, 0);

	mov	rax, QWORD PTR ctx$[rsp]
	mov	rax, QWORD PTR [rax]
	mov	rax, QWORD PTR [rax+288]
	mov	QWORD PTR tv589[rsp], rax
	xor	r8d, r8d
	mov	rdx, QWORD PTR ?g_pDepthStencilState@@3PEAUID3D11DepthStencilState@@EA
	mov	rcx, QWORD PTR ctx$[rsp]
	call	QWORD PTR tv589[rsp]

; 202  :     ctx->RSSetState(g_pRasterizerState);

	mov	rax, QWORD PTR ctx$[rsp]
	mov	rax, QWORD PTR [rax]
	mov	rax, QWORD PTR [rax+344]
	mov	QWORD PTR tv595[rsp], rax
	mov	rdx, QWORD PTR ?g_pRasterizerState@@3PEAUID3D11RasterizerState@@EA
	mov	rcx, QWORD PTR ctx$[rsp]
	call	QWORD PTR tv595[rsp]

; 203  : 
; 204  :     // Render command lists
; 205  :     int vtx_offset = 0;

	mov	DWORD PTR vtx_offset$[rsp], 0

; 206  :     int idx_offset = 0;

	mov	DWORD PTR idx_offset$[rsp], 0

; 207  :     ImVec2 clip_off = draw_data->DisplayPos;

	mov	rax, QWORD PTR draw_data$[rsp]
	mov	rax, QWORD PTR [rax+8]
	mov	QWORD PTR clip_off$[rsp], rax

; 208  :     for (int n = 0; n < draw_data->CmdListsCount; n++)

	mov	DWORD PTR n$5[rsp], 0
	jmp	SHORT $LN7@ImGui_Impl
$LN5@ImGui_Impl:
	mov	eax, DWORD PTR n$5[rsp]
	inc	eax
	mov	DWORD PTR n$5[rsp], eax
$LN7@ImGui_Impl:
	mov	rax, QWORD PTR draw_data$[rsp]
	mov	eax, DWORD PTR [rax+4]
	cmp	DWORD PTR n$5[rsp], eax
	jge	$LN6@ImGui_Impl

; 209  :     {
; 210  :         const ImDrawList* cmd_list = draw_data->CmdLists[n];

	movsxd	rax, DWORD PTR n$5[rsp]
	mov	rcx, QWORD PTR draw_data$[rsp]
	mov	rcx, QWORD PTR [rcx+16]
	mov	rax, QWORD PTR [rcx+rax*8]
	mov	QWORD PTR cmd_list$12[rsp], rax

; 211  :         for (int cmd_i = 0; cmd_i < cmd_list->CmdBuffer.Size; cmd_i++)

	mov	DWORD PTR cmd_i$6[rsp], 0
	jmp	SHORT $LN10@ImGui_Impl
$LN8@ImGui_Impl:
	mov	eax, DWORD PTR cmd_i$6[rsp]
	inc	eax
	mov	DWORD PTR cmd_i$6[rsp], eax
$LN10@ImGui_Impl:
	mov	rax, QWORD PTR cmd_list$12[rsp]
	mov	eax, DWORD PTR [rax+24]
	cmp	DWORD PTR cmd_i$6[rsp], eax
	jge	$LN9@ImGui_Impl

; 212  :         {
; 213  :             const ImDrawCmd* pcmd = &cmd_list->CmdBuffer[cmd_i];

	mov	rax, QWORD PTR cmd_list$12[rsp]
	add	rax, 24
	mov	QWORD PTR tv614[rsp], rax
	mov	edx, DWORD PTR cmd_i$6[rsp]
	mov	rcx, QWORD PTR tv614[rsp]
	call	??A?$ImVector@UImDrawCmd@@@@QEBAAEBUImDrawCmd@@H@Z ; ImVector<ImDrawCmd>::operator[]
	mov	QWORD PTR pcmd$3[rsp], rax

; 214  :             if (pcmd->UserCallback)

	mov	rax, QWORD PTR pcmd$3[rsp]
	cmp	QWORD PTR [rax+32], 0
	je	SHORT $LN28@ImGui_Impl

; 215  :             {
; 216  :                 // User callback (registered via ImDrawList::AddCallback)
; 217  :                 pcmd->UserCallback(cmd_list, pcmd);

	mov	rax, QWORD PTR pcmd$3[rsp]
	mov	rax, QWORD PTR [rax+32]
	mov	QWORD PTR tv621[rsp], rax
	mov	rdx, QWORD PTR pcmd$3[rsp]
	mov	rcx, QWORD PTR cmd_list$12[rsp]
	call	QWORD PTR tv621[rsp]
	npad	1

; 218  :             }

	jmp	$LN29@ImGui_Impl
$LN28@ImGui_Impl:

; 219  :             else
; 220  :             {
; 221  :                 // Apply scissor/clipping rectangle
; 222  :                 const D3D11_RECT r = { (LONG)(pcmd->ClipRect.x - clip_off.x), (LONG)(pcmd->ClipRect.y - clip_off.y), (LONG)(pcmd->ClipRect.z - clip_off.x), (LONG)(pcmd->ClipRect.w - clip_off.y) };

	mov	rax, QWORD PTR pcmd$3[rsp]
	movss	xmm0, DWORD PTR [rax+12]
	subss	xmm0, DWORD PTR clip_off$[rsp]
	cvttss2si eax, xmm0
	mov	DWORD PTR r$16[rsp], eax
	mov	rax, QWORD PTR pcmd$3[rsp]
	movss	xmm0, DWORD PTR [rax+16]
	subss	xmm0, DWORD PTR clip_off$[rsp+4]
	cvttss2si eax, xmm0
	mov	DWORD PTR r$16[rsp+4], eax
	mov	rax, QWORD PTR pcmd$3[rsp]
	movss	xmm0, DWORD PTR [rax+20]
	subss	xmm0, DWORD PTR clip_off$[rsp]
	cvttss2si eax, xmm0
	mov	DWORD PTR r$16[rsp+8], eax
	mov	rax, QWORD PTR pcmd$3[rsp]
	movss	xmm0, DWORD PTR [rax+24]
	subss	xmm0, DWORD PTR clip_off$[rsp+4]
	cvttss2si eax, xmm0
	mov	DWORD PTR r$16[rsp+12], eax

; 223  :                 ctx->RSSetScissorRects(1, &r);

	mov	rax, QWORD PTR ctx$[rsp]
	mov	rax, QWORD PTR [rax]
	mov	rax, QWORD PTR [rax+360]
	mov	QWORD PTR tv680[rsp], rax
	lea	r8, QWORD PTR r$16[rsp]
	mov	edx, 1
	mov	rcx, QWORD PTR ctx$[rsp]
	call	QWORD PTR tv680[rsp]

; 224  : 
; 225  :                 // Bind texture, Draw
; 226  :                 ID3D11ShaderResourceView* texture_srv = (ID3D11ShaderResourceView*)pcmd->TextureId;

	mov	rax, QWORD PTR pcmd$3[rsp]
	mov	rax, QWORD PTR [rax]
	mov	QWORD PTR texture_srv$14[rsp], rax

; 227  :                 ctx->PSSetShaderResources(0, 1, &texture_srv);

	mov	rax, QWORD PTR ctx$[rsp]
	mov	rax, QWORD PTR [rax]
	mov	rax, QWORD PTR [rax+64]
	mov	QWORD PTR tv689[rsp], rax
	lea	r9, QWORD PTR texture_srv$14[rsp]
	mov	r8d, 1
	xor	edx, edx
	mov	rcx, QWORD PTR ctx$[rsp]
	call	QWORD PTR tv689[rsp]

; 228  :                 ctx->DrawIndexed(pcmd->ElemCount, idx_offset, vtx_offset);

	mov	rax, QWORD PTR ctx$[rsp]
	mov	rax, QWORD PTR [rax]
	mov	rax, QWORD PTR [rax+96]
	mov	QWORD PTR tv698[rsp], rax
	mov	r9d, DWORD PTR vtx_offset$[rsp]
	mov	r8d, DWORD PTR idx_offset$[rsp]
	mov	rax, QWORD PTR pcmd$3[rsp]
	mov	edx, DWORD PTR [rax+8]
	mov	rcx, QWORD PTR ctx$[rsp]
	call	QWORD PTR tv698[rsp]
	npad	1
$LN29@ImGui_Impl:

; 229  :             }
; 230  :             idx_offset += pcmd->ElemCount;

	mov	rax, QWORD PTR pcmd$3[rsp]
	mov	eax, DWORD PTR [rax+8]
	mov	ecx, DWORD PTR idx_offset$[rsp]
	add	ecx, eax
	mov	eax, ecx
	mov	DWORD PTR idx_offset$[rsp], eax

; 231  :         }

	jmp	$LN8@ImGui_Impl
$LN9@ImGui_Impl:

; 232  :         vtx_offset += cmd_list->VtxBuffer.Size;

	mov	rax, QWORD PTR cmd_list$12[rsp]
	mov	eax, DWORD PTR [rax]
	mov	ecx, DWORD PTR vtx_offset$[rsp]
	add	ecx, eax
	mov	eax, ecx
	mov	DWORD PTR vtx_offset$[rsp], eax

; 233  :     }

	jmp	$LN5@ImGui_Impl
$LN6@ImGui_Impl:

; 234  : 
; 235  :     // Restore modified DX state
; 236  :     ctx->RSSetScissorRects(old.ScissorRectsCount, old.ScissorRects);

	mov	rax, QWORD PTR ctx$[rsp]
	mov	rax, QWORD PTR [rax]
	mov	rax, QWORD PTR [rax+360]
	mov	QWORD PTR tv710[rsp], rax
	lea	r8, QWORD PTR old$[rsp+8]
	mov	edx, DWORD PTR old$[rsp]
	mov	rcx, QWORD PTR ctx$[rsp]
	call	QWORD PTR tv710[rsp]

; 237  :     ctx->RSSetViewports(old.ViewportsCount, old.Viewports);

	mov	rax, QWORD PTR ctx$[rsp]
	mov	rax, QWORD PTR [rax]
	mov	rax, QWORD PTR [rax+352]
	mov	QWORD PTR tv717[rsp], rax
	lea	r8, QWORD PTR old$[rsp+264]
	mov	edx, DWORD PTR old$[rsp+4]
	mov	rcx, QWORD PTR ctx$[rsp]
	call	QWORD PTR tv717[rsp]

; 238  :     ctx->RSSetState(old.RS); if (old.RS) old.RS->Release();

	mov	rax, QWORD PTR ctx$[rsp]
	mov	rax, QWORD PTR [rax]
	mov	rax, QWORD PTR [rax+344]
	mov	QWORD PTR tv723[rsp], rax
	mov	rdx, QWORD PTR old$[rsp+648]
	mov	rcx, QWORD PTR ctx$[rsp]
	call	QWORD PTR tv723[rsp]
	npad	1
	cmp	QWORD PTR old$[rsp+648], 0
	je	SHORT $LN30@ImGui_Impl
	mov	rax, QWORD PTR old$[rsp+648]
	mov	rax, QWORD PTR [rax]
	mov	rcx, QWORD PTR old$[rsp+648]
	call	QWORD PTR [rax+16]
	npad	1
$LN30@ImGui_Impl:

; 239  :     ctx->OMSetBlendState(old.BlendState, old.BlendFactor, old.SampleMask); if (old.BlendState) old.BlendState->Release();

	mov	rax, QWORD PTR ctx$[rsp]
	mov	rax, QWORD PTR [rax]
	mov	rax, QWORD PTR [rax+280]
	mov	QWORD PTR tv739[rsp], rax
	mov	r9d, DWORD PTR old$[rsp+680]
	lea	r8, QWORD PTR old$[rsp+664]
	mov	rdx, QWORD PTR old$[rsp+656]
	mov	rcx, QWORD PTR ctx$[rsp]
	call	QWORD PTR tv739[rsp]
	npad	1
	cmp	QWORD PTR old$[rsp+656], 0
	je	SHORT $LN31@ImGui_Impl
	mov	rax, QWORD PTR old$[rsp+656]
	mov	rax, QWORD PTR [rax]
	mov	rcx, QWORD PTR old$[rsp+656]
	call	QWORD PTR [rax+16]
	npad	1
$LN31@ImGui_Impl:

; 240  :     ctx->OMSetDepthStencilState(old.DepthStencilState, old.StencilRef); if (old.DepthStencilState) old.DepthStencilState->Release();

	mov	rax, QWORD PTR ctx$[rsp]
	mov	rax, QWORD PTR [rax]
	mov	rax, QWORD PTR [rax+288]
	mov	QWORD PTR tv754[rsp], rax
	mov	r8d, DWORD PTR old$[rsp+684]
	mov	rdx, QWORD PTR old$[rsp+688]
	mov	rcx, QWORD PTR ctx$[rsp]
	call	QWORD PTR tv754[rsp]
	npad	1
	cmp	QWORD PTR old$[rsp+688], 0
	je	SHORT $LN32@ImGui_Impl
	mov	rax, QWORD PTR old$[rsp+688]
	mov	rax, QWORD PTR [rax]
	mov	rcx, QWORD PTR old$[rsp+688]
	call	QWORD PTR [rax+16]
	npad	1
$LN32@ImGui_Impl:

; 241  :     ctx->PSSetShaderResources(0, 1, &old.PSShaderResource); if (old.PSShaderResource) old.PSShaderResource->Release();

	mov	rax, QWORD PTR ctx$[rsp]
	mov	rax, QWORD PTR [rax]
	mov	rax, QWORD PTR [rax+64]
	mov	QWORD PTR tv770[rsp], rax
	lea	r9, QWORD PTR old$[rsp+696]
	mov	r8d, 1
	xor	edx, edx
	mov	rcx, QWORD PTR ctx$[rsp]
	call	QWORD PTR tv770[rsp]
	npad	1
	cmp	QWORD PTR old$[rsp+696], 0
	je	SHORT $LN33@ImGui_Impl
	mov	rax, QWORD PTR old$[rsp+696]
	mov	rax, QWORD PTR [rax]
	mov	rcx, QWORD PTR old$[rsp+696]
	call	QWORD PTR [rax+16]
	npad	1
$LN33@ImGui_Impl:

; 242  :     ctx->PSSetSamplers(0, 1, &old.PSSampler); if (old.PSSampler) old.PSSampler->Release();

	mov	rax, QWORD PTR ctx$[rsp]
	mov	rax, QWORD PTR [rax]
	mov	rax, QWORD PTR [rax+80]
	mov	QWORD PTR tv786[rsp], rax
	lea	r9, QWORD PTR old$[rsp+704]
	mov	r8d, 1
	xor	edx, edx
	mov	rcx, QWORD PTR ctx$[rsp]
	call	QWORD PTR tv786[rsp]
	npad	1
	cmp	QWORD PTR old$[rsp+704], 0
	je	SHORT $LN34@ImGui_Impl
	mov	rax, QWORD PTR old$[rsp+704]
	mov	rax, QWORD PTR [rax]
	mov	rcx, QWORD PTR old$[rsp+704]
	call	QWORD PTR [rax+16]
	npad	1
$LN34@ImGui_Impl:

; 243  :     ctx->PSSetShader(old.PS, old.PSInstances, old.PSInstancesCount); if (old.PS) old.PS->Release();

	mov	rax, QWORD PTR ctx$[rsp]
	mov	rax, QWORD PTR [rax]
	mov	rax, QWORD PTR [rax+72]
	mov	QWORD PTR tv802[rsp], rax
	mov	r9d, DWORD PTR old$[rsp+728]
	lea	r8, QWORD PTR old$[rsp+736]
	mov	rdx, QWORD PTR old$[rsp+712]
	mov	rcx, QWORD PTR ctx$[rsp]
	call	QWORD PTR tv802[rsp]
	npad	1
	cmp	QWORD PTR old$[rsp+712], 0
	je	SHORT $LN35@ImGui_Impl
	mov	rax, QWORD PTR old$[rsp+712]
	mov	rax, QWORD PTR [rax]
	mov	rcx, QWORD PTR old$[rsp+712]
	call	QWORD PTR [rax+16]
	npad	1
$LN35@ImGui_Impl:

; 244  :     for (UINT i = 0; i < old.PSInstancesCount; i++) if (old.PSInstances[i]) old.PSInstances[i]->Release();

	mov	DWORD PTR i$1[rsp], 0
	jmp	SHORT $LN13@ImGui_Impl
$LN11@ImGui_Impl:
	mov	eax, DWORD PTR i$1[rsp]
	inc	eax
	mov	DWORD PTR i$1[rsp], eax
$LN13@ImGui_Impl:
	mov	eax, DWORD PTR old$[rsp+728]
	cmp	DWORD PTR i$1[rsp], eax
	jae	SHORT $LN12@ImGui_Impl
	mov	eax, DWORD PTR i$1[rsp]
	cmp	QWORD PTR old$[rsp+rax*8+736], 0
	je	SHORT $LN36@ImGui_Impl
	mov	eax, DWORD PTR i$1[rsp]
	mov	rax, QWORD PTR old$[rsp+rax*8+736]
	mov	ecx, DWORD PTR i$1[rsp]
	mov	rcx, QWORD PTR old$[rsp+rcx*8+736]
	mov	rax, QWORD PTR [rax]
	call	QWORD PTR [rax+16]
	npad	1
$LN36@ImGui_Impl:
	jmp	SHORT $LN11@ImGui_Impl
$LN12@ImGui_Impl:

; 245  :     ctx->VSSetShader(old.VS, old.VSInstances, old.VSInstancesCount); if (old.VS) old.VS->Release();

	mov	rax, QWORD PTR ctx$[rsp]
	mov	rax, QWORD PTR [rax]
	mov	rax, QWORD PTR [rax+88]
	mov	QWORD PTR tv839[rsp], rax
	mov	r9d, DWORD PTR old$[rsp+732]
	lea	r8, QWORD PTR old$[rsp+2784]
	mov	rdx, QWORD PTR old$[rsp+720]
	mov	rcx, QWORD PTR ctx$[rsp]
	call	QWORD PTR tv839[rsp]
	npad	1
	cmp	QWORD PTR old$[rsp+720], 0
	je	SHORT $LN37@ImGui_Impl
	mov	rax, QWORD PTR old$[rsp+720]
	mov	rax, QWORD PTR [rax]
	mov	rcx, QWORD PTR old$[rsp+720]
	call	QWORD PTR [rax+16]
	npad	1
$LN37@ImGui_Impl:

; 246  :     ctx->VSSetConstantBuffers(0, 1, &old.VSConstantBuffer); if (old.VSConstantBuffer) old.VSConstantBuffer->Release();

	mov	rax, QWORD PTR ctx$[rsp]
	mov	rax, QWORD PTR [rax]
	mov	rax, QWORD PTR [rax+56]
	mov	QWORD PTR tv855[rsp], rax
	lea	r9, QWORD PTR old$[rsp+4856]
	mov	r8d, 1
	xor	edx, edx
	mov	rcx, QWORD PTR ctx$[rsp]
	call	QWORD PTR tv855[rsp]
	npad	1
	cmp	QWORD PTR old$[rsp+4856], 0
	je	SHORT $LN38@ImGui_Impl
	mov	rax, QWORD PTR old$[rsp+4856]
	mov	rax, QWORD PTR [rax]
	mov	rcx, QWORD PTR old$[rsp+4856]
	call	QWORD PTR [rax+16]
	npad	1
$LN38@ImGui_Impl:

; 247  :     for (UINT i = 0; i < old.VSInstancesCount; i++) if (old.VSInstances[i]) old.VSInstances[i]->Release();

	mov	DWORD PTR i$2[rsp], 0
	jmp	SHORT $LN16@ImGui_Impl
$LN14@ImGui_Impl:
	mov	eax, DWORD PTR i$2[rsp]
	inc	eax
	mov	DWORD PTR i$2[rsp], eax
$LN16@ImGui_Impl:
	mov	eax, DWORD PTR old$[rsp+732]
	cmp	DWORD PTR i$2[rsp], eax
	jae	SHORT $LN15@ImGui_Impl
	mov	eax, DWORD PTR i$2[rsp]
	cmp	QWORD PTR old$[rsp+rax*8+2784], 0
	je	SHORT $LN39@ImGui_Impl
	mov	eax, DWORD PTR i$2[rsp]
	mov	rax, QWORD PTR old$[rsp+rax*8+2784]
	mov	ecx, DWORD PTR i$2[rsp]
	mov	rcx, QWORD PTR old$[rsp+rcx*8+2784]
	mov	rax, QWORD PTR [rax]
	call	QWORD PTR [rax+16]
	npad	1
$LN39@ImGui_Impl:
	jmp	SHORT $LN14@ImGui_Impl
$LN15@ImGui_Impl:

; 248  :     ctx->IASetPrimitiveTopology(old.PrimitiveTopology);

	mov	rax, QWORD PTR ctx$[rsp]
	mov	rax, QWORD PTR [rax]
	mov	rax, QWORD PTR [rax+192]
	mov	QWORD PTR tv890[rsp], rax
	mov	edx, DWORD PTR old$[rsp+4832]
	mov	rcx, QWORD PTR ctx$[rsp]
	call	QWORD PTR tv890[rsp]

; 249  :     ctx->IASetIndexBuffer(old.IndexBuffer, old.IndexBufferFormat, old.IndexBufferOffset); if (old.IndexBuffer) old.IndexBuffer->Release();

	mov	rax, QWORD PTR ctx$[rsp]
	mov	rax, QWORD PTR [rax]
	mov	rax, QWORD PTR [rax+152]
	mov	QWORD PTR tv898[rsp], rax
	mov	r9d, DWORD PTR old$[rsp+4864]
	mov	r8d, DWORD PTR old$[rsp+4876]
	mov	rdx, QWORD PTR old$[rsp+4840]
	mov	rcx, QWORD PTR ctx$[rsp]
	call	QWORD PTR tv898[rsp]
	npad	1
	cmp	QWORD PTR old$[rsp+4840], 0
	je	SHORT $LN40@ImGui_Impl
	mov	rax, QWORD PTR old$[rsp+4840]
	mov	rax, QWORD PTR [rax]
	mov	rcx, QWORD PTR old$[rsp+4840]
	call	QWORD PTR [rax+16]
	npad	1
$LN40@ImGui_Impl:

; 250  :     ctx->IASetVertexBuffers(0, 1, &old.VertexBuffer, &old.VertexBufferStride, &old.VertexBufferOffset); if (old.VertexBuffer) old.VertexBuffer->Release();

	mov	rax, QWORD PTR ctx$[rsp]
	mov	rax, QWORD PTR [rax]
	mov	rax, QWORD PTR [rax+144]
	mov	QWORD PTR tv916[rsp], rax
	lea	rax, QWORD PTR old$[rsp+4872]
	mov	QWORD PTR [rsp+40], rax
	lea	rax, QWORD PTR old$[rsp+4868]
	mov	QWORD PTR [rsp+32], rax
	lea	r9, QWORD PTR old$[rsp+4848]
	mov	r8d, 1
	xor	edx, edx
	mov	rcx, QWORD PTR ctx$[rsp]
	call	QWORD PTR tv916[rsp]
	npad	1
	cmp	QWORD PTR old$[rsp+4848], 0
	je	SHORT $LN41@ImGui_Impl
	mov	rax, QWORD PTR old$[rsp+4848]
	mov	rax, QWORD PTR [rax]
	mov	rcx, QWORD PTR old$[rsp+4848]
	call	QWORD PTR [rax+16]
	npad	1
$LN41@ImGui_Impl:

; 251  :     ctx->IASetInputLayout(old.InputLayout); if (old.InputLayout) old.InputLayout->Release();

	mov	rax, QWORD PTR ctx$[rsp]
	mov	rax, QWORD PTR [rax]
	mov	rax, QWORD PTR [rax+136]
	mov	QWORD PTR tv930[rsp], rax
	mov	rdx, QWORD PTR old$[rsp+4880]
	mov	rcx, QWORD PTR ctx$[rsp]
	call	QWORD PTR tv930[rsp]
	npad	1
	cmp	QWORD PTR old$[rsp+4880], 0
	je	SHORT $LN42@ImGui_Impl
	mov	rax, QWORD PTR old$[rsp+4880]
	mov	rax, QWORD PTR [rax]
	mov	rcx, QWORD PTR old$[rsp+4880]
	call	QWORD PTR [rax+16]
	npad	1
$LN42@ImGui_Impl:
$LN1@ImGui_Impl:

; 252  : }

	mov	rcx, QWORD PTR __$ArrayPad$[rsp]
	xor	rcx, rsp
	call	__security_check_cookie
	add	rsp, 5752				; 00001678H
	ret	0
?ImGui_ImplDX11_RenderDrawData@@YAXPEAUImDrawData@@@Z ENDP ; ImGui_ImplDX11_RenderDrawData
_TEXT	ENDS
; Function compile flags: /Odtp
; File D:\c++\paoda\Core\DirectX\Imgui_dx11.cpp
_TEXT	SEGMENT
?ImGui_ImplDX11_NewFrame@@YAXXZ PROC			; ImGui_ImplDX11_NewFrame

; 525  : {

$LN4:
	sub	rsp, 40					; 00000028H

; 526  :     if (!g_pFontSampler)

	cmp	QWORD PTR ?g_pFontSampler@@3PEAUID3D11SamplerState@@EA, 0
	jne	SHORT $LN2@ImGui_Impl

; 527  :         ImGui_ImplDX11_CreateDeviceObjects();

	call	?ImGui_ImplDX11_CreateDeviceObjects@@YA_NXZ ; ImGui_ImplDX11_CreateDeviceObjects
	npad	1
$LN2@ImGui_Impl:

; 528  : }

	add	rsp, 40					; 00000028H
	ret	0
?ImGui_ImplDX11_NewFrame@@YAXXZ ENDP			; ImGui_ImplDX11_NewFrame
_TEXT	ENDS
; Function compile flags: /Odtp
; File D:\c++\paoda\Core\DirectX\Imgui_dx11.cpp
_TEXT	SEGMENT
?ImGui_ImplDX11_Shutdown@@YAXXZ PROC			; ImGui_ImplDX11_Shutdown

; 517  : {

$LN4:
	sub	rsp, 40					; 00000028H

; 518  :     ImGui_ImplDX11_InvalidateDeviceObjects();

	call	?ImGui_ImplDX11_InvalidateDeviceObjects@@YAXXZ ; ImGui_ImplDX11_InvalidateDeviceObjects
	npad	1

; 519  :     if (g_pFactory) { g_pFactory->Release(); g_pFactory = NULL; }

	cmp	QWORD PTR ?g_pFactory@@3PEAUIDXGIFactory@@EA, 0
	je	SHORT $LN2@ImGui_Impl
	mov	rax, QWORD PTR ?g_pFactory@@3PEAUIDXGIFactory@@EA
	mov	rax, QWORD PTR [rax]
	mov	rcx, QWORD PTR ?g_pFactory@@3PEAUIDXGIFactory@@EA
	call	QWORD PTR [rax+16]
	mov	QWORD PTR ?g_pFactory@@3PEAUIDXGIFactory@@EA, 0
$LN2@ImGui_Impl:

; 520  :     g_pd3dDevice = NULL;

	mov	QWORD PTR ?g_pd3dDevice@@3PEAUID3D11Device@@EA, 0

; 521  :     g_pd3dDeviceContext = NULL;

	mov	QWORD PTR ?g_pd3dDeviceContext@@3PEAUID3D11DeviceContext@@EA, 0

; 522  : }

	add	rsp, 40					; 00000028H
	ret	0
?ImGui_ImplDX11_Shutdown@@YAXXZ ENDP			; ImGui_ImplDX11_Shutdown
_TEXT	ENDS
; Function compile flags: /Odtp
; File D:\c++\paoda\Core\DirectX\Imgui_dx11.cpp
_TEXT	SEGMENT
pDXGIDevice$ = 32
pDXGIAdapter$ = 40
pFactory$ = 48
io$ = 56
tv79 = 64
tv81 = 72
tv128 = 80
tv130 = 88
tv145 = 96
tv147 = 104
device$ = 128
device_context$ = 136
?ImGui_ImplDX11_Init@@YA_NPEAUID3D11Device@@PEAUID3D11DeviceContext@@@Z PROC ; ImGui_ImplDX11_Init

; 493  : {

$LN8:
	mov	QWORD PTR [rsp+16], rdx
	mov	QWORD PTR [rsp+8], rcx
	sub	rsp, 120				; 00000078H

; 494  :     ImGuiIO& io = ImGui::GetIO();

	call	?GetIO@ImGui@@YAAEAUImGuiIO@@XZ		; ImGui::GetIO
	mov	QWORD PTR io$[rsp], rax

; 495  :     io.BackendRendererName = "1";

	mov	rax, QWORD PTR io$[rsp]
	lea	rcx, OFFSET FLAT:??_C@_01HIHLOKLC@1@
	mov	QWORD PTR [rax+216], rcx

; 496  : 
; 497  :     // Get factory from device
; 498  :     IDXGIDevice* pDXGIDevice = NULL;

	mov	QWORD PTR pDXGIDevice$[rsp], 0

; 499  :     IDXGIAdapter* pDXGIAdapter = NULL;

	mov	QWORD PTR pDXGIAdapter$[rsp], 0

; 500  :     IDXGIFactory* pFactory = NULL;

	mov	QWORD PTR pFactory$[rsp], 0

; 501  : 
; 502  :     if (device->QueryInterface(IID_PPV_ARGS(&pDXGIDevice)) == S_OK)

	mov	rax, QWORD PTR device$[rsp]
	mov	rax, QWORD PTR [rax]
	mov	rax, QWORD PTR [rax]
	mov	QWORD PTR tv81[rsp], rax
	lea	rcx, QWORD PTR pDXGIDevice$[rsp]
	call	??$IID_PPV_ARGS_Helper@UIDXGIDevice@@@@YAPEAPEAXPEAPEAUIDXGIDevice@@@Z ; IID_PPV_ARGS_Helper<IDXGIDevice>
	mov	QWORD PTR tv79[rsp], rax
	mov	r8, QWORD PTR tv79[rsp]
	lea	rdx, OFFSET FLAT:_GUID_54ec77fa_1377_44e6_8c32_88fd5f44c84c
	mov	rcx, QWORD PTR device$[rsp]
	call	QWORD PTR tv81[rsp]
	test	eax, eax
	jne	$LN2@ImGui_Impl

; 503  :         if (pDXGIDevice->GetParent(IID_PPV_ARGS(&pDXGIAdapter)) == S_OK)

	mov	rax, QWORD PTR pDXGIDevice$[rsp]
	mov	rax, QWORD PTR [rax]
	mov	rax, QWORD PTR [rax+48]
	mov	QWORD PTR tv130[rsp], rax
	lea	rcx, QWORD PTR pDXGIAdapter$[rsp]
	call	??$IID_PPV_ARGS_Helper@UIDXGIAdapter@@@@YAPEAPEAXPEAPEAUIDXGIAdapter@@@Z ; IID_PPV_ARGS_Helper<IDXGIAdapter>
	mov	QWORD PTR tv128[rsp], rax
	mov	r8, QWORD PTR tv128[rsp]
	lea	rdx, OFFSET FLAT:_GUID_2411e7e1_12ac_4ccf_bd14_9798e8534dc0
	mov	rcx, QWORD PTR pDXGIDevice$[rsp]
	call	QWORD PTR tv130[rsp]
	test	eax, eax
	jne	SHORT $LN3@ImGui_Impl

; 504  :             if (pDXGIAdapter->GetParent(IID_PPV_ARGS(&pFactory)) == S_OK)

	mov	rax, QWORD PTR pDXGIAdapter$[rsp]
	mov	rax, QWORD PTR [rax]
	mov	rax, QWORD PTR [rax+48]
	mov	QWORD PTR tv147[rsp], rax
	lea	rcx, QWORD PTR pFactory$[rsp]
	call	??$IID_PPV_ARGS_Helper@UIDXGIFactory@@@@YAPEAPEAXPEAPEAUIDXGIFactory@@@Z ; IID_PPV_ARGS_Helper<IDXGIFactory>
	mov	QWORD PTR tv145[rsp], rax
	mov	r8, QWORD PTR tv145[rsp]
	lea	rdx, OFFSET FLAT:_GUID_7b7166ec_21c7_44ae_b21a_c9ae321ae369
	mov	rcx, QWORD PTR pDXGIAdapter$[rsp]
	call	QWORD PTR tv147[rsp]
	test	eax, eax
	jne	SHORT $LN4@ImGui_Impl

; 505  :             {
; 506  :                 g_pd3dDevice = device;

	mov	rax, QWORD PTR device$[rsp]
	mov	QWORD PTR ?g_pd3dDevice@@3PEAUID3D11Device@@EA, rax

; 507  :                 g_pd3dDeviceContext = device_context;

	mov	rax, QWORD PTR device_context$[rsp]
	mov	QWORD PTR ?g_pd3dDeviceContext@@3PEAUID3D11DeviceContext@@EA, rax

; 508  :                 g_pFactory = pFactory;

	mov	rax, QWORD PTR pFactory$[rsp]
	mov	QWORD PTR ?g_pFactory@@3PEAUIDXGIFactory@@EA, rax
$LN4@ImGui_Impl:
$LN3@ImGui_Impl:
$LN2@ImGui_Impl:

; 509  :             }
; 510  :     if (pDXGIDevice) pDXGIDevice->Release();

	cmp	QWORD PTR pDXGIDevice$[rsp], 0
	je	SHORT $LN5@ImGui_Impl
	mov	rax, QWORD PTR pDXGIDevice$[rsp]
	mov	rax, QWORD PTR [rax]
	mov	rcx, QWORD PTR pDXGIDevice$[rsp]
	call	QWORD PTR [rax+16]
	npad	1
$LN5@ImGui_Impl:

; 511  :     if (pDXGIAdapter) pDXGIAdapter->Release();

	cmp	QWORD PTR pDXGIAdapter$[rsp], 0
	je	SHORT $LN6@ImGui_Impl
	mov	rax, QWORD PTR pDXGIAdapter$[rsp]
	mov	rax, QWORD PTR [rax]
	mov	rcx, QWORD PTR pDXGIAdapter$[rsp]
	call	QWORD PTR [rax+16]
	npad	1
$LN6@ImGui_Impl:

; 512  : 
; 513  :     return true;

	mov	al, 1

; 514  : }

	add	rsp, 120				; 00000078H
	ret	0
?ImGui_ImplDX11_Init@@YA_NPEAUID3D11Device@@PEAUID3D11DeviceContext@@@Z ENDP ; ImGui_ImplDX11_Init
_TEXT	ENDS
; Function compile flags: /Odtp
; File D:\c++\paoda\Core\Imgui\imgui.h
;	COMDAT ??A?$ImVector@UImDrawCmd@@@@QEBAAEBUImDrawCmd@@H@Z
_TEXT	SEGMENT
this$ = 8
i$ = 16
??A?$ImVector@UImDrawCmd@@@@QEBAAEBUImDrawCmd@@H@Z PROC	; ImVector<ImDrawCmd>::operator[], COMDAT

; 1229 : 	inline const T& operator[](int i) const { IM_ASSERT(i < Size); return Data[i]; }

	mov	DWORD PTR [rsp+16], edx
	mov	QWORD PTR [rsp+8], rcx
	movsxd	rax, DWORD PTR i$[rsp]
	imul	rax, rax, 48				; 00000030H
	mov	rcx, QWORD PTR this$[rsp]
	add	rax, QWORD PTR [rcx+8]
	ret	0
??A?$ImVector@UImDrawCmd@@@@QEBAAEBUImDrawCmd@@H@Z ENDP	; ImVector<ImDrawCmd>::operator[]
_TEXT	ENDS
; Function compile flags: /Odtp
; File D:\c++\paoda\Core\Math\Vector.hpp
;	COMDAT ??__EQINV_SIGN_MASK@Math@Core@IronMan@@YAXXZ
text$di	SEGMENT
??__EQINV_SIGN_MASK@Math@Core@IronMan@@YAXXZ PROC	; IronMan::Core::Math::`dynamic initializer for 'QINV_SIGN_MASK'', COMDAT

; 157  : 	static const VectorRegister QINV_SIGN_MASK = MakeVectorRegister(-1.f, -1.f, -1.f, 1.f);

	sub	rsp, 40					; 00000028H
	movss	xmm3, DWORD PTR __real@3f800000
	movss	xmm2, DWORD PTR __real@bf800000
	movss	xmm1, DWORD PTR __real@bf800000
	movss	xmm0, DWORD PTR __real@bf800000
	call	?MakeVectorRegister@Math@Core@IronMan@@YA?AT__m128@@MMMM@Z ; IronMan::Core::Math::MakeVectorRegister
	movaps	XMMWORD PTR ?QINV_SIGN_MASK@Math@Core@IronMan@@3T__m128@@B, xmm0
	add	rsp, 40					; 00000028H
	ret	0
??__EQINV_SIGN_MASK@Math@Core@IronMan@@YAXXZ ENDP	; IronMan::Core::Math::`dynamic initializer for 'QINV_SIGN_MASK''
text$di	ENDS
; Function compile flags: /Odtp
; File D:\c++\paoda\Core\Math\Vector.hpp
;	COMDAT ??__EXYZMask@Math@Core@IronMan@@YAXXZ
text$di	SEGMENT
??__EXYZMask@Math@Core@IronMan@@YAXXZ PROC		; IronMan::Core::Math::`dynamic initializer for 'XYZMask'', COMDAT

; 155  : 	static const VectorRegister XYZMask = MakeVectorRegister((uint32_t)0xffffffff, (uint32_t)0xffffffff, (uint32_t)0xffffffff, (uint32_t)0x00000000);

	sub	rsp, 40					; 00000028H
	xor	r9d, r9d
	mov	r8d, -1					; ffffffffH
	mov	edx, -1					; ffffffffH
	mov	ecx, -1					; ffffffffH
	call	?MakeVectorRegister@Math@Core@IronMan@@YA?AT__m128@@IIII@Z ; IronMan::Core::Math::MakeVectorRegister
	movaps	XMMWORD PTR ?XYZMask@Math@Core@IronMan@@3T__m128@@B, xmm0
	add	rsp, 40					; 00000028H
	ret	0
??__EXYZMask@Math@Core@IronMan@@YAXXZ ENDP		; IronMan::Core::Math::`dynamic initializer for 'XYZMask''
text$di	ENDS
; Function compile flags: /Odtp
; File D:\c++\paoda\Core\Math\Vector.hpp
;	COMDAT ?MakeVectorRegister@Math@Core@IronMan@@YA?AT__m128@@MMMM@Z
_TEXT	SEGMENT
$T1 = 0
X$ = 32
Y$ = 40
Z$ = 48
W$ = 56
?MakeVectorRegister@Math@Core@IronMan@@YA?AT__m128@@MMMM@Z PROC ; IronMan::Core::Math::MakeVectorRegister, COMDAT

; 135  : 	{

$LN3:
	movss	DWORD PTR [rsp+32], xmm3
	movss	DWORD PTR [rsp+24], xmm2
	movss	DWORD PTR [rsp+16], xmm1
	movss	DWORD PTR [rsp+8], xmm0
	sub	rsp, 24

; 136  : 		return _mm_setr_ps(X, Y, Z, W);

	movss	xmm0, DWORD PTR W$[rsp]
	movss	xmm1, DWORD PTR Z$[rsp]
	movss	xmm2, DWORD PTR Y$[rsp]
	movss	xmm3, DWORD PTR X$[rsp]
	unpcklps xmm1, xmm0
	unpcklps xmm3, xmm2
	movaps	xmm0, xmm3
	movlhps	xmm0, xmm1
	movaps	XMMWORD PTR $T1[rsp], xmm0
	movaps	xmm0, XMMWORD PTR $T1[rsp]

; 137  : 	}

	add	rsp, 24
	ret	0
?MakeVectorRegister@Math@Core@IronMan@@YA?AT__m128@@MMMM@Z ENDP ; IronMan::Core::Math::MakeVectorRegister
_TEXT	ENDS
; Function compile flags: /Odtp
; File D:\c++\paoda\Core\Math\Vector.hpp
;	COMDAT ?MakeVectorRegister@Math@Core@IronMan@@YA?AT__m128@@IIII@Z
_TEXT	SEGMENT
$T1 = 0
Tmp$ = 16
__$ArrayPad$ = 32
X$ = 64
Y$ = 72
Z$ = 80
W$ = 88
?MakeVectorRegister@Math@Core@IronMan@@YA?AT__m128@@IIII@Z PROC ; IronMan::Core::Math::MakeVectorRegister, COMDAT

; 119  : 	{

$LN3:
	mov	DWORD PTR [rsp+32], r9d
	mov	DWORD PTR [rsp+24], r8d
	mov	DWORD PTR [rsp+16], edx
	mov	DWORD PTR [rsp+8], ecx
	sub	rsp, 56					; 00000038H
	mov	rax, QWORD PTR __security_cookie
	xor	rax, rsp
	mov	QWORD PTR __$ArrayPad$[rsp], rax

; 120  : 		union { VectorRegister v; VectorRegisterInt i; } Tmp;
; 121  : 		Tmp.i = _mm_setr_epi32(X, Y, Z, W);

	movd	xmm0, DWORD PTR W$[rsp]
	movd	xmm1, DWORD PTR Z$[rsp]
	movd	xmm2, DWORD PTR Y$[rsp]
	movd	xmm3, DWORD PTR X$[rsp]
	punpckldq xmm1, xmm0
	punpckldq xmm3, xmm2
	movdqa	xmm0, xmm3
	punpcklqdq xmm0, xmm1
	movdqa	XMMWORD PTR $T1[rsp], xmm0
	movdqa	xmm0, XMMWORD PTR $T1[rsp]
	movdqa	XMMWORD PTR Tmp$[rsp], xmm0

; 122  : 		return Tmp.v;

	movaps	xmm0, XMMWORD PTR Tmp$[rsp]

; 123  : 	}

	mov	rcx, QWORD PTR __$ArrayPad$[rsp]
	xor	rcx, rsp
	call	__security_check_cookie
	add	rsp, 56					; 00000038H
	ret	0
?MakeVectorRegister@Math@Core@IronMan@@YA?AT__m128@@IIII@Z ENDP ; IronMan::Core::Math::MakeVectorRegister
_TEXT	ENDS
; Function compile flags: /Odtp
; File D:\c++\paoda\Helper\HttpLib\httplib.h
;	COMDAT ??__Esslinit_@detail@httplib@@YAXXZ
text$di	SEGMENT
??__Esslinit_@detail@httplib@@YAXXZ PROC		; httplib::detail::`dynamic initializer for 'sslinit_'', COMDAT

; 8802 :         static SSLInit sslinit_;

	sub	rsp, 40					; 00000028H
	lea	rcx, OFFSET FLAT:?sslinit_@detail@httplib@@3VSSLInit@12@A
	call	??0SSLInit@detail@httplib@@QEAA@XZ	; httplib::detail::SSLInit::SSLInit
	npad	1
	add	rsp, 40					; 00000028H
	ret	0
??__Esslinit_@detail@httplib@@YAXXZ ENDP		; httplib::detail::`dynamic initializer for 'sslinit_''
text$di	ENDS
; Function compile flags: /Odtp
; File D:\c++\paoda\Helper\HttpLib\httplib.h
;	COMDAT ??0SSLInit@detail@httplib@@QEAA@XZ
_TEXT	SEGMENT
this$ = 48
??0SSLInit@detail@httplib@@QEAA@XZ PROC			; httplib::detail::SSLInit::SSLInit, COMDAT

; 8693 :             SSLInit() {

$LN3:
	mov	QWORD PTR [rsp+8], rcx
	sub	rsp, 40					; 00000028H

; 8694 :                 OPENSSL_init_ssl(

	xor	edx, edx
	mov	ecx, 2097154				; 00200002H
	call	OPENSSL_init_ssl
	npad	1

; 8695 :                     OPENSSL_INIT_LOAD_SSL_STRINGS | OPENSSL_INIT_LOAD_CRYPTO_STRINGS, NULL);
; 8696 :             }

	mov	rax, QWORD PTR this$[rsp]
	add	rsp, 40					; 00000028H
	ret	0
??0SSLInit@detail@httplib@@QEAA@XZ ENDP			; httplib::detail::SSLInit::SSLInit
_TEXT	ENDS
; Function compile flags: /Odtp
;	COMDAT ??__Fwsinit_@detail@httplib@@YAXXZ
text$yd	SEGMENT
??__Fwsinit_@detail@httplib@@YAXXZ PROC			; httplib::detail::`dynamic atexit destructor for 'wsinit_'', COMDAT
	sub	rsp, 40					; 00000028H
	lea	rcx, OFFSET FLAT:?wsinit_@detail@httplib@@3VWSInit@12@A
	call	??1WSInit@detail@httplib@@QEAA@XZ	; httplib::detail::WSInit::~WSInit
	npad	1
	add	rsp, 40					; 00000028H
	ret	0
??__Fwsinit_@detail@httplib@@YAXXZ ENDP			; httplib::detail::`dynamic atexit destructor for 'wsinit_''
text$yd	ENDS
; Function compile flags: /Odtp
; File D:\c++\paoda\Helper\HttpLib\httplib.h
;	COMDAT ??__Ewsinit_@detail@httplib@@YAXXZ
text$di	SEGMENT
??__Ewsinit_@detail@httplib@@YAXXZ PROC			; httplib::detail::`dynamic initializer for 'wsinit_'', COMDAT

; 5291 :         static WSInit wsinit_;

	sub	rsp, 40					; 00000028H
	lea	rcx, OFFSET FLAT:?wsinit_@detail@httplib@@3VWSInit@12@A
	call	??0WSInit@detail@httplib@@QEAA@XZ	; httplib::detail::WSInit::WSInit
	lea	rcx, OFFSET FLAT:??__Fwsinit_@detail@httplib@@YAXXZ ; httplib::detail::`dynamic atexit destructor for 'wsinit_''
	call	atexit
	npad	1
	add	rsp, 40					; 00000028H
	ret	0
??__Ewsinit_@detail@httplib@@YAXXZ ENDP			; httplib::detail::`dynamic initializer for 'wsinit_''
text$di	ENDS
; Function compile flags: /Odtp
; File D:\c++\paoda\Helper\HttpLib\httplib.h
;	COMDAT ??1WSInit@detail@httplib@@QEAA@XZ
_TEXT	SEGMENT
this$ = 48
??1WSInit@detail@httplib@@QEAA@XZ PROC			; httplib::detail::WSInit::~WSInit, COMDAT

; 5284 :             ~WSInit() {

$LN4:
	mov	QWORD PTR [rsp+8], rcx
	sub	rsp, 40					; 00000028H

; 5285 :                 if (is_valid_) WSACleanup();

	mov	rax, QWORD PTR this$[rsp]
	movzx	eax, BYTE PTR [rax]
	test	eax, eax
	je	SHORT $LN2@WSInit
	call	QWORD PTR __imp_WSACleanup
	npad	1
$LN2@WSInit:

; 5286 :             }

	add	rsp, 40					; 00000028H
	ret	0
??1WSInit@detail@httplib@@QEAA@XZ ENDP			; httplib::detail::WSInit::~WSInit
_TEXT	ENDS
; Function compile flags: /Odtp
; File D:\c++\paoda\Helper\HttpLib\httplib.h
;	COMDAT ??0WSInit@detail@httplib@@QEAA@XZ
_TEXT	SEGMENT
wsaData$ = 32
__$ArrayPad$ = 448
this$ = 480
??0WSInit@detail@httplib@@QEAA@XZ PROC			; httplib::detail::WSInit::WSInit, COMDAT

; 5279 :             WSInit() {

$LN4:
	mov	QWORD PTR [rsp+8], rcx
	sub	rsp, 472				; 000001d8H
	mov	rax, QWORD PTR __security_cookie
	xor	rax, rsp
	mov	QWORD PTR __$ArrayPad$[rsp], rax

; 5283 : 
; 5284 :             ~WSInit() {
; 5285 :                 if (is_valid_) WSACleanup();
; 5286 :             }
; 5287 : 
; 5288 :             bool is_valid_ = false;

	mov	rax, QWORD PTR this$[rsp]
	mov	BYTE PTR [rax], 0

; 5280 :                 WSADATA wsaData;
; 5281 :                 if (WSAStartup(0x0002, &wsaData) == 0) is_valid_ = true;

	lea	rdx, QWORD PTR wsaData$[rsp]
	mov	cx, 2
	call	QWORD PTR __imp_WSAStartup
	test	eax, eax
	jne	SHORT $LN2@WSInit
	mov	rax, QWORD PTR this$[rsp]
	mov	BYTE PTR [rax], 1
$LN2@WSInit:

; 5282 :             }

	mov	rax, QWORD PTR this$[rsp]
	mov	rcx, QWORD PTR __$ArrayPad$[rsp]
	xor	rcx, rsp
	call	__security_check_cookie
	add	rsp, 472				; 000001d8H
	ret	0
??0WSInit@detail@httplib@@QEAA@XZ ENDP			; httplib::detail::WSInit::WSInit
_TEXT	ENDS
; Function compile flags: /Odtp
; File C:\Program Files (x86)\Windows Kits\10\Include\10.0.26100.0\ucrt\stdio.h
;	COMDAT vsprintf_s
_TEXT	SEGMENT
_Buffer$ = 64
_BufferCount$ = 72
_Format$ = 80
_ArgList$ = 88
vsprintf_s PROC						; COMDAT

; 1512 :         {

$LN3:
	mov	QWORD PTR [rsp+32], r9
	mov	QWORD PTR [rsp+24], r8
	mov	QWORD PTR [rsp+16], rdx
	mov	QWORD PTR [rsp+8], rcx
	sub	rsp, 56					; 00000038H

; 1513 :             return _vsprintf_s_l(_Buffer, _BufferCount, _Format, NULL, _ArgList);

	mov	rax, QWORD PTR _ArgList$[rsp]
	mov	QWORD PTR [rsp+32], rax
	xor	r9d, r9d
	mov	r8, QWORD PTR _Format$[rsp]
	mov	rdx, QWORD PTR _BufferCount$[rsp]
	mov	rcx, QWORD PTR _Buffer$[rsp]
	call	_vsprintf_s_l

; 1514 :         }

	add	rsp, 56					; 00000038H
	ret	0
vsprintf_s ENDP
_TEXT	ENDS
; Function compile flags: /Odtp
; File C:\Program Files (x86)\Windows Kits\10\Include\10.0.26100.0\ucrt\stdio.h
;	COMDAT _vsprintf_s_l
_TEXT	SEGMENT
_Result$ = 48
tv73 = 52
_Buffer$ = 80
_BufferCount$ = 88
_Format$ = 96
_Locale$ = 104
_ArgList$ = 112
_vsprintf_s_l PROC					; COMDAT

; 1490 :     {

$LN5:
	mov	QWORD PTR [rsp+32], r9
	mov	QWORD PTR [rsp+24], r8
	mov	QWORD PTR [rsp+16], rdx
	mov	QWORD PTR [rsp+8], rcx
	sub	rsp, 72					; 00000048H

; 1491 :         int const _Result = __stdio_common_vsprintf_s(

	call	__local_stdio_printf_options
	mov	rcx, QWORD PTR _ArgList$[rsp]
	mov	QWORD PTR [rsp+40], rcx
	mov	rcx, QWORD PTR _Locale$[rsp]
	mov	QWORD PTR [rsp+32], rcx
	mov	r9, QWORD PTR _Format$[rsp]
	mov	r8, QWORD PTR _BufferCount$[rsp]
	mov	rdx, QWORD PTR _Buffer$[rsp]
	mov	rcx, QWORD PTR [rax]
	call	__stdio_common_vsprintf_s
	mov	DWORD PTR _Result$[rsp], eax

; 1492 :             _CRT_INTERNAL_LOCAL_PRINTF_OPTIONS,
; 1493 :             _Buffer, _BufferCount, _Format, _Locale, _ArgList);
; 1494 : 
; 1495 :         return _Result < 0 ? -1 : _Result;

	cmp	DWORD PTR _Result$[rsp], 0
	jge	SHORT $LN3@vsprintf_s
	mov	DWORD PTR tv73[rsp], -1
	jmp	SHORT $LN4@vsprintf_s
$LN3@vsprintf_s:
	mov	eax, DWORD PTR _Result$[rsp]
	mov	DWORD PTR tv73[rsp], eax
$LN4@vsprintf_s:
	mov	eax, DWORD PTR tv73[rsp]

; 1496 :     }

	add	rsp, 72					; 00000048H
	ret	0
_vsprintf_s_l ENDP
_TEXT	ENDS
; Function compile flags: /Odtp
; File C:\Program Files (x86)\Windows Kits\10\Include\10.0.26100.0\ucrt\corecrt_stdio_config.h
;	COMDAT __local_stdio_printf_options
_TEXT	SEGMENT
__local_stdio_printf_options PROC			; COMDAT

; 91   :         static unsigned __int64 _OptionsStorage;
; 92   :         return &_OptionsStorage;

	lea	rax, OFFSET FLAT:?_OptionsStorage@?1??__local_stdio_printf_options@@9@4_KA ; `__local_stdio_printf_options'::`2'::_OptionsStorage

; 93   :     }

	ret	0
__local_stdio_printf_options ENDP
_TEXT	ENDS
; Function compile flags: /Odtp
;	COMDAT ??_H@YAXPEAX_K1P6APEAX0@Z@Z
_TEXT	SEGMENT
tv66 = 32
tv70 = 40
__t$ = 64
__s$ = 72
__n$ = 80
__f$ = 88
??_H@YAXPEAX_K1P6APEAX0@Z@Z PROC			; `vector constructor iterator', COMDAT
$LN5:
	mov	QWORD PTR [rsp+32], r9
	mov	QWORD PTR [rsp+24], r8
	mov	QWORD PTR [rsp+16], rdx
	mov	QWORD PTR [rsp+8], rcx
	sub	rsp, 56					; 00000038H
$LN2@vector:
	mov	rax, QWORD PTR __n$[rsp]
	mov	QWORD PTR tv66[rsp], rax
	mov	rax, QWORD PTR __n$[rsp]
	dec	rax
	mov	QWORD PTR __n$[rsp], rax
	cmp	QWORD PTR tv66[rsp], 0
	jbe	SHORT $LN3@vector
	mov	rax, QWORD PTR __f$[rsp]
	mov	QWORD PTR tv70[rsp], rax
	mov	rcx, QWORD PTR __t$[rsp]
	call	QWORD PTR tv70[rsp]
	mov	rax, QWORD PTR __s$[rsp]
	mov	rcx, QWORD PTR __t$[rsp]
	add	rcx, rax
	mov	rax, rcx
	mov	QWORD PTR __t$[rsp], rax
	jmp	SHORT $LN2@vector
$LN3@vector:
	add	rsp, 56					; 00000038H
	ret	0
??_H@YAXPEAX_K1P6APEAX0@Z@Z ENDP			; `vector constructor iterator'
_TEXT	ENDS
END
