; Listing generated by Microsoft (R) Optimizing Compiler Version 19.43.34810.0 

include listing.inc

INCLUDELIB LIBCMT
INCLUDELIB OLDNAMES

PUBLIC	??_C@_06GLKGGCJO@LcOpen@			; `string'
PUBLIC	??_C@_06GJPHNGFG@LcRead@			; `string'
PUBLIC	??_C@_0O@CBBNAKKC@LcReadScatter@		; `string'
PUBLIC	??_C@_07MBHEMNEL@LcWrite@			; `string'
PUBLIC	??_C@_0P@DAJMPOFM@LcWriteScatter@		; `string'
PUBLIC	??_C@_0M@HBBFEIGD@LcGetOption@			; `string'
PUBLIC	??_C@_0M@FPFAGJPB@LcSetOption@			; `string'
PUBLIC	??_C@_09DCHLEDFD@LcCommand@			; `string'
PUBLIC	??_C@_03HPADHAHE@N?1A@				; `string'
PUBLIC	??_C@_03HDGGCCPD@X86@				; `string'
PUBLIC	??_C@_06IDLKBMKC@X86PAE@			; `string'
PUBLIC	??_C@_03ELMOGNHL@X64@				; `string'
PUBLIC	??_C@_05DKFIPBAL@ARM64@				; `string'
PUBLIC	??_C@_04PCJGBDOP@Zero@				; `string'
PUBLIC	??_C@_04HJMOFLDF@Free@				; `string'
PUBLIC	??_C@_07LNBDIIPN@Standby@			; `string'
PUBLIC	??_C@_07PFEKAJBJ@Modifiy@			; `string'
PUBLIC	??_C@_07DGKCKENG@ModNoWr@			; `string'
PUBLIC	??_C@_03KHCCLPOB@Bad@				; `string'
PUBLIC	??_C@_06MAFFGDO@Active@				; `string'
PUBLIC	??_C@_07KADDEKFE@Transit@			; `string'
PUBLIC	??_C@_01JOAMLHOP@?9@				; `string'
PUBLIC	??_C@_06CGLFEPBO@Unused@			; `string'
PUBLIC	??_C@_08LBAJPEDB@ProcPriv@			; `string'
PUBLIC	??_C@_09BGPMMIPE@PageTable@			; `string'
PUBLIC	??_C@_09MFCNICMF@LargePage@			; `string'
PUBLIC	??_C@_0L@DHBAIELD@DriverLock@			; `string'
PUBLIC	??_C@_09PKFILKGD@Shareable@			; `string'
PUBLIC	??_C@_04PBAHLACE@File@				; `string'
PUBLIC	_Avx2WmemEnabledWeakValue
;	COMDAT _Avx2WmemEnabledWeakValue
_BSS	SEGMENT
_Avx2WmemEnabledWeakValue DD 01H DUP (?)
_BSS	ENDS
;	COMDAT ??_C@_04PBAHLACE@File@
CONST	SEGMENT
??_C@_04PBAHLACE@File@ DB 'File', 00H			; `string'
CONST	ENDS
;	COMDAT ??_C@_09PKFILKGD@Shareable@
CONST	SEGMENT
??_C@_09PKFILKGD@Shareable@ DB 'Shareable', 00H		; `string'
CONST	ENDS
;	COMDAT ??_C@_0L@DHBAIELD@DriverLock@
CONST	SEGMENT
??_C@_0L@DHBAIELD@DriverLock@ DB 'DriverLock', 00H	; `string'
CONST	ENDS
;	COMDAT ??_C@_09MFCNICMF@LargePage@
CONST	SEGMENT
??_C@_09MFCNICMF@LargePage@ DB 'LargePage', 00H		; `string'
CONST	ENDS
;	COMDAT ??_C@_09BGPMMIPE@PageTable@
CONST	SEGMENT
??_C@_09BGPMMIPE@PageTable@ DB 'PageTable', 00H		; `string'
CONST	ENDS
;	COMDAT ??_C@_08LBAJPEDB@ProcPriv@
CONST	SEGMENT
??_C@_08LBAJPEDB@ProcPriv@ DB 'ProcPriv', 00H		; `string'
CONST	ENDS
;	COMDAT ??_C@_06CGLFEPBO@Unused@
CONST	SEGMENT
??_C@_06CGLFEPBO@Unused@ DB 'Unused', 00H		; `string'
CONST	ENDS
;	COMDAT ??_C@_01JOAMLHOP@?9@
CONST	SEGMENT
??_C@_01JOAMLHOP@?9@ DB '-', 00H			; `string'
CONST	ENDS
;	COMDAT ??_C@_07KADDEKFE@Transit@
CONST	SEGMENT
??_C@_07KADDEKFE@Transit@ DB 'Transit', 00H		; `string'
CONST	ENDS
;	COMDAT ??_C@_06MAFFGDO@Active@
CONST	SEGMENT
??_C@_06MAFFGDO@Active@ DB 'Active', 00H		; `string'
CONST	ENDS
;	COMDAT ??_C@_03KHCCLPOB@Bad@
CONST	SEGMENT
??_C@_03KHCCLPOB@Bad@ DB 'Bad', 00H			; `string'
CONST	ENDS
;	COMDAT ??_C@_07DGKCKENG@ModNoWr@
CONST	SEGMENT
??_C@_07DGKCKENG@ModNoWr@ DB 'ModNoWr', 00H		; `string'
CONST	ENDS
;	COMDAT ??_C@_07PFEKAJBJ@Modifiy@
CONST	SEGMENT
??_C@_07PFEKAJBJ@Modifiy@ DB 'Modifiy', 00H		; `string'
CONST	ENDS
;	COMDAT ??_C@_07LNBDIIPN@Standby@
CONST	SEGMENT
??_C@_07LNBDIIPN@Standby@ DB 'Standby', 00H		; `string'
CONST	ENDS
;	COMDAT ??_C@_04HJMOFLDF@Free@
CONST	SEGMENT
??_C@_04HJMOFLDF@Free@ DB 'Free', 00H			; `string'
CONST	ENDS
;	COMDAT ??_C@_04PCJGBDOP@Zero@
CONST	SEGMENT
??_C@_04PCJGBDOP@Zero@ DB 'Zero', 00H			; `string'
CONST	ENDS
;	COMDAT ??_C@_05DKFIPBAL@ARM64@
CONST	SEGMENT
??_C@_05DKFIPBAL@ARM64@ DB 'ARM64', 00H			; `string'
CONST	ENDS
;	COMDAT ??_C@_03ELMOGNHL@X64@
CONST	SEGMENT
??_C@_03ELMOGNHL@X64@ DB 'X64', 00H			; `string'
CONST	ENDS
;	COMDAT ??_C@_06IDLKBMKC@X86PAE@
CONST	SEGMENT
??_C@_06IDLKBMKC@X86PAE@ DB 'X86PAE', 00H		; `string'
CONST	ENDS
;	COMDAT ??_C@_03HDGGCCPD@X86@
CONST	SEGMENT
??_C@_03HDGGCCPD@X86@ DB 'X86', 00H			; `string'
CONST	ENDS
;	COMDAT ??_C@_03HPADHAHE@N?1A@
CONST	SEGMENT
??_C@_03HPADHAHE@N?1A@ DB 'N/A', 00H			; `string'
CONST	ENDS
;	COMDAT ??_C@_09DCHLEDFD@LcCommand@
CONST	SEGMENT
??_C@_09DCHLEDFD@LcCommand@ DB 'LcCommand', 00H		; `string'
CONST	ENDS
;	COMDAT ??_C@_0M@FPFAGJPB@LcSetOption@
CONST	SEGMENT
??_C@_0M@FPFAGJPB@LcSetOption@ DB 'LcSetOption', 00H	; `string'
CONST	ENDS
;	COMDAT ??_C@_0M@HBBFEIGD@LcGetOption@
CONST	SEGMENT
??_C@_0M@HBBFEIGD@LcGetOption@ DB 'LcGetOption', 00H	; `string'
CONST	ENDS
;	COMDAT ??_C@_0P@DAJMPOFM@LcWriteScatter@
CONST	SEGMENT
??_C@_0P@DAJMPOFM@LcWriteScatter@ DB 'LcWriteScatter', 00H ; `string'
CONST	ENDS
;	COMDAT ??_C@_07MBHEMNEL@LcWrite@
CONST	SEGMENT
??_C@_07MBHEMNEL@LcWrite@ DB 'LcWrite', 00H		; `string'
CONST	ENDS
;	COMDAT ??_C@_0O@CBBNAKKC@LcReadScatter@
CONST	SEGMENT
??_C@_0O@CBBNAKKC@LcReadScatter@ DB 'LcReadScatter', 00H ; `string'
CONST	ENDS
;	COMDAT ??_C@_06GJPHNGFG@LcRead@
CONST	SEGMENT
??_C@_06GJPHNGFG@LcRead@ DB 'LcRead', 00H		; `string'
CONST	ENDS
;	COMDAT ??_C@_06GLKGGCJO@LcOpen@
CONST	SEGMENT
??_C@_06GLKGGCJO@LcOpen@ DB 'LcOpen', 00H		; `string'
CONST	ENDS
PUBLIC	??_H@YAXPEAX_K1P6APEAX0@Z@Z			; `vector constructor iterator'
PUBLIC	??2@YAPEAX_KPEAX@Z				; operator new
PUBLIC	?copy@?$_Char_traits@DH@std@@SAPEADQEADQEBD_K@Z	; std::_Char_traits<char,int>::copy
PUBLIC	?move@?$_Char_traits@DH@std@@SAPEADQEADQEBD_K@Z	; std::_Char_traits<char,int>::move
PUBLIC	?length@?$_Narrow_char_traits@DH@std@@SA_KQEBD@Z ; std::_Narrow_char_traits<char,int>::length
PUBLIC	?assign@?$_Narrow_char_traits@DH@std@@SAXAEADAEBD@Z ; std::_Narrow_char_traits<char,int>::assign
PUBLIC	?max@?$numeric_limits@N@std@@SANXZ		; std::numeric_limits<double>::max
PUBLIC	?infinity@?$numeric_limits@N@std@@SANXZ		; std::numeric_limits<double>::infinity
PUBLIC	?quiet_NaN@?$numeric_limits@N@std@@SANXZ	; std::numeric_limits<double>::quiet_NaN
PUBLIC	??0exception@std@@QEAA@QEBDH@Z			; std::exception::exception
PUBLIC	??0exception@std@@QEAA@AEBV01@@Z		; std::exception::exception
PUBLIC	??1exception@std@@UEAA@XZ			; std::exception::~exception
PUBLIC	?what@exception@std@@UEBAPEBDXZ			; std::exception::what
PUBLIC	??_Gexception@std@@UEAAPEAXI@Z			; std::exception::`scalar deleting destructor'
PUBLIC	??0bad_alloc@std@@AEAA@QEBD@Z			; std::bad_alloc::bad_alloc
PUBLIC	??1bad_alloc@std@@UEAA@XZ			; std::bad_alloc::~bad_alloc
PUBLIC	??0bad_alloc@std@@QEAA@AEBV01@@Z		; std::bad_alloc::bad_alloc
PUBLIC	??_Gbad_alloc@std@@UEAAPEAXI@Z			; std::bad_alloc::`scalar deleting destructor'
PUBLIC	??0bad_array_new_length@std@@QEAA@XZ		; std::bad_array_new_length::bad_array_new_length
PUBLIC	??1bad_array_new_length@std@@UEAA@XZ		; std::bad_array_new_length::~bad_array_new_length
PUBLIC	??0bad_array_new_length@std@@QEAA@AEBV01@@Z	; std::bad_array_new_length::bad_array_new_length
PUBLIC	??_Gbad_array_new_length@std@@UEAAPEAXI@Z	; std::bad_array_new_length::`scalar deleting destructor'
PUBLIC	?_Throw_bad_array_new_length@std@@YAXXZ		; std::_Throw_bad_array_new_length
PUBLIC	?_Allocate@_Default_allocate_traits@std@@SAPEAX_K@Z ; std::_Default_allocate_traits::_Allocate
PUBLIC	?_Adjust_manually_vector_aligned@std@@YAXAEAPEAXAEA_K@Z ; std::_Adjust_manually_vector_aligned
PUBLIC	?_Orphan_all@_Container_base0@std@@QEAAXXZ	; std::_Container_base0::_Orphan_all
PUBLIC	??0_Container_proxy@std@@QEAA@PEAU_Container_base12@1@@Z ; std::_Container_proxy::_Container_proxy
PUBLIC	??0_Container_base12@std@@QEAA@XZ		; std::_Container_base12::_Container_base12
PUBLIC	?_Orphan_all@_Container_base12@std@@QEAAXXZ	; std::_Container_base12::_Orphan_all
PUBLIC	?_Xlen_string@std@@YAXXZ			; std::_Xlen_string
PUBLIC	?deallocate@?$allocator@D@std@@QEAAXQEAD_K@Z	; std::allocator<char>::deallocate
PUBLIC	?allocate@?$allocator@D@std@@QEAAPEAD_K@Z	; std::allocator<char>::allocate
PUBLIC	?max_size@?$_Default_allocator_traits@V?$allocator@D@std@@@std@@SA_KAEBV?$allocator@D@2@@Z ; std::_Default_allocator_traits<std::allocator<char> >::max_size
PUBLIC	?_Myptr@?$_String_val@U?$_Simple_types@D@std@@@std@@QEAAPEADXZ ; std::_String_val<std::_Simple_types<char> >::_Myptr
PUBLIC	?_Myptr@?$_String_val@U?$_Simple_types@D@std@@@std@@QEBAPEBDXZ ; std::_String_val<std::_Simple_types<char> >::_Myptr
PUBLIC	?_Large_mode_engaged@?$_String_val@U?$_Simple_types@D@std@@@std@@QEBA_NXZ ; std::_String_val<std::_Simple_types<char> >::_Large_mode_engaged
PUBLIC	?_Deallocate_for_capacity@?$basic_string@DU?$char_traits@D@std@@V?$allocator@D@2@@std@@CAXAEAV?$allocator@D@2@QEAD_K@Z ; std::basic_string<char,std::char_traits<char>,std::allocator<char> >::_Deallocate_for_capacity
PUBLIC	??4?$basic_string@DU?$char_traits@D@std@@V?$allocator@D@2@@std@@QEAAAEAV01@QEBD@Z ; std::basic_string<char,std::char_traits<char>,std::allocator<char> >::operator=
PUBLIC	?assign@?$basic_string@DU?$char_traits@D@std@@V?$allocator@D@2@@std@@QEAAAEAV12@QEBD_K@Z ; std::basic_string<char,std::char_traits<char>,std::allocator<char> >::assign
PUBLIC	?assign@?$basic_string@DU?$char_traits@D@std@@V?$allocator@D@2@@std@@QEAAAEAV12@QEBD@Z ; std::basic_string<char,std::char_traits<char>,std::allocator<char> >::assign
PUBLIC	?c_str@?$basic_string@DU?$char_traits@D@std@@V?$allocator@D@2@@std@@QEBAPEBDXZ ; std::basic_string<char,std::char_traits<char>,std::allocator<char> >::c_str
PUBLIC	?size@?$basic_string@DU?$char_traits@D@std@@V?$allocator@D@2@@std@@QEBA_KXZ ; std::basic_string<char,std::char_traits<char>,std::allocator<char> >::size
PUBLIC	?max_size@?$basic_string@DU?$char_traits@D@std@@V?$allocator@D@2@@std@@QEBA_KXZ ; std::basic_string<char,std::char_traits<char>,std::allocator<char> >::max_size
PUBLIC	?_Calculate_growth@?$basic_string@DU?$char_traits@D@std@@V?$allocator@D@2@@std@@CA_K_K00@Z ; std::basic_string<char,std::char_traits<char>,std::allocator<char> >::_Calculate_growth
PUBLIC	?_Calculate_growth@?$basic_string@DU?$char_traits@D@std@@V?$allocator@D@2@@std@@AEBA_K_K@Z ; std::basic_string<char,std::char_traits<char>,std::allocator<char> >::_Calculate_growth
PUBLIC	?_Getal@?$basic_string@DU?$char_traits@D@std@@V?$allocator@D@2@@std@@AEAAAEAV?$allocator@D@2@XZ ; std::basic_string<char,std::char_traits<char>,std::allocator<char> >::_Getal
PUBLIC	?_Getal@?$basic_string@DU?$char_traits@D@std@@V?$allocator@D@2@@std@@AEBAAEBV?$allocator@D@2@XZ ; std::basic_string<char,std::char_traits<char>,std::allocator<char> >::_Getal
PUBLIC	?_Get_first@?$_Compressed_pair@V?$allocator@D@std@@V?$_String_val@U?$_Simple_types@D@std@@@2@$00@std@@QEAAAEAV?$allocator@D@2@XZ ; std::_Compressed_pair<std::allocator<char>,std::_String_val<std::_Simple_types<char> >,1>::_Get_first
PUBLIC	?_Get_first@?$_Compressed_pair@V?$allocator@D@std@@V?$_String_val@U?$_Simple_types@D@std@@@2@$00@std@@QEBAAEBV?$allocator@D@2@XZ ; std::_Compressed_pair<std::allocator<char>,std::_String_val<std::_Simple_types<char> >,1>::_Get_first
PUBLIC	??$min@_K@std@@YAAEB_KAEB_K0@Z			; std::min<unsigned __int64>
PUBLIC	??0WSInit@detail@httplib@@QEAA@XZ		; httplib::detail::WSInit::WSInit
PUBLIC	??1WSInit@detail@httplib@@QEAA@XZ		; httplib::detail::WSInit::~WSInit
PUBLIC	??0SSLInit@detail@httplib@@QEAA@XZ		; httplib::detail::SSLInit::SSLInit
PUBLIC	??0JsonReader@@QEAA@PEBD_K@Z			; JsonReader::JsonReader
PUBLIC	??1JsonReader@@QEAA@XZ				; JsonReader::~JsonReader
PUBLIC	?Build@JsonReader@@QEAAXPEBD_K@Z		; JsonReader::Build
PUBLIC	?StartObject@JsonReader@@QEAAAEAV1@PEA_K@Z	; JsonReader::StartObject
PUBLIC	?Member@JsonReader@@QEAAAEAV1@PEBD@Z		; JsonReader::Member
PUBLIC	?Member@JsonReader@@QEAAAEAV1@HAEAV?$basic_string@DU?$char_traits@D@std@@V?$allocator@D@2@@std@@@Z ; JsonReader::Member
PUBLIC	?HasMember@JsonReader@@QEAA_NPEBD@Z		; JsonReader::HasMember
PUBLIC	?EndObject@JsonReader@@QEAAAEAV1@XZ		; JsonReader::EndObject
PUBLIC	?StartArray@JsonReader@@QEAAAEAV1@PEA_K@Z	; JsonReader::StartArray
PUBLIC	?EndArray@JsonReader@@QEAAAEAV1@XZ		; JsonReader::EndArray
PUBLIC	??IJsonReader@@QEAAAEAV0@AEA_N@Z		; JsonReader::operator&
PUBLIC	??IJsonReader@@QEAAAEAV0@AEA_K@Z		; JsonReader::operator&
PUBLIC	??IJsonReader@@QEAAAEAV0@AEA_J@Z		; JsonReader::operator&
PUBLIC	??IJsonReader@@QEAAAEAV0@AEAI@Z			; JsonReader::operator&
PUBLIC	??IJsonReader@@QEAAAEAV0@AEAH@Z			; JsonReader::operator&
PUBLIC	??IJsonReader@@QEAAAEAV0@AEAN@Z			; JsonReader::operator&
PUBLIC	??IJsonReader@@QEAAAEAV0@AEAM@Z			; JsonReader::operator&
PUBLIC	??IJsonReader@@QEAAAEAV0@AEAV?$basic_string@DU?$char_traits@D@std@@V?$allocator@D@2@@std@@@Z ; JsonReader::operator&
PUBLIC	?SetNull@JsonReader@@QEAAAEAV1@XZ		; JsonReader::SetNull
PUBLIC	?Next@JsonReader@@AEAAXXZ			; JsonReader::Next
PUBLIC	??0JsonWriter@@QEAA@XZ				; JsonWriter::JsonWriter
PUBLIC	??1JsonWriter@@QEAA@XZ				; JsonWriter::~JsonWriter
PUBLIC	?GetString@JsonWriter@@QEBAPEBDXZ		; JsonWriter::GetString
PUBLIC	?GetStringLength@JsonWriter@@QEBA_KXZ		; JsonWriter::GetStringLength
PUBLIC	?StartObject@JsonWriter@@QEAAAEAV1@PEA_K@Z	; JsonWriter::StartObject
PUBLIC	?Member@JsonWriter@@QEAAAEAV1@PEBD@Z		; JsonWriter::Member
PUBLIC	?HasMember@JsonWriter@@QEBA_NPEBD@Z		; JsonWriter::HasMember
PUBLIC	?EndObject@JsonWriter@@QEAAAEAV1@XZ		; JsonWriter::EndObject
PUBLIC	?StartArray@JsonWriter@@QEAAAEAV1@PEA_K@Z	; JsonWriter::StartArray
PUBLIC	?EndArray@JsonWriter@@QEAAAEAV1@XZ		; JsonWriter::EndArray
PUBLIC	??IJsonWriter@@QEAAAEAV0@AEA_N@Z		; JsonWriter::operator&
PUBLIC	??IJsonWriter@@QEAAAEAV0@AEAI@Z			; JsonWriter::operator&
PUBLIC	??IJsonWriter@@QEAAAEAV0@AEA_K@Z		; JsonWriter::operator&
PUBLIC	??IJsonWriter@@QEAAAEAV0@AEA_J@Z		; JsonWriter::operator&
PUBLIC	??IJsonWriter@@QEAAAEAV0@AEAH@Z			; JsonWriter::operator&
PUBLIC	??IJsonWriter@@QEAAAEAV0@AEAN@Z			; JsonWriter::operator&
PUBLIC	??IJsonWriter@@QEAAAEAV0@AEAM@Z			; JsonWriter::operator&
PUBLIC	??IJsonWriter@@QEAAAEAV0@AEAV?$basic_string@DU?$char_traits@D@std@@V?$allocator@D@2@@std@@@Z ; JsonWriter::operator&
PUBLIC	?SetNull@JsonWriter@@QEAAAEAV1@XZ		; JsonWriter::SetNull
PUBLIC	?Malloc@CrtAllocator@rapidjson@@QEAAPEAX_K@Z	; rapidjson::CrtAllocator::Malloc
PUBLIC	?Realloc@CrtAllocator@rapidjson@@QEAAPEAXPEAX_K1@Z ; rapidjson::CrtAllocator::Realloc
PUBLIC	?Free@CrtAllocator@rapidjson@@SAXPEAX@Z		; rapidjson::CrtAllocator::Free
PUBLIC	??0MemoryStream@rapidjson@@QEAA@PEBD_K@Z	; rapidjson::MemoryStream::MemoryStream
PUBLIC	?Peek@MemoryStream@rapidjson@@QEBADXZ		; rapidjson::MemoryStream::Peek
PUBLIC	?Take@MemoryStream@rapidjson@@QEAADXZ		; rapidjson::MemoryStream::Take
PUBLIC	?Tell@MemoryStream@rapidjson@@QEBA_KXZ		; rapidjson::MemoryStream::Tell
PUBLIC	?GetRange@?$UTF8@D@rapidjson@@SAEE@Z		; rapidjson::UTF8<char>::GetRange
PUBLIC	??0?$EncodedInputStream@U?$UTF8@D@rapidjson@@UMemoryStream@2@@rapidjson@@QEAA@AEAUMemoryStream@1@@Z ; rapidjson::EncodedInputStream<rapidjson::UTF8<char>,rapidjson::MemoryStream>::EncodedInputStream<rapidjson::UTF8<char>,rapidjson::MemoryStream>
PUBLIC	?Peek@?$EncodedInputStream@U?$UTF8@D@rapidjson@@UMemoryStream@2@@rapidjson@@QEBADXZ ; rapidjson::EncodedInputStream<rapidjson::UTF8<char>,rapidjson::MemoryStream>::Peek
PUBLIC	?Take@?$EncodedInputStream@U?$UTF8@D@rapidjson@@UMemoryStream@2@@rapidjson@@QEAADXZ ; rapidjson::EncodedInputStream<rapidjson::UTF8<char>,rapidjson::MemoryStream>::Take
PUBLIC	?Tell@?$EncodedInputStream@U?$UTF8@D@rapidjson@@UMemoryStream@2@@rapidjson@@QEBA_KXZ ; rapidjson::EncodedInputStream<rapidjson::UTF8<char>,rapidjson::MemoryStream>::Tell
PUBLIC	?Put@?$EncodedInputStream@U?$UTF8@D@rapidjson@@UMemoryStream@2@@rapidjson@@QEAAXD@Z ; rapidjson::EncodedInputStream<rapidjson::UTF8<char>,rapidjson::MemoryStream>::Put
PUBLIC	?PutBegin@?$EncodedInputStream@U?$UTF8@D@rapidjson@@UMemoryStream@2@@rapidjson@@QEAAPEADXZ ; rapidjson::EncodedInputStream<rapidjson::UTF8<char>,rapidjson::MemoryStream>::PutBegin
PUBLIC	?PutEnd@?$EncodedInputStream@U?$UTF8@D@rapidjson@@UMemoryStream@2@@rapidjson@@QEAA_KPEAD@Z ; rapidjson::EncodedInputStream<rapidjson::UTF8<char>,rapidjson::MemoryStream>::PutEnd
PUBLIC	??0Double@internal@rapidjson@@QEAA@N@Z		; rapidjson::internal::Double::Double
PUBLIC	??0Double@internal@rapidjson@@QEAA@_K@Z		; rapidjson::internal::Double::Double
PUBLIC	?Value@Double@internal@rapidjson@@QEBANXZ	; rapidjson::internal::Double::Value
PUBLIC	?NextPositiveDouble@Double@internal@rapidjson@@QEBANXZ ; rapidjson::internal::Double::NextPositiveDouble
PUBLIC	?Sign@Double@internal@rapidjson@@QEBA_NXZ	; rapidjson::internal::Double::Sign
PUBLIC	?Significand@Double@internal@rapidjson@@QEBA_KXZ ; rapidjson::internal::Double::Significand
PUBLIC	?Exponent@Double@internal@rapidjson@@QEBAHXZ	; rapidjson::internal::Double::Exponent
PUBLIC	?IsNan@Double@internal@rapidjson@@QEBA_NXZ	; rapidjson::internal::Double::IsNan
PUBLIC	?IsNanOrInf@Double@internal@rapidjson@@QEBA_NXZ	; rapidjson::internal::Double::IsNanOrInf
PUBLIC	?IsNormal@Double@internal@rapidjson@@QEBA_NXZ	; rapidjson::internal::Double::IsNormal
PUBLIC	?IsZero@Double@internal@rapidjson@@QEBA_NXZ	; rapidjson::internal::Double::IsZero
PUBLIC	?IntegerSignificand@Double@internal@rapidjson@@QEBA_KXZ ; rapidjson::internal::Double::IntegerSignificand
PUBLIC	?IntegerExponent@Double@internal@rapidjson@@QEBAHXZ ; rapidjson::internal::Double::IntegerExponent
PUBLIC	?EffectiveSignificandSize@Double@internal@rapidjson@@SAHH@Z ; rapidjson::internal::Double::EffectiveSignificandSize
PUBLIC	??0BigInteger@internal@rapidjson@@QEAA@AEBV012@@Z ; rapidjson::internal::BigInteger::BigInteger
PUBLIC	??0BigInteger@internal@rapidjson@@QEAA@_K@Z	; rapidjson::internal::BigInteger::BigInteger
PUBLIC	??0BigInteger@internal@rapidjson@@QEAA@PEBD_K@Z	; rapidjson::internal::BigInteger::BigInteger
PUBLIC	??4BigInteger@internal@rapidjson@@QEAAAEAV012@_K@Z ; rapidjson::internal::BigInteger::operator=
PUBLIC	??YBigInteger@internal@rapidjson@@QEAAAEAV012@_K@Z ; rapidjson::internal::BigInteger::operator+=
PUBLIC	??XBigInteger@internal@rapidjson@@QEAAAEAV012@_K@Z ; rapidjson::internal::BigInteger::operator*=
PUBLIC	??XBigInteger@internal@rapidjson@@QEAAAEAV012@I@Z ; rapidjson::internal::BigInteger::operator*=
PUBLIC	??_3BigInteger@internal@rapidjson@@QEAAAEAV012@_K@Z ; rapidjson::internal::BigInteger::operator<<=
PUBLIC	??8BigInteger@internal@rapidjson@@QEBA_N_K@Z	; rapidjson::internal::BigInteger::operator==
PUBLIC	?MultiplyPow5@BigInteger@internal@rapidjson@@QEAAAEAV123@I@Z ; rapidjson::internal::BigInteger::MultiplyPow5
PUBLIC	?Difference@BigInteger@internal@rapidjson@@QEBA_NAEBV123@PEAV123@@Z ; rapidjson::internal::BigInteger::Difference
PUBLIC	?Compare@BigInteger@internal@rapidjson@@QEBAHAEBV123@@Z ; rapidjson::internal::BigInteger::Compare
PUBLIC	?IsZero@BigInteger@internal@rapidjson@@QEBA_NXZ	; rapidjson::internal::BigInteger::IsZero
PUBLIC	?AppendDecimal64@BigInteger@internal@rapidjson@@AEAAXPEBD0@Z ; rapidjson::internal::BigInteger::AppendDecimal64
PUBLIC	?PushBack@BigInteger@internal@rapidjson@@AEAAX_K@Z ; rapidjson::internal::BigInteger::PushBack
PUBLIC	?ParseUint64@BigInteger@internal@rapidjson@@CA_KPEBD0@Z ; rapidjson::internal::BigInteger::ParseUint64
PUBLIC	?MulAdd64@BigInteger@internal@rapidjson@@CA_K_K00PEA_K@Z ; rapidjson::internal::BigInteger::MulAdd64
PUBLIC	??0DiyFp@internal@rapidjson@@QEAA@XZ		; rapidjson::internal::DiyFp::DiyFp
PUBLIC	??0DiyFp@internal@rapidjson@@QEAA@_KH@Z		; rapidjson::internal::DiyFp::DiyFp
PUBLIC	??0DiyFp@internal@rapidjson@@QEAA@N@Z		; rapidjson::internal::DiyFp::DiyFp
PUBLIC	??GDiyFp@internal@rapidjson@@QEBA?AU012@AEBU012@@Z ; rapidjson::internal::DiyFp::operator-
PUBLIC	??DDiyFp@internal@rapidjson@@QEBA?AU012@AEBU012@@Z ; rapidjson::internal::DiyFp::operator*
PUBLIC	?Normalize@DiyFp@internal@rapidjson@@QEBA?AU123@XZ ; rapidjson::internal::DiyFp::Normalize
PUBLIC	?NormalizeBoundary@DiyFp@internal@rapidjson@@QEBA?AU123@XZ ; rapidjson::internal::DiyFp::NormalizeBoundary
PUBLIC	?NormalizedBoundaries@DiyFp@internal@rapidjson@@QEBAXPEAU123@0@Z ; rapidjson::internal::DiyFp::NormalizedBoundaries
PUBLIC	?ToDouble@DiyFp@internal@rapidjson@@QEBANXZ	; rapidjson::internal::DiyFp::ToDouble
PUBLIC	?GetCachedPowerByIndex@internal@rapidjson@@YA?AUDiyFp@12@_K@Z ; rapidjson::internal::GetCachedPowerByIndex
PUBLIC	?GetCachedPower@internal@rapidjson@@YA?AUDiyFp@12@HPEAH@Z ; rapidjson::internal::GetCachedPower
PUBLIC	?GetCachedPower10@internal@rapidjson@@YA?AUDiyFp@12@HPEAH@Z ; rapidjson::internal::GetCachedPower10
PUBLIC	?Pow10@internal@rapidjson@@YANH@Z		; rapidjson::internal::Pow10
PUBLIC	?FastPath@internal@rapidjson@@YANNH@Z		; rapidjson::internal::FastPath
PUBLIC	?StrtodNormalPrecision@internal@rapidjson@@YANNH@Z ; rapidjson::internal::StrtodNormalPrecision
PUBLIC	?CheckWithinHalfULP@internal@rapidjson@@YAHNAEBVBigInteger@12@H@Z ; rapidjson::internal::CheckWithinHalfULP
PUBLIC	??$Min3@H@internal@rapidjson@@YAHHHH@Z		; rapidjson::internal::Min3<int>
PUBLIC	?StrtodFast@internal@rapidjson@@YA_NNHPEAN@Z	; rapidjson::internal::StrtodFast
PUBLIC	?StrtodDiyFp@internal@rapidjson@@YA_NPEBDHHPEAN@Z ; rapidjson::internal::StrtodDiyFp
PUBLIC	?StrtodBigInteger@internal@rapidjson@@YANNPEBDHH@Z ; rapidjson::internal::StrtodBigInteger
PUBLIC	?StrtodFullPrecision@internal@rapidjson@@YANNHPEBD_K1H@Z ; rapidjson::internal::StrtodFullPrecision
PUBLIC	??0ParseResult@rapidjson@@QEAA@XZ		; rapidjson::ParseResult::ParseResult
PUBLIC	??BParseResult@rapidjson@@QEBAP801@EBA_NXZXZ	; rapidjson::ParseResult::operator bool (__cdecl rapidjson::ParseResult::*)(void)const 
PUBLIC	?IsError@ParseResult@rapidjson@@QEBA_NXZ	; rapidjson::ParseResult::IsError
PUBLIC	?Clear@ParseResult@rapidjson@@QEAAXXZ		; rapidjson::ParseResult::Clear
PUBLIC	?Set@ParseResult@rapidjson@@QEAAXW4ParseErrorCode@2@_K@Z ; rapidjson::ParseResult::Set
PUBLIC	??$StrLen@D@internal@rapidjson@@YAIPEBD@Z	; rapidjson::internal::StrLen<char>
PUBLIC	?GetDigitsLut@internal@rapidjson@@YAPEBDXZ	; rapidjson::internal::GetDigitsLut
PUBLIC	?u32toa@internal@rapidjson@@YAPEADIPEAD@Z	; rapidjson::internal::u32toa
PUBLIC	?i32toa@internal@rapidjson@@YAPEADHPEAD@Z	; rapidjson::internal::i32toa
PUBLIC	?u64toa@internal@rapidjson@@YAPEAD_KPEAD@Z	; rapidjson::internal::u64toa
PUBLIC	?i64toa@internal@rapidjson@@YAPEAD_JPEAD@Z	; rapidjson::internal::i64toa
PUBLIC	?GrisuRound@internal@rapidjson@@YAXPEADH_K111@Z	; rapidjson::internal::GrisuRound
PUBLIC	?CountDecimalDigit32@internal@rapidjson@@YAHI@Z	; rapidjson::internal::CountDecimalDigit32
PUBLIC	?DigitGen@internal@rapidjson@@YAXAEBUDiyFp@12@0_KPEADPEAH3@Z ; rapidjson::internal::DigitGen
PUBLIC	?Grisu2@internal@rapidjson@@YAXNPEADPEAH1@Z	; rapidjson::internal::Grisu2
PUBLIC	?WriteExponent@internal@rapidjson@@YAPEADHPEAD@Z ; rapidjson::internal::WriteExponent
PUBLIC	?Prettify@internal@rapidjson@@YAPEADPEADHHH@Z	; rapidjson::internal::Prettify
PUBLIC	?dtoa@internal@rapidjson@@YAPEADNPEADH@Z	; rapidjson::internal::dtoa
PUBLIC	??$PutN@V?$GenericStringBuffer@U?$UTF8@D@rapidjson@@VCrtAllocator@2@@rapidjson@@D@rapidjson@@YAXAEAV?$GenericStringBuffer@U?$UTF8@D@rapidjson@@VCrtAllocator@2@@0@D_K@Z ; rapidjson::PutN<rapidjson::GenericStringBuffer<rapidjson::UTF8<char>,rapidjson::CrtAllocator>,char>
PUBLIC	??0?$GenericStringBuffer@U?$UTF8@D@rapidjson@@VCrtAllocator@2@@rapidjson@@QEAA@PEAVCrtAllocator@1@_K@Z ; rapidjson::GenericStringBuffer<rapidjson::UTF8<char>,rapidjson::CrtAllocator>::GenericStringBuffer<rapidjson::UTF8<char>,rapidjson::CrtAllocator>
PUBLIC	?Put@?$GenericStringBuffer@U?$UTF8@D@rapidjson@@VCrtAllocator@2@@rapidjson@@QEAAXD@Z ; rapidjson::GenericStringBuffer<rapidjson::UTF8<char>,rapidjson::CrtAllocator>::Put
PUBLIC	?PutUnsafe@?$GenericStringBuffer@U?$UTF8@D@rapidjson@@VCrtAllocator@2@@rapidjson@@QEAAXD@Z ; rapidjson::GenericStringBuffer<rapidjson::UTF8<char>,rapidjson::CrtAllocator>::PutUnsafe
PUBLIC	?Flush@?$GenericStringBuffer@U?$UTF8@D@rapidjson@@VCrtAllocator@2@@rapidjson@@QEAAXXZ ; rapidjson::GenericStringBuffer<rapidjson::UTF8<char>,rapidjson::CrtAllocator>::Flush
PUBLIC	?Reserve@?$GenericStringBuffer@U?$UTF8@D@rapidjson@@VCrtAllocator@2@@rapidjson@@QEAAX_K@Z ; rapidjson::GenericStringBuffer<rapidjson::UTF8<char>,rapidjson::CrtAllocator>::Reserve
PUBLIC	?Push@?$GenericStringBuffer@U?$UTF8@D@rapidjson@@VCrtAllocator@2@@rapidjson@@QEAAPEAD_K@Z ; rapidjson::GenericStringBuffer<rapidjson::UTF8<char>,rapidjson::CrtAllocator>::Push
PUBLIC	?Pop@?$GenericStringBuffer@U?$UTF8@D@rapidjson@@VCrtAllocator@2@@rapidjson@@QEAAX_K@Z ; rapidjson::GenericStringBuffer<rapidjson::UTF8<char>,rapidjson::CrtAllocator>::Pop
PUBLIC	?GetString@?$GenericStringBuffer@U?$UTF8@D@rapidjson@@VCrtAllocator@2@@rapidjson@@QEBAPEBDXZ ; rapidjson::GenericStringBuffer<rapidjson::UTF8<char>,rapidjson::CrtAllocator>::GetString
PUBLIC	?GetLength@?$GenericStringBuffer@U?$UTF8@D@rapidjson@@VCrtAllocator@2@@rapidjson@@QEBA_KXZ ; rapidjson::GenericStringBuffer<rapidjson::UTF8<char>,rapidjson::CrtAllocator>::GetLength
PUBLIC	??0?$Stack@VCrtAllocator@rapidjson@@@internal@rapidjson@@QEAA@PEAVCrtAllocator@2@_K@Z ; rapidjson::internal::Stack<rapidjson::CrtAllocator>::Stack<rapidjson::CrtAllocator>
PUBLIC	??1?$Stack@VCrtAllocator@rapidjson@@@internal@rapidjson@@QEAA@XZ ; rapidjson::internal::Stack<rapidjson::CrtAllocator>::~Stack<rapidjson::CrtAllocator>
PUBLIC	?Clear@?$Stack@VCrtAllocator@rapidjson@@@internal@rapidjson@@QEAAXXZ ; rapidjson::internal::Stack<rapidjson::CrtAllocator>::Clear
PUBLIC	?ShrinkToFit@?$Stack@VCrtAllocator@rapidjson@@@internal@rapidjson@@QEAAXXZ ; rapidjson::internal::Stack<rapidjson::CrtAllocator>::ShrinkToFit
PUBLIC	?HasAllocator@?$Stack@VCrtAllocator@rapidjson@@@internal@rapidjson@@QEBA_NXZ ; rapidjson::internal::Stack<rapidjson::CrtAllocator>::HasAllocator
PUBLIC	?GetAllocator@?$Stack@VCrtAllocator@rapidjson@@@internal@rapidjson@@QEAAAEAVCrtAllocator@3@XZ ; rapidjson::internal::Stack<rapidjson::CrtAllocator>::GetAllocator
PUBLIC	?Empty@?$Stack@VCrtAllocator@rapidjson@@@internal@rapidjson@@QEBA_NXZ ; rapidjson::internal::Stack<rapidjson::CrtAllocator>::Empty
PUBLIC	?GetSize@?$Stack@VCrtAllocator@rapidjson@@@internal@rapidjson@@QEBA_KXZ ; rapidjson::internal::Stack<rapidjson::CrtAllocator>::GetSize
PUBLIC	?GetCapacity@?$Stack@VCrtAllocator@rapidjson@@@internal@rapidjson@@QEBA_KXZ ; rapidjson::internal::Stack<rapidjson::CrtAllocator>::GetCapacity
PUBLIC	?Resize@?$Stack@VCrtAllocator@rapidjson@@@internal@rapidjson@@AEAAX_K@Z ; rapidjson::internal::Stack<rapidjson::CrtAllocator>::Resize
PUBLIC	?Destroy@?$Stack@VCrtAllocator@rapidjson@@@internal@rapidjson@@AEAAXXZ ; rapidjson::internal::Stack<rapidjson::CrtAllocator>::Destroy
PUBLIC	??1?$GenericStringBuffer@U?$UTF8@D@rapidjson@@VCrtAllocator@2@@rapidjson@@QEAA@XZ ; rapidjson::GenericStringBuffer<rapidjson::UTF8<char>,rapidjson::CrtAllocator>::~GenericStringBuffer<rapidjson::UTF8<char>,rapidjson::CrtAllocator>
PUBLIC	??_G?$GenericStringBuffer@U?$UTF8@D@rapidjson@@VCrtAllocator@2@@rapidjson@@QEAAPEAXI@Z ; rapidjson::GenericStringBuffer<rapidjson::UTF8<char>,rapidjson::CrtAllocator>::`scalar deleting destructor'
PUBLIC	??$Push@D@?$Stack@VCrtAllocator@rapidjson@@@internal@rapidjson@@QEAAPEAD_K@Z ; rapidjson::internal::Stack<rapidjson::CrtAllocator>::Push<char>
PUBLIC	??0?$Writer@V?$GenericStringBuffer@U?$UTF8@D@rapidjson@@VCrtAllocator@2@@rapidjson@@U?$UTF8@D@2@U32@VCrtAllocator@2@$0A@@rapidjson@@QEAA@AEAV?$GenericStringBuffer@U?$UTF8@D@rapidjson@@VCrtAllocator@2@@1@PEAVCrtAllocator@1@_K@Z ; rapidjson::Writer<rapidjson::GenericStringBuffer<rapidjson::UTF8<char>,rapidjson::CrtAllocator>,rapidjson::UTF8<char>,rapidjson::UTF8<char>,rapidjson::CrtAllocator,0>::Writer<rapidjson::GenericStringBuffer<rapidjson::UTF8<char>,rapidjson::CrtAllocator>,rapidjson::UTF8<char>,rapidjson::UTF8<char>,rapidjson::CrtAllocator,0>
PUBLIC	?Flush@?$Writer@V?$GenericStringBuffer@U?$UTF8@D@rapidjson@@VCrtAllocator@2@@rapidjson@@U?$UTF8@D@2@U32@VCrtAllocator@2@$0A@@rapidjson@@QEAAXXZ ; rapidjson::Writer<rapidjson::GenericStringBuffer<rapidjson::UTF8<char>,rapidjson::CrtAllocator>,rapidjson::UTF8<char>,rapidjson::UTF8<char>,rapidjson::CrtAllocator,0>::Flush
PUBLIC	?WriteNull@?$Writer@V?$GenericStringBuffer@U?$UTF8@D@rapidjson@@VCrtAllocator@2@@rapidjson@@U?$UTF8@D@2@U32@VCrtAllocator@2@$0A@@rapidjson@@IEAA_NXZ ; rapidjson::Writer<rapidjson::GenericStringBuffer<rapidjson::UTF8<char>,rapidjson::CrtAllocator>,rapidjson::UTF8<char>,rapidjson::UTF8<char>,rapidjson::CrtAllocator,0>::WriteNull
PUBLIC	?WriteBool@?$Writer@V?$GenericStringBuffer@U?$UTF8@D@rapidjson@@VCrtAllocator@2@@rapidjson@@U?$UTF8@D@2@U32@VCrtAllocator@2@$0A@@rapidjson@@IEAA_N_N@Z ; rapidjson::Writer<rapidjson::GenericStringBuffer<rapidjson::UTF8<char>,rapidjson::CrtAllocator>,rapidjson::UTF8<char>,rapidjson::UTF8<char>,rapidjson::CrtAllocator,0>::WriteBool
PUBLIC	?WriteInt@?$Writer@V?$GenericStringBuffer@U?$UTF8@D@rapidjson@@VCrtAllocator@2@@rapidjson@@U?$UTF8@D@2@U32@VCrtAllocator@2@$0A@@rapidjson@@IEAA_NH@Z ; rapidjson::Writer<rapidjson::GenericStringBuffer<rapidjson::UTF8<char>,rapidjson::CrtAllocator>,rapidjson::UTF8<char>,rapidjson::UTF8<char>,rapidjson::CrtAllocator,0>::WriteInt
PUBLIC	?WriteUint@?$Writer@V?$GenericStringBuffer@U?$UTF8@D@rapidjson@@VCrtAllocator@2@@rapidjson@@U?$UTF8@D@2@U32@VCrtAllocator@2@$0A@@rapidjson@@IEAA_NI@Z ; rapidjson::Writer<rapidjson::GenericStringBuffer<rapidjson::UTF8<char>,rapidjson::CrtAllocator>,rapidjson::UTF8<char>,rapidjson::UTF8<char>,rapidjson::CrtAllocator,0>::WriteUint
PUBLIC	?WriteInt64@?$Writer@V?$GenericStringBuffer@U?$UTF8@D@rapidjson@@VCrtAllocator@2@@rapidjson@@U?$UTF8@D@2@U32@VCrtAllocator@2@$0A@@rapidjson@@IEAA_N_J@Z ; rapidjson::Writer<rapidjson::GenericStringBuffer<rapidjson::UTF8<char>,rapidjson::CrtAllocator>,rapidjson::UTF8<char>,rapidjson::UTF8<char>,rapidjson::CrtAllocator,0>::WriteInt64
PUBLIC	?WriteUint64@?$Writer@V?$GenericStringBuffer@U?$UTF8@D@rapidjson@@VCrtAllocator@2@@rapidjson@@U?$UTF8@D@2@U32@VCrtAllocator@2@$0A@@rapidjson@@IEAA_N_K@Z ; rapidjson::Writer<rapidjson::GenericStringBuffer<rapidjson::UTF8<char>,rapidjson::CrtAllocator>,rapidjson::UTF8<char>,rapidjson::UTF8<char>,rapidjson::CrtAllocator,0>::WriteUint64
PUBLIC	?WriteDouble@?$Writer@V?$GenericStringBuffer@U?$UTF8@D@rapidjson@@VCrtAllocator@2@@rapidjson@@U?$UTF8@D@2@U32@VCrtAllocator@2@$0A@@rapidjson@@IEAA_NN@Z ; rapidjson::Writer<rapidjson::GenericStringBuffer<rapidjson::UTF8<char>,rapidjson::CrtAllocator>,rapidjson::UTF8<char>,rapidjson::UTF8<char>,rapidjson::CrtAllocator,0>::WriteDouble
PUBLIC	?WriteString@?$Writer@V?$GenericStringBuffer@U?$UTF8@D@rapidjson@@VCrtAllocator@2@@rapidjson@@U?$UTF8@D@2@U32@VCrtAllocator@2@$0A@@rapidjson@@IEAA_NPEBDI@Z ; rapidjson::Writer<rapidjson::GenericStringBuffer<rapidjson::UTF8<char>,rapidjson::CrtAllocator>,rapidjson::UTF8<char>,rapidjson::UTF8<char>,rapidjson::CrtAllocator,0>::WriteString
PUBLIC	?ScanWriteUnescapedString@?$Writer@V?$GenericStringBuffer@U?$UTF8@D@rapidjson@@VCrtAllocator@2@@rapidjson@@U?$UTF8@D@2@U32@VCrtAllocator@2@$0A@@rapidjson@@IEAA_NAEAU?$GenericStringStream@U?$UTF8@D@rapidjson@@@2@_K@Z ; rapidjson::Writer<rapidjson::GenericStringBuffer<rapidjson::UTF8<char>,rapidjson::CrtAllocator>,rapidjson::UTF8<char>,rapidjson::UTF8<char>,rapidjson::CrtAllocator,0>::ScanWriteUnescapedString
PUBLIC	?WriteStartObject@?$Writer@V?$GenericStringBuffer@U?$UTF8@D@rapidjson@@VCrtAllocator@2@@rapidjson@@U?$UTF8@D@2@U32@VCrtAllocator@2@$0A@@rapidjson@@IEAA_NXZ ; rapidjson::Writer<rapidjson::GenericStringBuffer<rapidjson::UTF8<char>,rapidjson::CrtAllocator>,rapidjson::UTF8<char>,rapidjson::UTF8<char>,rapidjson::CrtAllocator,0>::WriteStartObject
PUBLIC	?WriteEndObject@?$Writer@V?$GenericStringBuffer@U?$UTF8@D@rapidjson@@VCrtAllocator@2@@rapidjson@@U?$UTF8@D@2@U32@VCrtAllocator@2@$0A@@rapidjson@@IEAA_NXZ ; rapidjson::Writer<rapidjson::GenericStringBuffer<rapidjson::UTF8<char>,rapidjson::CrtAllocator>,rapidjson::UTF8<char>,rapidjson::UTF8<char>,rapidjson::CrtAllocator,0>::WriteEndObject
PUBLIC	?WriteStartArray@?$Writer@V?$GenericStringBuffer@U?$UTF8@D@rapidjson@@VCrtAllocator@2@@rapidjson@@U?$UTF8@D@2@U32@VCrtAllocator@2@$0A@@rapidjson@@IEAA_NXZ ; rapidjson::Writer<rapidjson::GenericStringBuffer<rapidjson::UTF8<char>,rapidjson::CrtAllocator>,rapidjson::UTF8<char>,rapidjson::UTF8<char>,rapidjson::CrtAllocator,0>::WriteStartArray
PUBLIC	?WriteEndArray@?$Writer@V?$GenericStringBuffer@U?$UTF8@D@rapidjson@@VCrtAllocator@2@@rapidjson@@U?$UTF8@D@2@U32@VCrtAllocator@2@$0A@@rapidjson@@IEAA_NXZ ; rapidjson::Writer<rapidjson::GenericStringBuffer<rapidjson::UTF8<char>,rapidjson::CrtAllocator>,rapidjson::UTF8<char>,rapidjson::UTF8<char>,rapidjson::CrtAllocator,0>::WriteEndArray
PUBLIC	?EndValue@?$Writer@V?$GenericStringBuffer@U?$UTF8@D@rapidjson@@VCrtAllocator@2@@rapidjson@@U?$UTF8@D@2@U32@VCrtAllocator@2@$0A@@rapidjson@@IEAA_N_N@Z ; rapidjson::Writer<rapidjson::GenericStringBuffer<rapidjson::UTF8<char>,rapidjson::CrtAllocator>,rapidjson::UTF8<char>,rapidjson::UTF8<char>,rapidjson::CrtAllocator,0>::EndValue
PUBLIC	??1?$Writer@V?$GenericStringBuffer@U?$UTF8@D@rapidjson@@VCrtAllocator@2@@rapidjson@@U?$UTF8@D@2@U32@VCrtAllocator@2@$0A@@rapidjson@@QEAA@XZ ; rapidjson::Writer<rapidjson::GenericStringBuffer<rapidjson::UTF8<char>,rapidjson::CrtAllocator>,rapidjson::UTF8<char>,rapidjson::UTF8<char>,rapidjson::CrtAllocator,0>::~Writer<rapidjson::GenericStringBuffer<rapidjson::UTF8<char>,rapidjson::CrtAllocator>,rapidjson::UTF8<char>,rapidjson::UTF8<char>,rapidjson::CrtAllocator,0>
PUBLIC	??$PutReserve@U?$UTF8@D@rapidjson@@VCrtAllocator@2@@rapidjson@@YAXAEAV?$GenericStringBuffer@U?$UTF8@D@rapidjson@@VCrtAllocator@2@@0@_K@Z ; rapidjson::PutReserve<rapidjson::UTF8<char>,rapidjson::CrtAllocator>
PUBLIC	??$PutUnsafe@U?$UTF8@D@rapidjson@@VCrtAllocator@2@@rapidjson@@YAXAEAV?$GenericStringBuffer@U?$UTF8@D@rapidjson@@VCrtAllocator@2@@0@D@Z ; rapidjson::PutUnsafe<rapidjson::UTF8<char>,rapidjson::CrtAllocator>
PUBLIC	??0JsonReaderStackItem@@QEAA@PEBV?$GenericValue@U?$UTF8@D@rapidjson@@V?$MemoryPoolAllocator@VCrtAllocator@rapidjson@@@2@@rapidjson@@W4State@0@@Z ; JsonReaderStackItem::JsonReaderStackItem
PUBLIC	??0?$GenericMemberIterator@$0A@U?$UTF8@D@rapidjson@@V?$MemoryPoolAllocator@VCrtAllocator@rapidjson@@@2@@rapidjson@@QEAA@AEBV01@@Z ; rapidjson::GenericMemberIterator<0,rapidjson::UTF8<char>,rapidjson::MemoryPoolAllocator<rapidjson::CrtAllocator> >::GenericMemberIterator<0,rapidjson::UTF8<char>,rapidjson::MemoryPoolAllocator<rapidjson::CrtAllocator> >
PUBLIC	??E?$GenericMemberIterator@$0A@U?$UTF8@D@rapidjson@@V?$MemoryPoolAllocator@VCrtAllocator@rapidjson@@@2@@rapidjson@@QEAAAEAV01@XZ ; rapidjson::GenericMemberIterator<0,rapidjson::UTF8<char>,rapidjson::MemoryPoolAllocator<rapidjson::CrtAllocator> >::operator++
PUBLIC	??9?$GenericMemberIterator@$0A@U?$UTF8@D@rapidjson@@V?$MemoryPoolAllocator@VCrtAllocator@rapidjson@@@2@@rapidjson@@QEBA_NV?$GenericMemberIterator@$00U?$UTF8@D@rapidjson@@V?$MemoryPoolAllocator@VCrtAllocator@rapidjson@@@2@@1@@Z ; rapidjson::GenericMemberIterator<0,rapidjson::UTF8<char>,rapidjson::MemoryPoolAllocator<rapidjson::CrtAllocator> >::operator!=
PUBLIC	??C?$GenericMemberIterator@$0A@U?$UTF8@D@rapidjson@@V?$MemoryPoolAllocator@VCrtAllocator@rapidjson@@@2@@rapidjson@@QEBAPEAU?$GenericMember@U?$UTF8@D@rapidjson@@V?$MemoryPoolAllocator@VCrtAllocator@rapidjson@@@2@@1@XZ ; rapidjson::GenericMemberIterator<0,rapidjson::UTF8<char>,rapidjson::MemoryPoolAllocator<rapidjson::CrtAllocator> >::operator->
PUBLIC	??0?$GenericMemberIterator@$0A@U?$UTF8@D@rapidjson@@V?$MemoryPoolAllocator@VCrtAllocator@rapidjson@@@2@@rapidjson@@AEAA@PEAU?$GenericMember@U?$UTF8@D@rapidjson@@V?$MemoryPoolAllocator@VCrtAllocator@rapidjson@@@2@@1@@Z ; rapidjson::GenericMemberIterator<0,rapidjson::UTF8<char>,rapidjson::MemoryPoolAllocator<rapidjson::CrtAllocator> >::GenericMemberIterator<0,rapidjson::UTF8<char>,rapidjson::MemoryPoolAllocator<rapidjson::CrtAllocator> >
PUBLIC	??0?$GenericMemberIterator@$00U?$UTF8@D@rapidjson@@V?$MemoryPoolAllocator@VCrtAllocator@rapidjson@@@2@@rapidjson@@QEAA@AEBV?$GenericMemberIterator@$0A@U?$UTF8@D@rapidjson@@V?$MemoryPoolAllocator@VCrtAllocator@rapidjson@@@2@@1@@Z ; rapidjson::GenericMemberIterator<1,rapidjson::UTF8<char>,rapidjson::MemoryPoolAllocator<rapidjson::CrtAllocator> >::GenericMemberIterator<1,rapidjson::UTF8<char>,rapidjson::MemoryPoolAllocator<rapidjson::CrtAllocator> >
PUBLIC	??H?$GenericMemberIterator@$00U?$UTF8@D@rapidjson@@V?$MemoryPoolAllocator@VCrtAllocator@rapidjson@@@2@@rapidjson@@QEBA?AV01@_J@Z ; rapidjson::GenericMemberIterator<1,rapidjson::UTF8<char>,rapidjson::MemoryPoolAllocator<rapidjson::CrtAllocator> >::operator+
PUBLIC	??9?$GenericMemberIterator@$00U?$UTF8@D@rapidjson@@V?$MemoryPoolAllocator@VCrtAllocator@rapidjson@@@2@@rapidjson@@QEBA_NV01@@Z ; rapidjson::GenericMemberIterator<1,rapidjson::UTF8<char>,rapidjson::MemoryPoolAllocator<rapidjson::CrtAllocator> >::operator!=
PUBLIC	??M?$GenericMemberIterator@$00U?$UTF8@D@rapidjson@@V?$MemoryPoolAllocator@VCrtAllocator@rapidjson@@@2@@rapidjson@@QEBA_NV01@@Z ; rapidjson::GenericMemberIterator<1,rapidjson::UTF8<char>,rapidjson::MemoryPoolAllocator<rapidjson::CrtAllocator> >::operator<
PUBLIC	??C?$GenericMemberIterator@$00U?$UTF8@D@rapidjson@@V?$MemoryPoolAllocator@VCrtAllocator@rapidjson@@@2@@rapidjson@@QEBAPEBU?$GenericMember@U?$UTF8@D@rapidjson@@V?$MemoryPoolAllocator@VCrtAllocator@rapidjson@@@2@@1@XZ ; rapidjson::GenericMemberIterator<1,rapidjson::UTF8<char>,rapidjson::MemoryPoolAllocator<rapidjson::CrtAllocator> >::operator->
PUBLIC	??0?$GenericMemberIterator@$00U?$UTF8@D@rapidjson@@V?$MemoryPoolAllocator@VCrtAllocator@rapidjson@@@2@@rapidjson@@AEAA@PEBU?$GenericMember@U?$UTF8@D@rapidjson@@V?$MemoryPoolAllocator@VCrtAllocator@rapidjson@@@2@@1@@Z ; rapidjson::GenericMemberIterator<1,rapidjson::UTF8<char>,rapidjson::MemoryPoolAllocator<rapidjson::CrtAllocator> >::GenericMemberIterator<1,rapidjson::UTF8<char>,rapidjson::MemoryPoolAllocator<rapidjson::CrtAllocator> >
PUBLIC	??0?$GenericValue@U?$UTF8@D@rapidjson@@V?$MemoryPoolAllocator@VCrtAllocator@rapidjson@@@2@@rapidjson@@QEAA@XZ ; rapidjson::GenericValue<rapidjson::UTF8<char>,rapidjson::MemoryPoolAllocator<rapidjson::CrtAllocator> >::GenericValue<rapidjson::UTF8<char>,rapidjson::MemoryPoolAllocator<rapidjson::CrtAllocator> >
PUBLIC	??0?$GenericValue@U?$UTF8@D@rapidjson@@V?$MemoryPoolAllocator@VCrtAllocator@rapidjson@@@2@@rapidjson@@QEAA@W4Type@1@@Z ; rapidjson::GenericValue<rapidjson::UTF8<char>,rapidjson::MemoryPoolAllocator<rapidjson::CrtAllocator> >::GenericValue<rapidjson::UTF8<char>,rapidjson::MemoryPoolAllocator<rapidjson::CrtAllocator> >
PUBLIC	??0?$GenericValue@U?$UTF8@D@rapidjson@@V?$MemoryPoolAllocator@VCrtAllocator@rapidjson@@@2@@rapidjson@@QEAA@H@Z ; rapidjson::GenericValue<rapidjson::UTF8<char>,rapidjson::MemoryPoolAllocator<rapidjson::CrtAllocator> >::GenericValue<rapidjson::UTF8<char>,rapidjson::MemoryPoolAllocator<rapidjson::CrtAllocator> >
PUBLIC	??0?$GenericValue@U?$UTF8@D@rapidjson@@V?$MemoryPoolAllocator@VCrtAllocator@rapidjson@@@2@@rapidjson@@QEAA@I@Z ; rapidjson::GenericValue<rapidjson::UTF8<char>,rapidjson::MemoryPoolAllocator<rapidjson::CrtAllocator> >::GenericValue<rapidjson::UTF8<char>,rapidjson::MemoryPoolAllocator<rapidjson::CrtAllocator> >
PUBLIC	??0?$GenericValue@U?$UTF8@D@rapidjson@@V?$MemoryPoolAllocator@VCrtAllocator@rapidjson@@@2@@rapidjson@@QEAA@_J@Z ; rapidjson::GenericValue<rapidjson::UTF8<char>,rapidjson::MemoryPoolAllocator<rapidjson::CrtAllocator> >::GenericValue<rapidjson::UTF8<char>,rapidjson::MemoryPoolAllocator<rapidjson::CrtAllocator> >
PUBLIC	??0?$GenericValue@U?$UTF8@D@rapidjson@@V?$MemoryPoolAllocator@VCrtAllocator@rapidjson@@@2@@rapidjson@@QEAA@_K@Z ; rapidjson::GenericValue<rapidjson::UTF8<char>,rapidjson::MemoryPoolAllocator<rapidjson::CrtAllocator> >::GenericValue<rapidjson::UTF8<char>,rapidjson::MemoryPoolAllocator<rapidjson::CrtAllocator> >
PUBLIC	??0?$GenericValue@U?$UTF8@D@rapidjson@@V?$MemoryPoolAllocator@VCrtAllocator@rapidjson@@@2@@rapidjson@@QEAA@N@Z ; rapidjson::GenericValue<rapidjson::UTF8<char>,rapidjson::MemoryPoolAllocator<rapidjson::CrtAllocator> >::GenericValue<rapidjson::UTF8<char>,rapidjson::MemoryPoolAllocator<rapidjson::CrtAllocator> >
PUBLIC	??0?$GenericValue@U?$UTF8@D@rapidjson@@V?$MemoryPoolAllocator@VCrtAllocator@rapidjson@@@2@@rapidjson@@QEAA@PEBDI@Z ; rapidjson::GenericValue<rapidjson::UTF8<char>,rapidjson::MemoryPoolAllocator<rapidjson::CrtAllocator> >::GenericValue<rapidjson::UTF8<char>,rapidjson::MemoryPoolAllocator<rapidjson::CrtAllocator> >
PUBLIC	??0?$GenericValue@U?$UTF8@D@rapidjson@@V?$MemoryPoolAllocator@VCrtAllocator@rapidjson@@@2@@rapidjson@@QEAA@U?$GenericStringRef@D@1@@Z ; rapidjson::GenericValue<rapidjson::UTF8<char>,rapidjson::MemoryPoolAllocator<rapidjson::CrtAllocator> >::GenericValue<rapidjson::UTF8<char>,rapidjson::MemoryPoolAllocator<rapidjson::CrtAllocator> >
PUBLIC	??0?$GenericValue@U?$UTF8@D@rapidjson@@V?$MemoryPoolAllocator@VCrtAllocator@rapidjson@@@2@@rapidjson@@QEAA@PEBDIAEAV?$MemoryPoolAllocator@VCrtAllocator@rapidjson@@@1@@Z ; rapidjson::GenericValue<rapidjson::UTF8<char>,rapidjson::MemoryPoolAllocator<rapidjson::CrtAllocator> >::GenericValue<rapidjson::UTF8<char>,rapidjson::MemoryPoolAllocator<rapidjson::CrtAllocator> >
PUBLIC	??1?$GenericValue@U?$UTF8@D@rapidjson@@V?$MemoryPoolAllocator@VCrtAllocator@rapidjson@@@2@@rapidjson@@QEAA@XZ ; rapidjson::GenericValue<rapidjson::UTF8<char>,rapidjson::MemoryPoolAllocator<rapidjson::CrtAllocator> >::~GenericValue<rapidjson::UTF8<char>,rapidjson::MemoryPoolAllocator<rapidjson::CrtAllocator> >
PUBLIC	??4?$GenericValue@U?$UTF8@D@rapidjson@@V?$MemoryPoolAllocator@VCrtAllocator@rapidjson@@@2@@rapidjson@@QEAAAEAV01@AEAV01@@Z ; rapidjson::GenericValue<rapidjson::UTF8<char>,rapidjson::MemoryPoolAllocator<rapidjson::CrtAllocator> >::operator=
PUBLIC	?IsBool@?$GenericValue@U?$UTF8@D@rapidjson@@V?$MemoryPoolAllocator@VCrtAllocator@rapidjson@@@2@@rapidjson@@QEBA_NXZ ; rapidjson::GenericValue<rapidjson::UTF8<char>,rapidjson::MemoryPoolAllocator<rapidjson::CrtAllocator> >::IsBool
PUBLIC	?IsObject@?$GenericValue@U?$UTF8@D@rapidjson@@V?$MemoryPoolAllocator@VCrtAllocator@rapidjson@@@2@@rapidjson@@QEBA_NXZ ; rapidjson::GenericValue<rapidjson::UTF8<char>,rapidjson::MemoryPoolAllocator<rapidjson::CrtAllocator> >::IsObject
PUBLIC	?IsArray@?$GenericValue@U?$UTF8@D@rapidjson@@V?$MemoryPoolAllocator@VCrtAllocator@rapidjson@@@2@@rapidjson@@QEBA_NXZ ; rapidjson::GenericValue<rapidjson::UTF8<char>,rapidjson::MemoryPoolAllocator<rapidjson::CrtAllocator> >::IsArray
PUBLIC	?IsNumber@?$GenericValue@U?$UTF8@D@rapidjson@@V?$MemoryPoolAllocator@VCrtAllocator@rapidjson@@@2@@rapidjson@@QEBA_NXZ ; rapidjson::GenericValue<rapidjson::UTF8<char>,rapidjson::MemoryPoolAllocator<rapidjson::CrtAllocator> >::IsNumber
PUBLIC	?IsInt@?$GenericValue@U?$UTF8@D@rapidjson@@V?$MemoryPoolAllocator@VCrtAllocator@rapidjson@@@2@@rapidjson@@QEBA_NXZ ; rapidjson::GenericValue<rapidjson::UTF8<char>,rapidjson::MemoryPoolAllocator<rapidjson::CrtAllocator> >::IsInt
PUBLIC	?IsUint@?$GenericValue@U?$UTF8@D@rapidjson@@V?$MemoryPoolAllocator@VCrtAllocator@rapidjson@@@2@@rapidjson@@QEBA_NXZ ; rapidjson::GenericValue<rapidjson::UTF8<char>,rapidjson::MemoryPoolAllocator<rapidjson::CrtAllocator> >::IsUint
PUBLIC	?IsInt64@?$GenericValue@U?$UTF8@D@rapidjson@@V?$MemoryPoolAllocator@VCrtAllocator@rapidjson@@@2@@rapidjson@@QEBA_NXZ ; rapidjson::GenericValue<rapidjson::UTF8<char>,rapidjson::MemoryPoolAllocator<rapidjson::CrtAllocator> >::IsInt64
PUBLIC	?IsUint64@?$GenericValue@U?$UTF8@D@rapidjson@@V?$MemoryPoolAllocator@VCrtAllocator@rapidjson@@@2@@rapidjson@@QEBA_NXZ ; rapidjson::GenericValue<rapidjson::UTF8<char>,rapidjson::MemoryPoolAllocator<rapidjson::CrtAllocator> >::IsUint64
PUBLIC	?IsString@?$GenericValue@U?$UTF8@D@rapidjson@@V?$MemoryPoolAllocator@VCrtAllocator@rapidjson@@@2@@rapidjson@@QEBA_NXZ ; rapidjson::GenericValue<rapidjson::UTF8<char>,rapidjson::MemoryPoolAllocator<rapidjson::CrtAllocator> >::IsString
PUBLIC	?GetBool@?$GenericValue@U?$UTF8@D@rapidjson@@V?$MemoryPoolAllocator@VCrtAllocator@rapidjson@@@2@@rapidjson@@QEBA_NXZ ; rapidjson::GenericValue<rapidjson::UTF8<char>,rapidjson::MemoryPoolAllocator<rapidjson::CrtAllocator> >::GetBool
PUBLIC	?MemberCount@?$GenericValue@U?$UTF8@D@rapidjson@@V?$MemoryPoolAllocator@VCrtAllocator@rapidjson@@@2@@rapidjson@@QEBAIXZ ; rapidjson::GenericValue<rapidjson::UTF8<char>,rapidjson::MemoryPoolAllocator<rapidjson::CrtAllocator> >::MemberCount
PUBLIC	?MemberBegin@?$GenericValue@U?$UTF8@D@rapidjson@@V?$MemoryPoolAllocator@VCrtAllocator@rapidjson@@@2@@rapidjson@@QEBA?AV?$GenericMemberIterator@$00U?$UTF8@D@rapidjson@@V?$MemoryPoolAllocator@VCrtAllocator@rapidjson@@@2@@2@XZ ; rapidjson::GenericValue<rapidjson::UTF8<char>,rapidjson::MemoryPoolAllocator<rapidjson::CrtAllocator> >::MemberBegin
PUBLIC	?MemberEnd@?$GenericValue@U?$UTF8@D@rapidjson@@V?$MemoryPoolAllocator@VCrtAllocator@rapidjson@@@2@@rapidjson@@QEBA?AV?$GenericMemberIterator@$00U?$UTF8@D@rapidjson@@V?$MemoryPoolAllocator@VCrtAllocator@rapidjson@@@2@@2@XZ ; rapidjson::GenericValue<rapidjson::UTF8<char>,rapidjson::MemoryPoolAllocator<rapidjson::CrtAllocator> >::MemberEnd
PUBLIC	?MemberBegin@?$GenericValue@U?$UTF8@D@rapidjson@@V?$MemoryPoolAllocator@VCrtAllocator@rapidjson@@@2@@rapidjson@@QEAA?AV?$GenericMemberIterator@$0A@U?$UTF8@D@rapidjson@@V?$MemoryPoolAllocator@VCrtAllocator@rapidjson@@@2@@2@XZ ; rapidjson::GenericValue<rapidjson::UTF8<char>,rapidjson::MemoryPoolAllocator<rapidjson::CrtAllocator> >::MemberBegin
PUBLIC	?MemberEnd@?$GenericValue@U?$UTF8@D@rapidjson@@V?$MemoryPoolAllocator@VCrtAllocator@rapidjson@@@2@@rapidjson@@QEAA?AV?$GenericMemberIterator@$0A@U?$UTF8@D@rapidjson@@V?$MemoryPoolAllocator@VCrtAllocator@rapidjson@@@2@@2@XZ ; rapidjson::GenericValue<rapidjson::UTF8<char>,rapidjson::MemoryPoolAllocator<rapidjson::CrtAllocator> >::MemberEnd
PUBLIC	?HasMember@?$GenericValue@U?$UTF8@D@rapidjson@@V?$MemoryPoolAllocator@VCrtAllocator@rapidjson@@@2@@rapidjson@@QEBA_NPEBD@Z ; rapidjson::GenericValue<rapidjson::UTF8<char>,rapidjson::MemoryPoolAllocator<rapidjson::CrtAllocator> >::HasMember
PUBLIC	?FindMember@?$GenericValue@U?$UTF8@D@rapidjson@@V?$MemoryPoolAllocator@VCrtAllocator@rapidjson@@@2@@rapidjson@@QEAA?AV?$GenericMemberIterator@$0A@U?$UTF8@D@rapidjson@@V?$MemoryPoolAllocator@VCrtAllocator@rapidjson@@@2@@2@PEBD@Z ; rapidjson::GenericValue<rapidjson::UTF8<char>,rapidjson::MemoryPoolAllocator<rapidjson::CrtAllocator> >::FindMember
PUBLIC	?FindMember@?$GenericValue@U?$UTF8@D@rapidjson@@V?$MemoryPoolAllocator@VCrtAllocator@rapidjson@@@2@@rapidjson@@QEBA?AV?$GenericMemberIterator@$00U?$UTF8@D@rapidjson@@V?$MemoryPoolAllocator@VCrtAllocator@rapidjson@@@2@@2@PEBD@Z ; rapidjson::GenericValue<rapidjson::UTF8<char>,rapidjson::MemoryPoolAllocator<rapidjson::CrtAllocator> >::FindMember
PUBLIC	?Size@?$GenericValue@U?$UTF8@D@rapidjson@@V?$MemoryPoolAllocator@VCrtAllocator@rapidjson@@@2@@rapidjson@@QEBAIXZ ; rapidjson::GenericValue<rapidjson::UTF8<char>,rapidjson::MemoryPoolAllocator<rapidjson::CrtAllocator> >::Size
PUBLIC	?Empty@?$GenericValue@U?$UTF8@D@rapidjson@@V?$MemoryPoolAllocator@VCrtAllocator@rapidjson@@@2@@rapidjson@@QEBA_NXZ ; rapidjson::GenericValue<rapidjson::UTF8<char>,rapidjson::MemoryPoolAllocator<rapidjson::CrtAllocator> >::Empty
PUBLIC	??A?$GenericValue@U?$UTF8@D@rapidjson@@V?$MemoryPoolAllocator@VCrtAllocator@rapidjson@@@2@@rapidjson@@QEAAAEAV01@I@Z ; rapidjson::GenericValue<rapidjson::UTF8<char>,rapidjson::MemoryPoolAllocator<rapidjson::CrtAllocator> >::operator[]
PUBLIC	??A?$GenericValue@U?$UTF8@D@rapidjson@@V?$MemoryPoolAllocator@VCrtAllocator@rapidjson@@@2@@rapidjson@@QEBAAEBV01@I@Z ; rapidjson::GenericValue<rapidjson::UTF8<char>,rapidjson::MemoryPoolAllocator<rapidjson::CrtAllocator> >::operator[]
PUBLIC	?GetInt@?$GenericValue@U?$UTF8@D@rapidjson@@V?$MemoryPoolAllocator@VCrtAllocator@rapidjson@@@2@@rapidjson@@QEBAHXZ ; rapidjson::GenericValue<rapidjson::UTF8<char>,rapidjson::MemoryPoolAllocator<rapidjson::CrtAllocator> >::GetInt
PUBLIC	?GetUint@?$GenericValue@U?$UTF8@D@rapidjson@@V?$MemoryPoolAllocator@VCrtAllocator@rapidjson@@@2@@rapidjson@@QEBAIXZ ; rapidjson::GenericValue<rapidjson::UTF8<char>,rapidjson::MemoryPoolAllocator<rapidjson::CrtAllocator> >::GetUint
PUBLIC	?GetInt64@?$GenericValue@U?$UTF8@D@rapidjson@@V?$MemoryPoolAllocator@VCrtAllocator@rapidjson@@@2@@rapidjson@@QEBA_JXZ ; rapidjson::GenericValue<rapidjson::UTF8<char>,rapidjson::MemoryPoolAllocator<rapidjson::CrtAllocator> >::GetInt64
PUBLIC	?GetUint64@?$GenericValue@U?$UTF8@D@rapidjson@@V?$MemoryPoolAllocator@VCrtAllocator@rapidjson@@@2@@rapidjson@@QEBA_KXZ ; rapidjson::GenericValue<rapidjson::UTF8<char>,rapidjson::MemoryPoolAllocator<rapidjson::CrtAllocator> >::GetUint64
PUBLIC	?GetDouble@?$GenericValue@U?$UTF8@D@rapidjson@@V?$MemoryPoolAllocator@VCrtAllocator@rapidjson@@@2@@rapidjson@@QEBANXZ ; rapidjson::GenericValue<rapidjson::UTF8<char>,rapidjson::MemoryPoolAllocator<rapidjson::CrtAllocator> >::GetDouble
PUBLIC	?GetString@?$GenericValue@U?$UTF8@D@rapidjson@@V?$MemoryPoolAllocator@VCrtAllocator@rapidjson@@@2@@rapidjson@@QEBAPEBDXZ ; rapidjson::GenericValue<rapidjson::UTF8<char>,rapidjson::MemoryPoolAllocator<rapidjson::CrtAllocator> >::GetString
PUBLIC	?GetStringLength@?$GenericValue@U?$UTF8@D@rapidjson@@V?$MemoryPoolAllocator@VCrtAllocator@rapidjson@@@2@@rapidjson@@QEBAIXZ ; rapidjson::GenericValue<rapidjson::UTF8<char>,rapidjson::MemoryPoolAllocator<rapidjson::CrtAllocator> >::GetStringLength
PUBLIC	?GetStringPointer@?$GenericValue@U?$UTF8@D@rapidjson@@V?$MemoryPoolAllocator@VCrtAllocator@rapidjson@@@2@@rapidjson@@AEBAPEBDXZ ; rapidjson::GenericValue<rapidjson::UTF8<char>,rapidjson::MemoryPoolAllocator<rapidjson::CrtAllocator> >::GetStringPointer
PUBLIC	?SetStringPointer@?$GenericValue@U?$UTF8@D@rapidjson@@V?$MemoryPoolAllocator@VCrtAllocator@rapidjson@@@2@@rapidjson@@AEAAPEBDPEBD@Z ; rapidjson::GenericValue<rapidjson::UTF8<char>,rapidjson::MemoryPoolAllocator<rapidjson::CrtAllocator> >::SetStringPointer
PUBLIC	?GetElementsPointer@?$GenericValue@U?$UTF8@D@rapidjson@@V?$MemoryPoolAllocator@VCrtAllocator@rapidjson@@@2@@rapidjson@@AEBAPEAV12@XZ ; rapidjson::GenericValue<rapidjson::UTF8<char>,rapidjson::MemoryPoolAllocator<rapidjson::CrtAllocator> >::GetElementsPointer
PUBLIC	?SetElementsPointer@?$GenericValue@U?$UTF8@D@rapidjson@@V?$MemoryPoolAllocator@VCrtAllocator@rapidjson@@@2@@rapidjson@@AEAAPEAV12@PEAV12@@Z ; rapidjson::GenericValue<rapidjson::UTF8<char>,rapidjson::MemoryPoolAllocator<rapidjson::CrtAllocator> >::SetElementsPointer
PUBLIC	?GetMembersPointer@?$GenericValue@U?$UTF8@D@rapidjson@@V?$MemoryPoolAllocator@VCrtAllocator@rapidjson@@@2@@rapidjson@@AEBAPEAU?$GenericMember@U?$UTF8@D@rapidjson@@V?$MemoryPoolAllocator@VCrtAllocator@rapidjson@@@2@@2@XZ ; rapidjson::GenericValue<rapidjson::UTF8<char>,rapidjson::MemoryPoolAllocator<rapidjson::CrtAllocator> >::GetMembersPointer
PUBLIC	?SetMembersPointer@?$GenericValue@U?$UTF8@D@rapidjson@@V?$MemoryPoolAllocator@VCrtAllocator@rapidjson@@@2@@rapidjson@@AEAAPEAU?$GenericMember@U?$UTF8@D@rapidjson@@V?$MemoryPoolAllocator@VCrtAllocator@rapidjson@@@2@@2@PEAU32@@Z ; rapidjson::GenericValue<rapidjson::UTF8<char>,rapidjson::MemoryPoolAllocator<rapidjson::CrtAllocator> >::SetMembersPointer
PUBLIC	?SetArrayRaw@?$GenericValue@U?$UTF8@D@rapidjson@@V?$MemoryPoolAllocator@VCrtAllocator@rapidjson@@@2@@rapidjson@@AEAAXPEAV12@IAEAV?$MemoryPoolAllocator@VCrtAllocator@rapidjson@@@2@@Z ; rapidjson::GenericValue<rapidjson::UTF8<char>,rapidjson::MemoryPoolAllocator<rapidjson::CrtAllocator> >::SetArrayRaw
PUBLIC	?SetObjectRaw@?$GenericValue@U?$UTF8@D@rapidjson@@V?$MemoryPoolAllocator@VCrtAllocator@rapidjson@@@2@@rapidjson@@AEAAXPEAU?$GenericMember@U?$UTF8@D@rapidjson@@V?$MemoryPoolAllocator@VCrtAllocator@rapidjson@@@2@@2@IAEAV?$MemoryPoolAllocator@VCrtAllocator@rapidjson@@@2@@Z ; rapidjson::GenericValue<rapidjson::UTF8<char>,rapidjson::MemoryPoolAllocator<rapidjson::CrtAllocator> >::SetObjectRaw
PUBLIC	?SetStringRaw@?$GenericValue@U?$UTF8@D@rapidjson@@V?$MemoryPoolAllocator@VCrtAllocator@rapidjson@@@2@@rapidjson@@AEAAXU?$GenericStringRef@D@2@@Z ; rapidjson::GenericValue<rapidjson::UTF8<char>,rapidjson::MemoryPoolAllocator<rapidjson::CrtAllocator> >::SetStringRaw
PUBLIC	?SetStringRaw@?$GenericValue@U?$UTF8@D@rapidjson@@V?$MemoryPoolAllocator@VCrtAllocator@rapidjson@@@2@@rapidjson@@AEAAXU?$GenericStringRef@D@2@AEAV?$MemoryPoolAllocator@VCrtAllocator@rapidjson@@@2@@Z ; rapidjson::GenericValue<rapidjson::UTF8<char>,rapidjson::MemoryPoolAllocator<rapidjson::CrtAllocator> >::SetStringRaw
PUBLIC	?RawAssign@?$GenericValue@U?$UTF8@D@rapidjson@@V?$MemoryPoolAllocator@VCrtAllocator@rapidjson@@@2@@rapidjson@@AEAAXAEAV12@@Z ; rapidjson::GenericValue<rapidjson::UTF8<char>,rapidjson::MemoryPoolAllocator<rapidjson::CrtAllocator> >::RawAssign
PUBLIC	?Usable@ShortString@?$GenericValue@U?$UTF8@D@rapidjson@@V?$MemoryPoolAllocator@VCrtAllocator@rapidjson@@@2@@rapidjson@@SA_NI@Z ; rapidjson::GenericValue<rapidjson::UTF8<char>,rapidjson::MemoryPoolAllocator<rapidjson::CrtAllocator> >::ShortString::Usable
PUBLIC	?SetLength@ShortString@?$GenericValue@U?$UTF8@D@rapidjson@@V?$MemoryPoolAllocator@VCrtAllocator@rapidjson@@@2@@rapidjson@@QEAAXI@Z ; rapidjson::GenericValue<rapidjson::UTF8<char>,rapidjson::MemoryPoolAllocator<rapidjson::CrtAllocator> >::ShortString::SetLength
PUBLIC	?GetLength@ShortString@?$GenericValue@U?$UTF8@D@rapidjson@@V?$MemoryPoolAllocator@VCrtAllocator@rapidjson@@@2@@rapidjson@@QEBAIXZ ; rapidjson::GenericValue<rapidjson::UTF8<char>,rapidjson::MemoryPoolAllocator<rapidjson::CrtAllocator> >::ShortString::GetLength
PUBLIC	??_G?$GenericValue@U?$UTF8@D@rapidjson@@V?$MemoryPoolAllocator@VCrtAllocator@rapidjson@@@2@@rapidjson@@QEAAPEAXI@Z ; rapidjson::GenericValue<rapidjson::UTF8<char>,rapidjson::MemoryPoolAllocator<rapidjson::CrtAllocator> >::`scalar deleting destructor'
PUBLIC	??0?$GenericDocument@U?$UTF8@D@rapidjson@@V?$MemoryPoolAllocator@VCrtAllocator@rapidjson@@@2@VCrtAllocator@2@@rapidjson@@QEAA@PEAV?$MemoryPoolAllocator@VCrtAllocator@rapidjson@@@1@_KPEAVCrtAllocator@1@@Z ; rapidjson::GenericDocument<rapidjson::UTF8<char>,rapidjson::MemoryPoolAllocator<rapidjson::CrtAllocator>,rapidjson::CrtAllocator>::GenericDocument<rapidjson::UTF8<char>,rapidjson::MemoryPoolAllocator<rapidjson::CrtAllocator>,rapidjson::CrtAllocator>
PUBLIC	??1?$GenericDocument@U?$UTF8@D@rapidjson@@V?$MemoryPoolAllocator@VCrtAllocator@rapidjson@@@2@VCrtAllocator@2@@rapidjson@@QEAA@XZ ; rapidjson::GenericDocument<rapidjson::UTF8<char>,rapidjson::MemoryPoolAllocator<rapidjson::CrtAllocator>,rapidjson::CrtAllocator>::~GenericDocument<rapidjson::UTF8<char>,rapidjson::MemoryPoolAllocator<rapidjson::CrtAllocator>,rapidjson::CrtAllocator>
PUBLIC	?Parse@?$GenericDocument@U?$UTF8@D@rapidjson@@V?$MemoryPoolAllocator@VCrtAllocator@rapidjson@@@2@VCrtAllocator@2@@rapidjson@@QEAAAEAV12@PEBD@Z ; rapidjson::GenericDocument<rapidjson::UTF8<char>,rapidjson::MemoryPoolAllocator<rapidjson::CrtAllocator>,rapidjson::CrtAllocator>::Parse
PUBLIC	?Parse@?$GenericDocument@U?$UTF8@D@rapidjson@@V?$MemoryPoolAllocator@VCrtAllocator@rapidjson@@@2@VCrtAllocator@2@@rapidjson@@QEAAAEAV12@PEBD_K@Z ; rapidjson::GenericDocument<rapidjson::UTF8<char>,rapidjson::MemoryPoolAllocator<rapidjson::CrtAllocator>,rapidjson::CrtAllocator>::Parse
PUBLIC	?HasParseError@?$GenericDocument@U?$UTF8@D@rapidjson@@V?$MemoryPoolAllocator@VCrtAllocator@rapidjson@@@2@VCrtAllocator@2@@rapidjson@@QEBA_NXZ ; rapidjson::GenericDocument<rapidjson::UTF8<char>,rapidjson::MemoryPoolAllocator<rapidjson::CrtAllocator>,rapidjson::CrtAllocator>::HasParseError
PUBLIC	?GetAllocator@?$GenericDocument@U?$UTF8@D@rapidjson@@V?$MemoryPoolAllocator@VCrtAllocator@rapidjson@@@2@VCrtAllocator@2@@rapidjson@@QEAAAEAV?$MemoryPoolAllocator@VCrtAllocator@rapidjson@@@2@XZ ; rapidjson::GenericDocument<rapidjson::UTF8<char>,rapidjson::MemoryPoolAllocator<rapidjson::CrtAllocator>,rapidjson::CrtAllocator>::GetAllocator
PUBLIC	?Null@?$GenericDocument@U?$UTF8@D@rapidjson@@V?$MemoryPoolAllocator@VCrtAllocator@rapidjson@@@2@VCrtAllocator@2@@rapidjson@@QEAA_NXZ ; rapidjson::GenericDocument<rapidjson::UTF8<char>,rapidjson::MemoryPoolAllocator<rapidjson::CrtAllocator>,rapidjson::CrtAllocator>::Null
PUBLIC	?Bool@?$GenericDocument@U?$UTF8@D@rapidjson@@V?$MemoryPoolAllocator@VCrtAllocator@rapidjson@@@2@VCrtAllocator@2@@rapidjson@@QEAA_N_N@Z ; rapidjson::GenericDocument<rapidjson::UTF8<char>,rapidjson::MemoryPoolAllocator<rapidjson::CrtAllocator>,rapidjson::CrtAllocator>::Bool
PUBLIC	?Int@?$GenericDocument@U?$UTF8@D@rapidjson@@V?$MemoryPoolAllocator@VCrtAllocator@rapidjson@@@2@VCrtAllocator@2@@rapidjson@@QEAA_NH@Z ; rapidjson::GenericDocument<rapidjson::UTF8<char>,rapidjson::MemoryPoolAllocator<rapidjson::CrtAllocator>,rapidjson::CrtAllocator>::Int
PUBLIC	?Uint@?$GenericDocument@U?$UTF8@D@rapidjson@@V?$MemoryPoolAllocator@VCrtAllocator@rapidjson@@@2@VCrtAllocator@2@@rapidjson@@QEAA_NI@Z ; rapidjson::GenericDocument<rapidjson::UTF8<char>,rapidjson::MemoryPoolAllocator<rapidjson::CrtAllocator>,rapidjson::CrtAllocator>::Uint
PUBLIC	?Int64@?$GenericDocument@U?$UTF8@D@rapidjson@@V?$MemoryPoolAllocator@VCrtAllocator@rapidjson@@@2@VCrtAllocator@2@@rapidjson@@QEAA_N_J@Z ; rapidjson::GenericDocument<rapidjson::UTF8<char>,rapidjson::MemoryPoolAllocator<rapidjson::CrtAllocator>,rapidjson::CrtAllocator>::Int64
PUBLIC	?Uint64@?$GenericDocument@U?$UTF8@D@rapidjson@@V?$MemoryPoolAllocator@VCrtAllocator@rapidjson@@@2@VCrtAllocator@2@@rapidjson@@QEAA_N_K@Z ; rapidjson::GenericDocument<rapidjson::UTF8<char>,rapidjson::MemoryPoolAllocator<rapidjson::CrtAllocator>,rapidjson::CrtAllocator>::Uint64
PUBLIC	?Double@?$GenericDocument@U?$UTF8@D@rapidjson@@V?$MemoryPoolAllocator@VCrtAllocator@rapidjson@@@2@VCrtAllocator@2@@rapidjson@@QEAA_NN@Z ; rapidjson::GenericDocument<rapidjson::UTF8<char>,rapidjson::MemoryPoolAllocator<rapidjson::CrtAllocator>,rapidjson::CrtAllocator>::Double
PUBLIC	?RawNumber@?$GenericDocument@U?$UTF8@D@rapidjson@@V?$MemoryPoolAllocator@VCrtAllocator@rapidjson@@@2@VCrtAllocator@2@@rapidjson@@QEAA_NPEBDI_N@Z ; rapidjson::GenericDocument<rapidjson::UTF8<char>,rapidjson::MemoryPoolAllocator<rapidjson::CrtAllocator>,rapidjson::CrtAllocator>::RawNumber
PUBLIC	?String@?$GenericDocument@U?$UTF8@D@rapidjson@@V?$MemoryPoolAllocator@VCrtAllocator@rapidjson@@@2@VCrtAllocator@2@@rapidjson@@QEAA_NPEBDI_N@Z ; rapidjson::GenericDocument<rapidjson::UTF8<char>,rapidjson::MemoryPoolAllocator<rapidjson::CrtAllocator>,rapidjson::CrtAllocator>::String
PUBLIC	?StartObject@?$GenericDocument@U?$UTF8@D@rapidjson@@V?$MemoryPoolAllocator@VCrtAllocator@rapidjson@@@2@VCrtAllocator@2@@rapidjson@@QEAA_NXZ ; rapidjson::GenericDocument<rapidjson::UTF8<char>,rapidjson::MemoryPoolAllocator<rapidjson::CrtAllocator>,rapidjson::CrtAllocator>::StartObject
PUBLIC	?Key@?$GenericDocument@U?$UTF8@D@rapidjson@@V?$MemoryPoolAllocator@VCrtAllocator@rapidjson@@@2@VCrtAllocator@2@@rapidjson@@QEAA_NPEBDI_N@Z ; rapidjson::GenericDocument<rapidjson::UTF8<char>,rapidjson::MemoryPoolAllocator<rapidjson::CrtAllocator>,rapidjson::CrtAllocator>::Key
PUBLIC	?EndObject@?$GenericDocument@U?$UTF8@D@rapidjson@@V?$MemoryPoolAllocator@VCrtAllocator@rapidjson@@@2@VCrtAllocator@2@@rapidjson@@QEAA_NI@Z ; rapidjson::GenericDocument<rapidjson::UTF8<char>,rapidjson::MemoryPoolAllocator<rapidjson::CrtAllocator>,rapidjson::CrtAllocator>::EndObject
PUBLIC	?StartArray@?$GenericDocument@U?$UTF8@D@rapidjson@@V?$MemoryPoolAllocator@VCrtAllocator@rapidjson@@@2@VCrtAllocator@2@@rapidjson@@QEAA_NXZ ; rapidjson::GenericDocument<rapidjson::UTF8<char>,rapidjson::MemoryPoolAllocator<rapidjson::CrtAllocator>,rapidjson::CrtAllocator>::StartArray
PUBLIC	?EndArray@?$GenericDocument@U?$UTF8@D@rapidjson@@V?$MemoryPoolAllocator@VCrtAllocator@rapidjson@@@2@VCrtAllocator@2@@rapidjson@@QEAA_NI@Z ; rapidjson::GenericDocument<rapidjson::UTF8<char>,rapidjson::MemoryPoolAllocator<rapidjson::CrtAllocator>,rapidjson::CrtAllocator>::EndArray
PUBLIC	?ClearStack@?$GenericDocument@U?$UTF8@D@rapidjson@@V?$MemoryPoolAllocator@VCrtAllocator@rapidjson@@@2@VCrtAllocator@2@@rapidjson@@AEAAXXZ ; rapidjson::GenericDocument<rapidjson::UTF8<char>,rapidjson::MemoryPoolAllocator<rapidjson::CrtAllocator>,rapidjson::CrtAllocator>::ClearStack
PUBLIC	?Destroy@?$GenericDocument@U?$UTF8@D@rapidjson@@V?$MemoryPoolAllocator@VCrtAllocator@rapidjson@@@2@VCrtAllocator@2@@rapidjson@@AEAAXXZ ; rapidjson::GenericDocument<rapidjson::UTF8<char>,rapidjson::MemoryPoolAllocator<rapidjson::CrtAllocator>,rapidjson::CrtAllocator>::Destroy
PUBLIC	??_G?$GenericDocument@U?$UTF8@D@rapidjson@@V?$MemoryPoolAllocator@VCrtAllocator@rapidjson@@@2@VCrtAllocator@2@@rapidjson@@QEAAPEAXI@Z ; rapidjson::GenericDocument<rapidjson::UTF8<char>,rapidjson::MemoryPoolAllocator<rapidjson::CrtAllocator>,rapidjson::CrtAllocator>::`scalar deleting destructor'
PUBLIC	??0?$allocator@UJsonReaderStackItem@@@std@@QEAA@XZ ; std::allocator<JsonReaderStackItem>::allocator<JsonReaderStackItem>
PUBLIC	?deallocate@?$allocator@UJsonReaderStackItem@@@std@@QEAAXQEAUJsonReaderStackItem@@_K@Z ; std::allocator<JsonReaderStackItem>::deallocate
PUBLIC	?allocate@?$allocator@UJsonReaderStackItem@@@std@@QEAAPEAUJsonReaderStackItem@@_K@Z ; std::allocator<JsonReaderStackItem>::allocate
PUBLIC	?max_size@?$_Default_allocator_traits@V?$allocator@UJsonReaderStackItem@@@std@@@std@@SA_KAEBV?$allocator@UJsonReaderStackItem@@@2@@Z ; std::_Default_allocator_traits<std::allocator<JsonReaderStackItem> >::max_size
PUBLIC	?deallocate@?$allocator@PEAUJsonReaderStackItem@@@std@@QEAAXQEAPEAUJsonReaderStackItem@@_K@Z ; std::allocator<JsonReaderStackItem *>::deallocate
PUBLIC	?allocate@?$allocator@PEAUJsonReaderStackItem@@@std@@QEAAPEAPEAUJsonReaderStackItem@@_K@Z ; std::allocator<JsonReaderStackItem *>::allocate
PUBLIC	??0?$_Deque_val@U?$_Deque_simple_types@UJsonReaderStackItem@@@std@@@std@@QEAA@XZ ; std::_Deque_val<std::_Deque_simple_types<JsonReaderStackItem> >::_Deque_val<std::_Deque_simple_types<JsonReaderStackItem> >
PUBLIC	?_Getblock@?$_Deque_val@U?$_Deque_simple_types@UJsonReaderStackItem@@@std@@@std@@QEBA_J_K@Z ; std::_Deque_val<std::_Deque_simple_types<JsonReaderStackItem> >::_Getblock
PUBLIC	?_Subscript@?$_Deque_val@U?$_Deque_simple_types@UJsonReaderStackItem@@@std@@@std@@QEAAAEAUJsonReaderStackItem@@_K@Z ; std::_Deque_val<std::_Deque_simple_types<JsonReaderStackItem> >::_Subscript
PUBLIC	?_Address_subscript@?$_Deque_val@U?$_Deque_simple_types@UJsonReaderStackItem@@@std@@@std@@QEAAPEAUJsonReaderStackItem@@_K@Z ; std::_Deque_val<std::_Deque_simple_types<JsonReaderStackItem> >::_Address_subscript
PUBLIC	??0?$deque@UJsonReaderStackItem@@V?$allocator@UJsonReaderStackItem@@@std@@@std@@QEAA@XZ ; std::deque<JsonReaderStackItem,std::allocator<JsonReaderStackItem> >::deque<JsonReaderStackItem,std::allocator<JsonReaderStackItem> >
PUBLIC	??1?$deque@UJsonReaderStackItem@@V?$allocator@UJsonReaderStackItem@@@std@@@std@@QEAA@XZ ; std::deque<JsonReaderStackItem,std::allocator<JsonReaderStackItem> >::~deque<JsonReaderStackItem,std::allocator<JsonReaderStackItem> >
PUBLIC	?empty@?$deque@UJsonReaderStackItem@@V?$allocator@UJsonReaderStackItem@@@std@@@std@@QEBA_NXZ ; std::deque<JsonReaderStackItem,std::allocator<JsonReaderStackItem> >::empty
PUBLIC	?max_size@?$deque@UJsonReaderStackItem@@V?$allocator@UJsonReaderStackItem@@@std@@@std@@QEBA_KXZ ; std::deque<JsonReaderStackItem,std::allocator<JsonReaderStackItem> >::max_size
PUBLIC	?back@?$deque@UJsonReaderStackItem@@V?$allocator@UJsonReaderStackItem@@@std@@@std@@QEAAAEAUJsonReaderStackItem@@XZ ; std::deque<JsonReaderStackItem,std::allocator<JsonReaderStackItem> >::back
PUBLIC	?push_back@?$deque@UJsonReaderStackItem@@V?$allocator@UJsonReaderStackItem@@@std@@@std@@QEAAX$$QEAUJsonReaderStackItem@@@Z ; std::deque<JsonReaderStackItem,std::allocator<JsonReaderStackItem> >::push_back
PUBLIC	?pop_back@?$deque@UJsonReaderStackItem@@V?$allocator@UJsonReaderStackItem@@@std@@@std@@QEAAXXZ ; std::deque<JsonReaderStackItem,std::allocator<JsonReaderStackItem> >::pop_back
PUBLIC	?_Xlen@?$deque@UJsonReaderStackItem@@V?$allocator@UJsonReaderStackItem@@@std@@@std@@CAXXZ ; std::deque<JsonReaderStackItem,std::allocator<JsonReaderStackItem> >::_Xlen
PUBLIC	?_Growmap@?$deque@UJsonReaderStackItem@@V?$allocator@UJsonReaderStackItem@@@std@@@std@@AEAAX_K@Z ; std::deque<JsonReaderStackItem,std::allocator<JsonReaderStackItem> >::_Growmap
PUBLIC	?_Reset_map@?$deque@UJsonReaderStackItem@@V?$allocator@UJsonReaderStackItem@@@std@@@std@@AEAAXXZ ; std::deque<JsonReaderStackItem,std::allocator<JsonReaderStackItem> >::_Reset_map
PUBLIC	?_Tidy@?$deque@UJsonReaderStackItem@@V?$allocator@UJsonReaderStackItem@@@std@@@std@@AEAAXXZ ; std::deque<JsonReaderStackItem,std::allocator<JsonReaderStackItem> >::_Tidy
PUBLIC	?_Getblock@?$deque@UJsonReaderStackItem@@V?$allocator@UJsonReaderStackItem@@@std@@@std@@AEBA_J_K@Z ; std::deque<JsonReaderStackItem,std::allocator<JsonReaderStackItem> >::_Getblock
PUBLIC	?_Orphan_all@?$deque@UJsonReaderStackItem@@V?$allocator@UJsonReaderStackItem@@@std@@@std@@AEAAXXZ ; std::deque<JsonReaderStackItem,std::allocator<JsonReaderStackItem> >::_Orphan_all
PUBLIC	?_Getal@?$deque@UJsonReaderStackItem@@V?$allocator@UJsonReaderStackItem@@@std@@@std@@AEAAAEAV?$allocator@UJsonReaderStackItem@@@2@XZ ; std::deque<JsonReaderStackItem,std::allocator<JsonReaderStackItem> >::_Getal
PUBLIC	?_Getal@?$deque@UJsonReaderStackItem@@V?$allocator@UJsonReaderStackItem@@@std@@@std@@AEBAAEBV?$allocator@UJsonReaderStackItem@@@2@XZ ; std::deque<JsonReaderStackItem,std::allocator<JsonReaderStackItem> >::_Getal
PUBLIC	?_Get_data@?$deque@UJsonReaderStackItem@@V?$allocator@UJsonReaderStackItem@@@std@@@std@@AEAAAEAV?$_Deque_val@U?$_Deque_simple_types@UJsonReaderStackItem@@@std@@@2@XZ ; std::deque<JsonReaderStackItem,std::allocator<JsonReaderStackItem> >::_Get_data
PUBLIC	?_Get_data@?$deque@UJsonReaderStackItem@@V?$allocator@UJsonReaderStackItem@@@std@@@std@@AEBAAEBV?$_Deque_val@U?$_Deque_simple_types@UJsonReaderStackItem@@@std@@@2@XZ ; std::deque<JsonReaderStackItem,std::allocator<JsonReaderStackItem> >::_Get_data
PUBLIC	?_Map@?$deque@UJsonReaderStackItem@@V?$allocator@UJsonReaderStackItem@@@std@@@std@@AEAAAEAPEAPEAUJsonReaderStackItem@@XZ ; std::deque<JsonReaderStackItem,std::allocator<JsonReaderStackItem> >::_Map
PUBLIC	?_Mapsize@?$deque@UJsonReaderStackItem@@V?$allocator@UJsonReaderStackItem@@@std@@@std@@AEAAAEA_KXZ ; std::deque<JsonReaderStackItem,std::allocator<JsonReaderStackItem> >::_Mapsize
PUBLIC	?_Myoff@?$deque@UJsonReaderStackItem@@V?$allocator@UJsonReaderStackItem@@@std@@@std@@AEAAAEA_KXZ ; std::deque<JsonReaderStackItem,std::allocator<JsonReaderStackItem> >::_Myoff
PUBLIC	?_Mysize@?$deque@UJsonReaderStackItem@@V?$allocator@UJsonReaderStackItem@@@std@@@std@@AEAAAEA_KXZ ; std::deque<JsonReaderStackItem,std::allocator<JsonReaderStackItem> >::_Mysize
PUBLIC	?_Mysize@?$deque@UJsonReaderStackItem@@V?$allocator@UJsonReaderStackItem@@@std@@@std@@AEBAAEB_KXZ ; std::deque<JsonReaderStackItem,std::allocator<JsonReaderStackItem> >::_Mysize
PUBLIC	?_Map_distance@?$deque@UJsonReaderStackItem@@V?$allocator@UJsonReaderStackItem@@@std@@@std@@AEBA_JXZ ; std::deque<JsonReaderStackItem,std::allocator<JsonReaderStackItem> >::_Map_distance
PUBLIC	?_Subscript@?$deque@UJsonReaderStackItem@@V?$allocator@UJsonReaderStackItem@@@std@@@std@@AEAAAEAUJsonReaderStackItem@@_K@Z ; std::deque<JsonReaderStackItem,std::allocator<JsonReaderStackItem> >::_Subscript
PUBLIC	?_Get_first@?$_Compressed_pair@V?$allocator@UJsonReaderStackItem@@@std@@V?$_Deque_val@U?$_Deque_simple_types@UJsonReaderStackItem@@@std@@@2@$00@std@@QEAAAEAV?$allocator@UJsonReaderStackItem@@@2@XZ ; std::_Compressed_pair<std::allocator<JsonReaderStackItem>,std::_Deque_val<std::_Deque_simple_types<JsonReaderStackItem> >,1>::_Get_first
PUBLIC	?_Get_first@?$_Compressed_pair@V?$allocator@UJsonReaderStackItem@@@std@@V?$_Deque_val@U?$_Deque_simple_types@UJsonReaderStackItem@@@std@@@2@$00@std@@QEBAAEBV?$allocator@UJsonReaderStackItem@@@2@XZ ; std::_Compressed_pair<std::allocator<JsonReaderStackItem>,std::_Deque_val<std::_Deque_simple_types<JsonReaderStackItem> >,1>::_Get_first
PUBLIC	??0?$stack@UJsonReaderStackItem@@V?$deque@UJsonReaderStackItem@@V?$allocator@UJsonReaderStackItem@@@std@@@std@@@std@@QEAA@XZ ; std::stack<JsonReaderStackItem,std::deque<JsonReaderStackItem,std::allocator<JsonReaderStackItem> > >::stack<JsonReaderStackItem,std::deque<JsonReaderStackItem,std::allocator<JsonReaderStackItem> > >
PUBLIC	?empty@?$stack@UJsonReaderStackItem@@V?$deque@UJsonReaderStackItem@@V?$allocator@UJsonReaderStackItem@@@std@@@std@@@std@@QEBA_NXZ ; std::stack<JsonReaderStackItem,std::deque<JsonReaderStackItem,std::allocator<JsonReaderStackItem> > >::empty
PUBLIC	?top@?$stack@UJsonReaderStackItem@@V?$deque@UJsonReaderStackItem@@V?$allocator@UJsonReaderStackItem@@@std@@@std@@@std@@QEAAAEAUJsonReaderStackItem@@XZ ; std::stack<JsonReaderStackItem,std::deque<JsonReaderStackItem,std::allocator<JsonReaderStackItem> > >::top
PUBLIC	?push@?$stack@UJsonReaderStackItem@@V?$deque@UJsonReaderStackItem@@V?$allocator@UJsonReaderStackItem@@@std@@@std@@@std@@QEAAX$$QEAUJsonReaderStackItem@@@Z ; std::stack<JsonReaderStackItem,std::deque<JsonReaderStackItem,std::allocator<JsonReaderStackItem> > >::push
PUBLIC	?pop@?$stack@UJsonReaderStackItem@@V?$deque@UJsonReaderStackItem@@V?$allocator@UJsonReaderStackItem@@@std@@@std@@@std@@QEAAXXZ ; std::stack<JsonReaderStackItem,std::deque<JsonReaderStackItem,std::allocator<JsonReaderStackItem> > >::pop
PUBLIC	??1?$stack@UJsonReaderStackItem@@V?$deque@UJsonReaderStackItem@@V?$allocator@UJsonReaderStackItem@@@std@@@std@@@std@@QEAA@XZ ; std::stack<JsonReaderStackItem,std::deque<JsonReaderStackItem,std::allocator<JsonReaderStackItem> > >::~stack<JsonReaderStackItem,std::deque<JsonReaderStackItem,std::allocator<JsonReaderStackItem> > >
PUBLIC	??_G?$stack@UJsonReaderStackItem@@V?$deque@UJsonReaderStackItem@@V?$allocator@UJsonReaderStackItem@@@std@@@std@@@std@@QEAAPEAXI@Z ; std::stack<JsonReaderStackItem,std::deque<JsonReaderStackItem,std::allocator<JsonReaderStackItem> > >::`scalar deleting destructor'
PUBLIC	??0?$MemoryPoolAllocator@VCrtAllocator@rapidjson@@@rapidjson@@QEAA@_KPEAVCrtAllocator@1@@Z ; rapidjson::MemoryPoolAllocator<rapidjson::CrtAllocator>::MemoryPoolAllocator<rapidjson::CrtAllocator>
PUBLIC	??1?$MemoryPoolAllocator@VCrtAllocator@rapidjson@@@rapidjson@@QEAA@XZ ; rapidjson::MemoryPoolAllocator<rapidjson::CrtAllocator>::~MemoryPoolAllocator<rapidjson::CrtAllocator>
PUBLIC	?Clear@?$MemoryPoolAllocator@VCrtAllocator@rapidjson@@@rapidjson@@QEAAXXZ ; rapidjson::MemoryPoolAllocator<rapidjson::CrtAllocator>::Clear
PUBLIC	?Malloc@?$MemoryPoolAllocator@VCrtAllocator@rapidjson@@@rapidjson@@QEAAPEAX_K@Z ; rapidjson::MemoryPoolAllocator<rapidjson::CrtAllocator>::Malloc
PUBLIC	?Free@?$MemoryPoolAllocator@VCrtAllocator@rapidjson@@@rapidjson@@SAXPEAX@Z ; rapidjson::MemoryPoolAllocator<rapidjson::CrtAllocator>::Free
PUBLIC	?AddChunk@?$MemoryPoolAllocator@VCrtAllocator@rapidjson@@@rapidjson@@AEAA_N_K@Z ; rapidjson::MemoryPoolAllocator<rapidjson::CrtAllocator>::AddChunk
PUBLIC	??_G?$MemoryPoolAllocator@VCrtAllocator@rapidjson@@@rapidjson@@QEAAPEAXI@Z ; rapidjson::MemoryPoolAllocator<rapidjson::CrtAllocator>::`scalar deleting destructor'
PUBLIC	??1?$GenericMember@U?$UTF8@D@rapidjson@@V?$MemoryPoolAllocator@VCrtAllocator@rapidjson@@@2@@rapidjson@@QEAA@XZ ; rapidjson::GenericMember<rapidjson::UTF8<char>,rapidjson::MemoryPoolAllocator<rapidjson::CrtAllocator> >::~GenericMember<rapidjson::UTF8<char>,rapidjson::MemoryPoolAllocator<rapidjson::CrtAllocator> >
PUBLIC	??_G?$GenericMember@U?$UTF8@D@rapidjson@@V?$MemoryPoolAllocator@VCrtAllocator@rapidjson@@@2@@rapidjson@@QEAAPEAXI@Z ; rapidjson::GenericMember<rapidjson::UTF8<char>,rapidjson::MemoryPoolAllocator<rapidjson::CrtAllocator> >::`scalar deleting destructor'
PUBLIC	??0?$PrettyWriter@V?$GenericStringBuffer@U?$UTF8@D@rapidjson@@VCrtAllocator@2@@rapidjson@@U?$UTF8@D@2@U32@VCrtAllocator@2@$0A@@rapidjson@@QEAA@AEAV?$GenericStringBuffer@U?$UTF8@D@rapidjson@@VCrtAllocator@2@@1@PEAVCrtAllocator@1@_K@Z ; rapidjson::PrettyWriter<rapidjson::GenericStringBuffer<rapidjson::UTF8<char>,rapidjson::CrtAllocator>,rapidjson::UTF8<char>,rapidjson::UTF8<char>,rapidjson::CrtAllocator,0>::PrettyWriter<rapidjson::GenericStringBuffer<rapidjson::UTF8<char>,rapidjson::CrtAllocator>,rapidjson::UTF8<char>,rapidjson::UTF8<char>,rapidjson::CrtAllocator,0>
PUBLIC	?Null@?$PrettyWriter@V?$GenericStringBuffer@U?$UTF8@D@rapidjson@@VCrtAllocator@2@@rapidjson@@U?$UTF8@D@2@U32@VCrtAllocator@2@$0A@@rapidjson@@QEAA_NXZ ; rapidjson::PrettyWriter<rapidjson::GenericStringBuffer<rapidjson::UTF8<char>,rapidjson::CrtAllocator>,rapidjson::UTF8<char>,rapidjson::UTF8<char>,rapidjson::CrtAllocator,0>::Null
PUBLIC	?Bool@?$PrettyWriter@V?$GenericStringBuffer@U?$UTF8@D@rapidjson@@VCrtAllocator@2@@rapidjson@@U?$UTF8@D@2@U32@VCrtAllocator@2@$0A@@rapidjson@@QEAA_N_N@Z ; rapidjson::PrettyWriter<rapidjson::GenericStringBuffer<rapidjson::UTF8<char>,rapidjson::CrtAllocator>,rapidjson::UTF8<char>,rapidjson::UTF8<char>,rapidjson::CrtAllocator,0>::Bool
PUBLIC	?Int@?$PrettyWriter@V?$GenericStringBuffer@U?$UTF8@D@rapidjson@@VCrtAllocator@2@@rapidjson@@U?$UTF8@D@2@U32@VCrtAllocator@2@$0A@@rapidjson@@QEAA_NH@Z ; rapidjson::PrettyWriter<rapidjson::GenericStringBuffer<rapidjson::UTF8<char>,rapidjson::CrtAllocator>,rapidjson::UTF8<char>,rapidjson::UTF8<char>,rapidjson::CrtAllocator,0>::Int
PUBLIC	?Uint@?$PrettyWriter@V?$GenericStringBuffer@U?$UTF8@D@rapidjson@@VCrtAllocator@2@@rapidjson@@U?$UTF8@D@2@U32@VCrtAllocator@2@$0A@@rapidjson@@QEAA_NI@Z ; rapidjson::PrettyWriter<rapidjson::GenericStringBuffer<rapidjson::UTF8<char>,rapidjson::CrtAllocator>,rapidjson::UTF8<char>,rapidjson::UTF8<char>,rapidjson::CrtAllocator,0>::Uint
PUBLIC	?Int64@?$PrettyWriter@V?$GenericStringBuffer@U?$UTF8@D@rapidjson@@VCrtAllocator@2@@rapidjson@@U?$UTF8@D@2@U32@VCrtAllocator@2@$0A@@rapidjson@@QEAA_N_J@Z ; rapidjson::PrettyWriter<rapidjson::GenericStringBuffer<rapidjson::UTF8<char>,rapidjson::CrtAllocator>,rapidjson::UTF8<char>,rapidjson::UTF8<char>,rapidjson::CrtAllocator,0>::Int64
PUBLIC	?Uint64@?$PrettyWriter@V?$GenericStringBuffer@U?$UTF8@D@rapidjson@@VCrtAllocator@2@@rapidjson@@U?$UTF8@D@2@U32@VCrtAllocator@2@$0A@@rapidjson@@QEAA_N_K@Z ; rapidjson::PrettyWriter<rapidjson::GenericStringBuffer<rapidjson::UTF8<char>,rapidjson::CrtAllocator>,rapidjson::UTF8<char>,rapidjson::UTF8<char>,rapidjson::CrtAllocator,0>::Uint64
PUBLIC	?Double@?$PrettyWriter@V?$GenericStringBuffer@U?$UTF8@D@rapidjson@@VCrtAllocator@2@@rapidjson@@U?$UTF8@D@2@U32@VCrtAllocator@2@$0A@@rapidjson@@QEAA_NN@Z ; rapidjson::PrettyWriter<rapidjson::GenericStringBuffer<rapidjson::UTF8<char>,rapidjson::CrtAllocator>,rapidjson::UTF8<char>,rapidjson::UTF8<char>,rapidjson::CrtAllocator,0>::Double
PUBLIC	?String@?$PrettyWriter@V?$GenericStringBuffer@U?$UTF8@D@rapidjson@@VCrtAllocator@2@@rapidjson@@U?$UTF8@D@2@U32@VCrtAllocator@2@$0A@@rapidjson@@QEAA_NPEBDI_N@Z ; rapidjson::PrettyWriter<rapidjson::GenericStringBuffer<rapidjson::UTF8<char>,rapidjson::CrtAllocator>,rapidjson::UTF8<char>,rapidjson::UTF8<char>,rapidjson::CrtAllocator,0>::String
PUBLIC	?StartObject@?$PrettyWriter@V?$GenericStringBuffer@U?$UTF8@D@rapidjson@@VCrtAllocator@2@@rapidjson@@U?$UTF8@D@2@U32@VCrtAllocator@2@$0A@@rapidjson@@QEAA_NXZ ; rapidjson::PrettyWriter<rapidjson::GenericStringBuffer<rapidjson::UTF8<char>,rapidjson::CrtAllocator>,rapidjson::UTF8<char>,rapidjson::UTF8<char>,rapidjson::CrtAllocator,0>::StartObject
PUBLIC	?EndObject@?$PrettyWriter@V?$GenericStringBuffer@U?$UTF8@D@rapidjson@@VCrtAllocator@2@@rapidjson@@U?$UTF8@D@2@U32@VCrtAllocator@2@$0A@@rapidjson@@QEAA_NI@Z ; rapidjson::PrettyWriter<rapidjson::GenericStringBuffer<rapidjson::UTF8<char>,rapidjson::CrtAllocator>,rapidjson::UTF8<char>,rapidjson::UTF8<char>,rapidjson::CrtAllocator,0>::EndObject
PUBLIC	?StartArray@?$PrettyWriter@V?$GenericStringBuffer@U?$UTF8@D@rapidjson@@VCrtAllocator@2@@rapidjson@@U?$UTF8@D@2@U32@VCrtAllocator@2@$0A@@rapidjson@@QEAA_NXZ ; rapidjson::PrettyWriter<rapidjson::GenericStringBuffer<rapidjson::UTF8<char>,rapidjson::CrtAllocator>,rapidjson::UTF8<char>,rapidjson::UTF8<char>,rapidjson::CrtAllocator,0>::StartArray
PUBLIC	?EndArray@?$PrettyWriter@V?$GenericStringBuffer@U?$UTF8@D@rapidjson@@VCrtAllocator@2@@rapidjson@@U?$UTF8@D@2@U32@VCrtAllocator@2@$0A@@rapidjson@@QEAA_NI@Z ; rapidjson::PrettyWriter<rapidjson::GenericStringBuffer<rapidjson::UTF8<char>,rapidjson::CrtAllocator>,rapidjson::UTF8<char>,rapidjson::UTF8<char>,rapidjson::CrtAllocator,0>::EndArray
PUBLIC	?PrettyPrefix@?$PrettyWriter@V?$GenericStringBuffer@U?$UTF8@D@rapidjson@@VCrtAllocator@2@@rapidjson@@U?$UTF8@D@2@U32@VCrtAllocator@2@$0A@@rapidjson@@IEAAXW4Type@2@@Z ; rapidjson::PrettyWriter<rapidjson::GenericStringBuffer<rapidjson::UTF8<char>,rapidjson::CrtAllocator>,rapidjson::UTF8<char>,rapidjson::UTF8<char>,rapidjson::CrtAllocator,0>::PrettyPrefix
PUBLIC	?WriteIndent@?$PrettyWriter@V?$GenericStringBuffer@U?$UTF8@D@rapidjson@@VCrtAllocator@2@@rapidjson@@U?$UTF8@D@2@U32@VCrtAllocator@2@$0A@@rapidjson@@IEAAXXZ ; rapidjson::PrettyWriter<rapidjson::GenericStringBuffer<rapidjson::UTF8<char>,rapidjson::CrtAllocator>,rapidjson::UTF8<char>,rapidjson::UTF8<char>,rapidjson::CrtAllocator,0>::WriteIndent
PUBLIC	??1?$PrettyWriter@V?$GenericStringBuffer@U?$UTF8@D@rapidjson@@VCrtAllocator@2@@rapidjson@@U?$UTF8@D@2@U32@VCrtAllocator@2@$0A@@rapidjson@@QEAA@XZ ; rapidjson::PrettyWriter<rapidjson::GenericStringBuffer<rapidjson::UTF8<char>,rapidjson::CrtAllocator>,rapidjson::UTF8<char>,rapidjson::UTF8<char>,rapidjson::CrtAllocator,0>::~PrettyWriter<rapidjson::GenericStringBuffer<rapidjson::UTF8<char>,rapidjson::CrtAllocator>,rapidjson::UTF8<char>,rapidjson::UTF8<char>,rapidjson::CrtAllocator,0>
PUBLIC	??_G?$PrettyWriter@V?$GenericStringBuffer@U?$UTF8@D@rapidjson@@VCrtAllocator@2@@rapidjson@@U?$UTF8@D@2@U32@VCrtAllocator@2@$0A@@rapidjson@@QEAAPEAXI@Z ; rapidjson::PrettyWriter<rapidjson::GenericStringBuffer<rapidjson::UTF8<char>,rapidjson::CrtAllocator>,rapidjson::UTF8<char>,rapidjson::UTF8<char>,rapidjson::CrtAllocator,0>::`scalar deleting destructor'
PUBLIC	??$Pop@ULevel@?$Writer@V?$GenericStringBuffer@U?$UTF8@D@rapidjson@@VCrtAllocator@2@@rapidjson@@U?$UTF8@D@2@U32@VCrtAllocator@2@$0A@@rapidjson@@@?$Stack@VCrtAllocator@rapidjson@@@internal@rapidjson@@QEAAPEAULevel@?$Writer@V?$GenericStringBuffer@U?$UTF8@D@rapidjson@@VCrtAllocator@2@@rapidjson@@U?$UTF8@D@2@U32@VCrtAllocator@2@$0A@@2@_K@Z ; rapidjson::internal::Stack<rapidjson::CrtAllocator>::Pop<rapidjson::Writer<rapidjson::GenericStringBuffer<rapidjson::UTF8<char>,rapidjson::CrtAllocator>,rapidjson::UTF8<char>,rapidjson::UTF8<char>,rapidjson::CrtAllocator,0>::Level>
PUBLIC	??0Level@?$Writer@V?$GenericStringBuffer@U?$UTF8@D@rapidjson@@VCrtAllocator@2@@rapidjson@@U?$UTF8@D@2@U32@VCrtAllocator@2@$0A@@rapidjson@@QEAA@_N@Z ; rapidjson::Writer<rapidjson::GenericStringBuffer<rapidjson::UTF8<char>,rapidjson::CrtAllocator>,rapidjson::UTF8<char>,rapidjson::UTF8<char>,rapidjson::CrtAllocator,0>::Level::Level
PUBLIC	??$Push@ULevel@?$Writer@V?$GenericStringBuffer@U?$UTF8@D@rapidjson@@VCrtAllocator@2@@rapidjson@@U?$UTF8@D@2@U32@VCrtAllocator@2@$0A@@rapidjson@@@?$Stack@VCrtAllocator@rapidjson@@@internal@rapidjson@@QEAAPEAULevel@?$Writer@V?$GenericStringBuffer@U?$UTF8@D@rapidjson@@VCrtAllocator@2@@rapidjson@@U?$UTF8@D@2@U32@VCrtAllocator@2@$0A@@2@_K@Z ; rapidjson::internal::Stack<rapidjson::CrtAllocator>::Push<rapidjson::Writer<rapidjson::GenericStringBuffer<rapidjson::UTF8<char>,rapidjson::CrtAllocator>,rapidjson::UTF8<char>,rapidjson::UTF8<char>,rapidjson::CrtAllocator,0>::Level>
PUBLIC	??$move@AEAUJsonReaderStackItem@@@std@@YA$$QEAUJsonReaderStackItem@@AEAU1@@Z ; std::move<JsonReaderStackItem &>
PUBLIC	?allocate@?$allocator@U_Container_proxy@std@@@std@@QEAAPEAU_Container_proxy@2@_K@Z ; std::allocator<std::_Container_proxy>::allocate
PUBLIC	??$?0UJsonReaderStackItem@@@?$allocator@U_Container_proxy@std@@@std@@QEAA@AEBV?$allocator@UJsonReaderStackItem@@@1@@Z ; std::allocator<std::_Container_proxy>::allocator<std::_Container_proxy><JsonReaderStackItem>
PUBLIC	??$exchange@PEAU_Container_proxy@std@@$$T@std@@YAPEAU_Container_proxy@0@AEAPEAU10@$$QEA$$T@Z ; std::exchange<std::_Container_proxy *,std::nullptr_t>
PUBLIC	??$_Delete_plain_internal@V?$allocator@U_Container_proxy@std@@@std@@@std@@YAXAEAV?$allocator@U_Container_proxy@std@@@0@QEAU_Container_proxy@0@@Z ; std::_Delete_plain_internal<std::allocator<std::_Container_proxy> >
PUBLIC	??$?0$$V@?$_Compressed_pair@V?$allocator@UJsonReaderStackItem@@@std@@V?$_Deque_val@U?$_Deque_simple_types@UJsonReaderStackItem@@@std@@@2@$00@std@@QEAA@U_Zero_then_variadic_args_t@1@@Z ; std::_Compressed_pair<std::allocator<JsonReaderStackItem>,std::_Deque_val<std::_Deque_simple_types<JsonReaderStackItem> >,1>::_Compressed_pair<std::allocator<JsonReaderStackItem>,std::_Deque_val<std::_Deque_simple_types<JsonReaderStackItem> >,1><>
PUBLIC	??$_Alloc_proxy@V?$allocator@U_Container_proxy@std@@@std@@@_Container_base12@std@@QEAAX$$QEAV?$allocator@U_Container_proxy@std@@@1@@Z ; std::_Container_base12::_Alloc_proxy<std::allocator<std::_Container_proxy> >
PUBLIC	??$Parse@$0A@@?$GenericDocument@U?$UTF8@D@rapidjson@@V?$MemoryPoolAllocator@VCrtAllocator@rapidjson@@@2@VCrtAllocator@2@@rapidjson@@QEAAAEAV01@PEBD_K@Z ; rapidjson::GenericDocument<rapidjson::UTF8<char>,rapidjson::MemoryPoolAllocator<rapidjson::CrtAllocator>,rapidjson::CrtAllocator>::Parse<0>
PUBLIC	??$Parse@$0A@@?$GenericDocument@U?$UTF8@D@rapidjson@@V?$MemoryPoolAllocator@VCrtAllocator@rapidjson@@@2@VCrtAllocator@2@@rapidjson@@QEAAAEAV01@PEBD@Z ; rapidjson::GenericDocument<rapidjson::UTF8<char>,rapidjson::MemoryPoolAllocator<rapidjson::CrtAllocator>,rapidjson::CrtAllocator>::Parse<0>
PUBLIC	??$Pop@D@?$Stack@VCrtAllocator@rapidjson@@@internal@rapidjson@@QEAAPEAD_K@Z ; rapidjson::internal::Stack<rapidjson::CrtAllocator>::Pop<char>
PUBLIC	??$Bottom@D@?$Stack@VCrtAllocator@rapidjson@@@internal@rapidjson@@QEAAPEADXZ ; rapidjson::internal::Stack<rapidjson::CrtAllocator>::Bottom<char>
PUBLIC	??$_Allocate_at_least_helper@V?$allocator@D@std@@@std@@YAPEADAEAV?$allocator@D@0@AEA_K@Z ; std::_Allocate_at_least_helper<std::allocator<char> >
PUBLIC	??$_Unfancy@D@std@@YAPEADPEAD@Z			; std::_Unfancy<char>
PUBLIC	??$max@_K@std@@YAAEB_KAEB_K0@Z			; std::max<unsigned __int64>
PUBLIC	??$_Max_limit@_J@std@@YA_JXZ			; std::_Max_limit<__int64>
PUBLIC	??R<lambda_66f57f934f28d61049862f64df852ff0>@@QEBA@QEAD_KQEBD@Z ; <lambda_66f57f934f28d61049862f64df852ff0>::operator()
PUBLIC	??$_Reallocate_for@V<lambda_66f57f934f28d61049862f64df852ff0>@@PEBD@?$basic_string@DU?$char_traits@D@std@@V?$allocator@D@2@@std@@AEAAAEAV01@_KV<lambda_66f57f934f28d61049862f64df852ff0>@@PEBD@Z ; std::basic_string<char,std::char_traits<char>,std::allocator<char> >::_Reallocate_for<<lambda_66f57f934f28d61049862f64df852ff0>,char const *>
PUBLIC	??$_Convert_size@_K_K@std@@YA_K_K@Z		; std::_Convert_size<unsigned __int64,unsigned __int64>
PUBLIC	??$Top@ULevel@?$Writer@V?$GenericStringBuffer@U?$UTF8@D@rapidjson@@VCrtAllocator@2@@rapidjson@@U?$UTF8@D@2@U32@VCrtAllocator@2@$0A@@rapidjson@@@?$Stack@VCrtAllocator@rapidjson@@@internal@rapidjson@@QEAAPEAULevel@?$Writer@V?$GenericStringBuffer@U?$UTF8@D@rapidjson@@VCrtAllocator@2@@rapidjson@@U?$UTF8@D@2@U32@VCrtAllocator@2@$0A@@2@XZ ; rapidjson::internal::Stack<rapidjson::CrtAllocator>::Top<rapidjson::Writer<rapidjson::GenericStringBuffer<rapidjson::UTF8<char>,rapidjson::CrtAllocator>,rapidjson::UTF8<char>,rapidjson::UTF8<char>,rapidjson::CrtAllocator,0>::Level>
PUBLIC	??$destroy@UJsonReaderStackItem@@@?$_Default_allocator_traits@V?$allocator@UJsonReaderStackItem@@@std@@@std@@SAXAEAV?$allocator@UJsonReaderStackItem@@@1@QEAUJsonReaderStackItem@@@Z ; std::_Default_allocator_traits<std::allocator<JsonReaderStackItem> >::destroy<JsonReaderStackItem>
PUBLIC	??$_Emplace_back_internal@UJsonReaderStackItem@@@?$deque@UJsonReaderStackItem@@V?$allocator@UJsonReaderStackItem@@@std@@@std@@AEAAX$$QEAUJsonReaderStackItem@@@Z ; std::deque<JsonReaderStackItem,std::allocator<JsonReaderStackItem> >::_Emplace_back_internal<JsonReaderStackItem>
PUBLIC	??$StringRef@D@rapidjson@@YA?AU?$GenericStringRef@D@0@PEBD@Z ; rapidjson::StringRef<char>
PUBLIC	??0?$GenericStringRef@D@rapidjson@@QEAA@PEBD@Z	; rapidjson::GenericStringRef<char>::GenericStringRef<char>
PUBLIC	??0?$GenericStringRef@D@rapidjson@@QEAA@PEBDI@Z	; rapidjson::GenericStringRef<char>::GenericStringRef<char>
PUBLIC	??0?$GenericStringRef@D@rapidjson@@QEAA@AEBU01@@Z ; rapidjson::GenericStringRef<char>::GenericStringRef<char>
PUBLIC	??B?$GenericStringRef@D@rapidjson@@QEBAPEBDXZ	; rapidjson::GenericStringRef<char>::operator char const *
PUBLIC	?NotNullStrLen@?$GenericStringRef@D@rapidjson@@AEAAIPEBD@Z ; rapidjson::GenericStringRef<char>::NotNullStrLen
PUBLIC	??$FindMember@V?$MemoryPoolAllocator@VCrtAllocator@rapidjson@@@rapidjson@@@?$GenericValue@U?$UTF8@D@rapidjson@@V?$MemoryPoolAllocator@VCrtAllocator@rapidjson@@@2@@rapidjson@@QEAA?AV?$GenericMemberIterator@$0A@U?$UTF8@D@rapidjson@@V?$MemoryPoolAllocator@VCrtAllocator@rapidjson@@@2@@1@AEBV01@@Z ; rapidjson::GenericValue<rapidjson::UTF8<char>,rapidjson::MemoryPoolAllocator<rapidjson::CrtAllocator> >::FindMember<rapidjson::MemoryPoolAllocator<rapidjson::CrtAllocator> >
PUBLIC	??0?$GenericStringStream@U?$UTF8@D@rapidjson@@@rapidjson@@QEAA@PEBD@Z ; rapidjson::GenericStringStream<rapidjson::UTF8<char> >::GenericStringStream<rapidjson::UTF8<char> >
PUBLIC	?Peek@?$GenericStringStream@U?$UTF8@D@rapidjson@@@rapidjson@@QEBADXZ ; rapidjson::GenericStringStream<rapidjson::UTF8<char> >::Peek
PUBLIC	?Take@?$GenericStringStream@U?$UTF8@D@rapidjson@@@rapidjson@@QEAADXZ ; rapidjson::GenericStringStream<rapidjson::UTF8<char> >::Take
PUBLIC	?Tell@?$GenericStringStream@U?$UTF8@D@rapidjson@@@rapidjson@@QEBA_KXZ ; rapidjson::GenericStringStream<rapidjson::UTF8<char> >::Tell
PUBLIC	?PutBegin@?$GenericStringStream@U?$UTF8@D@rapidjson@@@rapidjson@@QEAAPEADXZ ; rapidjson::GenericStringStream<rapidjson::UTF8<char> >::PutBegin
PUBLIC	?Put@?$GenericStringStream@U?$UTF8@D@rapidjson@@@rapidjson@@QEAAXD@Z ; rapidjson::GenericStringStream<rapidjson::UTF8<char> >::Put
PUBLIC	?PutEnd@?$GenericStringStream@U?$UTF8@D@rapidjson@@@rapidjson@@QEAA_KPEAD@Z ; rapidjson::GenericStringStream<rapidjson::UTF8<char> >::PutEnd
PUBLIC	??$Decode@U?$GenericStringStream@U?$UTF8@D@rapidjson@@@rapidjson@@@?$UTF8@D@rapidjson@@SA_NAEAU?$GenericStringStream@U?$UTF8@D@rapidjson@@@1@PEAI@Z ; rapidjson::UTF8<char>::Decode<rapidjson::GenericStringStream<rapidjson::UTF8<char> > >
PUBLIC	??$Validate@U?$GenericStringStream@U?$UTF8@D@rapidjson@@@rapidjson@@V?$GenericStringBuffer@U?$UTF8@D@rapidjson@@VCrtAllocator@2@@2@@?$Transcoder@U?$UTF8@D@rapidjson@@U12@@rapidjson@@SA_NAEAU?$GenericStringStream@U?$UTF8@D@rapidjson@@@1@AEAV?$GenericStringBuffer@U?$UTF8@D@rapidjson@@VCrtAllocator@2@@1@@Z ; rapidjson::Transcoder<rapidjson::UTF8<char>,rapidjson::UTF8<char> >::Validate<rapidjson::GenericStringStream<rapidjson::UTF8<char> >,rapidjson::GenericStringBuffer<rapidjson::UTF8<char>,rapidjson::CrtAllocator> >
PUBLIC	??$TranscodeUnsafe@U?$GenericStringStream@U?$UTF8@D@rapidjson@@@rapidjson@@V?$GenericStringBuffer@U?$UTF8@D@rapidjson@@VCrtAllocator@2@@2@@?$Transcoder@U?$UTF8@D@rapidjson@@U12@@rapidjson@@SA_NAEAU?$GenericStringStream@U?$UTF8@D@rapidjson@@@1@AEAV?$GenericStringBuffer@U?$UTF8@D@rapidjson@@VCrtAllocator@2@@1@@Z ; rapidjson::Transcoder<rapidjson::UTF8<char>,rapidjson::UTF8<char> >::TranscodeUnsafe<rapidjson::GenericStringStream<rapidjson::UTF8<char> >,rapidjson::GenericStringBuffer<rapidjson::UTF8<char>,rapidjson::CrtAllocator> >
PUBLIC	??$_Deallocate@$0BA@@std@@YAXPEAX_K@Z		; std::_Deallocate<16>
PUBLIC	??$_Destroy_in_place@PEAUJsonReaderStackItem@@@std@@YAXAEAPEAUJsonReaderStackItem@@@Z ; std::_Destroy_in_place<JsonReaderStackItem *>
PUBLIC	??$?0UJsonReaderStackItem@@@?$allocator@PEAUJsonReaderStackItem@@@std@@QEAA@AEBV?$allocator@UJsonReaderStackItem@@@1@@Z ; std::allocator<JsonReaderStackItem *>::allocator<JsonReaderStackItem *><JsonReaderStackItem>
PUBLIC	??$_Unfancy@UJsonReaderStackItem@@@std@@YAPEAUJsonReaderStackItem@@PEAU1@@Z ; std::_Unfancy<JsonReaderStackItem>
PUBLIC	??$_Allocate@$0BA@U_Default_allocate_traits@std@@@std@@YAPEAX_K@Z ; std::_Allocate<16,std::_Default_allocate_traits>
PUBLIC	??$_Construct_in_place@PEADAEBQEAD@std@@YAXAEAPEADAEBQEAD@Z ; std::_Construct_in_place<char *,char * const &>
PUBLIC	??$_Get_size_of_n@$07@std@@YA_K_K@Z		; std::_Get_size_of_n<8>
PUBLIC	??$Reserve@D@?$Stack@VCrtAllocator@rapidjson@@@internal@rapidjson@@QEAAX_K@Z ; rapidjson::internal::Stack<rapidjson::CrtAllocator>::Reserve<char>
PUBLIC	??$PushUnsafe@D@?$Stack@VCrtAllocator@rapidjson@@@internal@rapidjson@@QEAAPEAD_K@Z ; rapidjson::internal::Stack<rapidjson::CrtAllocator>::PushUnsafe<char>
PUBLIC	??$Reserve@ULevel@?$Writer@V?$GenericStringBuffer@U?$UTF8@D@rapidjson@@VCrtAllocator@2@@rapidjson@@U?$UTF8@D@2@U32@VCrtAllocator@2@$0A@@rapidjson@@@?$Stack@VCrtAllocator@rapidjson@@@internal@rapidjson@@QEAAX_K@Z ; rapidjson::internal::Stack<rapidjson::CrtAllocator>::Reserve<rapidjson::Writer<rapidjson::GenericStringBuffer<rapidjson::UTF8<char>,rapidjson::CrtAllocator>,rapidjson::UTF8<char>,rapidjson::UTF8<char>,rapidjson::CrtAllocator,0>::Level>
PUBLIC	??$PushUnsafe@ULevel@?$Writer@V?$GenericStringBuffer@U?$UTF8@D@rapidjson@@VCrtAllocator@2@@rapidjson@@U?$UTF8@D@2@U32@VCrtAllocator@2@$0A@@rapidjson@@@?$Stack@VCrtAllocator@rapidjson@@@internal@rapidjson@@QEAAPEAULevel@?$Writer@V?$GenericStringBuffer@U?$UTF8@D@rapidjson@@VCrtAllocator@2@@rapidjson@@U?$UTF8@D@2@U32@VCrtAllocator@2@$0A@@2@_K@Z ; rapidjson::internal::Stack<rapidjson::CrtAllocator>::PushUnsafe<rapidjson::Writer<rapidjson::GenericStringBuffer<rapidjson::UTF8<char>,rapidjson::CrtAllocator>,rapidjson::UTF8<char>,rapidjson::UTF8<char>,rapidjson::CrtAllocator,0>::Level>
PUBLIC	??$_Deallocate_plain@V?$allocator@U_Container_proxy@std@@@std@@@std@@YAXAEAV?$allocator@U_Container_proxy@std@@@0@QEAU_Container_proxy@0@@Z ; std::_Deallocate_plain<std::allocator<std::_Container_proxy> >
PUBLIC	??$_Unfancy@U_Container_proxy@std@@@std@@YAPEAU_Container_proxy@0@PEAU10@@Z ; std::_Unfancy<std::_Container_proxy>
PUBLIC	??$_Construct_in_place@U_Container_proxy@std@@PEAU_Container_base12@2@@std@@YAXAEAU_Container_proxy@0@$$QEAPEAU_Container_base12@0@@Z ; std::_Construct_in_place<std::_Container_proxy,std::_Container_base12 *>
PUBLIC	??$Parse@$0A@U?$UTF8@D@rapidjson@@@?$GenericDocument@U?$UTF8@D@rapidjson@@V?$MemoryPoolAllocator@VCrtAllocator@rapidjson@@@2@VCrtAllocator@2@@rapidjson@@QEAAAEAV01@PEBD_K@Z ; rapidjson::GenericDocument<rapidjson::UTF8<char>,rapidjson::MemoryPoolAllocator<rapidjson::CrtAllocator>,rapidjson::CrtAllocator>::Parse<0,rapidjson::UTF8<char> >
PUBLIC	??$Parse@$0A@U?$UTF8@D@rapidjson@@@?$GenericDocument@U?$UTF8@D@rapidjson@@V?$MemoryPoolAllocator@VCrtAllocator@rapidjson@@@2@VCrtAllocator@2@@rapidjson@@QEAAAEAV01@PEBD@Z ; rapidjson::GenericDocument<rapidjson::UTF8<char>,rapidjson::MemoryPoolAllocator<rapidjson::CrtAllocator>,rapidjson::CrtAllocator>::Parse<0,rapidjson::UTF8<char> >
PUBLIC	??$_Allocate_for_capacity@$0A@@?$basic_string@DU?$char_traits@D@std@@V?$allocator@D@2@@std@@CAPEADAEAV?$allocator@D@1@AEA_K@Z ; std::basic_string<char,std::char_traits<char>,std::allocator<char> >::_Allocate_for_capacity<0>
PUBLIC	??$forward@UJsonReaderStackItem@@@std@@YA$$QEAUJsonReaderStackItem@@AEAU1@@Z ; std::forward<JsonReaderStackItem>
PUBLIC	??$construct@UJsonReaderStackItem@@U1@@?$_Default_allocator_traits@V?$allocator@UJsonReaderStackItem@@@std@@@std@@SAXAEAV?$allocator@UJsonReaderStackItem@@@1@QEAUJsonReaderStackItem@@$$QEAU3@@Z ; std::_Default_allocator_traits<std::allocator<JsonReaderStackItem> >::construct<JsonReaderStackItem,JsonReaderStackItem>
PUBLIC	??$StringEqual@V?$MemoryPoolAllocator@VCrtAllocator@rapidjson@@@rapidjson@@@?$GenericValue@U?$UTF8@D@rapidjson@@V?$MemoryPoolAllocator@VCrtAllocator@rapidjson@@@2@@rapidjson@@AEBA_NAEBV01@@Z ; rapidjson::GenericValue<rapidjson::UTF8<char>,rapidjson::MemoryPoolAllocator<rapidjson::CrtAllocator> >::StringEqual<rapidjson::MemoryPoolAllocator<rapidjson::CrtAllocator> >
PUBLIC	??$Validate@U?$GenericStringStream@U?$UTF8@D@rapidjson@@@rapidjson@@V?$GenericStringBuffer@U?$UTF8@D@rapidjson@@VCrtAllocator@2@@2@@?$UTF8@D@rapidjson@@SA_NAEAU?$GenericStringStream@U?$UTF8@D@rapidjson@@@1@AEAV?$GenericStringBuffer@U?$UTF8@D@rapidjson@@VCrtAllocator@2@@1@@Z ; rapidjson::UTF8<char>::Validate<rapidjson::GenericStringStream<rapidjson::UTF8<char> >,rapidjson::GenericStringBuffer<rapidjson::UTF8<char>,rapidjson::CrtAllocator> >
PUBLIC	??$addressof@PEAD@std@@YAPEAPEADAEAPEAD@Z	; std::addressof<char *>
PUBLIC	??$_Allocate_manually_vector_aligned@U_Default_allocate_traits@std@@@std@@YAPEAX_K@Z ; std::_Allocate_manually_vector_aligned<std::_Default_allocate_traits>
PUBLIC	??$forward@AEBQEAD@std@@YAAEBQEADAEBQEAD@Z	; std::forward<char * const &>
PUBLIC	??$_Get_size_of_n@$0BA@@std@@YA_K_K@Z		; std::_Get_size_of_n<16>
PUBLIC	??$_Allocate_at_least_helper@V?$allocator@PEAUJsonReaderStackItem@@@std@@@std@@YAPEAPEAUJsonReaderStackItem@@AEAV?$allocator@PEAUJsonReaderStackItem@@@0@AEA_K@Z ; std::_Allocate_at_least_helper<std::allocator<JsonReaderStackItem *> >
PUBLIC	??$uninitialized_copy@PEAPEAUJsonReaderStackItem@@PEAPEAU1@@std@@YAPEAPEAUJsonReaderStackItem@@QEAPEAU1@0PEAPEAU1@@Z ; std::uninitialized_copy<JsonReaderStackItem * *,JsonReaderStackItem * *>
PUBLIC	??$_Uninitialized_value_construct_n_unchecked1@PEAPEAUJsonReaderStackItem@@_K@std@@YAPEAPEAUJsonReaderStackItem@@PEAPEAU1@_K@Z ; std::_Uninitialized_value_construct_n_unchecked1<JsonReaderStackItem * *,unsigned __int64>
PUBLIC	??$_Destroy_range@PEAPEAUJsonReaderStackItem@@PEAPEAU1@@std@@YAXPEAPEAUJsonReaderStackItem@@QEAPEAU1@@Z ; std::_Destroy_range<JsonReaderStackItem * *,JsonReaderStackItem * *>
PUBLIC	??$_Get_size_of_n@$00@std@@YA_K_K@Z		; std::_Get_size_of_n<1>
PUBLIC	??$?0$0A@@id@locale@std@@QEAA@XZ		; std::locale::id::id<0>
PUBLIC	??$Expand@D@?$Stack@VCrtAllocator@rapidjson@@@internal@rapidjson@@AEAAX_K@Z ; rapidjson::internal::Stack<rapidjson::CrtAllocator>::Expand<char>
PUBLIC	??$Expand@ULevel@?$Writer@V?$GenericStringBuffer@U?$UTF8@D@rapidjson@@VCrtAllocator@2@@rapidjson@@U?$UTF8@D@2@U32@VCrtAllocator@2@$0A@@rapidjson@@@?$Stack@VCrtAllocator@rapidjson@@@internal@rapidjson@@AEAAX_K@Z ; rapidjson::internal::Stack<rapidjson::CrtAllocator>::Expand<rapidjson::Writer<rapidjson::GenericStringBuffer<rapidjson::UTF8<char>,rapidjson::CrtAllocator>,rapidjson::UTF8<char>,rapidjson::UTF8<char>,rapidjson::CrtAllocator,0>::Level>
PUBLIC	?deallocate@?$_Default_allocator_traits@V?$allocator@U_Container_proxy@std@@@std@@@std@@SAXAEAV?$allocator@U_Container_proxy@std@@@2@QEAU_Container_proxy@2@_K@Z ; std::_Default_allocator_traits<std::allocator<std::_Container_proxy> >::deallocate
PUBLIC	??$addressof@U_Container_proxy@std@@@std@@YAPEAU_Container_proxy@0@AEAU10@@Z ; std::addressof<std::_Container_proxy>
PUBLIC	??$forward@PEAU_Container_base12@std@@@std@@YA$$QEAPEAU_Container_base12@0@AEAPEAU10@@Z ; std::forward<std::_Container_base12 *>
PUBLIC	??$ParseStream@$0A@U?$UTF8@D@rapidjson@@V?$EncodedInputStream@U?$UTF8@D@rapidjson@@UMemoryStream@2@@2@@?$GenericDocument@U?$UTF8@D@rapidjson@@V?$MemoryPoolAllocator@VCrtAllocator@rapidjson@@@2@VCrtAllocator@2@@rapidjson@@QEAAAEAV01@AEAV?$EncodedInputStream@U?$UTF8@D@rapidjson@@UMemoryStream@2@@1@@Z ; rapidjson::GenericDocument<rapidjson::UTF8<char>,rapidjson::MemoryPoolAllocator<rapidjson::CrtAllocator>,rapidjson::CrtAllocator>::ParseStream<0,rapidjson::UTF8<char>,rapidjson::EncodedInputStream<rapidjson::UTF8<char>,rapidjson::MemoryStream> >
PUBLIC	??$ParseStream@$0A@U?$UTF8@D@rapidjson@@U?$GenericStringStream@U?$UTF8@D@rapidjson@@@2@@?$GenericDocument@U?$UTF8@D@rapidjson@@V?$MemoryPoolAllocator@VCrtAllocator@rapidjson@@@2@VCrtAllocator@2@@rapidjson@@QEAAAEAV01@AEAU?$GenericStringStream@U?$UTF8@D@rapidjson@@@1@@Z ; rapidjson::GenericDocument<rapidjson::UTF8<char>,rapidjson::MemoryPoolAllocator<rapidjson::CrtAllocator>,rapidjson::CrtAllocator>::ParseStream<0,rapidjson::UTF8<char>,rapidjson::GenericStringStream<rapidjson::UTF8<char> > >
PUBLIC	??$_Adl_verify_range@PEAPEAUJsonReaderStackItem@@PEAPEAU1@@std@@YAXAEBQEAPEAUJsonReaderStackItem@@0@Z ; std::_Adl_verify_range<JsonReaderStackItem * *,JsonReaderStackItem * *>
PUBLIC	??$_Get_unwrapped@AEBQEAPEAUJsonReaderStackItem@@@std@@YA?A_TAEBQEAPEAUJsonReaderStackItem@@@Z ; std::_Get_unwrapped<JsonReaderStackItem * * const &>
PUBLIC	??$_Idl_distance@PEAPEAUJsonReaderStackItem@@PEAPEAU1@@std@@YA?A_PAEBQEAPEAUJsonReaderStackItem@@0@Z ; std::_Idl_distance<JsonReaderStackItem * *,JsonReaderStackItem * *>
PUBLIC	??$_Get_unwrapped_n@AEAPEAPEAUJsonReaderStackItem@@_J@std@@YA?A_TAEAPEAPEAUJsonReaderStackItem@@_J@Z ; std::_Get_unwrapped_n<JsonReaderStackItem * * &,__int64>
PUBLIC	??$_Uninitialized_copy_unchecked@PEAPEAUJsonReaderStackItem@@PEAPEAU1@@std@@YAPEAPEAUJsonReaderStackItem@@PEAPEAU1@QEAPEAU1@0@Z ; std::_Uninitialized_copy_unchecked<JsonReaderStackItem * *,JsonReaderStackItem * *>
PUBLIC	??$_Seek_wrapped@PEAPEAUJsonReaderStackItem@@PEAPEAU1@@std@@YAXAEAPEAPEAUJsonReaderStackItem@@$$QEAPEAPEAU1@@Z ; std::_Seek_wrapped<JsonReaderStackItem * *,JsonReaderStackItem * *>
PUBLIC	??$_Zero_range@PEAPEAUJsonReaderStackItem@@@std@@YAPEAPEAUJsonReaderStackItem@@QEAPEAU1@0@Z ; std::_Zero_range<JsonReaderStackItem * *>
PUBLIC	??0?$GenericReader@U?$UTF8@D@rapidjson@@U12@VCrtAllocator@2@@rapidjson@@QEAA@PEAVCrtAllocator@1@_K@Z ; rapidjson::GenericReader<rapidjson::UTF8<char>,rapidjson::UTF8<char>,rapidjson::CrtAllocator>::GenericReader<rapidjson::UTF8<char>,rapidjson::UTF8<char>,rapidjson::CrtAllocator>
PUBLIC	?HasParseError@?$GenericReader@U?$UTF8@D@rapidjson@@U12@VCrtAllocator@2@@rapidjson@@QEBA_NXZ ; rapidjson::GenericReader<rapidjson::UTF8<char>,rapidjson::UTF8<char>,rapidjson::CrtAllocator>::HasParseError
PUBLIC	?SetParseError@?$GenericReader@U?$UTF8@D@rapidjson@@U12@VCrtAllocator@2@@rapidjson@@IEAAXW4ParseErrorCode@2@_K@Z ; rapidjson::GenericReader<rapidjson::UTF8<char>,rapidjson::UTF8<char>,rapidjson::CrtAllocator>::SetParseError
PUBLIC	?ClearStack@?$GenericReader@U?$UTF8@D@rapidjson@@U12@VCrtAllocator@2@@rapidjson@@AEAAXXZ ; rapidjson::GenericReader<rapidjson::UTF8<char>,rapidjson::UTF8<char>,rapidjson::CrtAllocator>::ClearStack
PUBLIC	?Tokenize@?$GenericReader@U?$UTF8@D@rapidjson@@U12@VCrtAllocator@2@@rapidjson@@AEBA?AW4Token@12@D@Z ; rapidjson::GenericReader<rapidjson::UTF8<char>,rapidjson::UTF8<char>,rapidjson::CrtAllocator>::Tokenize
PUBLIC	?Predict@?$GenericReader@U?$UTF8@D@rapidjson@@U12@VCrtAllocator@2@@rapidjson@@AEBA?AW4IterativeParsingState@12@W4312@W4Token@12@@Z ; rapidjson::GenericReader<rapidjson::UTF8<char>,rapidjson::UTF8<char>,rapidjson::CrtAllocator>::Predict
PUBLIC	??1?$GenericReader@U?$UTF8@D@rapidjson@@U12@VCrtAllocator@2@@rapidjson@@QEAA@XZ ; rapidjson::GenericReader<rapidjson::UTF8<char>,rapidjson::UTF8<char>,rapidjson::CrtAllocator>::~GenericReader<rapidjson::UTF8<char>,rapidjson::UTF8<char>,rapidjson::CrtAllocator>
PUBLIC	??0ClearStackOnExit@?$GenericDocument@U?$UTF8@D@rapidjson@@V?$MemoryPoolAllocator@VCrtAllocator@rapidjson@@@2@VCrtAllocator@2@@rapidjson@@QEAA@AEAV12@@Z ; rapidjson::GenericDocument<rapidjson::UTF8<char>,rapidjson::MemoryPoolAllocator<rapidjson::CrtAllocator>,rapidjson::CrtAllocator>::ClearStackOnExit::ClearStackOnExit
PUBLIC	??1ClearStackOnExit@?$GenericDocument@U?$UTF8@D@rapidjson@@V?$MemoryPoolAllocator@VCrtAllocator@rapidjson@@@2@VCrtAllocator@2@@rapidjson@@QEAA@XZ ; rapidjson::GenericDocument<rapidjson::UTF8<char>,rapidjson::MemoryPoolAllocator<rapidjson::CrtAllocator>,rapidjson::CrtAllocator>::ClearStackOnExit::~ClearStackOnExit
PUBLIC	??$Parse@$0A@V?$EncodedInputStream@U?$UTF8@D@rapidjson@@UMemoryStream@2@@rapidjson@@V?$GenericDocument@U?$UTF8@D@rapidjson@@V?$MemoryPoolAllocator@VCrtAllocator@rapidjson@@@2@VCrtAllocator@2@@2@@?$GenericReader@U?$UTF8@D@rapidjson@@U12@VCrtAllocator@2@@rapidjson@@QEAA?AUParseResult@1@AEAV?$EncodedInputStream@U?$UTF8@D@rapidjson@@UMemoryStream@2@@1@AEAV?$GenericDocument@U?$UTF8@D@rapidjson@@V?$MemoryPoolAllocator@VCrtAllocator@rapidjson@@@2@VCrtAllocator@2@@1@@Z ; rapidjson::GenericReader<rapidjson::UTF8<char>,rapidjson::UTF8<char>,rapidjson::CrtAllocator>::Parse<0,rapidjson::EncodedInputStream<rapidjson::UTF8<char>,rapidjson::MemoryStream>,rapidjson::GenericDocument<rapidjson::UTF8<char>,rapidjson::MemoryPoolAllocator<rapidjson::CrtAllocator>,rapidjson::CrtAllocator> >
PUBLIC	??$Pop@V?$GenericValue@U?$UTF8@D@rapidjson@@V?$MemoryPoolAllocator@VCrtAllocator@rapidjson@@@2@@rapidjson@@@?$Stack@VCrtAllocator@rapidjson@@@internal@rapidjson@@QEAAPEAV?$GenericValue@U?$UTF8@D@rapidjson@@V?$MemoryPoolAllocator@VCrtAllocator@rapidjson@@@2@@2@_K@Z ; rapidjson::internal::Stack<rapidjson::CrtAllocator>::Pop<rapidjson::GenericValue<rapidjson::UTF8<char>,rapidjson::MemoryPoolAllocator<rapidjson::CrtAllocator> > >
PUBLIC	??$Parse@$0A@U?$GenericStringStream@U?$UTF8@D@rapidjson@@@rapidjson@@V?$GenericDocument@U?$UTF8@D@rapidjson@@V?$MemoryPoolAllocator@VCrtAllocator@rapidjson@@@2@VCrtAllocator@2@@2@@?$GenericReader@U?$UTF8@D@rapidjson@@U12@VCrtAllocator@2@@rapidjson@@QEAA?AUParseResult@1@AEAU?$GenericStringStream@U?$UTF8@D@rapidjson@@@1@AEAV?$GenericDocument@U?$UTF8@D@rapidjson@@V?$MemoryPoolAllocator@VCrtAllocator@rapidjson@@@2@VCrtAllocator@2@@1@@Z ; rapidjson::GenericReader<rapidjson::UTF8<char>,rapidjson::UTF8<char>,rapidjson::CrtAllocator>::Parse<0,rapidjson::GenericStringStream<rapidjson::UTF8<char> >,rapidjson::GenericDocument<rapidjson::UTF8<char>,rapidjson::MemoryPoolAllocator<rapidjson::CrtAllocator>,rapidjson::CrtAllocator> >
PUBLIC	??$_Copy_memmove@PEAPEAUJsonReaderStackItem@@PEAPEAU1@@std@@YAPEAPEAUJsonReaderStackItem@@PEAPEAU1@00@Z ; std::_Copy_memmove<JsonReaderStackItem * *,JsonReaderStackItem * *>
PUBLIC	??0?$_Uninitialized_backout@PEAPEAUJsonReaderStackItem@@@std@@QEAA@PEAPEAUJsonReaderStackItem@@@Z ; std::_Uninitialized_backout<JsonReaderStackItem * *>::_Uninitialized_backout<JsonReaderStackItem * *>
PUBLIC	??1?$_Uninitialized_backout@PEAPEAUJsonReaderStackItem@@@std@@QEAA@XZ ; std::_Uninitialized_backout<JsonReaderStackItem * *>::~_Uninitialized_backout<JsonReaderStackItem * *>
PUBLIC	?_Release@?$_Uninitialized_backout@PEAPEAUJsonReaderStackItem@@@std@@QEAAPEAPEAUJsonReaderStackItem@@XZ ; std::_Uninitialized_backout<JsonReaderStackItem * *>::_Release
PUBLIC	??$_Emplace_back@AEAPEAUJsonReaderStackItem@@@?$_Uninitialized_backout@PEAPEAUJsonReaderStackItem@@@std@@QEAAXAEAPEAUJsonReaderStackItem@@@Z ; std::_Uninitialized_backout<JsonReaderStackItem * *>::_Emplace_back<JsonReaderStackItem * &>
PUBLIC	??$forward@PEAPEAUJsonReaderStackItem@@@std@@YA$$QEAPEAPEAUJsonReaderStackItem@@AEAPEAPEAU1@@Z ; std::forward<JsonReaderStackItem * *>
PUBLIC	??$_To_address@PEAPEAUJsonReaderStackItem@@@std@@YA?A_PAEBQEAPEAUJsonReaderStackItem@@@Z ; std::_To_address<JsonReaderStackItem * *>
PUBLIC	??$IterativeParse@$0A@V?$EncodedInputStream@U?$UTF8@D@rapidjson@@UMemoryStream@2@@rapidjson@@V?$GenericDocument@U?$UTF8@D@rapidjson@@V?$MemoryPoolAllocator@VCrtAllocator@rapidjson@@@2@VCrtAllocator@2@@2@@?$GenericReader@U?$UTF8@D@rapidjson@@U12@VCrtAllocator@2@@rapidjson@@AEAA?AUParseResult@1@AEAV?$EncodedInputStream@U?$UTF8@D@rapidjson@@UMemoryStream@2@@1@AEAV?$GenericDocument@U?$UTF8@D@rapidjson@@V?$MemoryPoolAllocator@VCrtAllocator@rapidjson@@@2@VCrtAllocator@2@@1@@Z ; rapidjson::GenericReader<rapidjson::UTF8<char>,rapidjson::UTF8<char>,rapidjson::CrtAllocator>::IterativeParse<0,rapidjson::EncodedInputStream<rapidjson::UTF8<char>,rapidjson::MemoryStream>,rapidjson::GenericDocument<rapidjson::UTF8<char>,rapidjson::MemoryPoolAllocator<rapidjson::CrtAllocator>,rapidjson::CrtAllocator> >
PUBLIC	??0ClearStackOnExit@?$GenericReader@U?$UTF8@D@rapidjson@@U12@VCrtAllocator@2@@rapidjson@@QEAA@AEAV12@@Z ; rapidjson::GenericReader<rapidjson::UTF8<char>,rapidjson::UTF8<char>,rapidjson::CrtAllocator>::ClearStackOnExit::ClearStackOnExit
PUBLIC	??1ClearStackOnExit@?$GenericReader@U?$UTF8@D@rapidjson@@U12@VCrtAllocator@2@@rapidjson@@QEAA@XZ ; rapidjson::GenericReader<rapidjson::UTF8<char>,rapidjson::UTF8<char>,rapidjson::CrtAllocator>::ClearStackOnExit::~ClearStackOnExit
PUBLIC	??$SkipWhitespaceAndComments@$0A@V?$EncodedInputStream@U?$UTF8@D@rapidjson@@UMemoryStream@2@@rapidjson@@@?$GenericReader@U?$UTF8@D@rapidjson@@U12@VCrtAllocator@2@@rapidjson@@AEAAXAEAV?$EncodedInputStream@U?$UTF8@D@rapidjson@@UMemoryStream@2@@1@@Z ; rapidjson::GenericReader<rapidjson::UTF8<char>,rapidjson::UTF8<char>,rapidjson::CrtAllocator>::SkipWhitespaceAndComments<0,rapidjson::EncodedInputStream<rapidjson::UTF8<char>,rapidjson::MemoryStream> >
PUBLIC	??$ParseValue@$0A@V?$EncodedInputStream@U?$UTF8@D@rapidjson@@UMemoryStream@2@@rapidjson@@V?$GenericDocument@U?$UTF8@D@rapidjson@@V?$MemoryPoolAllocator@VCrtAllocator@rapidjson@@@2@VCrtAllocator@2@@2@@?$GenericReader@U?$UTF8@D@rapidjson@@U12@VCrtAllocator@2@@rapidjson@@AEAAXAEAV?$EncodedInputStream@U?$UTF8@D@rapidjson@@UMemoryStream@2@@1@AEAV?$GenericDocument@U?$UTF8@D@rapidjson@@V?$MemoryPoolAllocator@VCrtAllocator@rapidjson@@@2@VCrtAllocator@2@@1@@Z ; rapidjson::GenericReader<rapidjson::UTF8<char>,rapidjson::UTF8<char>,rapidjson::CrtAllocator>::ParseValue<0,rapidjson::EncodedInputStream<rapidjson::UTF8<char>,rapidjson::MemoryStream>,rapidjson::GenericDocument<rapidjson::UTF8<char>,rapidjson::MemoryPoolAllocator<rapidjson::CrtAllocator>,rapidjson::CrtAllocator> >
PUBLIC	??$IterativeParse@$0A@U?$GenericStringStream@U?$UTF8@D@rapidjson@@@rapidjson@@V?$GenericDocument@U?$UTF8@D@rapidjson@@V?$MemoryPoolAllocator@VCrtAllocator@rapidjson@@@2@VCrtAllocator@2@@2@@?$GenericReader@U?$UTF8@D@rapidjson@@U12@VCrtAllocator@2@@rapidjson@@AEAA?AUParseResult@1@AEAU?$GenericStringStream@U?$UTF8@D@rapidjson@@@1@AEAV?$GenericDocument@U?$UTF8@D@rapidjson@@V?$MemoryPoolAllocator@VCrtAllocator@rapidjson@@@2@VCrtAllocator@2@@1@@Z ; rapidjson::GenericReader<rapidjson::UTF8<char>,rapidjson::UTF8<char>,rapidjson::CrtAllocator>::IterativeParse<0,rapidjson::GenericStringStream<rapidjson::UTF8<char> >,rapidjson::GenericDocument<rapidjson::UTF8<char>,rapidjson::MemoryPoolAllocator<rapidjson::CrtAllocator>,rapidjson::CrtAllocator> >
PUBLIC	??$SkipWhitespaceAndComments@$0A@U?$GenericStringStream@U?$UTF8@D@rapidjson@@@rapidjson@@@?$GenericReader@U?$UTF8@D@rapidjson@@U12@VCrtAllocator@2@@rapidjson@@AEAAXAEAU?$GenericStringStream@U?$UTF8@D@rapidjson@@@1@@Z ; rapidjson::GenericReader<rapidjson::UTF8<char>,rapidjson::UTF8<char>,rapidjson::CrtAllocator>::SkipWhitespaceAndComments<0,rapidjson::GenericStringStream<rapidjson::UTF8<char> > >
PUBLIC	??$ParseValue@$0A@U?$GenericStringStream@U?$UTF8@D@rapidjson@@@rapidjson@@V?$GenericDocument@U?$UTF8@D@rapidjson@@V?$MemoryPoolAllocator@VCrtAllocator@rapidjson@@@2@VCrtAllocator@2@@2@@?$GenericReader@U?$UTF8@D@rapidjson@@U12@VCrtAllocator@2@@rapidjson@@AEAAXAEAU?$GenericStringStream@U?$UTF8@D@rapidjson@@@1@AEAV?$GenericDocument@U?$UTF8@D@rapidjson@@V?$MemoryPoolAllocator@VCrtAllocator@rapidjson@@@2@VCrtAllocator@2@@1@@Z ; rapidjson::GenericReader<rapidjson::UTF8<char>,rapidjson::UTF8<char>,rapidjson::CrtAllocator>::ParseValue<0,rapidjson::GenericStringStream<rapidjson::UTF8<char> >,rapidjson::GenericDocument<rapidjson::UTF8<char>,rapidjson::MemoryPoolAllocator<rapidjson::CrtAllocator>,rapidjson::CrtAllocator> >
PUBLIC	??$move@AEAPEAPEAUJsonReaderStackItem@@@std@@YA$$QEAPEAPEAUJsonReaderStackItem@@AEAPEAPEAU1@@Z ; std::move<JsonReaderStackItem * * &>
PUBLIC	??$_Copy_memmove_tail@PEAPEAUJsonReaderStackItem@@@std@@YAPEAPEAUJsonReaderStackItem@@QEBDQEAPEAU1@_K2@Z ; std::_Copy_memmove_tail<JsonReaderStackItem * *>
PUBLIC	??$forward@AEAPEAUJsonReaderStackItem@@@std@@YAAEAPEAUJsonReaderStackItem@@AEAPEAU1@@Z ; std::forward<JsonReaderStackItem * &>
PUBLIC	??$_Construct_in_place@PEAUJsonReaderStackItem@@AEAPEAU1@@std@@YAXAEAPEAUJsonReaderStackItem@@0@Z ; std::_Construct_in_place<JsonReaderStackItem *,JsonReaderStackItem * &>
PUBLIC	??$Transit@$0A@V?$EncodedInputStream@U?$UTF8@D@rapidjson@@UMemoryStream@2@@rapidjson@@V?$GenericDocument@U?$UTF8@D@rapidjson@@V?$MemoryPoolAllocator@VCrtAllocator@rapidjson@@@2@VCrtAllocator@2@@2@@?$GenericReader@U?$UTF8@D@rapidjson@@U12@VCrtAllocator@2@@rapidjson@@AEAA?AW4IterativeParsingState@01@W4201@W4Token@01@0AEAV?$EncodedInputStream@U?$UTF8@D@rapidjson@@UMemoryStream@2@@1@AEAV?$GenericDocument@U?$UTF8@D@rapidjson@@V?$MemoryPoolAllocator@VCrtAllocator@rapidjson@@@2@VCrtAllocator@2@@1@@Z ; rapidjson::GenericReader<rapidjson::UTF8<char>,rapidjson::UTF8<char>,rapidjson::CrtAllocator>::Transit<0,rapidjson::EncodedInputStream<rapidjson::UTF8<char>,rapidjson::MemoryStream>,rapidjson::GenericDocument<rapidjson::UTF8<char>,rapidjson::MemoryPoolAllocator<rapidjson::CrtAllocator>,rapidjson::CrtAllocator> >
PUBLIC	??$HandleError@V?$EncodedInputStream@U?$UTF8@D@rapidjson@@UMemoryStream@2@@rapidjson@@@?$GenericReader@U?$UTF8@D@rapidjson@@U12@VCrtAllocator@2@@rapidjson@@AEAAXW4IterativeParsingState@01@AEAV?$EncodedInputStream@U?$UTF8@D@rapidjson@@UMemoryStream@2@@1@@Z ; rapidjson::GenericReader<rapidjson::UTF8<char>,rapidjson::UTF8<char>,rapidjson::CrtAllocator>::HandleError<rapidjson::EncodedInputStream<rapidjson::UTF8<char>,rapidjson::MemoryStream> >
PUBLIC	??$SkipWhitespace@V?$EncodedInputStream@U?$UTF8@D@rapidjson@@UMemoryStream@2@@rapidjson@@@rapidjson@@YAXAEAV?$EncodedInputStream@U?$UTF8@D@rapidjson@@UMemoryStream@2@@0@@Z ; rapidjson::SkipWhitespace<rapidjson::EncodedInputStream<rapidjson::UTF8<char>,rapidjson::MemoryStream> >
PUBLIC	??$Consume@V?$EncodedInputStream@U?$UTF8@D@rapidjson@@UMemoryStream@2@@rapidjson@@@?$GenericReader@U?$UTF8@D@rapidjson@@U12@VCrtAllocator@2@@rapidjson@@CA_NAEAV?$EncodedInputStream@U?$UTF8@D@rapidjson@@UMemoryStream@2@@1@D@Z ; rapidjson::GenericReader<rapidjson::UTF8<char>,rapidjson::UTF8<char>,rapidjson::CrtAllocator>::Consume<rapidjson::EncodedInputStream<rapidjson::UTF8<char>,rapidjson::MemoryStream> >
PUBLIC	??$ParseNull@$0A@V?$EncodedInputStream@U?$UTF8@D@rapidjson@@UMemoryStream@2@@rapidjson@@V?$GenericDocument@U?$UTF8@D@rapidjson@@V?$MemoryPoolAllocator@VCrtAllocator@rapidjson@@@2@VCrtAllocator@2@@2@@?$GenericReader@U?$UTF8@D@rapidjson@@U12@VCrtAllocator@2@@rapidjson@@AEAAXAEAV?$EncodedInputStream@U?$UTF8@D@rapidjson@@UMemoryStream@2@@1@AEAV?$GenericDocument@U?$UTF8@D@rapidjson@@V?$MemoryPoolAllocator@VCrtAllocator@rapidjson@@@2@VCrtAllocator@2@@1@@Z ; rapidjson::GenericReader<rapidjson::UTF8<char>,rapidjson::UTF8<char>,rapidjson::CrtAllocator>::ParseNull<0,rapidjson::EncodedInputStream<rapidjson::UTF8<char>,rapidjson::MemoryStream>,rapidjson::GenericDocument<rapidjson::UTF8<char>,rapidjson::MemoryPoolAllocator<rapidjson::CrtAllocator>,rapidjson::CrtAllocator> >
PUBLIC	??$ParseTrue@$0A@V?$EncodedInputStream@U?$UTF8@D@rapidjson@@UMemoryStream@2@@rapidjson@@V?$GenericDocument@U?$UTF8@D@rapidjson@@V?$MemoryPoolAllocator@VCrtAllocator@rapidjson@@@2@VCrtAllocator@2@@2@@?$GenericReader@U?$UTF8@D@rapidjson@@U12@VCrtAllocator@2@@rapidjson@@AEAAXAEAV?$EncodedInputStream@U?$UTF8@D@rapidjson@@UMemoryStream@2@@1@AEAV?$GenericDocument@U?$UTF8@D@rapidjson@@V?$MemoryPoolAllocator@VCrtAllocator@rapidjson@@@2@VCrtAllocator@2@@1@@Z ; rapidjson::GenericReader<rapidjson::UTF8<char>,rapidjson::UTF8<char>,rapidjson::CrtAllocator>::ParseTrue<0,rapidjson::EncodedInputStream<rapidjson::UTF8<char>,rapidjson::MemoryStream>,rapidjson::GenericDocument<rapidjson::UTF8<char>,rapidjson::MemoryPoolAllocator<rapidjson::CrtAllocator>,rapidjson::CrtAllocator> >
PUBLIC	??$ParseFalse@$0A@V?$EncodedInputStream@U?$UTF8@D@rapidjson@@UMemoryStream@2@@rapidjson@@V?$GenericDocument@U?$UTF8@D@rapidjson@@V?$MemoryPoolAllocator@VCrtAllocator@rapidjson@@@2@VCrtAllocator@2@@2@@?$GenericReader@U?$UTF8@D@rapidjson@@U12@VCrtAllocator@2@@rapidjson@@AEAAXAEAV?$EncodedInputStream@U?$UTF8@D@rapidjson@@UMemoryStream@2@@1@AEAV?$GenericDocument@U?$UTF8@D@rapidjson@@V?$MemoryPoolAllocator@VCrtAllocator@rapidjson@@@2@VCrtAllocator@2@@1@@Z ; rapidjson::GenericReader<rapidjson::UTF8<char>,rapidjson::UTF8<char>,rapidjson::CrtAllocator>::ParseFalse<0,rapidjson::EncodedInputStream<rapidjson::UTF8<char>,rapidjson::MemoryStream>,rapidjson::GenericDocument<rapidjson::UTF8<char>,rapidjson::MemoryPoolAllocator<rapidjson::CrtAllocator>,rapidjson::CrtAllocator> >
PUBLIC	??$ParseString@$0A@V?$EncodedInputStream@U?$UTF8@D@rapidjson@@UMemoryStream@2@@rapidjson@@V?$GenericDocument@U?$UTF8@D@rapidjson@@V?$MemoryPoolAllocator@VCrtAllocator@rapidjson@@@2@VCrtAllocator@2@@2@@?$GenericReader@U?$UTF8@D@rapidjson@@U12@VCrtAllocator@2@@rapidjson@@AEAAXAEAV?$EncodedInputStream@U?$UTF8@D@rapidjson@@UMemoryStream@2@@1@AEAV?$GenericDocument@U?$UTF8@D@rapidjson@@V?$MemoryPoolAllocator@VCrtAllocator@rapidjson@@@2@VCrtAllocator@2@@1@_N@Z ; rapidjson::GenericReader<rapidjson::UTF8<char>,rapidjson::UTF8<char>,rapidjson::CrtAllocator>::ParseString<0,rapidjson::EncodedInputStream<rapidjson::UTF8<char>,rapidjson::MemoryStream>,rapidjson::GenericDocument<rapidjson::UTF8<char>,rapidjson::MemoryPoolAllocator<rapidjson::CrtAllocator>,rapidjson::CrtAllocator> >
PUBLIC	??$ParseObject@$0A@V?$EncodedInputStream@U?$UTF8@D@rapidjson@@UMemoryStream@2@@rapidjson@@V?$GenericDocument@U?$UTF8@D@rapidjson@@V?$MemoryPoolAllocator@VCrtAllocator@rapidjson@@@2@VCrtAllocator@2@@2@@?$GenericReader@U?$UTF8@D@rapidjson@@U12@VCrtAllocator@2@@rapidjson@@AEAAXAEAV?$EncodedInputStream@U?$UTF8@D@rapidjson@@UMemoryStream@2@@1@AEAV?$GenericDocument@U?$UTF8@D@rapidjson@@V?$MemoryPoolAllocator@VCrtAllocator@rapidjson@@@2@VCrtAllocator@2@@1@@Z ; rapidjson::GenericReader<rapidjson::UTF8<char>,rapidjson::UTF8<char>,rapidjson::CrtAllocator>::ParseObject<0,rapidjson::EncodedInputStream<rapidjson::UTF8<char>,rapidjson::MemoryStream>,rapidjson::GenericDocument<rapidjson::UTF8<char>,rapidjson::MemoryPoolAllocator<rapidjson::CrtAllocator>,rapidjson::CrtAllocator> >
PUBLIC	??$ParseArray@$0A@V?$EncodedInputStream@U?$UTF8@D@rapidjson@@UMemoryStream@2@@rapidjson@@V?$GenericDocument@U?$UTF8@D@rapidjson@@V?$MemoryPoolAllocator@VCrtAllocator@rapidjson@@@2@VCrtAllocator@2@@2@@?$GenericReader@U?$UTF8@D@rapidjson@@U12@VCrtAllocator@2@@rapidjson@@AEAAXAEAV?$EncodedInputStream@U?$UTF8@D@rapidjson@@UMemoryStream@2@@1@AEAV?$GenericDocument@U?$UTF8@D@rapidjson@@V?$MemoryPoolAllocator@VCrtAllocator@rapidjson@@@2@VCrtAllocator@2@@1@@Z ; rapidjson::GenericReader<rapidjson::UTF8<char>,rapidjson::UTF8<char>,rapidjson::CrtAllocator>::ParseArray<0,rapidjson::EncodedInputStream<rapidjson::UTF8<char>,rapidjson::MemoryStream>,rapidjson::GenericDocument<rapidjson::UTF8<char>,rapidjson::MemoryPoolAllocator<rapidjson::CrtAllocator>,rapidjson::CrtAllocator> >
PUBLIC	??$ParseNumber@$0A@V?$EncodedInputStream@U?$UTF8@D@rapidjson@@UMemoryStream@2@@rapidjson@@V?$GenericDocument@U?$UTF8@D@rapidjson@@V?$MemoryPoolAllocator@VCrtAllocator@rapidjson@@@2@VCrtAllocator@2@@2@@?$GenericReader@U?$UTF8@D@rapidjson@@U12@VCrtAllocator@2@@rapidjson@@AEAAXAEAV?$EncodedInputStream@U?$UTF8@D@rapidjson@@UMemoryStream@2@@1@AEAV?$GenericDocument@U?$UTF8@D@rapidjson@@V?$MemoryPoolAllocator@VCrtAllocator@rapidjson@@@2@VCrtAllocator@2@@1@@Z ; rapidjson::GenericReader<rapidjson::UTF8<char>,rapidjson::UTF8<char>,rapidjson::CrtAllocator>::ParseNumber<0,rapidjson::EncodedInputStream<rapidjson::UTF8<char>,rapidjson::MemoryStream>,rapidjson::GenericDocument<rapidjson::UTF8<char>,rapidjson::MemoryPoolAllocator<rapidjson::CrtAllocator>,rapidjson::CrtAllocator> >
PUBLIC	??$Transit@$0A@U?$GenericStringStream@U?$UTF8@D@rapidjson@@@rapidjson@@V?$GenericDocument@U?$UTF8@D@rapidjson@@V?$MemoryPoolAllocator@VCrtAllocator@rapidjson@@@2@VCrtAllocator@2@@2@@?$GenericReader@U?$UTF8@D@rapidjson@@U12@VCrtAllocator@2@@rapidjson@@AEAA?AW4IterativeParsingState@01@W4201@W4Token@01@0AEAU?$GenericStringStream@U?$UTF8@D@rapidjson@@@1@AEAV?$GenericDocument@U?$UTF8@D@rapidjson@@V?$MemoryPoolAllocator@VCrtAllocator@rapidjson@@@2@VCrtAllocator@2@@1@@Z ; rapidjson::GenericReader<rapidjson::UTF8<char>,rapidjson::UTF8<char>,rapidjson::CrtAllocator>::Transit<0,rapidjson::GenericStringStream<rapidjson::UTF8<char> >,rapidjson::GenericDocument<rapidjson::UTF8<char>,rapidjson::MemoryPoolAllocator<rapidjson::CrtAllocator>,rapidjson::CrtAllocator> >
PUBLIC	??$HandleError@U?$GenericStringStream@U?$UTF8@D@rapidjson@@@rapidjson@@@?$GenericReader@U?$UTF8@D@rapidjson@@U12@VCrtAllocator@2@@rapidjson@@AEAAXW4IterativeParsingState@01@AEAU?$GenericStringStream@U?$UTF8@D@rapidjson@@@1@@Z ; rapidjson::GenericReader<rapidjson::UTF8<char>,rapidjson::UTF8<char>,rapidjson::CrtAllocator>::HandleError<rapidjson::GenericStringStream<rapidjson::UTF8<char> > >
PUBLIC	??$SkipWhitespace@U?$GenericStringStream@U?$UTF8@D@rapidjson@@@rapidjson@@@rapidjson@@YAXAEAU?$GenericStringStream@U?$UTF8@D@rapidjson@@@0@@Z ; rapidjson::SkipWhitespace<rapidjson::GenericStringStream<rapidjson::UTF8<char> > >
PUBLIC	??$Consume@U?$GenericStringStream@U?$UTF8@D@rapidjson@@@rapidjson@@@?$GenericReader@U?$UTF8@D@rapidjson@@U12@VCrtAllocator@2@@rapidjson@@CA_NAEAU?$GenericStringStream@U?$UTF8@D@rapidjson@@@1@D@Z ; rapidjson::GenericReader<rapidjson::UTF8<char>,rapidjson::UTF8<char>,rapidjson::CrtAllocator>::Consume<rapidjson::GenericStringStream<rapidjson::UTF8<char> > >
PUBLIC	??$ParseNull@$0A@U?$GenericStringStream@U?$UTF8@D@rapidjson@@@rapidjson@@V?$GenericDocument@U?$UTF8@D@rapidjson@@V?$MemoryPoolAllocator@VCrtAllocator@rapidjson@@@2@VCrtAllocator@2@@2@@?$GenericReader@U?$UTF8@D@rapidjson@@U12@VCrtAllocator@2@@rapidjson@@AEAAXAEAU?$GenericStringStream@U?$UTF8@D@rapidjson@@@1@AEAV?$GenericDocument@U?$UTF8@D@rapidjson@@V?$MemoryPoolAllocator@VCrtAllocator@rapidjson@@@2@VCrtAllocator@2@@1@@Z ; rapidjson::GenericReader<rapidjson::UTF8<char>,rapidjson::UTF8<char>,rapidjson::CrtAllocator>::ParseNull<0,rapidjson::GenericStringStream<rapidjson::UTF8<char> >,rapidjson::GenericDocument<rapidjson::UTF8<char>,rapidjson::MemoryPoolAllocator<rapidjson::CrtAllocator>,rapidjson::CrtAllocator> >
PUBLIC	??$ParseTrue@$0A@U?$GenericStringStream@U?$UTF8@D@rapidjson@@@rapidjson@@V?$GenericDocument@U?$UTF8@D@rapidjson@@V?$MemoryPoolAllocator@VCrtAllocator@rapidjson@@@2@VCrtAllocator@2@@2@@?$GenericReader@U?$UTF8@D@rapidjson@@U12@VCrtAllocator@2@@rapidjson@@AEAAXAEAU?$GenericStringStream@U?$UTF8@D@rapidjson@@@1@AEAV?$GenericDocument@U?$UTF8@D@rapidjson@@V?$MemoryPoolAllocator@VCrtAllocator@rapidjson@@@2@VCrtAllocator@2@@1@@Z ; rapidjson::GenericReader<rapidjson::UTF8<char>,rapidjson::UTF8<char>,rapidjson::CrtAllocator>::ParseTrue<0,rapidjson::GenericStringStream<rapidjson::UTF8<char> >,rapidjson::GenericDocument<rapidjson::UTF8<char>,rapidjson::MemoryPoolAllocator<rapidjson::CrtAllocator>,rapidjson::CrtAllocator> >
PUBLIC	??$ParseFalse@$0A@U?$GenericStringStream@U?$UTF8@D@rapidjson@@@rapidjson@@V?$GenericDocument@U?$UTF8@D@rapidjson@@V?$MemoryPoolAllocator@VCrtAllocator@rapidjson@@@2@VCrtAllocator@2@@2@@?$GenericReader@U?$UTF8@D@rapidjson@@U12@VCrtAllocator@2@@rapidjson@@AEAAXAEAU?$GenericStringStream@U?$UTF8@D@rapidjson@@@1@AEAV?$GenericDocument@U?$UTF8@D@rapidjson@@V?$MemoryPoolAllocator@VCrtAllocator@rapidjson@@@2@VCrtAllocator@2@@1@@Z ; rapidjson::GenericReader<rapidjson::UTF8<char>,rapidjson::UTF8<char>,rapidjson::CrtAllocator>::ParseFalse<0,rapidjson::GenericStringStream<rapidjson::UTF8<char> >,rapidjson::GenericDocument<rapidjson::UTF8<char>,rapidjson::MemoryPoolAllocator<rapidjson::CrtAllocator>,rapidjson::CrtAllocator> >
PUBLIC	??$ParseString@$0A@U?$GenericStringStream@U?$UTF8@D@rapidjson@@@rapidjson@@V?$GenericDocument@U?$UTF8@D@rapidjson@@V?$MemoryPoolAllocator@VCrtAllocator@rapidjson@@@2@VCrtAllocator@2@@2@@?$GenericReader@U?$UTF8@D@rapidjson@@U12@VCrtAllocator@2@@rapidjson@@AEAAXAEAU?$GenericStringStream@U?$UTF8@D@rapidjson@@@1@AEAV?$GenericDocument@U?$UTF8@D@rapidjson@@V?$MemoryPoolAllocator@VCrtAllocator@rapidjson@@@2@VCrtAllocator@2@@1@_N@Z ; rapidjson::GenericReader<rapidjson::UTF8<char>,rapidjson::UTF8<char>,rapidjson::CrtAllocator>::ParseString<0,rapidjson::GenericStringStream<rapidjson::UTF8<char> >,rapidjson::GenericDocument<rapidjson::UTF8<char>,rapidjson::MemoryPoolAllocator<rapidjson::CrtAllocator>,rapidjson::CrtAllocator> >
PUBLIC	??$ParseObject@$0A@U?$GenericStringStream@U?$UTF8@D@rapidjson@@@rapidjson@@V?$GenericDocument@U?$UTF8@D@rapidjson@@V?$MemoryPoolAllocator@VCrtAllocator@rapidjson@@@2@VCrtAllocator@2@@2@@?$GenericReader@U?$UTF8@D@rapidjson@@U12@VCrtAllocator@2@@rapidjson@@AEAAXAEAU?$GenericStringStream@U?$UTF8@D@rapidjson@@@1@AEAV?$GenericDocument@U?$UTF8@D@rapidjson@@V?$MemoryPoolAllocator@VCrtAllocator@rapidjson@@@2@VCrtAllocator@2@@1@@Z ; rapidjson::GenericReader<rapidjson::UTF8<char>,rapidjson::UTF8<char>,rapidjson::CrtAllocator>::ParseObject<0,rapidjson::GenericStringStream<rapidjson::UTF8<char> >,rapidjson::GenericDocument<rapidjson::UTF8<char>,rapidjson::MemoryPoolAllocator<rapidjson::CrtAllocator>,rapidjson::CrtAllocator> >
PUBLIC	??$ParseArray@$0A@U?$GenericStringStream@U?$UTF8@D@rapidjson@@@rapidjson@@V?$GenericDocument@U?$UTF8@D@rapidjson@@V?$MemoryPoolAllocator@VCrtAllocator@rapidjson@@@2@VCrtAllocator@2@@2@@?$GenericReader@U?$UTF8@D@rapidjson@@U12@VCrtAllocator@2@@rapidjson@@AEAAXAEAU?$GenericStringStream@U?$UTF8@D@rapidjson@@@1@AEAV?$GenericDocument@U?$UTF8@D@rapidjson@@V?$MemoryPoolAllocator@VCrtAllocator@rapidjson@@@2@VCrtAllocator@2@@1@@Z ; rapidjson::GenericReader<rapidjson::UTF8<char>,rapidjson::UTF8<char>,rapidjson::CrtAllocator>::ParseArray<0,rapidjson::GenericStringStream<rapidjson::UTF8<char> >,rapidjson::GenericDocument<rapidjson::UTF8<char>,rapidjson::MemoryPoolAllocator<rapidjson::CrtAllocator>,rapidjson::CrtAllocator> >
PUBLIC	??$ParseNumber@$0A@U?$GenericStringStream@U?$UTF8@D@rapidjson@@@rapidjson@@V?$GenericDocument@U?$UTF8@D@rapidjson@@V?$MemoryPoolAllocator@VCrtAllocator@rapidjson@@@2@VCrtAllocator@2@@2@@?$GenericReader@U?$UTF8@D@rapidjson@@U12@VCrtAllocator@2@@rapidjson@@AEAAXAEAU?$GenericStringStream@U?$UTF8@D@rapidjson@@@1@AEAV?$GenericDocument@U?$UTF8@D@rapidjson@@V?$MemoryPoolAllocator@VCrtAllocator@rapidjson@@@2@VCrtAllocator@2@@1@@Z ; rapidjson::GenericReader<rapidjson::UTF8<char>,rapidjson::UTF8<char>,rapidjson::CrtAllocator>::ParseNumber<0,rapidjson::GenericStringStream<rapidjson::UTF8<char> >,rapidjson::GenericDocument<rapidjson::UTF8<char>,rapidjson::MemoryPoolAllocator<rapidjson::CrtAllocator>,rapidjson::CrtAllocator> >
PUBLIC	??$addressof@PEAUJsonReaderStackItem@@@std@@YAPEAPEAUJsonReaderStackItem@@AEAPEAU1@@Z ; std::addressof<JsonReaderStackItem *>
PUBLIC	??$Push@I@?$Stack@VCrtAllocator@rapidjson@@@internal@rapidjson@@QEAAPEAI_K@Z ; rapidjson::internal::Stack<rapidjson::CrtAllocator>::Push<unsigned int>
PUBLIC	??$Top@I@?$Stack@VCrtAllocator@rapidjson@@@internal@rapidjson@@QEAAPEAIXZ ; rapidjson::internal::Stack<rapidjson::CrtAllocator>::Top<unsigned int>
PUBLIC	??$Pop@I@?$Stack@VCrtAllocator@rapidjson@@@internal@rapidjson@@QEAAPEAI_K@Z ; rapidjson::internal::Stack<rapidjson::CrtAllocator>::Pop<unsigned int>
PUBLIC	??0?$StreamLocalCopy@V?$EncodedInputStream@U?$UTF8@D@rapidjson@@UMemoryStream@2@@rapidjson@@$0A@@internal@rapidjson@@QEAA@AEAV?$EncodedInputStream@U?$UTF8@D@rapidjson@@UMemoryStream@2@@2@@Z ; rapidjson::internal::StreamLocalCopy<rapidjson::EncodedInputStream<rapidjson::UTF8<char>,rapidjson::MemoryStream>,0>::StreamLocalCopy<rapidjson::EncodedInputStream<rapidjson::UTF8<char>,rapidjson::MemoryStream>,0>
PUBLIC	??$ParseStringToStream@$0A@U?$UTF8@D@rapidjson@@U12@V?$EncodedInputStream@U?$UTF8@D@rapidjson@@UMemoryStream@2@@2@V32@@?$GenericReader@U?$UTF8@D@rapidjson@@U12@VCrtAllocator@2@@rapidjson@@AEAAXAEAV?$EncodedInputStream@U?$UTF8@D@rapidjson@@UMemoryStream@2@@1@0@Z ; rapidjson::GenericReader<rapidjson::UTF8<char>,rapidjson::UTF8<char>,rapidjson::CrtAllocator>::ParseStringToStream<0,rapidjson::UTF8<char>,rapidjson::UTF8<char>,rapidjson::EncodedInputStream<rapidjson::UTF8<char>,rapidjson::MemoryStream>,rapidjson::EncodedInputStream<rapidjson::UTF8<char>,rapidjson::MemoryStream> >
PUBLIC	??0?$StackStream@D@?$GenericReader@U?$UTF8@D@rapidjson@@U12@VCrtAllocator@2@@rapidjson@@QEAA@AEAV?$Stack@VCrtAllocator@rapidjson@@@internal@2@@Z ; rapidjson::GenericReader<rapidjson::UTF8<char>,rapidjson::UTF8<char>,rapidjson::CrtAllocator>::StackStream<char>::StackStream<char>
PUBLIC	?Put@?$StackStream@D@?$GenericReader@U?$UTF8@D@rapidjson@@U12@VCrtAllocator@2@@rapidjson@@QEAAXD@Z ; rapidjson::GenericReader<rapidjson::UTF8<char>,rapidjson::UTF8<char>,rapidjson::CrtAllocator>::StackStream<char>::Put
PUBLIC	?Length@?$StackStream@D@?$GenericReader@U?$UTF8@D@rapidjson@@U12@VCrtAllocator@2@@rapidjson@@QEBA_KXZ ; rapidjson::GenericReader<rapidjson::UTF8<char>,rapidjson::UTF8<char>,rapidjson::CrtAllocator>::StackStream<char>::Length
PUBLIC	?Pop@?$StackStream@D@?$GenericReader@U?$UTF8@D@rapidjson@@U12@VCrtAllocator@2@@rapidjson@@QEAAPEADXZ ; rapidjson::GenericReader<rapidjson::UTF8<char>,rapidjson::UTF8<char>,rapidjson::CrtAllocator>::StackStream<char>::Pop
PUBLIC	??$ParseStringToStream@$0A@U?$UTF8@D@rapidjson@@U12@V?$EncodedInputStream@U?$UTF8@D@rapidjson@@UMemoryStream@2@@2@V?$StackStream@D@?$GenericReader@U?$UTF8@D@rapidjson@@U12@VCrtAllocator@2@@2@@?$GenericReader@U?$UTF8@D@rapidjson@@U12@VCrtAllocator@2@@rapidjson@@AEAAXAEAV?$EncodedInputStream@U?$UTF8@D@rapidjson@@UMemoryStream@2@@1@AEAV?$StackStream@D@01@@Z ; rapidjson::GenericReader<rapidjson::UTF8<char>,rapidjson::UTF8<char>,rapidjson::CrtAllocator>::ParseStringToStream<0,rapidjson::UTF8<char>,rapidjson::UTF8<char>,rapidjson::EncodedInputStream<rapidjson::UTF8<char>,rapidjson::MemoryStream>,rapidjson::GenericReader<rapidjson::UTF8<char>,rapidjson::UTF8<char>,rapidjson::CrtAllocator>::StackStream<char> >
PUBLIC	??0?$NumberStream@V?$EncodedInputStream@U?$UTF8@D@rapidjson@@UMemoryStream@2@@rapidjson@@$0A@$0A@@?$GenericReader@U?$UTF8@D@rapidjson@@U12@VCrtAllocator@2@@rapidjson@@QEAA@AEAV12@AEAV?$EncodedInputStream@U?$UTF8@D@rapidjson@@UMemoryStream@2@@2@@Z ; rapidjson::GenericReader<rapidjson::UTF8<char>,rapidjson::UTF8<char>,rapidjson::CrtAllocator>::NumberStream<rapidjson::EncodedInputStream<rapidjson::UTF8<char>,rapidjson::MemoryStream>,0,0>::NumberStream<rapidjson::EncodedInputStream<rapidjson::UTF8<char>,rapidjson::MemoryStream>,0,0>
PUBLIC	?Peek@?$NumberStream@V?$EncodedInputStream@U?$UTF8@D@rapidjson@@UMemoryStream@2@@rapidjson@@$0A@$0A@@?$GenericReader@U?$UTF8@D@rapidjson@@U12@VCrtAllocator@2@@rapidjson@@QEBADXZ ; rapidjson::GenericReader<rapidjson::UTF8<char>,rapidjson::UTF8<char>,rapidjson::CrtAllocator>::NumberStream<rapidjson::EncodedInputStream<rapidjson::UTF8<char>,rapidjson::MemoryStream>,0,0>::Peek
PUBLIC	?TakePush@?$NumberStream@V?$EncodedInputStream@U?$UTF8@D@rapidjson@@UMemoryStream@2@@rapidjson@@$0A@$0A@@?$GenericReader@U?$UTF8@D@rapidjson@@U12@VCrtAllocator@2@@rapidjson@@QEAADXZ ; rapidjson::GenericReader<rapidjson::UTF8<char>,rapidjson::UTF8<char>,rapidjson::CrtAllocator>::NumberStream<rapidjson::EncodedInputStream<rapidjson::UTF8<char>,rapidjson::MemoryStream>,0,0>::TakePush
PUBLIC	?Take@?$NumberStream@V?$EncodedInputStream@U?$UTF8@D@rapidjson@@UMemoryStream@2@@rapidjson@@$0A@$0A@@?$GenericReader@U?$UTF8@D@rapidjson@@U12@VCrtAllocator@2@@rapidjson@@QEAADXZ ; rapidjson::GenericReader<rapidjson::UTF8<char>,rapidjson::UTF8<char>,rapidjson::CrtAllocator>::NumberStream<rapidjson::EncodedInputStream<rapidjson::UTF8<char>,rapidjson::MemoryStream>,0,0>::Take
PUBLIC	?Tell@?$NumberStream@V?$EncodedInputStream@U?$UTF8@D@rapidjson@@UMemoryStream@2@@rapidjson@@$0A@$0A@@?$GenericReader@U?$UTF8@D@rapidjson@@U12@VCrtAllocator@2@@rapidjson@@QEAA_KXZ ; rapidjson::GenericReader<rapidjson::UTF8<char>,rapidjson::UTF8<char>,rapidjson::CrtAllocator>::NumberStream<rapidjson::EncodedInputStream<rapidjson::UTF8<char>,rapidjson::MemoryStream>,0,0>::Tell
PUBLIC	?Length@?$NumberStream@V?$EncodedInputStream@U?$UTF8@D@rapidjson@@UMemoryStream@2@@rapidjson@@$0A@$0A@@?$GenericReader@U?$UTF8@D@rapidjson@@U12@VCrtAllocator@2@@rapidjson@@QEAA_KXZ ; rapidjson::GenericReader<rapidjson::UTF8<char>,rapidjson::UTF8<char>,rapidjson::CrtAllocator>::NumberStream<rapidjson::EncodedInputStream<rapidjson::UTF8<char>,rapidjson::MemoryStream>,0,0>::Length
PUBLIC	?Pop@?$NumberStream@V?$EncodedInputStream@U?$UTF8@D@rapidjson@@UMemoryStream@2@@rapidjson@@$0A@$0A@@?$GenericReader@U?$UTF8@D@rapidjson@@U12@VCrtAllocator@2@@rapidjson@@QEAAPEBDXZ ; rapidjson::GenericReader<rapidjson::UTF8<char>,rapidjson::UTF8<char>,rapidjson::CrtAllocator>::NumberStream<rapidjson::EncodedInputStream<rapidjson::UTF8<char>,rapidjson::MemoryStream>,0,0>::Pop
PUBLIC	??$Consume@V?$NumberStream@V?$EncodedInputStream@U?$UTF8@D@rapidjson@@UMemoryStream@2@@rapidjson@@$0A@$0A@@?$GenericReader@U?$UTF8@D@rapidjson@@U12@VCrtAllocator@2@@rapidjson@@@?$GenericReader@U?$UTF8@D@rapidjson@@U12@VCrtAllocator@2@@rapidjson@@CA_NAEAV?$NumberStream@V?$EncodedInputStream@U?$UTF8@D@rapidjson@@UMemoryStream@2@@rapidjson@@$0A@$0A@@01@D@Z ; rapidjson::GenericReader<rapidjson::UTF8<char>,rapidjson::UTF8<char>,rapidjson::CrtAllocator>::Consume<rapidjson::GenericReader<rapidjson::UTF8<char>,rapidjson::UTF8<char>,rapidjson::CrtAllocator>::NumberStream<rapidjson::EncodedInputStream<rapidjson::UTF8<char>,rapidjson::MemoryStream>,0,0> >
PUBLIC	??$Transcode@U?$GenericStringStream@U?$UTF8@D@rapidjson@@@rapidjson@@V?$StackStream@D@?$GenericReader@U?$UTF8@D@rapidjson@@U12@VCrtAllocator@2@@2@@?$Transcoder@U?$UTF8@D@rapidjson@@U12@@rapidjson@@SA_NAEAU?$GenericStringStream@U?$UTF8@D@rapidjson@@@1@AEAV?$StackStream@D@?$GenericReader@U?$UTF8@D@rapidjson@@U12@VCrtAllocator@2@@1@@Z ; rapidjson::Transcoder<rapidjson::UTF8<char>,rapidjson::UTF8<char> >::Transcode<rapidjson::GenericStringStream<rapidjson::UTF8<char> >,rapidjson::GenericReader<rapidjson::UTF8<char>,rapidjson::UTF8<char>,rapidjson::CrtAllocator>::StackStream<char> >
PUBLIC	??0?$StreamLocalCopy@U?$GenericStringStream@U?$UTF8@D@rapidjson@@@rapidjson@@$00@internal@rapidjson@@QEAA@AEAU?$GenericStringStream@U?$UTF8@D@rapidjson@@@2@@Z ; rapidjson::internal::StreamLocalCopy<rapidjson::GenericStringStream<rapidjson::UTF8<char> >,1>::StreamLocalCopy<rapidjson::GenericStringStream<rapidjson::UTF8<char> >,1>
PUBLIC	??1?$StreamLocalCopy@U?$GenericStringStream@U?$UTF8@D@rapidjson@@@rapidjson@@$00@internal@rapidjson@@QEAA@XZ ; rapidjson::internal::StreamLocalCopy<rapidjson::GenericStringStream<rapidjson::UTF8<char> >,1>::~StreamLocalCopy<rapidjson::GenericStringStream<rapidjson::UTF8<char> >,1>
PUBLIC	??$ParseStringToStream@$0A@U?$UTF8@D@rapidjson@@U12@U?$GenericStringStream@U?$UTF8@D@rapidjson@@@2@U32@@?$GenericReader@U?$UTF8@D@rapidjson@@U12@VCrtAllocator@2@@rapidjson@@AEAAXAEAU?$GenericStringStream@U?$UTF8@D@rapidjson@@@1@0@Z ; rapidjson::GenericReader<rapidjson::UTF8<char>,rapidjson::UTF8<char>,rapidjson::CrtAllocator>::ParseStringToStream<0,rapidjson::UTF8<char>,rapidjson::UTF8<char>,rapidjson::GenericStringStream<rapidjson::UTF8<char> >,rapidjson::GenericStringStream<rapidjson::UTF8<char> > >
PUBLIC	??$ParseStringToStream@$0A@U?$UTF8@D@rapidjson@@U12@U?$GenericStringStream@U?$UTF8@D@rapidjson@@@2@V?$StackStream@D@?$GenericReader@U?$UTF8@D@rapidjson@@U12@VCrtAllocator@2@@2@@?$GenericReader@U?$UTF8@D@rapidjson@@U12@VCrtAllocator@2@@rapidjson@@AEAAXAEAU?$GenericStringStream@U?$UTF8@D@rapidjson@@@1@AEAV?$StackStream@D@01@@Z ; rapidjson::GenericReader<rapidjson::UTF8<char>,rapidjson::UTF8<char>,rapidjson::CrtAllocator>::ParseStringToStream<0,rapidjson::UTF8<char>,rapidjson::UTF8<char>,rapidjson::GenericStringStream<rapidjson::UTF8<char> >,rapidjson::GenericReader<rapidjson::UTF8<char>,rapidjson::UTF8<char>,rapidjson::CrtAllocator>::StackStream<char> >
PUBLIC	??0?$NumberStream@U?$GenericStringStream@U?$UTF8@D@rapidjson@@@rapidjson@@$0A@$0A@@?$GenericReader@U?$UTF8@D@rapidjson@@U12@VCrtAllocator@2@@rapidjson@@QEAA@AEAV12@AEAU?$GenericStringStream@U?$UTF8@D@rapidjson@@@2@@Z ; rapidjson::GenericReader<rapidjson::UTF8<char>,rapidjson::UTF8<char>,rapidjson::CrtAllocator>::NumberStream<rapidjson::GenericStringStream<rapidjson::UTF8<char> >,0,0>::NumberStream<rapidjson::GenericStringStream<rapidjson::UTF8<char> >,0,0>
PUBLIC	?Peek@?$NumberStream@U?$GenericStringStream@U?$UTF8@D@rapidjson@@@rapidjson@@$0A@$0A@@?$GenericReader@U?$UTF8@D@rapidjson@@U12@VCrtAllocator@2@@rapidjson@@QEBADXZ ; rapidjson::GenericReader<rapidjson::UTF8<char>,rapidjson::UTF8<char>,rapidjson::CrtAllocator>::NumberStream<rapidjson::GenericStringStream<rapidjson::UTF8<char> >,0,0>::Peek
PUBLIC	?TakePush@?$NumberStream@U?$GenericStringStream@U?$UTF8@D@rapidjson@@@rapidjson@@$0A@$0A@@?$GenericReader@U?$UTF8@D@rapidjson@@U12@VCrtAllocator@2@@rapidjson@@QEAADXZ ; rapidjson::GenericReader<rapidjson::UTF8<char>,rapidjson::UTF8<char>,rapidjson::CrtAllocator>::NumberStream<rapidjson::GenericStringStream<rapidjson::UTF8<char> >,0,0>::TakePush
PUBLIC	?Take@?$NumberStream@U?$GenericStringStream@U?$UTF8@D@rapidjson@@@rapidjson@@$0A@$0A@@?$GenericReader@U?$UTF8@D@rapidjson@@U12@VCrtAllocator@2@@rapidjson@@QEAADXZ ; rapidjson::GenericReader<rapidjson::UTF8<char>,rapidjson::UTF8<char>,rapidjson::CrtAllocator>::NumberStream<rapidjson::GenericStringStream<rapidjson::UTF8<char> >,0,0>::Take
PUBLIC	?Tell@?$NumberStream@U?$GenericStringStream@U?$UTF8@D@rapidjson@@@rapidjson@@$0A@$0A@@?$GenericReader@U?$UTF8@D@rapidjson@@U12@VCrtAllocator@2@@rapidjson@@QEAA_KXZ ; rapidjson::GenericReader<rapidjson::UTF8<char>,rapidjson::UTF8<char>,rapidjson::CrtAllocator>::NumberStream<rapidjson::GenericStringStream<rapidjson::UTF8<char> >,0,0>::Tell
PUBLIC	?Length@?$NumberStream@U?$GenericStringStream@U?$UTF8@D@rapidjson@@@rapidjson@@$0A@$0A@@?$GenericReader@U?$UTF8@D@rapidjson@@U12@VCrtAllocator@2@@rapidjson@@QEAA_KXZ ; rapidjson::GenericReader<rapidjson::UTF8<char>,rapidjson::UTF8<char>,rapidjson::CrtAllocator>::NumberStream<rapidjson::GenericStringStream<rapidjson::UTF8<char> >,0,0>::Length
PUBLIC	?Pop@?$NumberStream@U?$GenericStringStream@U?$UTF8@D@rapidjson@@@rapidjson@@$0A@$0A@@?$GenericReader@U?$UTF8@D@rapidjson@@U12@VCrtAllocator@2@@rapidjson@@QEAAPEBDXZ ; rapidjson::GenericReader<rapidjson::UTF8<char>,rapidjson::UTF8<char>,rapidjson::CrtAllocator>::NumberStream<rapidjson::GenericStringStream<rapidjson::UTF8<char> >,0,0>::Pop
PUBLIC	??$Consume@V?$NumberStream@U?$GenericStringStream@U?$UTF8@D@rapidjson@@@rapidjson@@$0A@$0A@@?$GenericReader@U?$UTF8@D@rapidjson@@U12@VCrtAllocator@2@@rapidjson@@@?$GenericReader@U?$UTF8@D@rapidjson@@U12@VCrtAllocator@2@@rapidjson@@CA_NAEAV?$NumberStream@U?$GenericStringStream@U?$UTF8@D@rapidjson@@@rapidjson@@$0A@$0A@@01@D@Z ; rapidjson::GenericReader<rapidjson::UTF8<char>,rapidjson::UTF8<char>,rapidjson::CrtAllocator>::Consume<rapidjson::GenericReader<rapidjson::UTF8<char>,rapidjson::UTF8<char>,rapidjson::CrtAllocator>::NumberStream<rapidjson::GenericStringStream<rapidjson::UTF8<char> >,0,0> >
PUBLIC	??$Top@V?$GenericValue@U?$UTF8@D@rapidjson@@V?$MemoryPoolAllocator@VCrtAllocator@rapidjson@@@2@@rapidjson@@@?$Stack@VCrtAllocator@rapidjson@@@internal@rapidjson@@QEAAPEAV?$GenericValue@U?$UTF8@D@rapidjson@@V?$MemoryPoolAllocator@VCrtAllocator@rapidjson@@@2@@2@XZ ; rapidjson::internal::Stack<rapidjson::CrtAllocator>::Top<rapidjson::GenericValue<rapidjson::UTF8<char>,rapidjson::MemoryPoolAllocator<rapidjson::CrtAllocator> > >
PUBLIC	??$Push@V?$GenericValue@U?$UTF8@D@rapidjson@@V?$MemoryPoolAllocator@VCrtAllocator@rapidjson@@@2@@rapidjson@@@?$Stack@VCrtAllocator@rapidjson@@@internal@rapidjson@@QEAAPEAV?$GenericValue@U?$UTF8@D@rapidjson@@V?$MemoryPoolAllocator@VCrtAllocator@rapidjson@@@2@@2@_K@Z ; rapidjson::internal::Stack<rapidjson::CrtAllocator>::Push<rapidjson::GenericValue<rapidjson::UTF8<char>,rapidjson::MemoryPoolAllocator<rapidjson::CrtAllocator> > >
PUBLIC	??$Pop@U?$GenericMember@U?$UTF8@D@rapidjson@@V?$MemoryPoolAllocator@VCrtAllocator@rapidjson@@@2@@rapidjson@@@?$Stack@VCrtAllocator@rapidjson@@@internal@rapidjson@@QEAAPEAU?$GenericMember@U?$UTF8@D@rapidjson@@V?$MemoryPoolAllocator@VCrtAllocator@rapidjson@@@2@@2@_K@Z ; rapidjson::internal::Stack<rapidjson::CrtAllocator>::Pop<rapidjson::GenericMember<rapidjson::UTF8<char>,rapidjson::MemoryPoolAllocator<rapidjson::CrtAllocator> > >
PUBLIC	??$?0_N@?$GenericValue@U?$UTF8@D@rapidjson@@V?$MemoryPoolAllocator@VCrtAllocator@rapidjson@@@2@@rapidjson@@QEAA@_NPEAX@Z ; rapidjson::GenericValue<rapidjson::UTF8<char>,rapidjson::MemoryPoolAllocator<rapidjson::CrtAllocator> >::GenericValue<rapidjson::UTF8<char>,rapidjson::MemoryPoolAllocator<rapidjson::CrtAllocator> ><bool>
PUBLIC	??$StringRef@D@rapidjson@@YA?AU?$GenericStringRef@D@0@PEBD_K@Z ; rapidjson::StringRef<char>
PUBLIC	??$Reserve@I@?$Stack@VCrtAllocator@rapidjson@@@internal@rapidjson@@QEAAX_K@Z ; rapidjson::internal::Stack<rapidjson::CrtAllocator>::Reserve<unsigned int>
PUBLIC	??$PushUnsafe@I@?$Stack@VCrtAllocator@rapidjson@@@internal@rapidjson@@QEAAPEAI_K@Z ; rapidjson::internal::Stack<rapidjson::CrtAllocator>::PushUnsafe<unsigned int>
PUBLIC	??$ScanCopyUnescapedString@V?$EncodedInputStream@U?$UTF8@D@rapidjson@@UMemoryStream@2@@rapidjson@@V12@@?$GenericReader@U?$UTF8@D@rapidjson@@U12@VCrtAllocator@2@@rapidjson@@CAXAEAV?$EncodedInputStream@U?$UTF8@D@rapidjson@@UMemoryStream@2@@1@0@Z ; rapidjson::GenericReader<rapidjson::UTF8<char>,rapidjson::UTF8<char>,rapidjson::CrtAllocator>::ScanCopyUnescapedString<rapidjson::EncodedInputStream<rapidjson::UTF8<char>,rapidjson::MemoryStream>,rapidjson::EncodedInputStream<rapidjson::UTF8<char>,rapidjson::MemoryStream> >
PUBLIC	??$ParseHex4@V?$EncodedInputStream@U?$UTF8@D@rapidjson@@UMemoryStream@2@@rapidjson@@@?$GenericReader@U?$UTF8@D@rapidjson@@U12@VCrtAllocator@2@@rapidjson@@AEAAIAEAV?$EncodedInputStream@U?$UTF8@D@rapidjson@@UMemoryStream@2@@1@_K@Z ; rapidjson::GenericReader<rapidjson::UTF8<char>,rapidjson::UTF8<char>,rapidjson::CrtAllocator>::ParseHex4<rapidjson::EncodedInputStream<rapidjson::UTF8<char>,rapidjson::MemoryStream> >
PUBLIC	??$Encode@V?$EncodedInputStream@U?$UTF8@D@rapidjson@@UMemoryStream@2@@rapidjson@@@?$UTF8@D@rapidjson@@SAXAEAV?$EncodedInputStream@U?$UTF8@D@rapidjson@@UMemoryStream@2@@1@I@Z ; rapidjson::UTF8<char>::Encode<rapidjson::EncodedInputStream<rapidjson::UTF8<char>,rapidjson::MemoryStream> >
PUBLIC	??$Validate@V?$EncodedInputStream@U?$UTF8@D@rapidjson@@UMemoryStream@2@@rapidjson@@V12@@?$Transcoder@U?$UTF8@D@rapidjson@@U12@@rapidjson@@SA_NAEAV?$EncodedInputStream@U?$UTF8@D@rapidjson@@UMemoryStream@2@@1@0@Z ; rapidjson::Transcoder<rapidjson::UTF8<char>,rapidjson::UTF8<char> >::Validate<rapidjson::EncodedInputStream<rapidjson::UTF8<char>,rapidjson::MemoryStream>,rapidjson::EncodedInputStream<rapidjson::UTF8<char>,rapidjson::MemoryStream> >
PUBLIC	??$Transcode@V?$EncodedInputStream@U?$UTF8@D@rapidjson@@UMemoryStream@2@@rapidjson@@V12@@?$Transcoder@U?$UTF8@D@rapidjson@@U12@@rapidjson@@SA_NAEAV?$EncodedInputStream@U?$UTF8@D@rapidjson@@UMemoryStream@2@@1@0@Z ; rapidjson::Transcoder<rapidjson::UTF8<char>,rapidjson::UTF8<char> >::Transcode<rapidjson::EncodedInputStream<rapidjson::UTF8<char>,rapidjson::MemoryStream>,rapidjson::EncodedInputStream<rapidjson::UTF8<char>,rapidjson::MemoryStream> >
PUBLIC	??$ScanCopyUnescapedString@V?$EncodedInputStream@U?$UTF8@D@rapidjson@@UMemoryStream@2@@rapidjson@@V?$StackStream@D@?$GenericReader@U?$UTF8@D@rapidjson@@U12@VCrtAllocator@2@@2@@?$GenericReader@U?$UTF8@D@rapidjson@@U12@VCrtAllocator@2@@rapidjson@@CAXAEAV?$EncodedInputStream@U?$UTF8@D@rapidjson@@UMemoryStream@2@@1@AEAV?$StackStream@D@01@@Z ; rapidjson::GenericReader<rapidjson::UTF8<char>,rapidjson::UTF8<char>,rapidjson::CrtAllocator>::ScanCopyUnescapedString<rapidjson::EncodedInputStream<rapidjson::UTF8<char>,rapidjson::MemoryStream>,rapidjson::GenericReader<rapidjson::UTF8<char>,rapidjson::UTF8<char>,rapidjson::CrtAllocator>::StackStream<char> >
PUBLIC	??$Encode@V?$StackStream@D@?$GenericReader@U?$UTF8@D@rapidjson@@U12@VCrtAllocator@2@@rapidjson@@@?$UTF8@D@rapidjson@@SAXAEAV?$StackStream@D@?$GenericReader@U?$UTF8@D@rapidjson@@U12@VCrtAllocator@2@@1@I@Z ; rapidjson::UTF8<char>::Encode<rapidjson::GenericReader<rapidjson::UTF8<char>,rapidjson::UTF8<char>,rapidjson::CrtAllocator>::StackStream<char> >
PUBLIC	??$Validate@V?$EncodedInputStream@U?$UTF8@D@rapidjson@@UMemoryStream@2@@rapidjson@@V?$StackStream@D@?$GenericReader@U?$UTF8@D@rapidjson@@U12@VCrtAllocator@2@@2@@?$Transcoder@U?$UTF8@D@rapidjson@@U12@@rapidjson@@SA_NAEAV?$EncodedInputStream@U?$UTF8@D@rapidjson@@UMemoryStream@2@@1@AEAV?$StackStream@D@?$GenericReader@U?$UTF8@D@rapidjson@@U12@VCrtAllocator@2@@1@@Z ; rapidjson::Transcoder<rapidjson::UTF8<char>,rapidjson::UTF8<char> >::Validate<rapidjson::EncodedInputStream<rapidjson::UTF8<char>,rapidjson::MemoryStream>,rapidjson::GenericReader<rapidjson::UTF8<char>,rapidjson::UTF8<char>,rapidjson::CrtAllocator>::StackStream<char> >
PUBLIC	??$Transcode@V?$EncodedInputStream@U?$UTF8@D@rapidjson@@UMemoryStream@2@@rapidjson@@V?$StackStream@D@?$GenericReader@U?$UTF8@D@rapidjson@@U12@VCrtAllocator@2@@2@@?$Transcoder@U?$UTF8@D@rapidjson@@U12@@rapidjson@@SA_NAEAV?$EncodedInputStream@U?$UTF8@D@rapidjson@@UMemoryStream@2@@1@AEAV?$StackStream@D@?$GenericReader@U?$UTF8@D@rapidjson@@U12@VCrtAllocator@2@@1@@Z ; rapidjson::Transcoder<rapidjson::UTF8<char>,rapidjson::UTF8<char> >::Transcode<rapidjson::EncodedInputStream<rapidjson::UTF8<char>,rapidjson::MemoryStream>,rapidjson::GenericReader<rapidjson::UTF8<char>,rapidjson::UTF8<char>,rapidjson::CrtAllocator>::StackStream<char> >
PUBLIC	??$ScanCopyUnescapedString@U?$GenericStringStream@U?$UTF8@D@rapidjson@@@rapidjson@@U12@@?$GenericReader@U?$UTF8@D@rapidjson@@U12@VCrtAllocator@2@@rapidjson@@CAXAEAU?$GenericStringStream@U?$UTF8@D@rapidjson@@@1@0@Z ; rapidjson::GenericReader<rapidjson::UTF8<char>,rapidjson::UTF8<char>,rapidjson::CrtAllocator>::ScanCopyUnescapedString<rapidjson::GenericStringStream<rapidjson::UTF8<char> >,rapidjson::GenericStringStream<rapidjson::UTF8<char> > >
PUBLIC	??$ParseHex4@U?$GenericStringStream@U?$UTF8@D@rapidjson@@@rapidjson@@@?$GenericReader@U?$UTF8@D@rapidjson@@U12@VCrtAllocator@2@@rapidjson@@AEAAIAEAU?$GenericStringStream@U?$UTF8@D@rapidjson@@@1@_K@Z ; rapidjson::GenericReader<rapidjson::UTF8<char>,rapidjson::UTF8<char>,rapidjson::CrtAllocator>::ParseHex4<rapidjson::GenericStringStream<rapidjson::UTF8<char> > >
PUBLIC	??$Encode@U?$GenericStringStream@U?$UTF8@D@rapidjson@@@rapidjson@@@?$UTF8@D@rapidjson@@SAXAEAU?$GenericStringStream@U?$UTF8@D@rapidjson@@@1@I@Z ; rapidjson::UTF8<char>::Encode<rapidjson::GenericStringStream<rapidjson::UTF8<char> > >
PUBLIC	??$Validate@U?$GenericStringStream@U?$UTF8@D@rapidjson@@@rapidjson@@U12@@?$Transcoder@U?$UTF8@D@rapidjson@@U12@@rapidjson@@SA_NAEAU?$GenericStringStream@U?$UTF8@D@rapidjson@@@1@0@Z ; rapidjson::Transcoder<rapidjson::UTF8<char>,rapidjson::UTF8<char> >::Validate<rapidjson::GenericStringStream<rapidjson::UTF8<char> >,rapidjson::GenericStringStream<rapidjson::UTF8<char> > >
PUBLIC	??$Transcode@U?$GenericStringStream@U?$UTF8@D@rapidjson@@@rapidjson@@U12@@?$Transcoder@U?$UTF8@D@rapidjson@@U12@@rapidjson@@SA_NAEAU?$GenericStringStream@U?$UTF8@D@rapidjson@@@1@0@Z ; rapidjson::Transcoder<rapidjson::UTF8<char>,rapidjson::UTF8<char> >::Transcode<rapidjson::GenericStringStream<rapidjson::UTF8<char> >,rapidjson::GenericStringStream<rapidjson::UTF8<char> > >
PUBLIC	??$ScanCopyUnescapedString@U?$GenericStringStream@U?$UTF8@D@rapidjson@@@rapidjson@@V?$StackStream@D@?$GenericReader@U?$UTF8@D@rapidjson@@U12@VCrtAllocator@2@@2@@?$GenericReader@U?$UTF8@D@rapidjson@@U12@VCrtAllocator@2@@rapidjson@@CAXAEAU?$GenericStringStream@U?$UTF8@D@rapidjson@@@1@AEAV?$StackStream@D@01@@Z ; rapidjson::GenericReader<rapidjson::UTF8<char>,rapidjson::UTF8<char>,rapidjson::CrtAllocator>::ScanCopyUnescapedString<rapidjson::GenericStringStream<rapidjson::UTF8<char> >,rapidjson::GenericReader<rapidjson::UTF8<char>,rapidjson::UTF8<char>,rapidjson::CrtAllocator>::StackStream<char> >
PUBLIC	??$Validate@U?$GenericStringStream@U?$UTF8@D@rapidjson@@@rapidjson@@V?$StackStream@D@?$GenericReader@U?$UTF8@D@rapidjson@@U12@VCrtAllocator@2@@2@@?$Transcoder@U?$UTF8@D@rapidjson@@U12@@rapidjson@@SA_NAEAU?$GenericStringStream@U?$UTF8@D@rapidjson@@@1@AEAV?$StackStream@D@?$GenericReader@U?$UTF8@D@rapidjson@@U12@VCrtAllocator@2@@1@@Z ; rapidjson::Transcoder<rapidjson::UTF8<char>,rapidjson::UTF8<char> >::Validate<rapidjson::GenericStringStream<rapidjson::UTF8<char> >,rapidjson::GenericReader<rapidjson::UTF8<char>,rapidjson::UTF8<char>,rapidjson::CrtAllocator>::StackStream<char> >
PUBLIC	??$Reserve@V?$GenericValue@U?$UTF8@D@rapidjson@@V?$MemoryPoolAllocator@VCrtAllocator@rapidjson@@@2@@rapidjson@@@?$Stack@VCrtAllocator@rapidjson@@@internal@rapidjson@@QEAAX_K@Z ; rapidjson::internal::Stack<rapidjson::CrtAllocator>::Reserve<rapidjson::GenericValue<rapidjson::UTF8<char>,rapidjson::MemoryPoolAllocator<rapidjson::CrtAllocator> > >
PUBLIC	??$PushUnsafe@V?$GenericValue@U?$UTF8@D@rapidjson@@V?$MemoryPoolAllocator@VCrtAllocator@rapidjson@@@2@@rapidjson@@@?$Stack@VCrtAllocator@rapidjson@@@internal@rapidjson@@QEAAPEAV?$GenericValue@U?$UTF8@D@rapidjson@@V?$MemoryPoolAllocator@VCrtAllocator@rapidjson@@@2@@2@_K@Z ; rapidjson::internal::Stack<rapidjson::CrtAllocator>::PushUnsafe<rapidjson::GenericValue<rapidjson::UTF8<char>,rapidjson::MemoryPoolAllocator<rapidjson::CrtAllocator> > >
PUBLIC	??$Expand@I@?$Stack@VCrtAllocator@rapidjson@@@internal@rapidjson@@AEAAX_K@Z ; rapidjson::internal::Stack<rapidjson::CrtAllocator>::Expand<unsigned int>
PUBLIC	??$Validate@V?$EncodedInputStream@U?$UTF8@D@rapidjson@@UMemoryStream@2@@rapidjson@@V12@@?$UTF8@D@rapidjson@@SA_NAEAV?$EncodedInputStream@U?$UTF8@D@rapidjson@@UMemoryStream@2@@1@0@Z ; rapidjson::UTF8<char>::Validate<rapidjson::EncodedInputStream<rapidjson::UTF8<char>,rapidjson::MemoryStream>,rapidjson::EncodedInputStream<rapidjson::UTF8<char>,rapidjson::MemoryStream> >
PUBLIC	??$Validate@V?$EncodedInputStream@U?$UTF8@D@rapidjson@@UMemoryStream@2@@rapidjson@@V?$StackStream@D@?$GenericReader@U?$UTF8@D@rapidjson@@U12@VCrtAllocator@2@@2@@?$UTF8@D@rapidjson@@SA_NAEAV?$EncodedInputStream@U?$UTF8@D@rapidjson@@UMemoryStream@2@@1@AEAV?$StackStream@D@?$GenericReader@U?$UTF8@D@rapidjson@@U12@VCrtAllocator@2@@1@@Z ; rapidjson::UTF8<char>::Validate<rapidjson::EncodedInputStream<rapidjson::UTF8<char>,rapidjson::MemoryStream>,rapidjson::GenericReader<rapidjson::UTF8<char>,rapidjson::UTF8<char>,rapidjson::CrtAllocator>::StackStream<char> >
PUBLIC	??$Validate@U?$GenericStringStream@U?$UTF8@D@rapidjson@@@rapidjson@@U12@@?$UTF8@D@rapidjson@@SA_NAEAU?$GenericStringStream@U?$UTF8@D@rapidjson@@@1@0@Z ; rapidjson::UTF8<char>::Validate<rapidjson::GenericStringStream<rapidjson::UTF8<char> >,rapidjson::GenericStringStream<rapidjson::UTF8<char> > >
PUBLIC	??$Validate@U?$GenericStringStream@U?$UTF8@D@rapidjson@@@rapidjson@@V?$StackStream@D@?$GenericReader@U?$UTF8@D@rapidjson@@U12@VCrtAllocator@2@@2@@?$UTF8@D@rapidjson@@SA_NAEAU?$GenericStringStream@U?$UTF8@D@rapidjson@@@1@AEAV?$StackStream@D@?$GenericReader@U?$UTF8@D@rapidjson@@U12@VCrtAllocator@2@@1@@Z ; rapidjson::UTF8<char>::Validate<rapidjson::GenericStringStream<rapidjson::UTF8<char> >,rapidjson::GenericReader<rapidjson::UTF8<char>,rapidjson::UTF8<char>,rapidjson::CrtAllocator>::StackStream<char> >
PUBLIC	??$Expand@V?$GenericValue@U?$UTF8@D@rapidjson@@V?$MemoryPoolAllocator@VCrtAllocator@rapidjson@@@2@@rapidjson@@@?$Stack@VCrtAllocator@rapidjson@@@internal@rapidjson@@AEAAX_K@Z ; rapidjson::internal::Stack<rapidjson::CrtAllocator>::Expand<rapidjson::GenericValue<rapidjson::UTF8<char>,rapidjson::MemoryPoolAllocator<rapidjson::CrtAllocator> > >
PUBLIC	??_7exception@std@@6B@				; std::exception::`vftable'
PUBLIC	??_C@_0BC@EOODALEL@Unknown?5exception@		; `string'
PUBLIC	??_7bad_alloc@std@@6B@				; std::bad_alloc::`vftable'
PUBLIC	??_7bad_array_new_length@std@@6B@		; std::bad_array_new_length::`vftable'
PUBLIC	??_C@_0BF@KINCDENJ@bad?5array?5new?5length@	; `string'
PUBLIC	??_R0?AVexception@std@@@8			; std::exception `RTTI Type Descriptor'
PUBLIC	_CT??_R0?AVexception@std@@@8??0exception@std@@QEAA@AEBV01@@Z24
PUBLIC	_TI3?AVbad_array_new_length@std@@
PUBLIC	_CTA3?AVbad_array_new_length@std@@
PUBLIC	??_R0?AVbad_array_new_length@std@@@8		; std::bad_array_new_length `RTTI Type Descriptor'
PUBLIC	_CT??_R0?AVbad_array_new_length@std@@@8??0bad_array_new_length@std@@QEAA@AEBV01@@Z24
PUBLIC	??_R0?AVbad_alloc@std@@@8			; std::bad_alloc `RTTI Type Descriptor'
PUBLIC	_CT??_R0?AVbad_alloc@std@@@8??0bad_alloc@std@@QEAA@AEBV01@@Z24
PUBLIC	??_C@_0BA@JFNIOLAK@string?5too?5long@		; `string'
PUBLIC	?kPow5@?1??MultiplyPow5@BigInteger@internal@rapidjson@@QEAAAEAV234@I@Z@4QBIB ; `rapidjson::internal::BigInteger::MultiplyPow5'::`2'::kPow5
PUBLIC	?kCachedPowers_F@?1??GetCachedPowerByIndex@internal@rapidjson@@YA?AUDiyFp@23@_K@Z@4QB_KB ; `rapidjson::internal::GetCachedPowerByIndex'::`2'::kCachedPowers_F
PUBLIC	?kCachedPowers_E@?1??GetCachedPowerByIndex@internal@rapidjson@@YA?AUDiyFp@23@_K@Z@4QBFB ; `rapidjson::internal::GetCachedPowerByIndex'::`2'::kCachedPowers_E
PUBLIC	?e@?1??Pow10@internal@rapidjson@@YANH@Z@4QBNB	; `rapidjson::internal::Pow10'::`2'::e
PUBLIC	?kPow10@?L@??StrtodDiyFp@internal@rapidjson@@YA_NPEBDHHPEAN@Z@4QBUDiyFp@23@B ; `rapidjson::internal::StrtodDiyFp'::`11'::kPow10
PUBLIC	?$TSS0@?L@??StrtodDiyFp@internal@rapidjson@@YA_NPEBDHHPEAN@Z@4HA ; `rapidjson::internal::StrtodDiyFp'::`11'::$TSS0
PUBLIC	?cDigitsLut@?1??GetDigitsLut@internal@rapidjson@@YAPEBDXZ@4QBDB ; `rapidjson::internal::GetDigitsLut'::`2'::cDigitsLut
PUBLIC	?kPow10@?1??DigitGen@internal@rapidjson@@YAXAEBUDiyFp@23@0_KPEADPEAH3@Z@4QBIB ; `rapidjson::internal::DigitGen'::`2'::kPow10
PUBLIC	?id@?$num_put@DV?$ostreambuf_iterator@DU?$char_traits@D@std@@@std@@@std@@2V0locale@2@A ; std::num_put<char,std::ostreambuf_iterator<char,std::char_traits<char> > >::id
PUBLIC	?id@?$codecvt@DDU_Mbstatet@@@std@@2V0locale@2@A	; std::codecvt<char,char,_Mbstatet>::id
PUBLIC	?id@?$numpunct@D@std@@2V0locale@2@A		; std::numpunct<char>::id
PUBLIC	?emptyString@?$GenericStringRef@D@rapidjson@@0QBDB ; rapidjson::GenericStringRef<char>::emptyString
PUBLIC	?hexDigits@?1??WriteString@?$Writer@V?$GenericStringBuffer@U?$UTF8@D@rapidjson@@VCrtAllocator@2@@rapidjson@@U?$UTF8@D@2@U32@VCrtAllocator@2@$0A@@rapidjson@@IEAA_NPEBDI@Z@4QBDB ; `rapidjson::Writer<rapidjson::GenericStringBuffer<rapidjson::UTF8<char>,rapidjson::CrtAllocator>,rapidjson::UTF8<char>,rapidjson::UTF8<char>,rapidjson::CrtAllocator,0>::WriteString'::`2'::hexDigits
PUBLIC	?escape@?1??WriteString@?$Writer@V?$GenericStringBuffer@U?$UTF8@D@rapidjson@@VCrtAllocator@2@@rapidjson@@U?$UTF8@D@2@U32@VCrtAllocator@2@$0A@@rapidjson@@IEAA_NPEBDI@Z@4QBDB ; `rapidjson::Writer<rapidjson::GenericStringBuffer<rapidjson::UTF8<char>,rapidjson::CrtAllocator>,rapidjson::UTF8<char>,rapidjson::UTF8<char>,rapidjson::CrtAllocator,0>::WriteString'::`2'::escape
PUBLIC	?id@?$collate@D@std@@2V0locale@2@A		; std::collate<char>::id
PUBLIC	?type@?1??GetRange@?$UTF8@D@rapidjson@@SAEE@Z@4QBEB ; `rapidjson::UTF8<char>::GetRange'::`2'::type
PUBLIC	??_C@_0BC@KBDMBKEH@deque?$DMT?$DO?5too?5long@	; `string'
PUBLIC	?G@?1??Predict@?$GenericReader@U?$UTF8@D@rapidjson@@U12@VCrtAllocator@2@@rapidjson@@AEBA?AW4IterativeParsingState@23@W4423@W4Token@23@@Z@4QAY0L@$$CBDA ; `rapidjson::GenericReader<rapidjson::UTF8<char>,rapidjson::UTF8<char>,rapidjson::CrtAllocator>::Predict'::`2'::G
PUBLIC	?tokenMap@?1??Tokenize@?$GenericReader@U?$UTF8@D@rapidjson@@U12@VCrtAllocator@2@@rapidjson@@AEBA?AW4Token@23@D@Z@4QBEB ; `rapidjson::GenericReader<rapidjson::UTF8<char>,rapidjson::UTF8<char>,rapidjson::CrtAllocator>::Tokenize'::`2'::tokenMap
PUBLIC	?defaultFlags@?1???0?$GenericValue@U?$UTF8@D@rapidjson@@V?$MemoryPoolAllocator@VCrtAllocator@rapidjson@@@2@@rapidjson@@QEAA@W4Type@2@@Z@4QBGB ; `rapidjson::GenericValue<rapidjson::UTF8<char>,rapidjson::MemoryPoolAllocator<rapidjson::CrtAllocator> >::GenericValue<rapidjson::UTF8<char>,rapidjson::MemoryPoolAllocator<rapidjson::CrtAllocator> >'::`2'::defaultFlags
PUBLIC	?escape@?1???$ParseStringToStream@$0A@U?$UTF8@D@rapidjson@@U12@V?$EncodedInputStream@U?$UTF8@D@rapidjson@@UMemoryStream@2@@2@V32@@?$GenericReader@U?$UTF8@D@rapidjson@@U12@VCrtAllocator@2@@rapidjson@@AEAAXAEAV?$EncodedInputStream@U?$UTF8@D@rapidjson@@UMemoryStream@2@@2@0@Z@4QBDB ; `rapidjson::GenericReader<rapidjson::UTF8<char>,rapidjson::UTF8<char>,rapidjson::CrtAllocator>::ParseStringToStream<0,rapidjson::UTF8<char>,rapidjson::UTF8<char>,rapidjson::EncodedInputStream<rapidjson::UTF8<char>,rapidjson::MemoryStream>,rapidjson::EncodedInputStream<rapidjson::UTF8<char>,rapidjson::MemoryStream> >'::`2'::escape
PUBLIC	?escape@?1???$ParseStringToStream@$0A@U?$UTF8@D@rapidjson@@U12@V?$EncodedInputStream@U?$UTF8@D@rapidjson@@UMemoryStream@2@@2@V?$StackStream@D@?$GenericReader@U?$UTF8@D@rapidjson@@U12@VCrtAllocator@2@@2@@?$GenericReader@U?$UTF8@D@rapidjson@@U12@VCrtAllocator@2@@rapidjson@@AEAAXAEAV?$EncodedInputStream@U?$UTF8@D@rapidjson@@UMemoryStream@2@@2@AEAV?$StackStream@D@12@@Z@4QBDB ; `rapidjson::GenericReader<rapidjson::UTF8<char>,rapidjson::UTF8<char>,rapidjson::CrtAllocator>::ParseStringToStream<0,rapidjson::UTF8<char>,rapidjson::UTF8<char>,rapidjson::EncodedInputStream<rapidjson::UTF8<char>,rapidjson::MemoryStream>,rapidjson::GenericReader<rapidjson::UTF8<char>,rapidjson::UTF8<char>,rapidjson::CrtAllocator>::StackStream<char> >'::`2'::escape
PUBLIC	?escape@?1???$ParseStringToStream@$0A@U?$UTF8@D@rapidjson@@U12@U?$GenericStringStream@U?$UTF8@D@rapidjson@@@2@U32@@?$GenericReader@U?$UTF8@D@rapidjson@@U12@VCrtAllocator@2@@rapidjson@@AEAAXAEAU?$GenericStringStream@U?$UTF8@D@rapidjson@@@2@0@Z@4QBDB ; `rapidjson::GenericReader<rapidjson::UTF8<char>,rapidjson::UTF8<char>,rapidjson::CrtAllocator>::ParseStringToStream<0,rapidjson::UTF8<char>,rapidjson::UTF8<char>,rapidjson::GenericStringStream<rapidjson::UTF8<char> >,rapidjson::GenericStringStream<rapidjson::UTF8<char> > >'::`2'::escape
PUBLIC	?escape@?1???$ParseStringToStream@$0A@U?$UTF8@D@rapidjson@@U12@U?$GenericStringStream@U?$UTF8@D@rapidjson@@@2@V?$StackStream@D@?$GenericReader@U?$UTF8@D@rapidjson@@U12@VCrtAllocator@2@@2@@?$GenericReader@U?$UTF8@D@rapidjson@@U12@VCrtAllocator@2@@rapidjson@@AEAAXAEAU?$GenericStringStream@U?$UTF8@D@rapidjson@@@2@AEAV?$StackStream@D@12@@Z@4QBDB ; `rapidjson::GenericReader<rapidjson::UTF8<char>,rapidjson::UTF8<char>,rapidjson::CrtAllocator>::ParseStringToStream<0,rapidjson::UTF8<char>,rapidjson::UTF8<char>,rapidjson::GenericStringStream<rapidjson::UTF8<char> >,rapidjson::GenericReader<rapidjson::UTF8<char>,rapidjson::UTF8<char>,rapidjson::CrtAllocator>::StackStream<char> >'::`2'::escape
PUBLIC	??_R4exception@std@@6B@				; std::exception::`RTTI Complete Object Locator'
PUBLIC	??_R3exception@std@@8				; std::exception::`RTTI Class Hierarchy Descriptor'
PUBLIC	??_R2exception@std@@8				; std::exception::`RTTI Base Class Array'
PUBLIC	??_R1A@?0A@EA@exception@std@@8			; std::exception::`RTTI Base Class Descriptor at (0,-1,0,64)'
PUBLIC	??_R4bad_array_new_length@std@@6B@		; std::bad_array_new_length::`RTTI Complete Object Locator'
PUBLIC	??_R3bad_array_new_length@std@@8		; std::bad_array_new_length::`RTTI Class Hierarchy Descriptor'
PUBLIC	??_R2bad_array_new_length@std@@8		; std::bad_array_new_length::`RTTI Base Class Array'
PUBLIC	??_R1A@?0A@EA@bad_array_new_length@std@@8	; std::bad_array_new_length::`RTTI Base Class Descriptor at (0,-1,0,64)'
PUBLIC	??_R1A@?0A@EA@bad_alloc@std@@8			; std::bad_alloc::`RTTI Base Class Descriptor at (0,-1,0,64)'
PUBLIC	??_R3bad_alloc@std@@8				; std::bad_alloc::`RTTI Class Hierarchy Descriptor'
PUBLIC	??_R2bad_alloc@std@@8				; std::bad_alloc::`RTTI Base Class Array'
PUBLIC	??_R4bad_alloc@std@@6B@				; std::bad_alloc::`RTTI Complete Object Locator'
PUBLIC	__real@0000000000000000
PUBLIC	__real@3fd34413509f79fe
PUBLIC	__real@4024000000000000
PUBLIC	__real@4075b00000000000
PUBLIC	__real@433fffffffffffff
PUBLIC	__real@7fefffffffffffff
PUBLIC	__real@7ff0000000000000
PUBLIC	__real@7ff8000000000000
PUBLIC	__xmm@80000000000000008000000000000000
EXTRN	??2@YAPEAX_K@Z:PROC				; operator new
EXTRN	??3@YAXPEAX_K@Z:PROC				; operator delete
EXTRN	atexit:PROC
EXTRN	_Init_thread_header:PROC
EXTRN	_Init_thread_abort:PROC
EXTRN	_Init_thread_footer:PROC
EXTRN	_invalid_parameter_noinfo_noreturn:PROC
EXTRN	memcmp:PROC
EXTRN	memcpy:PROC
EXTRN	memmove:PROC
EXTRN	memset:PROC
EXTRN	strlen:PROC
EXTRN	free:PROC
EXTRN	malloc:PROC
EXTRN	realloc:PROC
EXTRN	?_Xlength_error@std@@YAXPEBD@Z:PROC		; std::_Xlength_error
EXTRN	__std_exception_copy:PROC
EXTRN	__std_exception_destroy:PROC
EXTRN	??_Eexception@std@@UEAAPEAXI@Z:PROC		; std::exception::`vector deleting destructor'
EXTRN	??_Ebad_alloc@std@@UEAAPEAXI@Z:PROC		; std::bad_alloc::`vector deleting destructor'
EXTRN	??_Ebad_array_new_length@std@@UEAAPEAXI@Z:PROC	; std::bad_array_new_length::`vector deleting destructor'
EXTRN	__imp_WSAStartup:PROC
EXTRN	__imp_WSACleanup:PROC
EXTRN	OPENSSL_init_ssl:PROC
EXTRN	_CxxThrowException:PROC
EXTRN	__CxxFrameHandler4:PROC
EXTRN	__GSHandlerCheck:PROC
EXTRN	__GSHandlerCheck_EH4:PROC
EXTRN	__chkstk:PROC
EXTRN	__security_check_cookie:PROC
EXTRN	_Init_thread_epoch:DWORD
EXTRN	??_7type_info@@6B@:BYTE				; type_info::`vftable'
EXTRN	__ImageBase:BYTE
EXTRN	__security_cookie:QWORD
EXTRN	_fltused:DWORD
EXTRN	_tls_index:DWORD
_BSS	SEGMENT
?wsinit_@detail@httplib@@3VWSInit@12@A DB 01H DUP (?)	; httplib::detail::wsinit_
?sslinit_@detail@httplib@@3VSSLInit@12@A DB 01H DUP (?)	; httplib::detail::sslinit_
_BSS	ENDS
;	COMDAT ?kPow10@?L@??StrtodDiyFp@internal@rapidjson@@YA_NPEBDHHPEAN@Z@4QBUDiyFp@23@B
_BSS	SEGMENT
?kPow10@?L@??StrtodDiyFp@internal@rapidjson@@YA_NPEBDHHPEAN@Z@4QBUDiyFp@23@B DB 070H DUP (?) ; `rapidjson::internal::StrtodDiyFp'::`11'::kPow10
_BSS	ENDS
;	COMDAT ?$TSS0@?L@??StrtodDiyFp@internal@rapidjson@@YA_NPEBDHHPEAN@Z@4HA
_BSS	SEGMENT
?$TSS0@?L@??StrtodDiyFp@internal@rapidjson@@YA_NPEBDHHPEAN@Z@4HA DD 01H DUP (?) ; `rapidjson::internal::StrtodDiyFp'::`11'::$TSS0
_BSS	ENDS
;	COMDAT ?id@?$num_put@DV?$ostreambuf_iterator@DU?$char_traits@D@std@@@std@@@std@@2V0locale@2@A
_BSS	SEGMENT
?id@?$num_put@DV?$ostreambuf_iterator@DU?$char_traits@D@std@@@std@@@std@@2V0locale@2@A DQ 01H DUP (?) ; std::num_put<char,std::ostreambuf_iterator<char,std::char_traits<char> > >::id
_BSS	ENDS
;	COMDAT ?id@?$codecvt@DDU_Mbstatet@@@std@@2V0locale@2@A
_BSS	SEGMENT
?id@?$codecvt@DDU_Mbstatet@@@std@@2V0locale@2@A DQ 01H DUP (?) ; std::codecvt<char,char,_Mbstatet>::id
_BSS	ENDS
;	COMDAT ?id@?$numpunct@D@std@@2V0locale@2@A
_BSS	SEGMENT
?id@?$numpunct@D@std@@2V0locale@2@A DQ 01H DUP (?)	; std::numpunct<char>::id
_BSS	ENDS
;	COMDAT ?id@?$collate@D@std@@2V0locale@2@A
_BSS	SEGMENT
?id@?$collate@D@std@@2V0locale@2@A DQ 01H DUP (?)	; std::collate<char>::id
_BSS	ENDS
;	COMDAT pdata
pdata	SEGMENT
$pdata$??_H@YAXPEAX_K1P6APEAX0@Z@Z DD imagerel $LN5
	DD	imagerel $LN5+102
	DD	imagerel $unwind$??_H@YAXPEAX_K1P6APEAX0@Z@Z
pdata	ENDS
;	COMDAT pdata
pdata	SEGMENT
$pdata$?copy@?$_Char_traits@DH@std@@SAPEADQEADQEBD_K@Z DD imagerel $LN3
	DD	imagerel $LN3+49
	DD	imagerel $unwind$?copy@?$_Char_traits@DH@std@@SAPEADQEADQEBD_K@Z
pdata	ENDS
;	COMDAT pdata
pdata	SEGMENT
$pdata$?move@?$_Char_traits@DH@std@@SAPEADQEADQEBD_K@Z DD imagerel $LN3
	DD	imagerel $LN3+49
	DD	imagerel $unwind$?move@?$_Char_traits@DH@std@@SAPEADQEADQEBD_K@Z
pdata	ENDS
;	COMDAT pdata
pdata	SEGMENT
$pdata$?length@?$_Narrow_char_traits@DH@std@@SA_KQEBD@Z DD imagerel $LN4
	DD	imagerel $LN4+55
	DD	imagerel $unwind$?length@?$_Narrow_char_traits@DH@std@@SA_KQEBD@Z
pdata	ENDS
;	COMDAT pdata
pdata	SEGMENT
$pdata$??0exception@std@@QEAA@QEBDH@Z DD imagerel $LN3
	DD	imagerel $LN3+73
	DD	imagerel $unwind$??0exception@std@@QEAA@QEBDH@Z
pdata	ENDS
;	COMDAT pdata
pdata	SEGMENT
$pdata$??0exception@std@@QEAA@AEBV01@@Z DD imagerel $LN3
	DD	imagerel $LN3+89
	DD	imagerel $unwind$??0exception@std@@QEAA@AEBV01@@Z
pdata	ENDS
;	COMDAT pdata
pdata	SEGMENT
$pdata$??1exception@std@@UEAA@XZ DD imagerel $LN3
	DD	imagerel $LN3+47
	DD	imagerel $unwind$??1exception@std@@UEAA@XZ
pdata	ENDS
;	COMDAT pdata
pdata	SEGMENT
$pdata$?what@exception@std@@UEBAPEBDXZ DD imagerel $LN5
	DD	imagerel $LN5+56
	DD	imagerel $unwind$?what@exception@std@@UEBAPEBDXZ
pdata	ENDS
;	COMDAT pdata
pdata	SEGMENT
$pdata$??_Gexception@std@@UEAAPEAXI@Z DD imagerel $LN4
	DD	imagerel $LN4+60
	DD	imagerel $unwind$??_Gexception@std@@UEAAPEAXI@Z
pdata	ENDS
;	COMDAT pdata
pdata	SEGMENT
$pdata$??0bad_alloc@std@@AEAA@QEBD@Z DD imagerel $LN4
	DD	imagerel $LN4+61
	DD	imagerel $unwind$??0bad_alloc@std@@AEAA@QEBD@Z
pdata	ENDS
;	COMDAT pdata
pdata	SEGMENT
$pdata$?dtor$0@?0???0bad_alloc@std@@AEAA@QEBD@Z@4HA DD imagerel ?dtor$0@?0???0bad_alloc@std@@AEAA@QEBD@Z@4HA
	DD	imagerel ?dtor$0@?0???0bad_alloc@std@@AEAA@QEBD@Z@4HA+24
	DD	imagerel $unwind$?dtor$0@?0???0bad_alloc@std@@AEAA@QEBD@Z@4HA
pdata	ENDS
;	COMDAT pdata
pdata	SEGMENT
$pdata$??1bad_alloc@std@@UEAA@XZ DD imagerel $LN4
	DD	imagerel $LN4+25
	DD	imagerel $unwind$??1bad_alloc@std@@UEAA@XZ
pdata	ENDS
;	COMDAT pdata
pdata	SEGMENT
$pdata$?dtor$0@?0???1bad_alloc@std@@UEAA@XZ@4HA DD imagerel ?dtor$0@?0???1bad_alloc@std@@UEAA@XZ@4HA
	DD	imagerel ?dtor$0@?0???1bad_alloc@std@@UEAA@XZ@4HA+24
	DD	imagerel $unwind$?dtor$0@?0???1bad_alloc@std@@UEAA@XZ@4HA
pdata	ENDS
;	COMDAT pdata
pdata	SEGMENT
$pdata$??0bad_alloc@std@@QEAA@AEBV01@@Z DD imagerel $LN4
	DD	imagerel $LN4+55
	DD	imagerel $unwind$??0bad_alloc@std@@QEAA@AEBV01@@Z
pdata	ENDS
;	COMDAT pdata
pdata	SEGMENT
$pdata$?dtor$0@?0???0bad_alloc@std@@QEAA@AEBV01@@Z@4HA DD imagerel ?dtor$0@?0???0bad_alloc@std@@QEAA@AEBV01@@Z@4HA
	DD	imagerel ?dtor$0@?0???0bad_alloc@std@@QEAA@AEBV01@@Z@4HA+24
	DD	imagerel $unwind$?dtor$0@?0???0bad_alloc@std@@QEAA@AEBV01@@Z@4HA
pdata	ENDS
;	COMDAT pdata
pdata	SEGMENT
$pdata$??_Gbad_alloc@std@@UEAAPEAXI@Z DD imagerel $LN4
	DD	imagerel $LN4+60
	DD	imagerel $unwind$??_Gbad_alloc@std@@UEAAPEAXI@Z
pdata	ENDS
;	COMDAT pdata
pdata	SEGMENT
$pdata$??0bad_array_new_length@std@@QEAA@XZ DD imagerel $LN4
	DD	imagerel $LN4+52
	DD	imagerel $unwind$??0bad_array_new_length@std@@QEAA@XZ
pdata	ENDS
;	COMDAT pdata
pdata	SEGMENT
$pdata$?dtor$0@?0???0bad_array_new_length@std@@QEAA@XZ@4HA DD imagerel ?dtor$0@?0???0bad_array_new_length@std@@QEAA@XZ@4HA
	DD	imagerel ?dtor$0@?0???0bad_array_new_length@std@@QEAA@XZ@4HA+24
	DD	imagerel $unwind$?dtor$0@?0???0bad_array_new_length@std@@QEAA@XZ@4HA
pdata	ENDS
;	COMDAT pdata
pdata	SEGMENT
$pdata$??1bad_array_new_length@std@@UEAA@XZ DD imagerel $LN4
	DD	imagerel $LN4+25
	DD	imagerel $unwind$??1bad_array_new_length@std@@UEAA@XZ
pdata	ENDS
;	COMDAT pdata
pdata	SEGMENT
$pdata$?dtor$0@?0???1bad_array_new_length@std@@UEAA@XZ@4HA DD imagerel ?dtor$0@?0???1bad_array_new_length@std@@UEAA@XZ@4HA
	DD	imagerel ?dtor$0@?0???1bad_array_new_length@std@@UEAA@XZ@4HA+24
	DD	imagerel $unwind$?dtor$0@?0???1bad_array_new_length@std@@UEAA@XZ@4HA
pdata	ENDS
;	COMDAT pdata
pdata	SEGMENT
$pdata$??0bad_array_new_length@std@@QEAA@AEBV01@@Z DD imagerel $LN4
	DD	imagerel $LN4+55
	DD	imagerel $unwind$??0bad_array_new_length@std@@QEAA@AEBV01@@Z
pdata	ENDS
;	COMDAT pdata
pdata	SEGMENT
$pdata$?dtor$0@?0???0bad_array_new_length@std@@QEAA@AEBV01@@Z@4HA DD imagerel ?dtor$0@?0???0bad_array_new_length@std@@QEAA@AEBV01@@Z@4HA
	DD	imagerel ?dtor$0@?0???0bad_array_new_length@std@@QEAA@AEBV01@@Z@4HA+24
	DD	imagerel $unwind$?dtor$0@?0???0bad_array_new_length@std@@QEAA@AEBV01@@Z@4HA
pdata	ENDS
;	COMDAT pdata
pdata	SEGMENT
$pdata$??_Gbad_array_new_length@std@@UEAAPEAXI@Z DD imagerel $LN4
	DD	imagerel $LN4+60
	DD	imagerel $unwind$??_Gbad_array_new_length@std@@UEAAPEAXI@Z
pdata	ENDS
;	COMDAT pdata
pdata	SEGMENT
$pdata$?_Throw_bad_array_new_length@std@@YAXXZ DD imagerel $LN3
	DD	imagerel $LN3+37
	DD	imagerel $unwind$?_Throw_bad_array_new_length@std@@YAXXZ
pdata	ENDS
;	COMDAT pdata
pdata	SEGMENT
$pdata$?_Allocate@_Default_allocate_traits@std@@SAPEAX_K@Z DD imagerel $LN3
	DD	imagerel $LN3+24
	DD	imagerel $unwind$?_Allocate@_Default_allocate_traits@std@@SAPEAX_K@Z
pdata	ENDS
;	COMDAT pdata
pdata	SEGMENT
$pdata$?_Adjust_manually_vector_aligned@std@@YAXAEAPEAXAEA_K@Z DD imagerel $LN11
	DD	imagerel $LN11+154
	DD	imagerel $unwind$?_Adjust_manually_vector_aligned@std@@YAXAEAPEAXAEA_K@Z
pdata	ENDS
;	COMDAT pdata
pdata	SEGMENT
$pdata$?_Xlen_string@std@@YAXXZ DD imagerel $LN3
	DD	imagerel $LN3+22
	DD	imagerel $unwind$?_Xlen_string@std@@YAXXZ
pdata	ENDS
;	COMDAT pdata
pdata	SEGMENT
$pdata$?deallocate@?$allocator@D@std@@QEAAXQEAD_K@Z DD imagerel $LN3
	DD	imagerel $LN3+40
	DD	imagerel $unwind$?deallocate@?$allocator@D@std@@QEAAXQEAD_K@Z
pdata	ENDS
;	COMDAT pdata
pdata	SEGMENT
$pdata$?allocate@?$allocator@D@std@@QEAAPEAD_K@Z DD imagerel $LN3
	DD	imagerel $LN3+37
	DD	imagerel $unwind$?allocate@?$allocator@D@std@@QEAAPEAD_K@Z
pdata	ENDS
;	COMDAT pdata
pdata	SEGMENT
$pdata$?_Myptr@?$_String_val@U?$_Simple_types@D@std@@@std@@QEAAPEADXZ DD imagerel $LN4
	DD	imagerel $LN4+64
	DD	imagerel $unwind$?_Myptr@?$_String_val@U?$_Simple_types@D@std@@@std@@QEAAPEADXZ
pdata	ENDS
;	COMDAT pdata
pdata	SEGMENT
$pdata$?_Myptr@?$_String_val@U?$_Simple_types@D@std@@@std@@QEBAPEBDXZ DD imagerel $LN4
	DD	imagerel $LN4+64
	DD	imagerel $unwind$?_Myptr@?$_String_val@U?$_Simple_types@D@std@@@std@@QEBAPEBDXZ
pdata	ENDS
;	COMDAT pdata
pdata	SEGMENT
$pdata$?_Large_mode_engaged@?$_String_val@U?$_Simple_types@D@std@@@std@@QEBA_NXZ DD imagerel $LN5
	DD	imagerel $LN5+46
	DD	imagerel $unwind$?_Large_mode_engaged@?$_String_val@U?$_Simple_types@D@std@@@std@@QEBA_NXZ
pdata	ENDS
;	COMDAT pdata
pdata	SEGMENT
$pdata$?_Deallocate_for_capacity@?$basic_string@DU?$char_traits@D@std@@V?$allocator@D@2@@std@@CAXAEAV?$allocator@D@2@QEAD_K@Z DD imagerel $LN3
	DD	imagerel $LN3+51
	DD	imagerel $unwind$?_Deallocate_for_capacity@?$basic_string@DU?$char_traits@D@std@@V?$allocator@D@2@@std@@CAXAEAV?$allocator@D@2@QEAD_K@Z
pdata	ENDS
;	COMDAT pdata
pdata	SEGMENT
$pdata$??4?$basic_string@DU?$char_traits@D@std@@V?$allocator@D@2@@std@@QEAAAEAV01@QEBD@Z DD imagerel $LN3
	DD	imagerel $LN3+34
	DD	imagerel $unwind$??4?$basic_string@DU?$char_traits@D@std@@V?$allocator@D@2@@std@@QEAAAEAV01@QEBD@Z
pdata	ENDS
;	COMDAT pdata
pdata	SEGMENT
$pdata$?assign@?$basic_string@DU?$char_traits@D@std@@V?$allocator@D@2@@std@@QEAAAEAV12@QEBD_K@Z DD imagerel $LN4
	DD	imagerel $LN4+180
	DD	imagerel $unwind$?assign@?$basic_string@DU?$char_traits@D@std@@V?$allocator@D@2@@std@@QEAAAEAV12@QEBD_K@Z
pdata	ENDS
;	COMDAT pdata
pdata	SEGMENT
$pdata$?assign@?$basic_string@DU?$char_traits@D@std@@V?$allocator@D@2@@std@@QEAAAEAV12@QEBD@Z DD imagerel $LN3
	DD	imagerel $LN3+55
	DD	imagerel $unwind$?assign@?$basic_string@DU?$char_traits@D@std@@V?$allocator@D@2@@std@@QEAAAEAV12@QEBD@Z
pdata	ENDS
;	COMDAT pdata
pdata	SEGMENT
$pdata$?c_str@?$basic_string@DU?$char_traits@D@std@@V?$allocator@D@2@@std@@QEBAPEBDXZ DD imagerel $LN3
	DD	imagerel $LN3+27
	DD	imagerel $unwind$?c_str@?$basic_string@DU?$char_traits@D@std@@V?$allocator@D@2@@std@@QEBAPEBDXZ
pdata	ENDS
;	COMDAT pdata
pdata	SEGMENT
$pdata$?max_size@?$basic_string@DU?$char_traits@D@std@@V?$allocator@D@2@@std@@QEBA_KXZ DD imagerel $LN3
	DD	imagerel $LN3+110
	DD	imagerel $unwind$?max_size@?$basic_string@DU?$char_traits@D@std@@V?$allocator@D@2@@std@@QEBA_KXZ
pdata	ENDS
;	COMDAT pdata
pdata	SEGMENT
$pdata$?_Calculate_growth@?$basic_string@DU?$char_traits@D@std@@V?$allocator@D@2@@std@@CA_K_K00@Z DD imagerel $LN5
	DD	imagerel $LN5+146
	DD	imagerel $unwind$?_Calculate_growth@?$basic_string@DU?$char_traits@D@std@@V?$allocator@D@2@@std@@CA_K_K00@Z
pdata	ENDS
;	COMDAT pdata
pdata	SEGMENT
$pdata$?_Calculate_growth@?$basic_string@DU?$char_traits@D@std@@V?$allocator@D@2@@std@@AEBA_K_K@Z DD imagerel $LN3
	DD	imagerel $LN3+68
	DD	imagerel $unwind$?_Calculate_growth@?$basic_string@DU?$char_traits@D@std@@V?$allocator@D@2@@std@@AEBA_K_K@Z
pdata	ENDS
;	COMDAT pdata
pdata	SEGMENT
$pdata$?_Getal@?$basic_string@DU?$char_traits@D@std@@V?$allocator@D@2@@std@@AEAAAEAV?$allocator@D@2@XZ DD imagerel $LN3
	DD	imagerel $LN3+27
	DD	imagerel $unwind$?_Getal@?$basic_string@DU?$char_traits@D@std@@V?$allocator@D@2@@std@@AEAAAEAV?$allocator@D@2@XZ
pdata	ENDS
;	COMDAT pdata
pdata	SEGMENT
$pdata$?_Getal@?$basic_string@DU?$char_traits@D@std@@V?$allocator@D@2@@std@@AEBAAEBV?$allocator@D@2@XZ DD imagerel $LN3
	DD	imagerel $LN3+27
	DD	imagerel $unwind$?_Getal@?$basic_string@DU?$char_traits@D@std@@V?$allocator@D@2@@std@@AEBAAEBV?$allocator@D@2@XZ
pdata	ENDS
;	COMDAT pdata
pdata	SEGMENT
$pdata$??$min@_K@std@@YAAEB_KAEB_K0@Z DD imagerel $LN5
	DD	imagerel $LN5+71
	DD	imagerel $unwind$??$min@_K@std@@YAAEB_KAEB_K0@Z
pdata	ENDS
;	COMDAT pdata
pdata	SEGMENT
$pdata$??0WSInit@detail@httplib@@QEAA@XZ DD imagerel $LN4
	DD	imagerel $LN4+103
	DD	imagerel $unwind$??0WSInit@detail@httplib@@QEAA@XZ
pdata	ENDS
;	COMDAT pdata
pdata	SEGMENT
$pdata$??1WSInit@detail@httplib@@QEAA@XZ DD imagerel $LN4
	DD	imagerel $LN4+33
	DD	imagerel $unwind$??1WSInit@detail@httplib@@QEAA@XZ
pdata	ENDS
;	COMDAT pdata
pdata	SEGMENT
$pdata$??__Ewsinit_@detail@httplib@@YAXXZ DD imagerel ??__Ewsinit_@detail@httplib@@YAXXZ
	DD	imagerel ??__Ewsinit_@detail@httplib@@YAXXZ+34
	DD	imagerel $unwind$??__Ewsinit_@detail@httplib@@YAXXZ
pdata	ENDS
;	COMDAT pdata
pdata	SEGMENT
$pdata$??__Fwsinit_@detail@httplib@@YAXXZ DD imagerel ??__Fwsinit_@detail@httplib@@YAXXZ
	DD	imagerel ??__Fwsinit_@detail@httplib@@YAXXZ+22
	DD	imagerel $unwind$??__Fwsinit_@detail@httplib@@YAXXZ
pdata	ENDS
;	COMDAT pdata
pdata	SEGMENT
$pdata$??0SSLInit@detail@httplib@@QEAA@XZ DD imagerel $LN3
	DD	imagerel $LN3+32
	DD	imagerel $unwind$??0SSLInit@detail@httplib@@QEAA@XZ
pdata	ENDS
;	COMDAT pdata
pdata	SEGMENT
$pdata$??__Esslinit_@detail@httplib@@YAXXZ DD imagerel ??__Esslinit_@detail@httplib@@YAXXZ
	DD	imagerel ??__Esslinit_@detail@httplib@@YAXXZ+22
	DD	imagerel $unwind$??__Esslinit_@detail@httplib@@YAXXZ
pdata	ENDS
pdata	SEGMENT
$pdata$??0JsonReader@@QEAA@PEBD_K@Z DD imagerel $LN14
	DD	imagerel $LN14+451
	DD	imagerel $unwind$??0JsonReader@@QEAA@PEBD_K@Z
pdata	ENDS
pdata	SEGMENT
$pdata$?dtor$0@?0???0JsonReader@@QEAA@PEBD_K@Z@4HA DD imagerel ?dtor$0@?0???0JsonReader@@QEAA@PEBD_K@Z@4HA
	DD	imagerel ?dtor$0@?0???0JsonReader@@QEAA@PEBD_K@Z@4HA+29
	DD	imagerel $unwind$?dtor$0@?0???0JsonReader@@QEAA@PEBD_K@Z@4HA
$pdata$?dtor$1@?0???0JsonReader@@QEAA@PEBD_K@Z@4HA DD imagerel ?dtor$1@?0???0JsonReader@@QEAA@PEBD_K@Z@4HA
	DD	imagerel ?dtor$1@?0???0JsonReader@@QEAA@PEBD_K@Z@4HA+29
	DD	imagerel $unwind$?dtor$1@?0???0JsonReader@@QEAA@PEBD_K@Z@4HA
pdata	ENDS
pdata	SEGMENT
$pdata$??1JsonReader@@QEAA@XZ DD imagerel $LN7
	DD	imagerel $LN7+119
	DD	imagerel $unwind$??1JsonReader@@QEAA@XZ
$pdata$?Build@JsonReader@@QEAAXPEBD_K@Z DD imagerel $LN10
	DD	imagerel $LN10+293
	DD	imagerel $unwind$?Build@JsonReader@@QEAAXPEBD_K@Z
pdata	ENDS
pdata	SEGMENT
$pdata$?dtor$0@?0??Build@JsonReader@@QEAAXPEBD_K@Z@4HA DD imagerel ?dtor$0@?0??Build@JsonReader@@QEAAXPEBD_K@Z@4HA
	DD	imagerel ?dtor$0@?0??Build@JsonReader@@QEAAXPEBD_K@Z@4HA+29
	DD	imagerel $unwind$?dtor$0@?0??Build@JsonReader@@QEAAXPEBD_K@Z@4HA
pdata	ENDS
pdata	SEGMENT
$pdata$?StartObject@JsonReader@@QEAAAEAV1@PEA_K@Z DD imagerel $LN7
	DD	imagerel $LN7+158
	DD	imagerel $unwind$?StartObject@JsonReader@@QEAAAEAV1@PEA_K@Z
$pdata$?Member@JsonReader@@QEAAAEAV1@PEBD@Z DD imagerel $LN8
	DD	imagerel $LN8+285
	DD	imagerel $unwind$?Member@JsonReader@@QEAAAEAV1@PEBD@Z
$pdata$?Member@JsonReader@@QEAAAEAV1@HAEAV?$basic_string@DU?$char_traits@D@std@@V?$allocator@D@2@@std@@@Z DD imagerel $LN9
	DD	imagerel $LN9+406
	DD	imagerel $unwind$?Member@JsonReader@@QEAAAEAV1@HAEAV?$basic_string@DU?$char_traits@D@std@@V?$allocator@D@2@@std@@@Z
$pdata$?HasMember@JsonReader@@QEAA_NPEBD@Z DD imagerel $LN5
	DD	imagerel $LN5+146
	DD	imagerel $unwind$?HasMember@JsonReader@@QEAA_NPEBD@Z
$pdata$?EndObject@JsonReader@@QEAAAEAV1@XZ DD imagerel $LN6
	DD	imagerel $LN6+103
	DD	imagerel $unwind$?EndObject@JsonReader@@QEAAAEAV1@XZ
$pdata$?StartArray@JsonReader@@QEAAAEAV1@PEA_K@Z DD imagerel $LN9
	DD	imagerel $LN9+337
	DD	imagerel $unwind$?StartArray@JsonReader@@QEAAAEAV1@PEA_K@Z
$pdata$?EndArray@JsonReader@@QEAAAEAV1@XZ DD imagerel $LN6
	DD	imagerel $LN6+103
	DD	imagerel $unwind$?EndArray@JsonReader@@QEAAAEAV1@XZ
$pdata$??IJsonReader@@QEAAAEAV0@AEA_N@Z DD imagerel $LN6
	DD	imagerel $LN6+117
	DD	imagerel $unwind$??IJsonReader@@QEAAAEAV0@AEA_N@Z
$pdata$??IJsonReader@@QEAAAEAV0@AEA_K@Z DD imagerel $LN6
	DD	imagerel $LN6+118
	DD	imagerel $unwind$??IJsonReader@@QEAAAEAV0@AEA_K@Z
$pdata$??IJsonReader@@QEAAAEAV0@AEA_J@Z DD imagerel $LN6
	DD	imagerel $LN6+118
	DD	imagerel $unwind$??IJsonReader@@QEAAAEAV0@AEA_J@Z
$pdata$??IJsonReader@@QEAAAEAV0@AEAI@Z DD imagerel $LN6
	DD	imagerel $LN6+117
	DD	imagerel $unwind$??IJsonReader@@QEAAAEAV0@AEAI@Z
$pdata$??IJsonReader@@QEAAAEAV0@AEAH@Z DD imagerel $LN6
	DD	imagerel $LN6+117
	DD	imagerel $unwind$??IJsonReader@@QEAAAEAV0@AEAH@Z
$pdata$??IJsonReader@@QEAAAEAV0@AEAN@Z DD imagerel $LN6
	DD	imagerel $LN6+119
	DD	imagerel $unwind$??IJsonReader@@QEAAAEAV0@AEAN@Z
$pdata$??IJsonReader@@QEAAAEAV0@AEAM@Z DD imagerel $LN6
	DD	imagerel $LN6+123
	DD	imagerel $unwind$??IJsonReader@@QEAAAEAV0@AEAM@Z
$pdata$??IJsonReader@@QEAAAEAV0@AEAV?$basic_string@DU?$char_traits@D@std@@V?$allocator@D@2@@std@@@Z DD imagerel $LN6
	DD	imagerel $LN6+123
	DD	imagerel $unwind$??IJsonReader@@QEAAAEAV0@AEAV?$basic_string@DU?$char_traits@D@std@@V?$allocator@D@2@@std@@@Z
$pdata$?Next@JsonReader@@AEAAXXZ DD imagerel $LN9
	DD	imagerel $LN9+399
	DD	imagerel $unwind$?Next@JsonReader@@AEAAXXZ
$pdata$??0JsonWriter@@QEAA@XZ DD imagerel $LN9
	DD	imagerel $LN9+215
	DD	imagerel $unwind$??0JsonWriter@@QEAA@XZ
pdata	ENDS
pdata	SEGMENT
$pdata$?dtor$0@?0???0JsonWriter@@QEAA@XZ@4HA DD imagerel ?dtor$0@?0???0JsonWriter@@QEAA@XZ@4HA
	DD	imagerel ?dtor$0@?0???0JsonWriter@@QEAA@XZ@4HA+29
	DD	imagerel $unwind$?dtor$0@?0???0JsonWriter@@QEAA@XZ@4HA
$pdata$?dtor$1@?0???0JsonWriter@@QEAA@XZ@4HA DD imagerel ?dtor$1@?0???0JsonWriter@@QEAA@XZ@4HA
	DD	imagerel ?dtor$1@?0???0JsonWriter@@QEAA@XZ@4HA+29
	DD	imagerel $unwind$?dtor$1@?0???0JsonWriter@@QEAA@XZ@4HA
pdata	ENDS
pdata	SEGMENT
$pdata$??1JsonWriter@@QEAA@XZ DD imagerel $LN7
	DD	imagerel $LN7+119
	DD	imagerel $unwind$??1JsonWriter@@QEAA@XZ
$pdata$?GetString@JsonWriter@@QEBAPEBDXZ DD imagerel $LN3
	DD	imagerel $LN3+28
	DD	imagerel $unwind$?GetString@JsonWriter@@QEBAPEBDXZ
$pdata$?GetStringLength@JsonWriter@@QEBA_KXZ DD imagerel $LN3
	DD	imagerel $LN3+28
	DD	imagerel $unwind$?GetStringLength@JsonWriter@@QEBA_KXZ
$pdata$?StartObject@JsonWriter@@QEAAAEAV1@PEA_K@Z DD imagerel $LN3
	DD	imagerel $LN3+37
	DD	imagerel $unwind$?StartObject@JsonWriter@@QEAAAEAV1@PEA_K@Z
$pdata$?Member@JsonWriter@@QEAAAEAV1@PEBD@Z DD imagerel $LN3
	DD	imagerel $LN3+74
	DD	imagerel $unwind$?Member@JsonWriter@@QEAAAEAV1@PEBD@Z
$pdata$?EndObject@JsonWriter@@QEAAAEAV1@XZ DD imagerel $LN3
	DD	imagerel $LN3+44
	DD	imagerel $unwind$?EndObject@JsonWriter@@QEAAAEAV1@XZ
$pdata$?StartArray@JsonWriter@@QEAAAEAV1@PEA_K@Z DD imagerel $LN3
	DD	imagerel $LN3+37
	DD	imagerel $unwind$?StartArray@JsonWriter@@QEAAAEAV1@PEA_K@Z
$pdata$?EndArray@JsonWriter@@QEAAAEAV1@XZ DD imagerel $LN3
	DD	imagerel $LN3+44
	DD	imagerel $unwind$?EndArray@JsonWriter@@QEAAAEAV1@XZ
$pdata$??IJsonWriter@@QEAAAEAV0@AEA_N@Z DD imagerel $LN3
	DD	imagerel $LN3+55
	DD	imagerel $unwind$??IJsonWriter@@QEAAAEAV0@AEA_N@Z
$pdata$??IJsonWriter@@QEAAAEAV0@AEAI@Z DD imagerel $LN3
	DD	imagerel $LN3+54
	DD	imagerel $unwind$??IJsonWriter@@QEAAAEAV0@AEAI@Z
$pdata$??IJsonWriter@@QEAAAEAV0@AEA_K@Z DD imagerel $LN3
	DD	imagerel $LN3+55
	DD	imagerel $unwind$??IJsonWriter@@QEAAAEAV0@AEA_K@Z
$pdata$??IJsonWriter@@QEAAAEAV0@AEA_J@Z DD imagerel $LN3
	DD	imagerel $LN3+55
	DD	imagerel $unwind$??IJsonWriter@@QEAAAEAV0@AEA_J@Z
$pdata$??IJsonWriter@@QEAAAEAV0@AEAH@Z DD imagerel $LN3
	DD	imagerel $LN3+54
	DD	imagerel $unwind$??IJsonWriter@@QEAAAEAV0@AEAH@Z
$pdata$??IJsonWriter@@QEAAAEAV0@AEAN@Z DD imagerel $LN3
	DD	imagerel $LN3+56
	DD	imagerel $unwind$??IJsonWriter@@QEAAAEAV0@AEAN@Z
$pdata$??IJsonWriter@@QEAAAEAV0@AEAM@Z DD imagerel $LN3
	DD	imagerel $LN3+59
	DD	imagerel $unwind$??IJsonWriter@@QEAAAEAV0@AEAM@Z
$pdata$??IJsonWriter@@QEAAAEAV0@AEAV?$basic_string@DU?$char_traits@D@std@@V?$allocator@D@2@@std@@@Z DD imagerel $LN3
	DD	imagerel $LN3+89
	DD	imagerel $unwind$??IJsonWriter@@QEAAAEAV0@AEAV?$basic_string@DU?$char_traits@D@std@@V?$allocator@D@2@@std@@@Z
$pdata$?SetNull@JsonWriter@@QEAAAEAV1@XZ DD imagerel $LN3
	DD	imagerel $LN3+32
	DD	imagerel $unwind$?SetNull@JsonWriter@@QEAAAEAV1@XZ
pdata	ENDS
;	COMDAT pdata
pdata	SEGMENT
$pdata$?Malloc@CrtAllocator@rapidjson@@QEAAPEAX_K@Z DD imagerel $LN5
	DD	imagerel $LN5+43
	DD	imagerel $unwind$?Malloc@CrtAllocator@rapidjson@@QEAAPEAX_K@Z
pdata	ENDS
;	COMDAT pdata
pdata	SEGMENT
$pdata$?Realloc@CrtAllocator@rapidjson@@QEAAPEAXPEAX_K1@Z DD imagerel $LN4
	DD	imagerel $LN4+66
	DD	imagerel $unwind$?Realloc@CrtAllocator@rapidjson@@QEAAPEAXPEAX_K1@Z
pdata	ENDS
;	COMDAT pdata
pdata	SEGMENT
$pdata$?Free@CrtAllocator@rapidjson@@SAXPEAX@Z DD imagerel $LN3
	DD	imagerel $LN3+25
	DD	imagerel $unwind$?Free@CrtAllocator@rapidjson@@SAXPEAX@Z
pdata	ENDS
;	COMDAT pdata
pdata	SEGMENT
$pdata$?Peek@MemoryStream@rapidjson@@QEBADXZ DD imagerel $LN5
	DD	imagerel $LN5+57
	DD	imagerel $unwind$?Peek@MemoryStream@rapidjson@@QEBADXZ
pdata	ENDS
;	COMDAT pdata
pdata	SEGMENT
$pdata$?Take@MemoryStream@rapidjson@@QEAADXZ DD imagerel $LN5
	DD	imagerel $LN5+76
	DD	imagerel $unwind$?Take@MemoryStream@rapidjson@@QEAADXZ
pdata	ENDS
;	COMDAT pdata
pdata	SEGMENT
$pdata$??0?$EncodedInputStream@U?$UTF8@D@rapidjson@@UMemoryStream@2@@rapidjson@@QEAA@AEAUMemoryStream@1@@Z DD imagerel $LN6
	DD	imagerel $LN6+148
	DD	imagerel $unwind$??0?$EncodedInputStream@U?$UTF8@D@rapidjson@@UMemoryStream@2@@rapidjson@@QEAA@AEAUMemoryStream@1@@Z
pdata	ENDS
;	COMDAT pdata
pdata	SEGMENT
$pdata$?Peek@?$EncodedInputStream@U?$UTF8@D@rapidjson@@UMemoryStream@2@@rapidjson@@QEBADXZ DD imagerel $LN3
	DD	imagerel $LN3+27
	DD	imagerel $unwind$?Peek@?$EncodedInputStream@U?$UTF8@D@rapidjson@@UMemoryStream@2@@rapidjson@@QEBADXZ
pdata	ENDS
;	COMDAT pdata
pdata	SEGMENT
$pdata$?Take@?$EncodedInputStream@U?$UTF8@D@rapidjson@@UMemoryStream@2@@rapidjson@@QEAADXZ DD imagerel $LN3
	DD	imagerel $LN3+27
	DD	imagerel $unwind$?Take@?$EncodedInputStream@U?$UTF8@D@rapidjson@@UMemoryStream@2@@rapidjson@@QEAADXZ
pdata	ENDS
;	COMDAT pdata
pdata	SEGMENT
$pdata$?Tell@?$EncodedInputStream@U?$UTF8@D@rapidjson@@UMemoryStream@2@@rapidjson@@QEBA_KXZ DD imagerel $LN3
	DD	imagerel $LN3+27
	DD	imagerel $unwind$?Tell@?$EncodedInputStream@U?$UTF8@D@rapidjson@@UMemoryStream@2@@rapidjson@@QEBA_KXZ
pdata	ENDS
;	COMDAT pdata
pdata	SEGMENT
$pdata$?NextPositiveDouble@Double@internal@rapidjson@@QEBANXZ DD imagerel $LN3
	DD	imagerel $LN3+46
	DD	imagerel $unwind$?NextPositiveDouble@Double@internal@rapidjson@@QEBANXZ
pdata	ENDS
;	COMDAT pdata
pdata	SEGMENT
$pdata$?Sign@Double@internal@rapidjson@@QEBA_NXZ DD imagerel $LN5
	DD	imagerel $LN5+60
	DD	imagerel $unwind$?Sign@Double@internal@rapidjson@@QEBA_NXZ
pdata	ENDS
;	COMDAT pdata
pdata	SEGMENT
$pdata$?IsNan@Double@internal@rapidjson@@QEBA_NXZ DD imagerel $LN5
	DD	imagerel $LN5+88
	DD	imagerel $unwind$?IsNan@Double@internal@rapidjson@@QEBA_NXZ
pdata	ENDS
;	COMDAT pdata
pdata	SEGMENT
$pdata$?IsNanOrInf@Double@internal@rapidjson@@QEBA_NXZ DD imagerel $LN5
	DD	imagerel $LN5+70
	DD	imagerel $unwind$?IsNanOrInf@Double@internal@rapidjson@@QEBA_NXZ
pdata	ENDS
;	COMDAT pdata
pdata	SEGMENT
$pdata$?IsNormal@Double@internal@rapidjson@@QEBA_NXZ DD imagerel $LN5
	DD	imagerel $LN5+78
	DD	imagerel $unwind$?IsNormal@Double@internal@rapidjson@@QEBA_NXZ
pdata	ENDS
;	COMDAT pdata
pdata	SEGMENT
$pdata$?IsZero@Double@internal@rapidjson@@QEBA_NXZ DD imagerel $LN5
	DD	imagerel $LN5+60
	DD	imagerel $unwind$?IsZero@Double@internal@rapidjson@@QEBA_NXZ
pdata	ENDS
;	COMDAT pdata
pdata	SEGMENT
$pdata$?IntegerSignificand@Double@internal@rapidjson@@QEBA_KXZ DD imagerel $LN5
	DD	imagerel $LN5+81
	DD	imagerel $unwind$?IntegerSignificand@Double@internal@rapidjson@@QEBA_KXZ
pdata	ENDS
;	COMDAT pdata
pdata	SEGMENT
$pdata$?IntegerExponent@Double@internal@rapidjson@@QEBAHXZ DD imagerel $LN5
	DD	imagerel $LN5+62
	DD	imagerel $unwind$?IntegerExponent@Double@internal@rapidjson@@QEBAHXZ
pdata	ENDS
;	COMDAT pdata
pdata	SEGMENT
$pdata$??0BigInteger@internal@rapidjson@@QEAA@AEBV012@@Z DD imagerel $LN3
	DD	imagerel $LN3+99
	DD	imagerel $unwind$??0BigInteger@internal@rapidjson@@QEAA@AEBV012@@Z
pdata	ENDS
;	COMDAT pdata
pdata	SEGMENT
$pdata$??0BigInteger@internal@rapidjson@@QEAA@PEBD_K@Z DD imagerel $LN6
	DD	imagerel $LN6+232
	DD	imagerel $unwind$??0BigInteger@internal@rapidjson@@QEAA@PEBD_K@Z
pdata	ENDS
;	COMDAT pdata
pdata	SEGMENT
$pdata$??YBigInteger@internal@rapidjson@@QEAAAEAV012@_K@Z DD imagerel $LN8
	DD	imagerel $LN8+262
	DD	imagerel $unwind$??YBigInteger@internal@rapidjson@@QEAAAEAV012@_K@Z
pdata	ENDS
;	COMDAT pdata
pdata	SEGMENT
$pdata$??XBigInteger@internal@rapidjson@@QEAAAEAV012@_K@Z DD imagerel $LN10
	DD	imagerel $LN10+245
	DD	imagerel $unwind$??XBigInteger@internal@rapidjson@@QEAAAEAV012@_K@Z
pdata	ENDS
;	COMDAT pdata
pdata	SEGMENT
$pdata$??XBigInteger@internal@rapidjson@@QEAAAEAV012@I@Z DD imagerel $LN10
	DD	imagerel $LN10+374
	DD	imagerel $unwind$??XBigInteger@internal@rapidjson@@QEAAAEAV012@I@Z
pdata	ENDS
;	COMDAT pdata
pdata	SEGMENT
$pdata$??_3BigInteger@internal@rapidjson@@QEAAAEAV012@_K@Z DD imagerel $LN11
	DD	imagerel $LN11+508
	DD	imagerel $unwind$??_3BigInteger@internal@rapidjson@@QEAAAEAV012@_K@Z
pdata	ENDS
;	COMDAT pdata
pdata	SEGMENT
$pdata$??8BigInteger@internal@rapidjson@@QEBA_N_K@Z DD imagerel $LN5
	DD	imagerel $LN5+79
	DD	imagerel $unwind$??8BigInteger@internal@rapidjson@@QEBA_N_K@Z
pdata	ENDS
;	COMDAT pdata
pdata	SEGMENT
$pdata$?MultiplyPow5@BigInteger@internal@rapidjson@@QEAAAEAV123@I@Z DD imagerel $LN11
	DD	imagerel $LN11+154
	DD	imagerel $unwind$?MultiplyPow5@BigInteger@internal@rapidjson@@QEAAAEAV123@I@Z
pdata	ENDS
;	COMDAT pdata
pdata	SEGMENT
$pdata$?Difference@BigInteger@internal@rapidjson@@QEBA_NAEBV123@PEAV123@@Z DD imagerel $LN12
	DD	imagerel $LN12+346
	DD	imagerel $unwind$?Difference@BigInteger@internal@rapidjson@@QEBA_NAEBV123@PEAV123@@Z
pdata	ENDS
;	COMDAT pdata
pdata	SEGMENT
$pdata$?Compare@BigInteger@internal@rapidjson@@QEBAHAEBV123@@Z DD imagerel $LN12
	DD	imagerel $LN12+231
	DD	imagerel $unwind$?Compare@BigInteger@internal@rapidjson@@QEBAHAEBV123@@Z
pdata	ENDS
;	COMDAT pdata
pdata	SEGMENT
$pdata$?IsZero@BigInteger@internal@rapidjson@@QEBA_NXZ DD imagerel $LN5
	DD	imagerel $LN5+70
	DD	imagerel $unwind$?IsZero@BigInteger@internal@rapidjson@@QEBA_NXZ
pdata	ENDS
;	COMDAT pdata
pdata	SEGMENT
$pdata$?AppendDecimal64@BigInteger@internal@rapidjson@@AEAAXPEBD0@Z DD imagerel $LN5
	DD	imagerel $LN5+152
	DD	imagerel $unwind$?AppendDecimal64@BigInteger@internal@rapidjson@@AEAAXPEBD0@Z
pdata	ENDS
;	COMDAT pdata
pdata	SEGMENT
$pdata$?ParseUint64@BigInteger@internal@rapidjson@@CA_KPEBD0@Z DD imagerel $LN6
	DD	imagerel $LN6+94
	DD	imagerel $unwind$?ParseUint64@BigInteger@internal@rapidjson@@CA_KPEBD0@Z
pdata	ENDS
;	COMDAT pdata
pdata	SEGMENT
$pdata$?MulAdd64@BigInteger@internal@rapidjson@@CA_K_K00PEA_K@Z DD imagerel $LN4
	DD	imagerel $LN4+106
	DD	imagerel $unwind$?MulAdd64@BigInteger@internal@rapidjson@@CA_K_K00PEA_K@Z
pdata	ENDS
;	COMDAT pdata
pdata	SEGMENT
$pdata$??0DiyFp@internal@rapidjson@@QEAA@N@Z DD imagerel $LN5
	DD	imagerel $LN5+169
	DD	imagerel $unwind$??0DiyFp@internal@rapidjson@@QEAA@N@Z
pdata	ENDS
;	COMDAT pdata
pdata	SEGMENT
$pdata$??GDiyFp@internal@rapidjson@@QEBA?AU012@AEBU012@@Z DD imagerel $LN3
	DD	imagerel $LN3+70
	DD	imagerel $unwind$??GDiyFp@internal@rapidjson@@QEBA?AU012@AEBU012@@Z
pdata	ENDS
;	COMDAT pdata
pdata	SEGMENT
$pdata$??DDiyFp@internal@rapidjson@@QEBA?AU012@AEBU012@@Z DD imagerel $LN4
	DD	imagerel $LN4+148
	DD	imagerel $unwind$??DDiyFp@internal@rapidjson@@QEBA?AU012@AEBU012@@Z
pdata	ENDS
;	COMDAT pdata
pdata	SEGMENT
$pdata$?Normalize@DiyFp@internal@rapidjson@@QEBA?AU123@XZ DD imagerel $LN3
	DD	imagerel $LN3+100
	DD	imagerel $unwind$?Normalize@DiyFp@internal@rapidjson@@QEBA?AU123@XZ
pdata	ENDS
;	COMDAT pdata
pdata	SEGMENT
$pdata$?NormalizeBoundary@DiyFp@internal@rapidjson@@QEBA?AU123@XZ DD imagerel $LN5
	DD	imagerel $LN5+137
	DD	imagerel $unwind$?NormalizeBoundary@DiyFp@internal@rapidjson@@QEBA?AU123@XZ
pdata	ENDS
;	COMDAT pdata
pdata	SEGMENT
$pdata$?NormalizedBoundaries@DiyFp@internal@rapidjson@@QEBAXPEAU123@0@Z DD imagerel $LN5
	DD	imagerel $LN5+317
	DD	imagerel $unwind$?NormalizedBoundaries@DiyFp@internal@rapidjson@@QEBAXPEAU123@0@Z
pdata	ENDS
;	COMDAT pdata
pdata	SEGMENT
$pdata$?ToDouble@DiyFp@internal@rapidjson@@QEBANXZ DD imagerel $LN7
	DD	imagerel $LN7+182
	DD	imagerel $unwind$?ToDouble@DiyFp@internal@rapidjson@@QEBANXZ
pdata	ENDS
;	COMDAT pdata
pdata	SEGMENT
$pdata$?GetCachedPowerByIndex@internal@rapidjson@@YA?AUDiyFp@12@_K@Z DD imagerel $LN3
	DD	imagerel $LN3+69
	DD	imagerel $unwind$?GetCachedPowerByIndex@internal@rapidjson@@YA?AUDiyFp@12@_K@Z
pdata	ENDS
;	COMDAT pdata
pdata	SEGMENT
$pdata$?GetCachedPower@internal@rapidjson@@YA?AUDiyFp@12@HPEAH@Z DD imagerel $LN4
	DD	imagerel $LN4+161
	DD	imagerel $unwind$?GetCachedPower@internal@rapidjson@@YA?AUDiyFp@12@HPEAH@Z
pdata	ENDS
;	COMDAT pdata
pdata	SEGMENT
$pdata$?GetCachedPower10@internal@rapidjson@@YA?AUDiyFp@12@HPEAH@Z DD imagerel $LN3
	DD	imagerel $LN3+84
	DD	imagerel $unwind$?GetCachedPower10@internal@rapidjson@@YA?AUDiyFp@12@HPEAH@Z
pdata	ENDS
;	COMDAT pdata
pdata	SEGMENT
$pdata$?FastPath@internal@rapidjson@@YANNH@Z DD imagerel $LN7
	DD	imagerel $LN7+95
	DD	imagerel $unwind$?FastPath@internal@rapidjson@@YANNH@Z
pdata	ENDS
;	COMDAT pdata
pdata	SEGMENT
$pdata$?StrtodNormalPrecision@internal@rapidjson@@YANNH@Z DD imagerel $LN5
	DD	imagerel $LN5+108
	DD	imagerel $unwind$?StrtodNormalPrecision@internal@rapidjson@@YANNH@Z
pdata	ENDS
;	COMDAT pdata
pdata	SEGMENT
$pdata$?CheckWithinHalfULP@internal@rapidjson@@YAHNAEBVBigInteger@12@H@Z DD imagerel $LN9
	DD	imagerel $LN9+726
	DD	imagerel $unwind$?CheckWithinHalfULP@internal@rapidjson@@YAHNAEBVBigInteger@12@H@Z
pdata	ENDS
;	COMDAT pdata
pdata	SEGMENT
$pdata$??$Min3@H@internal@rapidjson@@YAHHHH@Z DD imagerel $LN5
	DD	imagerel $LN5+64
	DD	imagerel $unwind$??$Min3@H@internal@rapidjson@@YAHHHH@Z
pdata	ENDS
;	COMDAT pdata
pdata	SEGMENT
$pdata$?StrtodFast@internal@rapidjson@@YA_NNHPEAN@Z DD imagerel $LN6
	DD	imagerel $LN6+141
	DD	imagerel $unwind$?StrtodFast@internal@rapidjson@@YA_NNHPEAN@Z
pdata	ENDS
;	COMDAT pdata
pdata	SEGMENT
$pdata$?StrtodDiyFp@internal@rapidjson@@YA_NPEBDHHPEAN@Z DD imagerel $LN22
	DD	imagerel $LN22+1473
	DD	imagerel $unwind$?StrtodDiyFp@internal@rapidjson@@YA_NPEBDHHPEAN@Z
pdata	ENDS
;	COMDAT pdata
pdata	SEGMENT
$pdata$?dtor$0@?0??StrtodDiyFp@internal@rapidjson@@YA_NPEBDHHPEAN@Z@4HA DD imagerel ?dtor$0@?0??StrtodDiyFp@internal@rapidjson@@YA_NPEBDHHPEAN@Z@4HA
	DD	imagerel ?dtor$0@?0??StrtodDiyFp@internal@rapidjson@@YA_NPEBDHHPEAN@Z@4HA+27
	DD	imagerel $unwind$?dtor$0@?0??StrtodDiyFp@internal@rapidjson@@YA_NPEBDHHPEAN@Z@4HA
pdata	ENDS
;	COMDAT pdata
pdata	SEGMENT
$pdata$?StrtodBigInteger@internal@rapidjson@@YANNPEBDHH@Z DD imagerel $LN9
	DD	imagerel $LN9+234
	DD	imagerel $unwind$?StrtodBigInteger@internal@rapidjson@@YANNPEBDHH@Z
pdata	ENDS
;	COMDAT pdata
pdata	SEGMENT
$pdata$?StrtodFullPrecision@internal@rapidjson@@YANNHPEBD_K1H@Z DD imagerel $LN13
	DD	imagerel $LN13+391
	DD	imagerel $unwind$?StrtodFullPrecision@internal@rapidjson@@YANNHPEBD_K1H@Z
pdata	ENDS
;	COMDAT pdata
pdata	SEGMENT
$pdata$??BParseResult@rapidjson@@QEBAP801@EBA_NXZXZ DD imagerel $LN5
	DD	imagerel $LN5+59
	DD	imagerel $unwind$??BParseResult@rapidjson@@QEBAP801@EBA_NXZXZ
pdata	ENDS
;	COMDAT pdata
pdata	SEGMENT
$pdata$?IsError@ParseResult@rapidjson@@QEBA_NXZ DD imagerel $LN5
	DD	imagerel $LN5+44
	DD	imagerel $unwind$?IsError@ParseResult@rapidjson@@QEBA_NXZ
pdata	ENDS
;	COMDAT pdata
pdata	SEGMENT
$pdata$?Clear@ParseResult@rapidjson@@QEAAXXZ DD imagerel $LN3
	DD	imagerel $LN3+30
	DD	imagerel $unwind$?Clear@ParseResult@rapidjson@@QEAAXXZ
pdata	ENDS
;	COMDAT pdata
pdata	SEGMENT
$pdata$??$StrLen@D@internal@rapidjson@@YAIPEBD@Z DD imagerel $LN3
	DD	imagerel $LN3+24
	DD	imagerel $unwind$??$StrLen@D@internal@rapidjson@@YAIPEBD@Z
pdata	ENDS
;	COMDAT pdata
pdata	SEGMENT
$pdata$?u32toa@internal@rapidjson@@YAPEADIPEAD@Z DD imagerel $LN15
	DD	imagerel $LN15+1511
	DD	imagerel $unwind$?u32toa@internal@rapidjson@@YAPEADIPEAD@Z
pdata	ENDS
;	COMDAT pdata
pdata	SEGMENT
$pdata$?i32toa@internal@rapidjson@@YAPEADHPEAD@Z DD imagerel $LN4
	DD	imagerel $LN4+80
	DD	imagerel $unwind$?i32toa@internal@rapidjson@@YAPEADHPEAD@Z
pdata	ENDS
;	COMDAT pdata
pdata	SEGMENT
$pdata$?u64toa@internal@rapidjson@@YAPEAD_KPEAD@Z DD imagerel $LN28
	DD	imagerel $LN28+3917
	DD	imagerel $unwind$?u64toa@internal@rapidjson@@YAPEAD_KPEAD@Z
pdata	ENDS
;	COMDAT pdata
pdata	SEGMENT
$pdata$?i64toa@internal@rapidjson@@YAPEAD_JPEAD@Z DD imagerel $LN4
	DD	imagerel $LN4+89
	DD	imagerel $unwind$?i64toa@internal@rapidjson@@YAPEAD_JPEAD@Z
pdata	ENDS
;	COMDAT pdata
pdata	SEGMENT
$pdata$?DigitGen@internal@rapidjson@@YAXAEBUDiyFp@12@0_KPEADPEAH3@Z DD imagerel $LN29
	DD	imagerel $LN29+1220
	DD	imagerel $unwind$?DigitGen@internal@rapidjson@@YAXAEBUDiyFp@12@0_KPEADPEAH3@Z
pdata	ENDS
;	COMDAT pdata
pdata	SEGMENT
$pdata$?Grisu2@internal@rapidjson@@YAXNPEADPEAH1@Z DD imagerel $LN3
	DD	imagerel $LN3+312
	DD	imagerel $unwind$?Grisu2@internal@rapidjson@@YAXNPEADPEAH1@Z
pdata	ENDS
;	COMDAT pdata
pdata	SEGMENT
$pdata$?WriteExponent@internal@rapidjson@@YAPEADHPEAD@Z DD imagerel $LN8
	DD	imagerel $LN8+366
	DD	imagerel $unwind$?WriteExponent@internal@rapidjson@@YAPEADHPEAD@Z
pdata	ENDS
;	COMDAT pdata
pdata	SEGMENT
$pdata$?Prettify@internal@rapidjson@@YAPEADPEADHHH@Z DD imagerel $LN31
	DD	imagerel $LN31+1074
	DD	imagerel $unwind$?Prettify@internal@rapidjson@@YAPEADPEADHHH@Z
pdata	ENDS
;	COMDAT pdata
pdata	SEGMENT
$pdata$?dtoa@internal@rapidjson@@YAPEADNPEADH@Z DD imagerel $LN7
	DD	imagerel $LN7+276
	DD	imagerel $unwind$?dtoa@internal@rapidjson@@YAPEADNPEADH@Z
pdata	ENDS
;	COMDAT pdata
pdata	SEGMENT
$pdata$??$PutN@V?$GenericStringBuffer@U?$UTF8@D@rapidjson@@VCrtAllocator@2@@rapidjson@@D@rapidjson@@YAXAEAV?$GenericStringBuffer@U?$UTF8@D@rapidjson@@VCrtAllocator@2@@0@D_K@Z DD imagerel $LN3
	DD	imagerel $LN3+77
	DD	imagerel $unwind$??$PutN@V?$GenericStringBuffer@U?$UTF8@D@rapidjson@@VCrtAllocator@2@@rapidjson@@D@rapidjson@@YAXAEAV?$GenericStringBuffer@U?$UTF8@D@rapidjson@@VCrtAllocator@2@@0@D_K@Z
pdata	ENDS
;	COMDAT pdata
pdata	SEGMENT
$pdata$??0?$GenericStringBuffer@U?$UTF8@D@rapidjson@@VCrtAllocator@2@@rapidjson@@QEAA@PEAVCrtAllocator@1@_K@Z DD imagerel $LN4
	DD	imagerel $LN4+60
	DD	imagerel $unwind$??0?$GenericStringBuffer@U?$UTF8@D@rapidjson@@VCrtAllocator@2@@rapidjson@@QEAA@PEAVCrtAllocator@1@_K@Z
pdata	ENDS
;	COMDAT pdata
pdata	SEGMENT
$pdata$?dtor$0@?0???0?$GenericStringBuffer@U?$UTF8@D@rapidjson@@VCrtAllocator@2@@rapidjson@@QEAA@PEAVCrtAllocator@1@_K@Z@4HA DD imagerel ?dtor$0@?0???0?$GenericStringBuffer@U?$UTF8@D@rapidjson@@VCrtAllocator@2@@rapidjson@@QEAA@PEAVCrtAllocator@1@_K@Z@4HA
	DD	imagerel ?dtor$0@?0???0?$GenericStringBuffer@U?$UTF8@D@rapidjson@@VCrtAllocator@2@@rapidjson@@QEAA@PEAVCrtAllocator@1@_K@Z@4HA+24
	DD	imagerel $unwind$?dtor$0@?0???0?$GenericStringBuffer@U?$UTF8@D@rapidjson@@VCrtAllocator@2@@rapidjson@@QEAA@PEAVCrtAllocator@1@_K@Z@4HA
pdata	ENDS
;	COMDAT pdata
pdata	SEGMENT
$pdata$?Put@?$GenericStringBuffer@U?$UTF8@D@rapidjson@@VCrtAllocator@2@@rapidjson@@QEAAXD@Z DD imagerel $LN3
	DD	imagerel $LN3+50
	DD	imagerel $unwind$?Put@?$GenericStringBuffer@U?$UTF8@D@rapidjson@@VCrtAllocator@2@@rapidjson@@QEAAXD@Z
pdata	ENDS
;	COMDAT pdata
pdata	SEGMENT
$pdata$?PutUnsafe@?$GenericStringBuffer@U?$UTF8@D@rapidjson@@VCrtAllocator@2@@rapidjson@@QEAAXD@Z DD imagerel $LN3
	DD	imagerel $LN3+50
	DD	imagerel $unwind$?PutUnsafe@?$GenericStringBuffer@U?$UTF8@D@rapidjson@@VCrtAllocator@2@@rapidjson@@QEAAXD@Z
pdata	ENDS
;	COMDAT pdata
pdata	SEGMENT
$pdata$?Reserve@?$GenericStringBuffer@U?$UTF8@D@rapidjson@@VCrtAllocator@2@@rapidjson@@QEAAX_K@Z DD imagerel $LN3
	DD	imagerel $LN3+45
	DD	imagerel $unwind$?Reserve@?$GenericStringBuffer@U?$UTF8@D@rapidjson@@VCrtAllocator@2@@rapidjson@@QEAAX_K@Z
pdata	ENDS
;	COMDAT pdata
pdata	SEGMENT
$pdata$?Push@?$GenericStringBuffer@U?$UTF8@D@rapidjson@@VCrtAllocator@2@@rapidjson@@QEAAPEAD_K@Z DD imagerel $LN3
	DD	imagerel $LN3+44
	DD	imagerel $unwind$?Push@?$GenericStringBuffer@U?$UTF8@D@rapidjson@@VCrtAllocator@2@@rapidjson@@QEAAPEAD_K@Z
pdata	ENDS
;	COMDAT pdata
pdata	SEGMENT
$pdata$?Pop@?$GenericStringBuffer@U?$UTF8@D@rapidjson@@VCrtAllocator@2@@rapidjson@@QEAAX_K@Z DD imagerel $LN3
	DD	imagerel $LN3+45
	DD	imagerel $unwind$?Pop@?$GenericStringBuffer@U?$UTF8@D@rapidjson@@VCrtAllocator@2@@rapidjson@@QEAAX_K@Z
pdata	ENDS
;	COMDAT pdata
pdata	SEGMENT
$pdata$?GetString@?$GenericStringBuffer@U?$UTF8@D@rapidjson@@VCrtAllocator@2@@rapidjson@@QEBAPEBDXZ DD imagerel $LN3
	DD	imagerel $LN3+80
	DD	imagerel $unwind$?GetString@?$GenericStringBuffer@U?$UTF8@D@rapidjson@@VCrtAllocator@2@@rapidjson@@QEBAPEBDXZ
pdata	ENDS
;	COMDAT pdata
pdata	SEGMENT
$pdata$?GetLength@?$GenericStringBuffer@U?$UTF8@D@rapidjson@@VCrtAllocator@2@@rapidjson@@QEBA_KXZ DD imagerel $LN3
	DD	imagerel $LN3+27
	DD	imagerel $unwind$?GetLength@?$GenericStringBuffer@U?$UTF8@D@rapidjson@@VCrtAllocator@2@@rapidjson@@QEBA_KXZ
pdata	ENDS
;	COMDAT pdata
pdata	SEGMENT
$pdata$??1?$Stack@VCrtAllocator@rapidjson@@@internal@rapidjson@@QEAA@XZ DD imagerel $LN3
	DD	imagerel $LN3+25
	DD	imagerel $unwind$??1?$Stack@VCrtAllocator@rapidjson@@@internal@rapidjson@@QEAA@XZ
pdata	ENDS
;	COMDAT pdata
pdata	SEGMENT
$pdata$?ShrinkToFit@?$Stack@VCrtAllocator@rapidjson@@@internal@rapidjson@@QEAAXXZ DD imagerel $LN5
	DD	imagerel $LN5+110
	DD	imagerel $unwind$?ShrinkToFit@?$Stack@VCrtAllocator@rapidjson@@@internal@rapidjson@@QEAAXXZ
pdata	ENDS
;	COMDAT pdata
pdata	SEGMENT
$pdata$?HasAllocator@?$Stack@VCrtAllocator@rapidjson@@@internal@rapidjson@@QEBA_NXZ DD imagerel $LN5
	DD	imagerel $LN5+45
	DD	imagerel $unwind$?HasAllocator@?$Stack@VCrtAllocator@rapidjson@@@internal@rapidjson@@QEBA_NXZ
pdata	ENDS
;	COMDAT pdata
pdata	SEGMENT
$pdata$?Empty@?$Stack@VCrtAllocator@rapidjson@@@internal@rapidjson@@QEBA_NXZ DD imagerel $LN5
	DD	imagerel $LN5+54
	DD	imagerel $unwind$?Empty@?$Stack@VCrtAllocator@rapidjson@@@internal@rapidjson@@QEBA_NXZ
pdata	ENDS
;	COMDAT pdata
pdata	SEGMENT
$pdata$?Resize@?$Stack@VCrtAllocator@rapidjson@@@internal@rapidjson@@AEAAX_K@Z DD imagerel $LN3
	DD	imagerel $LN3+156
	DD	imagerel $unwind$?Resize@?$Stack@VCrtAllocator@rapidjson@@@internal@rapidjson@@AEAAX_K@Z
pdata	ENDS
;	COMDAT pdata
pdata	SEGMENT
$pdata$?Destroy@?$Stack@VCrtAllocator@rapidjson@@@internal@rapidjson@@AEAAXXZ DD imagerel $LN3
	DD	imagerel $LN3+59
	DD	imagerel $unwind$?Destroy@?$Stack@VCrtAllocator@rapidjson@@@internal@rapidjson@@AEAAXXZ
pdata	ENDS
;	COMDAT pdata
pdata	SEGMENT
$pdata$??1?$GenericStringBuffer@U?$UTF8@D@rapidjson@@VCrtAllocator@2@@rapidjson@@QEAA@XZ DD imagerel $LN4
	DD	imagerel $LN4+28
	DD	imagerel $unwind$??1?$GenericStringBuffer@U?$UTF8@D@rapidjson@@VCrtAllocator@2@@rapidjson@@QEAA@XZ
pdata	ENDS
;	COMDAT pdata
pdata	SEGMENT
$pdata$?dtor$0@?0???1?$GenericStringBuffer@U?$UTF8@D@rapidjson@@VCrtAllocator@2@@rapidjson@@QEAA@XZ@4HA DD imagerel ?dtor$0@?0???1?$GenericStringBuffer@U?$UTF8@D@rapidjson@@VCrtAllocator@2@@rapidjson@@QEAA@XZ@4HA
	DD	imagerel ?dtor$0@?0???1?$GenericStringBuffer@U?$UTF8@D@rapidjson@@VCrtAllocator@2@@rapidjson@@QEAA@XZ@4HA+24
	DD	imagerel $unwind$?dtor$0@?0???1?$GenericStringBuffer@U?$UTF8@D@rapidjson@@VCrtAllocator@2@@rapidjson@@QEAA@XZ@4HA
pdata	ENDS
;	COMDAT pdata
pdata	SEGMENT
$pdata$??_G?$GenericStringBuffer@U?$UTF8@D@rapidjson@@VCrtAllocator@2@@rapidjson@@QEAAPEAXI@Z DD imagerel $LN4
	DD	imagerel $LN4+60
	DD	imagerel $unwind$??_G?$GenericStringBuffer@U?$UTF8@D@rapidjson@@VCrtAllocator@2@@rapidjson@@QEAAPEAXI@Z
pdata	ENDS
;	COMDAT pdata
pdata	SEGMENT
$pdata$??$Push@D@?$Stack@VCrtAllocator@rapidjson@@@internal@rapidjson@@QEAAPEAD_K@Z DD imagerel $LN3
	DD	imagerel $LN3+49
	DD	imagerel $unwind$??$Push@D@?$Stack@VCrtAllocator@rapidjson@@@internal@rapidjson@@QEAAPEAD_K@Z
pdata	ENDS
;	COMDAT pdata
pdata	SEGMENT
$pdata$??0?$Writer@V?$GenericStringBuffer@U?$UTF8@D@rapidjson@@VCrtAllocator@2@@rapidjson@@U?$UTF8@D@2@U32@VCrtAllocator@2@$0A@@rapidjson@@QEAA@AEAV?$GenericStringBuffer@U?$UTF8@D@rapidjson@@VCrtAllocator@2@@1@PEAVCrtAllocator@1@_K@Z DD imagerel $LN4
	DD	imagerel $LN4+107
	DD	imagerel $unwind$??0?$Writer@V?$GenericStringBuffer@U?$UTF8@D@rapidjson@@VCrtAllocator@2@@rapidjson@@U?$UTF8@D@2@U32@VCrtAllocator@2@$0A@@rapidjson@@QEAA@AEAV?$GenericStringBuffer@U?$UTF8@D@rapidjson@@VCrtAllocator@2@@1@PEAVCrtAllocator@1@_K@Z
pdata	ENDS
;	COMDAT pdata
pdata	SEGMENT
$pdata$?dtor$0@?0???0?$Writer@V?$GenericStringBuffer@U?$UTF8@D@rapidjson@@VCrtAllocator@2@@rapidjson@@U?$UTF8@D@2@U32@VCrtAllocator@2@$0A@@rapidjson@@QEAA@AEAV?$GenericStringBuffer@U?$UTF8@D@rapidjson@@VCrtAllocator@2@@1@PEAVCrtAllocator@1@_K@Z@4HA DD imagerel ?dtor$0@?0???0?$Writer@V?$GenericStringBuffer@U?$UTF8@D@rapidjson@@VCrtAllocator@2@@rapidjson@@U?$UTF8@D@2@U32@VCrtAllocator@2@$0A@@rapidjson@@QEAA@AEAV?$GenericStringBuffer@U?$UTF8@D@rapidjson@@VCrtAllocator@2@@1@PEAVCrtAllocator@1@_K@Z@4HA
	DD	imagerel ?dtor$0@?0???0?$Writer@V?$GenericStringBuffer@U?$UTF8@D@rapidjson@@VCrtAllocator@2@@rapidjson@@U?$UTF8@D@2@U32@VCrtAllocator@2@$0A@@rapidjson@@QEAA@AEAV?$GenericStringBuffer@U?$UTF8@D@rapidjson@@VCrtAllocator@2@@1@PEAVCrtAllocator@1@_K@Z@4HA+28
	DD	imagerel $unwind$?dtor$0@?0???0?$Writer@V?$GenericStringBuffer@U?$UTF8@D@rapidjson@@VCrtAllocator@2@@rapidjson@@U?$UTF8@D@2@U32@VCrtAllocator@2@$0A@@rapidjson@@QEAA@AEAV?$GenericStringBuffer@U?$UTF8@D@rapidjson@@VCrtAllocator@2@@1@PEAVCrtAllocator@1@_K@Z@4HA
pdata	ENDS
;	COMDAT pdata
pdata	SEGMENT
$pdata$?Flush@?$Writer@V?$GenericStringBuffer@U?$UTF8@D@rapidjson@@VCrtAllocator@2@@rapidjson@@U?$UTF8@D@2@U32@VCrtAllocator@2@$0A@@rapidjson@@QEAAXXZ DD imagerel $LN3
	DD	imagerel $LN3+28
	DD	imagerel $unwind$?Flush@?$Writer@V?$GenericStringBuffer@U?$UTF8@D@rapidjson@@VCrtAllocator@2@@rapidjson@@U?$UTF8@D@2@U32@VCrtAllocator@2@$0A@@rapidjson@@QEAAXXZ
pdata	ENDS
;	COMDAT pdata
pdata	SEGMENT
$pdata$?WriteNull@?$Writer@V?$GenericStringBuffer@U?$UTF8@D@rapidjson@@VCrtAllocator@2@@rapidjson@@U?$UTF8@D@2@U32@VCrtAllocator@2@$0A@@rapidjson@@IEAA_NXZ DD imagerel $LN3
	DD	imagerel $LN3+94
	DD	imagerel $unwind$?WriteNull@?$Writer@V?$GenericStringBuffer@U?$UTF8@D@rapidjson@@VCrtAllocator@2@@rapidjson@@U?$UTF8@D@2@U32@VCrtAllocator@2@$0A@@rapidjson@@IEAA_NXZ
pdata	ENDS
;	COMDAT pdata
pdata	SEGMENT
$pdata$?WriteBool@?$Writer@V?$GenericStringBuffer@U?$UTF8@D@rapidjson@@VCrtAllocator@2@@rapidjson@@U?$UTF8@D@2@U32@VCrtAllocator@2@$0A@@rapidjson@@IEAA_N_N@Z DD imagerel $LN5
	DD	imagerel $LN5+204
	DD	imagerel $unwind$?WriteBool@?$Writer@V?$GenericStringBuffer@U?$UTF8@D@rapidjson@@VCrtAllocator@2@@rapidjson@@U?$UTF8@D@2@U32@VCrtAllocator@2@$0A@@rapidjson@@IEAA_N_N@Z
pdata	ENDS
;	COMDAT pdata
pdata	SEGMENT
$pdata$?WriteInt@?$Writer@V?$GenericStringBuffer@U?$UTF8@D@rapidjson@@VCrtAllocator@2@@rapidjson@@U?$UTF8@D@2@U32@VCrtAllocator@2@$0A@@rapidjson@@IEAA_NH@Z DD imagerel $LN3
	DD	imagerel $LN3+125
	DD	imagerel $unwind$?WriteInt@?$Writer@V?$GenericStringBuffer@U?$UTF8@D@rapidjson@@VCrtAllocator@2@@rapidjson@@U?$UTF8@D@2@U32@VCrtAllocator@2@$0A@@rapidjson@@IEAA_NH@Z
pdata	ENDS
;	COMDAT pdata
pdata	SEGMENT
$pdata$?WriteUint@?$Writer@V?$GenericStringBuffer@U?$UTF8@D@rapidjson@@VCrtAllocator@2@@rapidjson@@U?$UTF8@D@2@U32@VCrtAllocator@2@$0A@@rapidjson@@IEAA_NI@Z DD imagerel $LN3
	DD	imagerel $LN3+125
	DD	imagerel $unwind$?WriteUint@?$Writer@V?$GenericStringBuffer@U?$UTF8@D@rapidjson@@VCrtAllocator@2@@rapidjson@@U?$UTF8@D@2@U32@VCrtAllocator@2@$0A@@rapidjson@@IEAA_NI@Z
pdata	ENDS
;	COMDAT pdata
pdata	SEGMENT
$pdata$?WriteInt64@?$Writer@V?$GenericStringBuffer@U?$UTF8@D@rapidjson@@VCrtAllocator@2@@rapidjson@@U?$UTF8@D@2@U32@VCrtAllocator@2@$0A@@rapidjson@@IEAA_N_J@Z DD imagerel $LN3
	DD	imagerel $LN3+127
	DD	imagerel $unwind$?WriteInt64@?$Writer@V?$GenericStringBuffer@U?$UTF8@D@rapidjson@@VCrtAllocator@2@@rapidjson@@U?$UTF8@D@2@U32@VCrtAllocator@2@$0A@@rapidjson@@IEAA_N_J@Z
pdata	ENDS
;	COMDAT pdata
pdata	SEGMENT
$pdata$?WriteUint64@?$Writer@V?$GenericStringBuffer@U?$UTF8@D@rapidjson@@VCrtAllocator@2@@rapidjson@@U?$UTF8@D@2@U32@VCrtAllocator@2@$0A@@rapidjson@@IEAA_N_K@Z DD imagerel $LN3
	DD	imagerel $LN3+127
	DD	imagerel $unwind$?WriteUint64@?$Writer@V?$GenericStringBuffer@U?$UTF8@D@rapidjson@@VCrtAllocator@2@@rapidjson@@U?$UTF8@D@2@U32@VCrtAllocator@2@$0A@@rapidjson@@IEAA_N_K@Z
pdata	ENDS
;	COMDAT pdata
pdata	SEGMENT
$pdata$?WriteDouble@?$Writer@V?$GenericStringBuffer@U?$UTF8@D@rapidjson@@VCrtAllocator@2@@rapidjson@@U?$UTF8@D@2@U32@VCrtAllocator@2@$0A@@rapidjson@@IEAA_NN@Z DD imagerel $LN8
	DD	imagerel $LN8+498
	DD	imagerel $unwind$?WriteDouble@?$Writer@V?$GenericStringBuffer@U?$UTF8@D@rapidjson@@VCrtAllocator@2@@rapidjson@@U?$UTF8@D@2@U32@VCrtAllocator@2@$0A@@rapidjson@@IEAA_NN@Z
pdata	ENDS
;	COMDAT pdata
pdata	SEGMENT
$pdata$?WriteString@?$Writer@V?$GenericStringBuffer@U?$UTF8@D@rapidjson@@VCrtAllocator@2@@rapidjson@@U?$UTF8@D@2@U32@VCrtAllocator@2@$0A@@rapidjson@@IEAA_NPEBDI@Z DD imagerel $LN19
	DD	imagerel $LN19+1082
	DD	imagerel $unwind$?WriteString@?$Writer@V?$GenericStringBuffer@U?$UTF8@D@rapidjson@@VCrtAllocator@2@@rapidjson@@U?$UTF8@D@2@U32@VCrtAllocator@2@$0A@@rapidjson@@IEAA_NPEBDI@Z
pdata	ENDS
;	COMDAT pdata
pdata	SEGMENT
$pdata$?ScanWriteUnescapedString@?$Writer@V?$GenericStringBuffer@U?$UTF8@D@rapidjson@@VCrtAllocator@2@@rapidjson@@U?$UTF8@D@2@U32@VCrtAllocator@2@$0A@@rapidjson@@IEAA_NAEAU?$GenericStringStream@U?$UTF8@D@rapidjson@@@2@_K@Z DD imagerel $LN5
	DD	imagerel $LN5+64
	DD	imagerel $unwind$?ScanWriteUnescapedString@?$Writer@V?$GenericStringBuffer@U?$UTF8@D@rapidjson@@VCrtAllocator@2@@rapidjson@@U?$UTF8@D@2@U32@VCrtAllocator@2@$0A@@rapidjson@@IEAA_NAEAU?$GenericStringStream@U?$UTF8@D@rapidjson@@@2@_K@Z
pdata	ENDS
;	COMDAT pdata
pdata	SEGMENT
$pdata$?WriteStartObject@?$Writer@V?$GenericStringBuffer@U?$UTF8@D@rapidjson@@VCrtAllocator@2@@rapidjson@@U?$UTF8@D@2@U32@VCrtAllocator@2@$0A@@rapidjson@@IEAA_NXZ DD imagerel $LN3
	DD	imagerel $LN3+41
	DD	imagerel $unwind$?WriteStartObject@?$Writer@V?$GenericStringBuffer@U?$UTF8@D@rapidjson@@VCrtAllocator@2@@rapidjson@@U?$UTF8@D@2@U32@VCrtAllocator@2@$0A@@rapidjson@@IEAA_NXZ
pdata	ENDS
;	COMDAT pdata
pdata	SEGMENT
$pdata$?WriteEndObject@?$Writer@V?$GenericStringBuffer@U?$UTF8@D@rapidjson@@VCrtAllocator@2@@rapidjson@@U?$UTF8@D@2@U32@VCrtAllocator@2@$0A@@rapidjson@@IEAA_NXZ DD imagerel $LN3
	DD	imagerel $LN3+41
	DD	imagerel $unwind$?WriteEndObject@?$Writer@V?$GenericStringBuffer@U?$UTF8@D@rapidjson@@VCrtAllocator@2@@rapidjson@@U?$UTF8@D@2@U32@VCrtAllocator@2@$0A@@rapidjson@@IEAA_NXZ
pdata	ENDS
;	COMDAT pdata
pdata	SEGMENT
$pdata$?WriteStartArray@?$Writer@V?$GenericStringBuffer@U?$UTF8@D@rapidjson@@VCrtAllocator@2@@rapidjson@@U?$UTF8@D@2@U32@VCrtAllocator@2@$0A@@rapidjson@@IEAA_NXZ DD imagerel $LN3
	DD	imagerel $LN3+41
	DD	imagerel $unwind$?WriteStartArray@?$Writer@V?$GenericStringBuffer@U?$UTF8@D@rapidjson@@VCrtAllocator@2@@rapidjson@@U?$UTF8@D@2@U32@VCrtAllocator@2@$0A@@rapidjson@@IEAA_NXZ
pdata	ENDS
;	COMDAT pdata
pdata	SEGMENT
$pdata$?WriteEndArray@?$Writer@V?$GenericStringBuffer@U?$UTF8@D@rapidjson@@VCrtAllocator@2@@rapidjson@@U?$UTF8@D@2@U32@VCrtAllocator@2@$0A@@rapidjson@@IEAA_NXZ DD imagerel $LN3
	DD	imagerel $LN3+41
	DD	imagerel $unwind$?WriteEndArray@?$Writer@V?$GenericStringBuffer@U?$UTF8@D@rapidjson@@VCrtAllocator@2@@rapidjson@@U?$UTF8@D@2@U32@VCrtAllocator@2@$0A@@rapidjson@@IEAA_NXZ
pdata	ENDS
;	COMDAT pdata
pdata	SEGMENT
$pdata$?EndValue@?$Writer@V?$GenericStringBuffer@U?$UTF8@D@rapidjson@@VCrtAllocator@2@@rapidjson@@U?$UTF8@D@2@U32@VCrtAllocator@2@$0A@@rapidjson@@IEAA_N_N@Z DD imagerel $LN4
	DD	imagerel $LN4+58
	DD	imagerel $unwind$?EndValue@?$Writer@V?$GenericStringBuffer@U?$UTF8@D@rapidjson@@VCrtAllocator@2@@rapidjson@@U?$UTF8@D@2@U32@VCrtAllocator@2@$0A@@rapidjson@@IEAA_N_N@Z
pdata	ENDS
;	COMDAT pdata
pdata	SEGMENT
$pdata$??1?$Writer@V?$GenericStringBuffer@U?$UTF8@D@rapidjson@@VCrtAllocator@2@@rapidjson@@U?$UTF8@D@2@U32@VCrtAllocator@2@$0A@@rapidjson@@QEAA@XZ DD imagerel $LN4
	DD	imagerel $LN4+32
	DD	imagerel $unwind$??1?$Writer@V?$GenericStringBuffer@U?$UTF8@D@rapidjson@@VCrtAllocator@2@@rapidjson@@U?$UTF8@D@2@U32@VCrtAllocator@2@$0A@@rapidjson@@QEAA@XZ
pdata	ENDS
;	COMDAT pdata
pdata	SEGMENT
$pdata$?dtor$0@?0???1?$Writer@V?$GenericStringBuffer@U?$UTF8@D@rapidjson@@VCrtAllocator@2@@rapidjson@@U?$UTF8@D@2@U32@VCrtAllocator@2@$0A@@rapidjson@@QEAA@XZ@4HA DD imagerel ?dtor$0@?0???1?$Writer@V?$GenericStringBuffer@U?$UTF8@D@rapidjson@@VCrtAllocator@2@@rapidjson@@U?$UTF8@D@2@U32@VCrtAllocator@2@$0A@@rapidjson@@QEAA@XZ@4HA
	DD	imagerel ?dtor$0@?0???1?$Writer@V?$GenericStringBuffer@U?$UTF8@D@rapidjson@@VCrtAllocator@2@@rapidjson@@U?$UTF8@D@2@U32@VCrtAllocator@2@$0A@@rapidjson@@QEAA@XZ@4HA+28
	DD	imagerel $unwind$?dtor$0@?0???1?$Writer@V?$GenericStringBuffer@U?$UTF8@D@rapidjson@@VCrtAllocator@2@@rapidjson@@U?$UTF8@D@2@U32@VCrtAllocator@2@$0A@@rapidjson@@QEAA@XZ@4HA
pdata	ENDS
;	COMDAT pdata
pdata	SEGMENT
$pdata$??$PutReserve@U?$UTF8@D@rapidjson@@VCrtAllocator@2@@rapidjson@@YAXAEAV?$GenericStringBuffer@U?$UTF8@D@rapidjson@@VCrtAllocator@2@@0@_K@Z DD imagerel $LN3
	DD	imagerel $LN3+35
	DD	imagerel $unwind$??$PutReserve@U?$UTF8@D@rapidjson@@VCrtAllocator@2@@rapidjson@@YAXAEAV?$GenericStringBuffer@U?$UTF8@D@rapidjson@@VCrtAllocator@2@@0@_K@Z
pdata	ENDS
;	COMDAT pdata
pdata	SEGMENT
$pdata$??$PutUnsafe@U?$UTF8@D@rapidjson@@VCrtAllocator@2@@rapidjson@@YAXAEAV?$GenericStringBuffer@U?$UTF8@D@rapidjson@@VCrtAllocator@2@@0@D@Z DD imagerel $LN3
	DD	imagerel $LN3+34
	DD	imagerel $unwind$??$PutUnsafe@U?$UTF8@D@rapidjson@@VCrtAllocator@2@@rapidjson@@YAXAEAV?$GenericStringBuffer@U?$UTF8@D@rapidjson@@VCrtAllocator@2@@0@D@Z
pdata	ENDS
;	COMDAT pdata
pdata	SEGMENT
$pdata$??9?$GenericMemberIterator@$0A@U?$UTF8@D@rapidjson@@V?$MemoryPoolAllocator@VCrtAllocator@rapidjson@@@2@@rapidjson@@QEBA_NV?$GenericMemberIterator@$00U?$UTF8@D@rapidjson@@V?$MemoryPoolAllocator@VCrtAllocator@rapidjson@@@2@@1@@Z DD imagerel $LN5
	DD	imagerel $LN5+54
	DD	imagerel $unwind$??9?$GenericMemberIterator@$0A@U?$UTF8@D@rapidjson@@V?$MemoryPoolAllocator@VCrtAllocator@rapidjson@@@2@@rapidjson@@QEBA_NV?$GenericMemberIterator@$00U?$UTF8@D@rapidjson@@V?$MemoryPoolAllocator@VCrtAllocator@rapidjson@@@2@@1@@Z
pdata	ENDS
;	COMDAT pdata
pdata	SEGMENT
$pdata$??H?$GenericMemberIterator@$00U?$UTF8@D@rapidjson@@V?$MemoryPoolAllocator@VCrtAllocator@rapidjson@@@2@@rapidjson@@QEBA?AV01@_J@Z DD imagerel $LN3
	DD	imagerel $LN3+56
	DD	imagerel $unwind$??H?$GenericMemberIterator@$00U?$UTF8@D@rapidjson@@V?$MemoryPoolAllocator@VCrtAllocator@rapidjson@@@2@@rapidjson@@QEBA?AV01@_J@Z
pdata	ENDS
;	COMDAT pdata
pdata	SEGMENT
$pdata$??9?$GenericMemberIterator@$00U?$UTF8@D@rapidjson@@V?$MemoryPoolAllocator@VCrtAllocator@rapidjson@@@2@@rapidjson@@QEBA_NV01@@Z DD imagerel $LN5
	DD	imagerel $LN5+54
	DD	imagerel $unwind$??9?$GenericMemberIterator@$00U?$UTF8@D@rapidjson@@V?$MemoryPoolAllocator@VCrtAllocator@rapidjson@@@2@@rapidjson@@QEBA_NV01@@Z
pdata	ENDS
;	COMDAT pdata
pdata	SEGMENT
$pdata$??M?$GenericMemberIterator@$00U?$UTF8@D@rapidjson@@V?$MemoryPoolAllocator@VCrtAllocator@rapidjson@@@2@@rapidjson@@QEBA_NV01@@Z DD imagerel $LN5
	DD	imagerel $LN5+54
	DD	imagerel $unwind$??M?$GenericMemberIterator@$00U?$UTF8@D@rapidjson@@V?$MemoryPoolAllocator@VCrtAllocator@rapidjson@@@2@@rapidjson@@QEBA_NV01@@Z
pdata	ENDS
;	COMDAT pdata
pdata	SEGMENT
$pdata$??0?$GenericValue@U?$UTF8@D@rapidjson@@V?$MemoryPoolAllocator@VCrtAllocator@rapidjson@@@2@@rapidjson@@QEAA@XZ DD imagerel $LN3
	DD	imagerel $LN3+43
	DD	imagerel $unwind$??0?$GenericValue@U?$UTF8@D@rapidjson@@V?$MemoryPoolAllocator@VCrtAllocator@rapidjson@@@2@@rapidjson@@QEAA@XZ
pdata	ENDS
;	COMDAT pdata
pdata	SEGMENT
$pdata$??0?$GenericValue@U?$UTF8@D@rapidjson@@V?$MemoryPoolAllocator@VCrtAllocator@rapidjson@@@2@@rapidjson@@QEAA@W4Type@1@@Z DD imagerel $LN4
	DD	imagerel $LN4+99
	DD	imagerel $unwind$??0?$GenericValue@U?$UTF8@D@rapidjson@@V?$MemoryPoolAllocator@VCrtAllocator@rapidjson@@@2@@rapidjson@@QEAA@W4Type@1@@Z
pdata	ENDS
;	COMDAT pdata
pdata	SEGMENT
$pdata$??0?$GenericValue@U?$UTF8@D@rapidjson@@V?$MemoryPoolAllocator@VCrtAllocator@rapidjson@@@2@@rapidjson@@QEAA@H@Z DD imagerel $LN5
	DD	imagerel $LN5+93
	DD	imagerel $unwind$??0?$GenericValue@U?$UTF8@D@rapidjson@@V?$MemoryPoolAllocator@VCrtAllocator@rapidjson@@@2@@rapidjson@@QEAA@H@Z
pdata	ENDS
;	COMDAT pdata
pdata	SEGMENT
$pdata$??0?$GenericValue@U?$UTF8@D@rapidjson@@V?$MemoryPoolAllocator@VCrtAllocator@rapidjson@@@2@@rapidjson@@QEAA@I@Z DD imagerel $LN5
	DD	imagerel $LN5+98
	DD	imagerel $unwind$??0?$GenericValue@U?$UTF8@D@rapidjson@@V?$MemoryPoolAllocator@VCrtAllocator@rapidjson@@@2@@rapidjson@@QEAA@I@Z
pdata	ENDS
;	COMDAT pdata
pdata	SEGMENT
$pdata$??0?$GenericValue@U?$UTF8@D@rapidjson@@V?$MemoryPoolAllocator@VCrtAllocator@rapidjson@@@2@@rapidjson@@QEAA@_J@Z DD imagerel $LN8
	DD	imagerel $LN8+213
	DD	imagerel $unwind$??0?$GenericValue@U?$UTF8@D@rapidjson@@V?$MemoryPoolAllocator@VCrtAllocator@rapidjson@@@2@@rapidjson@@QEAA@_J@Z
pdata	ENDS
;	COMDAT pdata
pdata	SEGMENT
$pdata$??0?$GenericValue@U?$UTF8@D@rapidjson@@V?$MemoryPoolAllocator@VCrtAllocator@rapidjson@@@2@@rapidjson@@QEAA@_K@Z DD imagerel $LN6
	DD	imagerel $LN6+196
	DD	imagerel $unwind$??0?$GenericValue@U?$UTF8@D@rapidjson@@V?$MemoryPoolAllocator@VCrtAllocator@rapidjson@@@2@@rapidjson@@QEAA@_K@Z
pdata	ENDS
;	COMDAT pdata
pdata	SEGMENT
$pdata$??0?$GenericValue@U?$UTF8@D@rapidjson@@V?$MemoryPoolAllocator@VCrtAllocator@rapidjson@@@2@@rapidjson@@QEAA@N@Z DD imagerel $LN3
	DD	imagerel $LN3+67
	DD	imagerel $unwind$??0?$GenericValue@U?$UTF8@D@rapidjson@@V?$MemoryPoolAllocator@VCrtAllocator@rapidjson@@@2@@rapidjson@@QEAA@N@Z
pdata	ENDS
;	COMDAT pdata
pdata	SEGMENT
$pdata$??0?$GenericValue@U?$UTF8@D@rapidjson@@V?$MemoryPoolAllocator@VCrtAllocator@rapidjson@@@2@@rapidjson@@QEAA@PEBDI@Z DD imagerel $LN3
	DD	imagerel $LN3+96
	DD	imagerel $unwind$??0?$GenericValue@U?$UTF8@D@rapidjson@@V?$MemoryPoolAllocator@VCrtAllocator@rapidjson@@@2@@rapidjson@@QEAA@PEBDI@Z
pdata	ENDS
;	COMDAT pdata
pdata	SEGMENT
$pdata$??0?$GenericValue@U?$UTF8@D@rapidjson@@V?$MemoryPoolAllocator@VCrtAllocator@rapidjson@@@2@@rapidjson@@QEAA@U?$GenericStringRef@D@1@@Z DD imagerel $LN3
	DD	imagerel $LN3+84
	DD	imagerel $unwind$??0?$GenericValue@U?$UTF8@D@rapidjson@@V?$MemoryPoolAllocator@VCrtAllocator@rapidjson@@@2@@rapidjson@@QEAA@U?$GenericStringRef@D@1@@Z
pdata	ENDS
;	COMDAT pdata
pdata	SEGMENT
$pdata$??0?$GenericValue@U?$UTF8@D@rapidjson@@V?$MemoryPoolAllocator@VCrtAllocator@rapidjson@@@2@@rapidjson@@QEAA@PEBDIAEAV?$MemoryPoolAllocator@VCrtAllocator@rapidjson@@@1@@Z DD imagerel $LN3
	DD	imagerel $LN3+106
	DD	imagerel $unwind$??0?$GenericValue@U?$UTF8@D@rapidjson@@V?$MemoryPoolAllocator@VCrtAllocator@rapidjson@@@2@@rapidjson@@QEAA@PEBDIAEAV?$MemoryPoolAllocator@VCrtAllocator@rapidjson@@@1@@Z
pdata	ENDS
;	COMDAT pdata
pdata	SEGMENT
$pdata$??1?$GenericValue@U?$UTF8@D@rapidjson@@V?$MemoryPoolAllocator@VCrtAllocator@rapidjson@@@2@@rapidjson@@QEAA@XZ DD imagerel $LN16
	DD	imagerel $LN16+328
	DD	imagerel $unwind$??1?$GenericValue@U?$UTF8@D@rapidjson@@V?$MemoryPoolAllocator@VCrtAllocator@rapidjson@@@2@@rapidjson@@QEAA@XZ
pdata	ENDS
;	COMDAT pdata
pdata	SEGMENT
$pdata$??4?$GenericValue@U?$UTF8@D@rapidjson@@V?$MemoryPoolAllocator@VCrtAllocator@rapidjson@@@2@@rapidjson@@QEAAAEAV01@AEAV01@@Z DD imagerel $LN4
	DD	imagerel $LN4+64
	DD	imagerel $unwind$??4?$GenericValue@U?$UTF8@D@rapidjson@@V?$MemoryPoolAllocator@VCrtAllocator@rapidjson@@@2@@rapidjson@@QEAAAEAV01@AEAV01@@Z
pdata	ENDS
;	COMDAT pdata
pdata	SEGMENT
$pdata$?IsBool@?$GenericValue@U?$UTF8@D@rapidjson@@V?$MemoryPoolAllocator@VCrtAllocator@rapidjson@@@2@@rapidjson@@QEBA_NXZ DD imagerel $LN5
	DD	imagerel $LN5+50
	DD	imagerel $unwind$?IsBool@?$GenericValue@U?$UTF8@D@rapidjson@@V?$MemoryPoolAllocator@VCrtAllocator@rapidjson@@@2@@rapidjson@@QEBA_NXZ
pdata	ENDS
;	COMDAT pdata
pdata	SEGMENT
$pdata$?IsObject@?$GenericValue@U?$UTF8@D@rapidjson@@V?$MemoryPoolAllocator@VCrtAllocator@rapidjson@@@2@@rapidjson@@QEBA_NXZ DD imagerel $LN5
	DD	imagerel $LN5+48
	DD	imagerel $unwind$?IsObject@?$GenericValue@U?$UTF8@D@rapidjson@@V?$MemoryPoolAllocator@VCrtAllocator@rapidjson@@@2@@rapidjson@@QEBA_NXZ
pdata	ENDS
;	COMDAT pdata
pdata	SEGMENT
$pdata$?IsArray@?$GenericValue@U?$UTF8@D@rapidjson@@V?$MemoryPoolAllocator@VCrtAllocator@rapidjson@@@2@@rapidjson@@QEBA_NXZ DD imagerel $LN5
	DD	imagerel $LN5+48
	DD	imagerel $unwind$?IsArray@?$GenericValue@U?$UTF8@D@rapidjson@@V?$MemoryPoolAllocator@VCrtAllocator@rapidjson@@@2@@rapidjson@@QEBA_NXZ
pdata	ENDS
;	COMDAT pdata
pdata	SEGMENT
$pdata$?IsNumber@?$GenericValue@U?$UTF8@D@rapidjson@@V?$MemoryPoolAllocator@VCrtAllocator@rapidjson@@@2@@rapidjson@@QEBA_NXZ DD imagerel $LN5
	DD	imagerel $LN5+50
	DD	imagerel $unwind$?IsNumber@?$GenericValue@U?$UTF8@D@rapidjson@@V?$MemoryPoolAllocator@VCrtAllocator@rapidjson@@@2@@rapidjson@@QEBA_NXZ
pdata	ENDS
;	COMDAT pdata
pdata	SEGMENT
$pdata$?IsInt@?$GenericValue@U?$UTF8@D@rapidjson@@V?$MemoryPoolAllocator@VCrtAllocator@rapidjson@@@2@@rapidjson@@QEBA_NXZ DD imagerel $LN5
	DD	imagerel $LN5+50
	DD	imagerel $unwind$?IsInt@?$GenericValue@U?$UTF8@D@rapidjson@@V?$MemoryPoolAllocator@VCrtAllocator@rapidjson@@@2@@rapidjson@@QEBA_NXZ
pdata	ENDS
;	COMDAT pdata
pdata	SEGMENT
$pdata$?IsUint@?$GenericValue@U?$UTF8@D@rapidjson@@V?$MemoryPoolAllocator@VCrtAllocator@rapidjson@@@2@@rapidjson@@QEBA_NXZ DD imagerel $LN5
	DD	imagerel $LN5+50
	DD	imagerel $unwind$?IsUint@?$GenericValue@U?$UTF8@D@rapidjson@@V?$MemoryPoolAllocator@VCrtAllocator@rapidjson@@@2@@rapidjson@@QEBA_NXZ
pdata	ENDS
;	COMDAT pdata
pdata	SEGMENT
$pdata$?IsInt64@?$GenericValue@U?$UTF8@D@rapidjson@@V?$MemoryPoolAllocator@VCrtAllocator@rapidjson@@@2@@rapidjson@@QEBA_NXZ DD imagerel $LN5
	DD	imagerel $LN5+52
	DD	imagerel $unwind$?IsInt64@?$GenericValue@U?$UTF8@D@rapidjson@@V?$MemoryPoolAllocator@VCrtAllocator@rapidjson@@@2@@rapidjson@@QEBA_NXZ
pdata	ENDS
;	COMDAT pdata
pdata	SEGMENT
$pdata$?IsUint64@?$GenericValue@U?$UTF8@D@rapidjson@@V?$MemoryPoolAllocator@VCrtAllocator@rapidjson@@@2@@rapidjson@@QEBA_NXZ DD imagerel $LN5
	DD	imagerel $LN5+52
	DD	imagerel $unwind$?IsUint64@?$GenericValue@U?$UTF8@D@rapidjson@@V?$MemoryPoolAllocator@VCrtAllocator@rapidjson@@@2@@rapidjson@@QEBA_NXZ
pdata	ENDS
;	COMDAT pdata
pdata	SEGMENT
$pdata$?IsString@?$GenericValue@U?$UTF8@D@rapidjson@@V?$MemoryPoolAllocator@VCrtAllocator@rapidjson@@@2@@rapidjson@@QEBA_NXZ DD imagerel $LN5
	DD	imagerel $LN5+52
	DD	imagerel $unwind$?IsString@?$GenericValue@U?$UTF8@D@rapidjson@@V?$MemoryPoolAllocator@VCrtAllocator@rapidjson@@@2@@rapidjson@@QEBA_NXZ
pdata	ENDS
;	COMDAT pdata
pdata	SEGMENT
$pdata$?GetBool@?$GenericValue@U?$UTF8@D@rapidjson@@V?$MemoryPoolAllocator@VCrtAllocator@rapidjson@@@2@@rapidjson@@QEBA_NXZ DD imagerel $LN5
	DD	imagerel $LN5+48
	DD	imagerel $unwind$?GetBool@?$GenericValue@U?$UTF8@D@rapidjson@@V?$MemoryPoolAllocator@VCrtAllocator@rapidjson@@@2@@rapidjson@@QEBA_NXZ
pdata	ENDS
;	COMDAT pdata
pdata	SEGMENT
$pdata$?MemberBegin@?$GenericValue@U?$UTF8@D@rapidjson@@V?$MemoryPoolAllocator@VCrtAllocator@rapidjson@@@2@@rapidjson@@QEBA?AV?$GenericMemberIterator@$00U?$UTF8@D@rapidjson@@V?$MemoryPoolAllocator@VCrtAllocator@rapidjson@@@2@@2@XZ DD imagerel $LN3
	DD	imagerel $LN3+47
	DD	imagerel $unwind$?MemberBegin@?$GenericValue@U?$UTF8@D@rapidjson@@V?$MemoryPoolAllocator@VCrtAllocator@rapidjson@@@2@@rapidjson@@QEBA?AV?$GenericMemberIterator@$00U?$UTF8@D@rapidjson@@V?$MemoryPoolAllocator@VCrtAllocator@rapidjson@@@2@@2@XZ
pdata	ENDS
;	COMDAT pdata
pdata	SEGMENT
$pdata$?MemberEnd@?$GenericValue@U?$UTF8@D@rapidjson@@V?$MemoryPoolAllocator@VCrtAllocator@rapidjson@@@2@@rapidjson@@QEBA?AV?$GenericMemberIterator@$00U?$UTF8@D@rapidjson@@V?$MemoryPoolAllocator@VCrtAllocator@rapidjson@@@2@@2@XZ DD imagerel $LN3
	DD	imagerel $LN3+61
	DD	imagerel $unwind$?MemberEnd@?$GenericValue@U?$UTF8@D@rapidjson@@V?$MemoryPoolAllocator@VCrtAllocator@rapidjson@@@2@@rapidjson@@QEBA?AV?$GenericMemberIterator@$00U?$UTF8@D@rapidjson@@V?$MemoryPoolAllocator@VCrtAllocator@rapidjson@@@2@@2@XZ
pdata	ENDS
;	COMDAT pdata
pdata	SEGMENT
$pdata$?MemberBegin@?$GenericValue@U?$UTF8@D@rapidjson@@V?$MemoryPoolAllocator@VCrtAllocator@rapidjson@@@2@@rapidjson@@QEAA?AV?$GenericMemberIterator@$0A@U?$UTF8@D@rapidjson@@V?$MemoryPoolAllocator@VCrtAllocator@rapidjson@@@2@@2@XZ DD imagerel $LN3
	DD	imagerel $LN3+47
	DD	imagerel $unwind$?MemberBegin@?$GenericValue@U?$UTF8@D@rapidjson@@V?$MemoryPoolAllocator@VCrtAllocator@rapidjson@@@2@@rapidjson@@QEAA?AV?$GenericMemberIterator@$0A@U?$UTF8@D@rapidjson@@V?$MemoryPoolAllocator@VCrtAllocator@rapidjson@@@2@@2@XZ
pdata	ENDS
;	COMDAT pdata
pdata	SEGMENT
$pdata$?MemberEnd@?$GenericValue@U?$UTF8@D@rapidjson@@V?$MemoryPoolAllocator@VCrtAllocator@rapidjson@@@2@@rapidjson@@QEAA?AV?$GenericMemberIterator@$0A@U?$UTF8@D@rapidjson@@V?$MemoryPoolAllocator@VCrtAllocator@rapidjson@@@2@@2@XZ DD imagerel $LN3
	DD	imagerel $LN3+61
	DD	imagerel $unwind$?MemberEnd@?$GenericValue@U?$UTF8@D@rapidjson@@V?$MemoryPoolAllocator@VCrtAllocator@rapidjson@@@2@@rapidjson@@QEAA?AV?$GenericMemberIterator@$0A@U?$UTF8@D@rapidjson@@V?$MemoryPoolAllocator@VCrtAllocator@rapidjson@@@2@@2@XZ
pdata	ENDS
;	COMDAT pdata
pdata	SEGMENT
$pdata$?HasMember@?$GenericValue@U?$UTF8@D@rapidjson@@V?$MemoryPoolAllocator@VCrtAllocator@rapidjson@@@2@@rapidjson@@QEBA_NPEBD@Z DD imagerel $LN3
	DD	imagerel $LN3+82
	DD	imagerel $unwind$?HasMember@?$GenericValue@U?$UTF8@D@rapidjson@@V?$MemoryPoolAllocator@VCrtAllocator@rapidjson@@@2@@rapidjson@@QEBA_NPEBD@Z
pdata	ENDS
;	COMDAT pdata
pdata	SEGMENT
$pdata$?FindMember@?$GenericValue@U?$UTF8@D@rapidjson@@V?$MemoryPoolAllocator@VCrtAllocator@rapidjson@@@2@@rapidjson@@QEAA?AV?$GenericMemberIterator@$0A@U?$UTF8@D@rapidjson@@V?$MemoryPoolAllocator@VCrtAllocator@rapidjson@@@2@@2@PEBD@Z DD imagerel $LN4
	DD	imagerel $LN4+127
	DD	imagerel $unwind$?FindMember@?$GenericValue@U?$UTF8@D@rapidjson@@V?$MemoryPoolAllocator@VCrtAllocator@rapidjson@@@2@@rapidjson@@QEAA?AV?$GenericMemberIterator@$0A@U?$UTF8@D@rapidjson@@V?$MemoryPoolAllocator@VCrtAllocator@rapidjson@@@2@@2@PEBD@Z
pdata	ENDS
;	COMDAT pdata
pdata	SEGMENT
$pdata$?dtor$0@?0??FindMember@?$GenericValue@U?$UTF8@D@rapidjson@@V?$MemoryPoolAllocator@VCrtAllocator@rapidjson@@@2@@rapidjson@@QEAA?AV?$GenericMemberIterator@$0A@U?$UTF8@D@rapidjson@@V?$MemoryPoolAllocator@VCrtAllocator@rapidjson@@@2@@2@PEBD@Z@4HA DD imagerel ?dtor$0@?0??FindMember@?$GenericValue@U?$UTF8@D@rapidjson@@V?$MemoryPoolAllocator@VCrtAllocator@rapidjson@@@2@@rapidjson@@QEAA?AV?$GenericMemberIterator@$0A@U?$UTF8@D@rapidjson@@V?$MemoryPoolAllocator@VCrtAllocator@rapidjson@@@2@@2@PEBD@Z@4HA
	DD	imagerel ?dtor$0@?0??FindMember@?$GenericValue@U?$UTF8@D@rapidjson@@V?$MemoryPoolAllocator@VCrtAllocator@rapidjson@@@2@@rapidjson@@QEAA?AV?$GenericMemberIterator@$0A@U?$UTF8@D@rapidjson@@V?$MemoryPoolAllocator@VCrtAllocator@rapidjson@@@2@@2@PEBD@Z@4HA+24
	DD	imagerel $unwind$?dtor$0@?0??FindMember@?$GenericValue@U?$UTF8@D@rapidjson@@V?$MemoryPoolAllocator@VCrtAllocator@rapidjson@@@2@@rapidjson@@QEAA?AV?$GenericMemberIterator@$0A@U?$UTF8@D@rapidjson@@V?$MemoryPoolAllocator@VCrtAllocator@rapidjson@@@2@@2@PEBD@Z@4HA
pdata	ENDS
;	COMDAT pdata
pdata	SEGMENT
$pdata$?FindMember@?$GenericValue@U?$UTF8@D@rapidjson@@V?$MemoryPoolAllocator@VCrtAllocator@rapidjson@@@2@@rapidjson@@QEBA?AV?$GenericMemberIterator@$00U?$UTF8@D@rapidjson@@V?$MemoryPoolAllocator@VCrtAllocator@rapidjson@@@2@@2@PEBD@Z DD imagerel $LN3
	DD	imagerel $LN3+63
	DD	imagerel $unwind$?FindMember@?$GenericValue@U?$UTF8@D@rapidjson@@V?$MemoryPoolAllocator@VCrtAllocator@rapidjson@@@2@@rapidjson@@QEBA?AV?$GenericMemberIterator@$00U?$UTF8@D@rapidjson@@V?$MemoryPoolAllocator@VCrtAllocator@rapidjson@@@2@@2@PEBD@Z
pdata	ENDS
;	COMDAT pdata
pdata	SEGMENT
$pdata$?Empty@?$GenericValue@U?$UTF8@D@rapidjson@@V?$MemoryPoolAllocator@VCrtAllocator@rapidjson@@@2@@rapidjson@@QEBA_NXZ DD imagerel $LN5
	DD	imagerel $LN5+44
	DD	imagerel $unwind$?Empty@?$GenericValue@U?$UTF8@D@rapidjson@@V?$MemoryPoolAllocator@VCrtAllocator@rapidjson@@@2@@rapidjson@@QEBA_NXZ
pdata	ENDS
;	COMDAT pdata
pdata	SEGMENT
$pdata$??A?$GenericValue@U?$UTF8@D@rapidjson@@V?$MemoryPoolAllocator@VCrtAllocator@rapidjson@@@2@@rapidjson@@QEAAAEAV01@I@Z DD imagerel $LN3
	DD	imagerel $LN3+39
	DD	imagerel $unwind$??A?$GenericValue@U?$UTF8@D@rapidjson@@V?$MemoryPoolAllocator@VCrtAllocator@rapidjson@@@2@@rapidjson@@QEAAAEAV01@I@Z
pdata	ENDS
;	COMDAT pdata
pdata	SEGMENT
$pdata$??A?$GenericValue@U?$UTF8@D@rapidjson@@V?$MemoryPoolAllocator@VCrtAllocator@rapidjson@@@2@@rapidjson@@QEBAAEBV01@I@Z DD imagerel $LN3
	DD	imagerel $LN3+32
	DD	imagerel $unwind$??A?$GenericValue@U?$UTF8@D@rapidjson@@V?$MemoryPoolAllocator@VCrtAllocator@rapidjson@@@2@@rapidjson@@QEBAAEBV01@I@Z
pdata	ENDS
;	COMDAT pdata
pdata	SEGMENT
$pdata$?GetString@?$GenericValue@U?$UTF8@D@rapidjson@@V?$MemoryPoolAllocator@VCrtAllocator@rapidjson@@@2@@rapidjson@@QEBAPEBDXZ DD imagerel $LN5
	DD	imagerel $LN5+64
	DD	imagerel $unwind$?GetString@?$GenericValue@U?$UTF8@D@rapidjson@@V?$MemoryPoolAllocator@VCrtAllocator@rapidjson@@@2@@rapidjson@@QEBAPEBDXZ
pdata	ENDS
;	COMDAT pdata
pdata	SEGMENT
$pdata$?GetStringLength@?$GenericValue@U?$UTF8@D@rapidjson@@V?$MemoryPoolAllocator@VCrtAllocator@rapidjson@@@2@@rapidjson@@QEBAIXZ DD imagerel $LN5
	DD	imagerel $LN5+66
	DD	imagerel $unwind$?GetStringLength@?$GenericValue@U?$UTF8@D@rapidjson@@V?$MemoryPoolAllocator@VCrtAllocator@rapidjson@@@2@@rapidjson@@QEBAIXZ
pdata	ENDS
;	COMDAT pdata
pdata	SEGMENT
$pdata$?SetStringPointer@?$GenericValue@U?$UTF8@D@rapidjson@@V?$MemoryPoolAllocator@VCrtAllocator@rapidjson@@@2@@rapidjson@@AEAAPEBDPEBD@Z DD imagerel $LN3
	DD	imagerel $LN3+67
	DD	imagerel $unwind$?SetStringPointer@?$GenericValue@U?$UTF8@D@rapidjson@@V?$MemoryPoolAllocator@VCrtAllocator@rapidjson@@@2@@rapidjson@@AEAAPEBDPEBD@Z
pdata	ENDS
;	COMDAT pdata
pdata	SEGMENT
$pdata$?SetElementsPointer@?$GenericValue@U?$UTF8@D@rapidjson@@V?$MemoryPoolAllocator@VCrtAllocator@rapidjson@@@2@@rapidjson@@AEAAPEAV12@PEAV12@@Z DD imagerel $LN3
	DD	imagerel $LN3+67
	DD	imagerel $unwind$?SetElementsPointer@?$GenericValue@U?$UTF8@D@rapidjson@@V?$MemoryPoolAllocator@VCrtAllocator@rapidjson@@@2@@rapidjson@@AEAAPEAV12@PEAV12@@Z
pdata	ENDS
;	COMDAT pdata
pdata	SEGMENT
$pdata$?SetMembersPointer@?$GenericValue@U?$UTF8@D@rapidjson@@V?$MemoryPoolAllocator@VCrtAllocator@rapidjson@@@2@@rapidjson@@AEAAPEAU?$GenericMember@U?$UTF8@D@rapidjson@@V?$MemoryPoolAllocator@VCrtAllocator@rapidjson@@@2@@2@PEAU32@@Z DD imagerel $LN3
	DD	imagerel $LN3+67
	DD	imagerel $unwind$?SetMembersPointer@?$GenericValue@U?$UTF8@D@rapidjson@@V?$MemoryPoolAllocator@VCrtAllocator@rapidjson@@@2@@rapidjson@@AEAAPEAU?$GenericMember@U?$UTF8@D@rapidjson@@V?$MemoryPoolAllocator@VCrtAllocator@rapidjson@@@2@@2@PEAU32@@Z
pdata	ENDS
;	COMDAT pdata
pdata	SEGMENT
$pdata$?SetArrayRaw@?$GenericValue@U?$UTF8@D@rapidjson@@V?$MemoryPoolAllocator@VCrtAllocator@rapidjson@@@2@@rapidjson@@AEAAXPEAV12@IAEAV?$MemoryPoolAllocator@VCrtAllocator@rapidjson@@@2@@Z DD imagerel $LN5
	DD	imagerel $LN5+156
	DD	imagerel $unwind$?SetArrayRaw@?$GenericValue@U?$UTF8@D@rapidjson@@V?$MemoryPoolAllocator@VCrtAllocator@rapidjson@@@2@@rapidjson@@AEAAXPEAV12@IAEAV?$MemoryPoolAllocator@VCrtAllocator@rapidjson@@@2@@Z
pdata	ENDS
;	COMDAT pdata
pdata	SEGMENT
$pdata$?SetObjectRaw@?$GenericValue@U?$UTF8@D@rapidjson@@V?$MemoryPoolAllocator@VCrtAllocator@rapidjson@@@2@@rapidjson@@AEAAXPEAU?$GenericMember@U?$UTF8@D@rapidjson@@V?$MemoryPoolAllocator@VCrtAllocator@rapidjson@@@2@@2@IAEAV?$MemoryPoolAllocator@VCrtAllocator@rapidjson@@@2@@Z DD imagerel $LN5
	DD	imagerel $LN5+156
	DD	imagerel $unwind$?SetObjectRaw@?$GenericValue@U?$UTF8@D@rapidjson@@V?$MemoryPoolAllocator@VCrtAllocator@rapidjson@@@2@@rapidjson@@AEAAXPEAU?$GenericMember@U?$UTF8@D@rapidjson@@V?$MemoryPoolAllocator@VCrtAllocator@rapidjson@@@2@@2@IAEAV?$MemoryPoolAllocator@VCrtAllocator@rapidjson@@@2@@Z
pdata	ENDS
;	COMDAT pdata
pdata	SEGMENT
$pdata$?SetStringRaw@?$GenericValue@U?$UTF8@D@rapidjson@@V?$MemoryPoolAllocator@VCrtAllocator@rapidjson@@@2@@rapidjson@@AEAAXU?$GenericStringRef@D@2@@Z DD imagerel $LN3
	DD	imagerel $LN3+71
	DD	imagerel $unwind$?SetStringRaw@?$GenericValue@U?$UTF8@D@rapidjson@@V?$MemoryPoolAllocator@VCrtAllocator@rapidjson@@@2@@rapidjson@@AEAAXU?$GenericStringRef@D@2@@Z
pdata	ENDS
;	COMDAT pdata
pdata	SEGMENT
$pdata$?SetStringRaw@?$GenericValue@U?$UTF8@D@rapidjson@@V?$MemoryPoolAllocator@VCrtAllocator@rapidjson@@@2@@rapidjson@@AEAAXU?$GenericStringRef@D@2@AEAV?$MemoryPoolAllocator@VCrtAllocator@rapidjson@@@2@@Z DD imagerel $LN5
	DD	imagerel $LN5+246
	DD	imagerel $unwind$?SetStringRaw@?$GenericValue@U?$UTF8@D@rapidjson@@V?$MemoryPoolAllocator@VCrtAllocator@rapidjson@@@2@@rapidjson@@AEAAXU?$GenericStringRef@D@2@AEAV?$MemoryPoolAllocator@VCrtAllocator@rapidjson@@@2@@Z
pdata	ENDS
;	COMDAT pdata
pdata	SEGMENT
$pdata$?RawAssign@?$GenericValue@U?$UTF8@D@rapidjson@@V?$MemoryPoolAllocator@VCrtAllocator@rapidjson@@@2@@rapidjson@@AEAAXAEAV12@@Z DD imagerel $LN3
	DD	imagerel $LN3+43
	DD	imagerel $unwind$?RawAssign@?$GenericValue@U?$UTF8@D@rapidjson@@V?$MemoryPoolAllocator@VCrtAllocator@rapidjson@@@2@@rapidjson@@AEAAXAEAV12@@Z
pdata	ENDS
;	COMDAT pdata
pdata	SEGMENT
$pdata$?Usable@ShortString@?$GenericValue@U?$UTF8@D@rapidjson@@V?$MemoryPoolAllocator@VCrtAllocator@rapidjson@@@2@@rapidjson@@SA_NI@Z DD imagerel $LN5
	DD	imagerel $LN5+40
	DD	imagerel $unwind$?Usable@ShortString@?$GenericValue@U?$UTF8@D@rapidjson@@V?$MemoryPoolAllocator@VCrtAllocator@rapidjson@@@2@@rapidjson@@SA_NI@Z
pdata	ENDS
;	COMDAT pdata
pdata	SEGMENT
$pdata$??_G?$GenericValue@U?$UTF8@D@rapidjson@@V?$MemoryPoolAllocator@VCrtAllocator@rapidjson@@@2@@rapidjson@@QEAAPEAXI@Z DD imagerel $LN4
	DD	imagerel $LN4+60
	DD	imagerel $unwind$??_G?$GenericValue@U?$UTF8@D@rapidjson@@V?$MemoryPoolAllocator@VCrtAllocator@rapidjson@@@2@@rapidjson@@QEAAPEAXI@Z
pdata	ENDS
;	COMDAT pdata
pdata	SEGMENT
$pdata$??0?$GenericDocument@U?$UTF8@D@rapidjson@@V?$MemoryPoolAllocator@VCrtAllocator@rapidjson@@@2@VCrtAllocator@2@@rapidjson@@QEAA@PEAV?$MemoryPoolAllocator@VCrtAllocator@rapidjson@@@1@_KPEAVCrtAllocator@1@@Z DD imagerel $LN9
	DD	imagerel $LN9+232
	DD	imagerel $unwind$??0?$GenericDocument@U?$UTF8@D@rapidjson@@V?$MemoryPoolAllocator@VCrtAllocator@rapidjson@@@2@VCrtAllocator@2@@rapidjson@@QEAA@PEAV?$MemoryPoolAllocator@VCrtAllocator@rapidjson@@@1@_KPEAVCrtAllocator@1@@Z
pdata	ENDS
;	COMDAT pdata
pdata	SEGMENT
$pdata$?dtor$0@?0???0?$GenericDocument@U?$UTF8@D@rapidjson@@V?$MemoryPoolAllocator@VCrtAllocator@rapidjson@@@2@VCrtAllocator@2@@rapidjson@@QEAA@PEAV?$MemoryPoolAllocator@VCrtAllocator@rapidjson@@@1@_KPEAVCrtAllocator@1@@Z@4HA DD imagerel ?dtor$0@?0???0?$GenericDocument@U?$UTF8@D@rapidjson@@V?$MemoryPoolAllocator@VCrtAllocator@rapidjson@@@2@VCrtAllocator@2@@rapidjson@@QEAA@PEAV?$MemoryPoolAllocator@VCrtAllocator@rapidjson@@@1@_KPEAVCrtAllocator@1@@Z@4HA
	DD	imagerel ?dtor$0@?0???0?$GenericDocument@U?$UTF8@D@rapidjson@@V?$MemoryPoolAllocator@VCrtAllocator@rapidjson@@@2@VCrtAllocator@2@@rapidjson@@QEAA@PEAV?$MemoryPoolAllocator@VCrtAllocator@rapidjson@@@1@_KPEAVCrtAllocator@1@@Z@4HA+24
	DD	imagerel $unwind$?dtor$0@?0???0?$GenericDocument@U?$UTF8@D@rapidjson@@V?$MemoryPoolAllocator@VCrtAllocator@rapidjson@@@2@VCrtAllocator@2@@rapidjson@@QEAA@PEAV?$MemoryPoolAllocator@VCrtAllocator@rapidjson@@@1@_KPEAVCrtAllocator@1@@Z@4HA
pdata	ENDS
;	COMDAT pdata
pdata	SEGMENT
$pdata$?dtor$1@?0???0?$GenericDocument@U?$UTF8@D@rapidjson@@V?$MemoryPoolAllocator@VCrtAllocator@rapidjson@@@2@VCrtAllocator@2@@rapidjson@@QEAA@PEAV?$MemoryPoolAllocator@VCrtAllocator@rapidjson@@@1@_KPEAVCrtAllocator@1@@Z@4HA DD imagerel ?dtor$1@?0???0?$GenericDocument@U?$UTF8@D@rapidjson@@V?$MemoryPoolAllocator@VCrtAllocator@rapidjson@@@2@VCrtAllocator@2@@rapidjson@@QEAA@PEAV?$MemoryPoolAllocator@VCrtAllocator@rapidjson@@@1@_KPEAVCrtAllocator@1@@Z@4HA
	DD	imagerel ?dtor$1@?0???0?$GenericDocument@U?$UTF8@D@rapidjson@@V?$MemoryPoolAllocator@VCrtAllocator@rapidjson@@@2@VCrtAllocator@2@@rapidjson@@QEAA@PEAV?$MemoryPoolAllocator@VCrtAllocator@rapidjson@@@1@_KPEAVCrtAllocator@1@@Z@4HA+28
	DD	imagerel $unwind$?dtor$1@?0???0?$GenericDocument@U?$UTF8@D@rapidjson@@V?$MemoryPoolAllocator@VCrtAllocator@rapidjson@@@2@VCrtAllocator@2@@rapidjson@@QEAA@PEAV?$MemoryPoolAllocator@VCrtAllocator@rapidjson@@@1@_KPEAVCrtAllocator@1@@Z@4HA
pdata	ENDS
;	COMDAT pdata
pdata	SEGMENT
$pdata$?dtor$2@?0???0?$GenericDocument@U?$UTF8@D@rapidjson@@V?$MemoryPoolAllocator@VCrtAllocator@rapidjson@@@2@VCrtAllocator@2@@rapidjson@@QEAA@PEAV?$MemoryPoolAllocator@VCrtAllocator@rapidjson@@@1@_KPEAVCrtAllocator@1@@Z@4HA DD imagerel ?dtor$2@?0???0?$GenericDocument@U?$UTF8@D@rapidjson@@V?$MemoryPoolAllocator@VCrtAllocator@rapidjson@@@2@VCrtAllocator@2@@rapidjson@@QEAA@PEAV?$MemoryPoolAllocator@VCrtAllocator@rapidjson@@@1@_KPEAVCrtAllocator@1@@Z@4HA
	DD	imagerel ?dtor$2@?0???0?$GenericDocument@U?$UTF8@D@rapidjson@@V?$MemoryPoolAllocator@VCrtAllocator@rapidjson@@@2@VCrtAllocator@2@@rapidjson@@QEAA@PEAV?$MemoryPoolAllocator@VCrtAllocator@rapidjson@@@1@_KPEAVCrtAllocator@1@@Z@4HA+29
	DD	imagerel $unwind$?dtor$2@?0???0?$GenericDocument@U?$UTF8@D@rapidjson@@V?$MemoryPoolAllocator@VCrtAllocator@rapidjson@@@2@VCrtAllocator@2@@rapidjson@@QEAA@PEAV?$MemoryPoolAllocator@VCrtAllocator@rapidjson@@@1@_KPEAVCrtAllocator@1@@Z@4HA
pdata	ENDS
;	COMDAT pdata
pdata	SEGMENT
$pdata$??1?$GenericDocument@U?$UTF8@D@rapidjson@@V?$MemoryPoolAllocator@VCrtAllocator@rapidjson@@@2@VCrtAllocator@2@@rapidjson@@QEAA@XZ DD imagerel $LN5
	DD	imagerel $LN5+54
	DD	imagerel $unwind$??1?$GenericDocument@U?$UTF8@D@rapidjson@@V?$MemoryPoolAllocator@VCrtAllocator@rapidjson@@@2@VCrtAllocator@2@@rapidjson@@QEAA@XZ
pdata	ENDS
;	COMDAT pdata
pdata	SEGMENT
$pdata$?dtor$0@?0???1?$GenericDocument@U?$UTF8@D@rapidjson@@V?$MemoryPoolAllocator@VCrtAllocator@rapidjson@@@2@VCrtAllocator@2@@rapidjson@@QEAA@XZ@4HA DD imagerel ?dtor$0@?0???1?$GenericDocument@U?$UTF8@D@rapidjson@@V?$MemoryPoolAllocator@VCrtAllocator@rapidjson@@@2@VCrtAllocator@2@@rapidjson@@QEAA@XZ@4HA
	DD	imagerel ?dtor$0@?0???1?$GenericDocument@U?$UTF8@D@rapidjson@@V?$MemoryPoolAllocator@VCrtAllocator@rapidjson@@@2@VCrtAllocator@2@@rapidjson@@QEAA@XZ@4HA+24
	DD	imagerel $unwind$?dtor$0@?0???1?$GenericDocument@U?$UTF8@D@rapidjson@@V?$MemoryPoolAllocator@VCrtAllocator@rapidjson@@@2@VCrtAllocator@2@@rapidjson@@QEAA@XZ@4HA
pdata	ENDS
;	COMDAT pdata
pdata	SEGMENT
$pdata$?dtor$1@?0???1?$GenericDocument@U?$UTF8@D@rapidjson@@V?$MemoryPoolAllocator@VCrtAllocator@rapidjson@@@2@VCrtAllocator@2@@rapidjson@@QEAA@XZ@4HA DD imagerel ?dtor$1@?0???1?$GenericDocument@U?$UTF8@D@rapidjson@@V?$MemoryPoolAllocator@VCrtAllocator@rapidjson@@@2@VCrtAllocator@2@@rapidjson@@QEAA@XZ@4HA
	DD	imagerel ?dtor$1@?0???1?$GenericDocument@U?$UTF8@D@rapidjson@@V?$MemoryPoolAllocator@VCrtAllocator@rapidjson@@@2@VCrtAllocator@2@@rapidjson@@QEAA@XZ@4HA+28
	DD	imagerel $unwind$?dtor$1@?0???1?$GenericDocument@U?$UTF8@D@rapidjson@@V?$MemoryPoolAllocator@VCrtAllocator@rapidjson@@@2@VCrtAllocator@2@@rapidjson@@QEAA@XZ@4HA
pdata	ENDS
;	COMDAT pdata
pdata	SEGMENT
$pdata$?Parse@?$GenericDocument@U?$UTF8@D@rapidjson@@V?$MemoryPoolAllocator@VCrtAllocator@rapidjson@@@2@VCrtAllocator@2@@rapidjson@@QEAAAEAV12@PEBD@Z DD imagerel $LN3
	DD	imagerel $LN3+34
	DD	imagerel $unwind$?Parse@?$GenericDocument@U?$UTF8@D@rapidjson@@V?$MemoryPoolAllocator@VCrtAllocator@rapidjson@@@2@VCrtAllocator@2@@rapidjson@@QEAAAEAV12@PEBD@Z
pdata	ENDS
;	COMDAT pdata
pdata	SEGMENT
$pdata$?Parse@?$GenericDocument@U?$UTF8@D@rapidjson@@V?$MemoryPoolAllocator@VCrtAllocator@rapidjson@@@2@VCrtAllocator@2@@rapidjson@@QEAAAEAV12@PEBD_K@Z DD imagerel $LN3
	DD	imagerel $LN3+44
	DD	imagerel $unwind$?Parse@?$GenericDocument@U?$UTF8@D@rapidjson@@V?$MemoryPoolAllocator@VCrtAllocator@rapidjson@@@2@VCrtAllocator@2@@rapidjson@@QEAAAEAV12@PEBD_K@Z
pdata	ENDS
;	COMDAT pdata
pdata	SEGMENT
$pdata$?HasParseError@?$GenericDocument@U?$UTF8@D@rapidjson@@V?$MemoryPoolAllocator@VCrtAllocator@rapidjson@@@2@VCrtAllocator@2@@rapidjson@@QEBA_NXZ DD imagerel $LN3
	DD	imagerel $LN3+31
	DD	imagerel $unwind$?HasParseError@?$GenericDocument@U?$UTF8@D@rapidjson@@V?$MemoryPoolAllocator@VCrtAllocator@rapidjson@@@2@VCrtAllocator@2@@rapidjson@@QEBA_NXZ
pdata	ENDS
;	COMDAT pdata
pdata	SEGMENT
$pdata$?Null@?$GenericDocument@U?$UTF8@D@rapidjson@@V?$MemoryPoolAllocator@VCrtAllocator@rapidjson@@@2@VCrtAllocator@2@@rapidjson@@QEAA_NXZ DD imagerel $LN3
	DD	imagerel $LN3+74
	DD	imagerel $unwind$?Null@?$GenericDocument@U?$UTF8@D@rapidjson@@V?$MemoryPoolAllocator@VCrtAllocator@rapidjson@@@2@VCrtAllocator@2@@rapidjson@@QEAA_NXZ
pdata	ENDS
;	COMDAT pdata
pdata	SEGMENT
$pdata$?Bool@?$GenericDocument@U?$UTF8@D@rapidjson@@V?$MemoryPoolAllocator@VCrtAllocator@rapidjson@@@2@VCrtAllocator@2@@rapidjson@@QEAA_N_N@Z DD imagerel $LN3
	DD	imagerel $LN3+86
	DD	imagerel $unwind$?Bool@?$GenericDocument@U?$UTF8@D@rapidjson@@V?$MemoryPoolAllocator@VCrtAllocator@rapidjson@@@2@VCrtAllocator@2@@rapidjson@@QEAA_N_N@Z
pdata	ENDS
;	COMDAT pdata
pdata	SEGMENT
$pdata$?Int@?$GenericDocument@U?$UTF8@D@rapidjson@@V?$MemoryPoolAllocator@VCrtAllocator@rapidjson@@@2@VCrtAllocator@2@@rapidjson@@QEAA_NH@Z DD imagerel $LN3
	DD	imagerel $LN3+82
	DD	imagerel $unwind$?Int@?$GenericDocument@U?$UTF8@D@rapidjson@@V?$MemoryPoolAllocator@VCrtAllocator@rapidjson@@@2@VCrtAllocator@2@@rapidjson@@QEAA_NH@Z
pdata	ENDS
;	COMDAT pdata
pdata	SEGMENT
$pdata$?Uint@?$GenericDocument@U?$UTF8@D@rapidjson@@V?$MemoryPoolAllocator@VCrtAllocator@rapidjson@@@2@VCrtAllocator@2@@rapidjson@@QEAA_NI@Z DD imagerel $LN3
	DD	imagerel $LN3+82
	DD	imagerel $unwind$?Uint@?$GenericDocument@U?$UTF8@D@rapidjson@@V?$MemoryPoolAllocator@VCrtAllocator@rapidjson@@@2@VCrtAllocator@2@@rapidjson@@QEAA_NI@Z
pdata	ENDS
;	COMDAT pdata
pdata	SEGMENT
$pdata$?Int64@?$GenericDocument@U?$UTF8@D@rapidjson@@V?$MemoryPoolAllocator@VCrtAllocator@rapidjson@@@2@VCrtAllocator@2@@rapidjson@@QEAA_N_J@Z DD imagerel $LN3
	DD	imagerel $LN3+84
	DD	imagerel $unwind$?Int64@?$GenericDocument@U?$UTF8@D@rapidjson@@V?$MemoryPoolAllocator@VCrtAllocator@rapidjson@@@2@VCrtAllocator@2@@rapidjson@@QEAA_N_J@Z
pdata	ENDS
;	COMDAT pdata
pdata	SEGMENT
$pdata$?Uint64@?$GenericDocument@U?$UTF8@D@rapidjson@@V?$MemoryPoolAllocator@VCrtAllocator@rapidjson@@@2@VCrtAllocator@2@@rapidjson@@QEAA_N_K@Z DD imagerel $LN3
	DD	imagerel $LN3+84
	DD	imagerel $unwind$?Uint64@?$GenericDocument@U?$UTF8@D@rapidjson@@V?$MemoryPoolAllocator@VCrtAllocator@rapidjson@@@2@VCrtAllocator@2@@rapidjson@@QEAA_N_K@Z
pdata	ENDS
;	COMDAT pdata
pdata	SEGMENT
$pdata$?Double@?$GenericDocument@U?$UTF8@D@rapidjson@@V?$MemoryPoolAllocator@VCrtAllocator@rapidjson@@@2@VCrtAllocator@2@@rapidjson@@QEAA_NN@Z DD imagerel $LN3
	DD	imagerel $LN3+86
	DD	imagerel $unwind$?Double@?$GenericDocument@U?$UTF8@D@rapidjson@@V?$MemoryPoolAllocator@VCrtAllocator@rapidjson@@@2@VCrtAllocator@2@@rapidjson@@QEAA_NN@Z
pdata	ENDS
;	COMDAT pdata
pdata	SEGMENT
$pdata$?RawNumber@?$GenericDocument@U?$UTF8@D@rapidjson@@V?$MemoryPoolAllocator@VCrtAllocator@rapidjson@@@2@VCrtAllocator@2@@rapidjson@@QEAA_NPEBDI_N@Z DD imagerel $LN5
	DD	imagerel $LN5+198
	DD	imagerel $unwind$?RawNumber@?$GenericDocument@U?$UTF8@D@rapidjson@@V?$MemoryPoolAllocator@VCrtAllocator@rapidjson@@@2@VCrtAllocator@2@@rapidjson@@QEAA_NPEBDI_N@Z
pdata	ENDS
;	COMDAT pdata
pdata	SEGMENT
$pdata$?String@?$GenericDocument@U?$UTF8@D@rapidjson@@V?$MemoryPoolAllocator@VCrtAllocator@rapidjson@@@2@VCrtAllocator@2@@rapidjson@@QEAA_NPEBDI_N@Z DD imagerel $LN5
	DD	imagerel $LN5+198
	DD	imagerel $unwind$?String@?$GenericDocument@U?$UTF8@D@rapidjson@@V?$MemoryPoolAllocator@VCrtAllocator@rapidjson@@@2@VCrtAllocator@2@@rapidjson@@QEAA_NPEBDI_N@Z
pdata	ENDS
;	COMDAT pdata
pdata	SEGMENT
$pdata$?StartObject@?$GenericDocument@U?$UTF8@D@rapidjson@@V?$MemoryPoolAllocator@VCrtAllocator@rapidjson@@@2@VCrtAllocator@2@@rapidjson@@QEAA_NXZ DD imagerel $LN3
	DD	imagerel $LN3+79
	DD	imagerel $unwind$?StartObject@?$GenericDocument@U?$UTF8@D@rapidjson@@V?$MemoryPoolAllocator@VCrtAllocator@rapidjson@@@2@VCrtAllocator@2@@rapidjson@@QEAA_NXZ
pdata	ENDS
;	COMDAT pdata
pdata	SEGMENT
$pdata$?Key@?$GenericDocument@U?$UTF8@D@rapidjson@@V?$MemoryPoolAllocator@VCrtAllocator@rapidjson@@@2@VCrtAllocator@2@@rapidjson@@QEAA_NPEBDI_N@Z DD imagerel $LN3
	DD	imagerel $LN3+55
	DD	imagerel $unwind$?Key@?$GenericDocument@U?$UTF8@D@rapidjson@@V?$MemoryPoolAllocator@VCrtAllocator@rapidjson@@@2@VCrtAllocator@2@@rapidjson@@QEAA_NPEBDI_N@Z
pdata	ENDS
;	COMDAT pdata
pdata	SEGMENT
$pdata$?EndObject@?$GenericDocument@U?$UTF8@D@rapidjson@@V?$MemoryPoolAllocator@VCrtAllocator@rapidjson@@@2@VCrtAllocator@2@@rapidjson@@QEAA_NI@Z DD imagerel $LN3
	DD	imagerel $LN3+117
	DD	imagerel $unwind$?EndObject@?$GenericDocument@U?$UTF8@D@rapidjson@@V?$MemoryPoolAllocator@VCrtAllocator@rapidjson@@@2@VCrtAllocator@2@@rapidjson@@QEAA_NI@Z
pdata	ENDS
;	COMDAT pdata
pdata	SEGMENT
$pdata$?StartArray@?$GenericDocument@U?$UTF8@D@rapidjson@@V?$MemoryPoolAllocator@VCrtAllocator@rapidjson@@@2@VCrtAllocator@2@@rapidjson@@QEAA_NXZ DD imagerel $LN3
	DD	imagerel $LN3+79
	DD	imagerel $unwind$?StartArray@?$GenericDocument@U?$UTF8@D@rapidjson@@V?$MemoryPoolAllocator@VCrtAllocator@rapidjson@@@2@VCrtAllocator@2@@rapidjson@@QEAA_NXZ
pdata	ENDS
;	COMDAT pdata
pdata	SEGMENT
$pdata$?EndArray@?$GenericDocument@U?$UTF8@D@rapidjson@@V?$MemoryPoolAllocator@VCrtAllocator@rapidjson@@@2@VCrtAllocator@2@@rapidjson@@QEAA_NI@Z DD imagerel $LN3
	DD	imagerel $LN3+117
	DD	imagerel $unwind$?EndArray@?$GenericDocument@U?$UTF8@D@rapidjson@@V?$MemoryPoolAllocator@VCrtAllocator@rapidjson@@@2@VCrtAllocator@2@@rapidjson@@QEAA_NI@Z
pdata	ENDS
;	COMDAT pdata
pdata	SEGMENT
$pdata$?ClearStack@?$GenericDocument@U?$UTF8@D@rapidjson@@V?$MemoryPoolAllocator@VCrtAllocator@rapidjson@@@2@VCrtAllocator@2@@rapidjson@@AEAAXXZ DD imagerel $LN7
	DD	imagerel $LN7+129
	DD	imagerel $unwind$?ClearStack@?$GenericDocument@U?$UTF8@D@rapidjson@@V?$MemoryPoolAllocator@VCrtAllocator@rapidjson@@@2@VCrtAllocator@2@@rapidjson@@AEAAXXZ
pdata	ENDS
;	COMDAT pdata
pdata	SEGMENT
$pdata$?Destroy@?$GenericDocument@U?$UTF8@D@rapidjson@@V?$MemoryPoolAllocator@VCrtAllocator@rapidjson@@@2@VCrtAllocator@2@@rapidjson@@AEAAXXZ DD imagerel $LN5
	DD	imagerel $LN5+67
	DD	imagerel $unwind$?Destroy@?$GenericDocument@U?$UTF8@D@rapidjson@@V?$MemoryPoolAllocator@VCrtAllocator@rapidjson@@@2@VCrtAllocator@2@@rapidjson@@AEAAXXZ
pdata	ENDS
;	COMDAT pdata
pdata	SEGMENT
$pdata$??_G?$GenericDocument@U?$UTF8@D@rapidjson@@V?$MemoryPoolAllocator@VCrtAllocator@rapidjson@@@2@VCrtAllocator@2@@rapidjson@@QEAAPEAXI@Z DD imagerel $LN4
	DD	imagerel $LN4+60
	DD	imagerel $unwind$??_G?$GenericDocument@U?$UTF8@D@rapidjson@@V?$MemoryPoolAllocator@VCrtAllocator@rapidjson@@@2@VCrtAllocator@2@@rapidjson@@QEAAPEAXI@Z
pdata	ENDS
;	COMDAT pdata
pdata	SEGMENT
$pdata$?deallocate@?$allocator@UJsonReaderStackItem@@@std@@QEAAXQEAUJsonReaderStackItem@@_K@Z DD imagerel $LN3
	DD	imagerel $LN3+44
	DD	imagerel $unwind$?deallocate@?$allocator@UJsonReaderStackItem@@@std@@QEAAXQEAUJsonReaderStackItem@@_K@Z
pdata	ENDS
;	COMDAT pdata
pdata	SEGMENT
$pdata$?allocate@?$allocator@UJsonReaderStackItem@@@std@@QEAAPEAUJsonReaderStackItem@@_K@Z DD imagerel $LN3
	DD	imagerel $LN3+37
	DD	imagerel $unwind$?allocate@?$allocator@UJsonReaderStackItem@@@std@@QEAAPEAUJsonReaderStackItem@@_K@Z
pdata	ENDS
;	COMDAT pdata
pdata	SEGMENT
$pdata$?deallocate@?$allocator@PEAUJsonReaderStackItem@@@std@@QEAAXQEAPEAUJsonReaderStackItem@@_K@Z DD imagerel $LN3
	DD	imagerel $LN3+47
	DD	imagerel $unwind$?deallocate@?$allocator@PEAUJsonReaderStackItem@@@std@@QEAAXQEAPEAUJsonReaderStackItem@@_K@Z
pdata	ENDS
;	COMDAT pdata
pdata	SEGMENT
$pdata$?allocate@?$allocator@PEAUJsonReaderStackItem@@@std@@QEAAPEAPEAUJsonReaderStackItem@@_K@Z DD imagerel $LN3
	DD	imagerel $LN3+37
	DD	imagerel $unwind$?allocate@?$allocator@PEAUJsonReaderStackItem@@@std@@QEAAPEAPEAUJsonReaderStackItem@@_K@Z
pdata	ENDS
;	COMDAT pdata
pdata	SEGMENT
$pdata$??0?$_Deque_val@U?$_Deque_simple_types@UJsonReaderStackItem@@@std@@@std@@QEAA@XZ DD imagerel $LN3
	DD	imagerel $LN3+81
	DD	imagerel $unwind$??0?$_Deque_val@U?$_Deque_simple_types@UJsonReaderStackItem@@@std@@@std@@QEAA@XZ
pdata	ENDS
;	COMDAT pdata
pdata	SEGMENT
$pdata$?_Subscript@?$_Deque_val@U?$_Deque_simple_types@UJsonReaderStackItem@@@std@@@std@@QEAAAEAUJsonReaderStackItem@@_K@Z DD imagerel $LN3
	DD	imagerel $LN3+73
	DD	imagerel $unwind$?_Subscript@?$_Deque_val@U?$_Deque_simple_types@UJsonReaderStackItem@@@std@@@std@@QEAAAEAUJsonReaderStackItem@@_K@Z
pdata	ENDS
;	COMDAT pdata
pdata	SEGMENT
$pdata$?_Address_subscript@?$_Deque_val@U?$_Deque_simple_types@UJsonReaderStackItem@@@std@@@std@@QEAAPEAUJsonReaderStackItem@@_K@Z DD imagerel $LN3
	DD	imagerel $LN3+81
	DD	imagerel $unwind$?_Address_subscript@?$_Deque_val@U?$_Deque_simple_types@UJsonReaderStackItem@@@std@@@std@@QEAAPEAUJsonReaderStackItem@@_K@Z
pdata	ENDS
;	COMDAT pdata
pdata	SEGMENT
$pdata$??0?$deque@UJsonReaderStackItem@@V?$allocator@UJsonReaderStackItem@@@std@@@std@@QEAA@XZ DD imagerel $LN3
	DD	imagerel $LN3+104
	DD	imagerel $unwind$??0?$deque@UJsonReaderStackItem@@V?$allocator@UJsonReaderStackItem@@@std@@@std@@QEAA@XZ
pdata	ENDS
;	COMDAT pdata
pdata	SEGMENT
$pdata$??1?$deque@UJsonReaderStackItem@@V?$allocator@UJsonReaderStackItem@@@std@@@std@@QEAA@XZ DD imagerel $LN3
	DD	imagerel $LN3+94
	DD	imagerel $unwind$??1?$deque@UJsonReaderStackItem@@V?$allocator@UJsonReaderStackItem@@@std@@@std@@QEAA@XZ
pdata	ENDS
;	COMDAT pdata
pdata	SEGMENT
$pdata$?empty@?$deque@UJsonReaderStackItem@@V?$allocator@UJsonReaderStackItem@@@std@@@std@@QEBA_NXZ DD imagerel $LN5
	DD	imagerel $LN5+53
	DD	imagerel $unwind$?empty@?$deque@UJsonReaderStackItem@@V?$allocator@UJsonReaderStackItem@@@std@@@std@@QEBA_NXZ
pdata	ENDS
;	COMDAT pdata
pdata	SEGMENT
$pdata$?max_size@?$deque@UJsonReaderStackItem@@V?$allocator@UJsonReaderStackItem@@@std@@@std@@QEBA_KXZ DD imagerel $LN3
	DD	imagerel $LN3+65
	DD	imagerel $unwind$?max_size@?$deque@UJsonReaderStackItem@@V?$allocator@UJsonReaderStackItem@@@std@@@std@@QEBA_KXZ
pdata	ENDS
;	COMDAT pdata
pdata	SEGMENT
$pdata$?back@?$deque@UJsonReaderStackItem@@V?$allocator@UJsonReaderStackItem@@@std@@@std@@QEAAAEAUJsonReaderStackItem@@XZ DD imagerel $LN3
	DD	imagerel $LN3+43
	DD	imagerel $unwind$?back@?$deque@UJsonReaderStackItem@@V?$allocator@UJsonReaderStackItem@@@std@@@std@@QEAAAEAUJsonReaderStackItem@@XZ
pdata	ENDS
;	COMDAT pdata
pdata	SEGMENT
$pdata$?push_back@?$deque@UJsonReaderStackItem@@V?$allocator@UJsonReaderStackItem@@@std@@@std@@QEAAX$$QEAUJsonReaderStackItem@@@Z DD imagerel $LN3
	DD	imagerel $LN3+53
	DD	imagerel $unwind$?push_back@?$deque@UJsonReaderStackItem@@V?$allocator@UJsonReaderStackItem@@@std@@@std@@QEAAX$$QEAUJsonReaderStackItem@@@Z
pdata	ENDS
;	COMDAT pdata
pdata	SEGMENT
$pdata$?pop_back@?$deque@UJsonReaderStackItem@@V?$allocator@UJsonReaderStackItem@@@std@@@std@@QEAAXXZ DD imagerel $LN4
	DD	imagerel $LN4+188
	DD	imagerel $unwind$?pop_back@?$deque@UJsonReaderStackItem@@V?$allocator@UJsonReaderStackItem@@@std@@@std@@QEAAXXZ
pdata	ENDS
;	COMDAT pdata
pdata	SEGMENT
$pdata$?_Xlen@?$deque@UJsonReaderStackItem@@V?$allocator@UJsonReaderStackItem@@@std@@@std@@CAXXZ DD imagerel $LN3
	DD	imagerel $LN3+22
	DD	imagerel $unwind$?_Xlen@?$deque@UJsonReaderStackItem@@V?$allocator@UJsonReaderStackItem@@@std@@@std@@CAXXZ
pdata	ENDS
;	COMDAT pdata
pdata	SEGMENT
$pdata$?_Growmap@?$deque@UJsonReaderStackItem@@V?$allocator@UJsonReaderStackItem@@@std@@@std@@AEAAX_K@Z DD imagerel $LN14
	DD	imagerel $LN14+1099
	DD	imagerel $unwind$?_Growmap@?$deque@UJsonReaderStackItem@@V?$allocator@UJsonReaderStackItem@@@std@@@std@@AEAAX_K@Z
pdata	ENDS
;	COMDAT pdata
pdata	SEGMENT
$pdata$?_Reset_map@?$deque@UJsonReaderStackItem@@V?$allocator@UJsonReaderStackItem@@@std@@@std@@AEAAXXZ DD imagerel $LN7
	DD	imagerel $LN7+264
	DD	imagerel $unwind$?_Reset_map@?$deque@UJsonReaderStackItem@@V?$allocator@UJsonReaderStackItem@@@std@@@std@@AEAAXXZ
pdata	ENDS
;	COMDAT pdata
pdata	SEGMENT
$pdata$?_Tidy@?$deque@UJsonReaderStackItem@@V?$allocator@UJsonReaderStackItem@@@std@@@std@@AEAAXXZ DD imagerel $LN6
	DD	imagerel $LN6+82
	DD	imagerel $unwind$?_Tidy@?$deque@UJsonReaderStackItem@@V?$allocator@UJsonReaderStackItem@@@std@@@std@@AEAAXXZ
pdata	ENDS
;	COMDAT pdata
pdata	SEGMENT
$pdata$?_Getblock@?$deque@UJsonReaderStackItem@@V?$allocator@UJsonReaderStackItem@@@std@@@std@@AEBA_J_K@Z DD imagerel $LN3
	DD	imagerel $LN3+49
	DD	imagerel $unwind$?_Getblock@?$deque@UJsonReaderStackItem@@V?$allocator@UJsonReaderStackItem@@@std@@@std@@AEBA_J_K@Z
pdata	ENDS
;	COMDAT pdata
pdata	SEGMENT
$pdata$?_Orphan_all@?$deque@UJsonReaderStackItem@@V?$allocator@UJsonReaderStackItem@@@std@@@std@@AEAAXXZ DD imagerel $LN3
	DD	imagerel $LN3+33
	DD	imagerel $unwind$?_Orphan_all@?$deque@UJsonReaderStackItem@@V?$allocator@UJsonReaderStackItem@@@std@@@std@@AEAAXXZ
pdata	ENDS
;	COMDAT pdata
pdata	SEGMENT
$pdata$?_Getal@?$deque@UJsonReaderStackItem@@V?$allocator@UJsonReaderStackItem@@@std@@@std@@AEAAAEAV?$allocator@UJsonReaderStackItem@@@2@XZ DD imagerel $LN3
	DD	imagerel $LN3+27
	DD	imagerel $unwind$?_Getal@?$deque@UJsonReaderStackItem@@V?$allocator@UJsonReaderStackItem@@@std@@@std@@AEAAAEAV?$allocator@UJsonReaderStackItem@@@2@XZ
pdata	ENDS
;	COMDAT pdata
pdata	SEGMENT
$pdata$?_Getal@?$deque@UJsonReaderStackItem@@V?$allocator@UJsonReaderStackItem@@@std@@@std@@AEBAAEBV?$allocator@UJsonReaderStackItem@@@2@XZ DD imagerel $LN3
	DD	imagerel $LN3+27
	DD	imagerel $unwind$?_Getal@?$deque@UJsonReaderStackItem@@V?$allocator@UJsonReaderStackItem@@@std@@@std@@AEBAAEBV?$allocator@UJsonReaderStackItem@@@2@XZ
pdata	ENDS
;	COMDAT pdata
pdata	SEGMENT
$pdata$?_Map@?$deque@UJsonReaderStackItem@@V?$allocator@UJsonReaderStackItem@@@std@@@std@@AEAAAEAPEAPEAUJsonReaderStackItem@@XZ DD imagerel $LN3
	DD	imagerel $LN3+28
	DD	imagerel $unwind$?_Map@?$deque@UJsonReaderStackItem@@V?$allocator@UJsonReaderStackItem@@@std@@@std@@AEAAAEAPEAPEAUJsonReaderStackItem@@XZ
pdata	ENDS
;	COMDAT pdata
pdata	SEGMENT
$pdata$?_Mapsize@?$deque@UJsonReaderStackItem@@V?$allocator@UJsonReaderStackItem@@@std@@@std@@AEAAAEA_KXZ DD imagerel $LN3
	DD	imagerel $LN3+28
	DD	imagerel $unwind$?_Mapsize@?$deque@UJsonReaderStackItem@@V?$allocator@UJsonReaderStackItem@@@std@@@std@@AEAAAEA_KXZ
pdata	ENDS
;	COMDAT pdata
pdata	SEGMENT
$pdata$?_Myoff@?$deque@UJsonReaderStackItem@@V?$allocator@UJsonReaderStackItem@@@std@@@std@@AEAAAEA_KXZ DD imagerel $LN3
	DD	imagerel $LN3+28
	DD	imagerel $unwind$?_Myoff@?$deque@UJsonReaderStackItem@@V?$allocator@UJsonReaderStackItem@@@std@@@std@@AEAAAEA_KXZ
pdata	ENDS
;	COMDAT pdata
pdata	SEGMENT
$pdata$?_Mysize@?$deque@UJsonReaderStackItem@@V?$allocator@UJsonReaderStackItem@@@std@@@std@@AEAAAEA_KXZ DD imagerel $LN3
	DD	imagerel $LN3+28
	DD	imagerel $unwind$?_Mysize@?$deque@UJsonReaderStackItem@@V?$allocator@UJsonReaderStackItem@@@std@@@std@@AEAAAEA_KXZ
pdata	ENDS
;	COMDAT pdata
pdata	SEGMENT
$pdata$?_Mysize@?$deque@UJsonReaderStackItem@@V?$allocator@UJsonReaderStackItem@@@std@@@std@@AEBAAEB_KXZ DD imagerel $LN3
	DD	imagerel $LN3+28
	DD	imagerel $unwind$?_Mysize@?$deque@UJsonReaderStackItem@@V?$allocator@UJsonReaderStackItem@@@std@@@std@@AEBAAEB_KXZ
pdata	ENDS
;	COMDAT pdata
pdata	SEGMENT
$pdata$?_Map_distance@?$deque@UJsonReaderStackItem@@V?$allocator@UJsonReaderStackItem@@@std@@@std@@AEBA_JXZ DD imagerel $LN3
	DD	imagerel $LN3+28
	DD	imagerel $unwind$?_Map_distance@?$deque@UJsonReaderStackItem@@V?$allocator@UJsonReaderStackItem@@@std@@@std@@AEBA_JXZ
pdata	ENDS
;	COMDAT pdata
pdata	SEGMENT
$pdata$?_Subscript@?$deque@UJsonReaderStackItem@@V?$allocator@UJsonReaderStackItem@@@std@@@std@@AEAAAEAUJsonReaderStackItem@@_K@Z DD imagerel $LN3
	DD	imagerel $LN3+72
	DD	imagerel $unwind$?_Subscript@?$deque@UJsonReaderStackItem@@V?$allocator@UJsonReaderStackItem@@@std@@@std@@AEAAAEAUJsonReaderStackItem@@_K@Z
pdata	ENDS
;	COMDAT pdata
pdata	SEGMENT
$pdata$??0?$stack@UJsonReaderStackItem@@V?$deque@UJsonReaderStackItem@@V?$allocator@UJsonReaderStackItem@@@std@@@std@@@std@@QEAA@XZ DD imagerel $LN4
	DD	imagerel $LN4+33
	DD	imagerel $unwind$??0?$stack@UJsonReaderStackItem@@V?$deque@UJsonReaderStackItem@@V?$allocator@UJsonReaderStackItem@@@std@@@std@@@std@@QEAA@XZ
pdata	ENDS
;	COMDAT pdata
pdata	SEGMENT
$pdata$?dtor$0@?0???0?$stack@UJsonReaderStackItem@@V?$deque@UJsonReaderStackItem@@V?$allocator@UJsonReaderStackItem@@@std@@@std@@@std@@QEAA@XZ@4HA DD imagerel ?dtor$0@?0???0?$stack@UJsonReaderStackItem@@V?$deque@UJsonReaderStackItem@@V?$allocator@UJsonReaderStackItem@@@std@@@std@@@std@@QEAA@XZ@4HA
	DD	imagerel ?dtor$0@?0???0?$stack@UJsonReaderStackItem@@V?$deque@UJsonReaderStackItem@@V?$allocator@UJsonReaderStackItem@@@std@@@std@@@std@@QEAA@XZ@4HA+24
	DD	imagerel $unwind$?dtor$0@?0???0?$stack@UJsonReaderStackItem@@V?$deque@UJsonReaderStackItem@@V?$allocator@UJsonReaderStackItem@@@std@@@std@@@std@@QEAA@XZ@4HA
pdata	ENDS
;	COMDAT pdata
pdata	SEGMENT
$pdata$?empty@?$stack@UJsonReaderStackItem@@V?$deque@UJsonReaderStackItem@@V?$allocator@UJsonReaderStackItem@@@std@@@std@@@std@@QEBA_NXZ DD imagerel $LN3
	DD	imagerel $LN3+27
	DD	imagerel $unwind$?empty@?$stack@UJsonReaderStackItem@@V?$deque@UJsonReaderStackItem@@V?$allocator@UJsonReaderStackItem@@@std@@@std@@@std@@QEBA_NXZ
pdata	ENDS
;	COMDAT pdata
pdata	SEGMENT
$pdata$?top@?$stack@UJsonReaderStackItem@@V?$deque@UJsonReaderStackItem@@V?$allocator@UJsonReaderStackItem@@@std@@@std@@@std@@QEAAAEAUJsonReaderStackItem@@XZ DD imagerel $LN3
	DD	imagerel $LN3+27
	DD	imagerel $unwind$?top@?$stack@UJsonReaderStackItem@@V?$deque@UJsonReaderStackItem@@V?$allocator@UJsonReaderStackItem@@@std@@@std@@@std@@QEAAAEAUJsonReaderStackItem@@XZ
pdata	ENDS
;	COMDAT pdata
pdata	SEGMENT
$pdata$?push@?$stack@UJsonReaderStackItem@@V?$deque@UJsonReaderStackItem@@V?$allocator@UJsonReaderStackItem@@@std@@@std@@@std@@QEAAX$$QEAUJsonReaderStackItem@@@Z DD imagerel $LN3
	DD	imagerel $LN3+53
	DD	imagerel $unwind$?push@?$stack@UJsonReaderStackItem@@V?$deque@UJsonReaderStackItem@@V?$allocator@UJsonReaderStackItem@@@std@@@std@@@std@@QEAAX$$QEAUJsonReaderStackItem@@@Z
pdata	ENDS
;	COMDAT pdata
pdata	SEGMENT
$pdata$?pop@?$stack@UJsonReaderStackItem@@V?$deque@UJsonReaderStackItem@@V?$allocator@UJsonReaderStackItem@@@std@@@std@@@std@@QEAAXXZ DD imagerel $LN3
	DD	imagerel $LN3+28
	DD	imagerel $unwind$?pop@?$stack@UJsonReaderStackItem@@V?$deque@UJsonReaderStackItem@@V?$allocator@UJsonReaderStackItem@@@std@@@std@@@std@@QEAAXXZ
pdata	ENDS
;	COMDAT pdata
pdata	SEGMENT
$pdata$??1?$stack@UJsonReaderStackItem@@V?$deque@UJsonReaderStackItem@@V?$allocator@UJsonReaderStackItem@@@std@@@std@@@std@@QEAA@XZ DD imagerel $LN4
	DD	imagerel $LN4+28
	DD	imagerel $unwind$??1?$stack@UJsonReaderStackItem@@V?$deque@UJsonReaderStackItem@@V?$allocator@UJsonReaderStackItem@@@std@@@std@@@std@@QEAA@XZ
pdata	ENDS
;	COMDAT pdata
pdata	SEGMENT
$pdata$?dtor$0@?0???1?$stack@UJsonReaderStackItem@@V?$deque@UJsonReaderStackItem@@V?$allocator@UJsonReaderStackItem@@@std@@@std@@@std@@QEAA@XZ@4HA DD imagerel ?dtor$0@?0???1?$stack@UJsonReaderStackItem@@V?$deque@UJsonReaderStackItem@@V?$allocator@UJsonReaderStackItem@@@std@@@std@@@std@@QEAA@XZ@4HA
	DD	imagerel ?dtor$0@?0???1?$stack@UJsonReaderStackItem@@V?$deque@UJsonReaderStackItem@@V?$allocator@UJsonReaderStackItem@@@std@@@std@@@std@@QEAA@XZ@4HA+24
	DD	imagerel $unwind$?dtor$0@?0???1?$stack@UJsonReaderStackItem@@V?$deque@UJsonReaderStackItem@@V?$allocator@UJsonReaderStackItem@@@std@@@std@@@std@@QEAA@XZ@4HA
pdata	ENDS
;	COMDAT pdata
pdata	SEGMENT
