; Listing generated by Microsoft (R) Optimizing Compiler Version 19.43.34810.0 

include listing.inc

INCLUDELIB LIBCMT
INCLUDELIB OLDNAMES

PUBLIC	??_C@_06GLKGGCJO@LcOpen@			; `string'
PUBLIC	??_C@_06GJPHNGFG@LcRead@			; `string'
PUBLIC	??_C@_0O@CBBNAKKC@LcReadScatter@		; `string'
PUBLIC	??_C@_07MBHEMNEL@LcWrite@			; `string'
PUBLIC	??_C@_0P@DAJMPOFM@LcWriteScatter@		; `string'
PUBLIC	??_C@_0M@HBBFEIGD@LcGetOption@			; `string'
PUBLIC	??_C@_0M@FPFAGJPB@LcSetOption@			; `string'
PUBLIC	??_C@_09DCHLEDFD@LcCommand@			; `string'
PUBLIC	??_C@_03HPADHAHE@N?1A@				; `string'
PUBLIC	??_C@_03HDGGCCPD@X86@				; `string'
PUBLIC	??_C@_06IDLKBMKC@X86PAE@			; `string'
PUBLIC	??_C@_03ELMOGNHL@X64@				; `string'
PUBLIC	??_C@_05DKFIPBAL@ARM64@				; `string'
PUBLIC	?INVALID_POINTER@SDK@Core@IronMan@@3PEAXEA	; IronMan::Core::SDK::INVALID_POINTER
PUBLIC	??_C@_04PCJGBDOP@Zero@				; `string'
PUBLIC	??_C@_04HJMOFLDF@Free@				; `string'
PUBLIC	??_C@_07LNBDIIPN@Standby@			; `string'
PUBLIC	??_C@_07PFEKAJBJ@Modifiy@			; `string'
PUBLIC	??_C@_07DGKCKENG@ModNoWr@			; `string'
PUBLIC	??_C@_03KHCCLPOB@Bad@				; `string'
PUBLIC	??_C@_06MAFFGDO@Active@				; `string'
PUBLIC	??_C@_07KADDEKFE@Transit@			; `string'
PUBLIC	??_C@_01JOAMLHOP@?9@				; `string'
PUBLIC	??_C@_06CGLFEPBO@Unused@			; `string'
PUBLIC	??_C@_08LBAJPEDB@ProcPriv@			; `string'
PUBLIC	??_C@_09BGPMMIPE@PageTable@			; `string'
PUBLIC	??_C@_09MFCNICMF@LargePage@			; `string'
PUBLIC	??_C@_0L@DHBAIELD@DriverLock@			; `string'
PUBLIC	??_C@_09PKFILKGD@Shareable@			; `string'
PUBLIC	??_C@_04PBAHLACE@File@				; `string'
PUBLIC	_Avx2WmemEnabledWeakValue
EXTRN	?x86RegData@asmjit@@3UX86RegData@1@B:BYTE	; asmjit::x86RegData
;	COMDAT _Avx2WmemEnabledWeakValue
_BSS	SEGMENT
_Avx2WmemEnabledWeakValue DD 01H DUP (?)
_BSS	ENDS
CONST	SEGMENT
?NoInit@asmjit@@3U_NoInit@1@B	ORG $+1			; asmjit::NoInit
CONST	ENDS
;	COMDAT ??_C@_04PBAHLACE@File@
CONST	SEGMENT
??_C@_04PBAHLACE@File@ DB 'File', 00H			; `string'
CONST	ENDS
;	COMDAT ??_C@_09PKFILKGD@Shareable@
CONST	SEGMENT
??_C@_09PKFILKGD@Shareable@ DB 'Shareable', 00H		; `string'
CONST	ENDS
;	COMDAT ??_C@_0L@DHBAIELD@DriverLock@
CONST	SEGMENT
??_C@_0L@DHBAIELD@DriverLock@ DB 'DriverLock', 00H	; `string'
CONST	ENDS
;	COMDAT ??_C@_09MFCNICMF@LargePage@
CONST	SEGMENT
??_C@_09MFCNICMF@LargePage@ DB 'LargePage', 00H		; `string'
CONST	ENDS
;	COMDAT ??_C@_09BGPMMIPE@PageTable@
CONST	SEGMENT
??_C@_09BGPMMIPE@PageTable@ DB 'PageTable', 00H		; `string'
CONST	ENDS
;	COMDAT ??_C@_08LBAJPEDB@ProcPriv@
CONST	SEGMENT
??_C@_08LBAJPEDB@ProcPriv@ DB 'ProcPriv', 00H		; `string'
CONST	ENDS
;	COMDAT ??_C@_06CGLFEPBO@Unused@
CONST	SEGMENT
??_C@_06CGLFEPBO@Unused@ DB 'Unused', 00H		; `string'
CONST	ENDS
;	COMDAT ??_C@_01JOAMLHOP@?9@
CONST	SEGMENT
??_C@_01JOAMLHOP@?9@ DB '-', 00H			; `string'
CONST	ENDS
;	COMDAT ??_C@_07KADDEKFE@Transit@
CONST	SEGMENT
??_C@_07KADDEKFE@Transit@ DB 'Transit', 00H		; `string'
CONST	ENDS
;	COMDAT ??_C@_06MAFFGDO@Active@
CONST	SEGMENT
??_C@_06MAFFGDO@Active@ DB 'Active', 00H		; `string'
CONST	ENDS
;	COMDAT ??_C@_03KHCCLPOB@Bad@
CONST	SEGMENT
??_C@_03KHCCLPOB@Bad@ DB 'Bad', 00H			; `string'
CONST	ENDS
;	COMDAT ??_C@_07DGKCKENG@ModNoWr@
CONST	SEGMENT
??_C@_07DGKCKENG@ModNoWr@ DB 'ModNoWr', 00H		; `string'
CONST	ENDS
;	COMDAT ??_C@_07PFEKAJBJ@Modifiy@
CONST	SEGMENT
??_C@_07PFEKAJBJ@Modifiy@ DB 'Modifiy', 00H		; `string'
CONST	ENDS
;	COMDAT ??_C@_07LNBDIIPN@Standby@
CONST	SEGMENT
??_C@_07LNBDIIPN@Standby@ DB 'Standby', 00H		; `string'
CONST	ENDS
;	COMDAT ??_C@_04HJMOFLDF@Free@
CONST	SEGMENT
??_C@_04HJMOFLDF@Free@ DB 'Free', 00H			; `string'
CONST	ENDS
;	COMDAT ??_C@_04PCJGBDOP@Zero@
CONST	SEGMENT
??_C@_04PCJGBDOP@Zero@ DB 'Zero', 00H			; `string'
CONST	ENDS
_DATA	SEGMENT
?INVALID_POINTER@SDK@Core@IronMan@@3PEAXEA DQ ffffffffffffffffH ; IronMan::Core::SDK::INVALID_POINTER
_DATA	ENDS
;	COMDAT ??_C@_05DKFIPBAL@ARM64@
CONST	SEGMENT
??_C@_05DKFIPBAL@ARM64@ DB 'ARM64', 00H			; `string'
CONST	ENDS
;	COMDAT ??_C@_03ELMOGNHL@X64@
CONST	SEGMENT
??_C@_03ELMOGNHL@X64@ DB 'X64', 00H			; `string'
CONST	ENDS
;	COMDAT ??_C@_06IDLKBMKC@X86PAE@
CONST	SEGMENT
??_C@_06IDLKBMKC@X86PAE@ DB 'X86PAE', 00H		; `string'
CONST	ENDS
;	COMDAT ??_C@_03HDGGCCPD@X86@
CONST	SEGMENT
??_C@_03HDGGCCPD@X86@ DB 'X86', 00H			; `string'
CONST	ENDS
;	COMDAT ??_C@_03HPADHAHE@N?1A@
CONST	SEGMENT
??_C@_03HPADHAHE@N?1A@ DB 'N/A', 00H			; `string'
CONST	ENDS
;	COMDAT ??_C@_09DCHLEDFD@LcCommand@
CONST	SEGMENT
??_C@_09DCHLEDFD@LcCommand@ DB 'LcCommand', 00H		; `string'
CONST	ENDS
;	COMDAT ??_C@_0M@FPFAGJPB@LcSetOption@
CONST	SEGMENT
??_C@_0M@FPFAGJPB@LcSetOption@ DB 'LcSetOption', 00H	; `string'
CONST	ENDS
;	COMDAT ??_C@_0M@HBBFEIGD@LcGetOption@
CONST	SEGMENT
??_C@_0M@HBBFEIGD@LcGetOption@ DB 'LcGetOption', 00H	; `string'
CONST	ENDS
;	COMDAT ??_C@_0P@DAJMPOFM@LcWriteScatter@
CONST	SEGMENT
??_C@_0P@DAJMPOFM@LcWriteScatter@ DB 'LcWriteScatter', 00H ; `string'
CONST	ENDS
;	COMDAT ??_C@_07MBHEMNEL@LcWrite@
CONST	SEGMENT
??_C@_07MBHEMNEL@LcWrite@ DB 'LcWrite', 00H		; `string'
CONST	ENDS
;	COMDAT ??_C@_0O@CBBNAKKC@LcReadScatter@
CONST	SEGMENT
??_C@_0O@CBBNAKKC@LcReadScatter@ DB 'LcReadScatter', 00H ; `string'
CONST	ENDS
;	COMDAT ??_C@_06GJPHNGFG@LcRead@
CONST	SEGMENT
??_C@_06GJPHNGFG@LcRead@ DB 'LcRead', 00H		; `string'
CONST	ENDS
;	COMDAT ??_C@_06GLKGGCJO@LcOpen@
CONST	SEGMENT
??_C@_06GLKGGCJO@LcOpen@ DB 'LcOpen', 00H		; `string'
CONST	ENDS
PUBLIC	??_H@YAXPEAX_K1P6APEAX0@Z@Z			; `vector constructor iterator'
PUBLIC	??2@YAPEAX_KPEAX@Z				; operator new
PUBLIC	?_Is_constant_evaluated@std@@YA_NXZ		; std::_Is_constant_evaluated
PUBLIC	?_Fnv1a_append_bytes@std@@YA_K_KQEBE_K@Z	; std::_Fnv1a_append_bytes
PUBLIC	?copy@?$_Char_traits@DH@std@@SAPEADQEADQEBD_K@Z	; std::_Char_traits<char,int>::copy
PUBLIC	?move@?$_Char_traits@DH@std@@SAPEADQEADQEBD_K@Z	; std::_Char_traits<char,int>::move
PUBLIC	?compare@?$_Narrow_char_traits@DH@std@@SAHQEBD0_K@Z ; std::_Narrow_char_traits<char,int>::compare
PUBLIC	?length@?$_Narrow_char_traits@DH@std@@SA_KQEBD@Z ; std::_Narrow_char_traits<char,int>::length
PUBLIC	?find@?$_Narrow_char_traits@DH@std@@SAPEBDQEBD_KAEBD@Z ; std::_Narrow_char_traits<char,int>::find
PUBLIC	?assign@?$_Narrow_char_traits@DH@std@@SAXAEADAEBD@Z ; std::_Narrow_char_traits<char,int>::assign
PUBLIC	?eq@?$_Narrow_char_traits@DH@std@@SA_NDD@Z	; std::_Narrow_char_traits<char,int>::eq
PUBLIC	??0exception@std@@QEAA@QEBDH@Z			; std::exception::exception
PUBLIC	??0exception@std@@QEAA@AEBV01@@Z		; std::exception::exception
PUBLIC	??1exception@std@@UEAA@XZ			; std::exception::~exception
PUBLIC	?what@exception@std@@UEBAPEBDXZ			; std::exception::what
PUBLIC	??_Gexception@std@@UEAAPEAXI@Z			; std::exception::`scalar deleting destructor'
PUBLIC	??0bad_alloc@std@@AEAA@QEBD@Z			; std::bad_alloc::bad_alloc
PUBLIC	??1bad_alloc@std@@UEAA@XZ			; std::bad_alloc::~bad_alloc
PUBLIC	??0bad_alloc@std@@QEAA@AEBV01@@Z		; std::bad_alloc::bad_alloc
PUBLIC	??_Gbad_alloc@std@@UEAAPEAXI@Z			; std::bad_alloc::`scalar deleting destructor'
PUBLIC	??0bad_array_new_length@std@@QEAA@XZ		; std::bad_array_new_length::bad_array_new_length
PUBLIC	??1bad_array_new_length@std@@UEAA@XZ		; std::bad_array_new_length::~bad_array_new_length
PUBLIC	??0bad_array_new_length@std@@QEAA@AEBV01@@Z	; std::bad_array_new_length::bad_array_new_length
PUBLIC	??_Gbad_array_new_length@std@@UEAAPEAXI@Z	; std::bad_array_new_length::`scalar deleting destructor'
PUBLIC	?_Throw_bad_array_new_length@std@@YAXXZ		; std::_Throw_bad_array_new_length
PUBLIC	?_Allocate@_Default_allocate_traits@std@@SAPEAX_K@Z ; std::_Default_allocate_traits::_Allocate
PUBLIC	?_Adjust_manually_vector_aligned@std@@YAXAEAPEAXAEA_K@Z ; std::_Adjust_manually_vector_aligned
PUBLIC	?_Orphan_all@_Container_base0@std@@QEAAXXZ	; std::_Container_base0::_Orphan_all
PUBLIC	?_Swap_proxy_and_iterators@_Container_base0@std@@QEAAXAEAU12@@Z ; std::_Container_base0::_Swap_proxy_and_iterators
PUBLIC	?_Alloc_proxy@_Container_base0@std@@QEAAXAEBU_Fake_allocator@2@@Z ; std::_Container_base0::_Alloc_proxy
PUBLIC	?_Adopt@_Iterator_base0@std@@QEAAXPEBX@Z	; std::_Iterator_base0::_Adopt
PUBLIC	??0_Fake_proxy_ptr_impl@std@@QEAA@AEBU_Fake_allocator@1@AEBU_Container_base0@1@@Z ; std::_Fake_proxy_ptr_impl::_Fake_proxy_ptr_impl
PUBLIC	?_Release@_Fake_proxy_ptr_impl@std@@QEAAXXZ	; std::_Fake_proxy_ptr_impl::_Release
PUBLIC	??0?$tuple@$$V@std@@QEAA@AEBV01@@Z		; std::tuple<>::tuple<>
PUBLIC	?_Xlen_string@std@@YAXXZ			; std::_Xlen_string
PUBLIC	??0?$allocator@D@std@@QEAA@XZ			; std::allocator<char>::allocator<char>
PUBLIC	?deallocate@?$allocator@D@std@@QEAAXQEAD_K@Z	; std::allocator<char>::deallocate
PUBLIC	?allocate@?$allocator@D@std@@QEAAPEAD_K@Z	; std::allocator<char>::allocate
PUBLIC	?max_size@?$_Default_allocator_traits@V?$allocator@D@std@@@std@@SA_KAEBV?$allocator@D@2@@Z ; std::_Default_allocator_traits<std::allocator<char> >::max_size
PUBLIC	?select_on_container_copy_construction@?$_Default_allocator_traits@V?$allocator@D@std@@@std@@SA?AV?$allocator@D@2@AEBV32@@Z ; std::_Default_allocator_traits<std::allocator<char> >::select_on_container_copy_construction
PUBLIC	??0?$_String_val@U?$_Simple_types@D@std@@@std@@QEAA@XZ ; std::_String_val<std::_Simple_types<char> >::_String_val<std::_Simple_types<char> >
PUBLIC	?_Myptr@?$_String_val@U?$_Simple_types@D@std@@@std@@QEAAPEADXZ ; std::_String_val<std::_Simple_types<char> >::_Myptr
PUBLIC	?_Myptr@?$_String_val@U?$_Simple_types@D@std@@@std@@QEBAPEBDXZ ; std::_String_val<std::_Simple_types<char> >::_Myptr
PUBLIC	?_Large_mode_engaged@?$_String_val@U?$_Simple_types@D@std@@@std@@QEBA_NXZ ; std::_String_val<std::_Simple_types<char> >::_Large_mode_engaged
PUBLIC	?_Activate_SSO_buffer@?$_String_val@U?$_Simple_types@D@std@@@std@@QEAAXXZ ; std::_String_val<std::_Simple_types<char> >::_Activate_SSO_buffer
PUBLIC	?_Check_offset@?$_String_val@U?$_Simple_types@D@std@@@std@@QEBAX_K@Z ; std::_String_val<std::_Simple_types<char> >::_Check_offset
PUBLIC	?_Xran@?$_String_val@U?$_Simple_types@D@std@@@std@@SAXXZ ; std::_String_val<std::_Simple_types<char> >::_Xran
PUBLIC	?_Clamp_suffix_size@?$_String_val@U?$_Simple_types@D@std@@@std@@QEBA_K_K0@Z ; std::_String_val<std::_Simple_types<char> >::_Clamp_suffix_size
PUBLIC	??0_Bxty@?$_String_val@U?$_Simple_types@D@std@@@std@@QEAA@XZ ; std::_String_val<std::_Simple_types<char> >::_Bxty::_Bxty
PUBLIC	??1_Bxty@?$_String_val@U?$_Simple_types@D@std@@@std@@QEAA@XZ ; std::_String_val<std::_Simple_types<char> >::_Bxty::~_Bxty
PUBLIC	?_Switch_to_buf@_Bxty@?$_String_val@U?$_Simple_types@D@std@@@std@@QEAAXXZ ; std::_String_val<std::_Simple_types<char> >::_Bxty::_Switch_to_buf
PUBLIC	??1?$_String_val@U?$_Simple_types@D@std@@@std@@QEAA@XZ ; std::_String_val<std::_Simple_types<char> >::~_String_val<std::_Simple_types<char> >
PUBLIC	??0?$basic_string@DU?$char_traits@D@std@@V?$allocator@D@2@@std@@QEAA@XZ ; std::basic_string<char,std::char_traits<char>,std::allocator<char> >::basic_string<char,std::char_traits<char>,std::allocator<char> >
PUBLIC	??0?$basic_string@DU?$char_traits@D@std@@V?$allocator@D@2@@std@@QEAA@AEBV01@@Z ; std::basic_string<char,std::char_traits<char>,std::allocator<char> >::basic_string<char,std::char_traits<char>,std::allocator<char> >
PUBLIC	??0?$basic_string@DU?$char_traits@D@std@@V?$allocator@D@2@@std@@QEAA@AEBV01@_K1AEBV?$allocator@D@1@@Z ; std::basic_string<char,std::char_traits<char>,std::allocator<char> >::basic_string<char,std::char_traits<char>,std::allocator<char> >
PUBLIC	??0?$basic_string@DU?$char_traits@D@std@@V?$allocator@D@2@@std@@QEAA@QEBD@Z ; std::basic_string<char,std::char_traits<char>,std::allocator<char> >::basic_string<char,std::char_traits<char>,std::allocator<char> >
PUBLIC	?_Deallocate_for_capacity@?$basic_string@DU?$char_traits@D@std@@V?$allocator@D@2@@std@@CAXAEAV?$allocator@D@2@QEAD_K@Z ; std::basic_string<char,std::char_traits<char>,std::allocator<char> >::_Deallocate_for_capacity
PUBLIC	?_Construct_empty@?$basic_string@DU?$char_traits@D@std@@V?$allocator@D@2@@std@@AEAAXXZ ; std::basic_string<char,std::char_traits<char>,std::allocator<char> >::_Construct_empty
PUBLIC	??0?$basic_string@DU?$char_traits@D@std@@V?$allocator@D@2@@std@@QEAA@$$QEAV01@@Z ; std::basic_string<char,std::char_traits<char>,std::allocator<char> >::basic_string<char,std::char_traits<char>,std::allocator<char> >
PUBLIC	??4?$basic_string@DU?$char_traits@D@std@@V?$allocator@D@2@@std@@QEAAAEAV01@$$QEAV01@@Z ; std::basic_string<char,std::char_traits<char>,std::allocator<char> >::operator=
PUBLIC	?_Take_contents@?$basic_string@DU?$char_traits@D@std@@V?$allocator@D@2@@std@@AEAAXAEAV12@@Z ; std::basic_string<char,std::char_traits<char>,std::allocator<char> >::_Take_contents
PUBLIC	??1?$basic_string@DU?$char_traits@D@std@@V?$allocator@D@2@@std@@QEAA@XZ ; std::basic_string<char,std::char_traits<char>,std::allocator<char> >::~basic_string<char,std::char_traits<char>,std::allocator<char> >
PUBLIC	??4?$basic_string@DU?$char_traits@D@std@@V?$allocator@D@2@@std@@QEAAAEAV01@AEBV01@@Z ; std::basic_string<char,std::char_traits<char>,std::allocator<char> >::operator=
PUBLIC	??Y?$basic_string@DU?$char_traits@D@std@@V?$allocator@D@2@@std@@QEAAAEAV01@AEBV01@@Z ; std::basic_string<char,std::char_traits<char>,std::allocator<char> >::operator+=
PUBLIC	??Y?$basic_string@DU?$char_traits@D@std@@V?$allocator@D@2@@std@@QEAAAEAV01@QEBD@Z ; std::basic_string<char,std::char_traits<char>,std::allocator<char> >::operator+=
PUBLIC	?append@?$basic_string@DU?$char_traits@D@std@@V?$allocator@D@2@@std@@QEAAAEAV12@AEBV12@@Z ; std::basic_string<char,std::char_traits<char>,std::allocator<char> >::append
PUBLIC	?append@?$basic_string@DU?$char_traits@D@std@@V?$allocator@D@2@@std@@QEAAAEAV12@QEBD_K@Z ; std::basic_string<char,std::char_traits<char>,std::allocator<char> >::append
PUBLIC	?append@?$basic_string@DU?$char_traits@D@std@@V?$allocator@D@2@@std@@QEAAAEAV12@QEBD@Z ; std::basic_string<char,std::char_traits<char>,std::allocator<char> >::append
PUBLIC	?assign@?$basic_string@DU?$char_traits@D@std@@V?$allocator@D@2@@std@@QEAAAEAV12@QEBD_K@Z ; std::basic_string<char,std::char_traits<char>,std::allocator<char> >::assign
PUBLIC	?c_str@?$basic_string@DU?$char_traits@D@std@@V?$allocator@D@2@@std@@QEBAPEBDXZ ; std::basic_string<char,std::char_traits<char>,std::allocator<char> >::c_str
PUBLIC	?max_size@?$basic_string@DU?$char_traits@D@std@@V?$allocator@D@2@@std@@QEBA_KXZ ; std::basic_string<char,std::char_traits<char>,std::allocator<char> >::max_size
PUBLIC	?empty@?$basic_string@DU?$char_traits@D@std@@V?$allocator@D@2@@std@@QEBA_NXZ ; std::basic_string<char,std::char_traits<char>,std::allocator<char> >::empty
PUBLIC	?find@?$basic_string@DU?$char_traits@D@std@@V?$allocator@D@2@@std@@QEBA_KQEBD_K@Z ; std::basic_string<char,std::char_traits<char>,std::allocator<char> >::find
PUBLIC	?rfind@?$basic_string@DU?$char_traits@D@std@@V?$allocator@D@2@@std@@QEBA_KD_K@Z ; std::basic_string<char,std::char_traits<char>,std::allocator<char> >::rfind
PUBLIC	?substr@?$basic_string@DU?$char_traits@D@std@@V?$allocator@D@2@@std@@QEBA?AV12@_K0@Z ; std::basic_string<char,std::char_traits<char>,std::allocator<char> >::substr
PUBLIC	?_Calculate_growth@?$basic_string@DU?$char_traits@D@std@@V?$allocator@D@2@@std@@CA_K_K00@Z ; std::basic_string<char,std::char_traits<char>,std::allocator<char> >::_Calculate_growth
PUBLIC	?_Calculate_growth@?$basic_string@DU?$char_traits@D@std@@V?$allocator@D@2@@std@@AEBA_K_K@Z ; std::basic_string<char,std::char_traits<char>,std::allocator<char> >::_Calculate_growth
PUBLIC	?_Tidy_deallocate@?$basic_string@DU?$char_traits@D@std@@V?$allocator@D@2@@std@@AEAAXXZ ; std::basic_string<char,std::char_traits<char>,std::allocator<char> >::_Tidy_deallocate
PUBLIC	?_Swap_proxy_and_iterators@?$basic_string@DU?$char_traits@D@std@@V?$allocator@D@2@@std@@AEAAXAEAV12@@Z ; std::basic_string<char,std::char_traits<char>,std::allocator<char> >::_Swap_proxy_and_iterators
PUBLIC	?_Getal@?$basic_string@DU?$char_traits@D@std@@V?$allocator@D@2@@std@@AEAAAEAV?$allocator@D@2@XZ ; std::basic_string<char,std::char_traits<char>,std::allocator<char> >::_Getal
PUBLIC	?_Getal@?$basic_string@DU?$char_traits@D@std@@V?$allocator@D@2@@std@@AEBAAEBV?$allocator@D@2@XZ ; std::basic_string<char,std::char_traits<char>,std::allocator<char> >::_Getal
PUBLIC	?_Get_first@?$_Compressed_pair@V?$allocator@D@std@@V?$_String_val@U?$_Simple_types@D@std@@@2@$00@std@@QEAAAEAV?$allocator@D@2@XZ ; std::_Compressed_pair<std::allocator<char>,std::_String_val<std::_Simple_types<char> >,1>::_Get_first
PUBLIC	?_Get_first@?$_Compressed_pair@V?$allocator@D@std@@V?$_String_val@U?$_Simple_types@D@std@@@2@$00@std@@QEBAAEBV?$allocator@D@2@XZ ; std::_Compressed_pair<std::allocator<char>,std::_String_val<std::_Simple_types<char> >,1>::_Get_first
PUBLIC	??1?$_Compressed_pair@V?$allocator@D@std@@V?$_String_val@U?$_Simple_types@D@std@@@2@$00@std@@QEAA@XZ ; std::_Compressed_pair<std::allocator<char>,std::_String_val<std::_Simple_types<char> >,1>::~_Compressed_pair<std::allocator<char>,std::_String_val<std::_Simple_types<char> >,1>
PUBLIC	?_Decref@_Ref_count_base@std@@QEAAXXZ		; std::_Ref_count_base::_Decref
PUBLIC	?_Decwref@_Ref_count_base@std@@QEAAXXZ		; std::_Ref_count_base::_Decwref
PUBLIC	?_Floor_of_log_2@std@@YAK_K@Z			; std::_Floor_of_log_2
PUBLIC	?_Ceiling_of_log_2@std@@YAK_K@Z			; std::_Ceiling_of_log_2
PUBLIC	??$_Hash_representation@I@std@@YA_KAEBI@Z	; std::_Hash_representation<unsigned int>
PUBLIC	??$min@_K@std@@YAAEB_KAEB_K0@Z			; std::min<unsigned __int64>
PUBLIC	??$move@AEAV?$basic_string@DU?$char_traits@D@std@@V?$allocator@D@2@@std@@@std@@YA$$QEAV?$basic_string@DU?$char_traits@D@std@@V?$allocator@D@2@@0@AEAV10@@Z ; std::move<std::basic_string<char,std::char_traits<char>,std::allocator<char> > &>
PUBLIC	??$?HDU?$char_traits@D@std@@V?$allocator@D@1@@std@@YA?AV?$basic_string@DU?$char_traits@D@std@@V?$allocator@D@2@@0@$$QEAV10@AEBV10@@Z ; std::operator+<char,std::char_traits<char>,std::allocator<char> >
PUBLIC	??$?HDU?$char_traits@D@std@@V?$allocator@D@1@@std@@YA?AV?$basic_string@DU?$char_traits@D@std@@V?$allocator@D@2@@0@$$QEAV10@QEBD@Z ; std::operator+<char,std::char_traits<char>,std::allocator<char> >
PUBLIC	??0WSInit@detail@httplib@@QEAA@XZ		; httplib::detail::WSInit::WSInit
PUBLIC	??1WSInit@detail@httplib@@QEAA@XZ		; httplib::detail::WSInit::~WSInit
PUBLIC	??0SSLInit@detail@httplib@@QEAA@XZ		; httplib::detail::SSLInit::SSLInit
PUBLIC	?now@system_clock@chrono@std@@SA?AV?$time_point@Usystem_clock@chrono@std@@V?$duration@_JU?$ratio@$00$0JIJGIA@@std@@@23@@23@XZ ; std::chrono::system_clock::now
PUBLIC	??0?$time_point@Usystem_clock@chrono@std@@V?$duration@_JU?$ratio@$00$0JIJGIA@@std@@@23@@chrono@std@@QEAA@AEBV?$duration@_JU?$ratio@$00$0JIJGIA@@std@@@12@@Z ; std::chrono::time_point<std::chrono::system_clock,std::chrono::duration<__int64,std::ratio<1,10000000> > >::time_point<std::chrono::system_clock,std::chrono::duration<__int64,std::ratio<1,10000000> > >
PUBLIC	??$?0_J$0A@@?$duration@_JU?$ratio@$00$0JIJGIA@@std@@@chrono@std@@QEAA@AEB_J@Z ; std::chrono::duration<__int64,std::ratio<1,10000000> >::duration<__int64,std::ratio<1,10000000> ><__int64,0>
PUBLIC	??1BaseProcessInfo@IronMan@@QEAA@XZ		; IronMan::BaseProcessInfo::~BaseProcessInfo
PUBLIC	?_Decref@?$_Ptr_base@V?$unordered_map@PEAXV?$vector@UScatterStruct@IronMan@@V?$allocator@UScatterStruct@IronMan@@@std@@@std@@U?$hash@PEAX@2@U?$equal_to@PEAX@2@V?$allocator@U?$pair@QEAXV?$vector@UScatterStruct@IronMan@@V?$allocator@UScatterStruct@IronMan@@@std@@@std@@@std@@@2@@std@@@std@@IEAAXXZ ; std::_Ptr_base<std::unordered_map<void *,std::vector<IronMan::ScatterStruct,std::allocator<IronMan::ScatterStruct> >,std::hash<void *>,std::equal_to<void *>,std::allocator<std::pair<void * const,std::vector<IronMan::ScatterStruct,std::allocator<IronMan::ScatterStruct> > > > > >::_Decref
PUBLIC	??1?$shared_ptr@V?$unordered_map@PEAXV?$vector@UScatterStruct@IronMan@@V?$allocator@UScatterStruct@IronMan@@@std@@@std@@U?$hash@PEAX@2@U?$equal_to@PEAX@2@V?$allocator@U?$pair@QEAXV?$vector@UScatterStruct@IronMan@@V?$allocator@UScatterStruct@IronMan@@@std@@@std@@@std@@@2@@std@@@std@@QEAA@XZ ; std::shared_ptr<std::unordered_map<void *,std::vector<IronMan::ScatterStruct,std::allocator<IronMan::ScatterStruct> >,std::hash<void *>,std::equal_to<void *>,std::allocator<std::pair<void * const,std::vector<IronMan::ScatterStruct,std::allocator<IronMan::ScatterStruct> > > > > >::~shared_ptr<std::unordered_map<void *,std::vector<IronMan::ScatterStruct,std::allocator<IronMan::ScatterStruct> >,std::hash<void *>,std::equal_to<void *>,std::allocator<std::pair<void * const,std::vector<IronMan::ScatterStruct,std::allocator<IronMan::ScatterStruct> > > > > >
PUBLIC	?GetDMA@IronMan@@YAAEAVDMAHandler@1@XZ		; IronMan::GetDMA
PUBLIC	??0?$_Uhash_compare@_KU?$hash@_K@std@@U?$equal_to@_K@2@@std@@QEAA@XZ ; std::_Uhash_compare<unsigned __int64,std::hash<unsigned __int64>,std::equal_to<unsigned __int64> >::_Uhash_compare<unsigned __int64,std::hash<unsigned __int64>,std::equal_to<unsigned __int64> >
PUBLIC	?_Get_max_bucket_size@?$_Uhash_compare@_KU?$hash@_K@std@@U?$equal_to@_K@2@@std@@QEAAAEAMXZ ; std::_Uhash_compare<unsigned __int64,std::hash<unsigned __int64>,std::equal_to<unsigned __int64> >::_Get_max_bucket_size
PUBLIC	?_Get_max_bucket_size@?$_Uhash_compare@_KU?$hash@_K@std@@U?$equal_to@_K@2@@std@@QEBAAEBMXZ ; std::_Uhash_compare<unsigned __int64,std::hash<unsigned __int64>,std::equal_to<unsigned __int64> >::_Get_max_bucket_size
PUBLIC	??R?$equal_to@_K@std@@QEBA_NAEB_K0@Z		; std::equal_to<unsigned __int64>::operator()
PUBLIC	??R?$_Conditionally_enabled_hash@_K$00@std@@QEBA_KAEB_K@Z ; std::_Conditionally_enabled_hash<unsigned __int64,1>::operator()
PUBLIC	?_Do_hash@?$hash@_K@std@@SA_KAEB_K@Z		; std::hash<unsigned __int64>::_Do_hash
PUBLIC	?_Get_first@?$_Compressed_pair@U?$equal_to@_K@std@@M$00@std@@QEBAAEBU?$equal_to@_K@2@XZ ; std::_Compressed_pair<std::equal_to<unsigned __int64>,float,1>::_Get_first
PUBLIC	?_Get_first@?$_Compressed_pair@U?$hash@_K@std@@V?$_Compressed_pair@U?$equal_to@_K@std@@M$00@2@$00@std@@QEBAAEBU?$hash@_K@2@XZ ; std::_Compressed_pair<std::hash<unsigned __int64>,std::_Compressed_pair<std::equal_to<unsigned __int64>,float,1>,1>::_Get_first
PUBLIC	??$forward@_K@std@@YA$$QEA_KAEA_K@Z		; std::forward<unsigned __int64>
PUBLIC	?DecryptDataByCache@SDK@Core@IronMan@@YA_N_KAEA_K@Z ; IronMan::Core::SDK::DecryptDataByCache
PUBLIC	?CacheDecryptData@SDK@Core@IronMan@@YAX_K0@Z	; IronMan::Core::SDK::CacheDecryptData
PUBLIC	?GetFunction@UEDecryptBuilder@SDK@Core@IronMan@@QEAAPEAEXZ ; IronMan::Core::SDK::UEDecryptBuilder::GetFunction
PUBLIC	??_GUEDecryptBuilder@SDK@Core@IronMan@@QEAAPEAXI@Z ; IronMan::Core::SDK::UEDecryptBuilder::`scalar deleting destructor'
PUBLIC	?GetAnsiName@FNameEntry@SDK@Core@IronMan@@QEBAPEBDXZ ; IronMan::Core::SDK::FNameEntry::GetAnsiName
PUBLIC	??0FName@SDK@Core@IronMan@@QEAA@XZ		; IronMan::Core::SDK::FName::FName
PUBLIC	??0FName@SDK@Core@IronMan@@QEAA@H@Z		; IronMan::Core::SDK::FName::FName
PUBLIC	?GetName@FName@SDK@Core@IronMan@@QEBA?AV?$basic_string@DU?$char_traits@D@std@@V?$allocator@D@2@@std@@XZ ; IronMan::Core::SDK::FName::GetName
PUBLIC	?STATIC_Get@?$UEEncryptedObjectProperty@PEAV?$TStaticIndirectArrayThreadSafeRead@VFNameEntry@SDK@Core@IronMan@@$0CAAAAA@@SDK@Core@IronMan@@$05@SDK@Core@IronMan@@SAPEAV?$TStaticIndirectArrayThreadSafeRead@VFNameEntry@SDK@Core@IronMan@@$0CAAAAA@@234@_K@Z ; IronMan::Core::SDK::UEEncryptedObjectProperty<IronMan::Core::SDK::TStaticIndirectArrayThreadSafeRead<IronMan::Core::SDK::FNameEntry,2097152> *,6>::STATIC_Get
PUBLIC	?Get@?$UEEncryptedObjectProperty@PEAV?$TStaticIndirectArrayThreadSafeRead@VFNameEntry@SDK@Core@IronMan@@$0CAAAAA@@SDK@Core@IronMan@@$05@SDK@Core@IronMan@@QEBAPEAV?$TStaticIndirectArrayThreadSafeRead@VFNameEntry@SDK@Core@IronMan@@$0CAAAAA@@234@XZ ; IronMan::Core::SDK::UEEncryptedObjectProperty<IronMan::Core::SDK::TStaticIndirectArrayThreadSafeRead<IronMan::Core::SDK::FNameEntry,2097152> *,6>::Get
PUBLIC	??C?$UEEncryptedObjectProperty@PEAV?$TStaticIndirectArrayThreadSafeRead@VFNameEntry@SDK@Core@IronMan@@$0CAAAAA@@SDK@Core@IronMan@@$05@SDK@Core@IronMan@@QEBAPEAV?$TStaticIndirectArrayThreadSafeRead@VFNameEntry@SDK@Core@IronMan@@$0CAAAAA@@123@XZ ; IronMan::Core::SDK::UEEncryptedObjectProperty<IronMan::Core::SDK::TStaticIndirectArrayThreadSafeRead<IronMan::Core::SDK::FNameEntry,2097152> *,6>::operator->
PUBLIC	?GetPtrById@?$TStaticIndirectArrayThreadSafeRead@VFNameEntry@SDK@Core@IronMan@@$0CAAAAA@@SDK@Core@IronMan@@QEBAPEAVFNameEntry@234@H@Z ; IronMan::Core::SDK::TStaticIndirectArrayThreadSafeRead<IronMan::Core::SDK::FNameEntry,2097152>::GetPtrById
PUBLIC	?GetById@?$TStaticIndirectArrayThreadSafeRead@VFNameEntry@SDK@Core@IronMan@@$0CAAAAA@@SDK@Core@IronMan@@QEBA?AVFNameEntry@234@H@Z ; IronMan::Core::SDK::TStaticIndirectArrayThreadSafeRead<IronMan::Core::SDK::FNameEntry,2097152>::GetById
PUBLIC	?GetItemPtr@?$TStaticIndirectArrayThreadSafeRead@VFNameEntry@SDK@Core@IronMan@@$0CAAAAA@@SDK@Core@IronMan@@AEBAPEAPEAVFNameEntry@234@H@Z ; IronMan::Core::SDK::TStaticIndirectArrayThreadSafeRead<IronMan::Core::SDK::FNameEntry,2097152>::GetItemPtr
PUBLIC	??0?$UEEncryptedObjectProperty@PEAPEAPEAVFNameEntry@SDK@Core@IronMan@@$05@SDK@Core@IronMan@@QEAA@_K@Z ; IronMan::Core::SDK::UEEncryptedObjectProperty<IronMan::Core::SDK::FNameEntry * * *,6>::UEEncryptedObjectProperty<IronMan::Core::SDK::FNameEntry * * *,6>
PUBLIC	?STATIC_Get@?$UEEncryptedObjectProperty@PEAPEAPEAVFNameEntry@SDK@Core@IronMan@@$05@SDK@Core@IronMan@@SAPEAPEAPEAVFNameEntry@234@_K@Z ; IronMan::Core::SDK::UEEncryptedObjectProperty<IronMan::Core::SDK::FNameEntry * * *,6>::STATIC_Get
PUBLIC	?Get@?$UEEncryptedObjectProperty@PEAPEAPEAVFNameEntry@SDK@Core@IronMan@@$05@SDK@Core@IronMan@@QEBAPEAPEAPEAVFNameEntry@234@XZ ; IronMan::Core::SDK::UEEncryptedObjectProperty<IronMan::Core::SDK::FNameEntry * * *,6>::Get
PUBLIC	?ClearObjectCache@SDK@Core@IronMan@@YAXXZ	; IronMan::Core::SDK::ClearObjectCache
PUBLIC	?IsUnreachable@FUObjectItem@SDK@Core@IronMan@@QEBA_NXZ ; IronMan::Core::SDK::FUObjectItem::IsUnreachable
PUBLIC	?IsPendingKill@FUObjectItem@SDK@Core@IronMan@@QEBA_NXZ ; IronMan::Core::SDK::FUObjectItem::IsPendingKill
PUBLIC	??0UObject@SDK@Core@IronMan@@QEAA@XZ		; IronMan::Core::SDK::UObject::UObject
PUBLIC	??0UObject@SDK@Core@IronMan@@QEAA@AEAPEBX@Z	; IronMan::Core::SDK::UObject::UObject
PUBLIC	??0UObject@SDK@Core@IronMan@@QEAA@PEAX@Z	; IronMan::Core::SDK::UObject::UObject
PUBLIC	??1UObject@SDK@Core@IronMan@@UEAA@XZ		; IronMan::Core::SDK::UObject::~UObject
PUBLIC	?IsValid@UObject@SDK@Core@IronMan@@QEBA_NXZ	; IronMan::Core::SDK::UObject::IsValid
PUBLIC	?GetObjectFlags@UObject@SDK@Core@IronMan@@QEAA?AW4EObjectFlags@234@XZ ; IronMan::Core::SDK::UObject::GetObjectFlags
PUBLIC	?GetIndex@UObject@SDK@Core@IronMan@@QEAA_KXZ	; IronMan::Core::SDK::UObject::GetIndex
PUBLIC	?GetClass@UObject@SDK@Core@IronMan@@QEAA?AVUClass@234@XZ ; IronMan::Core::SDK::UObject::GetClass
PUBLIC	?GetOuter@UObject@SDK@Core@IronMan@@QEAA?AV1234@XZ ; IronMan::Core::SDK::UObject::GetOuter
PUBLIC	?GetName@UObject@SDK@Core@IronMan@@QEAA?AV?$basic_string@DU?$char_traits@D@std@@V?$allocator@D@2@@std@@_N0@Z ; IronMan::Core::SDK::UObject::GetName
PUBLIC	?TestName@UObject@SDK@Core@IronMan@@QEAAHXZ	; IronMan::Core::SDK::UObject::TestName
PUBLIC	?GetSuperClassName@UObject@SDK@Core@IronMan@@QEAA?AV?$basic_string@DU?$char_traits@D@std@@V?$allocator@D@2@@std@@XZ ; IronMan::Core::SDK::UObject::GetSuperClassName
PUBLIC	?GetFullName@UObject@SDK@Core@IronMan@@QEAA?AV?$basic_string@DU?$char_traits@D@std@@V?$allocator@D@2@@std@@XZ ; IronMan::Core::SDK::UObject::GetFullName
PUBLIC	?IsA@UObject@SDK@Core@IronMan@@QEAA_NW4UObjectType@234@@Z ; IronMan::Core::SDK::UObject::IsA
PUBLIC	?SetIsA@UObject@SDK@Core@IronMan@@QEAA_NW4UObjectType@234@@Z ; IronMan::Core::SDK::UObject::SetIsA
PUBLIC	?ProcessEvent@UObject@SDK@Core@IronMan@@QEAAXVUFunction@234@PEAX@Z ; IronMan::Core::SDK::UObject::ProcessEvent
PUBLIC	??CUObject@SDK@Core@IronMan@@QEAA@XZ		; IronMan::Core::SDK::UObject::operator->
PUBLIC	??BUObject@SDK@Core@IronMan@@QEAA_NXZ		; IronMan::Core::SDK::UObject::operator bool
PUBLIC	?StaticClass@UObject@SDK@Core@IronMan@@SA?AVUClass@234@XZ ; IronMan::Core::SDK::UObject::StaticClass
PUBLIC	?GetPtr@UObject@SDK@Core@IronMan@@QEBAPEAXXZ	; IronMan::Core::SDK::UObject::GetPtr
PUBLIC	??0UObject@SDK@Core@IronMan@@QEAA@AEBV0123@@Z	; IronMan::Core::SDK::UObject::UObject
PUBLIC	??4UObject@SDK@Core@IronMan@@QEAAAEAV0123@AEBV0123@@Z ; IronMan::Core::SDK::UObject::operator=
PUBLIC	??_GUObject@SDK@Core@IronMan@@UEAAPEAXI@Z	; IronMan::Core::SDK::UObject::`scalar deleting destructor'
PUBLIC	?SerialNumbersMatch@FWeakObjectPtr@SDK@Core@IronMan@@QEBA_NPEAVFUObjectItem@234@@Z ; IronMan::Core::SDK::FWeakObjectPtr::SerialNumbersMatch
PUBLIC	?IsValid@FWeakObjectPtr@SDK@Core@IronMan@@QEBA_NXZ ; IronMan::Core::SDK::FWeakObjectPtr::IsValid
PUBLIC	?Get@FWeakObjectPtr@SDK@Core@IronMan@@QEBAPEAXXZ ; IronMan::Core::SDK::FWeakObjectPtr::Get
PUBLIC	?MakeVectorRegister@Math@Core@IronMan@@YA?AT__m128@@IIII@Z ; IronMan::Core::Math::MakeVectorRegister
PUBLIC	?MakeVectorRegister@Math@Core@IronMan@@YA?AT__m128@@MMMM@Z ; IronMan::Core::Math::MakeVectorRegister
PUBLIC	??$Read@_K@DMAHandler@IronMan@@QEAA_K_K@Z	; IronMan::DMAHandler::Read<unsigned __int64>
PUBLIC	??$?R_K@?$_Uhash_compare@_KU?$hash@_K@std@@U?$equal_to@_K@2@@std@@QEBA_KAEB_K@Z ; std::_Uhash_compare<unsigned __int64,std::hash<unsigned __int64>,std::equal_to<unsigned __int64> >::operator()<unsigned __int64>
PUBLIC	??1UField@SDK@Core@IronMan@@UEAA@XZ		; IronMan::Core::SDK::UField::~UField
PUBLIC	??0UField@SDK@Core@IronMan@@QEAA@AEBV0123@@Z	; IronMan::Core::SDK::UField::UField
PUBLIC	??0UField@SDK@Core@IronMan@@QEAA@$$QEAV0123@@Z	; IronMan::Core::SDK::UField::UField
PUBLIC	??4UField@SDK@Core@IronMan@@QEAAAEAV0123@$$QEAV0123@@Z ; IronMan::Core::SDK::UField::operator=
PUBLIC	??_GUField@SDK@Core@IronMan@@UEAAPEAXI@Z	; IronMan::Core::SDK::UField::`scalar deleting destructor'
PUBLIC	??1UStruct@SDK@Core@IronMan@@UEAA@XZ		; IronMan::Core::SDK::UStruct::~UStruct
PUBLIC	??0UStruct@SDK@Core@IronMan@@QEAA@AEBV0123@@Z	; IronMan::Core::SDK::UStruct::UStruct
PUBLIC	??0UStruct@SDK@Core@IronMan@@QEAA@$$QEAV0123@@Z	; IronMan::Core::SDK::UStruct::UStruct
PUBLIC	??4UStruct@SDK@Core@IronMan@@QEAAAEAV0123@$$QEAV0123@@Z ; IronMan::Core::SDK::UStruct::operator=
PUBLIC	??_GUStruct@SDK@Core@IronMan@@UEAAPEAXI@Z	; IronMan::Core::SDK::UStruct::`scalar deleting destructor'
PUBLIC	??0UClass@SDK@Core@IronMan@@QEAA@PEAX@Z		; IronMan::Core::SDK::UClass::UClass
PUBLIC	?GetClassBaseChain@UClass@SDK@Core@IronMan@@QEBA?BUFClassBaseChain@1234@XZ ; IronMan::Core::SDK::UClass::GetClassBaseChain
PUBLIC	?IsAUsingClassArray@UClass@SDK@Core@IronMan@@QEBA_NAEBV1234@@Z ; IronMan::Core::SDK::UClass::IsAUsingClassArray
PUBLIC	??CUClass@SDK@Core@IronMan@@QEAA@XZ		; IronMan::Core::SDK::UClass::operator->
PUBLIC	?StaticClass@UClass@SDK@Core@IronMan@@SA?AV1234@XZ ; IronMan::Core::SDK::UClass::StaticClass
PUBLIC	??1UClass@SDK@Core@IronMan@@UEAA@XZ		; IronMan::Core::SDK::UClass::~UClass
PUBLIC	??0UClass@SDK@Core@IronMan@@QEAA@AEBV0123@@Z	; IronMan::Core::SDK::UClass::UClass
PUBLIC	??0UClass@SDK@Core@IronMan@@QEAA@$$QEAV0123@@Z	; IronMan::Core::SDK::UClass::UClass
PUBLIC	??_GUClass@SDK@Core@IronMan@@UEAAPEAXI@Z	; IronMan::Core::SDK::UClass::`scalar deleting destructor'
PUBLIC	??$ReadCache@UFClassBaseChain@UClass@SDK@Core@IronMan@@@DMAHandler@IronMan@@QEAA?AUFClassBaseChain@UClass@SDK@Core@1@_K@Z ; IronMan::DMAHandler::ReadCache<IronMan::Core::SDK::UClass::FClassBaseChain>
PUBLIC	??$ReadCache@_K@DMAHandler@IronMan@@QEAA_K_K@Z	; IronMan::DMAHandler::ReadCache<unsigned __int64>
PUBLIC	??1UFunction@SDK@Core@IronMan@@UEAA@XZ		; IronMan::Core::SDK::UFunction::~UFunction
PUBLIC	??0?$_Uhash_compare@IU?$hash@I@std@@U?$equal_to@I@2@@std@@QEAA@XZ ; std::_Uhash_compare<unsigned int,std::hash<unsigned int>,std::equal_to<unsigned int> >::_Uhash_compare<unsigned int,std::hash<unsigned int>,std::equal_to<unsigned int> >
PUBLIC	?_Get_max_bucket_size@?$_Uhash_compare@IU?$hash@I@std@@U?$equal_to@I@2@@std@@QEAAAEAMXZ ; std::_Uhash_compare<unsigned int,std::hash<unsigned int>,std::equal_to<unsigned int> >::_Get_max_bucket_size
PUBLIC	?_Get_max_bucket_size@?$_Uhash_compare@IU?$hash@I@std@@U?$equal_to@I@2@@std@@QEBAAEBMXZ ; std::_Uhash_compare<unsigned int,std::hash<unsigned int>,std::equal_to<unsigned int> >::_Get_max_bucket_size
PUBLIC	??R?$equal_to@I@std@@QEBA_NAEBI0@Z		; std::equal_to<unsigned int>::operator()
PUBLIC	??R?$_Conditionally_enabled_hash@I$00@std@@QEBA_KAEBI@Z ; std::_Conditionally_enabled_hash<unsigned int,1>::operator()
PUBLIC	?_Do_hash@?$hash@I@std@@SA_KAEBI@Z		; std::hash<unsigned int>::_Do_hash
PUBLIC	?_Get_first@?$_Compressed_pair@U?$equal_to@I@std@@M$00@std@@QEBAAEBU?$equal_to@I@2@XZ ; std::_Compressed_pair<std::equal_to<unsigned int>,float,1>::_Get_first
PUBLIC	?_Get_first@?$_Compressed_pair@U?$hash@I@std@@V?$_Compressed_pair@U?$equal_to@I@std@@M$00@2@$00@std@@QEBAAEBU?$hash@I@2@XZ ; std::_Compressed_pair<std::hash<unsigned int>,std::_Compressed_pair<std::equal_to<unsigned int>,float,1>,1>::_Get_first
PUBLIC	??0?$allocator@U?$pair@$$CBIV?$basic_string@DU?$char_traits@D@std@@V?$allocator@D@2@@std@@@std@@@std@@QEAA@XZ ; std::allocator<std::pair<unsigned int const ,std::basic_string<char,std::char_traits<char>,std::allocator<char> > > >::allocator<std::pair<unsigned int const ,std::basic_string<char,std::char_traits<char>,std::allocator<char> > > >
PUBLIC	??0?$_Umap_traits@IV?$basic_string@DU?$char_traits@D@std@@V?$allocator@D@2@@std@@V?$_Uhash_compare@IU?$hash@I@std@@U?$equal_to@I@2@@2@V?$allocator@U?$pair@$$CBIV?$basic_string@DU?$char_traits@D@std@@V?$allocator@D@2@@std@@@std@@@2@$0A@@std@@QEAA@AEBV?$_Uhash_compare@IU?$hash@I@std@@U?$equal_to@I@2@@1@@Z ; std::_Umap_traits<unsigned int,std::basic_string<char,std::char_traits<char>,std::allocator<char> >,std::_Uhash_compare<unsigned int,std::hash<unsigned int>,std::equal_to<unsigned int> >,std::allocator<std::pair<unsigned int const ,std::basic_string<char,std::char_traits<char>,std::allocator<char> > > >,0>::_Umap_traits<unsigned int,std::basic_string<char,std::char_traits<char>,std::allocator<char> >,std::_Uhash_compare<unsigned int,std::hash<unsigned int>,std::equal_to<unsigned int> >,std::allocator<std::pair<unsigned int const ,std::basic_string<char,std::char_traits<char>,std::allocator<char> > > >,0>
PUBLIC	?deallocate@?$allocator@U?$_List_node@U?$pair@$$CBIV?$basic_string@DU?$char_traits@D@std@@V?$allocator@D@2@@std@@@std@@PEAX@std@@@std@@QEAAXQEAU?$_List_node@U?$pair@$$CBIV?$basic_string@DU?$char_traits@D@std@@V?$allocator@D@2@@std@@@std@@PEAX@2@_K@Z ; std::allocator<std::_List_node<std::pair<unsigned int const ,std::basic_string<char,std::char_traits<char>,std::allocator<char> > >,void *> >::deallocate
PUBLIC	?allocate@?$allocator@U?$_List_node@U?$pair@$$CBIV?$basic_string@DU?$char_traits@D@std@@V?$allocator@D@2@@std@@@std@@PEAX@std@@@std@@QEAAPEAU?$_List_node@U?$pair@$$CBIV?$basic_string@DU?$char_traits@D@std@@V?$allocator@D@2@@std@@@std@@PEAX@2@_K@Z ; std::allocator<std::_List_node<std::pair<unsigned int const ,std::basic_string<char,std::char_traits<char>,std::allocator<char> > >,void *> >::allocate
PUBLIC	?deallocate@?$_Default_allocator_traits@V?$allocator@U?$_List_node@U?$pair@$$CBIV?$basic_string@DU?$char_traits@D@std@@V?$allocator@D@2@@std@@@std@@PEAX@std@@@std@@@std@@SAXAEAV?$allocator@U?$_List_node@U?$pair@$$CBIV?$basic_string@DU?$char_traits@D@std@@V?$allocator@D@2@@std@@@std@@PEAX@std@@@2@QEAU?$_List_node@U?$pair@$$CBIV?$basic_string@DU?$char_traits@D@std@@V?$allocator@D@2@@std@@@std@@PEAX@2@_K@Z ; std::_Default_allocator_traits<std::allocator<std::_List_node<std::pair<unsigned int const ,std::basic_string<char,std::char_traits<char>,std::allocator<char> > >,void *> > >::deallocate
PUBLIC	?max_size@?$_Default_allocator_traits@V?$allocator@U?$_List_node@U?$pair@$$CBIV?$basic_string@DU?$char_traits@D@std@@V?$allocator@D@2@@std@@@std@@PEAX@std@@@std@@@std@@SA_KAEBV?$allocator@U?$_List_node@U?$pair@$$CBIV?$basic_string@DU?$char_traits@D@std@@V?$allocator@D@2@@std@@@std@@PEAX@std@@@2@@Z ; std::_Default_allocator_traits<std::allocator<std::_List_node<std::pair<unsigned int const ,std::basic_string<char,std::char_traits<char>,std::allocator<char> > >,void *> > >::max_size
PUBLIC	??0?$list@U?$pair@$$CBIV?$basic_string@DU?$char_traits@D@std@@V?$allocator@D@2@@std@@@std@@V?$allocator@U?$pair@$$CBIV?$basic_string@DU?$char_traits@D@std@@V?$allocator@D@2@@std@@@std@@@2@@std@@QEAA@AEBV?$allocator@U?$pair@$$CBIV?$basic_string@DU?$char_traits@D@std@@V?$allocator@D@2@@std@@@std@@@1@@Z ; std::list<std::pair<unsigned int const ,std::basic_string<char,std::char_traits<char>,std::allocator<char> > >,std::allocator<std::pair<unsigned int const ,std::basic_string<char,std::char_traits<char>,std::allocator<char> > > > >::list<std::pair<unsigned int const ,std::basic_string<char,std::char_traits<char>,std::allocator<char> > >,std::allocator<std::pair<unsigned int const ,std::basic_string<char,std::char_traits<char>,std::allocator<char> > > > >
PUBLIC	??1?$list@U?$pair@$$CBIV?$basic_string@DU?$char_traits@D@std@@V?$allocator@D@2@@std@@@std@@V?$allocator@U?$pair@$$CBIV?$basic_string@DU?$char_traits@D@std@@V?$allocator@D@2@@std@@@std@@@2@@std@@QEAA@XZ ; std::list<std::pair<unsigned int const ,std::basic_string<char,std::char_traits<char>,std::allocator<char> > >,std::allocator<std::pair<unsigned int const ,std::basic_string<char,std::char_traits<char>,std::allocator<char> > > > >::~list<std::pair<unsigned int const ,std::basic_string<char,std::char_traits<char>,std::allocator<char> > >,std::allocator<std::pair<unsigned int const ,std::basic_string<char,std::char_traits<char>,std::allocator<char> > > > >
PUBLIC	?end@?$list@U?$pair@$$CBIV?$basic_string@DU?$char_traits@D@std@@V?$allocator@D@2@@std@@@std@@V?$allocator@U?$pair@$$CBIV?$basic_string@DU?$char_traits@D@std@@V?$allocator@D@2@@std@@@std@@@2@@std@@QEAA?AV?$_List_iterator@V?$_List_val@U?$_List_simple_types@U?$pair@$$CBIV?$basic_string@DU?$char_traits@D@std@@V?$allocator@D@2@@std@@@std@@@std@@@std@@@2@XZ ; std::list<std::pair<unsigned int const ,std::basic_string<char,std::char_traits<char>,std::allocator<char> > >,std::allocator<std::pair<unsigned int const ,std::basic_string<char,std::char_traits<char>,std::allocator<char> > > > >::end
PUBLIC	?_Unchecked_begin@?$list@U?$pair@$$CBIV?$basic_string@DU?$char_traits@D@std@@V?$allocator@D@2@@std@@@std@@V?$allocator@U?$pair@$$CBIV?$basic_string@DU?$char_traits@D@std@@V?$allocator@D@2@@std@@@std@@@2@@std@@QEAA?AV?$_List_unchecked_iterator@V?$_List_val@U?$_List_simple_types@U?$pair@$$CBIV?$basic_string@DU?$char_traits@D@std@@V?$allocator@D@2@@std@@@std@@@std@@@std@@@2@XZ ; std::list<std::pair<unsigned int const ,std::basic_string<char,std::char_traits<char>,std::allocator<char> > >,std::allocator<std::pair<unsigned int const ,std::basic_string<char,std::char_traits<char>,std::allocator<char> > > > >::_Unchecked_begin
PUBLIC	?_Unchecked_end@?$list@U?$pair@$$CBIV?$basic_string@DU?$char_traits@D@std@@V?$allocator@D@2@@std@@@std@@V?$allocator@U?$pair@$$CBIV?$basic_string@DU?$char_traits@D@std@@V?$allocator@D@2@@std@@@std@@@2@@std@@QEAA?AV?$_List_unchecked_iterator@V?$_List_val@U?$_List_simple_types@U?$pair@$$CBIV?$basic_string@DU?$char_traits@D@std@@V?$allocator@D@2@@std@@@std@@@std@@@std@@@2@XZ ; std::list<std::pair<unsigned int const ,std::basic_string<char,std::char_traits<char>,std::allocator<char> > >,std::allocator<std::pair<unsigned int const ,std::basic_string<char,std::char_traits<char>,std::allocator<char> > > > >::_Unchecked_end
PUBLIC	?_Make_iter@?$list@U?$pair@$$CBIV?$basic_string@DU?$char_traits@D@std@@V?$allocator@D@2@@std@@@std@@V?$allocator@U?$pair@$$CBIV?$basic_string@DU?$char_traits@D@std@@V?$allocator@D@2@@std@@@std@@@2@@std@@QEBA?AV?$_List_iterator@V?$_List_val@U?$_List_simple_types@U?$pair@$$CBIV?$basic_string@DU?$char_traits@D@std@@V?$allocator@D@2@@std@@@std@@@std@@@std@@@2@PEAU?$_List_node@U?$pair@$$CBIV?$basic_string@DU?$char_traits@D@std@@V?$allocator@D@2@@std@@@std@@PEAX@2@@Z ; std::list<std::pair<unsigned int const ,std::basic_string<char,std::char_traits<char>,std::allocator<char> > >,std::allocator<std::pair<unsigned int const ,std::basic_string<char,std::char_traits<char>,std::allocator<char> > > > >::_Make_iter
PUBLIC	?max_size@?$list@U?$pair@$$CBIV?$basic_string@DU?$char_traits@D@std@@V?$allocator@D@2@@std@@@std@@V?$allocator@U?$pair@$$CBIV?$basic_string@DU?$char_traits@D@std@@V?$allocator@D@2@@std@@@std@@@2@@std@@QEBA_KXZ ; std::list<std::pair<unsigned int const ,std::basic_string<char,std::char_traits<char>,std::allocator<char> > >,std::allocator<std::pair<unsigned int const ,std::basic_string<char,std::char_traits<char>,std::allocator<char> > > > >::max_size
PUBLIC	?clear@?$list@U?$pair@$$CBIV?$basic_string@DU?$char_traits@D@std@@V?$allocator@D@2@@std@@@std@@V?$allocator@U?$pair@$$CBIV?$basic_string@DU?$char_traits@D@std@@V?$allocator@D@2@@std@@@std@@@2@@std@@QEAAXXZ ; std::list<std::pair<unsigned int const ,std::basic_string<char,std::char_traits<char>,std::allocator<char> > >,std::allocator<std::pair<unsigned int const ,std::basic_string<char,std::char_traits<char>,std::allocator<char> > > > >::clear
PUBLIC	?_Tidy@?$list@U?$pair@$$CBIV?$basic_string@DU?$char_traits@D@std@@V?$allocator@D@2@@std@@@std@@V?$allocator@U?$pair@$$CBIV?$basic_string@DU?$char_traits@D@std@@V?$allocator@D@2@@std@@@std@@@2@@std@@AEAAXXZ ; std::list<std::pair<unsigned int const ,std::basic_string<char,std::char_traits<char>,std::allocator<char> > >,std::allocator<std::pair<unsigned int const ,std::basic_string<char,std::char_traits<char>,std::allocator<char> > > > >::_Tidy
PUBLIC	?_Alloc_sentinel_and_proxy@?$list@U?$pair@$$CBIV?$basic_string@DU?$char_traits@D@std@@V?$allocator@D@2@@std@@@std@@V?$allocator@U?$pair@$$CBIV?$basic_string@DU?$char_traits@D@std@@V?$allocator@D@2@@std@@@std@@@2@@std@@AEAAXXZ ; std::list<std::pair<unsigned int const ,std::basic_string<char,std::char_traits<char>,std::allocator<char> > >,std::allocator<std::pair<unsigned int const ,std::basic_string<char,std::char_traits<char>,std::allocator<char> > > > >::_Alloc_sentinel_and_proxy
PUBLIC	?_Getal@?$list@U?$pair@$$CBIV?$basic_string@DU?$char_traits@D@std@@V?$allocator@D@2@@std@@@std@@V?$allocator@U?$pair@$$CBIV?$basic_string@DU?$char_traits@D@std@@V?$allocator@D@2@@std@@@std@@@2@@std@@AEAAAEAV?$allocator@U?$_List_node@U?$pair@$$CBIV?$basic_string@DU?$char_traits@D@std@@V?$allocator@D@2@@std@@@std@@PEAX@std@@@2@XZ ; std::list<std::pair<unsigned int const ,std::basic_string<char,std::char_traits<char>,std::allocator<char> > >,std::allocator<std::pair<unsigned int const ,std::basic_string<char,std::char_traits<char>,std::allocator<char> > > > >::_Getal
PUBLIC	?_Getal@?$list@U?$pair@$$CBIV?$basic_string@DU?$char_traits@D@std@@V?$allocator@D@2@@std@@@std@@V?$allocator@U?$pair@$$CBIV?$basic_string@DU?$char_traits@D@std@@V?$allocator@D@2@@std@@@std@@@2@@std@@AEBAAEBV?$allocator@U?$_List_node@U?$pair@$$CBIV?$basic_string@DU?$char_traits@D@std@@V?$allocator@D@2@@std@@@std@@PEAX@std@@@2@XZ ; std::list<std::pair<unsigned int const ,std::basic_string<char,std::char_traits<char>,std::allocator<char> > >,std::allocator<std::pair<unsigned int const ,std::basic_string<char,std::char_traits<char>,std::allocator<char> > > > >::_Getal
PUBLIC	??0?$_List_val@U?$_List_simple_types@U?$pair@$$CBIV?$basic_string@DU?$char_traits@D@std@@V?$allocator@D@2@@std@@@std@@@std@@@std@@QEAA@XZ ; std::_List_val<std::_List_simple_types<std::pair<unsigned int const ,std::basic_string<char,std::char_traits<char>,std::allocator<char> > > > >::_List_val<std::_List_simple_types<std::pair<unsigned int const ,std::basic_string<char,std::char_traits<char>,std::allocator<char> > > > >
PUBLIC	?_Orphan_non_end@?$_List_val@U?$_List_simple_types@U?$pair@$$CBIV?$basic_string@DU?$char_traits@D@std@@V?$allocator@D@2@@std@@@std@@@std@@@std@@QEAAXXZ ; std::_List_val<std::_List_simple_types<std::pair<unsigned int const ,std::basic_string<char,std::char_traits<char>,std::allocator<char> > > > >::_Orphan_non_end
PUBLIC	?_Unchecked_splice@?$_List_val@U?$_List_simple_types@U?$pair@$$CBIV?$basic_string@DU?$char_traits@D@std@@V?$allocator@D@2@@std@@@std@@@std@@@std@@SAPEAU?$_List_node@U?$pair@$$CBIV?$basic_string@DU?$char_traits@D@std@@V?$allocator@D@2@@std@@@std@@PEAX@2@QEAU32@00@Z ; std::_List_val<std::_List_simple_types<std::pair<unsigned int const ,std::basic_string<char,std::char_traits<char>,std::allocator<char> > > > >::_Unchecked_splice
PUBLIC	?_Get_first@?$_Compressed_pair@V?$allocator@U?$_List_node@U?$pair@$$CBIV?$basic_string@DU?$char_traits@D@std@@V?$allocator@D@2@@std@@@std@@PEAX@std@@@std@@V?$_List_val@U?$_List_simple_types@U?$pair@$$CBIV?$basic_string@DU?$char_traits@D@std@@V?$allocator@D@2@@std@@@std@@@std@@@2@$00@std@@QEAAAEAV?$allocator@U?$_List_node@U?$pair@$$CBIV?$basic_string@DU?$char_traits@D@std@@V?$allocator@D@2@@std@@@std@@PEAX@std@@@2@XZ ; std::_Compressed_pair<std::allocator<std::_List_node<std::pair<unsigned int const ,std::basic_string<char,std::char_traits<char>,std::allocator<char> > >,void *> >,std::_List_val<std::_List_simple_types<std::pair<unsigned int const ,std::basic_string<char,std::char_traits<char>,std::allocator<char> > > > >,1>::_Get_first
PUBLIC	?_Get_first@?$_Compressed_pair@V?$allocator@U?$_List_node@U?$pair@$$CBIV?$basic_string@DU?$char_traits@D@std@@V?$allocator@D@2@@std@@@std@@PEAX@std@@@std@@V?$_List_val@U?$_List_simple_types@U?$pair@$$CBIV?$basic_string@DU?$char_traits@D@std@@V?$allocator@D@2@@std@@@std@@@std@@@2@$00@std@@QEBAAEBV?$allocator@U?$_List_node@U?$pair@$$CBIV?$basic_string@DU?$char_traits@D@std@@V?$allocator@D@2@@std@@@std@@PEAX@std@@@2@XZ ; std::_Compressed_pair<std::allocator<std::_List_node<std::pair<unsigned int const ,std::basic_string<char,std::char_traits<char>,std::allocator<char> > >,void *> >,std::_List_val<std::_List_simple_types<std::pair<unsigned int const ,std::basic_string<char,std::char_traits<char>,std::allocator<char> > > > >,1>::_Get_first
PUBLIC	??0?$_Hash@V?$_Umap_traits@IV?$basic_string@DU?$char_traits@D@std@@V?$allocator@D@2@@std@@V?$_Uhash_compare@IU?$hash@I@std@@U?$equal_to@I@2@@2@V?$allocator@U?$pair@$$CBIV?$basic_string@DU?$char_traits@D@std@@V?$allocator@D@2@@std@@@std@@@2@$0A@@std@@@std@@IEAA@AEBV?$_Uhash_compare@IU?$hash@I@std@@U?$equal_to@I@2@@1@AEBV?$allocator@U?$pair@$$CBIV?$basic_string@DU?$char_traits@D@std@@V?$allocator@D@2@@std@@@std@@@1@@Z ; std::_Hash<std::_Umap_traits<unsigned int,std::basic_string<char,std::char_traits<char>,std::allocator<char> >,std::_Uhash_compare<unsigned int,std::hash<unsigned int>,std::equal_to<unsigned int> >,std::allocator<std::pair<unsigned int const ,std::basic_string<char,std::char_traits<char>,std::allocator<char> > > >,0> >::_Hash<std::_Umap_traits<unsigned int,std::basic_string<char,std::char_traits<char>,std::allocator<char> >,std::_Uhash_compare<unsigned int,std::hash<unsigned int>,std::equal_to<unsigned int> >,std::allocator<std::pair<unsigned int const ,std::basic_string<char,std::char_traits<char>,std::allocator<char> > > >,0> >
PUBLIC	?end@?$_Hash@V?$_Umap_traits@IV?$basic_string@DU?$char_traits@D@std@@V?$allocator@D@2@@std@@V?$_Uhash_compare@IU?$hash@I@std@@U?$equal_to@I@2@@2@V?$allocator@U?$pair@$$CBIV?$basic_string@DU?$char_traits@D@std@@V?$allocator@D@2@@std@@@std@@@2@$0A@@std@@@std@@QEAA?AV?$_List_iterator@V?$_List_val@U?$_List_simple_types@U?$pair@$$CBIV?$basic_string@DU?$char_traits@D@std@@V?$allocator@D@2@@std@@@std@@@std@@@std@@@2@XZ ; std::_Hash<std::_Umap_traits<unsigned int,std::basic_string<char,std::char_traits<char>,std::allocator<char> >,std::_Uhash_compare<unsigned int,std::hash<unsigned int>,std::equal_to<unsigned int> >,std::allocator<std::pair<unsigned int const ,std::basic_string<char,std::char_traits<char>,std::allocator<char> > > >,0> >::end
PUBLIC	?_Unchecked_begin@?$_Hash@V?$_Umap_traits@IV?$basic_string@DU?$char_traits@D@std@@V?$allocator@D@2@@std@@V?$_Uhash_compare@IU?$hash@I@std@@U?$equal_to@I@2@@2@V?$allocator@U?$pair@$$CBIV?$basic_string@DU?$char_traits@D@std@@V?$allocator@D@2@@std@@@std@@@2@$0A@@std@@@std@@QEAA?AV?$_List_unchecked_iterator@V?$_List_val@U?$_List_simple_types@U?$pair@$$CBIV?$basic_string@DU?$char_traits@D@std@@V?$allocator@D@2@@std@@@std@@@std@@@std@@@2@XZ ; std::_Hash<std::_Umap_traits<unsigned int,std::basic_string<char,std::char_traits<char>,std::allocator<char> >,std::_Uhash_compare<unsigned int,std::hash<unsigned int>,std::equal_to<unsigned int> >,std::allocator<std::pair<unsigned int const ,std::basic_string<char,std::char_traits<char>,std::allocator<char> > > >,0> >::_Unchecked_begin
PUBLIC	?_Unchecked_end@?$_Hash@V?$_Umap_traits@IV?$basic_string@DU?$char_traits@D@std@@V?$allocator@D@2@@std@@V?$_Uhash_compare@IU?$hash@I@std@@U?$equal_to@I@2@@2@V?$allocator@U?$pair@$$CBIV?$basic_string@DU?$char_traits@D@std@@V?$allocator@D@2@@std@@@std@@@2@$0A@@std@@@std@@QEAA?AV?$_List_unchecked_iterator@V?$_List_val@U?$_List_simple_types@U?$pair@$$CBIV?$basic_string@DU?$char_traits@D@std@@V?$allocator@D@2@@std@@@std@@@std@@@std@@@2@XZ ; std::_Hash<std::_Umap_traits<unsigned int,std::basic_string<char,std::char_traits<char>,std::allocator<char> >,std::_Uhash_compare<unsigned int,std::hash<unsigned int>,std::equal_to<unsigned int> >,std::allocator<std::pair<unsigned int const ,std::basic_string<char,std::char_traits<char>,std::allocator<char> > > >,0> >::_Unchecked_end
PUBLIC	?bucket_count@?$_Hash@V?$_Umap_traits@IV?$basic_string@DU?$char_traits@D@std@@V?$allocator@D@2@@std@@V?$_Uhash_compare@IU?$hash@I@std@@U?$equal_to@I@2@@2@V?$allocator@U?$pair@$$CBIV?$basic_string@DU?$char_traits@D@std@@V?$allocator@D@2@@std@@@std@@@2@$0A@@std@@@std@@QEBA_KXZ ; std::_Hash<std::_Umap_traits<unsigned int,std::basic_string<char,std::char_traits<char>,std::allocator<char> >,std::_Uhash_compare<unsigned int,std::hash<unsigned int>,std::equal_to<unsigned int> >,std::allocator<std::pair<unsigned int const ,std::basic_string<char,std::char_traits<char>,std::allocator<char> > > >,0> >::bucket_count
PUBLIC	?bucket@?$_Hash@V?$_Umap_traits@IV?$basic_string@DU?$char_traits@D@std@@V?$allocator@D@2@@std@@V?$_Uhash_compare@IU?$hash@I@std@@U?$equal_to@I@2@@2@V?$allocator@U?$pair@$$CBIV?$basic_string@DU?$char_traits@D@std@@V?$allocator@D@2@@std@@@std@@@2@$0A@@std@@@std@@QEBA_KAEBI@Z ; std::_Hash<std::_Umap_traits<unsigned int,std::basic_string<char,std::char_traits<char>,std::allocator<char> >,std::_Uhash_compare<unsigned int,std::hash<unsigned int>,std::equal_to<unsigned int> >,std::allocator<std::pair<unsigned int const ,std::basic_string<char,std::char_traits<char>,std::allocator<char> > > >,0> >::bucket
PUBLIC	?max_load_factor@?$_Hash@V?$_Umap_traits@IV?$basic_string@DU?$char_traits@D@std@@V?$allocator@D@2@@std@@V?$_Uhash_compare@IU?$hash@I@std@@U?$equal_to@I@2@@2@V?$allocator@U?$pair@$$CBIV?$basic_string@DU?$char_traits@D@std@@V?$allocator@D@2@@std@@@std@@@2@$0A@@std@@@std@@QEBAMXZ ; std::_Hash<std::_Umap_traits<unsigned int,std::basic_string<char,std::char_traits<char>,std::allocator<char> >,std::_Uhash_compare<unsigned int,std::hash<unsigned int>,std::equal_to<unsigned int> >,std::allocator<std::pair<unsigned int const ,std::basic_string<char,std::char_traits<char>,std::allocator<char> > > >,0> >::max_load_factor
PUBLIC	?_Unchecked_erase@?$_Hash@V?$_Umap_traits@IV?$basic_string@DU?$char_traits@D@std@@V?$allocator@D@2@@std@@V?$_Uhash_compare@IU?$hash@I@std@@U?$equal_to@I@2@@2@V?$allocator@U?$pair@$$CBIV?$basic_string@DU?$char_traits@D@std@@V?$allocator@D@2@@std@@@std@@@2@$0A@@std@@@std@@AEAAPEAU?$_List_node@U?$pair@$$CBIV?$basic_string@DU?$char_traits@D@std@@V?$allocator@D@2@@std@@@std@@PEAX@2@PEAU32@QEAU32@@Z ; std::_Hash<std::_Umap_traits<unsigned int,std::basic_string<char,std::char_traits<char>,std::allocator<char> >,std::_Uhash_compare<unsigned int,std::hash<unsigned int>,std::equal_to<unsigned int> >,std::allocator<std::pair<unsigned int const ,std::basic_string<char,std::char_traits<char>,std::allocator<char> > > >,0> >::_Unchecked_erase
PUBLIC	?clear@?$_Hash@V?$_Umap_traits@IV?$basic_string@DU?$char_traits@D@std@@V?$allocator@D@2@@std@@V?$_Uhash_compare@IU?$hash@I@std@@U?$equal_to@I@2@@2@V?$allocator@U?$pair@$$CBIV?$basic_string@DU?$char_traits@D@std@@V?$allocator@D@2@@std@@@std@@@2@$0A@@std@@@std@@QEAAXXZ ; std::_Hash<std::_Umap_traits<unsigned int,std::basic_string<char,std::char_traits<char>,std::allocator<char> >,std::_Uhash_compare<unsigned int,std::hash<unsigned int>,std::equal_to<unsigned int> >,std::allocator<std::pair<unsigned int const ,std::basic_string<char,std::char_traits<char>,std::allocator<char> > > >,0> >::clear
PUBLIC	?_Insert_new_node_before@?$_Hash@V?$_Umap_traits@IV?$basic_string@DU?$char_traits@D@std@@V?$allocator@D@2@@std@@V?$_Uhash_compare@IU?$hash@I@std@@U?$equal_to@I@2@@2@V?$allocator@U?$pair@$$CBIV?$basic_string@DU?$char_traits@D@std@@V?$allocator@D@2@@std@@@std@@@2@$0A@@std@@@std@@IEAAPEAU?$_List_node@U?$pair@$$CBIV?$basic_string@DU?$char_traits@D@std@@V?$allocator@D@2@@std@@@std@@PEAX@2@_KQEAU32@1@Z ; std::_Hash<std::_Umap_traits<unsigned int,std::basic_string<char,std::char_traits<char>,std::allocator<char> >,std::_Uhash_compare<unsigned int,std::hash<unsigned int>,std::equal_to<unsigned int> >,std::allocator<std::pair<unsigned int const ,std::basic_string<char,std::char_traits<char>,std::allocator<char> > > >,0> >::_Insert_new_node_before
PUBLIC	?_Check_max_size@?$_Hash@V?$_Umap_traits@IV?$basic_string@DU?$char_traits@D@std@@V?$allocator@D@2@@std@@V?$_Uhash_compare@IU?$hash@I@std@@U?$equal_to@I@2@@2@V?$allocator@U?$pair@$$CBIV?$basic_string@DU?$char_traits@D@std@@V?$allocator@D@2@@std@@@std@@@2@$0A@@std@@@std@@IEBAXXZ ; std::_Hash<std::_Umap_traits<unsigned int,std::basic_string<char,std::char_traits<char>,std::allocator<char> >,std::_Uhash_compare<unsigned int,std::hash<unsigned int>,std::equal_to<unsigned int> >,std::allocator<std::pair<unsigned int const ,std::basic_string<char,std::char_traits<char>,std::allocator<char> > > >,0> >::_Check_max_size
PUBLIC	?_Check_rehash_required_1@?$_Hash@V?$_Umap_traits@IV?$basic_string@DU?$char_traits@D@std@@V?$allocator@D@2@@std@@V?$_Uhash_compare@IU?$hash@I@std@@U?$equal_to@I@2@@2@V?$allocator@U?$pair@$$CBIV?$basic_string@DU?$char_traits@D@std@@V?$allocator@D@2@@std@@@std@@@2@$0A@@std@@@std@@IEBA_NXZ ; std::_Hash<std::_Umap_traits<unsigned int,std::basic_string<char,std::char_traits<char>,std::allocator<char> >,std::_Uhash_compare<unsigned int,std::hash<unsigned int>,std::equal_to<unsigned int> >,std::allocator<std::pair<unsigned int const ,std::basic_string<char,std::char_traits<char>,std::allocator<char> > > >,0> >::_Check_rehash_required_1
PUBLIC	?_Rehash_for_1@?$_Hash@V?$_Umap_traits@IV?$basic_string@DU?$char_traits@D@std@@V?$allocator@D@2@@std@@V?$_Uhash_compare@IU?$hash@I@std@@U?$equal_to@I@2@@2@V?$allocator@U?$pair@$$CBIV?$basic_string@DU?$char_traits@D@std@@V?$allocator@D@2@@std@@@std@@@2@$0A@@std@@@std@@IEAAXXZ ; std::_Hash<std::_Umap_traits<unsigned int,std::basic_string<char,std::char_traits<char>,std::allocator<char> >,std::_Uhash_compare<unsigned int,std::hash<unsigned int>,std::equal_to<unsigned int> >,std::allocator<std::pair<unsigned int const ,std::basic_string<char,std::char_traits<char>,std::allocator<char> > > >,0> >::_Rehash_for_1
PUBLIC	?_Min_load_factor_buckets@?$_Hash@V?$_Umap_traits@IV?$basic_string@DU?$char_traits@D@std@@V?$allocator@D@2@@std@@V?$_Uhash_compare@IU?$hash@I@std@@U?$equal_to@I@2@@2@V?$allocator@U?$pair@$$CBIV?$basic_string@DU?$char_traits@D@std@@V?$allocator@D@2@@std@@@std@@@2@$0A@@std@@@std@@IEBA_K_K@Z ; std::_Hash<std::_Umap_traits<unsigned int,std::basic_string<char,std::char_traits<char>,std::allocator<char> >,std::_Uhash_compare<unsigned int,std::hash<unsigned int>,std::equal_to<unsigned int> >,std::allocator<std::pair<unsigned int const ,std::basic_string<char,std::char_traits<char>,std::allocator<char> > > >,0> >::_Min_load_factor_buckets
PUBLIC	?_Desired_grow_bucket_count@?$_Hash@V?$_Umap_traits@IV?$basic_string@DU?$char_traits@D@std@@V?$allocator@D@2@@std@@V?$_Uhash_compare@IU?$hash@I@std@@U?$equal_to@I@2@@2@V?$allocator@U?$pair@$$CBIV?$basic_string@DU?$char_traits@D@std@@V?$allocator@D@2@@std@@@std@@@2@$0A@@std@@@std@@IEBA_K_K@Z ; std::_Hash<std::_Umap_traits<unsigned int,std::basic_string<char,std::char_traits<char>,std::allocator<char> >,std::_Uhash_compare<unsigned int,std::hash<unsigned int>,std::equal_to<unsigned int> >,std::allocator<std::pair<unsigned int const ,std::basic_string<char,std::char_traits<char>,std::allocator<char> > > >,0> >::_Desired_grow_bucket_count
PUBLIC	?_Forced_rehash@?$_Hash@V?$_Umap_traits@IV?$basic_string@DU?$char_traits@D@std@@V?$allocator@D@2@@std@@V?$_Uhash_compare@IU?$hash@I@std@@U?$equal_to@I@2@@2@V?$allocator@U?$pair@$$CBIV?$basic_string@DU?$char_traits@D@std@@V?$allocator@D@2@@std@@@std@@@2@$0A@@std@@@std@@IEAAX_K@Z ; std::_Hash<std::_Umap_traits<unsigned int,std::basic_string<char,std::char_traits<char>,std::allocator<char> >,std::_Uhash_compare<unsigned int,std::hash<unsigned int>,std::equal_to<unsigned int> >,std::allocator<std::pair<unsigned int const ,std::basic_string<char,std::char_traits<char>,std::allocator<char> > > >,0> >::_Forced_rehash
PUBLIC	?_Max_bucket_size@?$_Hash@V?$_Umap_traits@IV?$basic_string@DU?$char_traits@D@std@@V?$allocator@D@2@@std@@V?$_Uhash_compare@IU?$hash@I@std@@U?$equal_to@I@2@@2@V?$allocator@U?$pair@$$CBIV?$basic_string@DU?$char_traits@D@std@@V?$allocator@D@2@@std@@@std@@@2@$0A@@std@@@std@@IEAAAEAMXZ ; std::_Hash<std::_Umap_traits<unsigned int,std::basic_string<char,std::char_traits<char>,std::allocator<char> >,std::_Uhash_compare<unsigned int,std::hash<unsigned int>,std::equal_to<unsigned int> >,std::allocator<std::pair<unsigned int const ,std::basic_string<char,std::char_traits<char>,std::allocator<char> > > >,0> >::_Max_bucket_size
PUBLIC	?_Max_bucket_size@?$_Hash@V?$_Umap_traits@IV?$basic_string@DU?$char_traits@D@std@@V?$allocator@D@2@@std@@V?$_Uhash_compare@IU?$hash@I@std@@U?$equal_to@I@2@@2@V?$allocator@U?$pair@$$CBIV?$basic_string@DU?$char_traits@D@std@@V?$allocator@D@2@@std@@@std@@@2@$0A@@std@@@std@@IEBAAEBMXZ ; std::_Hash<std::_Umap_traits<unsigned int,std::basic_string<char,std::char_traits<char>,std::allocator<char> >,std::_Uhash_compare<unsigned int,std::hash<unsigned int>,std::equal_to<unsigned int> >,std::allocator<std::pair<unsigned int const ,std::basic_string<char,std::char_traits<char>,std::allocator<char> > > >,0> >::_Max_bucket_size
PUBLIC	?deallocate@?$allocator@V?$_List_unchecked_iterator@V?$_List_val@U?$_List_simple_types@U?$pair@$$CBIV?$basic_string@DU?$char_traits@D@std@@V?$allocator@D@2@@std@@@std@@@std@@@std@@@std@@@std@@QEAAXQEAV?$_List_unchecked_iterator@V?$_List_val@U?$_List_simple_types@U?$pair@$$CBIV?$basic_string@DU?$char_traits@D@std@@V?$allocator@D@2@@std@@@std@@@std@@@std@@@2@_K@Z ; std::allocator<std::_List_unchecked_iterator<std::_List_val<std::_List_simple_types<std::pair<unsigned int const ,std::basic_string<char,std::char_traits<char>,std::allocator<char> > > > > > >::deallocate
PUBLIC	?allocate@?$allocator@V?$_List_unchecked_iterator@V?$_List_val@U?$_List_simple_types@U?$pair@$$CBIV?$basic_string@DU?$char_traits@D@std@@V?$allocator@D@2@@std@@@std@@@std@@@std@@@std@@@std@@QEAAPEAV?$_List_unchecked_iterator@V?$_List_val@U?$_List_simple_types@U?$pair@$$CBIV?$basic_string@DU?$char_traits@D@std@@V?$allocator@D@2@@std@@@std@@@std@@@std@@@2@_K@Z ; std::allocator<std::_List_unchecked_iterator<std::_List_val<std::_List_simple_types<std::pair<unsigned int const ,std::basic_string<char,std::char_traits<char>,std::allocator<char> > > > > > >::allocate
PUBLIC	?max_size@?$_Default_allocator_traits@V?$allocator@V?$_List_unchecked_iterator@V?$_List_val@U?$_List_simple_types@U?$pair@$$CBIV?$basic_string@DU?$char_traits@D@std@@V?$allocator@D@2@@std@@@std@@@std@@@std@@@std@@@std@@@std@@SA_KAEBV?$allocator@V?$_List_unchecked_iterator@V?$_List_val@U?$_List_simple_types@U?$pair@$$CBIV?$basic_string@DU?$char_traits@D@std@@V?$allocator@D@2@@std@@@std@@@std@@@std@@@std@@@2@@Z ; std::_Default_allocator_traits<std::allocator<std::_List_unchecked_iterator<std::_List_val<std::_List_simple_types<std::pair<unsigned int const ,std::basic_string<char,std::char_traits<char>,std::allocator<char> > > > > > > >::max_size
PUBLIC	?size@?$_Hash_vec@V?$allocator@V?$_List_unchecked_iterator@V?$_List_val@U?$_List_simple_types@U?$pair@$$CBIV?$basic_string@DU?$char_traits@D@std@@V?$allocator@D@2@@std@@@std@@@std@@@std@@@std@@@std@@@std@@QEBA_KXZ ; std::_Hash_vec<std::allocator<std::_List_unchecked_iterator<std::_List_val<std::_List_simple_types<std::pair<unsigned int const ,std::basic_string<char,std::char_traits<char>,std::allocator<char> > > > > > > >::size
PUBLIC	?max_size@?$_Hash_vec@V?$allocator@V?$_List_unchecked_iterator@V?$_List_val@U?$_List_simple_types@U?$pair@$$CBIV?$basic_string@DU?$char_traits@D@std@@V?$allocator@D@2@@std@@@std@@@std@@@std@@@std@@@std@@@std@@QEBA_KXZ ; std::_Hash_vec<std::allocator<std::_List_unchecked_iterator<std::_List_val<std::_List_simple_types<std::pair<unsigned int const ,std::basic_string<char,std::char_traits<char>,std::allocator<char> > > > > > > >::max_size
PUBLIC	?capacity@?$_Hash_vec@V?$allocator@V?$_List_unchecked_iterator@V?$_List_val@U?$_List_simple_types@U?$pair@$$CBIV?$basic_string@DU?$char_traits@D@std@@V?$allocator@D@2@@std@@@std@@@std@@@std@@@std@@@std@@@std@@QEBA_KXZ ; std::_Hash_vec<std::allocator<std::_List_unchecked_iterator<std::_List_val<std::_List_simple_types<std::pair<unsigned int const ,std::basic_string<char,std::char_traits<char>,std::allocator<char> > > > > > > >::capacity
PUBLIC	?_Assign_grow@?$_Hash_vec@V?$allocator@V?$_List_unchecked_iterator@V?$_List_val@U?$_List_simple_types@U?$pair@$$CBIV?$basic_string@DU?$char_traits@D@std@@V?$allocator@D@2@@std@@@std@@@std@@@std@@@std@@@std@@@std@@QEAAX_KV?$_List_unchecked_iterator@V?$_List_val@U?$_List_simple_types@U?$pair@$$CBIV?$basic_string@DU?$char_traits@D@std@@V?$allocator@D@2@@std@@@std@@@std@@@std@@@2@@Z ; std::_Hash_vec<std::allocator<std::_List_unchecked_iterator<std::_List_val<std::_List_simple_types<std::pair<unsigned int const ,std::basic_string<char,std::char_traits<char>,std::allocator<char> > > > > > > >::_Assign_grow
PUBLIC	?_Tidy@?$_Hash_vec@V?$allocator@V?$_List_unchecked_iterator@V?$_List_val@U?$_List_simple_types@U?$pair@$$CBIV?$basic_string@DU?$char_traits@D@std@@V?$allocator@D@2@@std@@@std@@@std@@@std@@@std@@@std@@@std@@QEAAXXZ ; std::_Hash_vec<std::allocator<std::_List_unchecked_iterator<std::_List_val<std::_List_simple_types<std::pair<unsigned int const ,std::basic_string<char,std::char_traits<char>,std::allocator<char> > > > > > > >::_Tidy
PUBLIC	??1?$_Hash_vec@V?$allocator@V?$_List_unchecked_iterator@V?$_List_val@U?$_List_simple_types@U?$pair@$$CBIV?$basic_string@DU?$char_traits@D@std@@V?$allocator@D@2@@std@@@std@@@std@@@std@@@std@@@std@@@std@@QEAA@XZ ; std::_Hash_vec<std::allocator<std::_List_unchecked_iterator<std::_List_val<std::_List_simple_types<std::pair<unsigned int const ,std::basic_string<char,std::char_traits<char>,std::allocator<char> > > > > > > >::~_Hash_vec<std::allocator<std::_List_unchecked_iterator<std::_List_val<std::_List_simple_types<std::pair<unsigned int const ,std::basic_string<char,std::char_traits<char>,std::allocator<char> > > > > > > >
PUBLIC	??0?$_Vector_val@U?$_Simple_types@V?$_List_unchecked_iterator@V?$_List_val@U?$_List_simple_types@U?$pair@$$CBIV?$basic_string@DU?$char_traits@D@std@@V?$allocator@D@2@@std@@@std@@@std@@@std@@@std@@@std@@@std@@QEAA@XZ ; std::_Vector_val<std::_Simple_types<std::_List_unchecked_iterator<std::_List_val<std::_List_simple_types<std::pair<unsigned int const ,std::basic_string<char,std::char_traits<char>,std::allocator<char> > > > > > > >::_Vector_val<std::_Simple_types<std::_List_unchecked_iterator<std::_List_val<std::_List_simple_types<std::pair<unsigned int const ,std::basic_string<char,std::char_traits<char>,std::allocator<char> > > > > > > >
PUBLIC	?_Get_first@?$_Compressed_pair@V?$allocator@V?$_List_unchecked_iterator@V?$_List_val@U?$_List_simple_types@U?$pair@$$CBIV?$basic_string@DU?$char_traits@D@std@@V?$allocator@D@2@@std@@@std@@@std@@@std@@@std@@@std@@V?$_Vector_val@U?$_Simple_types@V?$_List_unchecked_iterator@V?$_List_val@U?$_List_simple_types@U?$pair@$$CBIV?$basic_string@DU?$char_traits@D@std@@V?$allocator@D@2@@std@@@std@@@std@@@std@@@std@@@std@@@2@$00@std@@QEAAAEAV?$allocator@V?$_List_unchecked_iterator@V?$_List_val@U?$_List_simple_types@U?$pair@$$CBIV?$basic_string@DU?$char_traits@D@std@@V?$allocator@D@2@@std@@@std@@@std@@@std@@@std@@@2@XZ ; std::_Compressed_pair<std::allocator<std::_List_unchecked_iterator<std::_List_val<std::_List_simple_types<std::pair<unsigned int const ,std::basic_string<char,std::char_traits<char>,std::allocator<char> > > > > > >,std::_Vector_val<std::_Simple_types<std::_List_unchecked_iterator<std::_List_val<std::_List_simple_types<std::pair<unsigned int const ,std::basic_string<char,std::char_traits<char>,std::allocator<char> > > > > > > >,1>::_Get_first
PUBLIC	?_Get_first@?$_Compressed_pair@V?$allocator@V?$_List_unchecked_iterator@V?$_List_val@U?$_List_simple_types@U?$pair@$$CBIV?$basic_string@DU?$char_traits@D@std@@V?$allocator@D@2@@std@@@std@@@std@@@std@@@std@@@std@@V?$_Vector_val@U?$_Simple_types@V?$_List_unchecked_iterator@V?$_List_val@U?$_List_simple_types@U?$pair@$$CBIV?$basic_string@DU?$char_traits@D@std@@V?$allocator@D@2@@std@@@std@@@std@@@std@@@std@@@std@@@2@$00@std@@QEBAAEBV?$allocator@V?$_List_unchecked_iterator@V?$_List_val@U?$_List_simple_types@U?$pair@$$CBIV?$basic_string@DU?$char_traits@D@std@@V?$allocator@D@2@@std@@@std@@@std@@@std@@@std@@@2@XZ ; std::_Compressed_pair<std::allocator<std::_List_unchecked_iterator<std::_List_val<std::_List_simple_types<std::pair<unsigned int const ,std::basic_string<char,std::char_traits<char>,std::allocator<char> > > > > > >,std::_Vector_val<std::_Simple_types<std::_List_unchecked_iterator<std::_List_val<std::_List_simple_types<std::pair<unsigned int const ,std::basic_string<char,std::char_traits<char>,std::allocator<char> > > > > > > >,1>::_Get_first
PUBLIC	??1?$_Hash@V?$_Umap_traits@IV?$basic_string@DU?$char_traits@D@std@@V?$allocator@D@2@@std@@V?$_Uhash_compare@IU?$hash@I@std@@U?$equal_to@I@2@@2@V?$allocator@U?$pair@$$CBIV?$basic_string@DU?$char_traits@D@std@@V?$allocator@D@2@@std@@@std@@@2@$0A@@std@@@std@@QEAA@XZ ; std::_Hash<std::_Umap_traits<unsigned int,std::basic_string<char,std::char_traits<char>,std::allocator<char> >,std::_Uhash_compare<unsigned int,std::hash<unsigned int>,std::equal_to<unsigned int> >,std::allocator<std::pair<unsigned int const ,std::basic_string<char,std::char_traits<char>,std::allocator<char> > > >,0> >::~_Hash<std::_Umap_traits<unsigned int,std::basic_string<char,std::char_traits<char>,std::allocator<char> >,std::_Uhash_compare<unsigned int,std::hash<unsigned int>,std::equal_to<unsigned int> >,std::allocator<std::pair<unsigned int const ,std::basic_string<char,std::char_traits<char>,std::allocator<char> > > >,0> >
PUBLIC	??0?$unordered_map@IV?$basic_string@DU?$char_traits@D@std@@V?$allocator@D@2@@std@@U?$hash@I@2@U?$equal_to@I@2@V?$allocator@U?$pair@$$CBIV?$basic_string@DU?$char_traits@D@std@@V?$allocator@D@2@@std@@@std@@@2@@std@@QEAA@XZ ; std::unordered_map<unsigned int,std::basic_string<char,std::char_traits<char>,std::allocator<char> >,std::hash<unsigned int>,std::equal_to<unsigned int>,std::allocator<std::pair<unsigned int const ,std::basic_string<char,std::char_traits<char>,std::allocator<char> > > > >::unordered_map<unsigned int,std::basic_string<char,std::char_traits<char>,std::allocator<char> >,std::hash<unsigned int>,std::equal_to<unsigned int>,std::allocator<std::pair<unsigned int const ,std::basic_string<char,std::char_traits<char>,std::allocator<char> > > > >
PUBLIC	??1?$unordered_map@IV?$basic_string@DU?$char_traits@D@std@@V?$allocator@D@2@@std@@U?$hash@I@2@U?$equal_to@I@2@V?$allocator@U?$pair@$$CBIV?$basic_string@DU?$char_traits@D@std@@V?$allocator@D@2@@std@@@std@@@2@@std@@QEAA@XZ ; std::unordered_map<unsigned int,std::basic_string<char,std::char_traits<char>,std::allocator<char> >,std::hash<unsigned int>,std::equal_to<unsigned int>,std::allocator<std::pair<unsigned int const ,std::basic_string<char,std::char_traits<char>,std::allocator<char> > > > >::~unordered_map<unsigned int,std::basic_string<char,std::char_traits<char>,std::allocator<char> >,std::hash<unsigned int>,std::equal_to<unsigned int>,std::allocator<std::pair<unsigned int const ,std::basic_string<char,std::char_traits<char>,std::allocator<char> > > > >
PUBLIC	??0?$allocator@U?$pair@$$CB_KV?$basic_string@DU?$char_traits@D@std@@V?$allocator@D@2@@std@@@std@@@std@@QEAA@XZ ; std::allocator<std::pair<unsigned __int64 const ,std::basic_string<char,std::char_traits<char>,std::allocator<char> > > >::allocator<std::pair<unsigned __int64 const ,std::basic_string<char,std::char_traits<char>,std::allocator<char> > > >
PUBLIC	??0?$_Umap_traits@_KV?$basic_string@DU?$char_traits@D@std@@V?$allocator@D@2@@std@@V?$_Uhash_compare@_KU?$hash@_K@std@@U?$equal_to@_K@2@@2@V?$allocator@U?$pair@$$CB_KV?$basic_string@DU?$char_traits@D@std@@V?$allocator@D@2@@std@@@std@@@2@$0A@@std@@QEAA@AEBV?$_Uhash_compare@_KU?$hash@_K@std@@U?$equal_to@_K@2@@1@@Z ; std::_Umap_traits<unsigned __int64,std::basic_string<char,std::char_traits<char>,std::allocator<char> >,std::_Uhash_compare<unsigned __int64,std::hash<unsigned __int64>,std::equal_to<unsigned __int64> >,std::allocator<std::pair<unsigned __int64 const ,std::basic_string<char,std::char_traits<char>,std::allocator<char> > > >,0>::_Umap_traits<unsigned __int64,std::basic_string<char,std::char_traits<char>,std::allocator<char> >,std::_Uhash_compare<unsigned __int64,std::hash<unsigned __int64>,std::equal_to<unsigned __int64> >,std::allocator<std::pair<unsigned __int64 const ,std::basic_string<char,std::char_traits<char>,std::allocator<char> > > >,0>
PUBLIC	?deallocate@?$allocator@U?$_List_node@U?$pair@$$CB_KV?$basic_string@DU?$char_traits@D@std@@V?$allocator@D@2@@std@@@std@@PEAX@std@@@std@@QEAAXQEAU?$_List_node@U?$pair@$$CB_KV?$basic_string@DU?$char_traits@D@std@@V?$allocator@D@2@@std@@@std@@PEAX@2@_K@Z ; std::allocator<std::_List_node<std::pair<unsigned __int64 const ,std::basic_string<char,std::char_traits<char>,std::allocator<char> > >,void *> >::deallocate
PUBLIC	?allocate@?$allocator@U?$_List_node@U?$pair@$$CB_KV?$basic_string@DU?$char_traits@D@std@@V?$allocator@D@2@@std@@@std@@PEAX@std@@@std@@QEAAPEAU?$_List_node@U?$pair@$$CB_KV?$basic_string@DU?$char_traits@D@std@@V?$allocator@D@2@@std@@@std@@PEAX@2@_K@Z ; std::allocator<std::_List_node<std::pair<unsigned __int64 const ,std::basic_string<char,std::char_traits<char>,std::allocator<char> > >,void *> >::allocate
PUBLIC	?deallocate@?$_Default_allocator_traits@V?$allocator@U?$_List_node@U?$pair@$$CB_KV?$basic_string@DU?$char_traits@D@std@@V?$allocator@D@2@@std@@@std@@PEAX@std@@@std@@@std@@SAXAEAV?$allocator@U?$_List_node@U?$pair@$$CB_KV?$basic_string@DU?$char_traits@D@std@@V?$allocator@D@2@@std@@@std@@PEAX@std@@@2@QEAU?$_List_node@U?$pair@$$CB_KV?$basic_string@DU?$char_traits@D@std@@V?$allocator@D@2@@std@@@std@@PEAX@2@_K@Z ; std::_Default_allocator_traits<std::allocator<std::_List_node<std::pair<unsigned __int64 const ,std::basic_string<char,std::char_traits<char>,std::allocator<char> > >,void *> > >::deallocate
PUBLIC	?max_size@?$_Default_allocator_traits@V?$allocator@U?$_List_node@U?$pair@$$CB_KV?$basic_string@DU?$char_traits@D@std@@V?$allocator@D@2@@std@@@std@@PEAX@std@@@std@@@std@@SA_KAEBV?$allocator@U?$_List_node@U?$pair@$$CB_KV?$basic_string@DU?$char_traits@D@std@@V?$allocator@D@2@@std@@@std@@PEAX@std@@@2@@Z ; std::_Default_allocator_traits<std::allocator<std::_List_node<std::pair<unsigned __int64 const ,std::basic_string<char,std::char_traits<char>,std::allocator<char> > >,void *> > >::max_size
PUBLIC	??0?$list@U?$pair@$$CB_KV?$basic_string@DU?$char_traits@D@std@@V?$allocator@D@2@@std@@@std@@V?$allocator@U?$pair@$$CB_KV?$basic_string@DU?$char_traits@D@std@@V?$allocator@D@2@@std@@@std@@@2@@std@@QEAA@AEBV?$allocator@U?$pair@$$CB_KV?$basic_string@DU?$char_traits@D@std@@V?$allocator@D@2@@std@@@std@@@1@@Z ; std::list<std::pair<unsigned __int64 const ,std::basic_string<char,std::char_traits<char>,std::allocator<char> > >,std::allocator<std::pair<unsigned __int64 const ,std::basic_string<char,std::char_traits<char>,std::allocator<char> > > > >::list<std::pair<unsigned __int64 const ,std::basic_string<char,std::char_traits<char>,std::allocator<char> > >,std::allocator<std::pair<unsigned __int64 const ,std::basic_string<char,std::char_traits<char>,std::allocator<char> > > > >
PUBLIC	??1?$list@U?$pair@$$CB_KV?$basic_string@DU?$char_traits@D@std@@V?$allocator@D@2@@std@@@std@@V?$allocator@U?$pair@$$CB_KV?$basic_string@DU?$char_traits@D@std@@V?$allocator@D@2@@std@@@std@@@2@@std@@QEAA@XZ ; std::list<std::pair<unsigned __int64 const ,std::basic_string<char,std::char_traits<char>,std::allocator<char> > >,std::allocator<std::pair<unsigned __int64 const ,std::basic_string<char,std::char_traits<char>,std::allocator<char> > > > >::~list<std::pair<unsigned __int64 const ,std::basic_string<char,std::char_traits<char>,std::allocator<char> > >,std::allocator<std::pair<unsigned __int64 const ,std::basic_string<char,std::char_traits<char>,std::allocator<char> > > > >
PUBLIC	?end@?$list@U?$pair@$$CB_KV?$basic_string@DU?$char_traits@D@std@@V?$allocator@D@2@@std@@@std@@V?$allocator@U?$pair@$$CB_KV?$basic_string@DU?$char_traits@D@std@@V?$allocator@D@2@@std@@@std@@@2@@std@@QEAA?AV?$_List_iterator@V?$_List_val@U?$_List_simple_types@U?$pair@$$CB_KV?$basic_string@DU?$char_traits@D@std@@V?$allocator@D@2@@std@@@std@@@std@@@std@@@2@XZ ; std::list<std::pair<unsigned __int64 const ,std::basic_string<char,std::char_traits<char>,std::allocator<char> > >,std::allocator<std::pair<unsigned __int64 const ,std::basic_string<char,std::char_traits<char>,std::allocator<char> > > > >::end
PUBLIC	?_Unchecked_begin@?$list@U?$pair@$$CB_KV?$basic_string@DU?$char_traits@D@std@@V?$allocator@D@2@@std@@@std@@V?$allocator@U?$pair@$$CB_KV?$basic_string@DU?$char_traits@D@std@@V?$allocator@D@2@@std@@@std@@@2@@std@@QEAA?AV?$_List_unchecked_iterator@V?$_List_val@U?$_List_simple_types@U?$pair@$$CB_KV?$basic_string@DU?$char_traits@D@std@@V?$allocator@D@2@@std@@@std@@@std@@@std@@@2@XZ ; std::list<std::pair<unsigned __int64 const ,std::basic_string<char,std::char_traits<char>,std::allocator<char> > >,std::allocator<std::pair<unsigned __int64 const ,std::basic_string<char,std::char_traits<char>,std::allocator<char> > > > >::_Unchecked_begin
PUBLIC	?_Unchecked_end@?$list@U?$pair@$$CB_KV?$basic_string@DU?$char_traits@D@std@@V?$allocator@D@2@@std@@@std@@V?$allocator@U?$pair@$$CB_KV?$basic_string@DU?$char_traits@D@std@@V?$allocator@D@2@@std@@@std@@@2@@std@@QEAA?AV?$_List_unchecked_iterator@V?$_List_val@U?$_List_simple_types@U?$pair@$$CB_KV?$basic_string@DU?$char_traits@D@std@@V?$allocator@D@2@@std@@@std@@@std@@@std@@@2@XZ ; std::list<std::pair<unsigned __int64 const ,std::basic_string<char,std::char_traits<char>,std::allocator<char> > >,std::allocator<std::pair<unsigned __int64 const ,std::basic_string<char,std::char_traits<char>,std::allocator<char> > > > >::_Unchecked_end
PUBLIC	?_Make_iter@?$list@U?$pair@$$CB_KV?$basic_string@DU?$char_traits@D@std@@V?$allocator@D@2@@std@@@std@@V?$allocator@U?$pair@$$CB_KV?$basic_string@DU?$char_traits@D@std@@V?$allocator@D@2@@std@@@std@@@2@@std@@QEBA?AV?$_List_iterator@V?$_List_val@U?$_List_simple_types@U?$pair@$$CB_KV?$basic_string@DU?$char_traits@D@std@@V?$allocator@D@2@@std@@@std@@@std@@@std@@@2@PEAU?$_List_node@U?$pair@$$CB_KV?$basic_string@DU?$char_traits@D@std@@V?$allocator@D@2@@std@@@std@@PEAX@2@@Z ; std::list<std::pair<unsigned __int64 const ,std::basic_string<char,std::char_traits<char>,std::allocator<char> > >,std::allocator<std::pair<unsigned __int64 const ,std::basic_string<char,std::char_traits<char>,std::allocator<char> > > > >::_Make_iter
PUBLIC	?max_size@?$list@U?$pair@$$CB_KV?$basic_string@DU?$char_traits@D@std@@V?$allocator@D@2@@std@@@std@@V?$allocator@U?$pair@$$CB_KV?$basic_string@DU?$char_traits@D@std@@V?$allocator@D@2@@std@@@std@@@2@@std@@QEBA_KXZ ; std::list<std::pair<unsigned __int64 const ,std::basic_string<char,std::char_traits<char>,std::allocator<char> > >,std::allocator<std::pair<unsigned __int64 const ,std::basic_string<char,std::char_traits<char>,std::allocator<char> > > > >::max_size
PUBLIC	?clear@?$list@U?$pair@$$CB_KV?$basic_string@DU?$char_traits@D@std@@V?$allocator@D@2@@std@@@std@@V?$allocator@U?$pair@$$CB_KV?$basic_string@DU?$char_traits@D@std@@V?$allocator@D@2@@std@@@std@@@2@@std@@QEAAXXZ ; std::list<std::pair<unsigned __int64 const ,std::basic_string<char,std::char_traits<char>,std::allocator<char> > >,std::allocator<std::pair<unsigned __int64 const ,std::basic_string<char,std::char_traits<char>,std::allocator<char> > > > >::clear
PUBLIC	?_Tidy@?$list@U?$pair@$$CB_KV?$basic_string@DU?$char_traits@D@std@@V?$allocator@D@2@@std@@@std@@V?$allocator@U?$pair@$$CB_KV?$basic_string@DU?$char_traits@D@std@@V?$allocator@D@2@@std@@@std@@@2@@std@@AEAAXXZ ; std::list<std::pair<unsigned __int64 const ,std::basic_string<char,std::char_traits<char>,std::allocator<char> > >,std::allocator<std::pair<unsigned __int64 const ,std::basic_string<char,std::char_traits<char>,std::allocator<char> > > > >::_Tidy
PUBLIC	?_Alloc_sentinel_and_proxy@?$list@U?$pair@$$CB_KV?$basic_string@DU?$char_traits@D@std@@V?$allocator@D@2@@std@@@std@@V?$allocator@U?$pair@$$CB_KV?$basic_string@DU?$char_traits@D@std@@V?$allocator@D@2@@std@@@std@@@2@@std@@AEAAXXZ ; std::list<std::pair<unsigned __int64 const ,std::basic_string<char,std::char_traits<char>,std::allocator<char> > >,std::allocator<std::pair<unsigned __int64 const ,std::basic_string<char,std::char_traits<char>,std::allocator<char> > > > >::_Alloc_sentinel_and_proxy
PUBLIC	?_Getal@?$list@U?$pair@$$CB_KV?$basic_string@DU?$char_traits@D@std@@V?$allocator@D@2@@std@@@std@@V?$allocator@U?$pair@$$CB_KV?$basic_string@DU?$char_traits@D@std@@V?$allocator@D@2@@std@@@std@@@2@@std@@AEAAAEAV?$allocator@U?$_List_node@U?$pair@$$CB_KV?$basic_string@DU?$char_traits@D@std@@V?$allocator@D@2@@std@@@std@@PEAX@std@@@2@XZ ; std::list<std::pair<unsigned __int64 const ,std::basic_string<char,std::char_traits<char>,std::allocator<char> > >,std::allocator<std::pair<unsigned __int64 const ,std::basic_string<char,std::char_traits<char>,std::allocator<char> > > > >::_Getal
PUBLIC	?_Getal@?$list@U?$pair@$$CB_KV?$basic_string@DU?$char_traits@D@std@@V?$allocator@D@2@@std@@@std@@V?$allocator@U?$pair@$$CB_KV?$basic_string@DU?$char_traits@D@std@@V?$allocator@D@2@@std@@@std@@@2@@std@@AEBAAEBV?$allocator@U?$_List_node@U?$pair@$$CB_KV?$basic_string@DU?$char_traits@D@std@@V?$allocator@D@2@@std@@@std@@PEAX@std@@@2@XZ ; std::list<std::pair<unsigned __int64 const ,std::basic_string<char,std::char_traits<char>,std::allocator<char> > >,std::allocator<std::pair<unsigned __int64 const ,std::basic_string<char,std::char_traits<char>,std::allocator<char> > > > >::_Getal
PUBLIC	??0?$_List_val@U?$_List_simple_types@U?$pair@$$CB_KV?$basic_string@DU?$char_traits@D@std@@V?$allocator@D@2@@std@@@std@@@std@@@std@@QEAA@XZ ; std::_List_val<std::_List_simple_types<std::pair<unsigned __int64 const ,std::basic_string<char,std::char_traits<char>,std::allocator<char> > > > >::_List_val<std::_List_simple_types<std::pair<unsigned __int64 const ,std::basic_string<char,std::char_traits<char>,std::allocator<char> > > > >
PUBLIC	?_Orphan_non_end@?$_List_val@U?$_List_simple_types@U?$pair@$$CB_KV?$basic_string@DU?$char_traits@D@std@@V?$allocator@D@2@@std@@@std@@@std@@@std@@QEAAXXZ ; std::_List_val<std::_List_simple_types<std::pair<unsigned __int64 const ,std::basic_string<char,std::char_traits<char>,std::allocator<char> > > > >::_Orphan_non_end
PUBLIC	?_Unchecked_splice@?$_List_val@U?$_List_simple_types@U?$pair@$$CB_KV?$basic_string@DU?$char_traits@D@std@@V?$allocator@D@2@@std@@@std@@@std@@@std@@SAPEAU?$_List_node@U?$pair@$$CB_KV?$basic_string@DU?$char_traits@D@std@@V?$allocator@D@2@@std@@@std@@PEAX@2@QEAU32@00@Z ; std::_List_val<std::_List_simple_types<std::pair<unsigned __int64 const ,std::basic_string<char,std::char_traits<char>,std::allocator<char> > > > >::_Unchecked_splice
PUBLIC	?_Get_first@?$_Compressed_pair@V?$allocator@U?$_List_node@U?$pair@$$CB_KV?$basic_string@DU?$char_traits@D@std@@V?$allocator@D@2@@std@@@std@@PEAX@std@@@std@@V?$_List_val@U?$_List_simple_types@U?$pair@$$CB_KV?$basic_string@DU?$char_traits@D@std@@V?$allocator@D@2@@std@@@std@@@std@@@2@$00@std@@QEAAAEAV?$allocator@U?$_List_node@U?$pair@$$CB_KV?$basic_string@DU?$char_traits@D@std@@V?$allocator@D@2@@std@@@std@@PEAX@std@@@2@XZ ; std::_Compressed_pair<std::allocator<std::_List_node<std::pair<unsigned __int64 const ,std::basic_string<char,std::char_traits<char>,std::allocator<char> > >,void *> >,std::_List_val<std::_List_simple_types<std::pair<unsigned __int64 const ,std::basic_string<char,std::char_traits<char>,std::allocator<char> > > > >,1>::_Get_first
PUBLIC	?_Get_first@?$_Compressed_pair@V?$allocator@U?$_List_node@U?$pair@$$CB_KV?$basic_string@DU?$char_traits@D@std@@V?$allocator@D@2@@std@@@std@@PEAX@std@@@std@@V?$_List_val@U?$_List_simple_types@U?$pair@$$CB_KV?$basic_string@DU?$char_traits@D@std@@V?$allocator@D@2@@std@@@std@@@std@@@2@$00@std@@QEBAAEBV?$allocator@U?$_List_node@U?$pair@$$CB_KV?$basic_string@DU?$char_traits@D@std@@V?$allocator@D@2@@std@@@std@@PEAX@std@@@2@XZ ; std::_Compressed_pair<std::allocator<std::_List_node<std::pair<unsigned __int64 const ,std::basic_string<char,std::char_traits<char>,std::allocator<char> > >,void *> >,std::_List_val<std::_List_simple_types<std::pair<unsigned __int64 const ,std::basic_string<char,std::char_traits<char>,std::allocator<char> > > > >,1>::_Get_first
PUBLIC	??0?$_Hash@V?$_Umap_traits@_KV?$basic_string@DU?$char_traits@D@std@@V?$allocator@D@2@@std@@V?$_Uhash_compare@_KU?$hash@_K@std@@U?$equal_to@_K@2@@2@V?$allocator@U?$pair@$$CB_KV?$basic_string@DU?$char_traits@D@std@@V?$allocator@D@2@@std@@@std@@@2@$0A@@std@@@std@@IEAA@AEBV?$_Uhash_compare@_KU?$hash@_K@std@@U?$equal_to@_K@2@@1@AEBV?$allocator@U?$pair@$$CB_KV?$basic_string@DU?$char_traits@D@std@@V?$allocator@D@2@@std@@@std@@@1@@Z ; std::_Hash<std::_Umap_traits<unsigned __int64,std::basic_string<char,std::char_traits<char>,std::allocator<char> >,std::_Uhash_compare<unsigned __int64,std::hash<unsigned __int64>,std::equal_to<unsigned __int64> >,std::allocator<std::pair<unsigned __int64 const ,std::basic_string<char,std::char_traits<char>,std::allocator<char> > > >,0> >::_Hash<std::_Umap_traits<unsigned __int64,std::basic_string<char,std::char_traits<char>,std::allocator<char> >,std::_Uhash_compare<unsigned __int64,std::hash<unsigned __int64>,std::equal_to<unsigned __int64> >,std::allocator<std::pair<unsigned __int64 const ,std::basic_string<char,std::char_traits<char>,std::allocator<char> > > >,0> >
PUBLIC	?end@?$_Hash@V?$_Umap_traits@_KV?$basic_string@DU?$char_traits@D@std@@V?$allocator@D@2@@std@@V?$_Uhash_compare@_KU?$hash@_K@std@@U?$equal_to@_K@2@@2@V?$allocator@U?$pair@$$CB_KV?$basic_string@DU?$char_traits@D@std@@V?$allocator@D@2@@std@@@std@@@2@$0A@@std@@@std@@QEAA?AV?$_List_iterator@V?$_List_val@U?$_List_simple_types@U?$pair@$$CB_KV?$basic_string@DU?$char_traits@D@std@@V?$allocator@D@2@@std@@@std@@@std@@@std@@@2@XZ ; std::_Hash<std::_Umap_traits<unsigned __int64,std::basic_string<char,std::char_traits<char>,std::allocator<char> >,std::_Uhash_compare<unsigned __int64,std::hash<unsigned __int64>,std::equal_to<unsigned __int64> >,std::allocator<std::pair<unsigned __int64 const ,std::basic_string<char,std::char_traits<char>,std::allocator<char> > > >,0> >::end
PUBLIC	?_Unchecked_begin@?$_Hash@V?$_Umap_traits@_KV?$basic_string@DU?$char_traits@D@std@@V?$allocator@D@2@@std@@V?$_Uhash_compare@_KU?$hash@_K@std@@U?$equal_to@_K@2@@2@V?$allocator@U?$pair@$$CB_KV?$basic_string@DU?$char_traits@D@std@@V?$allocator@D@2@@std@@@std@@@2@$0A@@std@@@std@@QEAA?AV?$_List_unchecked_iterator@V?$_List_val@U?$_List_simple_types@U?$pair@$$CB_KV?$basic_string@DU?$char_traits@D@std@@V?$allocator@D@2@@std@@@std@@@std@@@std@@@2@XZ ; std::_Hash<std::_Umap_traits<unsigned __int64,std::basic_string<char,std::char_traits<char>,std::allocator<char> >,std::_Uhash_compare<unsigned __int64,std::hash<unsigned __int64>,std::equal_to<unsigned __int64> >,std::allocator<std::pair<unsigned __int64 const ,std::basic_string<char,std::char_traits<char>,std::allocator<char> > > >,0> >::_Unchecked_begin
PUBLIC	?_Unchecked_end@?$_Hash@V?$_Umap_traits@_KV?$basic_string@DU?$char_traits@D@std@@V?$allocator@D@2@@std@@V?$_Uhash_compare@_KU?$hash@_K@std@@U?$equal_to@_K@2@@2@V?$allocator@U?$pair@$$CB_KV?$basic_string@DU?$char_traits@D@std@@V?$allocator@D@2@@std@@@std@@@2@$0A@@std@@@std@@QEAA?AV?$_List_unchecked_iterator@V?$_List_val@U?$_List_simple_types@U?$pair@$$CB_KV?$basic_string@DU?$char_traits@D@std@@V?$allocator@D@2@@std@@@std@@@std@@@std@@@2@XZ ; std::_Hash<std::_Umap_traits<unsigned __int64,std::basic_string<char,std::char_traits<char>,std::allocator<char> >,std::_Uhash_compare<unsigned __int64,std::hash<unsigned __int64>,std::equal_to<unsigned __int64> >,std::allocator<std::pair<unsigned __int64 const ,std::basic_string<char,std::char_traits<char>,std::allocator<char> > > >,0> >::_Unchecked_end
PUBLIC	?bucket_count@?$_Hash@V?$_Umap_traits@_KV?$basic_string@DU?$char_traits@D@std@@V?$allocator@D@2@@std@@V?$_Uhash_compare@_KU?$hash@_K@std@@U?$equal_to@_K@2@@2@V?$allocator@U?$pair@$$CB_KV?$basic_string@DU?$char_traits@D@std@@V?$allocator@D@2@@std@@@std@@@2@$0A@@std@@@std@@QEBA_KXZ ; std::_Hash<std::_Umap_traits<unsigned __int64,std::basic_string<char,std::char_traits<char>,std::allocator<char> >,std::_Uhash_compare<unsigned __int64,std::hash<unsigned __int64>,std::equal_to<unsigned __int64> >,std::allocator<std::pair<unsigned __int64 const ,std::basic_string<char,std::char_traits<char>,std::allocator<char> > > >,0> >::bucket_count
PUBLIC	?bucket@?$_Hash@V?$_Umap_traits@_KV?$basic_string@DU?$char_traits@D@std@@V?$allocator@D@2@@std@@V?$_Uhash_compare@_KU?$hash@_K@std@@U?$equal_to@_K@2@@2@V?$allocator@U?$pair@$$CB_KV?$basic_string@DU?$char_traits@D@std@@V?$allocator@D@2@@std@@@std@@@2@$0A@@std@@@std@@QEBA_KAEB_K@Z ; std::_Hash<std::_Umap_traits<unsigned __int64,std::basic_string<char,std::char_traits<char>,std::allocator<char> >,std::_Uhash_compare<unsigned __int64,std::hash<unsigned __int64>,std::equal_to<unsigned __int64> >,std::allocator<std::pair<unsigned __int64 const ,std::basic_string<char,std::char_traits<char>,std::allocator<char> > > >,0> >::bucket
PUBLIC	?max_load_factor@?$_Hash@V?$_Umap_traits@_KV?$basic_string@DU?$char_traits@D@std@@V?$allocator@D@2@@std@@V?$_Uhash_compare@_KU?$hash@_K@std@@U?$equal_to@_K@2@@2@V?$allocator@U?$pair@$$CB_KV?$basic_string@DU?$char_traits@D@std@@V?$allocator@D@2@@std@@@std@@@2@$0A@@std@@@std@@QEBAMXZ ; std::_Hash<std::_Umap_traits<unsigned __int64,std::basic_string<char,std::char_traits<char>,std::allocator<char> >,std::_Uhash_compare<unsigned __int64,std::hash<unsigned __int64>,std::equal_to<unsigned __int64> >,std::allocator<std::pair<unsigned __int64 const ,std::basic_string<char,std::char_traits<char>,std::allocator<char> > > >,0> >::max_load_factor
PUBLIC	?_Unchecked_erase@?$_Hash@V?$_Umap_traits@_KV?$basic_string@DU?$char_traits@D@std@@V?$allocator@D@2@@std@@V?$_Uhash_compare@_KU?$hash@_K@std@@U?$equal_to@_K@2@@2@V?$allocator@U?$pair@$$CB_KV?$basic_string@DU?$char_traits@D@std@@V?$allocator@D@2@@std@@@std@@@2@$0A@@std@@@std@@AEAAPEAU?$_List_node@U?$pair@$$CB_KV?$basic_string@DU?$char_traits@D@std@@V?$allocator@D@2@@std@@@std@@PEAX@2@PEAU32@QEAU32@@Z ; std::_Hash<std::_Umap_traits<unsigned __int64,std::basic_string<char,std::char_traits<char>,std::allocator<char> >,std::_Uhash_compare<unsigned __int64,std::hash<unsigned __int64>,std::equal_to<unsigned __int64> >,std::allocator<std::pair<unsigned __int64 const ,std::basic_string<char,std::char_traits<char>,std::allocator<char> > > >,0> >::_Unchecked_erase
PUBLIC	?clear@?$_Hash@V?$_Umap_traits@_KV?$basic_string@DU?$char_traits@D@std@@V?$allocator@D@2@@std@@V?$_Uhash_compare@_KU?$hash@_K@std@@U?$equal_to@_K@2@@2@V?$allocator@U?$pair@$$CB_KV?$basic_string@DU?$char_traits@D@std@@V?$allocator@D@2@@std@@@std@@@2@$0A@@std@@@std@@QEAAXXZ ; std::_Hash<std::_Umap_traits<unsigned __int64,std::basic_string<char,std::char_traits<char>,std::allocator<char> >,std::_Uhash_compare<unsigned __int64,std::hash<unsigned __int64>,std::equal_to<unsigned __int64> >,std::allocator<std::pair<unsigned __int64 const ,std::basic_string<char,std::char_traits<char>,std::allocator<char> > > >,0> >::clear
PUBLIC	?_Insert_new_node_before@?$_Hash@V?$_Umap_traits@_KV?$basic_string@DU?$char_traits@D@std@@V?$allocator@D@2@@std@@V?$_Uhash_compare@_KU?$hash@_K@std@@U?$equal_to@_K@2@@2@V?$allocator@U?$pair@$$CB_KV?$basic_string@DU?$char_traits@D@std@@V?$allocator@D@2@@std@@@std@@@2@$0A@@std@@@std@@IEAAPEAU?$_List_node@U?$pair@$$CB_KV?$basic_string@DU?$char_traits@D@std@@V?$allocator@D@2@@std@@@std@@PEAX@2@_KQEAU32@1@Z ; std::_Hash<std::_Umap_traits<unsigned __int64,std::basic_string<char,std::char_traits<char>,std::allocator<char> >,std::_Uhash_compare<unsigned __int64,std::hash<unsigned __int64>,std::equal_to<unsigned __int64> >,std::allocator<std::pair<unsigned __int64 const ,std::basic_string<char,std::char_traits<char>,std::allocator<char> > > >,0> >::_Insert_new_node_before
PUBLIC	?_Check_max_size@?$_Hash@V?$_Umap_traits@_KV?$basic_string@DU?$char_traits@D@std@@V?$allocator@D@2@@std@@V?$_Uhash_compare@_KU?$hash@_K@std@@U?$equal_to@_K@2@@2@V?$allocator@U?$pair@$$CB_KV?$basic_string@DU?$char_traits@D@std@@V?$allocator@D@2@@std@@@std@@@2@$0A@@std@@@std@@IEBAXXZ ; std::_Hash<std::_Umap_traits<unsigned __int64,std::basic_string<char,std::char_traits<char>,std::allocator<char> >,std::_Uhash_compare<unsigned __int64,std::hash<unsigned __int64>,std::equal_to<unsigned __int64> >,std::allocator<std::pair<unsigned __int64 const ,std::basic_string<char,std::char_traits<char>,std::allocator<char> > > >,0> >::_Check_max_size
PUBLIC	?_Check_rehash_required_1@?$_Hash@V?$_Umap_traits@_KV?$basic_string@DU?$char_traits@D@std@@V?$allocator@D@2@@std@@V?$_Uhash_compare@_KU?$hash@_K@std@@U?$equal_to@_K@2@@2@V?$allocator@U?$pair@$$CB_KV?$basic_string@DU?$char_traits@D@std@@V?$allocator@D@2@@std@@@std@@@2@$0A@@std@@@std@@IEBA_NXZ ; std::_Hash<std::_Umap_traits<unsigned __int64,std::basic_string<char,std::char_traits<char>,std::allocator<char> >,std::_Uhash_compare<unsigned __int64,std::hash<unsigned __int64>,std::equal_to<unsigned __int64> >,std::allocator<std::pair<unsigned __int64 const ,std::basic_string<char,std::char_traits<char>,std::allocator<char> > > >,0> >::_Check_rehash_required_1
PUBLIC	?_Rehash_for_1@?$_Hash@V?$_Umap_traits@_KV?$basic_string@DU?$char_traits@D@std@@V?$allocator@D@2@@std@@V?$_Uhash_compare@_KU?$hash@_K@std@@U?$equal_to@_K@2@@2@V?$allocator@U?$pair@$$CB_KV?$basic_string@DU?$char_traits@D@std@@V?$allocator@D@2@@std@@@std@@@2@$0A@@std@@@std@@IEAAXXZ ; std::_Hash<std::_Umap_traits<unsigned __int64,std::basic_string<char,std::char_traits<char>,std::allocator<char> >,std::_Uhash_compare<unsigned __int64,std::hash<unsigned __int64>,std::equal_to<unsigned __int64> >,std::allocator<std::pair<unsigned __int64 const ,std::basic_string<char,std::char_traits<char>,std::allocator<char> > > >,0> >::_Rehash_for_1
PUBLIC	?_Min_load_factor_buckets@?$_Hash@V?$_Umap_traits@_KV?$basic_string@DU?$char_traits@D@std@@V?$allocator@D@2@@std@@V?$_Uhash_compare@_KU?$hash@_K@std@@U?$equal_to@_K@2@@2@V?$allocator@U?$pair@$$CB_KV?$basic_string@DU?$char_traits@D@std@@V?$allocator@D@2@@std@@@std@@@2@$0A@@std@@@std@@IEBA_K_K@Z ; std::_Hash<std::_Umap_traits<unsigned __int64,std::basic_string<char,std::char_traits<char>,std::allocator<char> >,std::_Uhash_compare<unsigned __int64,std::hash<unsigned __int64>,std::equal_to<unsigned __int64> >,std::allocator<std::pair<unsigned __int64 const ,std::basic_string<char,std::char_traits<char>,std::allocator<char> > > >,0> >::_Min_load_factor_buckets
PUBLIC	?_Desired_grow_bucket_count@?$_Hash@V?$_Umap_traits@_KV?$basic_string@DU?$char_traits@D@std@@V?$allocator@D@2@@std@@V?$_Uhash_compare@_KU?$hash@_K@std@@U?$equal_to@_K@2@@2@V?$allocator@U?$pair@$$CB_KV?$basic_string@DU?$char_traits@D@std@@V?$allocator@D@2@@std@@@std@@@2@$0A@@std@@@std@@IEBA_K_K@Z ; std::_Hash<std::_Umap_traits<unsigned __int64,std::basic_string<char,std::char_traits<char>,std::allocator<char> >,std::_Uhash_compare<unsigned __int64,std::hash<unsigned __int64>,std::equal_to<unsigned __int64> >,std::allocator<std::pair<unsigned __int64 const ,std::basic_string<char,std::char_traits<char>,std::allocator<char> > > >,0> >::_Desired_grow_bucket_count
PUBLIC	?_Forced_rehash@?$_Hash@V?$_Umap_traits@_KV?$basic_string@DU?$char_traits@D@std@@V?$allocator@D@2@@std@@V?$_Uhash_compare@_KU?$hash@_K@std@@U?$equal_to@_K@2@@2@V?$allocator@U?$pair@$$CB_KV?$basic_string@DU?$char_traits@D@std@@V?$allocator@D@2@@std@@@std@@@2@$0A@@std@@@std@@IEAAX_K@Z ; std::_Hash<std::_Umap_traits<unsigned __int64,std::basic_string<char,std::char_traits<char>,std::allocator<char> >,std::_Uhash_compare<unsigned __int64,std::hash<unsigned __int64>,std::equal_to<unsigned __int64> >,std::allocator<std::pair<unsigned __int64 const ,std::basic_string<char,std::char_traits<char>,std::allocator<char> > > >,0> >::_Forced_rehash
PUBLIC	?_Max_bucket_size@?$_Hash@V?$_Umap_traits@_KV?$basic_string@DU?$char_traits@D@std@@V?$allocator@D@2@@std@@V?$_Uhash_compare@_KU?$hash@_K@std@@U?$equal_to@_K@2@@2@V?$allocator@U?$pair@$$CB_KV?$basic_string@DU?$char_traits@D@std@@V?$allocator@D@2@@std@@@std@@@2@$0A@@std@@@std@@IEAAAEAMXZ ; std::_Hash<std::_Umap_traits<unsigned __int64,std::basic_string<char,std::char_traits<char>,std::allocator<char> >,std::_Uhash_compare<unsigned __int64,std::hash<unsigned __int64>,std::equal_to<unsigned __int64> >,std::allocator<std::pair<unsigned __int64 const ,std::basic_string<char,std::char_traits<char>,std::allocator<char> > > >,0> >::_Max_bucket_size
PUBLIC	?_Max_bucket_size@?$_Hash@V?$_Umap_traits@_KV?$basic_string@DU?$char_traits@D@std@@V?$allocator@D@2@@std@@V?$_Uhash_compare@_KU?$hash@_K@std@@U?$equal_to@_K@2@@2@V?$allocator@U?$pair@$$CB_KV?$basic_string@DU?$char_traits@D@std@@V?$allocator@D@2@@std@@@std@@@2@$0A@@std@@@std@@IEBAAEBMXZ ; std::_Hash<std::_Umap_traits<unsigned __int64,std::basic_string<char,std::char_traits<char>,std::allocator<char> >,std::_Uhash_compare<unsigned __int64,std::hash<unsigned __int64>,std::equal_to<unsigned __int64> >,std::allocator<std::pair<unsigned __int64 const ,std::basic_string<char,std::char_traits<char>,std::allocator<char> > > >,0> >::_Max_bucket_size
PUBLIC	?deallocate@?$allocator@V?$_List_unchecked_iterator@V?$_List_val@U?$_List_simple_types@U?$pair@$$CB_KV?$basic_string@DU?$char_traits@D@std@@V?$allocator@D@2@@std@@@std@@@std@@@std@@@std@@@std@@QEAAXQEAV?$_List_unchecked_iterator@V?$_List_val@U?$_List_simple_types@U?$pair@$$CB_KV?$basic_string@DU?$char_traits@D@std@@V?$allocator@D@2@@std@@@std@@@std@@@std@@@2@_K@Z ; std::allocator<std::_List_unchecked_iterator<std::_List_val<std::_List_simple_types<std::pair<unsigned __int64 const ,std::basic_string<char,std::char_traits<char>,std::allocator<char> > > > > > >::deallocate
PUBLIC	?allocate@?$allocator@V?$_List_unchecked_iterator@V?$_List_val@U?$_List_simple_types@U?$pair@$$CB_KV?$basic_string@DU?$char_traits@D@std@@V?$allocator@D@2@@std@@@std@@@std@@@std@@@std@@@std@@QEAAPEAV?$_List_unchecked_iterator@V?$_List_val@U?$_List_simple_types@U?$pair@$$CB_KV?$basic_string@DU?$char_traits@D@std@@V?$allocator@D@2@@std@@@std@@@std@@@std@@@2@_K@Z ; std::allocator<std::_List_unchecked_iterator<std::_List_val<std::_List_simple_types<std::pair<unsigned __int64 const ,std::basic_string<char,std::char_traits<char>,std::allocator<char> > > > > > >::allocate
PUBLIC	?max_size@?$_Default_allocator_traits@V?$allocator@V?$_List_unchecked_iterator@V?$_List_val@U?$_List_simple_types@U?$pair@$$CB_KV?$basic_string@DU?$char_traits@D@std@@V?$allocator@D@2@@std@@@std@@@std@@@std@@@std@@@std@@@std@@SA_KAEBV?$allocator@V?$_List_unchecked_iterator@V?$_List_val@U?$_List_simple_types@U?$pair@$$CB_KV?$basic_string@DU?$char_traits@D@std@@V?$allocator@D@2@@std@@@std@@@std@@@std@@@std@@@2@@Z ; std::_Default_allocator_traits<std::allocator<std::_List_unchecked_iterator<std::_List_val<std::_List_simple_types<std::pair<unsigned __int64 const ,std::basic_string<char,std::char_traits<char>,std::allocator<char> > > > > > > >::max_size
PUBLIC	?size@?$_Hash_vec@V?$allocator@V?$_List_unchecked_iterator@V?$_List_val@U?$_List_simple_types@U?$pair@$$CB_KV?$basic_string@DU?$char_traits@D@std@@V?$allocator@D@2@@std@@@std@@@std@@@std@@@std@@@std@@@std@@QEBA_KXZ ; std::_Hash_vec<std::allocator<std::_List_unchecked_iterator<std::_List_val<std::_List_simple_types<std::pair<unsigned __int64 const ,std::basic_string<char,std::char_traits<char>,std::allocator<char> > > > > > > >::size
PUBLIC	?max_size@?$_Hash_vec@V?$allocator@V?$_List_unchecked_iterator@V?$_List_val@U?$_List_simple_types@U?$pair@$$CB_KV?$basic_string@DU?$char_traits@D@std@@V?$allocator@D@2@@std@@@std@@@std@@@std@@@std@@@std@@@std@@QEBA_KXZ ; std::_Hash_vec<std::allocator<std::_List_unchecked_iterator<std::_List_val<std::_List_simple_types<std::pair<unsigned __int64 const ,std::basic_string<char,std::char_traits<char>,std::allocator<char> > > > > > > >::max_size
PUBLIC	?capacity@?$_Hash_vec@V?$allocator@V?$_List_unchecked_iterator@V?$_List_val@U?$_List_simple_types@U?$pair@$$CB_KV?$basic_string@DU?$char_traits@D@std@@V?$allocator@D@2@@std@@@std@@@std@@@std@@@std@@@std@@@std@@QEBA_KXZ ; std::_Hash_vec<std::allocator<std::_List_unchecked_iterator<std::_List_val<std::_List_simple_types<std::pair<unsigned __int64 const ,std::basic_string<char,std::char_traits<char>,std::allocator<char> > > > > > > >::capacity
PUBLIC	?_Assign_grow@?$_Hash_vec@V?$allocator@V?$_List_unchecked_iterator@V?$_List_val@U?$_List_simple_types@U?$pair@$$CB_KV?$basic_string@DU?$char_traits@D@std@@V?$allocator@D@2@@std@@@std@@@std@@@std@@@std@@@std@@@std@@QEAAX_KV?$_List_unchecked_iterator@V?$_List_val@U?$_List_simple_types@U?$pair@$$CB_KV?$basic_string@DU?$char_traits@D@std@@V?$allocator@D@2@@std@@@std@@@std@@@std@@@2@@Z ; std::_Hash_vec<std::allocator<std::_List_unchecked_iterator<std::_List_val<std::_List_simple_types<std::pair<unsigned __int64 const ,std::basic_string<char,std::char_traits<char>,std::allocator<char> > > > > > > >::_Assign_grow
PUBLIC	?_Tidy@?$_Hash_vec@V?$allocator@V?$_List_unchecked_iterator@V?$_List_val@U?$_List_simple_types@U?$pair@$$CB_KV?$basic_string@DU?$char_traits@D@std@@V?$allocator@D@2@@std@@@std@@@std@@@std@@@std@@@std@@@std@@QEAAXXZ ; std::_Hash_vec<std::allocator<std::_List_unchecked_iterator<std::_List_val<std::_List_simple_types<std::pair<unsigned __int64 const ,std::basic_string<char,std::char_traits<char>,std::allocator<char> > > > > > > >::_Tidy
PUBLIC	??1?$_Hash_vec@V?$allocator@V?$_List_unchecked_iterator@V?$_List_val@U?$_List_simple_types@U?$pair@$$CB_KV?$basic_string@DU?$char_traits@D@std@@V?$allocator@D@2@@std@@@std@@@std@@@std@@@std@@@std@@@std@@QEAA@XZ ; std::_Hash_vec<std::allocator<std::_List_unchecked_iterator<std::_List_val<std::_List_simple_types<std::pair<unsigned __int64 const ,std::basic_string<char,std::char_traits<char>,std::allocator<char> > > > > > > >::~_Hash_vec<std::allocator<std::_List_unchecked_iterator<std::_List_val<std::_List_simple_types<std::pair<unsigned __int64 const ,std::basic_string<char,std::char_traits<char>,std::allocator<char> > > > > > > >
PUBLIC	??0?$_Vector_val@U?$_Simple_types@V?$_List_unchecked_iterator@V?$_List_val@U?$_List_simple_types@U?$pair@$$CB_KV?$basic_string@DU?$char_traits@D@std@@V?$allocator@D@2@@std@@@std@@@std@@@std@@@std@@@std@@@std@@QEAA@XZ ; std::_Vector_val<std::_Simple_types<std::_List_unchecked_iterator<std::_List_val<std::_List_simple_types<std::pair<unsigned __int64 const ,std::basic_string<char,std::char_traits<char>,std::allocator<char> > > > > > > >::_Vector_val<std::_Simple_types<std::_List_unchecked_iterator<std::_List_val<std::_List_simple_types<std::pair<unsigned __int64 const ,std::basic_string<char,std::char_traits<char>,std::allocator<char> > > > > > > >
PUBLIC	?_Get_first@?$_Compressed_pair@V?$allocator@V?$_List_unchecked_iterator@V?$_List_val@U?$_List_simple_types@U?$pair@$$CB_KV?$basic_string@DU?$char_traits@D@std@@V?$allocator@D@2@@std@@@std@@@std@@@std@@@std@@@std@@V?$_Vector_val@U?$_Simple_types@V?$_List_unchecked_iterator@V?$_List_val@U?$_List_simple_types@U?$pair@$$CB_KV?$basic_string@DU?$char_traits@D@std@@V?$allocator@D@2@@std@@@std@@@std@@@std@@@std@@@std@@@2@$00@std@@QEAAAEAV?$allocator@V?$_List_unchecked_iterator@V?$_List_val@U?$_List_simple_types@U?$pair@$$CB_KV?$basic_string@DU?$char_traits@D@std@@V?$allocator@D@2@@std@@@std@@@std@@@std@@@std@@@2@XZ ; std::_Compressed_pair<std::allocator<std::_List_unchecked_iterator<std::_List_val<std::_List_simple_types<std::pair<unsigned __int64 const ,std::basic_string<char,std::char_traits<char>,std::allocator<char> > > > > > >,std::_Vector_val<std::_Simple_types<std::_List_unchecked_iterator<std::_List_val<std::_List_simple_types<std::pair<unsigned __int64 const ,std::basic_string<char,std::char_traits<char>,std::allocator<char> > > > > > > >,1>::_Get_first
PUBLIC	?_Get_first@?$_Compressed_pair@V?$allocator@V?$_List_unchecked_iterator@V?$_List_val@U?$_List_simple_types@U?$pair@$$CB_KV?$basic_string@DU?$char_traits@D@std@@V?$allocator@D@2@@std@@@std@@@std@@@std@@@std@@@std@@V?$_Vector_val@U?$_Simple_types@V?$_List_unchecked_iterator@V?$_List_val@U?$_List_simple_types@U?$pair@$$CB_KV?$basic_string@DU?$char_traits@D@std@@V?$allocator@D@2@@std@@@std@@@std@@@std@@@std@@@std@@@2@$00@std@@QEBAAEBV?$allocator@V?$_List_unchecked_iterator@V?$_List_val@U?$_List_simple_types@U?$pair@$$CB_KV?$basic_string@DU?$char_traits@D@std@@V?$allocator@D@2@@std@@@std@@@std@@@std@@@std@@@2@XZ ; std::_Compressed_pair<std::allocator<std::_List_unchecked_iterator<std::_List_val<std::_List_simple_types<std::pair<unsigned __int64 const ,std::basic_string<char,std::char_traits<char>,std::allocator<char> > > > > > >,std::_Vector_val<std::_Simple_types<std::_List_unchecked_iterator<std::_List_val<std::_List_simple_types<std::pair<unsigned __int64 const ,std::basic_string<char,std::char_traits<char>,std::allocator<char> > > > > > > >,1>::_Get_first
PUBLIC	??1?$_Hash@V?$_Umap_traits@_KV?$basic_string@DU?$char_traits@D@std@@V?$allocator@D@2@@std@@V?$_Uhash_compare@_KU?$hash@_K@std@@U?$equal_to@_K@2@@2@V?$allocator@U?$pair@$$CB_KV?$basic_string@DU?$char_traits@D@std@@V?$allocator@D@2@@std@@@std@@@2@$0A@@std@@@std@@QEAA@XZ ; std::_Hash<std::_Umap_traits<unsigned __int64,std::basic_string<char,std::char_traits<char>,std::allocator<char> >,std::_Uhash_compare<unsigned __int64,std::hash<unsigned __int64>,std::equal_to<unsigned __int64> >,std::allocator<std::pair<unsigned __int64 const ,std::basic_string<char,std::char_traits<char>,std::allocator<char> > > >,0> >::~_Hash<std::_Umap_traits<unsigned __int64,std::basic_string<char,std::char_traits<char>,std::allocator<char> >,std::_Uhash_compare<unsigned __int64,std::hash<unsigned __int64>,std::equal_to<unsigned __int64> >,std::allocator<std::pair<unsigned __int64 const ,std::basic_string<char,std::char_traits<char>,std::allocator<char> > > >,0> >
PUBLIC	??0?$unordered_map@_KV?$basic_string@DU?$char_traits@D@std@@V?$allocator@D@2@@std@@U?$hash@_K@2@U?$equal_to@_K@2@V?$allocator@U?$pair@$$CB_KV?$basic_string@DU?$char_traits@D@std@@V?$allocator@D@2@@std@@@std@@@2@@std@@QEAA@XZ ; std::unordered_map<unsigned __int64,std::basic_string<char,std::char_traits<char>,std::allocator<char> >,std::hash<unsigned __int64>,std::equal_to<unsigned __int64>,std::allocator<std::pair<unsigned __int64 const ,std::basic_string<char,std::char_traits<char>,std::allocator<char> > > > >::unordered_map<unsigned __int64,std::basic_string<char,std::char_traits<char>,std::allocator<char> >,std::hash<unsigned __int64>,std::equal_to<unsigned __int64>,std::allocator<std::pair<unsigned __int64 const ,std::basic_string<char,std::char_traits<char>,std::allocator<char> > > > >
PUBLIC	??1?$unordered_map@_KV?$basic_string@DU?$char_traits@D@std@@V?$allocator@D@2@@std@@U?$hash@_K@2@U?$equal_to@_K@2@V?$allocator@U?$pair@$$CB_KV?$basic_string@DU?$char_traits@D@std@@V?$allocator@D@2@@std@@@std@@@2@@std@@QEAA@XZ ; std::unordered_map<unsigned __int64,std::basic_string<char,std::char_traits<char>,std::allocator<char> >,std::hash<unsigned __int64>,std::equal_to<unsigned __int64>,std::allocator<std::pair<unsigned __int64 const ,std::basic_string<char,std::char_traits<char>,std::allocator<char> > > > >::~unordered_map<unsigned __int64,std::basic_string<char,std::char_traits<char>,std::allocator<char> >,std::hash<unsigned __int64>,std::equal_to<unsigned __int64>,std::allocator<std::pair<unsigned __int64 const ,std::basic_string<char,std::char_traits<char>,std::allocator<char> > > > >
PUBLIC	??0?$allocator@U?$pair@$$CB_K_K@std@@@std@@QEAA@XZ ; std::allocator<std::pair<unsigned __int64 const ,unsigned __int64> >::allocator<std::pair<unsigned __int64 const ,unsigned __int64> >
PUBLIC	??0?$_Umap_traits@_K_KV?$_Uhash_compare@_KU?$hash@_K@std@@U?$equal_to@_K@2@@std@@V?$allocator@U?$pair@$$CB_K_K@std@@@2@$0A@@std@@QEAA@AEBV?$_Uhash_compare@_KU?$hash@_K@std@@U?$equal_to@_K@2@@1@@Z ; std::_Umap_traits<unsigned __int64,unsigned __int64,std::_Uhash_compare<unsigned __int64,std::hash<unsigned __int64>,std::equal_to<unsigned __int64> >,std::allocator<std::pair<unsigned __int64 const ,unsigned __int64> >,0>::_Umap_traits<unsigned __int64,unsigned __int64,std::_Uhash_compare<unsigned __int64,std::hash<unsigned __int64>,std::equal_to<unsigned __int64> >,std::allocator<std::pair<unsigned __int64 const ,unsigned __int64> >,0>
PUBLIC	?deallocate@?$allocator@U?$_List_node@U?$pair@$$CB_K_K@std@@PEAX@std@@@std@@QEAAXQEAU?$_List_node@U?$pair@$$CB_K_K@std@@PEAX@2@_K@Z ; std::allocator<std::_List_node<std::pair<unsigned __int64 const ,unsigned __int64>,void *> >::deallocate
PUBLIC	?allocate@?$allocator@U?$_List_node@U?$pair@$$CB_K_K@std@@PEAX@std@@@std@@QEAAPEAU?$_List_node@U?$pair@$$CB_K_K@std@@PEAX@2@_K@Z ; std::allocator<std::_List_node<std::pair<unsigned __int64 const ,unsigned __int64>,void *> >::allocate
PUBLIC	?deallocate@?$_Default_allocator_traits@V?$allocator@U?$_List_node@U?$pair@$$CB_K_K@std@@PEAX@std@@@std@@@std@@SAXAEAV?$allocator@U?$_List_node@U?$pair@$$CB_K_K@std@@PEAX@std@@@2@QEAU?$_List_node@U?$pair@$$CB_K_K@std@@PEAX@2@_K@Z ; std::_Default_allocator_traits<std::allocator<std::_List_node<std::pair<unsigned __int64 const ,unsigned __int64>,void *> > >::deallocate
PUBLIC	?max_size@?$_Default_allocator_traits@V?$allocator@U?$_List_node@U?$pair@$$CB_K_K@std@@PEAX@std@@@std@@@std@@SA_KAEBV?$allocator@U?$_List_node@U?$pair@$$CB_K_K@std@@PEAX@std@@@2@@Z ; std::_Default_allocator_traits<std::allocator<std::_List_node<std::pair<unsigned __int64 const ,unsigned __int64>,void *> > >::max_size
PUBLIC	??0?$list@U?$pair@$$CB_K_K@std@@V?$allocator@U?$pair@$$CB_K_K@std@@@2@@std@@QEAA@AEBV?$allocator@U?$pair@$$CB_K_K@std@@@1@@Z ; std::list<std::pair<unsigned __int64 const ,unsigned __int64>,std::allocator<std::pair<unsigned __int64 const ,unsigned __int64> > >::list<std::pair<unsigned __int64 const ,unsigned __int64>,std::allocator<std::pair<unsigned __int64 const ,unsigned __int64> > >
PUBLIC	??1?$list@U?$pair@$$CB_K_K@std@@V?$allocator@U?$pair@$$CB_K_K@std@@@2@@std@@QEAA@XZ ; std::list<std::pair<unsigned __int64 const ,unsigned __int64>,std::allocator<std::pair<unsigned __int64 const ,unsigned __int64> > >::~list<std::pair<unsigned __int64 const ,unsigned __int64>,std::allocator<std::pair<unsigned __int64 const ,unsigned __int64> > >
PUBLIC	?end@?$list@U?$pair@$$CB_K_K@std@@V?$allocator@U?$pair@$$CB_K_K@std@@@2@@std@@QEAA?AV?$_List_iterator@V?$_List_val@U?$_List_simple_types@U?$pair@$$CB_K_K@std@@@std@@@std@@@2@XZ ; std::list<std::pair<unsigned __int64 const ,unsigned __int64>,std::allocator<std::pair<unsigned __int64 const ,unsigned __int64> > >::end
PUBLIC	?_Unchecked_begin@?$list@U?$pair@$$CB_K_K@std@@V?$allocator@U?$pair@$$CB_K_K@std@@@2@@std@@QEAA?AV?$_List_unchecked_iterator@V?$_List_val@U?$_List_simple_types@U?$pair@$$CB_K_K@std@@@std@@@std@@@2@XZ ; std::list<std::pair<unsigned __int64 const ,unsigned __int64>,std::allocator<std::pair<unsigned __int64 const ,unsigned __int64> > >::_Unchecked_begin
PUBLIC	?_Unchecked_end@?$list@U?$pair@$$CB_K_K@std@@V?$allocator@U?$pair@$$CB_K_K@std@@@2@@std@@QEAA?AV?$_List_unchecked_iterator@V?$_List_val@U?$_List_simple_types@U?$pair@$$CB_K_K@std@@@std@@@std@@@2@XZ ; std::list<std::pair<unsigned __int64 const ,unsigned __int64>,std::allocator<std::pair<unsigned __int64 const ,unsigned __int64> > >::_Unchecked_end
PUBLIC	?_Make_iter@?$list@U?$pair@$$CB_K_K@std@@V?$allocator@U?$pair@$$CB_K_K@std@@@2@@std@@QEBA?AV?$_List_iterator@V?$_List_val@U?$_List_simple_types@U?$pair@$$CB_K_K@std@@@std@@@std@@@2@PEAU?$_List_node@U?$pair@$$CB_K_K@std@@PEAX@2@@Z ; std::list<std::pair<unsigned __int64 const ,unsigned __int64>,std::allocator<std::pair<unsigned __int64 const ,unsigned __int64> > >::_Make_iter
PUBLIC	?max_size@?$list@U?$pair@$$CB_K_K@std@@V?$allocator@U?$pair@$$CB_K_K@std@@@2@@std@@QEBA_KXZ ; std::list<std::pair<unsigned __int64 const ,unsigned __int64>,std::allocator<std::pair<unsigned __int64 const ,unsigned __int64> > >::max_size
PUBLIC	?clear@?$list@U?$pair@$$CB_K_K@std@@V?$allocator@U?$pair@$$CB_K_K@std@@@2@@std@@QEAAXXZ ; std::list<std::pair<unsigned __int64 const ,unsigned __int64>,std::allocator<std::pair<unsigned __int64 const ,unsigned __int64> > >::clear
PUBLIC	?_Tidy@?$list@U?$pair@$$CB_K_K@std@@V?$allocator@U?$pair@$$CB_K_K@std@@@2@@std@@AEAAXXZ ; std::list<std::pair<unsigned __int64 const ,unsigned __int64>,std::allocator<std::pair<unsigned __int64 const ,unsigned __int64> > >::_Tidy
PUBLIC	?_Alloc_sentinel_and_proxy@?$list@U?$pair@$$CB_K_K@std@@V?$allocator@U?$pair@$$CB_K_K@std@@@2@@std@@AEAAXXZ ; std::list<std::pair<unsigned __int64 const ,unsigned __int64>,std::allocator<std::pair<unsigned __int64 const ,unsigned __int64> > >::_Alloc_sentinel_and_proxy
PUBLIC	?_Getal@?$list@U?$pair@$$CB_K_K@std@@V?$allocator@U?$pair@$$CB_K_K@std@@@2@@std@@AEAAAEAV?$allocator@U?$_List_node@U?$pair@$$CB_K_K@std@@PEAX@std@@@2@XZ ; std::list<std::pair<unsigned __int64 const ,unsigned __int64>,std::allocator<std::pair<unsigned __int64 const ,unsigned __int64> > >::_Getal
PUBLIC	?_Getal@?$list@U?$pair@$$CB_K_K@std@@V?$allocator@U?$pair@$$CB_K_K@std@@@2@@std@@AEBAAEBV?$allocator@U?$_List_node@U?$pair@$$CB_K_K@std@@PEAX@std@@@2@XZ ; std::list<std::pair<unsigned __int64 const ,unsigned __int64>,std::allocator<std::pair<unsigned __int64 const ,unsigned __int64> > >::_Getal
PUBLIC	??0?$_List_val@U?$_List_simple_types@U?$pair@$$CB_K_K@std@@@std@@@std@@QEAA@XZ ; std::_List_val<std::_List_simple_types<std::pair<unsigned __int64 const ,unsigned __int64> > >::_List_val<std::_List_simple_types<std::pair<unsigned __int64 const ,unsigned __int64> > >
PUBLIC	?_Orphan_non_end@?$_List_val@U?$_List_simple_types@U?$pair@$$CB_K_K@std@@@std@@@std@@QEAAXXZ ; std::_List_val<std::_List_simple_types<std::pair<unsigned __int64 const ,unsigned __int64> > >::_Orphan_non_end
PUBLIC	?_Unchecked_splice@?$_List_val@U?$_List_simple_types@U?$pair@$$CB_K_K@std@@@std@@@std@@SAPEAU?$_List_node@U?$pair@$$CB_K_K@std@@PEAX@2@QEAU32@00@Z ; std::_List_val<std::_List_simple_types<std::pair<unsigned __int64 const ,unsigned __int64> > >::_Unchecked_splice
PUBLIC	?_Get_first@?$_Compressed_pair@V?$allocator@U?$_List_node@U?$pair@$$CB_K_K@std@@PEAX@std@@@std@@V?$_List_val@U?$_List_simple_types@U?$pair@$$CB_K_K@std@@@std@@@2@$00@std@@QEAAAEAV?$allocator@U?$_List_node@U?$pair@$$CB_K_K@std@@PEAX@std@@@2@XZ ; std::_Compressed_pair<std::allocator<std::_List_node<std::pair<unsigned __int64 const ,unsigned __int64>,void *> >,std::_List_val<std::_List_simple_types<std::pair<unsigned __int64 const ,unsigned __int64> > >,1>::_Get_first
PUBLIC	?_Get_first@?$_Compressed_pair@V?$allocator@U?$_List_node@U?$pair@$$CB_K_K@std@@PEAX@std@@@std@@V?$_List_val@U?$_List_simple_types@U?$pair@$$CB_K_K@std@@@std@@@2@$00@std@@QEBAAEBV?$allocator@U?$_List_node@U?$pair@$$CB_K_K@std@@PEAX@std@@@2@XZ ; std::_Compressed_pair<std::allocator<std::_List_node<std::pair<unsigned __int64 const ,unsigned __int64>,void *> >,std::_List_val<std::_List_simple_types<std::pair<unsigned __int64 const ,unsigned __int64> > >,1>::_Get_first
PUBLIC	??0?$_Hash@V?$_Umap_traits@_K_KV?$_Uhash_compare@_KU?$hash@_K@std@@U?$equal_to@_K@2@@std@@V?$allocator@U?$pair@$$CB_K_K@std@@@2@$0A@@std@@@std@@IEAA@AEBV?$_Uhash_compare@_KU?$hash@_K@std@@U?$equal_to@_K@2@@1@AEBV?$allocator@U?$pair@$$CB_K_K@std@@@1@@Z ; std::_Hash<std::_Umap_traits<unsigned __int64,unsigned __int64,std::_Uhash_compare<unsigned __int64,std::hash<unsigned __int64>,std::equal_to<unsigned __int64> >,std::allocator<std::pair<unsigned __int64 const ,unsigned __int64> >,0> >::_Hash<std::_Umap_traits<unsigned __int64,unsigned __int64,std::_Uhash_compare<unsigned __int64,std::hash<unsigned __int64>,std::equal_to<unsigned __int64> >,std::allocator<std::pair<unsigned __int64 const ,unsigned __int64> >,0> >
PUBLIC	?end@?$_Hash@V?$_Umap_traits@_K_KV?$_Uhash_compare@_KU?$hash@_K@std@@U?$equal_to@_K@2@@std@@V?$allocator@U?$pair@$$CB_K_K@std@@@2@$0A@@std@@@std@@QEAA?AV?$_List_iterator@V?$_List_val@U?$_List_simple_types@U?$pair@$$CB_K_K@std@@@std@@@std@@@2@XZ ; std::_Hash<std::_Umap_traits<unsigned __int64,unsigned __int64,std::_Uhash_compare<unsigned __int64,std::hash<unsigned __int64>,std::equal_to<unsigned __int64> >,std::allocator<std::pair<unsigned __int64 const ,unsigned __int64> >,0> >::end
PUBLIC	?_Unchecked_begin@?$_Hash@V?$_Umap_traits@_K_KV?$_Uhash_compare@_KU?$hash@_K@std@@U?$equal_to@_K@2@@std@@V?$allocator@U?$pair@$$CB_K_K@std@@@2@$0A@@std@@@std@@QEAA?AV?$_List_unchecked_iterator@V?$_List_val@U?$_List_simple_types@U?$pair@$$CB_K_K@std@@@std@@@std@@@2@XZ ; std::_Hash<std::_Umap_traits<unsigned __int64,unsigned __int64,std::_Uhash_compare<unsigned __int64,std::hash<unsigned __int64>,std::equal_to<unsigned __int64> >,std::allocator<std::pair<unsigned __int64 const ,unsigned __int64> >,0> >::_Unchecked_begin
PUBLIC	?_Unchecked_end@?$_Hash@V?$_Umap_traits@_K_KV?$_Uhash_compare@_KU?$hash@_K@std@@U?$equal_to@_K@2@@std@@V?$allocator@U?$pair@$$CB_K_K@std@@@2@$0A@@std@@@std@@QEAA?AV?$_List_unchecked_iterator@V?$_List_val@U?$_List_simple_types@U?$pair@$$CB_K_K@std@@@std@@@std@@@2@XZ ; std::_Hash<std::_Umap_traits<unsigned __int64,unsigned __int64,std::_Uhash_compare<unsigned __int64,std::hash<unsigned __int64>,std::equal_to<unsigned __int64> >,std::allocator<std::pair<unsigned __int64 const ,unsigned __int64> >,0> >::_Unchecked_end
PUBLIC	?bucket_count@?$_Hash@V?$_Umap_traits@_K_KV?$_Uhash_compare@_KU?$hash@_K@std@@U?$equal_to@_K@2@@std@@V?$allocator@U?$pair@$$CB_K_K@std@@@2@$0A@@std@@@std@@QEBA_KXZ ; std::_Hash<std::_Umap_traits<unsigned __int64,unsigned __int64,std::_Uhash_compare<unsigned __int64,std::hash<unsigned __int64>,std::equal_to<unsigned __int64> >,std::allocator<std::pair<unsigned __int64 const ,unsigned __int64> >,0> >::bucket_count
PUBLIC	?bucket@?$_Hash@V?$_Umap_traits@_K_KV?$_Uhash_compare@_KU?$hash@_K@std@@U?$equal_to@_K@2@@std@@V?$allocator@U?$pair@$$CB_K_K@std@@@2@$0A@@std@@@std@@QEBA_KAEB_K@Z ; std::_Hash<std::_Umap_traits<unsigned __int64,unsigned __int64,std::_Uhash_compare<unsigned __int64,std::hash<unsigned __int64>,std::equal_to<unsigned __int64> >,std::allocator<std::pair<unsigned __int64 const ,unsigned __int64> >,0> >::bucket
PUBLIC	?max_load_factor@?$_Hash@V?$_Umap_traits@_K_KV?$_Uhash_compare@_KU?$hash@_K@std@@U?$equal_to@_K@2@@std@@V?$allocator@U?$pair@$$CB_K_K@std@@@2@$0A@@std@@@std@@QEBAMXZ ; std::_Hash<std::_Umap_traits<unsigned __int64,unsigned __int64,std::_Uhash_compare<unsigned __int64,std::hash<unsigned __int64>,std::equal_to<unsigned __int64> >,std::allocator<std::pair<unsigned __int64 const ,unsigned __int64> >,0> >::max_load_factor
PUBLIC	?_Unchecked_erase@?$_Hash@V?$_Umap_traits@_K_KV?$_Uhash_compare@_KU?$hash@_K@std@@U?$equal_to@_K@2@@std@@V?$allocator@U?$pair@$$CB_K_K@std@@@2@$0A@@std@@@std@@AEAAPEAU?$_List_node@U?$pair@$$CB_K_K@std@@PEAX@2@PEAU32@QEAU32@@Z ; std::_Hash<std::_Umap_traits<unsigned __int64,unsigned __int64,std::_Uhash_compare<unsigned __int64,std::hash<unsigned __int64>,std::equal_to<unsigned __int64> >,std::allocator<std::pair<unsigned __int64 const ,unsigned __int64> >,0> >::_Unchecked_erase
PUBLIC	?clear@?$_Hash@V?$_Umap_traits@_K_KV?$_Uhash_compare@_KU?$hash@_K@std@@U?$equal_to@_K@2@@std@@V?$allocator@U?$pair@$$CB_K_K@std@@@2@$0A@@std@@@std@@QEAAXXZ ; std::_Hash<std::_Umap_traits<unsigned __int64,unsigned __int64,std::_Uhash_compare<unsigned __int64,std::hash<unsigned __int64>,std::equal_to<unsigned __int64> >,std::allocator<std::pair<unsigned __int64 const ,unsigned __int64> >,0> >::clear
PUBLIC	?_Insert_new_node_before@?$_Hash@V?$_Umap_traits@_K_KV?$_Uhash_compare@_KU?$hash@_K@std@@U?$equal_to@_K@2@@std@@V?$allocator@U?$pair@$$CB_K_K@std@@@2@$0A@@std@@@std@@IEAAPEAU?$_List_node@U?$pair@$$CB_K_K@std@@PEAX@2@_KQEAU32@1@Z ; std::_Hash<std::_Umap_traits<unsigned __int64,unsigned __int64,std::_Uhash_compare<unsigned __int64,std::hash<unsigned __int64>,std::equal_to<unsigned __int64> >,std::allocator<std::pair<unsigned __int64 const ,unsigned __int64> >,0> >::_Insert_new_node_before
PUBLIC	?_Check_max_size@?$_Hash@V?$_Umap_traits@_K_KV?$_Uhash_compare@_KU?$hash@_K@std@@U?$equal_to@_K@2@@std@@V?$allocator@U?$pair@$$CB_K_K@std@@@2@$0A@@std@@@std@@IEBAXXZ ; std::_Hash<std::_Umap_traits<unsigned __int64,unsigned __int64,std::_Uhash_compare<unsigned __int64,std::hash<unsigned __int64>,std::equal_to<unsigned __int64> >,std::allocator<std::pair<unsigned __int64 const ,unsigned __int64> >,0> >::_Check_max_size
PUBLIC	?_Check_rehash_required_1@?$_Hash@V?$_Umap_traits@_K_KV?$_Uhash_compare@_KU?$hash@_K@std@@U?$equal_to@_K@2@@std@@V?$allocator@U?$pair@$$CB_K_K@std@@@2@$0A@@std@@@std@@IEBA_NXZ ; std::_Hash<std::_Umap_traits<unsigned __int64,unsigned __int64,std::_Uhash_compare<unsigned __int64,std::hash<unsigned __int64>,std::equal_to<unsigned __int64> >,std::allocator<std::pair<unsigned __int64 const ,unsigned __int64> >,0> >::_Check_rehash_required_1
PUBLIC	?_Rehash_for_1@?$_Hash@V?$_Umap_traits@_K_KV?$_Uhash_compare@_KU?$hash@_K@std@@U?$equal_to@_K@2@@std@@V?$allocator@U?$pair@$$CB_K_K@std@@@2@$0A@@std@@@std@@IEAAXXZ ; std::_Hash<std::_Umap_traits<unsigned __int64,unsigned __int64,std::_Uhash_compare<unsigned __int64,std::hash<unsigned __int64>,std::equal_to<unsigned __int64> >,std::allocator<std::pair<unsigned __int64 const ,unsigned __int64> >,0> >::_Rehash_for_1
PUBLIC	?_Min_load_factor_buckets@?$_Hash@V?$_Umap_traits@_K_KV?$_Uhash_compare@_KU?$hash@_K@std@@U?$equal_to@_K@2@@std@@V?$allocator@U?$pair@$$CB_K_K@std@@@2@$0A@@std@@@std@@IEBA_K_K@Z ; std::_Hash<std::_Umap_traits<unsigned __int64,unsigned __int64,std::_Uhash_compare<unsigned __int64,std::hash<unsigned __int64>,std::equal_to<unsigned __int64> >,std::allocator<std::pair<unsigned __int64 const ,unsigned __int64> >,0> >::_Min_load_factor_buckets
PUBLIC	?_Desired_grow_bucket_count@?$_Hash@V?$_Umap_traits@_K_KV?$_Uhash_compare@_KU?$hash@_K@std@@U?$equal_to@_K@2@@std@@V?$allocator@U?$pair@$$CB_K_K@std@@@2@$0A@@std@@@std@@IEBA_K_K@Z ; std::_Hash<std::_Umap_traits<unsigned __int64,unsigned __int64,std::_Uhash_compare<unsigned __int64,std::hash<unsigned __int64>,std::equal_to<unsigned __int64> >,std::allocator<std::pair<unsigned __int64 const ,unsigned __int64> >,0> >::_Desired_grow_bucket_count
PUBLIC	?_Forced_rehash@?$_Hash@V?$_Umap_traits@_K_KV?$_Uhash_compare@_KU?$hash@_K@std@@U?$equal_to@_K@2@@std@@V?$allocator@U?$pair@$$CB_K_K@std@@@2@$0A@@std@@@std@@IEAAX_K@Z ; std::_Hash<std::_Umap_traits<unsigned __int64,unsigned __int64,std::_Uhash_compare<unsigned __int64,std::hash<unsigned __int64>,std::equal_to<unsigned __int64> >,std::allocator<std::pair<unsigned __int64 const ,unsigned __int64> >,0> >::_Forced_rehash
PUBLIC	?_Max_bucket_size@?$_Hash@V?$_Umap_traits@_K_KV?$_Uhash_compare@_KU?$hash@_K@std@@U?$equal_to@_K@2@@std@@V?$allocator@U?$pair@$$CB_K_K@std@@@2@$0A@@std@@@std@@IEAAAEAMXZ ; std::_Hash<std::_Umap_traits<unsigned __int64,unsigned __int64,std::_Uhash_compare<unsigned __int64,std::hash<unsigned __int64>,std::equal_to<unsigned __int64> >,std::allocator<std::pair<unsigned __int64 const ,unsigned __int64> >,0> >::_Max_bucket_size
PUBLIC	?_Max_bucket_size@?$_Hash@V?$_Umap_traits@_K_KV?$_Uhash_compare@_KU?$hash@_K@std@@U?$equal_to@_K@2@@std@@V?$allocator@U?$pair@$$CB_K_K@std@@@2@$0A@@std@@@std@@IEBAAEBMXZ ; std::_Hash<std::_Umap_traits<unsigned __int64,unsigned __int64,std::_Uhash_compare<unsigned __int64,std::hash<unsigned __int64>,std::equal_to<unsigned __int64> >,std::allocator<std::pair<unsigned __int64 const ,unsigned __int64> >,0> >::_Max_bucket_size
PUBLIC	?deallocate@?$allocator@V?$_List_unchecked_iterator@V?$_List_val@U?$_List_simple_types@U?$pair@$$CB_K_K@std@@@std@@@std@@@std@@@std@@QEAAXQEAV?$_List_unchecked_iterator@V?$_List_val@U?$_List_simple_types@U?$pair@$$CB_K_K@std@@@std@@@std@@@2@_K@Z ; std::allocator<std::_List_unchecked_iterator<std::_List_val<std::_List_simple_types<std::pair<unsigned __int64 const ,unsigned __int64> > > > >::deallocate
PUBLIC	?allocate@?$allocator@V?$_List_unchecked_iterator@V?$_List_val@U?$_List_simple_types@U?$pair@$$CB_K_K@std@@@std@@@std@@@std@@@std@@QEAAPEAV?$_List_unchecked_iterator@V?$_List_val@U?$_List_simple_types@U?$pair@$$CB_K_K@std@@@std@@@std@@@2@_K@Z ; std::allocator<std::_List_unchecked_iterator<std::_List_val<std::_List_simple_types<std::pair<unsigned __int64 const ,unsigned __int64> > > > >::allocate
PUBLIC	?max_size@?$_Default_allocator_traits@V?$allocator@V?$_List_unchecked_iterator@V?$_List_val@U?$_List_simple_types@U?$pair@$$CB_K_K@std@@@std@@@std@@@std@@@std@@@std@@SA_KAEBV?$allocator@V?$_List_unchecked_iterator@V?$_List_val@U?$_List_simple_types@U?$pair@$$CB_K_K@std@@@std@@@std@@@std@@@2@@Z ; std::_Default_allocator_traits<std::allocator<std::_List_unchecked_iterator<std::_List_val<std::_List_simple_types<std::pair<unsigned __int64 const ,unsigned __int64> > > > > >::max_size
PUBLIC	?size@?$_Hash_vec@V?$allocator@V?$_List_unchecked_iterator@V?$_List_val@U?$_List_simple_types@U?$pair@$$CB_K_K@std@@@std@@@std@@@std@@@std@@@std@@QEBA_KXZ ; std::_Hash_vec<std::allocator<std::_List_unchecked_iterator<std::_List_val<std::_List_simple_types<std::pair<unsigned __int64 const ,unsigned __int64> > > > > >::size
PUBLIC	?max_size@?$_Hash_vec@V?$allocator@V?$_List_unchecked_iterator@V?$_List_val@U?$_List_simple_types@U?$pair@$$CB_K_K@std@@@std@@@std@@@std@@@std@@@std@@QEBA_KXZ ; std::_Hash_vec<std::allocator<std::_List_unchecked_iterator<std::_List_val<std::_List_simple_types<std::pair<unsigned __int64 const ,unsigned __int64> > > > > >::max_size
PUBLIC	?capacity@?$_Hash_vec@V?$allocator@V?$_List_unchecked_iterator@V?$_List_val@U?$_List_simple_types@U?$pair@$$CB_K_K@std@@@std@@@std@@@std@@@std@@@std@@QEBA_KXZ ; std::_Hash_vec<std::allocator<std::_List_unchecked_iterator<std::_List_val<std::_List_simple_types<std::pair<unsigned __int64 const ,unsigned __int64> > > > > >::capacity
PUBLIC	?_Assign_grow@?$_Hash_vec@V?$allocator@V?$_List_unchecked_iterator@V?$_List_val@U?$_List_simple_types@U?$pair@$$CB_K_K@std@@@std@@@std@@@std@@@std@@@std@@QEAAX_KV?$_List_unchecked_iterator@V?$_List_val@U?$_List_simple_types@U?$pair@$$CB_K_K@std@@@std@@@std@@@2@@Z ; std::_Hash_vec<std::allocator<std::_List_unchecked_iterator<std::_List_val<std::_List_simple_types<std::pair<unsigned __int64 const ,unsigned __int64> > > > > >::_Assign_grow
PUBLIC	?_Tidy@?$_Hash_vec@V?$allocator@V?$_List_unchecked_iterator@V?$_List_val@U?$_List_simple_types@U?$pair@$$CB_K_K@std@@@std@@@std@@@std@@@std@@@std@@QEAAXXZ ; std::_Hash_vec<std::allocator<std::_List_unchecked_iterator<std::_List_val<std::_List_simple_types<std::pair<unsigned __int64 const ,unsigned __int64> > > > > >::_Tidy
PUBLIC	??1?$_Hash_vec@V?$allocator@V?$_List_unchecked_iterator@V?$_List_val@U?$_List_simple_types@U?$pair@$$CB_K_K@std@@@std@@@std@@@std@@@std@@@std@@QEAA@XZ ; std::_Hash_vec<std::allocator<std::_List_unchecked_iterator<std::_List_val<std::_List_simple_types<std::pair<unsigned __int64 const ,unsigned __int64> > > > > >::~_Hash_vec<std::allocator<std::_List_unchecked_iterator<std::_List_val<std::_List_simple_types<std::pair<unsigned __int64 const ,unsigned __int64> > > > > >
PUBLIC	??0?$_Vector_val@U?$_Simple_types@V?$_List_unchecked_iterator@V?$_List_val@U?$_List_simple_types@U?$pair@$$CB_K_K@std@@@std@@@std@@@std@@@std@@@std@@QEAA@XZ ; std::_Vector_val<std::_Simple_types<std::_List_unchecked_iterator<std::_List_val<std::_List_simple_types<std::pair<unsigned __int64 const ,unsigned __int64> > > > > >::_Vector_val<std::_Simple_types<std::_List_unchecked_iterator<std::_List_val<std::_List_simple_types<std::pair<unsigned __int64 const ,unsigned __int64> > > > > >
PUBLIC	?_Get_first@?$_Compressed_pair@V?$allocator@V?$_List_unchecked_iterator@V?$_List_val@U?$_List_simple_types@U?$pair@$$CB_K_K@std@@@std@@@std@@@std@@@std@@V?$_Vector_val@U?$_Simple_types@V?$_List_unchecked_iterator@V?$_List_val@U?$_List_simple_types@U?$pair@$$CB_K_K@std@@@std@@@std@@@std@@@std@@@2@$00@std@@QEAAAEAV?$allocator@V?$_List_unchecked_iterator@V?$_List_val@U?$_List_simple_types@U?$pair@$$CB_K_K@std@@@std@@@std@@@std@@@2@XZ ; std::_Compressed_pair<std::allocator<std::_List_unchecked_iterator<std::_List_val<std::_List_simple_types<std::pair<unsigned __int64 const ,unsigned __int64> > > > >,std::_Vector_val<std::_Simple_types<std::_List_unchecked_iterator<std::_List_val<std::_List_simple_types<std::pair<unsigned __int64 const ,unsigned __int64> > > > > >,1>::_Get_first
PUBLIC	?_Get_first@?$_Compressed_pair@V?$allocator@V?$_List_unchecked_iterator@V?$_List_val@U?$_List_simple_types@U?$pair@$$CB_K_K@std@@@std@@@std@@@std@@@std@@V?$_Vector_val@U?$_Simple_types@V?$_List_unchecked_iterator@V?$_List_val@U?$_List_simple_types@U?$pair@$$CB_K_K@std@@@std@@@std@@@std@@@std@@@2@$00@std@@QEBAAEBV?$allocator@V?$_List_unchecked_iterator@V?$_List_val@U?$_List_simple_types@U?$pair@$$CB_K_K@std@@@std@@@std@@@std@@@2@XZ ; std::_Compressed_pair<std::allocator<std::_List_unchecked_iterator<std::_List_val<std::_List_simple_types<std::pair<unsigned __int64 const ,unsigned __int64> > > > >,std::_Vector_val<std::_Simple_types<std::_List_unchecked_iterator<std::_List_val<std::_List_simple_types<std::pair<unsigned __int64 const ,unsigned __int64> > > > > >,1>::_Get_first
PUBLIC	??1?$_Hash@V?$_Umap_traits@_K_KV?$_Uhash_compare@_KU?$hash@_K@std@@U?$equal_to@_K@2@@std@@V?$allocator@U?$pair@$$CB_K_K@std@@@2@$0A@@std@@@std@@QEAA@XZ ; std::_Hash<std::_Umap_traits<unsigned __int64,unsigned __int64,std::_Uhash_compare<unsigned __int64,std::hash<unsigned __int64>,std::equal_to<unsigned __int64> >,std::allocator<std::pair<unsigned __int64 const ,unsigned __int64> >,0> >::~_Hash<std::_Umap_traits<unsigned __int64,unsigned __int64,std::_Uhash_compare<unsigned __int64,std::hash<unsigned __int64>,std::equal_to<unsigned __int64> >,std::allocator<std::pair<unsigned __int64 const ,unsigned __int64> >,0> >
PUBLIC	??0?$unordered_map@_K_KU?$hash@_K@std@@U?$equal_to@_K@2@V?$allocator@U?$pair@$$CB_K_K@std@@@2@@std@@QEAA@XZ ; std::unordered_map<unsigned __int64,unsigned __int64,std::hash<unsigned __int64>,std::equal_to<unsigned __int64>,std::allocator<std::pair<unsigned __int64 const ,unsigned __int64> > >::unordered_map<unsigned __int64,unsigned __int64,std::hash<unsigned __int64>,std::equal_to<unsigned __int64>,std::allocator<std::pair<unsigned __int64 const ,unsigned __int64> > >
PUBLIC	??1?$unordered_map@_K_KU?$hash@_K@std@@U?$equal_to@_K@2@V?$allocator@U?$pair@$$CB_K_K@std@@@2@@std@@QEAA@XZ ; std::unordered_map<unsigned __int64,unsigned __int64,std::hash<unsigned __int64>,std::equal_to<unsigned __int64>,std::allocator<std::pair<unsigned __int64 const ,unsigned __int64> > >::~unordered_map<unsigned __int64,unsigned __int64,std::hash<unsigned __int64>,std::equal_to<unsigned __int64>,std::allocator<std::pair<unsigned __int64 const ,unsigned __int64> > >
PUBLIC	??$find@X@?$_Hash@V?$_Umap_traits@_K_KV?$_Uhash_compare@_KU?$hash@_K@std@@U?$equal_to@_K@2@@std@@V?$allocator@U?$pair@$$CB_K_K@std@@@2@$0A@@std@@@std@@QEAA?AV?$_List_iterator@V?$_List_val@U?$_List_simple_types@U?$pair@$$CB_K_K@std@@@std@@@std@@@1@AEB_K@Z ; std::_Hash<std::_Umap_traits<unsigned __int64,unsigned __int64,std::_Uhash_compare<unsigned __int64,std::hash<unsigned __int64>,std::equal_to<unsigned __int64> >,std::allocator<std::pair<unsigned __int64 const ,unsigned __int64> >,0> >::find<void>
PUBLIC	??0?$_List_unchecked_const_iterator@V?$_List_val@U?$_List_simple_types@U?$pair@$$CB_K_K@std@@@std@@@std@@U_Iterator_base0@2@@std@@QEAA@PEAU?$_List_node@U?$pair@$$CB_K_K@std@@PEAX@1@PEBV?$_List_val@U?$_List_simple_types@U?$pair@$$CB_K_K@std@@@std@@@1@@Z ; std::_List_unchecked_const_iterator<std::_List_val<std::_List_simple_types<std::pair<unsigned __int64 const ,unsigned __int64> > >,std::_Iterator_base0>::_List_unchecked_const_iterator<std::_List_val<std::_List_simple_types<std::pair<unsigned __int64 const ,unsigned __int64> > >,std::_Iterator_base0>
PUBLIC	??D?$_List_unchecked_const_iterator@V?$_List_val@U?$_List_simple_types@U?$pair@$$CB_K_K@std@@@std@@@std@@U_Iterator_base0@2@@std@@QEBAAEBU?$pair@$$CB_K_K@1@XZ ; std::_List_unchecked_const_iterator<std::_List_val<std::_List_simple_types<std::pair<unsigned __int64 const ,unsigned __int64> > >,std::_Iterator_base0>::operator*
PUBLIC	??E?$_List_unchecked_const_iterator@V?$_List_val@U?$_List_simple_types@U?$pair@$$CB_K_K@std@@@std@@@std@@U_Iterator_base0@2@@std@@QEAAAEAV01@XZ ; std::_List_unchecked_const_iterator<std::_List_val<std::_List_simple_types<std::pair<unsigned __int64 const ,unsigned __int64> > >,std::_Iterator_base0>::operator++
PUBLIC	??F?$_List_unchecked_const_iterator@V?$_List_val@U?$_List_simple_types@U?$pair@$$CB_K_K@std@@@std@@@std@@U_Iterator_base0@2@@std@@QEAAAEAV01@XZ ; std::_List_unchecked_const_iterator<std::_List_val<std::_List_simple_types<std::pair<unsigned __int64 const ,unsigned __int64> > >,std::_Iterator_base0>::operator--
PUBLIC	??8?$_List_unchecked_const_iterator@V?$_List_val@U?$_List_simple_types@U?$pair@$$CB_K_K@std@@@std@@@std@@U_Iterator_base0@2@@std@@QEBA_NAEBV01@@Z ; std::_List_unchecked_const_iterator<std::_List_val<std::_List_simple_types<std::pair<unsigned __int64 const ,unsigned __int64> > >,std::_Iterator_base0>::operator==
PUBLIC	??9?$_List_unchecked_const_iterator@V?$_List_val@U?$_List_simple_types@U?$pair@$$CB_K_K@std@@@std@@@std@@U_Iterator_base0@2@@std@@QEBA_NAEBV01@@Z ; std::_List_unchecked_const_iterator<std::_List_val<std::_List_simple_types<std::pair<unsigned __int64 const ,unsigned __int64> > >,std::_Iterator_base0>::operator!=
PUBLIC	??D?$_List_const_iterator@V?$_List_val@U?$_List_simple_types@U?$pair@$$CB_K_K@std@@@std@@@std@@@std@@QEBAAEBU?$pair@$$CB_K_K@1@XZ ; std::_List_const_iterator<std::_List_val<std::_List_simple_types<std::pair<unsigned __int64 const ,unsigned __int64> > > >::operator*
PUBLIC	??8?$_List_const_iterator@V?$_List_val@U?$_List_simple_types@U?$pair@$$CB_K_K@std@@@std@@@std@@@std@@QEBA_NAEBV01@@Z ; std::_List_const_iterator<std::_List_val<std::_List_simple_types<std::pair<unsigned __int64 const ,unsigned __int64> > > >::operator==
PUBLIC	??9?$_List_const_iterator@V?$_List_val@U?$_List_simple_types@U?$pair@$$CB_K_K@std@@@std@@@std@@@std@@QEBA_NAEBV01@@Z ; std::_List_const_iterator<std::_List_val<std::_List_simple_types<std::pair<unsigned __int64 const ,unsigned __int64> > > >::operator!=
PUBLIC	??0?$_List_const_iterator@V?$_List_val@U?$_List_simple_types@U?$pair@$$CB_K_K@std@@@std@@@std@@@std@@QEAA@PEAU?$_List_node@U?$pair@$$CB_K_K@std@@PEAX@1@PEBV?$_List_val@U?$_List_simple_types@U?$pair@$$CB_K_K@std@@@std@@@1@@Z ; std::_List_const_iterator<std::_List_val<std::_List_simple_types<std::pair<unsigned __int64 const ,unsigned __int64> > > >::_List_const_iterator<std::_List_val<std::_List_simple_types<std::pair<unsigned __int64 const ,unsigned __int64> > > >
PUBLIC	??D?$_List_iterator@V?$_List_val@U?$_List_simple_types@U?$pair@$$CB_K_K@std@@@std@@@std@@@std@@QEBAAEAU?$pair@$$CB_K_K@1@XZ ; std::_List_iterator<std::_List_val<std::_List_simple_types<std::pair<unsigned __int64 const ,unsigned __int64> > > >::operator*
PUBLIC	??C?$_List_iterator@V?$_List_val@U?$_List_simple_types@U?$pair@$$CB_K_K@std@@@std@@@std@@@std@@QEBAPEAU?$pair@$$CB_K_K@1@XZ ; std::_List_iterator<std::_List_val<std::_List_simple_types<std::pair<unsigned __int64 const ,unsigned __int64> > > >::operator->
PUBLIC	??0?$_List_iterator@V?$_List_val@U?$_List_simple_types@U?$pair@$$CB_K_K@std@@@std@@@std@@@std@@QEAA@PEAU?$_List_node@U?$pair@$$CB_K_K@std@@PEAX@1@PEBV?$_List_val@U?$_List_simple_types@U?$pair@$$CB_K_K@std@@@std@@@1@@Z ; std::_List_iterator<std::_List_val<std::_List_simple_types<std::pair<unsigned __int64 const ,unsigned __int64> > > >::_List_iterator<std::_List_val<std::_List_simple_types<std::pair<unsigned __int64 const ,unsigned __int64> > > >
PUBLIC	??$emplace@AEA_KAEA_K@?$_Hash@V?$_Umap_traits@_K_KV?$_Uhash_compare@_KU?$hash@_K@std@@U?$equal_to@_K@2@@std@@V?$allocator@U?$pair@$$CB_K_K@std@@@2@$0A@@std@@@std@@QEAA?AU?$pair@V?$_List_iterator@V?$_List_val@U?$_List_simple_types@U?$pair@$$CB_K_K@std@@@std@@@std@@@std@@_N@1@AEA_K0@Z ; std::_Hash<std::_Umap_traits<unsigned __int64,unsigned __int64,std::_Uhash_compare<unsigned __int64,std::hash<unsigned __int64>,std::equal_to<unsigned __int64> >,std::allocator<std::pair<unsigned __int64 const ,unsigned __int64> >,0> >::emplace<unsigned __int64 &,unsigned __int64 &>
PUBLIC	??$ReadCache@I@DMAHandler@IronMan@@QEAAI_K@Z	; IronMan::DMAHandler::ReadCache<unsigned int>
PUBLIC	??$Read@I@DMAHandler@IronMan@@QEAAI_K@Z		; IronMan::DMAHandler::Read<unsigned int>
PUBLIC	?STATIC_Get@?$UEEncryptedObjectProperty@W4EObjectFlags@SDK@Core@IronMan@@$0A@@SDK@Core@IronMan@@SA?AW4EObjectFlags@234@_K@Z ; IronMan::Core::SDK::UEEncryptedObjectProperty<enum IronMan::Core::SDK::EObjectFlags,0>::STATIC_Get
PUBLIC	?STATIC_Get@?$UEEncryptedObjectProperty@H$02@SDK@Core@IronMan@@SAH_K@Z ; IronMan::Core::SDK::UEEncryptedObjectProperty<int,3>::STATIC_Get
PUBLIC	?STATIC_Get@?$UEEncryptedObjectProperty@PEAX$03@SDK@Core@IronMan@@SAPEAX_K@Z ; IronMan::Core::SDK::UEEncryptedObjectProperty<void *,4>::STATIC_Get
PUBLIC	?STATIC_Get@?$UEEncryptedObjectProperty@PEAX$04@SDK@Core@IronMan@@SAPEAX_K@Z ; IronMan::Core::SDK::UEEncryptedObjectProperty<void *,5>::STATIC_Get
PUBLIC	?STATIC_Get@?$UEEncryptedObjectProperty@H$00@SDK@Core@IronMan@@SAH_K@Z ; IronMan::Core::SDK::UEEncryptedObjectProperty<int,1>::STATIC_Get
PUBLIC	?STATIC_Get@?$UEEncryptedObjectProperty@H$01@SDK@Core@IronMan@@SAH_K@Z ; IronMan::Core::SDK::UEEncryptedObjectProperty<int,2>::STATIC_Get
PUBLIC	??$find@X@?$_Hash@V?$_Umap_traits@IV?$basic_string@DU?$char_traits@D@std@@V?$allocator@D@2@@std@@V?$_Uhash_compare@IU?$hash@I@std@@U?$equal_to@I@2@@2@V?$allocator@U?$pair@$$CBIV?$basic_string@DU?$char_traits@D@std@@V?$allocator@D@2@@std@@@std@@@2@$0A@@std@@@std@@QEAA?AV?$_List_iterator@V?$_List_val@U?$_List_simple_types@U?$pair@$$CBIV?$basic_string@DU?$char_traits@D@std@@V?$allocator@D@2@@std@@@std@@@std@@@std@@@1@AEBI@Z ; std::_Hash<std::_Umap_traits<unsigned int,std::basic_string<char,std::char_traits<char>,std::allocator<char> >,std::_Uhash_compare<unsigned int,std::hash<unsigned int>,std::equal_to<unsigned int> >,std::allocator<std::pair<unsigned int const ,std::basic_string<char,std::char_traits<char>,std::allocator<char> > > >,0> >::find<void>
PUBLIC	??0?$_List_unchecked_const_iterator@V?$_List_val@U?$_List_simple_types@U?$pair@$$CBIV?$basic_string@DU?$char_traits@D@std@@V?$allocator@D@2@@std@@@std@@@std@@@std@@U_Iterator_base0@2@@std@@QEAA@PEAU?$_List_node@U?$pair@$$CBIV?$basic_string@DU?$char_traits@D@std@@V?$allocator@D@2@@std@@@std@@PEAX@1@PEBV?$_List_val@U?$_List_simple_types@U?$pair@$$CBIV?$basic_string@DU?$char_traits@D@std@@V?$allocator@D@2@@std@@@std@@@std@@@1@@Z ; std::_List_unchecked_const_iterator<std::_List_val<std::_List_simple_types<std::pair<unsigned int const ,std::basic_string<char,std::char_traits<char>,std::allocator<char> > > > >,std::_Iterator_base0>::_List_unchecked_const_iterator<std::_List_val<std::_List_simple_types<std::pair<unsigned int const ,std::basic_string<char,std::char_traits<char>,std::allocator<char> > > > >,std::_Iterator_base0>
PUBLIC	??D?$_List_unchecked_const_iterator@V?$_List_val@U?$_List_simple_types@U?$pair@$$CBIV?$basic_string@DU?$char_traits@D@std@@V?$allocator@D@2@@std@@@std@@@std@@@std@@U_Iterator_base0@2@@std@@QEBAAEBU?$pair@$$CBIV?$basic_string@DU?$char_traits@D@std@@V?$allocator@D@2@@std@@@1@XZ ; std::_List_unchecked_const_iterator<std::_List_val<std::_List_simple_types<std::pair<unsigned int const ,std::basic_string<char,std::char_traits<char>,std::allocator<char> > > > >,std::_Iterator_base0>::operator*
PUBLIC	??E?$_List_unchecked_const_iterator@V?$_List_val@U?$_List_simple_types@U?$pair@$$CBIV?$basic_string@DU?$char_traits@D@std@@V?$allocator@D@2@@std@@@std@@@std@@@std@@U_Iterator_base0@2@@std@@QEAAAEAV01@XZ ; std::_List_unchecked_const_iterator<std::_List_val<std::_List_simple_types<std::pair<unsigned int const ,std::basic_string<char,std::char_traits<char>,std::allocator<char> > > > >,std::_Iterator_base0>::operator++
PUBLIC	??F?$_List_unchecked_const_iterator@V?$_List_val@U?$_List_simple_types@U?$pair@$$CBIV?$basic_string@DU?$char_traits@D@std@@V?$allocator@D@2@@std@@@std@@@std@@@std@@U_Iterator_base0@2@@std@@QEAAAEAV01@XZ ; std::_List_unchecked_const_iterator<std::_List_val<std::_List_simple_types<std::pair<unsigned int const ,std::basic_string<char,std::char_traits<char>,std::allocator<char> > > > >,std::_Iterator_base0>::operator--
PUBLIC	??8?$_List_unchecked_const_iterator@V?$_List_val@U?$_List_simple_types@U?$pair@$$CBIV?$basic_string@DU?$char_traits@D@std@@V?$allocator@D@2@@std@@@std@@@std@@@std@@U_Iterator_base0@2@@std@@QEBA_NAEBV01@@Z ; std::_List_unchecked_const_iterator<std::_List_val<std::_List_simple_types<std::pair<unsigned int const ,std::basic_string<char,std::char_traits<char>,std::allocator<char> > > > >,std::_Iterator_base0>::operator==
PUBLIC	??9?$_List_unchecked_const_iterator@V?$_List_val@U?$_List_simple_types@U?$pair@$$CBIV?$basic_string@DU?$char_traits@D@std@@V?$allocator@D@2@@std@@@std@@@std@@@std@@U_Iterator_base0@2@@std@@QEBA_NAEBV01@@Z ; std::_List_unchecked_const_iterator<std::_List_val<std::_List_simple_types<std::pair<unsigned int const ,std::basic_string<char,std::char_traits<char>,std::allocator<char> > > > >,std::_Iterator_base0>::operator!=
PUBLIC	??D?$_List_const_iterator@V?$_List_val@U?$_List_simple_types@U?$pair@$$CBIV?$basic_string@DU?$char_traits@D@std@@V?$allocator@D@2@@std@@@std@@@std@@@std@@@std@@QEBAAEBU?$pair@$$CBIV?$basic_string@DU?$char_traits@D@std@@V?$allocator@D@2@@std@@@1@XZ ; std::_List_const_iterator<std::_List_val<std::_List_simple_types<std::pair<unsigned int const ,std::basic_string<char,std::char_traits<char>,std::allocator<char> > > > > >::operator*
PUBLIC	??8?$_List_const_iterator@V?$_List_val@U?$_List_simple_types@U?$pair@$$CBIV?$basic_string@DU?$char_traits@D@std@@V?$allocator@D@2@@std@@@std@@@std@@@std@@@std@@QEBA_NAEBV01@@Z ; std::_List_const_iterator<std::_List_val<std::_List_simple_types<std::pair<unsigned int const ,std::basic_string<char,std::char_traits<char>,std::allocator<char> > > > > >::operator==
PUBLIC	??0?$_List_const_iterator@V?$_List_val@U?$_List_simple_types@U?$pair@$$CBIV?$basic_string@DU?$char_traits@D@std@@V?$allocator@D@2@@std@@@std@@@std@@@std@@@std@@QEAA@PEAU?$_List_node@U?$pair@$$CBIV?$basic_string@DU?$char_traits@D@std@@V?$allocator@D@2@@std@@@std@@PEAX@1@PEBV?$_List_val@U?$_List_simple_types@U?$pair@$$CBIV?$basic_string@DU?$char_traits@D@std@@V?$allocator@D@2@@std@@@std@@@std@@@1@@Z ; std::_List_const_iterator<std::_List_val<std::_List_simple_types<std::pair<unsigned int const ,std::basic_string<char,std::char_traits<char>,std::allocator<char> > > > > >::_List_const_iterator<std::_List_val<std::_List_simple_types<std::pair<unsigned int const ,std::basic_string<char,std::char_traits<char>,std::allocator<char> > > > > >
PUBLIC	??D?$_List_iterator@V?$_List_val@U?$_List_simple_types@U?$pair@$$CBIV?$basic_string@DU?$char_traits@D@std@@V?$allocator@D@2@@std@@@std@@@std@@@std@@@std@@QEBAAEAU?$pair@$$CBIV?$basic_string@DU?$char_traits@D@std@@V?$allocator@D@2@@std@@@1@XZ ; std::_List_iterator<std::_List_val<std::_List_simple_types<std::pair<unsigned int const ,std::basic_string<char,std::char_traits<char>,std::allocator<char> > > > > >::operator*
PUBLIC	??C?$_List_iterator@V?$_List_val@U?$_List_simple_types@U?$pair@$$CBIV?$basic_string@DU?$char_traits@D@std@@V?$allocator@D@2@@std@@@std@@@std@@@std@@@std@@QEBAPEAU?$pair@$$CBIV?$basic_string@DU?$char_traits@D@std@@V?$allocator@D@2@@std@@@1@XZ ; std::_List_iterator<std::_List_val<std::_List_simple_types<std::pair<unsigned int const ,std::basic_string<char,std::char_traits<char>,std::allocator<char> > > > > >::operator->
PUBLIC	??0?$_List_iterator@V?$_List_val@U?$_List_simple_types@U?$pair@$$CBIV?$basic_string@DU?$char_traits@D@std@@V?$allocator@D@2@@std@@@std@@@std@@@std@@@std@@QEAA@PEAU?$_List_node@U?$pair@$$CBIV?$basic_string@DU?$char_traits@D@std@@V?$allocator@D@2@@std@@@std@@PEAX@1@PEBV?$_List_val@U?$_List_simple_types@U?$pair@$$CBIV?$basic_string@DU?$char_traits@D@std@@V?$allocator@D@2@@std@@@std@@@std@@@1@@Z ; std::_List_iterator<std::_List_val<std::_List_simple_types<std::pair<unsigned int const ,std::basic_string<char,std::char_traits<char>,std::allocator<char> > > > > >::_List_iterator<std::_List_val<std::_List_simple_types<std::pair<unsigned int const ,std::basic_string<char,std::char_traits<char>,std::allocator<char> > > > > >
PUBLIC	??1?$pair@$$CBIV?$basic_string@DU?$char_traits@D@std@@V?$allocator@D@2@@std@@@std@@QEAA@XZ ; std::pair<unsigned int const ,std::basic_string<char,std::char_traits<char>,std::allocator<char> > >::~pair<unsigned int const ,std::basic_string<char,std::char_traits<char>,std::allocator<char> > >
PUBLIC	??_G?$pair@$$CBIV?$basic_string@DU?$char_traits@D@std@@V?$allocator@D@2@@std@@@std@@QEAAPEAXI@Z ; std::pair<unsigned int const ,std::basic_string<char,std::char_traits<char>,std::allocator<char> > >::`scalar deleting destructor'
PUBLIC	??$emplace@AEAHAEAV?$basic_string@DU?$char_traits@D@std@@V?$allocator@D@2@@std@@@?$_Hash@V?$_Umap_traits@IV?$basic_string@DU?$char_traits@D@std@@V?$allocator@D@2@@std@@V?$_Uhash_compare@IU?$hash@I@std@@U?$equal_to@I@2@@2@V?$allocator@U?$pair@$$CBIV?$basic_string@DU?$char_traits@D@std@@V?$allocator@D@2@@std@@@std@@@2@$0A@@std@@@std@@QEAA?AU?$pair@V?$_List_iterator@V?$_List_val@U?$_List_simple_types@U?$pair@$$CBIV?$basic_string@DU?$char_traits@D@std@@V?$allocator@D@2@@std@@@std@@@std@@@std@@@std@@_N@1@AEAHAEAV?$basic_string@DU?$char_traits@D@std@@V?$allocator@D@2@@1@@Z ; std::_Hash<std::_Umap_traits<unsigned int,std::basic_string<char,std::char_traits<char>,std::allocator<char> >,std::_Uhash_compare<unsigned int,std::hash<unsigned int>,std::equal_to<unsigned int> >,std::allocator<std::pair<unsigned int const ,std::basic_string<char,std::char_traits<char>,std::allocator<char> > > >,0> >::emplace<int &,std::basic_string<char,std::char_traits<char>,std::allocator<char> > &>
PUBLIC	??$Cast@VUStruct@SDK@Core@IronMan@@@UObject@SDK@Core@IronMan@@QEBA?AVUStruct@123@XZ ; IronMan::Core::SDK::UObject::Cast<IronMan::Core::SDK::UStruct>
PUBLIC	??$find@X@?$_Hash@V?$_Umap_traits@_KV?$basic_string@DU?$char_traits@D@std@@V?$allocator@D@2@@std@@V?$_Uhash_compare@_KU?$hash@_K@std@@U?$equal_to@_K@2@@2@V?$allocator@U?$pair@$$CB_KV?$basic_string@DU?$char_traits@D@std@@V?$allocator@D@2@@std@@@std@@@2@$0A@@std@@@std@@QEAA?AV?$_List_iterator@V?$_List_val@U?$_List_simple_types@U?$pair@$$CB_KV?$basic_string@DU?$char_traits@D@std@@V?$allocator@D@2@@std@@@std@@@std@@@std@@@1@AEB_K@Z ; std::_Hash<std::_Umap_traits<unsigned __int64,std::basic_string<char,std::char_traits<char>,std::allocator<char> >,std::_Uhash_compare<unsigned __int64,std::hash<unsigned __int64>,std::equal_to<unsigned __int64> >,std::allocator<std::pair<unsigned __int64 const ,std::basic_string<char,std::char_traits<char>,std::allocator<char> > > >,0> >::find<void>
PUBLIC	??0?$_List_unchecked_const_iterator@V?$_List_val@U?$_List_simple_types@U?$pair@$$CB_KV?$basic_string@DU?$char_traits@D@std@@V?$allocator@D@2@@std@@@std@@@std@@@std@@U_Iterator_base0@2@@std@@QEAA@PEAU?$_List_node@U?$pair@$$CB_KV?$basic_string@DU?$char_traits@D@std@@V?$allocator@D@2@@std@@@std@@PEAX@1@PEBV?$_List_val@U?$_List_simple_types@U?$pair@$$CB_KV?$basic_string@DU?$char_traits@D@std@@V?$allocator@D@2@@std@@@std@@@std@@@1@@Z ; std::_List_unchecked_const_iterator<std::_List_val<std::_List_simple_types<std::pair<unsigned __int64 const ,std::basic_string<char,std::char_traits<char>,std::allocator<char> > > > >,std::_Iterator_base0>::_List_unchecked_const_iterator<std::_List_val<std::_List_simple_types<std::pair<unsigned __int64 const ,std::basic_string<char,std::char_traits<char>,std::allocator<char> > > > >,std::_Iterator_base0>
PUBLIC	??D?$_List_unchecked_const_iterator@V?$_List_val@U?$_List_simple_types@U?$pair@$$CB_KV?$basic_string@DU?$char_traits@D@std@@V?$allocator@D@2@@std@@@std@@@std@@@std@@U_Iterator_base0@2@@std@@QEBAAEBU?$pair@$$CB_KV?$basic_string@DU?$char_traits@D@std@@V?$allocator@D@2@@std@@@1@XZ ; std::_List_unchecked_const_iterator<std::_List_val<std::_List_simple_types<std::pair<unsigned __int64 const ,std::basic_string<char,std::char_traits<char>,std::allocator<char> > > > >,std::_Iterator_base0>::operator*
PUBLIC	??E?$_List_unchecked_const_iterator@V?$_List_val@U?$_List_simple_types@U?$pair@$$CB_KV?$basic_string@DU?$char_traits@D@std@@V?$allocator@D@2@@std@@@std@@@std@@@std@@U_Iterator_base0@2@@std@@QEAAAEAV01@XZ ; std::_List_unchecked_const_iterator<std::_List_val<std::_List_simple_types<std::pair<unsigned __int64 const ,std::basic_string<char,std::char_traits<char>,std::allocator<char> > > > >,std::_Iterator_base0>::operator++
PUBLIC	??F?$_List_unchecked_const_iterator@V?$_List_val@U?$_List_simple_types@U?$pair@$$CB_KV?$basic_string@DU?$char_traits@D@std@@V?$allocator@D@2@@std@@@std@@@std@@@std@@U_Iterator_base0@2@@std@@QEAAAEAV01@XZ ; std::_List_unchecked_const_iterator<std::_List_val<std::_List_simple_types<std::pair<unsigned __int64 const ,std::basic_string<char,std::char_traits<char>,std::allocator<char> > > > >,std::_Iterator_base0>::operator--
PUBLIC	??8?$_List_unchecked_const_iterator@V?$_List_val@U?$_List_simple_types@U?$pair@$$CB_KV?$basic_string@DU?$char_traits@D@std@@V?$allocator@D@2@@std@@@std@@@std@@@std@@U_Iterator_base0@2@@std@@QEBA_NAEBV01@@Z ; std::_List_unchecked_const_iterator<std::_List_val<std::_List_simple_types<std::pair<unsigned __int64 const ,std::basic_string<char,std::char_traits<char>,std::allocator<char> > > > >,std::_Iterator_base0>::operator==
PUBLIC	??9?$_List_unchecked_const_iterator@V?$_List_val@U?$_List_simple_types@U?$pair@$$CB_KV?$basic_string@DU?$char_traits@D@std@@V?$allocator@D@2@@std@@@std@@@std@@@std@@U_Iterator_base0@2@@std@@QEBA_NAEBV01@@Z ; std::_List_unchecked_const_iterator<std::_List_val<std::_List_simple_types<std::pair<unsigned __int64 const ,std::basic_string<char,std::char_traits<char>,std::allocator<char> > > > >,std::_Iterator_base0>::operator!=
PUBLIC	??D?$_List_const_iterator@V?$_List_val@U?$_List_simple_types@U?$pair@$$CB_KV?$basic_string@DU?$char_traits@D@std@@V?$allocator@D@2@@std@@@std@@@std@@@std@@@std@@QEBAAEBU?$pair@$$CB_KV?$basic_string@DU?$char_traits@D@std@@V?$allocator@D@2@@std@@@1@XZ ; std::_List_const_iterator<std::_List_val<std::_List_simple_types<std::pair<unsigned __int64 const ,std::basic_string<char,std::char_traits<char>,std::allocator<char> > > > > >::operator*
PUBLIC	??8?$_List_const_iterator@V?$_List_val@U?$_List_simple_types@U?$pair@$$CB_KV?$basic_string@DU?$char_traits@D@std@@V?$allocator@D@2@@std@@@std@@@std@@@std@@@std@@QEBA_NAEBV01@@Z ; std::_List_const_iterator<std::_List_val<std::_List_simple_types<std::pair<unsigned __int64 const ,std::basic_string<char,std::char_traits<char>,std::allocator<char> > > > > >::operator==
PUBLIC	??0?$_List_const_iterator@V?$_List_val@U?$_List_simple_types@U?$pair@$$CB_KV?$basic_string@DU?$char_traits@D@std@@V?$allocator@D@2@@std@@@std@@@std@@@std@@@std@@QEAA@PEAU?$_List_node@U?$pair@$$CB_KV?$basic_string@DU?$char_traits@D@std@@V?$allocator@D@2@@std@@@std@@PEAX@1@PEBV?$_List_val@U?$_List_simple_types@U?$pair@$$CB_KV?$basic_string@DU?$char_traits@D@std@@V?$allocator@D@2@@std@@@std@@@std@@@1@@Z ; std::_List_const_iterator<std::_List_val<std::_List_simple_types<std::pair<unsigned __int64 const ,std::basic_string<char,std::char_traits<char>,std::allocator<char> > > > > >::_List_const_iterator<std::_List_val<std::_List_simple_types<std::pair<unsigned __int64 const ,std::basic_string<char,std::char_traits<char>,std::allocator<char> > > > > >
PUBLIC	??D?$_List_iterator@V?$_List_val@U?$_List_simple_types@U?$pair@$$CB_KV?$basic_string@DU?$char_traits@D@std@@V?$allocator@D@2@@std@@@std@@@std@@@std@@@std@@QEBAAEAU?$pair@$$CB_KV?$basic_string@DU?$char_traits@D@std@@V?$allocator@D@2@@std@@@1@XZ ; std::_List_iterator<std::_List_val<std::_List_simple_types<std::pair<unsigned __int64 const ,std::basic_string<char,std::char_traits<char>,std::allocator<char> > > > > >::operator*
PUBLIC	??C?$_List_iterator@V?$_List_val@U?$_List_simple_types@U?$pair@$$CB_KV?$basic_string@DU?$char_traits@D@std@@V?$allocator@D@2@@std@@@std@@@std@@@std@@@std@@QEBAPEAU?$pair@$$CB_KV?$basic_string@DU?$char_traits@D@std@@V?$allocator@D@2@@std@@@1@XZ ; std::_List_iterator<std::_List_val<std::_List_simple_types<std::pair<unsigned __int64 const ,std::basic_string<char,std::char_traits<char>,std::allocator<char> > > > > >::operator->
PUBLIC	??0?$_List_iterator@V?$_List_val@U?$_List_simple_types@U?$pair@$$CB_KV?$basic_string@DU?$char_traits@D@std@@V?$allocator@D@2@@std@@@std@@@std@@@std@@@std@@QEAA@PEAU?$_List_node@U?$pair@$$CB_KV?$basic_string@DU?$char_traits@D@std@@V?$allocator@D@2@@std@@@std@@PEAX@1@PEBV?$_List_val@U?$_List_simple_types@U?$pair@$$CB_KV?$basic_string@DU?$char_traits@D@std@@V?$allocator@D@2@@std@@@std@@@std@@@1@@Z ; std::_List_iterator<std::_List_val<std::_List_simple_types<std::pair<unsigned __int64 const ,std::basic_string<char,std::char_traits<char>,std::allocator<char> > > > > >::_List_iterator<std::_List_val<std::_List_simple_types<std::pair<unsigned __int64 const ,std::basic_string<char,std::char_traits<char>,std::allocator<char> > > > > >
PUBLIC	??1?$pair@$$CB_KV?$basic_string@DU?$char_traits@D@std@@V?$allocator@D@2@@std@@@std@@QEAA@XZ ; std::pair<unsigned __int64 const ,std::basic_string<char,std::char_traits<char>,std::allocator<char> > >::~pair<unsigned __int64 const ,std::basic_string<char,std::char_traits<char>,std::allocator<char> > >
PUBLIC	??_G?$pair@$$CB_KV?$basic_string@DU?$char_traits@D@std@@V?$allocator@D@2@@std@@@std@@QEAAPEAXI@Z ; std::pair<unsigned __int64 const ,std::basic_string<char,std::char_traits<char>,std::allocator<char> > >::`scalar deleting destructor'
PUBLIC	??$emplace@_KAEAV?$basic_string@DU?$char_traits@D@std@@V?$allocator@D@2@@std@@@?$_Hash@V?$_Umap_traits@_KV?$basic_string@DU?$char_traits@D@std@@V?$allocator@D@2@@std@@V?$_Uhash_compare@_KU?$hash@_K@std@@U?$equal_to@_K@2@@2@V?$allocator@U?$pair@$$CB_KV?$basic_string@DU?$char_traits@D@std@@V?$allocator@D@2@@std@@@std@@@2@$0A@@std@@@std@@QEAA?AU?$pair@V?$_List_iterator@V?$_List_val@U?$_List_simple_types@U?$pair@$$CB_KV?$basic_string@DU?$char_traits@D@std@@V?$allocator@D@2@@std@@@std@@@std@@@std@@@std@@_N@1@$$QEA_KAEAV?$basic_string@DU?$char_traits@D@std@@V?$allocator@D@2@@1@@Z ; std::_Hash<std::_Umap_traits<unsigned __int64,std::basic_string<char,std::char_traits<char>,std::allocator<char> >,std::_Uhash_compare<unsigned __int64,std::hash<unsigned __int64>,std::equal_to<unsigned __int64> >,std::allocator<std::pair<unsigned __int64 const ,std::basic_string<char,std::char_traits<char>,std::allocator<char> > > >,0> >::emplace<unsigned __int64,std::basic_string<char,std::char_traits<char>,std::allocator<char> > &>
PUBLIC	??$IsA@VATslCharacter@SDK@Core@IronMan@@@UObject@SDK@Core@IronMan@@QEAA_NXZ ; IronMan::Core::SDK::UObject::IsA<IronMan::Core::SDK::ATslCharacter>
PUBLIC	??$IsA@VATslWheeledVehicle@SDK@Core@IronMan@@@UObject@SDK@Core@IronMan@@QEAA_NXZ ; IronMan::Core::SDK::UObject::IsA<IronMan::Core::SDK::ATslWheeledVehicle>
PUBLIC	??$IsA@VATslFloatingVehicle@SDK@Core@IronMan@@@UObject@SDK@Core@IronMan@@QEAA_NXZ ; IronMan::Core::SDK::UObject::IsA<IronMan::Core::SDK::ATslFloatingVehicle>
PUBLIC	??$IsA@VADroppedItemGroup@SDK@Core@IronMan@@@UObject@SDK@Core@IronMan@@QEAA_NXZ ; IronMan::Core::SDK::UObject::IsA<IronMan::Core::SDK::ADroppedItemGroup>
PUBLIC	??$IsA@VADroppedItem@SDK@Core@IronMan@@@UObject@SDK@Core@IronMan@@QEAA_NXZ ; IronMan::Core::SDK::UObject::IsA<IronMan::Core::SDK::ADroppedItem>
PUBLIC	??$IsA@VAFloorSnapItemPackage@SDK@Core@IronMan@@@UObject@SDK@Core@IronMan@@QEAA_NXZ ; IronMan::Core::SDK::UObject::IsA<IronMan::Core::SDK::AFloorSnapItemPackage>
PUBLIC	??$IsA@VACarePackageItem@SDK@Core@IronMan@@@UObject@SDK@Core@IronMan@@QEAA_NXZ ; IronMan::Core::SDK::UObject::IsA<IronMan::Core::SDK::ACarePackageItem>
PUBLIC	??$IsA@VATslProjectile@SDK@Core@IronMan@@@UObject@SDK@Core@IronMan@@QEAA_NXZ ; IronMan::Core::SDK::UObject::IsA<IronMan::Core::SDK::ATslProjectile>
PUBLIC	??$IsA@VUDroppedItemInteractionComponent@SDK@Core@IronMan@@@UObject@SDK@Core@IronMan@@QEAA_NXZ ; IronMan::Core::SDK::UObject::IsA<IronMan::Core::SDK::UDroppedItemInteractionComponent>
PUBLIC	??$FindClass@$0?DMEFBHGBNHOJJJDB@@ObjectsStore@SDK@Core@IronMan@@QEBA?AVUClass@123@XZ ; IronMan::Core::SDK::ObjectsStore::FindClass<-4342903124670388529>
PUBLIC	??$FindClass@$0CNAHHPDHEJPJGCNA@@ObjectsStore@SDK@Core@IronMan@@QEBA?AVUClass@123@XZ ; IronMan::Core::SDK::ObjectsStore::FindClass<3244701931984741072>
PUBLIC	?pointer_to@?$pointer_traits@PEAU?$pair@$$CB_KV?$basic_string@DU?$char_traits@D@std@@V?$allocator@D@2@@std@@@std@@@std@@SAPEAU?$pair@$$CB_KV?$basic_string@DU?$char_traits@D@std@@V?$allocator@D@2@@std@@@2@AEAU32@@Z ; std::pointer_traits<std::pair<unsigned __int64 const ,std::basic_string<char,std::char_traits<char>,std::allocator<char> > > *>::pointer_to
PUBLIC	?pointer_to@?$pointer_traits@PEAU?$pair@$$CBIV?$basic_string@DU?$char_traits@D@std@@V?$allocator@D@2@@std@@@std@@@std@@SAPEAU?$pair@$$CBIV?$basic_string@DU?$char_traits@D@std@@V?$allocator@D@2@@std@@@2@AEAU32@@Z ; std::pointer_traits<std::pair<unsigned int const ,std::basic_string<char,std::char_traits<char>,std::allocator<char> > > *>::pointer_to
PUBLIC	?_Get_max_bucket_size@?$_Uhash_compare@W4DecryptFunc@SDK@Core@IronMan@@U?$hash@W4DecryptFunc@SDK@Core@IronMan@@@std@@U?$equal_to@W4DecryptFunc@SDK@Core@IronMan@@@6@@std@@QEBAAEBMXZ ; std::_Uhash_compare<enum IronMan::Core::SDK::DecryptFunc,std::hash<enum IronMan::Core::SDK::DecryptFunc>,std::equal_to<enum IronMan::Core::SDK::DecryptFunc> >::_Get_max_bucket_size
PUBLIC	??R?$equal_to@W4DecryptFunc@SDK@Core@IronMan@@@std@@QEBA_NAEBW4DecryptFunc@SDK@Core@IronMan@@0@Z ; std::equal_to<enum IronMan::Core::SDK::DecryptFunc>::operator()
PUBLIC	??R?$_Conditionally_enabled_hash@W4DecryptFunc@SDK@Core@IronMan@@$00@std@@QEBA_KAEBW4DecryptFunc@SDK@Core@IronMan@@@Z ; std::_Conditionally_enabled_hash<enum IronMan::Core::SDK::DecryptFunc,1>::operator()
PUBLIC	?_Do_hash@?$hash@W4DecryptFunc@SDK@Core@IronMan@@@std@@SA_KAEBW4DecryptFunc@SDK@Core@IronMan@@@Z ; std::hash<enum IronMan::Core::SDK::DecryptFunc>::_Do_hash
PUBLIC	?_Get_first@?$_Compressed_pair@U?$equal_to@W4DecryptFunc@SDK@Core@IronMan@@@std@@M$00@std@@QEBAAEBU?$equal_to@W4DecryptFunc@SDK@Core@IronMan@@@2@XZ ; std::_Compressed_pair<std::equal_to<enum IronMan::Core::SDK::DecryptFunc>,float,1>::_Get_first
PUBLIC	?_Get_first@?$_Compressed_pair@U?$hash@W4DecryptFunc@SDK@Core@IronMan@@@std@@V?$_Compressed_pair@U?$equal_to@W4DecryptFunc@SDK@Core@IronMan@@@std@@M$00@2@$00@std@@QEBAAEBU?$hash@W4DecryptFunc@SDK@Core@IronMan@@@2@XZ ; std::_Compressed_pair<std::hash<enum IronMan::Core::SDK::DecryptFunc>,std::_Compressed_pair<std::equal_to<enum IronMan::Core::SDK::DecryptFunc>,float,1>,1>::_Get_first
PUBLIC	?deallocate@?$allocator@U?$_List_node@U?$pair@$$CBW4DecryptFunc@SDK@Core@IronMan@@V?$unique_ptr@VUEDecryptBuilder@SDK@Core@IronMan@@U?$default_delete@VUEDecryptBuilder@SDK@Core@IronMan@@@std@@@std@@@std@@PEAX@std@@@std@@QEAAXQEAU?$_List_node@U?$pair@$$CBW4DecryptFunc@SDK@Core@IronMan@@V?$unique_ptr@VUEDecryptBuilder@SDK@Core@IronMan@@U?$default_delete@VUEDecryptBuilder@SDK@Core@IronMan@@@std@@@std@@@std@@PEAX@2@_K@Z ; std::allocator<std::_List_node<std::pair<enum IronMan::Core::SDK::DecryptFunc const ,std::unique_ptr<IronMan::Core::SDK::UEDecryptBuilder,std::default_delete<IronMan::Core::SDK::UEDecryptBuilder> > >,void *> >::deallocate
PUBLIC	?allocate@?$allocator@U?$_List_node@U?$pair@$$CBW4DecryptFunc@SDK@Core@IronMan@@V?$unique_ptr@VUEDecryptBuilder@SDK@Core@IronMan@@U?$default_delete@VUEDecryptBuilder@SDK@Core@IronMan@@@std@@@std@@@std@@PEAX@std@@@std@@QEAAPEAU?$_List_node@U?$pair@$$CBW4DecryptFunc@SDK@Core@IronMan@@V?$unique_ptr@VUEDecryptBuilder@SDK@Core@IronMan@@U?$default_delete@VUEDecryptBuilder@SDK@Core@IronMan@@@std@@@std@@@std@@PEAX@2@_K@Z ; std::allocator<std::_List_node<std::pair<enum IronMan::Core::SDK::DecryptFunc const ,std::unique_ptr<IronMan::Core::SDK::UEDecryptBuilder,std::default_delete<IronMan::Core::SDK::UEDecryptBuilder> > >,void *> >::allocate
PUBLIC	?deallocate@?$_Default_allocator_traits@V?$allocator@U?$_List_node@U?$pair@$$CBW4DecryptFunc@SDK@Core@IronMan@@V?$unique_ptr@VUEDecryptBuilder@SDK@Core@IronMan@@U?$default_delete@VUEDecryptBuilder@SDK@Core@IronMan@@@std@@@std@@@std@@PEAX@std@@@std@@@std@@SAXAEAV?$allocator@U?$_List_node@U?$pair@$$CBW4DecryptFunc@SDK@Core@IronMan@@V?$unique_ptr@VUEDecryptBuilder@SDK@Core@IronMan@@U?$default_delete@VUEDecryptBuilder@SDK@Core@IronMan@@@std@@@std@@@std@@PEAX@std@@@2@QEAU?$_List_node@U?$pair@$$CBW4DecryptFunc@SDK@Core@IronMan@@V?$unique_ptr@VUEDecryptBuilder@SDK@Core@IronMan@@U?$default_delete@VUEDecryptBuilder@SDK@Core@IronMan@@@std@@@std@@@std@@PEAX@2@_K@Z ; std::_Default_allocator_traits<std::allocator<std::_List_node<std::pair<enum IronMan::Core::SDK::DecryptFunc const ,std::unique_ptr<IronMan::Core::SDK::UEDecryptBuilder,std::default_delete<IronMan::Core::SDK::UEDecryptBuilder> > >,void *> > >::deallocate
PUBLIC	?max_size@?$_Default_allocator_traits@V?$allocator@U?$_List_node@U?$pair@$$CBW4DecryptFunc@SDK@Core@IronMan@@V?$unique_ptr@VUEDecryptBuilder@SDK@Core@IronMan@@U?$default_delete@VUEDecryptBuilder@SDK@Core@IronMan@@@std@@@std@@@std@@PEAX@std@@@std@@@std@@SA_KAEBV?$allocator@U?$_List_node@U?$pair@$$CBW4DecryptFunc@SDK@Core@IronMan@@V?$unique_ptr@VUEDecryptBuilder@SDK@Core@IronMan@@U?$default_delete@VUEDecryptBuilder@SDK@Core@IronMan@@@std@@@std@@@std@@PEAX@std@@@2@@Z ; std::_Default_allocator_traits<std::allocator<std::_List_node<std::pair<enum IronMan::Core::SDK::DecryptFunc const ,std::unique_ptr<IronMan::Core::SDK::UEDecryptBuilder,std::default_delete<IronMan::Core::SDK::UEDecryptBuilder> > >,void *> > >::max_size
PUBLIC	?_Unchecked_begin@?$list@U?$pair@$$CBW4DecryptFunc@SDK@Core@IronMan@@V?$unique_ptr@VUEDecryptBuilder@SDK@Core@IronMan@@U?$default_delete@VUEDecryptBuilder@SDK@Core@IronMan@@@std@@@std@@@std@@V?$allocator@U?$pair@$$CBW4DecryptFunc@SDK@Core@IronMan@@V?$unique_ptr@VUEDecryptBuilder@SDK@Core@IronMan@@U?$default_delete@VUEDecryptBuilder@SDK@Core@IronMan@@@std@@@std@@@std@@@2@@std@@QEAA?AV?$_List_unchecked_iterator@V?$_List_val@U?$_List_simple_types@U?$pair@$$CBW4DecryptFunc@SDK@Core@IronMan@@V?$unique_ptr@VUEDecryptBuilder@SDK@Core@IronMan@@U?$default_delete@VUEDecryptBuilder@SDK@Core@IronMan@@@std@@@std@@@std@@@std@@@std@@@2@XZ ; std::list<std::pair<enum IronMan::Core::SDK::DecryptFunc const ,std::unique_ptr<IronMan::Core::SDK::UEDecryptBuilder,std::default_delete<IronMan::Core::SDK::UEDecryptBuilder> > >,std::allocator<std::pair<enum IronMan::Core::SDK::DecryptFunc const ,std::unique_ptr<IronMan::Core::SDK::UEDecryptBuilder,std::default_delete<IronMan::Core::SDK::UEDecryptBuilder> > > > >::_Unchecked_begin
PUBLIC	?_Unchecked_end@?$list@U?$pair@$$CBW4DecryptFunc@SDK@Core@IronMan@@V?$unique_ptr@VUEDecryptBuilder@SDK@Core@IronMan@@U?$default_delete@VUEDecryptBuilder@SDK@Core@IronMan@@@std@@@std@@@std@@V?$allocator@U?$pair@$$CBW4DecryptFunc@SDK@Core@IronMan@@V?$unique_ptr@VUEDecryptBuilder@SDK@Core@IronMan@@U?$default_delete@VUEDecryptBuilder@SDK@Core@IronMan@@@std@@@std@@@std@@@2@@std@@QEAA?AV?$_List_unchecked_iterator@V?$_List_val@U?$_List_simple_types@U?$pair@$$CBW4DecryptFunc@SDK@Core@IronMan@@V?$unique_ptr@VUEDecryptBuilder@SDK@Core@IronMan@@U?$default_delete@VUEDecryptBuilder@SDK@Core@IronMan@@@std@@@std@@@std@@@std@@@std@@@2@XZ ; std::list<std::pair<enum IronMan::Core::SDK::DecryptFunc const ,std::unique_ptr<IronMan::Core::SDK::UEDecryptBuilder,std::default_delete<IronMan::Core::SDK::UEDecryptBuilder> > >,std::allocator<std::pair<enum IronMan::Core::SDK::DecryptFunc const ,std::unique_ptr<IronMan::Core::SDK::UEDecryptBuilder,std::default_delete<IronMan::Core::SDK::UEDecryptBuilder> > > > >::_Unchecked_end
PUBLIC	?max_size@?$list@U?$pair@$$CBW4DecryptFunc@SDK@Core@IronMan@@V?$unique_ptr@VUEDecryptBuilder@SDK@Core@IronMan@@U?$default_delete@VUEDecryptBuilder@SDK@Core@IronMan@@@std@@@std@@@std@@V?$allocator@U?$pair@$$CBW4DecryptFunc@SDK@Core@IronMan@@V?$unique_ptr@VUEDecryptBuilder@SDK@Core@IronMan@@U?$default_delete@VUEDecryptBuilder@SDK@Core@IronMan@@@std@@@std@@@std@@@2@@std@@QEBA_KXZ ; std::list<std::pair<enum IronMan::Core::SDK::DecryptFunc const ,std::unique_ptr<IronMan::Core::SDK::UEDecryptBuilder,std::default_delete<IronMan::Core::SDK::UEDecryptBuilder> > >,std::allocator<std::pair<enum IronMan::Core::SDK::DecryptFunc const ,std::unique_ptr<IronMan::Core::SDK::UEDecryptBuilder,std::default_delete<IronMan::Core::SDK::UEDecryptBuilder> > > > >::max_size
PUBLIC	?clear@?$list@U?$pair@$$CBW4DecryptFunc@SDK@Core@IronMan@@V?$unique_ptr@VUEDecryptBuilder@SDK@Core@IronMan@@U?$default_delete@VUEDecryptBuilder@SDK@Core@IronMan@@@std@@@std@@@std@@V?$allocator@U?$pair@$$CBW4DecryptFunc@SDK@Core@IronMan@@V?$unique_ptr@VUEDecryptBuilder@SDK@Core@IronMan@@U?$default_delete@VUEDecryptBuilder@SDK@Core@IronMan@@@std@@@std@@@std@@@2@@std@@QEAAXXZ ; std::list<std::pair<enum IronMan::Core::SDK::DecryptFunc const ,std::unique_ptr<IronMan::Core::SDK::UEDecryptBuilder,std::default_delete<IronMan::Core::SDK::UEDecryptBuilder> > >,std::allocator<std::pair<enum IronMan::Core::SDK::DecryptFunc const ,std::unique_ptr<IronMan::Core::SDK::UEDecryptBuilder,std::default_delete<IronMan::Core::SDK::UEDecryptBuilder> > > > >::clear
PUBLIC	?_Getal@?$list@U?$pair@$$CBW4DecryptFunc@SDK@Core@IronMan@@V?$unique_ptr@VUEDecryptBuilder@SDK@Core@IronMan@@U?$default_delete@VUEDecryptBuilder@SDK@Core@IronMan@@@std@@@std@@@std@@V?$allocator@U?$pair@$$CBW4DecryptFunc@SDK@Core@IronMan@@V?$unique_ptr@VUEDecryptBuilder@SDK@Core@IronMan@@U?$default_delete@VUEDecryptBuilder@SDK@Core@IronMan@@@std@@@std@@@std@@@2@@std@@AEAAAEAV?$allocator@U?$_List_node@U?$pair@$$CBW4DecryptFunc@SDK@Core@IronMan@@V?$unique_ptr@VUEDecryptBuilder@SDK@Core@IronMan@@U?$default_delete@VUEDecryptBuilder@SDK@Core@IronMan@@@std@@@std@@@std@@PEAX@std@@@2@XZ ; std::list<std::pair<enum IronMan::Core::SDK::DecryptFunc const ,std::unique_ptr<IronMan::Core::SDK::UEDecryptBuilder,std::default_delete<IronMan::Core::SDK::UEDecryptBuilder> > >,std::allocator<std::pair<enum IronMan::Core::SDK::DecryptFunc const ,std::unique_ptr<IronMan::Core::SDK::UEDecryptBuilder,std::default_delete<IronMan::Core::SDK::UEDecryptBuilder> > > > >::_Getal
PUBLIC	?_Getal@?$list@U?$pair@$$CBW4DecryptFunc@SDK@Core@IronMan@@V?$unique_ptr@VUEDecryptBuilder@SDK@Core@IronMan@@U?$default_delete@VUEDecryptBuilder@SDK@Core@IronMan@@@std@@@std@@@std@@V?$allocator@U?$pair@$$CBW4DecryptFunc@SDK@Core@IronMan@@V?$unique_ptr@VUEDecryptBuilder@SDK@Core@IronMan@@U?$default_delete@VUEDecryptBuilder@SDK@Core@IronMan@@@std@@@std@@@std@@@2@@std@@AEBAAEBV?$allocator@U?$_List_node@U?$pair@$$CBW4DecryptFunc@SDK@Core@IronMan@@V?$unique_ptr@VUEDecryptBuilder@SDK@Core@IronMan@@U?$default_delete@VUEDecryptBuilder@SDK@Core@IronMan@@@std@@@std@@@std@@PEAX@std@@@2@XZ ; std::list<std::pair<enum IronMan::Core::SDK::DecryptFunc const ,std::unique_ptr<IronMan::Core::SDK::UEDecryptBuilder,std::default_delete<IronMan::Core::SDK::UEDecryptBuilder> > >,std::allocator<std::pair<enum IronMan::Core::SDK::DecryptFunc const ,std::unique_ptr<IronMan::Core::SDK::UEDecryptBuilder,std::default_delete<IronMan::Core::SDK::UEDecryptBuilder> > > > >::_Getal
PUBLIC	?_Orphan_non_end@?$_List_val@U?$_List_simple_types@U?$pair@$$CBW4DecryptFunc@SDK@Core@IronMan@@V?$unique_ptr@VUEDecryptBuilder@SDK@Core@IronMan@@U?$default_delete@VUEDecryptBuilder@SDK@Core@IronMan@@@std@@@std@@@std@@@std@@@std@@QEAAXXZ ; std::_List_val<std::_List_simple_types<std::pair<enum IronMan::Core::SDK::DecryptFunc const ,std::unique_ptr<IronMan::Core::SDK::UEDecryptBuilder,std::default_delete<IronMan::Core::SDK::UEDecryptBuilder> > > > >::_Orphan_non_end
PUBLIC	?_Unchecked_splice@?$_List_val@U?$_List_simple_types@U?$pair@$$CBW4DecryptFunc@SDK@Core@IronMan@@V?$unique_ptr@VUEDecryptBuilder@SDK@Core@IronMan@@U?$default_delete@VUEDecryptBuilder@SDK@Core@IronMan@@@std@@@std@@@std@@@std@@@std@@SAPEAU?$_List_node@U?$pair@$$CBW4DecryptFunc@SDK@Core@IronMan@@V?$unique_ptr@VUEDecryptBuilder@SDK@Core@IronMan@@U?$default_delete@VUEDecryptBuilder@SDK@Core@IronMan@@@std@@@std@@@std@@PEAX@2@QEAU32@00@Z ; std::_List_val<std::_List_simple_types<std::pair<enum IronMan::Core::SDK::DecryptFunc const ,std::unique_ptr<IronMan::Core::SDK::UEDecryptBuilder,std::default_delete<IronMan::Core::SDK::UEDecryptBuilder> > > > >::_Unchecked_splice
PUBLIC	?_Get_first@?$_Compressed_pair@V?$allocator@U?$_List_node@U?$pair@$$CBW4DecryptFunc@SDK@Core@IronMan@@V?$unique_ptr@VUEDecryptBuilder@SDK@Core@IronMan@@U?$default_delete@VUEDecryptBuilder@SDK@Core@IronMan@@@std@@@std@@@std@@PEAX@std@@@std@@V?$_List_val@U?$_List_simple_types@U?$pair@$$CBW4DecryptFunc@SDK@Core@IronMan@@V?$unique_ptr@VUEDecryptBuilder@SDK@Core@IronMan@@U?$default_delete@VUEDecryptBuilder@SDK@Core@IronMan@@@std@@@std@@@std@@@std@@@2@$00@std@@QEAAAEAV?$allocator@U?$_List_node@U?$pair@$$CBW4DecryptFunc@SDK@Core@IronMan@@V?$unique_ptr@VUEDecryptBuilder@SDK@Core@IronMan@@U?$default_delete@VUEDecryptBuilder@SDK@Core@IronMan@@@std@@@std@@@std@@PEAX@std@@@2@XZ ; std::_Compressed_pair<std::allocator<std::_List_node<std::pair<enum IronMan::Core::SDK::DecryptFunc const ,std::unique_ptr<IronMan::Core::SDK::UEDecryptBuilder,std::default_delete<IronMan::Core::SDK::UEDecryptBuilder> > >,void *> >,std::_List_val<std::_List_simple_types<std::pair<enum IronMan::Core::SDK::DecryptFunc const ,std::unique_ptr<IronMan::Core::SDK::UEDecryptBuilder,std::default_delete<IronMan::Core::SDK::UEDecryptBuilder> > > > >,1>::_Get_first
PUBLIC	?_Get_first@?$_Compressed_pair@V?$allocator@U?$_List_node@U?$pair@$$CBW4DecryptFunc@SDK@Core@IronMan@@V?$unique_ptr@VUEDecryptBuilder@SDK@Core@IronMan@@U?$default_delete@VUEDecryptBuilder@SDK@Core@IronMan@@@std@@@std@@@std@@PEAX@std@@@std@@V?$_List_val@U?$_List_simple_types@U?$pair@$$CBW4DecryptFunc@SDK@Core@IronMan@@V?$unique_ptr@VUEDecryptBuilder@SDK@Core@IronMan@@U?$default_delete@VUEDecryptBuilder@SDK@Core@IronMan@@@std@@@std@@@std@@@std@@@2@$00@std@@QEBAAEBV?$allocator@U?$_List_node@U?$pair@$$CBW4DecryptFunc@SDK@Core@IronMan@@V?$unique_ptr@VUEDecryptBuilder@SDK@Core@IronMan@@U?$default_delete@VUEDecryptBuilder@SDK@Core@IronMan@@@std@@@std@@@std@@PEAX@std@@@2@XZ ; std::_Compressed_pair<std::allocator<std::_List_node<std::pair<enum IronMan::Core::SDK::DecryptFunc const ,std::unique_ptr<IronMan::Core::SDK::UEDecryptBuilder,std::default_delete<IronMan::Core::SDK::UEDecryptBuilder> > >,void *> >,std::_List_val<std::_List_simple_types<std::pair<enum IronMan::Core::SDK::DecryptFunc const ,std::unique_ptr<IronMan::Core::SDK::UEDecryptBuilder,std::default_delete<IronMan::Core::SDK::UEDecryptBuilder> > > > >,1>::_Get_first
PUBLIC	?_Unchecked_begin@?$_Hash@V?$_Umap_traits@W4DecryptFunc@SDK@Core@IronMan@@V?$unique_ptr@VUEDecryptBuilder@SDK@Core@IronMan@@U?$default_delete@VUEDecryptBuilder@SDK@Core@IronMan@@@std@@@std@@V?$_Uhash_compare@W4DecryptFunc@SDK@Core@IronMan@@U?$hash@W4DecryptFunc@SDK@Core@IronMan@@@std@@U?$equal_to@W4DecryptFunc@SDK@Core@IronMan@@@6@@6@V?$allocator@U?$pair@$$CBW4DecryptFunc@SDK@Core@IronMan@@V?$unique_ptr@VUEDecryptBuilder@SDK@Core@IronMan@@U?$default_delete@VUEDecryptBuilder@SDK@Core@IronMan@@@std@@@std@@@std@@@6@$0A@@std@@@std@@QEAA?AV?$_List_unchecked_iterator@V?$_List_val@U?$_List_simple_types@U?$pair@$$CBW4DecryptFunc@SDK@Core@IronMan@@V?$unique_ptr@VUEDecryptBuilder@SDK@Core@IronMan@@U?$default_delete@VUEDecryptBuilder@SDK@Core@IronMan@@@std@@@std@@@std@@@std@@@std@@@2@XZ ; std::_Hash<std::_Umap_traits<enum IronMan::Core::SDK::DecryptFunc,std::unique_ptr<IronMan::Core::SDK::UEDecryptBuilder,std::default_delete<IronMan::Core::SDK::UEDecryptBuilder> >,std::_Uhash_compare<enum IronMan::Core::SDK::DecryptFunc,std::hash<enum IronMan::Core::SDK::DecryptFunc>,std::equal_to<enum IronMan::Core::SDK::DecryptFunc> >,std::allocator<std::pair<enum IronMan::Core::SDK::DecryptFunc const ,std::unique_ptr<IronMan::Core::SDK::UEDecryptBuilder,std::default_delete<IronMan::Core::SDK::UEDecryptBuilder> > > >,0> >::_Unchecked_begin
PUBLIC	?_Unchecked_end@?$_Hash@V?$_Umap_traits@W4DecryptFunc@SDK@Core@IronMan@@V?$unique_ptr@VUEDecryptBuilder@SDK@Core@IronMan@@U?$default_delete@VUEDecryptBuilder@SDK@Core@IronMan@@@std@@@std@@V?$_Uhash_compare@W4DecryptFunc@SDK@Core@IronMan@@U?$hash@W4DecryptFunc@SDK@Core@IronMan@@@std@@U?$equal_to@W4DecryptFunc@SDK@Core@IronMan@@@6@@6@V?$allocator@U?$pair@$$CBW4DecryptFunc@SDK@Core@IronMan@@V?$unique_ptr@VUEDecryptBuilder@SDK@Core@IronMan@@U?$default_delete@VUEDecryptBuilder@SDK@Core@IronMan@@@std@@@std@@@std@@@6@$0A@@std@@@std@@QEAA?AV?$_List_unchecked_iterator@V?$_List_val@U?$_List_simple_types@U?$pair@$$CBW4DecryptFunc@SDK@Core@IronMan@@V?$unique_ptr@VUEDecryptBuilder@SDK@Core@IronMan@@U?$default_delete@VUEDecryptBuilder@SDK@Core@IronMan@@@std@@@std@@@std@@@std@@@std@@@2@XZ ; std::_Hash<std::_Umap_traits<enum IronMan::Core::SDK::DecryptFunc,std::unique_ptr<IronMan::Core::SDK::UEDecryptBuilder,std::default_delete<IronMan::Core::SDK::UEDecryptBuilder> >,std::_Uhash_compare<enum IronMan::Core::SDK::DecryptFunc,std::hash<enum IronMan::Core::SDK::DecryptFunc>,std::equal_to<enum IronMan::Core::SDK::DecryptFunc> >,std::allocator<std::pair<enum IronMan::Core::SDK::DecryptFunc const ,std::unique_ptr<IronMan::Core::SDK::UEDecryptBuilder,std::default_delete<IronMan::Core::SDK::UEDecryptBuilder> > > >,0> >::_Unchecked_end
PUBLIC	?bucket_count@?$_Hash@V?$_Umap_traits@W4DecryptFunc@SDK@Core@IronMan@@V?$unique_ptr@VUEDecryptBuilder@SDK@Core@IronMan@@U?$default_delete@VUEDecryptBuilder@SDK@Core@IronMan@@@std@@@std@@V?$_Uhash_compare@W4DecryptFunc@SDK@Core@IronMan@@U?$hash@W4DecryptFunc@SDK@Core@IronMan@@@std@@U?$equal_to@W4DecryptFunc@SDK@Core@IronMan@@@6@@6@V?$allocator@U?$pair@$$CBW4DecryptFunc@SDK@Core@IronMan@@V?$unique_ptr@VUEDecryptBuilder@SDK@Core@IronMan@@U?$default_delete@VUEDecryptBuilder@SDK@Core@IronMan@@@std@@@std@@@std@@@6@$0A@@std@@@std@@QEBA_KXZ ; std::_Hash<std::_Umap_traits<enum IronMan::Core::SDK::DecryptFunc,std::unique_ptr<IronMan::Core::SDK::UEDecryptBuilder,std::default_delete<IronMan::Core::SDK::UEDecryptBuilder> >,std::_Uhash_compare<enum IronMan::Core::SDK::DecryptFunc,std::hash<enum IronMan::Core::SDK::DecryptFunc>,std::equal_to<enum IronMan::Core::SDK::DecryptFunc> >,std::allocator<std::pair<enum IronMan::Core::SDK::DecryptFunc const ,std::unique_ptr<IronMan::Core::SDK::UEDecryptBuilder,std::default_delete<IronMan::Core::SDK::UEDecryptBuilder> > > >,0> >::bucket_count
PUBLIC	?bucket@?$_Hash@V?$_Umap_traits@W4DecryptFunc@SDK@Core@IronMan@@V?$unique_ptr@VUEDecryptBuilder@SDK@Core@IronMan@@U?$default_delete@VUEDecryptBuilder@SDK@Core@IronMan@@@std@@@std@@V?$_Uhash_compare@W4DecryptFunc@SDK@Core@IronMan@@U?$hash@W4DecryptFunc@SDK@Core@IronMan@@@std@@U?$equal_to@W4DecryptFunc@SDK@Core@IronMan@@@6@@6@V?$allocator@U?$pair@$$CBW4DecryptFunc@SDK@Core@IronMan@@V?$unique_ptr@VUEDecryptBuilder@SDK@Core@IronMan@@U?$default_delete@VUEDecryptBuilder@SDK@Core@IronMan@@@std@@@std@@@std@@@6@$0A@@std@@@std@@QEBA_KAEBW4DecryptFunc@SDK@Core@IronMan@@@Z ; std::_Hash<std::_Umap_traits<enum IronMan::Core::SDK::DecryptFunc,std::unique_ptr<IronMan::Core::SDK::UEDecryptBuilder,std::default_delete<IronMan::Core::SDK::UEDecryptBuilder> >,std::_Uhash_compare<enum IronMan::Core::SDK::DecryptFunc,std::hash<enum IronMan::Core::SDK::DecryptFunc>,std::equal_to<enum IronMan::Core::SDK::DecryptFunc> >,std::allocator<std::pair<enum IronMan::Core::SDK::DecryptFunc const ,std::unique_ptr<IronMan::Core::SDK::UEDecryptBuilder,std::default_delete<IronMan::Core::SDK::UEDecryptBuilder> > > >,0> >::bucket
PUBLIC	?max_load_factor@?$_Hash@V?$_Umap_traits@W4DecryptFunc@SDK@Core@IronMan@@V?$unique_ptr@VUEDecryptBuilder@SDK@Core@IronMan@@U?$default_delete@VUEDecryptBuilder@SDK@Core@IronMan@@@std@@@std@@V?$_Uhash_compare@W4DecryptFunc@SDK@Core@IronMan@@U?$hash@W4DecryptFunc@SDK@Core@IronMan@@@std@@U?$equal_to@W4DecryptFunc@SDK@Core@IronMan@@@6@@6@V?$allocator@U?$pair@$$CBW4DecryptFunc@SDK@Core@IronMan@@V?$unique_ptr@VUEDecryptBuilder@SDK@Core@IronMan@@U?$default_delete@VUEDecryptBuilder@SDK@Core@IronMan@@@std@@@std@@@std@@@6@$0A@@std@@@std@@QEBAMXZ ; std::_Hash<std::_Umap_traits<enum IronMan::Core::SDK::DecryptFunc,std::unique_ptr<IronMan::Core::SDK::UEDecryptBuilder,std::default_delete<IronMan::Core::SDK::UEDecryptBuilder> >,std::_Uhash_compare<enum IronMan::Core::SDK::DecryptFunc,std::hash<enum IronMan::Core::SDK::DecryptFunc>,std::equal_to<enum IronMan::Core::SDK::DecryptFunc> >,std::allocator<std::pair<enum IronMan::Core::SDK::DecryptFunc const ,std::unique_ptr<IronMan::Core::SDK::UEDecryptBuilder,std::default_delete<IronMan::Core::SDK::UEDecryptBuilder> > > >,0> >::max_load_factor
PUBLIC	?_Unchecked_erase@?$_Hash@V?$_Umap_traits@W4DecryptFunc@SDK@Core@IronMan@@V?$unique_ptr@VUEDecryptBuilder@SDK@Core@IronMan@@U?$default_delete@VUEDecryptBuilder@SDK@Core@IronMan@@@std@@@std@@V?$_Uhash_compare@W4DecryptFunc@SDK@Core@IronMan@@U?$hash@W4DecryptFunc@SDK@Core@IronMan@@@std@@U?$equal_to@W4DecryptFunc@SDK@Core@IronMan@@@6@@6@V?$allocator@U?$pair@$$CBW4DecryptFunc@SDK@Core@IronMan@@V?$unique_ptr@VUEDecryptBuilder@SDK@Core@IronMan@@U?$default_delete@VUEDecryptBuilder@SDK@Core@IronMan@@@std@@@std@@@std@@@6@$0A@@std@@@std@@AEAAPEAU?$_List_node@U?$pair@$$CBW4DecryptFunc@SDK@Core@IronMan@@V?$unique_ptr@VUEDecryptBuilder@SDK@Core@IronMan@@U?$default_delete@VUEDecryptBuilder@SDK@Core@IronMan@@@std@@@std@@@std@@PEAX@2@PEAU32@QEAU32@@Z ; std::_Hash<std::_Umap_traits<enum IronMan::Core::SDK::DecryptFunc,std::unique_ptr<IronMan::Core::SDK::UEDecryptBuilder,std::default_delete<IronMan::Core::SDK::UEDecryptBuilder> >,std::_Uhash_compare<enum IronMan::Core::SDK::DecryptFunc,std::hash<enum IronMan::Core::SDK::DecryptFunc>,std::equal_to<enum IronMan::Core::SDK::DecryptFunc> >,std::allocator<std::pair<enum IronMan::Core::SDK::DecryptFunc const ,std::unique_ptr<IronMan::Core::SDK::UEDecryptBuilder,std::default_delete<IronMan::Core::SDK::UEDecryptBuilder> > > >,0> >::_Unchecked_erase
PUBLIC	?clear@?$_Hash@V?$_Umap_traits@W4DecryptFunc@SDK@Core@IronMan@@V?$unique_ptr@VUEDecryptBuilder@SDK@Core@IronMan@@U?$default_delete@VUEDecryptBuilder@SDK@Core@IronMan@@@std@@@std@@V?$_Uhash_compare@W4DecryptFunc@SDK@Core@IronMan@@U?$hash@W4DecryptFunc@SDK@Core@IronMan@@@std@@U?$equal_to@W4DecryptFunc@SDK@Core@IronMan@@@6@@6@V?$allocator@U?$pair@$$CBW4DecryptFunc@SDK@Core@IronMan@@V?$unique_ptr@VUEDecryptBuilder@SDK@Core@IronMan@@U?$default_delete@VUEDecryptBuilder@SDK@Core@IronMan@@@std@@@std@@@std@@@6@$0A@@std@@@std@@QEAAXXZ ; std::_Hash<std::_Umap_traits<enum IronMan::Core::SDK::DecryptFunc,std::unique_ptr<IronMan::Core::SDK::UEDecryptBuilder,std::default_delete<IronMan::Core::SDK::UEDecryptBuilder> >,std::_Uhash_compare<enum IronMan::Core::SDK::DecryptFunc,std::hash<enum IronMan::Core::SDK::DecryptFunc>,std::equal_to<enum IronMan::Core::SDK::DecryptFunc> >,std::allocator<std::pair<enum IronMan::Core::SDK::DecryptFunc const ,std::unique_ptr<IronMan::Core::SDK::UEDecryptBuilder,std::default_delete<IronMan::Core::SDK::UEDecryptBuilder> > > >,0> >::clear
PUBLIC	?_Insert_new_node_before@?$_Hash@V?$_Umap_traits@W4DecryptFunc@SDK@Core@IronMan@@V?$unique_ptr@VUEDecryptBuilder@SDK@Core@IronMan@@U?$default_delete@VUEDecryptBuilder@SDK@Core@IronMan@@@std@@@std@@V?$_Uhash_compare@W4DecryptFunc@SDK@Core@IronMan@@U?$hash@W4DecryptFunc@SDK@Core@IronMan@@@std@@U?$equal_to@W4DecryptFunc@SDK@Core@IronMan@@@6@@6@V?$allocator@U?$pair@$$CBW4DecryptFunc@SDK@Core@IronMan@@V?$unique_ptr@VUEDecryptBuilder@SDK@Core@IronMan@@U?$default_delete@VUEDecryptBuilder@SDK@Core@IronMan@@@std@@@std@@@std@@@6@$0A@@std@@@std@@IEAAPEAU?$_List_node@U?$pair@$$CBW4DecryptFunc@SDK@Core@IronMan@@V?$unique_ptr@VUEDecryptBuilder@SDK@Core@IronMan@@U?$default_delete@VUEDecryptBuilder@SDK@Core@IronMan@@@std@@@std@@@std@@PEAX@2@_KQEAU32@1@Z ; std::_Hash<std::_Umap_traits<enum IronMan::Core::SDK::DecryptFunc,std::unique_ptr<IronMan::Core::SDK::UEDecryptBuilder,std::default_delete<IronMan::Core::SDK::UEDecryptBuilder> >,std::_Uhash_compare<enum IronMan::Core::SDK::DecryptFunc,std::hash<enum IronMan::Core::SDK::DecryptFunc>,std::equal_to<enum IronMan::Core::SDK::DecryptFunc> >,std::allocator<std::pair<enum IronMan::Core::SDK::DecryptFunc const ,std::unique_ptr<IronMan::Core::SDK::UEDecryptBuilder,std::default_delete<IronMan::Core::SDK::UEDecryptBuilder> > > >,0> >::_Insert_new_node_before
PUBLIC	?_Check_max_size@?$_Hash@V?$_Umap_traits@W4DecryptFunc@SDK@Core@IronMan@@V?$unique_ptr@VUEDecryptBuilder@SDK@Core@IronMan@@U?$default_delete@VUEDecryptBuilder@SDK@Core@IronMan@@@std@@@std@@V?$_Uhash_compare@W4DecryptFunc@SDK@Core@IronMan@@U?$hash@W4DecryptFunc@SDK@Core@IronMan@@@std@@U?$equal_to@W4DecryptFunc@SDK@Core@IronMan@@@6@@6@V?$allocator@U?$pair@$$CBW4DecryptFunc@SDK@Core@IronMan@@V?$unique_ptr@VUEDecryptBuilder@SDK@Core@IronMan@@U?$default_delete@VUEDecryptBuilder@SDK@Core@IronMan@@@std@@@std@@@std@@@6@$0A@@std@@@std@@IEBAXXZ ; std::_Hash<std::_Umap_traits<enum IronMan::Core::SDK::DecryptFunc,std::unique_ptr<IronMan::Core::SDK::UEDecryptBuilder,std::default_delete<IronMan::Core::SDK::UEDecryptBuilder> >,std::_Uhash_compare<enum IronMan::Core::SDK::DecryptFunc,std::hash<enum IronMan::Core::SDK::DecryptFunc>,std::equal_to<enum IronMan::Core::SDK::DecryptFunc> >,std::allocator<std::pair<enum IronMan::Core::SDK::DecryptFunc const ,std::unique_ptr<IronMan::Core::SDK::UEDecryptBuilder,std::default_delete<IronMan::Core::SDK::UEDecryptBuilder> > > >,0> >::_Check_max_size
PUBLIC	?_Check_rehash_required_1@?$_Hash@V?$_Umap_traits@W4DecryptFunc@SDK@Core@IronMan@@V?$unique_ptr@VUEDecryptBuilder@SDK@Core@IronMan@@U?$default_delete@VUEDecryptBuilder@SDK@Core@IronMan@@@std@@@std@@V?$_Uhash_compare@W4DecryptFunc@SDK@Core@IronMan@@U?$hash@W4DecryptFunc@SDK@Core@IronMan@@@std@@U?$equal_to@W4DecryptFunc@SDK@Core@IronMan@@@6@@6@V?$allocator@U?$pair@$$CBW4DecryptFunc@SDK@Core@IronMan@@V?$unique_ptr@VUEDecryptBuilder@SDK@Core@IronMan@@U?$default_delete@VUEDecryptBuilder@SDK@Core@IronMan@@@std@@@std@@@std@@@6@$0A@@std@@@std@@IEBA_NXZ ; std::_Hash<std::_Umap_traits<enum IronMan::Core::SDK::DecryptFunc,std::unique_ptr<IronMan::Core::SDK::UEDecryptBuilder,std::default_delete<IronMan::Core::SDK::UEDecryptBuilder> >,std::_Uhash_compare<enum IronMan::Core::SDK::DecryptFunc,std::hash<enum IronMan::Core::SDK::DecryptFunc>,std::equal_to<enum IronMan::Core::SDK::DecryptFunc> >,std::allocator<std::pair<enum IronMan::Core::SDK::DecryptFunc const ,std::unique_ptr<IronMan::Core::SDK::UEDecryptBuilder,std::default_delete<IronMan::Core::SDK::UEDecryptBuilder> > > >,0> >::_Check_rehash_required_1
PUBLIC	?_Rehash_for_1@?$_Hash@V?$_Umap_traits@W4DecryptFunc@SDK@Core@IronMan@@V?$unique_ptr@VUEDecryptBuilder@SDK@Core@IronMan@@U?$default_delete@VUEDecryptBuilder@SDK@Core@IronMan@@@std@@@std@@V?$_Uhash_compare@W4DecryptFunc@SDK@Core@IronMan@@U?$hash@W4DecryptFunc@SDK@Core@IronMan@@@std@@U?$equal_to@W4DecryptFunc@SDK@Core@IronMan@@@6@@6@V?$allocator@U?$pair@$$CBW4DecryptFunc@SDK@Core@IronMan@@V?$unique_ptr@VUEDecryptBuilder@SDK@Core@IronMan@@U?$default_delete@VUEDecryptBuilder@SDK@Core@IronMan@@@std@@@std@@@std@@@6@$0A@@std@@@std@@IEAAXXZ ; std::_Hash<std::_Umap_traits<enum IronMan::Core::SDK::DecryptFunc,std::unique_ptr<IronMan::Core::SDK::UEDecryptBuilder,std::default_delete<IronMan::Core::SDK::UEDecryptBuilder> >,std::_Uhash_compare<enum IronMan::Core::SDK::DecryptFunc,std::hash<enum IronMan::Core::SDK::DecryptFunc>,std::equal_to<enum IronMan::Core::SDK::DecryptFunc> >,std::allocator<std::pair<enum IronMan::Core::SDK::DecryptFunc const ,std::unique_ptr<IronMan::Core::SDK::UEDecryptBuilder,std::default_delete<IronMan::Core::SDK::UEDecryptBuilder> > > >,0> >::_Rehash_for_1
PUBLIC	?_Min_load_factor_buckets@?$_Hash@V?$_Umap_traits@W4DecryptFunc@SDK@Core@IronMan@@V?$unique_ptr@VUEDecryptBuilder@SDK@Core@IronMan@@U?$default_delete@VUEDecryptBuilder@SDK@Core@IronMan@@@std@@@std@@V?$_Uhash_compare@W4DecryptFunc@SDK@Core@IronMan@@U?$hash@W4DecryptFunc@SDK@Core@IronMan@@@std@@U?$equal_to@W4DecryptFunc@SDK@Core@IronMan@@@6@@6@V?$allocator@U?$pair@$$CBW4DecryptFunc@SDK@Core@IronMan@@V?$unique_ptr@VUEDecryptBuilder@SDK@Core@IronMan@@U?$default_delete@VUEDecryptBuilder@SDK@Core@IronMan@@@std@@@std@@@std@@@6@$0A@@std@@@std@@IEBA_K_K@Z ; std::_Hash<std::_Umap_traits<enum IronMan::Core::SDK::DecryptFunc,std::unique_ptr<IronMan::Core::SDK::UEDecryptBuilder,std::default_delete<IronMan::Core::SDK::UEDecryptBuilder> >,std::_Uhash_compare<enum IronMan::Core::SDK::DecryptFunc,std::hash<enum IronMan::Core::SDK::DecryptFunc>,std::equal_to<enum IronMan::Core::SDK::DecryptFunc> >,std::allocator<std::pair<enum IronMan::Core::SDK::DecryptFunc const ,std::unique_ptr<IronMan::Core::SDK::UEDecryptBuilder,std::default_delete<IronMan::Core::SDK::UEDecryptBuilder> > > >,0> >::_Min_load_factor_buckets
PUBLIC	?_Desired_grow_bucket_count@?$_Hash@V?$_Umap_traits@W4DecryptFunc@SDK@Core@IronMan@@V?$unique_ptr@VUEDecryptBuilder@SDK@Core@IronMan@@U?$default_delete@VUEDecryptBuilder@SDK@Core@IronMan@@@std@@@std@@V?$_Uhash_compare@W4DecryptFunc@SDK@Core@IronMan@@U?$hash@W4DecryptFunc@SDK@Core@IronMan@@@std@@U?$equal_to@W4DecryptFunc@SDK@Core@IronMan@@@6@@6@V?$allocator@U?$pair@$$CBW4DecryptFunc@SDK@Core@IronMan@@V?$unique_ptr@VUEDecryptBuilder@SDK@Core@IronMan@@U?$default_delete@VUEDecryptBuilder@SDK@Core@IronMan@@@std@@@std@@@std@@@6@$0A@@std@@@std@@IEBA_K_K@Z ; std::_Hash<std::_Umap_traits<enum IronMan::Core::SDK::DecryptFunc,std::unique_ptr<IronMan::Core::SDK::UEDecryptBuilder,std::default_delete<IronMan::Core::SDK::UEDecryptBuilder> >,std::_Uhash_compare<enum IronMan::Core::SDK::DecryptFunc,std::hash<enum IronMan::Core::SDK::DecryptFunc>,std::equal_to<enum IronMan::Core::SDK::DecryptFunc> >,std::allocator<std::pair<enum IronMan::Core::SDK::DecryptFunc const ,std::unique_ptr<IronMan::Core::SDK::UEDecryptBuilder,std::default_delete<IronMan::Core::SDK::UEDecryptBuilder> > > >,0> >::_Desired_grow_bucket_count
PUBLIC	?_Forced_rehash@?$_Hash@V?$_Umap_traits@W4DecryptFunc@SDK@Core@IronMan@@V?$unique_ptr@VUEDecryptBuilder@SDK@Core@IronMan@@U?$default_delete@VUEDecryptBuilder@SDK@Core@IronMan@@@std@@@std@@V?$_Uhash_compare@W4DecryptFunc@SDK@Core@IronMan@@U?$hash@W4DecryptFunc@SDK@Core@IronMan@@@std@@U?$equal_to@W4DecryptFunc@SDK@Core@IronMan@@@6@@6@V?$allocator@U?$pair@$$CBW4DecryptFunc@SDK@Core@IronMan@@V?$unique_ptr@VUEDecryptBuilder@SDK@Core@IronMan@@U?$default_delete@VUEDecryptBuilder@SDK@Core@IronMan@@@std@@@std@@@std@@@6@$0A@@std@@@std@@IEAAX_K@Z ; std::_Hash<std::_Umap_traits<enum IronMan::Core::SDK::DecryptFunc,std::unique_ptr<IronMan::Core::SDK::UEDecryptBuilder,std::default_delete<IronMan::Core::SDK::UEDecryptBuilder> >,std::_Uhash_compare<enum IronMan::Core::SDK::DecryptFunc,std::hash<enum IronMan::Core::SDK::DecryptFunc>,std::equal_to<enum IronMan::Core::SDK::DecryptFunc> >,std::allocator<std::pair<enum IronMan::Core::SDK::DecryptFunc const ,std::unique_ptr<IronMan::Core::SDK::UEDecryptBuilder,std::default_delete<IronMan::Core::SDK::UEDecryptBuilder> > > >,0> >::_Forced_rehash
PUBLIC	?_Max_bucket_size@?$_Hash@V?$_Umap_traits@W4DecryptFunc@SDK@Core@IronMan@@V?$unique_ptr@VUEDecryptBuilder@SDK@Core@IronMan@@U?$default_delete@VUEDecryptBuilder@SDK@Core@IronMan@@@std@@@std@@V?$_Uhash_compare@W4DecryptFunc@SDK@Core@IronMan@@U?$hash@W4DecryptFunc@SDK@Core@IronMan@@@std@@U?$equal_to@W4DecryptFunc@SDK@Core@IronMan@@@6@@6@V?$allocator@U?$pair@$$CBW4DecryptFunc@SDK@Core@IronMan@@V?$unique_ptr@VUEDecryptBuilder@SDK@Core@IronMan@@U?$default_delete@VUEDecryptBuilder@SDK@Core@IronMan@@@std@@@std@@@std@@@6@$0A@@std@@@std@@IEBAAEBMXZ ; std::_Hash<std::_Umap_traits<enum IronMan::Core::SDK::DecryptFunc,std::unique_ptr<IronMan::Core::SDK::UEDecryptBuilder,std::default_delete<IronMan::Core::SDK::UEDecryptBuilder> >,std::_Uhash_compare<enum IronMan::Core::SDK::DecryptFunc,std::hash<enum IronMan::Core::SDK::DecryptFunc>,std::equal_to<enum IronMan::Core::SDK::DecryptFunc> >,std::allocator<std::pair<enum IronMan::Core::SDK::DecryptFunc const ,std::unique_ptr<IronMan::Core::SDK::UEDecryptBuilder,std::default_delete<IronMan::Core::SDK::UEDecryptBuilder> > > >,0> >::_Max_bucket_size
PUBLIC	?deallocate@?$allocator@V?$_List_unchecked_iterator@V?$_List_val@U?$_List_simple_types@U?$pair@$$CBW4DecryptFunc@SDK@Core@IronMan@@V?$unique_ptr@VUEDecryptBuilder@SDK@Core@IronMan@@U?$default_delete@VUEDecryptBuilder@SDK@Core@IronMan@@@std@@@std@@@std@@@std@@@std@@@std@@@std@@QEAAXQEAV?$_List_unchecked_iterator@V?$_List_val@U?$_List_simple_types@U?$pair@$$CBW4DecryptFunc@SDK@Core@IronMan@@V?$unique_ptr@VUEDecryptBuilder@SDK@Core@IronMan@@U?$default_delete@VUEDecryptBuilder@SDK@Core@IronMan@@@std@@@std@@@std@@@std@@@std@@@2@_K@Z ; std::allocator<std::_List_unchecked_iterator<std::_List_val<std::_List_simple_types<std::pair<enum IronMan::Core::SDK::DecryptFunc const ,std::unique_ptr<IronMan::Core::SDK::UEDecryptBuilder,std::default_delete<IronMan::Core::SDK::UEDecryptBuilder> > > > > > >::deallocate
PUBLIC	?allocate@?$allocator@V?$_List_unchecked_iterator@V?$_List_val@U?$_List_simple_types@U?$pair@$$CBW4DecryptFunc@SDK@Core@IronMan@@V?$unique_ptr@VUEDecryptBuilder@SDK@Core@IronMan@@U?$default_delete@VUEDecryptBuilder@SDK@Core@IronMan@@@std@@@std@@@std@@@std@@@std@@@std@@@std@@QEAAPEAV?$_List_unchecked_iterator@V?$_List_val@U?$_List_simple_types@U?$pair@$$CBW4DecryptFunc@SDK@Core@IronMan@@V?$unique_ptr@VUEDecryptBuilder@SDK@Core@IronMan@@U?$default_delete@VUEDecryptBuilder@SDK@Core@IronMan@@@std@@@std@@@std@@@std@@@std@@@2@_K@Z ; std::allocator<std::_List_unchecked_iterator<std::_List_val<std::_List_simple_types<std::pair<enum IronMan::Core::SDK::DecryptFunc const ,std::unique_ptr<IronMan::Core::SDK::UEDecryptBuilder,std::default_delete<IronMan::Core::SDK::UEDecryptBuilder> > > > > > >::allocate
PUBLIC	?max_size@?$_Default_allocator_traits@V?$allocator@V?$_List_unchecked_iterator@V?$_List_val@U?$_List_simple_types@U?$pair@$$CBW4DecryptFunc@SDK@Core@IronMan@@V?$unique_ptr@VUEDecryptBuilder@SDK@Core@IronMan@@U?$default_delete@VUEDecryptBuilder@SDK@Core@IronMan@@@std@@@std@@@std@@@std@@@std@@@std@@@std@@@std@@SA_KAEBV?$allocator@V?$_List_unchecked_iterator@V?$_List_val@U?$_List_simple_types@U?$pair@$$CBW4DecryptFunc@SDK@Core@IronMan@@V?$unique_ptr@VUEDecryptBuilder@SDK@Core@IronMan@@U?$default_delete@VUEDecryptBuilder@SDK@Core@IronMan@@@std@@@std@@@std@@@std@@@std@@@std@@@2@@Z ; std::_Default_allocator_traits<std::allocator<std::_List_unchecked_iterator<std::_List_val<std::_List_simple_types<std::pair<enum IronMan::Core::SDK::DecryptFunc const ,std::unique_ptr<IronMan::Core::SDK::UEDecryptBuilder,std::default_delete<IronMan::Core::SDK::UEDecryptBuilder> > > > > > > >::max_size
PUBLIC	?size@?$_Hash_vec@V?$allocator@V?$_List_unchecked_iterator@V?$_List_val@U?$_List_simple_types@U?$pair@$$CBW4DecryptFunc@SDK@Core@IronMan@@V?$unique_ptr@VUEDecryptBuilder@SDK@Core@IronMan@@U?$default_delete@VUEDecryptBuilder@SDK@Core@IronMan@@@std@@@std@@@std@@@std@@@std@@@std@@@std@@@std@@QEBA_KXZ ; std::_Hash_vec<std::allocator<std::_List_unchecked_iterator<std::_List_val<std::_List_simple_types<std::pair<enum IronMan::Core::SDK::DecryptFunc const ,std::unique_ptr<IronMan::Core::SDK::UEDecryptBuilder,std::default_delete<IronMan::Core::SDK::UEDecryptBuilder> > > > > > > >::size
PUBLIC	?max_size@?$_Hash_vec@V?$allocator@V?$_List_unchecked_iterator@V?$_List_val@U?$_List_simple_types@U?$pair@$$CBW4DecryptFunc@SDK@Core@IronMan@@V?$unique_ptr@VUEDecryptBuilder@SDK@Core@IronMan@@U?$default_delete@VUEDecryptBuilder@SDK@Core@IronMan@@@std@@@std@@@std@@@std@@@std@@@std@@@std@@@std@@QEBA_KXZ ; std::_Hash_vec<std::allocator<std::_List_unchecked_iterator<std::_List_val<std::_List_simple_types<std::pair<enum IronMan::Core::SDK::DecryptFunc const ,std::unique_ptr<IronMan::Core::SDK::UEDecryptBuilder,std::default_delete<IronMan::Core::SDK::UEDecryptBuilder> > > > > > > >::max_size
PUBLIC	?capacity@?$_Hash_vec@V?$allocator@V?$_List_unchecked_iterator@V?$_List_val@U?$_List_simple_types@U?$pair@$$CBW4DecryptFunc@SDK@Core@IronMan@@V?$unique_ptr@VUEDecryptBuilder@SDK@Core@IronMan@@U?$default_delete@VUEDecryptBuilder@SDK@Core@IronMan@@@std@@@std@@@std@@@std@@@std@@@std@@@std@@@std@@QEBA_KXZ ; std::_Hash_vec<std::allocator<std::_List_unchecked_iterator<std::_List_val<std::_List_simple_types<std::pair<enum IronMan::Core::SDK::DecryptFunc const ,std::unique_ptr<IronMan::Core::SDK::UEDecryptBuilder,std::default_delete<IronMan::Core::SDK::UEDecryptBuilder> > > > > > > >::capacity
PUBLIC	?_Assign_grow@?$_Hash_vec@V?$allocator@V?$_List_unchecked_iterator@V?$_List_val@U?$_List_simple_types@U?$pair@$$CBW4DecryptFunc@SDK@Core@IronMan@@V?$unique_ptr@VUEDecryptBuilder@SDK@Core@IronMan@@U?$default_delete@VUEDecryptBuilder@SDK@Core@IronMan@@@std@@@std@@@std@@@std@@@std@@@std@@@std@@@std@@QEAAX_KV?$_List_unchecked_iterator@V?$_List_val@U?$_List_simple_types@U?$pair@$$CBW4DecryptFunc@SDK@Core@IronMan@@V?$unique_ptr@VUEDecryptBuilder@SDK@Core@IronMan@@U?$default_delete@VUEDecryptBuilder@SDK@Core@IronMan@@@std@@@std@@@std@@@std@@@std@@@2@@Z ; std::_Hash_vec<std::allocator<std::_List_unchecked_iterator<std::_List_val<std::_List_simple_types<std::pair<enum IronMan::Core::SDK::DecryptFunc const ,std::unique_ptr<IronMan::Core::SDK::UEDecryptBuilder,std::default_delete<IronMan::Core::SDK::UEDecryptBuilder> > > > > > > >::_Assign_grow
PUBLIC	?_Get_first@?$_Compressed_pair@V?$allocator@V?$_List_unchecked_iterator@V?$_List_val@U?$_List_simple_types@U?$pair@$$CBW4DecryptFunc@SDK@Core@IronMan@@V?$unique_ptr@VUEDecryptBuilder@SDK@Core@IronMan@@U?$default_delete@VUEDecryptBuilder@SDK@Core@IronMan@@@std@@@std@@@std@@@std@@@std@@@std@@@std@@V?$_Vector_val@U?$_Simple_types@V?$_List_unchecked_iterator@V?$_List_val@U?$_List_simple_types@U?$pair@$$CBW4DecryptFunc@SDK@Core@IronMan@@V?$unique_ptr@VUEDecryptBuilder@SDK@Core@IronMan@@U?$default_delete@VUEDecryptBuilder@SDK@Core@IronMan@@@std@@@std@@@std@@@std@@@std@@@std@@@std@@@2@$00@std@@QEAAAEAV?$allocator@V?$_List_unchecked_iterator@V?$_List_val@U?$_List_simple_types@U?$pair@$$CBW4DecryptFunc@SDK@Core@IronMan@@V?$unique_ptr@VUEDecryptBuilder@SDK@Core@IronMan@@U?$default_delete@VUEDecryptBuilder@SDK@Core@IronMan@@@std@@@std@@@std@@@std@@@std@@@std@@@2@XZ ; std::_Compressed_pair<std::allocator<std::_List_unchecked_iterator<std::_List_val<std::_List_simple_types<std::pair<enum IronMan::Core::SDK::DecryptFunc const ,std::unique_ptr<IronMan::Core::SDK::UEDecryptBuilder,std::default_delete<IronMan::Core::SDK::UEDecryptBuilder> > > > > > >,std::_Vector_val<std::_Simple_types<std::_List_unchecked_iterator<std::_List_val<std::_List_simple_types<std::pair<enum IronMan::Core::SDK::DecryptFunc const ,std::unique_ptr<IronMan::Core::SDK::UEDecryptBuilder,std::default_delete<IronMan::Core::SDK::UEDecryptBuilder> > > > > > > >,1>::_Get_first
PUBLIC	?_Get_first@?$_Compressed_pair@V?$allocator@V?$_List_unchecked_iterator@V?$_List_val@U?$_List_simple_types@U?$pair@$$CBW4DecryptFunc@SDK@Core@IronMan@@V?$unique_ptr@VUEDecryptBuilder@SDK@Core@IronMan@@U?$default_delete@VUEDecryptBuilder@SDK@Core@IronMan@@@std@@@std@@@std@@@std@@@std@@@std@@@std@@V?$_Vector_val@U?$_Simple_types@V?$_List_unchecked_iterator@V?$_List_val@U?$_List_simple_types@U?$pair@$$CBW4DecryptFunc@SDK@Core@IronMan@@V?$unique_ptr@VUEDecryptBuilder@SDK@Core@IronMan@@U?$default_delete@VUEDecryptBuilder@SDK@Core@IronMan@@@std@@@std@@@std@@@std@@@std@@@std@@@std@@@2@$00@std@@QEBAAEBV?$allocator@V?$_List_unchecked_iterator@V?$_List_val@U?$_List_simple_types@U?$pair@$$CBW4DecryptFunc@SDK@Core@IronMan@@V?$unique_ptr@VUEDecryptBuilder@SDK@Core@IronMan@@U?$default_delete@VUEDecryptBuilder@SDK@Core@IronMan@@@std@@@std@@@std@@@std@@@std@@@std@@@2@XZ ; std::_Compressed_pair<std::allocator<std::_List_unchecked_iterator<std::_List_val<std::_List_simple_types<std::pair<enum IronMan::Core::SDK::DecryptFunc const ,std::unique_ptr<IronMan::Core::SDK::UEDecryptBuilder,std::default_delete<IronMan::Core::SDK::UEDecryptBuilder> > > > > > >,std::_Vector_val<std::_Simple_types<std::_List_unchecked_iterator<std::_List_val<std::_List_simple_types<std::pair<enum IronMan::Core::SDK::DecryptFunc const ,std::unique_ptr<IronMan::Core::SDK::UEDecryptBuilder,std::default_delete<IronMan::Core::SDK::UEDecryptBuilder> > > > > > > >,1>::_Get_first
PUBLIC	??A?$unordered_map@W4DecryptFunc@SDK@Core@IronMan@@V?$unique_ptr@VUEDecryptBuilder@SDK@Core@IronMan@@U?$default_delete@VUEDecryptBuilder@SDK@Core@IronMan@@@std@@@std@@U?$hash@W4DecryptFunc@SDK@Core@IronMan@@@6@U?$equal_to@W4DecryptFunc@SDK@Core@IronMan@@@6@V?$allocator@U?$pair@$$CBW4DecryptFunc@SDK@Core@IronMan@@V?$unique_ptr@VUEDecryptBuilder@SDK@Core@IronMan@@U?$default_delete@VUEDecryptBuilder@SDK@Core@IronMan@@@std@@@std@@@std@@@6@@std@@QEAAAEAV?$unique_ptr@VUEDecryptBuilder@SDK@Core@IronMan@@U?$default_delete@VUEDecryptBuilder@SDK@Core@IronMan@@@std@@@1@$$QEAW4DecryptFunc@SDK@Core@IronMan@@@Z ; std::unordered_map<enum IronMan::Core::SDK::DecryptFunc,std::unique_ptr<IronMan::Core::SDK::UEDecryptBuilder,std::default_delete<IronMan::Core::SDK::UEDecryptBuilder> >,std::hash<enum IronMan::Core::SDK::DecryptFunc>,std::equal_to<enum IronMan::Core::SDK::DecryptFunc>,std::allocator<std::pair<enum IronMan::Core::SDK::DecryptFunc const ,std::unique_ptr<IronMan::Core::SDK::UEDecryptBuilder,std::default_delete<IronMan::Core::SDK::UEDecryptBuilder> > > > >::operator[]
PUBLIC	??R?$default_delete@VUEDecryptBuilder@SDK@Core@IronMan@@@std@@QEBAXPEAVUEDecryptBuilder@SDK@Core@IronMan@@@Z ; std::default_delete<IronMan::Core::SDK::UEDecryptBuilder>::operator()
PUBLIC	??1?$unique_ptr@VUEDecryptBuilder@SDK@Core@IronMan@@U?$default_delete@VUEDecryptBuilder@SDK@Core@IronMan@@@std@@@std@@QEAA@XZ ; std::unique_ptr<IronMan::Core::SDK::UEDecryptBuilder,std::default_delete<IronMan::Core::SDK::UEDecryptBuilder> >::~unique_ptr<IronMan::Core::SDK::UEDecryptBuilder,std::default_delete<IronMan::Core::SDK::UEDecryptBuilder> >
PUBLIC	??C?$unique_ptr@VUEDecryptBuilder@SDK@Core@IronMan@@U?$default_delete@VUEDecryptBuilder@SDK@Core@IronMan@@@std@@@std@@QEBAPEAVUEDecryptBuilder@SDK@Core@IronMan@@XZ ; std::unique_ptr<IronMan::Core::SDK::UEDecryptBuilder,std::default_delete<IronMan::Core::SDK::UEDecryptBuilder> >::operator->
PUBLIC	?_Get_first@?$_Compressed_pair@U?$default_delete@VUEDecryptBuilder@SDK@Core@IronMan@@@std@@PEAVUEDecryptBuilder@SDK@Core@IronMan@@$00@std@@QEAAAEAU?$default_delete@VUEDecryptBuilder@SDK@Core@IronMan@@@2@XZ ; std::_Compressed_pair<std::default_delete<IronMan::Core::SDK::UEDecryptBuilder>,IronMan::Core::SDK::UEDecryptBuilder *,1>::_Get_first
PUBLIC	?pointer_to@?$pointer_traits@PEAU?$pair@$$CB_K_K@std@@@std@@SAPEAU?$pair@$$CB_K_K@2@AEAU32@@Z ; std::pointer_traits<std::pair<unsigned __int64 const ,unsigned __int64> *>::pointer_to
PUBLIC	??D?$_List_unchecked_iterator@V?$_List_val@U?$_List_simple_types@U?$pair@$$CB_KV?$basic_string@DU?$char_traits@D@std@@V?$allocator@D@2@@std@@@std@@@std@@@std@@@std@@QEBAAEAU?$pair@$$CB_KV?$basic_string@DU?$char_traits@D@std@@V?$allocator@D@2@@std@@@1@XZ ; std::_List_unchecked_iterator<std::_List_val<std::_List_simple_types<std::pair<unsigned __int64 const ,std::basic_string<char,std::char_traits<char>,std::allocator<char> > > > > >::operator*
PUBLIC	??E?$_List_unchecked_iterator@V?$_List_val@U?$_List_simple_types@U?$pair@$$CB_KV?$basic_string@DU?$char_traits@D@std@@V?$allocator@D@2@@std@@@std@@@std@@@std@@@std@@QEAAAEAV01@XZ ; std::_List_unchecked_iterator<std::_List_val<std::_List_simple_types<std::pair<unsigned __int64 const ,std::basic_string<char,std::char_traits<char>,std::allocator<char> > > > > >::operator++
PUBLIC	??0?$_List_unchecked_iterator@V?$_List_val@U?$_List_simple_types@U?$pair@$$CB_KV?$basic_string@DU?$char_traits@D@std@@V?$allocator@D@2@@std@@@std@@@std@@@std@@@std@@QEAA@PEAU?$_List_node@U?$pair@$$CB_KV?$basic_string@DU?$char_traits@D@std@@V?$allocator@D@2@@std@@@std@@PEAX@1@PEBV?$_List_val@U?$_List_simple_types@U?$pair@$$CB_KV?$basic_string@DU?$char_traits@D@std@@V?$allocator@D@2@@std@@@std@@@std@@@1@@Z ; std::_List_unchecked_iterator<std::_List_val<std::_List_simple_types<std::pair<unsigned __int64 const ,std::basic_string<char,std::char_traits<char>,std::allocator<char> > > > > >::_List_unchecked_iterator<std::_List_val<std::_List_simple_types<std::pair<unsigned __int64 const ,std::basic_string<char,std::char_traits<char>,std::allocator<char> > > > > >
PUBLIC	??$fill@PEAV?$_List_unchecked_iterator@V?$_List_val@U?$_List_simple_types@U?$pair@$$CB_KV?$basic_string@DU?$char_traits@D@std@@V?$allocator@D@2@@std@@@std@@@std@@@std@@@std@@V12@@std@@YAXQEAV?$_List_unchecked_iterator@V?$_List_val@U?$_List_simple_types@U?$pair@$$CB_KV?$basic_string@DU?$char_traits@D@std@@V?$allocator@D@2@@std@@@std@@@std@@@std@@@0@0AEBV10@@Z ; std::fill<std::_List_unchecked_iterator<std::_List_val<std::_List_simple_types<std::pair<unsigned __int64 const ,std::basic_string<char,std::char_traits<char>,std::allocator<char> > > > > > *,std::_List_unchecked_iterator<std::_List_val<std::_List_simple_types<std::pair<unsigned __int64 const ,std::basic_string<char,std::char_traits<char>,std::allocator<char> > > > > > >
PUBLIC	??$?RI@?$_Uhash_compare@IU?$hash@I@std@@U?$equal_to@I@2@@std@@QEBA_KAEBI@Z ; std::_Uhash_compare<unsigned int,std::hash<unsigned int>,std::equal_to<unsigned int> >::operator()<unsigned int>
PUBLIC	??D?$_List_unchecked_iterator@V?$_List_val@U?$_List_simple_types@U?$pair@$$CBIV?$basic_string@DU?$char_traits@D@std@@V?$allocator@D@2@@std@@@std@@@std@@@std@@@std@@QEBAAEAU?$pair@$$CBIV?$basic_string@DU?$char_traits@D@std@@V?$allocator@D@2@@std@@@1@XZ ; std::_List_unchecked_iterator<std::_List_val<std::_List_simple_types<std::pair<unsigned int const ,std::basic_string<char,std::char_traits<char>,std::allocator<char> > > > > >::operator*
PUBLIC	??E?$_List_unchecked_iterator@V?$_List_val@U?$_List_simple_types@U?$pair@$$CBIV?$basic_string@DU?$char_traits@D@std@@V?$allocator@D@2@@std@@@std@@@std@@@std@@@std@@QEAAAEAV01@XZ ; std::_List_unchecked_iterator<std::_List_val<std::_List_simple_types<std::pair<unsigned int const ,std::basic_string<char,std::char_traits<char>,std::allocator<char> > > > > >::operator++
PUBLIC	??0?$_List_unchecked_iterator@V?$_List_val@U?$_List_simple_types@U?$pair@$$CBIV?$basic_string@DU?$char_traits@D@std@@V?$allocator@D@2@@std@@@std@@@std@@@std@@@std@@QEAA@PEAU?$_List_node@U?$pair@$$CBIV?$basic_string@DU?$char_traits@D@std@@V?$allocator@D@2@@std@@@std@@PEAX@1@PEBV?$_List_val@U?$_List_simple_types@U?$pair@$$CBIV?$basic_string@DU?$char_traits@D@std@@V?$allocator@D@2@@std@@@std@@@std@@@1@@Z ; std::_List_unchecked_iterator<std::_List_val<std::_List_simple_types<std::pair<unsigned int const ,std::basic_string<char,std::char_traits<char>,std::allocator<char> > > > > >::_List_unchecked_iterator<std::_List_val<std::_List_simple_types<std::pair<unsigned int const ,std::basic_string<char,std::char_traits<char>,std::allocator<char> > > > > >
PUBLIC	??$fill@PEAV?$_List_unchecked_iterator@V?$_List_val@U?$_List_simple_types@U?$pair@$$CBIV?$basic_string@DU?$char_traits@D@std@@V?$allocator@D@2@@std@@@std@@@std@@@std@@@std@@V12@@std@@YAXQEAV?$_List_unchecked_iterator@V?$_List_val@U?$_List_simple_types@U?$pair@$$CBIV?$basic_string@DU?$char_traits@D@std@@V?$allocator@D@2@@std@@@std@@@std@@@std@@@0@0AEBV10@@Z ; std::fill<std::_List_unchecked_iterator<std::_List_val<std::_List_simple_types<std::pair<unsigned int const ,std::basic_string<char,std::char_traits<char>,std::allocator<char> > > > > > *,std::_List_unchecked_iterator<std::_List_val<std::_List_simple_types<std::pair<unsigned int const ,std::basic_string<char,std::char_traits<char>,std::allocator<char> > > > > > >
PUBLIC	??$ReadCache@VFNameEntry@SDK@Core@IronMan@@@DMAHandler@IronMan@@QEAA?AVFNameEntry@SDK@Core@1@_K@Z ; IronMan::DMAHandler::ReadCache<IronMan::Core::SDK::FNameEntry>
PUBLIC	??$Read@VFNameEntry@SDK@Core@IronMan@@@DMAHandler@IronMan@@QEAA?AVFNameEntry@SDK@Core@1@_K@Z ; IronMan::DMAHandler::Read<IronMan::Core::SDK::FNameEntry>
PUBLIC	??$ReadCache@PEAVFNameEntry@SDK@Core@IronMan@@@DMAHandler@IronMan@@QEAAPEAVFNameEntry@SDK@Core@1@_K@Z ; IronMan::DMAHandler::ReadCache<IronMan::Core::SDK::FNameEntry *>
PUBLIC	??$Read@PEAVFNameEntry@SDK@Core@IronMan@@@DMAHandler@IronMan@@QEAAPEAVFNameEntry@SDK@Core@1@_K@Z ; IronMan::DMAHandler::Read<IronMan::Core::SDK::FNameEntry *>
PUBLIC	??$forward@_N@std@@YA$$QEA_NAEA_N@Z		; std::forward<bool>
PUBLIC	??$_Allocate_at_least_helper@V?$allocator@D@std@@@std@@YAPEADAEAV?$allocator@D@0@AEA_K@Z ; std::_Allocate_at_least_helper<std::allocator<char> >
PUBLIC	??$_Unfancy@D@std@@YAPEADPEAD@Z			; std::_Unfancy<char>
PUBLIC	??$_Convert_size@_K_K@std@@YA_K_K@Z		; std::_Convert_size<unsigned __int64,unsigned __int64>
PUBLIC	??$_Traits_rfind_ch@U?$char_traits@D@std@@@std@@YA_KQEBD_K1D@Z ; std::_Traits_rfind_ch<std::char_traits<char> >
PUBLIC	??$_Traits_find@U?$char_traits@D@std@@@std@@YA_KQEBD_K101@Z ; std::_Traits_find<std::char_traits<char> >
PUBLIC	??$addressof@V?$basic_string@DU?$char_traits@D@std@@V?$allocator@D@2@@std@@@std@@YAPEAV?$basic_string@DU?$char_traits@D@std@@V?$allocator@D@2@@0@AEAV10@@Z ; std::addressof<std::basic_string<char,std::char_traits<char>,std::allocator<char> > >
PUBLIC	??$max@_K@std@@YAAEB_KAEB_K0@Z			; std::max<unsigned __int64>
PUBLIC	??$_Max_limit@_J@std@@YA_JXZ			; std::_Max_limit<__int64>
PUBLIC	??$addressof@V?$_String_val@U?$_Simple_types@D@std@@@std@@@std@@YAPEAV?$_String_val@U?$_Simple_types@D@std@@@0@AEAV10@@Z ; std::addressof<std::_String_val<std::_Simple_types<char> > >
PUBLIC	??R<lambda_66f57f934f28d61049862f64df852ff0>@@QEBA@QEAD_KQEBD@Z ; <lambda_66f57f934f28d61049862f64df852ff0>::operator()
PUBLIC	??$_Reallocate_for@V<lambda_66f57f934f28d61049862f64df852ff0>@@PEBD@?$basic_string@DU?$char_traits@D@std@@V?$allocator@D@2@@std@@AEAAAEAV01@_KV<lambda_66f57f934f28d61049862f64df852ff0>@@PEBD@Z ; std::basic_string<char,std::char_traits<char>,std::allocator<char> >::_Reallocate_for<<lambda_66f57f934f28d61049862f64df852ff0>,char const *>
PUBLIC	??R<lambda_65e615be2a453ca0576c979606f46740>@@QEBA@QEADQEBD_K12@Z ; <lambda_65e615be2a453ca0576c979606f46740>::operator()
PUBLIC	??$_Reallocate_grow_by@V<lambda_65e615be2a453ca0576c979606f46740>@@PEBD_K@?$basic_string@DU?$char_traits@D@std@@V?$allocator@D@2@@std@@AEAAAEAV01@_KV<lambda_65e615be2a453ca0576c979606f46740>@@PEBD_K@Z ; std::basic_string<char,std::char_traits<char>,std::allocator<char> >::_Reallocate_grow_by<<lambda_65e615be2a453ca0576c979606f46740>,char const *,unsigned __int64>
PUBLIC	??$addressof@$$CBV?$basic_string@DU?$char_traits@D@std@@V?$allocator@D@2@@std@@@std@@YAPEBV?$basic_string@DU?$char_traits@D@std@@V?$allocator@D@2@@0@AEBV10@@Z ; std::addressof<std::basic_string<char,std::char_traits<char>,std::allocator<char> > const >
PUBLIC	??$_Pocca@V?$allocator@D@std@@@std@@YAXAEAV?$allocator@D@0@AEBV10@@Z ; std::_Pocca<std::allocator<char> >
PUBLIC	??$_Pocma@V?$allocator@D@std@@@std@@YAXAEAV?$allocator@D@0@0@Z ; std::_Pocma<std::allocator<char> >
PUBLIC	??$move@AEAV?$allocator@D@std@@@std@@YA$$QEAV?$allocator@D@0@AEAV10@@Z ; std::move<std::allocator<char> &>
PUBLIC	??$?0V?$allocator@D@std@@$$V@?$_Compressed_pair@V?$allocator@D@std@@V?$_String_val@U?$_Simple_types@D@std@@@2@$00@std@@QEAA@U_One_then_variadic_args_t@1@$$QEAV?$allocator@D@1@@Z ; std::_Compressed_pair<std::allocator<char>,std::_String_val<std::_Simple_types<char> >,1>::_Compressed_pair<std::allocator<char>,std::_String_val<std::_Simple_types<char> >,1><std::allocator<char> >
PUBLIC	??$?0$$V@?$_Compressed_pair@V?$allocator@D@std@@V?$_String_val@U?$_Simple_types@D@std@@@2@$00@std@@QEAA@U_Zero_then_variadic_args_t@1@@Z ; std::_Compressed_pair<std::allocator<char>,std::_String_val<std::_Simple_types<char> >,1>::_Compressed_pair<std::allocator<char>,std::_String_val<std::_Simple_types<char> >,1><>
PUBLIC	??$_Construct@$00PEBD@?$basic_string@DU?$char_traits@D@std@@V?$allocator@D@2@@std@@AEAAXQEBD_K@Z ; std::basic_string<char,std::char_traits<char>,std::allocator<char> >::_Construct<1,char const *>
PUBLIC	??$_Construct@$01PEBD@?$basic_string@DU?$char_traits@D@std@@V?$allocator@D@2@@std@@AEAAXQEBD_K@Z ; std::basic_string<char,std::char_traits<char>,std::allocator<char> >::_Construct<2,char const *>
PUBLIC	??$addressof@U?$pair@$$CB_K_K@std@@@std@@YAPEAU?$pair@$$CB_K_K@0@AEAU10@@Z ; std::addressof<std::pair<unsigned __int64 const ,unsigned __int64> >
PUBLIC	??$move@AEAW4DecryptFunc@SDK@Core@IronMan@@@std@@YA$$QEAW4DecryptFunc@SDK@Core@IronMan@@AEAW41234@@Z ; std::move<enum IronMan::Core::SDK::DecryptFunc &>
PUBLIC	??$_Try_emplace@W4DecryptFunc@SDK@Core@IronMan@@$$V@?$_Hash@V?$_Umap_traits@W4DecryptFunc@SDK@Core@IronMan@@V?$unique_ptr@VUEDecryptBuilder@SDK@Core@IronMan@@U?$default_delete@VUEDecryptBuilder@SDK@Core@IronMan@@@std@@@std@@V?$_Uhash_compare@W4DecryptFunc@SDK@Core@IronMan@@U?$hash@W4DecryptFunc@SDK@Core@IronMan@@@std@@U?$equal_to@W4DecryptFunc@SDK@Core@IronMan@@@6@@6@V?$allocator@U?$pair@$$CBW4DecryptFunc@SDK@Core@IronMan@@V?$unique_ptr@VUEDecryptBuilder@SDK@Core@IronMan@@U?$default_delete@VUEDecryptBuilder@SDK@Core@IronMan@@@std@@@std@@@std@@@6@$0A@@std@@@std@@IEAA?AU?$pair@PEAU?$_List_node@U?$pair@$$CBW4DecryptFunc@SDK@Core@IronMan@@V?$unique_ptr@VUEDecryptBuilder@SDK@Core@IronMan@@U?$default_delete@VUEDecryptBuilder@SDK@Core@IronMan@@@std@@@std@@@std@@PEAX@std@@_N@1@$$QEAW4DecryptFunc@SDK@Core@IronMan@@@Z ; std::_Hash<std::_Umap_traits<enum IronMan::Core::SDK::DecryptFunc,std::unique_ptr<IronMan::Core::SDK::UEDecryptBuilder,std::default_delete<IronMan::Core::SDK::UEDecryptBuilder> >,std::_Uhash_compare<enum IronMan::Core::SDK::DecryptFunc,std::hash<enum IronMan::Core::SDK::DecryptFunc>,std::equal_to<enum IronMan::Core::SDK::DecryptFunc> >,std::allocator<std::pair<enum IronMan::Core::SDK::DecryptFunc const ,std::unique_ptr<IronMan::Core::SDK::UEDecryptBuilder,std::default_delete<IronMan::Core::SDK::UEDecryptBuilder> > > >,0> >::_Try_emplace<enum IronMan::Core::SDK::DecryptFunc>
PUBLIC	??1?$pair@$$CBW4DecryptFunc@SDK@Core@IronMan@@V?$unique_ptr@VUEDecryptBuilder@SDK@Core@IronMan@@U?$default_delete@VUEDecryptBuilder@SDK@Core@IronMan@@@std@@@std@@@std@@QEAA@XZ ; std::pair<enum IronMan::Core::SDK::DecryptFunc const ,std::unique_ptr<IronMan::Core::SDK::UEDecryptBuilder,std::default_delete<IronMan::Core::SDK::UEDecryptBuilder> > >::~pair<enum IronMan::Core::SDK::DecryptFunc const ,std::unique_ptr<IronMan::Core::SDK::UEDecryptBuilder,std::default_delete<IronMan::Core::SDK::UEDecryptBuilder> > >
PUBLIC	??_G?$pair@$$CBW4DecryptFunc@SDK@Core@IronMan@@V?$unique_ptr@VUEDecryptBuilder@SDK@Core@IronMan@@U?$default_delete@VUEDecryptBuilder@SDK@Core@IronMan@@@std@@@std@@@std@@QEAAPEAXI@Z ; std::pair<enum IronMan::Core::SDK::DecryptFunc const ,std::unique_ptr<IronMan::Core::SDK::UEDecryptBuilder,std::default_delete<IronMan::Core::SDK::UEDecryptBuilder> > >::`scalar deleting destructor'
PUBLIC	??$addressof@U?$pair@$$CBIV?$basic_string@DU?$char_traits@D@std@@V?$allocator@D@2@@std@@@std@@@std@@YAPEAU?$pair@$$CBIV?$basic_string@DU?$char_traits@D@std@@V?$allocator@D@2@@std@@@0@AEAU10@@Z ; std::addressof<std::pair<unsigned int const ,std::basic_string<char,std::char_traits<char>,std::allocator<char> > > >
PUBLIC	??$addressof@U?$pair@$$CB_KV?$basic_string@DU?$char_traits@D@std@@V?$allocator@D@2@@std@@@std@@@std@@YAPEAU?$pair@$$CB_KV?$basic_string@DU?$char_traits@D@std@@V?$allocator@D@2@@std@@@0@AEAU10@@Z ; std::addressof<std::pair<unsigned __int64 const ,std::basic_string<char,std::char_traits<char>,std::allocator<char> > > >
PUBLIC	??D?$_List_unchecked_iterator@V?$_List_val@U?$_List_simple_types@U?$pair@$$CB_K_K@std@@@std@@@std@@@std@@QEBAAEAU?$pair@$$CB_K_K@1@XZ ; std::_List_unchecked_iterator<std::_List_val<std::_List_simple_types<std::pair<unsigned __int64 const ,unsigned __int64> > > >::operator*
PUBLIC	??E?$_List_unchecked_iterator@V?$_List_val@U?$_List_simple_types@U?$pair@$$CB_K_K@std@@@std@@@std@@@std@@QEAAAEAV01@XZ ; std::_List_unchecked_iterator<std::_List_val<std::_List_simple_types<std::pair<unsigned __int64 const ,unsigned __int64> > > >::operator++
PUBLIC	??0?$_List_unchecked_iterator@V?$_List_val@U?$_List_simple_types@U?$pair@$$CB_K_K@std@@@std@@@std@@@std@@QEAA@PEAU?$_List_node@U?$pair@$$CB_K_K@std@@PEAX@1@PEBV?$_List_val@U?$_List_simple_types@U?$pair@$$CB_K_K@std@@@std@@@1@@Z ; std::_List_unchecked_iterator<std::_List_val<std::_List_simple_types<std::pair<unsigned __int64 const ,unsigned __int64> > > >::_List_unchecked_iterator<std::_List_val<std::_List_simple_types<std::pair<unsigned __int64 const ,unsigned __int64> > > >
PUBLIC	??$_Destroy_range@PEAV?$_List_unchecked_iterator@V?$_List_val@U?$_List_simple_types@U?$pair@$$CB_K_K@std@@@std@@@std@@@std@@PEAV12@@std@@YAXPEAV?$_List_unchecked_iterator@V?$_List_val@U?$_List_simple_types@U?$pair@$$CB_K_K@std@@@std@@@std@@@0@QEAV10@@Z ; std::_Destroy_range<std::_List_unchecked_iterator<std::_List_val<std::_List_simple_types<std::pair<unsigned __int64 const ,unsigned __int64> > > > *,std::_List_unchecked_iterator<std::_List_val<std::_List_simple_types<std::pair<unsigned __int64 const ,unsigned __int64> > > > *>
PUBLIC	??$?0AEBV?$allocator@U?$pair@$$CB_K_K@std@@@std@@$0A@@?$_Hash_vec@V?$allocator@V?$_List_unchecked_iterator@V?$_List_val@U?$_List_simple_types@U?$pair@$$CB_K_K@std@@@std@@@std@@@std@@@std@@@std@@QEAA@AEBV?$allocator@U?$pair@$$CB_K_K@std@@@1@@Z ; std::_Hash_vec<std::allocator<std::_List_unchecked_iterator<std::_List_val<std::_List_simple_types<std::pair<unsigned __int64 const ,unsigned __int64> > > > > >::_Hash_vec<std::allocator<std::_List_unchecked_iterator<std::_List_val<std::_List_simple_types<std::pair<unsigned __int64 const ,unsigned __int64> > > > > ><std::allocator<std::pair<unsigned __int64 const ,unsigned __int64> > const &,0>
PUBLIC	??$_Free_non_head@V?$allocator@U?$_List_node@U?$pair@$$CB_K_K@std@@PEAX@std@@@std@@@?$_List_node@U?$pair@$$CB_K_K@std@@PEAX@std@@SAXAEAV?$allocator@U?$_List_node@U?$pair@$$CB_K_K@std@@PEAX@std@@@1@PEAU01@@Z ; std::_List_node<std::pair<unsigned __int64 const ,unsigned __int64>,void *>::_Free_non_head<std::allocator<std::_List_node<std::pair<unsigned __int64 const ,unsigned __int64>,void *> > >
PUBLIC	??$_Freenode0@V?$allocator@U?$_List_node@U?$pair@$$CB_K_K@std@@PEAX@std@@@std@@@?$_List_node@U?$pair@$$CB_K_K@std@@PEAX@std@@SAXAEAV?$allocator@U?$_List_node@U?$pair@$$CB_K_K@std@@PEAX@std@@@1@PEAU01@@Z ; std::_List_node<std::pair<unsigned __int64 const ,unsigned __int64>,void *>::_Freenode0<std::allocator<std::_List_node<std::pair<unsigned __int64 const ,unsigned __int64>,void *> > >
PUBLIC	??$addressof@V?$_List_val@U?$_List_simple_types@U?$pair@$$CB_K_K@std@@@std@@@std@@@std@@YAPEAV?$_List_val@U?$_List_simple_types@U?$pair@$$CB_K_K@std@@@std@@@0@AEAV10@@Z ; std::addressof<std::_List_val<std::_List_simple_types<std::pair<unsigned __int64 const ,unsigned __int64> > > >
PUBLIC	??$_Destroy_range@PEAV?$_List_unchecked_iterator@V?$_List_val@U?$_List_simple_types@U?$pair@$$CB_KV?$basic_string@DU?$char_traits@D@std@@V?$allocator@D@2@@std@@@std@@@std@@@std@@@std@@PEAV12@@std@@YAXPEAV?$_List_unchecked_iterator@V?$_List_val@U?$_List_simple_types@U?$pair@$$CB_KV?$basic_string@DU?$char_traits@D@std@@V?$allocator@D@2@@std@@@std@@@std@@@std@@@0@QEAV10@@Z ; std::_Destroy_range<std::_List_unchecked_iterator<std::_List_val<std::_List_simple_types<std::pair<unsigned __int64 const ,std::basic_string<char,std::char_traits<char>,std::allocator<char> > > > > > *,std::_List_unchecked_iterator<std::_List_val<std::_List_simple_types<std::pair<unsigned __int64 const ,std::basic_string<char,std::char_traits<char>,std::allocator<char> > > > > > *>
PUBLIC	??0_Range_eraser@?$_Hash@V?$_Umap_traits@_KV?$basic_string@DU?$char_traits@D@std@@V?$allocator@D@2@@std@@V?$_Uhash_compare@_KU?$hash@_K@std@@U?$equal_to@_K@2@@2@V?$allocator@U?$pair@$$CB_KV?$basic_string@DU?$char_traits@D@std@@V?$allocator@D@2@@std@@@std@@@2@$0A@@std@@@std@@QEAA@AEAV?$list@U?$pair@$$CB_KV?$basic_string@DU?$char_traits@D@std@@V?$allocator@D@2@@std@@@std@@V?$allocator@U?$pair@$$CB_KV?$basic_string@DU?$char_traits@D@std@@V?$allocator@D@2@@std@@@std@@@2@@2@QEAU?$_List_node@U?$pair@$$CB_KV?$basic_string@DU?$char_traits@D@std@@V?$allocator@D@2@@std@@@std@@PEAX@2@@Z ; std::_Hash<std::_Umap_traits<unsigned __int64,std::basic_string<char,std::char_traits<char>,std::allocator<char> >,std::_Uhash_compare<unsigned __int64,std::hash<unsigned __int64>,std::equal_to<unsigned __int64> >,std::allocator<std::pair<unsigned __int64 const ,std::basic_string<char,std::char_traits<char>,std::allocator<char> > > >,0> >::_Range_eraser::_Range_eraser
PUBLIC	?_Bump_erased@_Range_eraser@?$_Hash@V?$_Umap_traits@_KV?$basic_string@DU?$char_traits@D@std@@V?$allocator@D@2@@std@@V?$_Uhash_compare@_KU?$hash@_K@std@@U?$equal_to@_K@2@@2@V?$allocator@U?$pair@$$CB_KV?$basic_string@DU?$char_traits@D@std@@V?$allocator@D@2@@std@@@std@@@2@$0A@@std@@@std@@QEAAXXZ ; std::_Hash<std::_Umap_traits<unsigned __int64,std::basic_string<char,std::char_traits<char>,std::allocator<char> >,std::_Uhash_compare<unsigned __int64,std::hash<unsigned __int64>,std::equal_to<unsigned __int64> >,std::allocator<std::pair<unsigned __int64 const ,std::basic_string<char,std::char_traits<char>,std::allocator<char> > > >,0> >::_Range_eraser::_Bump_erased
PUBLIC	??1_Range_eraser@?$_Hash@V?$_Umap_traits@_KV?$basic_string@DU?$char_traits@D@std@@V?$allocator@D@2@@std@@V?$_Uhash_compare@_KU?$hash@_K@std@@U?$equal_to@_K@2@@2@V?$allocator@U?$pair@$$CB_KV?$basic_string@DU?$char_traits@D@std@@V?$allocator@D@2@@std@@@std@@@2@$0A@@std@@@std@@QEAA@XZ ; std::_Hash<std::_Umap_traits<unsigned __int64,std::basic_string<char,std::char_traits<char>,std::allocator<char> >,std::_Uhash_compare<unsigned __int64,std::hash<unsigned __int64>,std::equal_to<unsigned __int64> >,std::allocator<std::pair<unsigned __int64 const ,std::basic_string<char,std::char_traits<char>,std::allocator<char> > > >,0> >::_Range_eraser::~_Range_eraser
PUBLIC	??$_Kfn@$$CB_KV?$basic_string@DU?$char_traits@D@std@@V?$allocator@D@2@@std@@@?$_Umap_traits@_KV?$basic_string@DU?$char_traits@D@std@@V?$allocator@D@2@@std@@V?$_Uhash_compare@_KU?$hash@_K@std@@U?$equal_to@_K@2@@2@V?$allocator@U?$pair@$$CB_KV?$basic_string@DU?$char_traits@D@std@@V?$allocator@D@2@@std@@@std@@@2@$0A@@std@@SAAEB_KAEBU?$pair@$$CB_KV?$basic_string@DU?$char_traits@D@std@@V?$allocator@D@2@@std@@@1@@Z ; std::_Umap_traits<unsigned __int64,std::basic_string<char,std::char_traits<char>,std::allocator<char> >,std::_Uhash_compare<unsigned __int64,std::hash<unsigned __int64>,std::equal_to<unsigned __int64> >,std::allocator<std::pair<unsigned __int64 const ,std::basic_string<char,std::char_traits<char>,std::allocator<char> > > >,0>::_Kfn<unsigned __int64 const ,std::basic_string<char,std::char_traits<char>,std::allocator<char> > >
PUBLIC	??$?0AEBV?$allocator@U?$pair@$$CB_KV?$basic_string@DU?$char_traits@D@std@@V?$allocator@D@2@@std@@@std@@@std@@$0A@@?$_Hash_vec@V?$allocator@V?$_List_unchecked_iterator@V?$_List_val@U?$_List_simple_types@U?$pair@$$CB_KV?$basic_string@DU?$char_traits@D@std@@V?$allocator@D@2@@std@@@std@@@std@@@std@@@std@@@std@@@std@@QEAA@AEBV?$allocator@U?$pair@$$CB_KV?$basic_string@DU?$char_traits@D@std@@V?$allocator@D@2@@std@@@std@@@1@@Z ; std::_Hash_vec<std::allocator<std::_List_unchecked_iterator<std::_List_val<std::_List_simple_types<std::pair<unsigned __int64 const ,std::basic_string<char,std::char_traits<char>,std::allocator<char> > > > > > > >::_Hash_vec<std::allocator<std::_List_unchecked_iterator<std::_List_val<std::_List_simple_types<std::pair<unsigned __int64 const ,std::basic_string<char,std::char_traits<char>,std::allocator<char> > > > > > > ><std::allocator<std::pair<unsigned __int64 const ,std::basic_string<char,std::char_traits<char>,std::allocator<char> > > > const &,0>
PUBLIC	??$_Free_non_head@V?$allocator@U?$_List_node@U?$pair@$$CB_KV?$basic_string@DU?$char_traits@D@std@@V?$allocator@D@2@@std@@@std@@PEAX@std@@@std@@@?$_List_node@U?$pair@$$CB_KV?$basic_string@DU?$char_traits@D@std@@V?$allocator@D@2@@std@@@std@@PEAX@std@@SAXAEAV?$allocator@U?$_List_node@U?$pair@$$CB_KV?$basic_string@DU?$char_traits@D@std@@V?$allocator@D@2@@std@@@std@@PEAX@std@@@1@PEAU01@@Z ; std::_List_node<std::pair<unsigned __int64 const ,std::basic_string<char,std::char_traits<char>,std::allocator<char> > >,void *>::_Free_non_head<std::allocator<std::_List_node<std::pair<unsigned __int64 const ,std::basic_string<char,std::char_traits<char>,std::allocator<char> > >,void *> > >
PUBLIC	??$_Freenode0@V?$allocator@U?$_List_node@U?$pair@$$CB_KV?$basic_string@DU?$char_traits@D@std@@V?$allocator@D@2@@std@@@std@@PEAX@std@@@std@@@?$_List_node@U?$pair@$$CB_KV?$basic_string@DU?$char_traits@D@std@@V?$allocator@D@2@@std@@@std@@PEAX@std@@SAXAEAV?$allocator@U?$_List_node@U?$pair@$$CB_KV?$basic_string@DU?$char_traits@D@std@@V?$allocator@D@2@@std@@@std@@PEAX@std@@@1@PEAU01@@Z ; std::_List_node<std::pair<unsigned __int64 const ,std::basic_string<char,std::char_traits<char>,std::allocator<char> > >,void *>::_Freenode0<std::allocator<std::_List_node<std::pair<unsigned __int64 const ,std::basic_string<char,std::char_traits<char>,std::allocator<char> > >,void *> > >
PUBLIC	??$addressof@V?$_List_val@U?$_List_simple_types@U?$pair@$$CB_KV?$basic_string@DU?$char_traits@D@std@@V?$allocator@D@2@@std@@@std@@@std@@@std@@@std@@YAPEAV?$_List_val@U?$_List_simple_types@U?$pair@$$CB_KV?$basic_string@DU?$char_traits@D@std@@V?$allocator@D@2@@std@@@std@@@std@@@0@AEAV10@@Z ; std::addressof<std::_List_val<std::_List_simple_types<std::pair<unsigned __int64 const ,std::basic_string<char,std::char_traits<char>,std::allocator<char> > > > > >
PUBLIC	??$_Destroy_range@PEAV?$_List_unchecked_iterator@V?$_List_val@U?$_List_simple_types@U?$pair@$$CBIV?$basic_string@DU?$char_traits@D@std@@V?$allocator@D@2@@std@@@std@@@std@@@std@@@std@@PEAV12@@std@@YAXPEAV?$_List_unchecked_iterator@V?$_List_val@U?$_List_simple_types@U?$pair@$$CBIV?$basic_string@DU?$char_traits@D@std@@V?$allocator@D@2@@std@@@std@@@std@@@std@@@0@QEAV10@@Z ; std::_Destroy_range<std::_List_unchecked_iterator<std::_List_val<std::_List_simple_types<std::pair<unsigned int const ,std::basic_string<char,std::char_traits<char>,std::allocator<char> > > > > > *,std::_List_unchecked_iterator<std::_List_val<std::_List_simple_types<std::pair<unsigned int const ,std::basic_string<char,std::char_traits<char>,std::allocator<char> > > > > > *>
PUBLIC	??0_Range_eraser@?$_Hash@V?$_Umap_traits@IV?$basic_string@DU?$char_traits@D@std@@V?$allocator@D@2@@std@@V?$_Uhash_compare@IU?$hash@I@std@@U?$equal_to@I@2@@2@V?$allocator@U?$pair@$$CBIV?$basic_string@DU?$char_traits@D@std@@V?$allocator@D@2@@std@@@std@@@2@$0A@@std@@@std@@QEAA@AEAV?$list@U?$pair@$$CBIV?$basic_string@DU?$char_traits@D@std@@V?$allocator@D@2@@std@@@std@@V?$allocator@U?$pair@$$CBIV?$basic_string@DU?$char_traits@D@std@@V?$allocator@D@2@@std@@@std@@@2@@2@QEAU?$_List_node@U?$pair@$$CBIV?$basic_string@DU?$char_traits@D@std@@V?$allocator@D@2@@std@@@std@@PEAX@2@@Z ; std::_Hash<std::_Umap_traits<unsigned int,std::basic_string<char,std::char_traits<char>,std::allocator<char> >,std::_Uhash_compare<unsigned int,std::hash<unsigned int>,std::equal_to<unsigned int> >,std::allocator<std::pair<unsigned int const ,std::basic_string<char,std::char_traits<char>,std::allocator<char> > > >,0> >::_Range_eraser::_Range_eraser
PUBLIC	?_Bump_erased@_Range_eraser@?$_Hash@V?$_Umap_traits@IV?$basic_string@DU?$char_traits@D@std@@V?$allocator@D@2@@std@@V?$_Uhash_compare@IU?$hash@I@std@@U?$equal_to@I@2@@2@V?$allocator@U?$pair@$$CBIV?$basic_string@DU?$char_traits@D@std@@V?$allocator@D@2@@std@@@std@@@2@$0A@@std@@@std@@QEAAXXZ ; std::_Hash<std::_Umap_traits<unsigned int,std::basic_string<char,std::char_traits<char>,std::allocator<char> >,std::_Uhash_compare<unsigned int,std::hash<unsigned int>,std::equal_to<unsigned int> >,std::allocator<std::pair<unsigned int const ,std::basic_string<char,std::char_traits<char>,std::allocator<char> > > >,0> >::_Range_eraser::_Bump_erased
PUBLIC	??1_Range_eraser@?$_Hash@V?$_Umap_traits@IV?$basic_string@DU?$char_traits@D@std@@V?$allocator@D@2@@std@@V?$_Uhash_compare@IU?$hash@I@std@@U?$equal_to@I@2@@2@V?$allocator@U?$pair@$$CBIV?$basic_string@DU?$char_traits@D@std@@V?$allocator@D@2@@std@@@std@@@2@$0A@@std@@@std@@QEAA@XZ ; std::_Hash<std::_Umap_traits<unsigned int,std::basic_string<char,std::char_traits<char>,std::allocator<char> >,std::_Uhash_compare<unsigned int,std::hash<unsigned int>,std::equal_to<unsigned int> >,std::allocator<std::pair<unsigned int const ,std::basic_string<char,std::char_traits<char>,std::allocator<char> > > >,0> >::_Range_eraser::~_Range_eraser
PUBLIC	??$_Kfn@$$CBIV?$basic_string@DU?$char_traits@D@std@@V?$allocator@D@2@@std@@@?$_Umap_traits@IV?$basic_string@DU?$char_traits@D@std@@V?$allocator@D@2@@std@@V?$_Uhash_compare@IU?$hash@I@std@@U?$equal_to@I@2@@2@V?$allocator@U?$pair@$$CBIV?$basic_string@DU?$char_traits@D@std@@V?$allocator@D@2@@std@@@std@@@2@$0A@@std@@SAAEBIAEBU?$pair@$$CBIV?$basic_string@DU?$char_traits@D@std@@V?$allocator@D@2@@std@@@1@@Z ; std::_Umap_traits<unsigned int,std::basic_string<char,std::char_traits<char>,std::allocator<char> >,std::_Uhash_compare<unsigned int,std::hash<unsigned int>,std::equal_to<unsigned int> >,std::allocator<std::pair<unsigned int const ,std::basic_string<char,std::char_traits<char>,std::allocator<char> > > >,0>::_Kfn<unsigned int const ,std::basic_string<char,std::char_traits<char>,std::allocator<char> > >
PUBLIC	??$?0AEBV?$allocator@U?$pair@$$CBIV?$basic_string@DU?$char_traits@D@std@@V?$allocator@D@2@@std@@@std@@@std@@$0A@@?$_Hash_vec@V?$allocator@V?$_List_unchecked_iterator@V?$_List_val@U?$_List_simple_types@U?$pair@$$CBIV?$basic_string@DU?$char_traits@D@std@@V?$allocator@D@2@@std@@@std@@@std@@@std@@@std@@@std@@@std@@QEAA@AEBV?$allocator@U?$pair@$$CBIV?$basic_string@DU?$char_traits@D@std@@V?$allocator@D@2@@std@@@std@@@1@@Z ; std::_Hash_vec<std::allocator<std::_List_unchecked_iterator<std::_List_val<std::_List_simple_types<std::pair<unsigned int const ,std::basic_string<char,std::char_traits<char>,std::allocator<char> > > > > > > >::_Hash_vec<std::allocator<std::_List_unchecked_iterator<std::_List_val<std::_List_simple_types<std::pair<unsigned int const ,std::basic_string<char,std::char_traits<char>,std::allocator<char> > > > > > > ><std::allocator<std::pair<unsigned int const ,std::basic_string<char,std::char_traits<char>,std::allocator<char> > > > const &,0>
PUBLIC	??$_Free_non_head@V?$allocator@U?$_List_node@U?$pair@$$CBIV?$basic_string@DU?$char_traits@D@std@@V?$allocator@D@2@@std@@@std@@PEAX@std@@@std@@@?$_List_node@U?$pair@$$CBIV?$basic_string@DU?$char_traits@D@std@@V?$allocator@D@2@@std@@@std@@PEAX@std@@SAXAEAV?$allocator@U?$_List_node@U?$pair@$$CBIV?$basic_string@DU?$char_traits@D@std@@V?$allocator@D@2@@std@@@std@@PEAX@std@@@1@PEAU01@@Z ; std::_List_node<std::pair<unsigned int const ,std::basic_string<char,std::char_traits<char>,std::allocator<char> > >,void *>::_Free_non_head<std::allocator<std::_List_node<std::pair<unsigned int const ,std::basic_string<char,std::char_traits<char>,std::allocator<char> > >,void *> > >
PUBLIC	??$_Freenode0@V?$allocator@U?$_List_node@U?$pair@$$CBIV?$basic_string@DU?$char_traits@D@std@@V?$allocator@D@2@@std@@@std@@PEAX@std@@@std@@@?$_List_node@U?$pair@$$CBIV?$basic_string@DU?$char_traits@D@std@@V?$allocator@D@2@@std@@@std@@PEAX@std@@SAXAEAV?$allocator@U?$_List_node@U?$pair@$$CBIV?$basic_string@DU?$char_traits@D@std@@V?$allocator@D@2@@std@@@std@@PEAX@std@@@1@PEAU01@@Z ; std::_List_node<std::pair<unsigned int const ,std::basic_string<char,std::char_traits<char>,std::allocator<char> > >,void *>::_Freenode0<std::allocator<std::_List_node<std::pair<unsigned int const ,std::basic_string<char,std::char_traits<char>,std::allocator<char> > >,void *> > >
PUBLIC	??$addressof@V?$_List_val@U?$_List_simple_types@U?$pair@$$CBIV?$basic_string@DU?$char_traits@D@std@@V?$allocator@D@2@@std@@@std@@@std@@@std@@@std@@YAPEAV?$_List_val@U?$_List_simple_types@U?$pair@$$CBIV?$basic_string@DU?$char_traits@D@std@@V?$allocator@D@2@@std@@@std@@@std@@@0@AEAV10@@Z ; std::addressof<std::_List_val<std::_List_simple_types<std::pair<unsigned int const ,std::basic_string<char,std::char_traits<char>,std::allocator<char> > > > > >
PUBLIC	??$?0U_Zero_then_variadic_args_t@std@@M@?$_Compressed_pair@U?$hash@I@std@@V?$_Compressed_pair@U?$equal_to@I@std@@M$00@2@$00@std@@QEAA@U_Zero_then_variadic_args_t@1@$$QEAU21@$$QEAM@Z ; std::_Compressed_pair<std::hash<unsigned int>,std::_Compressed_pair<std::equal_to<unsigned int>,float,1>,1>::_Compressed_pair<std::hash<unsigned int>,std::_Compressed_pair<std::equal_to<unsigned int>,float,1>,1><std::_Zero_then_variadic_args_t,float>
PUBLIC	??$?0M@?$_Compressed_pair@U?$equal_to@I@std@@M$00@std@@QEAA@U_Zero_then_variadic_args_t@1@$$QEAM@Z ; std::_Compressed_pair<std::equal_to<unsigned int>,float,1>::_Compressed_pair<std::equal_to<unsigned int>,float,1><float>
PUBLIC	??$?0U_Zero_then_variadic_args_t@std@@M@?$_Compressed_pair@U?$hash@_K@std@@V?$_Compressed_pair@U?$equal_to@_K@std@@M$00@2@$00@std@@QEAA@U_Zero_then_variadic_args_t@1@$$QEAU21@$$QEAM@Z ; std::_Compressed_pair<std::hash<unsigned __int64>,std::_Compressed_pair<std::equal_to<unsigned __int64>,float,1>,1>::_Compressed_pair<std::hash<unsigned __int64>,std::_Compressed_pair<std::equal_to<unsigned __int64>,float,1>,1><std::_Zero_then_variadic_args_t,float>
PUBLIC	??$?0M@?$_Compressed_pair@U?$equal_to@_K@std@@M$00@std@@QEAA@U_Zero_then_variadic_args_t@1@$$QEAM@Z ; std::_Compressed_pair<std::equal_to<unsigned __int64>,float,1>::_Compressed_pair<std::equal_to<unsigned __int64>,float,1><float>
PUBLIC	??$_Construct_in_place@PEADAEAPEAD@std@@YAXAEAPEAD0@Z ; std::_Construct_in_place<char *,char * &>
PUBLIC	??$?0AEBV?$allocator@D@std@@$$V@?$_Compressed_pair@V?$allocator@D@std@@V?$_String_val@U?$_Simple_types@D@std@@@2@$00@std@@QEAA@U_One_then_variadic_args_t@1@AEBV?$allocator@D@1@@Z ; std::_Compressed_pair<std::allocator<char>,std::_String_val<std::_Simple_types<char> >,1>::_Compressed_pair<std::allocator<char>,std::_String_val<std::_Simple_types<char> >,1><std::allocator<char> const &>
PUBLIC	??$_Deallocate@$0BA@@std@@YAXPEAX_K@Z		; std::_Deallocate<16>
PUBLIC	??$_Freenode@V?$allocator@U?$_List_node@U?$pair@$$CBIV?$basic_string@DU?$char_traits@D@std@@V?$allocator@D@2@@std@@@std@@PEAX@std@@@std@@@?$_List_node@U?$pair@$$CBIV?$basic_string@DU?$char_traits@D@std@@V?$allocator@D@2@@std@@@std@@PEAX@std@@SAXAEAV?$allocator@U?$_List_node@U?$pair@$$CBIV?$basic_string@DU?$char_traits@D@std@@V?$allocator@D@2@@std@@@std@@PEAX@std@@@1@PEAU01@@Z ; std::_List_node<std::pair<unsigned int const ,std::basic_string<char,std::char_traits<char>,std::allocator<char> > >,void *>::_Freenode<std::allocator<std::_List_node<std::pair<unsigned int const ,std::basic_string<char,std::char_traits<char>,std::allocator<char> > >,void *> > >
PUBLIC	??$_Freenode@V?$allocator@U?$_List_node@U?$pair@$$CB_KV?$basic_string@DU?$char_traits@D@std@@V?$allocator@D@2@@std@@@std@@PEAX@std@@@std@@@?$_List_node@U?$pair@$$CB_KV?$basic_string@DU?$char_traits@D@std@@V?$allocator@D@2@@std@@@std@@PEAX@std@@SAXAEAV?$allocator@U?$_List_node@U?$pair@$$CB_KV?$basic_string@DU?$char_traits@D@std@@V?$allocator@D@2@@std@@@std@@PEAX@std@@@1@PEAU01@@Z ; std::_List_node<std::pair<unsigned __int64 const ,std::basic_string<char,std::char_traits<char>,std::allocator<char> > >,void *>::_Freenode<std::allocator<std::_List_node<std::pair<unsigned __int64 const ,std::basic_string<char,std::char_traits<char>,std::allocator<char> > >,void *> > >
PUBLIC	??$uninitialized_fill@PEAV?$_List_unchecked_iterator@V?$_List_val@U?$_List_simple_types@U?$pair@$$CB_K_K@std@@@std@@@std@@@std@@V12@@std@@YAXQEAV?$_List_unchecked_iterator@V?$_List_val@U?$_List_simple_types@U?$pair@$$CB_K_K@std@@@std@@@std@@@0@0AEBV10@@Z ; std::uninitialized_fill<std::_List_unchecked_iterator<std::_List_val<std::_List_simple_types<std::pair<unsigned __int64 const ,unsigned __int64> > > > *,std::_List_unchecked_iterator<std::_List_val<std::_List_simple_types<std::pair<unsigned __int64 const ,unsigned __int64> > > > >
PUBLIC	??$fill@PEAV?$_List_unchecked_iterator@V?$_List_val@U?$_List_simple_types@U?$pair@$$CB_K_K@std@@@std@@@std@@@std@@V12@@std@@YAXQEAV?$_List_unchecked_iterator@V?$_List_val@U?$_List_simple_types@U?$pair@$$CB_K_K@std@@@std@@@std@@@0@0AEBV10@@Z ; std::fill<std::_List_unchecked_iterator<std::_List_val<std::_List_simple_types<std::pair<unsigned __int64 const ,unsigned __int64> > > > *,std::_List_unchecked_iterator<std::_List_val<std::_List_simple_types<std::pair<unsigned __int64 const ,unsigned __int64> > > > >
PUBLIC	??$?0AEBV?$allocator@U?$pair@$$CB_K_K@std@@@std@@$$V@?$_Compressed_pair@V?$allocator@U?$_List_node@U?$pair@$$CB_K_K@std@@PEAX@std@@@std@@V?$_List_val@U?$_List_simple_types@U?$pair@$$CB_K_K@std@@@std@@@2@$00@std@@QEAA@U_One_then_variadic_args_t@1@AEBV?$allocator@U?$pair@$$CB_K_K@std@@@1@@Z ; std::_Compressed_pair<std::allocator<std::_List_node<std::pair<unsigned __int64 const ,unsigned __int64>,void *> >,std::_List_val<std::_List_simple_types<std::pair<unsigned __int64 const ,unsigned __int64> > >,1>::_Compressed_pair<std::allocator<std::_List_node<std::pair<unsigned __int64 const ,unsigned __int64>,void *> >,std::_List_val<std::_List_simple_types<std::pair<unsigned __int64 const ,unsigned __int64> > >,1><std::allocator<std::pair<unsigned __int64 const ,unsigned __int64> > const &>
PUBLIC	??$?0U?$pair@$$CB_K_K@std@@@?$allocator@U?$_List_node@U?$pair@$$CB_K_K@std@@PEAX@std@@@std@@QEAA@AEBV?$allocator@U?$pair@$$CB_K_K@std@@@1@@Z ; std::allocator<std::_List_node<std::pair<unsigned __int64 const ,unsigned __int64>,void *> >::allocator<std::_List_node<std::pair<unsigned __int64 const ,unsigned __int64>,void *> ><std::pair<unsigned __int64 const ,unsigned __int64> >
PUBLIC	??$uninitialized_fill@PEAV?$_List_unchecked_iterator@V?$_List_val@U?$_List_simple_types@U?$pair@$$CB_KV?$basic_string@DU?$char_traits@D@std@@V?$allocator@D@2@@std@@@std@@@std@@@std@@@std@@V12@@std@@YAXQEAV?$_List_unchecked_iterator@V?$_List_val@U?$_List_simple_types@U?$pair@$$CB_KV?$basic_string@DU?$char_traits@D@std@@V?$allocator@D@2@@std@@@std@@@std@@@std@@@0@0AEBV10@@Z ; std::uninitialized_fill<std::_List_unchecked_iterator<std::_List_val<std::_List_simple_types<std::pair<unsigned __int64 const ,std::basic_string<char,std::char_traits<char>,std::allocator<char> > > > > > *,std::_List_unchecked_iterator<std::_List_val<std::_List_simple_types<std::pair<unsigned __int64 const ,std::basic_string<char,std::char_traits<char>,std::allocator<char> > > > > > >
PUBLIC	??$?0AEBV?$allocator@U?$pair@$$CB_KV?$basic_string@DU?$char_traits@D@std@@V?$allocator@D@2@@std@@@std@@@std@@$$V@?$_Compressed_pair@V?$allocator@U?$_List_node@U?$pair@$$CB_KV?$basic_string@DU?$char_traits@D@std@@V?$allocator@D@2@@std@@@std@@PEAX@std@@@std@@V?$_List_val@U?$_List_simple_types@U?$pair@$$CB_KV?$basic_string@DU?$char_traits@D@std@@V?$allocator@D@2@@std@@@std@@@std@@@2@$00@std@@QEAA@U_One_then_variadic_args_t@1@AEBV?$allocator@U?$pair@$$CB_KV?$basic_string@DU?$char_traits@D@std@@V?$allocator@D@2@@std@@@std@@@1@@Z ; std::_Compressed_pair<std::allocator<std::_List_node<std::pair<unsigned __int64 const ,std::basic_string<char,std::char_traits<char>,std::allocator<char> > >,void *> >,std::_List_val<std::_List_simple_types<std::pair<unsigned __int64 const ,std::basic_string<char,std::char_traits<char>,std::allocator<char> > > > >,1>::_Compressed_pair<std::allocator<std::_List_node<std::pair<unsigned __int64 const ,std::basic_string<char,std::char_traits<char>,std::allocator<char> > >,void *> >,std::_List_val<std::_List_simple_types<std::pair<unsigned __int64 const ,std::basic_string<char,std::char_traits<char>,std::allocator<char> > > > >,1><std::allocator<std::pair<unsigned __int64 const ,std::basic_string<char,std::char_traits<char>,std::allocator<char> > > > const &>
PUBLIC	??$?0U?$pair@$$CB_KV?$basic_string@DU?$char_traits@D@std@@V?$allocator@D@2@@std@@@std@@@?$allocator@U?$_List_node@U?$pair@$$CB_KV?$basic_string@DU?$char_traits@D@std@@V?$allocator@D@2@@std@@@std@@PEAX@std@@@std@@QEAA@AEBV?$allocator@U?$pair@$$CB_KV?$basic_string@DU?$char_traits@D@std@@V?$allocator@D@2@@std@@@std@@@1@@Z ; std::allocator<std::_List_node<std::pair<unsigned __int64 const ,std::basic_string<char,std::char_traits<char>,std::allocator<char> > >,void *> >::allocator<std::_List_node<std::pair<unsigned __int64 const ,std::basic_string<char,std::char_traits<char>,std::allocator<char> > >,void *> ><std::pair<unsigned __int64 const ,std::basic_string<char,std::char_traits<char>,std::allocator<char> > > >
PUBLIC	??$uninitialized_fill@PEAV?$_List_unchecked_iterator@V?$_List_val@U?$_List_simple_types@U?$pair@$$CBIV?$basic_string@DU?$char_traits@D@std@@V?$allocator@D@2@@std@@@std@@@std@@@std@@@std@@V12@@std@@YAXQEAV?$_List_unchecked_iterator@V?$_List_val@U?$_List_simple_types@U?$pair@$$CBIV?$basic_string@DU?$char_traits@D@std@@V?$allocator@D@2@@std@@@std@@@std@@@std@@@0@0AEBV10@@Z ; std::uninitialized_fill<std::_List_unchecked_iterator<std::_List_val<std::_List_simple_types<std::pair<unsigned int const ,std::basic_string<char,std::char_traits<char>,std::allocator<char> > > > > > *,std::_List_unchecked_iterator<std::_List_val<std::_List_simple_types<std::pair<unsigned int const ,std::basic_string<char,std::char_traits<char>,std::allocator<char> > > > > > >
PUBLIC	??$?0AEBV?$allocator@U?$pair@$$CBIV?$basic_string@DU?$char_traits@D@std@@V?$allocator@D@2@@std@@@std@@@std@@$$V@?$_Compressed_pair@V?$allocator@U?$_List_node@U?$pair@$$CBIV?$basic_string@DU?$char_traits@D@std@@V?$allocator@D@2@@std@@@std@@PEAX@std@@@std@@V?$_List_val@U?$_List_simple_types@U?$pair@$$CBIV?$basic_string@DU?$char_traits@D@std@@V?$allocator@D@2@@std@@@std@@@std@@@2@$00@std@@QEAA@U_One_then_variadic_args_t@1@AEBV?$allocator@U?$pair@$$CBIV?$basic_string@DU?$char_traits@D@std@@V?$allocator@D@2@@std@@@std@@@1@@Z ; std::_Compressed_pair<std::allocator<std::_List_node<std::pair<unsigned int const ,std::basic_string<char,std::char_traits<char>,std::allocator<char> > >,void *> >,std::_List_val<std::_List_simple_types<std::pair<unsigned int const ,std::basic_string<char,std::char_traits<char>,std::allocator<char> > > > >,1>::_Compressed_pair<std::allocator<std::_List_node<std::pair<unsigned int const ,std::basic_string<char,std::char_traits<char>,std::allocator<char> > >,void *> >,std::_List_val<std::_List_simple_types<std::pair<unsigned int const ,std::basic_string<char,std::char_traits<char>,std::allocator<char> > > > >,1><std::allocator<std::pair<unsigned int const ,std::basic_string<char,std::char_traits<char>,std::allocator<char> > > > const &>
PUBLIC	??$?0U?$pair@$$CBIV?$basic_string@DU?$char_traits@D@std@@V?$allocator@D@2@@std@@@std@@@?$allocator@U?$_List_node@U?$pair@$$CBIV?$basic_string@DU?$char_traits@D@std@@V?$allocator@D@2@@std@@@std@@PEAX@std@@@std@@QEAA@AEBV?$allocator@U?$pair@$$CBIV?$basic_string@DU?$char_traits@D@std@@V?$allocator@D@2@@std@@@std@@@1@@Z ; std::allocator<std::_List_node<std::pair<unsigned int const ,std::basic_string<char,std::char_traits<char>,std::allocator<char> > >,void *> >::allocator<std::_List_node<std::pair<unsigned int const ,std::basic_string<char,std::char_traits<char>,std::allocator<char> > >,void *> ><std::pair<unsigned int const ,std::basic_string<char,std::char_traits<char>,std::allocator<char> > > >
PUBLIC	??$_Get_size_of_n@$0CA@@std@@YA_K_K@Z		; std::_Get_size_of_n<32>
PUBLIC	??$_Allocate@$0BA@U_Default_allocate_traits@std@@@std@@YAPEAX_K@Z ; std::_Allocate<16,std::_Default_allocate_traits>
PUBLIC	??$_Construct_in_place@PEADAEBQEAD@std@@YAXAEAPEADAEBQEAD@Z ; std::_Construct_in_place<char *,char * const &>
PUBLIC	??$_Destroy_in_place@PEAD@std@@YAXAEAPEAD@Z	; std::_Destroy_in_place<char *>
PUBLIC	??$_Get_size_of_n@$07@std@@YA_K_K@Z		; std::_Get_size_of_n<8>
PUBLIC	??$_Construct_in_place@PEAU?$_List_node@U?$pair@$$CB_K_K@std@@PEAX@std@@AEAPEAU12@@std@@YAXAEAPEAU?$_List_node@U?$pair@$$CB_K_K@std@@PEAX@0@0@Z ; std::_Construct_in_place<std::_List_node<std::pair<unsigned __int64 const ,unsigned __int64>,void *> *,std::_List_node<std::pair<unsigned __int64 const ,unsigned __int64>,void *> * &>
PUBLIC	??$_Construct_in_place@PEAU?$_List_node@U?$pair@$$CB_KV?$basic_string@DU?$char_traits@D@std@@V?$allocator@D@2@@std@@@std@@PEAX@std@@AEAPEAU12@@std@@YAXAEAPEAU?$_List_node@U?$pair@$$CB_KV?$basic_string@DU?$char_traits@D@std@@V?$allocator@D@2@@std@@@std@@PEAX@0@0@Z ; std::_Construct_in_place<std::_List_node<std::pair<unsigned __int64 const ,std::basic_string<char,std::char_traits<char>,std::allocator<char> > >,void *> *,std::_List_node<std::pair<unsigned __int64 const ,std::basic_string<char,std::char_traits<char>,std::allocator<char> > >,void *> * &>
PUBLIC	??$_Construct_in_place@PEAU?$_List_node@U?$pair@$$CBIV?$basic_string@DU?$char_traits@D@std@@V?$allocator@D@2@@std@@@std@@PEAX@std@@AEAPEAU12@@std@@YAXAEAPEAU?$_List_node@U?$pair@$$CBIV?$basic_string@DU?$char_traits@D@std@@V?$allocator@D@2@@std@@@std@@PEAX@0@0@Z ; std::_Construct_in_place<std::_List_node<std::pair<unsigned int const ,std::basic_string<char,std::char_traits<char>,std::allocator<char> > >,void *> *,std::_List_node<std::pair<unsigned int const ,std::basic_string<char,std::char_traits<char>,std::allocator<char> > >,void *> * &>
PUBLIC	??$?R_K_K@?$_Uhash_compare@_KU?$hash@_K@std@@U?$equal_to@_K@2@@std@@QEBA_NAEB_K0@Z ; std::_Uhash_compare<unsigned __int64,std::hash<unsigned __int64>,std::equal_to<unsigned __int64> >::operator()<unsigned __int64,unsigned __int64>
PUBLIC	??$_Get_size_of_n@$0DI@@std@@YA_K_K@Z		; std::_Get_size_of_n<56>
PUBLIC	??$_Fnv1a_append_value@I@std@@YA_K_KAEBI@Z	; std::_Fnv1a_append_value<unsigned int>
PUBLIC	??$forward@AEAV?$basic_string@DU?$char_traits@D@std@@V?$allocator@D@2@@std@@@std@@YAAEAV?$basic_string@DU?$char_traits@D@std@@V?$allocator@D@2@@0@AEAV10@@Z ; std::forward<std::basic_string<char,std::char_traits<char>,std::allocator<char> > &>
PUBLIC	??$forward@AEA_K@std@@YAAEA_KAEA_K@Z		; std::forward<unsigned __int64 &>
PUBLIC	??$forward@AEAH@std@@YAAEAHAEAH@Z		; std::forward<int &>
PUBLIC	??$_Find@_K@?$_Hash@V?$_Umap_traits@_K_KV?$_Uhash_compare@_KU?$hash@_K@std@@U?$equal_to@_K@2@@std@@V?$allocator@U?$pair@$$CB_K_K@std@@@2@$0A@@std@@@std@@AEBAPEAU?$_List_node@U?$pair@$$CB_K_K@std@@PEAX@1@AEB_K_K@Z ; std::_Hash<std::_Umap_traits<unsigned __int64,unsigned __int64,std::_Uhash_compare<unsigned __int64,std::hash<unsigned __int64>,std::equal_to<unsigned __int64> >,std::allocator<std::pair<unsigned __int64 const ,unsigned __int64> >,0> >::_Find<unsigned __int64>
PUBLIC	?_Extract@?$_In_place_key_extract_map_impl@_K_K_K@std@@SAAEB_KAEB_K0@Z ; std::_In_place_key_extract_map_impl<unsigned __int64,unsigned __int64,unsigned __int64>::_Extract
PUBLIC	??$_Find_last@_K@?$_Hash@V?$_Umap_traits@_K_KV?$_Uhash_compare@_KU?$hash@_K@std@@U?$equal_to@_K@2@@std@@V?$allocator@U?$pair@$$CB_K_K@std@@@2@$0A@@std@@@std@@IEBA?AU?$_Hash_find_last_result@PEAU?$_List_node@U?$pair@$$CB_K_K@std@@PEAX@std@@@1@AEB_K_K@Z ; std::_Hash<std::_Umap_traits<unsigned __int64,unsigned __int64,std::_Uhash_compare<unsigned __int64,std::hash<unsigned __int64>,std::equal_to<unsigned __int64> >,std::allocator<std::pair<unsigned __int64 const ,unsigned __int64> >,0> >::_Find_last<unsigned __int64>
PUBLIC	??$?0V?$_List_iterator@V?$_List_val@U?$_List_simple_types@U?$pair@$$CB_K_K@std@@@std@@@std@@@std@@_N$0A@@?$pair@V?$_List_iterator@V?$_List_val@U?$_List_simple_types@U?$pair@$$CB_K_K@std@@@std@@@std@@@std@@_N@std@@QEAA@$$QEAV?$_List_iterator@V?$_List_val@U?$_List_simple_types@U?$pair@$$CB_K_K@std@@@std@@@std@@@1@$$QEA_N@Z ; std::pair<std::_List_iterator<std::_List_val<std::_List_simple_types<std::pair<unsigned __int64 const ,unsigned __int64> > > >,bool>::pair<std::_List_iterator<std::_List_val<std::_List_simple_types<std::pair<unsigned __int64 const ,unsigned __int64> > > >,bool><std::_List_iterator<std::_List_val<std::_List_simple_types<std::pair<unsigned __int64 const ,unsigned __int64> > > >,bool,0>
PUBLIC	??0?$_Alloc_construct_ptr@V?$allocator@U?$_List_node@U?$pair@$$CB_K_K@std@@PEAX@std@@@std@@@std@@QEAA@AEAV?$allocator@U?$_List_node@U?$pair@$$CB_K_K@std@@PEAX@std@@@1@@Z ; std::_Alloc_construct_ptr<std::allocator<std::_List_node<std::pair<unsigned __int64 const ,unsigned __int64>,void *> > >::_Alloc_construct_ptr<std::allocator<std::_List_node<std::pair<unsigned __int64 const ,unsigned __int64>,void *> > >
PUBLIC	?_Release@?$_Alloc_construct_ptr@V?$allocator@U?$_List_node@U?$pair@$$CB_K_K@std@@PEAX@std@@@std@@@std@@QEAAPEAU?$_List_node@U?$pair@$$CB_K_K@std@@PEAX@2@XZ ; std::_Alloc_construct_ptr<std::allocator<std::_List_node<std::pair<unsigned __int64 const ,unsigned __int64>,void *> > >::_Release
PUBLIC	?_Allocate@?$_Alloc_construct_ptr@V?$allocator@U?$_List_node@U?$pair@$$CB_K_K@std@@PEAX@std@@@std@@@std@@QEAAXXZ ; std::_Alloc_construct_ptr<std::allocator<std::_List_node<std::pair<unsigned __int64 const ,unsigned __int64>,void *> > >::_Allocate
PUBLIC	??1?$_Alloc_construct_ptr@V?$allocator@U?$_List_node@U?$pair@$$CB_K_K@std@@PEAX@std@@@std@@@std@@QEAA@XZ ; std::_Alloc_construct_ptr<std::allocator<std::_List_node<std::pair<unsigned __int64 const ,unsigned __int64>,void *> > >::~_Alloc_construct_ptr<std::allocator<std::_List_node<std::pair<unsigned __int64 const ,unsigned __int64>,void *> > >
PUBLIC	??1?$_List_node_emplace_op2@V?$allocator@U?$_List_node@U?$pair@$$CB_K_K@std@@PEAX@std@@@std@@@std@@QEAA@XZ ; std::_List_node_emplace_op2<std::allocator<std::_List_node<std::pair<unsigned __int64 const ,unsigned __int64>,void *> > >::~_List_node_emplace_op2<std::allocator<std::_List_node<std::pair<unsigned __int64 const ,unsigned __int64>,void *> > >
PUBLIC	??$?0AEA_KAEA_K@?$_List_node_emplace_op2@V?$allocator@U?$_List_node@U?$pair@$$CB_K_K@std@@PEAX@std@@@std@@@std@@QEAA@AEAV?$allocator@U?$_List_node@U?$pair@$$CB_K_K@std@@PEAX@std@@@1@AEA_K1@Z ; std::_List_node_emplace_op2<std::allocator<std::_List_node<std::pair<unsigned __int64 const ,unsigned __int64>,void *> > >::_List_node_emplace_op2<std::allocator<std::_List_node<std::pair<unsigned __int64 const ,unsigned __int64>,void *> > ><unsigned __int64 &,unsigned __int64 &>
PUBLIC	??$_Kfn@$$CB_K_K@?$_Umap_traits@_K_KV?$_Uhash_compare@_KU?$hash@_K@std@@U?$equal_to@_K@2@@std@@V?$allocator@U?$pair@$$CB_K_K@std@@@2@$0A@@std@@SAAEB_KAEBU?$pair@$$CB_K_K@1@@Z ; std::_Umap_traits<unsigned __int64,unsigned __int64,std::_Uhash_compare<unsigned __int64,std::hash<unsigned __int64>,std::equal_to<unsigned __int64> >,std::allocator<std::pair<unsigned __int64 const ,unsigned __int64> >,0>::_Kfn<unsigned __int64 const ,unsigned __int64>
PUBLIC	??$_Find@I@?$_Hash@V?$_Umap_traits@IV?$basic_string@DU?$char_traits@D@std@@V?$allocator@D@2@@std@@V?$_Uhash_compare@IU?$hash@I@std@@U?$equal_to@I@2@@2@V?$allocator@U?$pair@$$CBIV?$basic_string@DU?$char_traits@D@std@@V?$allocator@D@2@@std@@@std@@@2@$0A@@std@@@std@@AEBAPEAU?$_List_node@U?$pair@$$CBIV?$basic_string@DU?$char_traits@D@std@@V?$allocator@D@2@@std@@@std@@PEAX@1@AEBI_K@Z ; std::_Hash<std::_Umap_traits<unsigned int,std::basic_string<char,std::char_traits<char>,std::allocator<char> >,std::_Uhash_compare<unsigned int,std::hash<unsigned int>,std::equal_to<unsigned int> >,std::allocator<std::pair<unsigned int const ,std::basic_string<char,std::char_traits<char>,std::allocator<char> > > >,0> >::_Find<unsigned int>
PUBLIC	??0?$_Alloc_construct_ptr@V?$allocator@U?$_List_node@U?$pair@$$CBIV?$basic_string@DU?$char_traits@D@std@@V?$allocator@D@2@@std@@@std@@PEAX@std@@@std@@@std@@QEAA@AEAV?$allocator@U?$_List_node@U?$pair@$$CBIV?$basic_string@DU?$char_traits@D@std@@V?$allocator@D@2@@std@@@std@@PEAX@std@@@1@@Z ; std::_Alloc_construct_ptr<std::allocator<std::_List_node<std::pair<unsigned int const ,std::basic_string<char,std::char_traits<char>,std::allocator<char> > >,void *> > >::_Alloc_construct_ptr<std::allocator<std::_List_node<std::pair<unsigned int const ,std::basic_string<char,std::char_traits<char>,std::allocator<char> > >,void *> > >
PUBLIC	?_Release@?$_Alloc_construct_ptr@V?$allocator@U?$_List_node@U?$pair@$$CBIV?$basic_string@DU?$char_traits@D@std@@V?$allocator@D@2@@std@@@std@@PEAX@std@@@std@@@std@@QEAAPEAU?$_List_node@U?$pair@$$CBIV?$basic_string@DU?$char_traits@D@std@@V?$allocator@D@2@@std@@@std@@PEAX@2@XZ ; std::_Alloc_construct_ptr<std::allocator<std::_List_node<std::pair<unsigned int const ,std::basic_string<char,std::char_traits<char>,std::allocator<char> > >,void *> > >::_Release
PUBLIC	?_Allocate@?$_Alloc_construct_ptr@V?$allocator@U?$_List_node@U?$pair@$$CBIV?$basic_string@DU?$char_traits@D@std@@V?$allocator@D@2@@std@@@std@@PEAX@std@@@std@@@std@@QEAAXXZ ; std::_Alloc_construct_ptr<std::allocator<std::_List_node<std::pair<unsigned int const ,std::basic_string<char,std::char_traits<char>,std::allocator<char> > >,void *> > >::_Allocate
PUBLIC	??1?$_Alloc_construct_ptr@V?$allocator@U?$_List_node@U?$pair@$$CBIV?$basic_string@DU?$char_traits@D@std@@V?$allocator@D@2@@std@@@std@@PEAX@std@@@std@@@std@@QEAA@XZ ; std::_Alloc_construct_ptr<std::allocator<std::_List_node<std::pair<unsigned int const ,std::basic_string<char,std::char_traits<char>,std::allocator<char> > >,void *> > >::~_Alloc_construct_ptr<std::allocator<std::_List_node<std::pair<unsigned int const ,std::basic_string<char,std::char_traits<char>,std::allocator<char> > >,void *> > >
PUBLIC	??1?$_List_node_emplace_op2@V?$allocator@U?$_List_node@U?$pair@$$CBIV?$basic_string@DU?$char_traits@D@std@@V?$allocator@D@2@@std@@@std@@PEAX@std@@@std@@@std@@QEAA@XZ ; std::_List_node_emplace_op2<std::allocator<std::_List_node<std::pair<unsigned int const ,std::basic_string<char,std::char_traits<char>,std::allocator<char> > >,void *> > >::~_List_node_emplace_op2<std::allocator<std::_List_node<std::pair<unsigned int const ,std::basic_string<char,std::char_traits<char>,std::allocator<char> > >,void *> > >
PUBLIC	??$?0AEAHAEAV?$basic_string@DU?$char_traits@D@std@@V?$allocator@D@2@@std@@@?$_List_node_emplace_op2@V?$allocator@U?$_List_node@U?$pair@$$CBIV?$basic_string@DU?$char_traits@D@std@@V?$allocator@D@2@@std@@@std@@PEAX@std@@@std@@@std@@QEAA@AEAV?$allocator@U?$_List_node@U?$pair@$$CBIV?$basic_string@DU?$char_traits@D@std@@V?$allocator@D@2@@std@@@std@@PEAX@std@@@1@AEAHAEAV?$basic_string@DU?$char_traits@D@std@@V?$allocator@D@2@@1@@Z ; std::_List_node_emplace_op2<std::allocator<std::_List_node<std::pair<unsigned int const ,std::basic_string<char,std::char_traits<char>,std::allocator<char> > >,void *> > >::_List_node_emplace_op2<std::allocator<std::_List_node<std::pair<unsigned int const ,std::basic_string<char,std::char_traits<char>,std::allocator<char> > >,void *> > ><int &,std::basic_string<char,std::char_traits<char>,std::allocator<char> > &>
PUBLIC	??$_Find_last@I@?$_Hash@V?$_Umap_traits@IV?$basic_string@DU?$char_traits@D@std@@V?$allocator@D@2@@std@@V?$_Uhash_compare@IU?$hash@I@std@@U?$equal_to@I@2@@2@V?$allocator@U?$pair@$$CBIV?$basic_string@DU?$char_traits@D@std@@V?$allocator@D@2@@std@@@std@@@2@$0A@@std@@@std@@IEBA?AU?$_Hash_find_last_result@PEAU?$_List_node@U?$pair@$$CBIV?$basic_string@DU?$char_traits@D@std@@V?$allocator@D@2@@std@@@std@@PEAX@std@@@1@AEBI_K@Z ; std::_Hash<std::_Umap_traits<unsigned int,std::basic_string<char,std::char_traits<char>,std::allocator<char> >,std::_Uhash_compare<unsigned int,std::hash<unsigned int>,std::equal_to<unsigned int> >,std::allocator<std::pair<unsigned int const ,std::basic_string<char,std::char_traits<char>,std::allocator<char> > > >,0> >::_Find_last<unsigned int>
PUBLIC	??$?0V?$_List_iterator@V?$_List_val@U?$_List_simple_types@U?$pair@$$CBIV?$basic_string@DU?$char_traits@D@std@@V?$allocator@D@2@@std@@@std@@@std@@@std@@@std@@_N$0A@@?$pair@V?$_List_iterator@V?$_List_val@U?$_List_simple_types@U?$pair@$$CBIV?$basic_string@DU?$char_traits@D@std@@V?$allocator@D@2@@std@@@std@@@std@@@std@@@std@@_N@std@@QEAA@$$QEAV?$_List_iterator@V?$_List_val@U?$_List_simple_types@U?$pair@$$CBIV?$basic_string@DU?$char_traits@D@std@@V?$allocator@D@2@@std@@@std@@@std@@@std@@@1@$$QEA_N@Z ; std::pair<std::_List_iterator<std::_List_val<std::_List_simple_types<std::pair<unsigned int const ,std::basic_string<char,std::char_traits<char>,std::allocator<char> > > > > >,bool>::pair<std::_List_iterator<std::_List_val<std::_List_simple_types<std::pair<unsigned int const ,std::basic_string<char,std::char_traits<char>,std::allocator<char> > > > > >,bool><std::_List_iterator<std::_List_val<std::_List_simple_types<std::pair<unsigned int const ,std::basic_string<char,std::char_traits<char>,std::allocator<char> > > > > >,bool,0>
