; Listing generated by Microsoft (R) Optimizing Compiler Version 19.43.34810.0 

include listing.inc

INCLUDELIB LIBCMT
INCLUDELIB OLDNAMES

CONST	SEGMENT
?NoInit@asmjit@@3U_NoInit@1@B	ORG $+1			; asmjit::NoInit
CONST	ENDS
PUBLIC	??0Runtime@asmjit@@QEAA@XZ			; asmjit::Runtime::Runtime
PUBLIC	??1Runtime@asmjit@@UEAA@XZ			; asmjit::Runtime::~Runtime
PUBLIC	??_GRuntime@asmjit@@UEAAPEAXI@Z			; asmjit::Runtime::`scalar deleting destructor'
PUBLIC	??0HostRuntime@asmjit@@QEAA@XZ			; asmjit::HostRuntime::HostRuntime
PUBLIC	??1HostRuntime@asmjit@@UEAA@XZ			; asmjit::HostRuntime::~HostRuntime
PUBLIC	?getCpuInfo@HostRuntime@asmjit@@UEAAPEBUCpuInfo@2@XZ ; asmjit::HostRuntime::getCpuInfo
PUBLIC	?getStackAlignment@HostRuntime@asmjit@@UEAAIXZ	; asmjit::HostRuntime::getStackAlignment
PUBLIC	?flush@HostRuntime@asmjit@@UEAAXPEAX_K@Z	; asmjit::HostRuntime::flush
PUBLIC	??_GHostRuntime@asmjit@@UEAAPEAXI@Z		; asmjit::HostRuntime::`scalar deleting destructor'
PUBLIC	??0StaticRuntime@asmjit@@QEAA@PEAX_K@Z		; asmjit::StaticRuntime::StaticRuntime
PUBLIC	??1StaticRuntime@asmjit@@UEAA@XZ		; asmjit::StaticRuntime::~StaticRuntime
PUBLIC	?add@StaticRuntime@asmjit@@UEAAIPEAPEAXPEAUAssembler@2@@Z ; asmjit::StaticRuntime::add
PUBLIC	?release@StaticRuntime@asmjit@@UEAAIPEAX@Z	; asmjit::StaticRuntime::release
PUBLIC	??_GStaticRuntime@asmjit@@UEAAPEAXI@Z		; asmjit::StaticRuntime::`scalar deleting destructor'
PUBLIC	??0JitRuntime@asmjit@@QEAA@XZ			; asmjit::JitRuntime::JitRuntime
PUBLIC	??1JitRuntime@asmjit@@UEAA@XZ			; asmjit::JitRuntime::~JitRuntime
PUBLIC	?getAllocType@JitRuntime@asmjit@@QEBAIXZ	; asmjit::JitRuntime::getAllocType
PUBLIC	?add@JitRuntime@asmjit@@UEAAIPEAPEAXPEAUAssembler@2@@Z ; asmjit::JitRuntime::add
PUBLIC	?release@JitRuntime@asmjit@@UEAAIPEAX@Z		; asmjit::JitRuntime::release
PUBLIC	??_GJitRuntime@asmjit@@UEAAPEAXI@Z		; asmjit::JitRuntime::`scalar deleting destructor'
PUBLIC	?getOffset@Assembler@asmjit@@QEBA_KXZ		; asmjit::Assembler::getOffset
PUBLIC	?getCodeSize@Assembler@asmjit@@QEBA_KXZ		; asmjit::Assembler::getCodeSize
PUBLIC	?getTrampolineSize@Assembler@asmjit@@QEBA_KXZ	; asmjit::Assembler::getTrampolineSize
PUBLIC	??_7Runtime@asmjit@@6B@				; asmjit::Runtime::`vftable'
PUBLIC	??_7HostRuntime@asmjit@@6B@			; asmjit::HostRuntime::`vftable'
PUBLIC	??_7StaticRuntime@asmjit@@6B@			; asmjit::StaticRuntime::`vftable'
PUBLIC	??_7JitRuntime@asmjit@@6B@			; asmjit::JitRuntime::`vftable'
PUBLIC	??_R4Runtime@asmjit@@6B@			; asmjit::Runtime::`RTTI Complete Object Locator'
PUBLIC	??_R0?AURuntime@asmjit@@@8			; asmjit::Runtime `RTTI Type Descriptor'
PUBLIC	??_R3Runtime@asmjit@@8				; asmjit::Runtime::`RTTI Class Hierarchy Descriptor'
PUBLIC	??_R2Runtime@asmjit@@8				; asmjit::Runtime::`RTTI Base Class Array'
PUBLIC	??_R1A@?0A@EA@Runtime@asmjit@@8			; asmjit::Runtime::`RTTI Base Class Descriptor at (0,-1,0,64)'
PUBLIC	??_R4HostRuntime@asmjit@@6B@			; asmjit::HostRuntime::`RTTI Complete Object Locator'
PUBLIC	??_R0?AUHostRuntime@asmjit@@@8			; asmjit::HostRuntime `RTTI Type Descriptor'
PUBLIC	??_R3HostRuntime@asmjit@@8			; asmjit::HostRuntime::`RTTI Class Hierarchy Descriptor'
PUBLIC	??_R2HostRuntime@asmjit@@8			; asmjit::HostRuntime::`RTTI Base Class Array'
PUBLIC	??_R1A@?0A@EA@HostRuntime@asmjit@@8		; asmjit::HostRuntime::`RTTI Base Class Descriptor at (0,-1,0,64)'
PUBLIC	??_R4StaticRuntime@asmjit@@6B@			; asmjit::StaticRuntime::`RTTI Complete Object Locator'
PUBLIC	??_R0?AUStaticRuntime@asmjit@@@8		; asmjit::StaticRuntime `RTTI Type Descriptor'
PUBLIC	??_R3StaticRuntime@asmjit@@8			; asmjit::StaticRuntime::`RTTI Class Hierarchy Descriptor'
PUBLIC	??_R2StaticRuntime@asmjit@@8			; asmjit::StaticRuntime::`RTTI Base Class Array'
PUBLIC	??_R1A@?0A@EA@StaticRuntime@asmjit@@8		; asmjit::StaticRuntime::`RTTI Base Class Descriptor at (0,-1,0,64)'
PUBLIC	??_R4JitRuntime@asmjit@@6B@			; asmjit::JitRuntime::`RTTI Complete Object Locator'
PUBLIC	??_R0?AUJitRuntime@asmjit@@@8			; asmjit::JitRuntime `RTTI Type Descriptor'
PUBLIC	??_R3JitRuntime@asmjit@@8			; asmjit::JitRuntime::`RTTI Class Hierarchy Descriptor'
PUBLIC	??_R2JitRuntime@asmjit@@8			; asmjit::JitRuntime::`RTTI Base Class Array'
PUBLIC	??_R1A@?0A@EA@JitRuntime@asmjit@@8		; asmjit::JitRuntime::`RTTI Base Class Descriptor at (0,-1,0,64)'
EXTRN	_purecall:PROC
EXTRN	??3@YAXPEAX_K@Z:PROC				; operator delete
EXTRN	memset:PROC
EXTRN	??0VMemMgr@asmjit@@QEAA@PEAX@Z:PROC		; asmjit::VMemMgr::VMemMgr
EXTRN	??1VMemMgr@asmjit@@QEAA@XZ:PROC			; asmjit::VMemMgr::~VMemMgr
EXTRN	?alloc@VMemMgr@asmjit@@QEAAPEAX_KI@Z:PROC	; asmjit::VMemMgr::alloc
EXTRN	?release@VMemMgr@asmjit@@QEAAIPEAX@Z:PROC	; asmjit::VMemMgr::release
EXTRN	?shrink@VMemMgr@asmjit@@QEAAIPEAX_K@Z:PROC	; asmjit::VMemMgr::shrink
EXTRN	??_ERuntime@asmjit@@UEAAPEAXI@Z:PROC		; asmjit::Runtime::`vector deleting destructor'
EXTRN	??_EHostRuntime@asmjit@@UEAAPEAXI@Z:PROC	; asmjit::HostRuntime::`vector deleting destructor'
EXTRN	??_EStaticRuntime@asmjit@@UEAAPEAXI@Z:PROC	; asmjit::StaticRuntime::`vector deleting destructor'
EXTRN	??_EJitRuntime@asmjit@@UEAAPEAXI@Z:PROC		; asmjit::JitRuntime::`vector deleting destructor'
EXTRN	?relocCode@Assembler@asmjit@@QEBA_KPEAX_K@Z:PROC ; asmjit::Assembler::relocCode
EXTRN	?getHost@CpuInfo@asmjit@@SAPEBU12@XZ:PROC	; asmjit::CpuInfo::getHost
EXTRN	__CxxFrameHandler4:PROC
EXTRN	??_7type_info@@6B@:BYTE				; type_info::`vftable'
pdata	SEGMENT
$pdata$??0Runtime@asmjit@@QEAA@XZ DD imagerel $LN3
	DD	imagerel $LN3+103
	DD	imagerel $unwind$??0Runtime@asmjit@@QEAA@XZ
pdata	ENDS
;	COMDAT pdata
pdata	SEGMENT
$pdata$??_GRuntime@asmjit@@UEAAPEAXI@Z DD imagerel $LN4
	DD	imagerel $LN4+60
	DD	imagerel $unwind$??_GRuntime@asmjit@@UEAAPEAXI@Z
pdata	ENDS
pdata	SEGMENT
$pdata$??0HostRuntime@asmjit@@QEAA@XZ DD imagerel $LN4
	DD	imagerel $LN4+54
	DD	imagerel $unwind$??0HostRuntime@asmjit@@QEAA@XZ
pdata	ENDS
pdata	SEGMENT
$pdata$?dtor$0@?0???0HostRuntime@asmjit@@QEAA@XZ@4HA DD imagerel ?dtor$0@?0???0HostRuntime@asmjit@@QEAA@XZ@4HA
	DD	imagerel ?dtor$0@?0???0HostRuntime@asmjit@@QEAA@XZ@4HA+24
	DD	imagerel $unwind$?dtor$0@?0???0HostRuntime@asmjit@@QEAA@XZ@4HA
pdata	ENDS
pdata	SEGMENT
$pdata$??1HostRuntime@asmjit@@UEAA@XZ DD imagerel $LN4
	DD	imagerel $LN4+40
	DD	imagerel $unwind$??1HostRuntime@asmjit@@UEAA@XZ
pdata	ENDS
pdata	SEGMENT
$pdata$?dtor$0@?0???1HostRuntime@asmjit@@UEAA@XZ@4HA DD imagerel ?dtor$0@?0???1HostRuntime@asmjit@@UEAA@XZ@4HA
	DD	imagerel ?dtor$0@?0???1HostRuntime@asmjit@@UEAA@XZ@4HA+24
	DD	imagerel $unwind$?dtor$0@?0???1HostRuntime@asmjit@@UEAA@XZ@4HA
pdata	ENDS
pdata	SEGMENT
$pdata$?getCpuInfo@HostRuntime@asmjit@@UEAAPEBUCpuInfo@2@XZ DD imagerel $LN3
	DD	imagerel $LN3+19
	DD	imagerel $unwind$?getCpuInfo@HostRuntime@asmjit@@UEAAPEBUCpuInfo@2@XZ
$pdata$?getStackAlignment@HostRuntime@asmjit@@UEAAIXZ DD imagerel $LN3
	DD	imagerel $LN3+31
	DD	imagerel $unwind$?getStackAlignment@HostRuntime@asmjit@@UEAAIXZ
pdata	ENDS
;	COMDAT pdata
pdata	SEGMENT
$pdata$??_GHostRuntime@asmjit@@UEAAPEAXI@Z DD imagerel $LN4
	DD	imagerel $LN4+60
	DD	imagerel $unwind$??_GHostRuntime@asmjit@@UEAAPEAXI@Z
pdata	ENDS
pdata	SEGMENT
$pdata$??0StaticRuntime@asmjit@@QEAA@PEAX_K@Z DD imagerel $LN4
	DD	imagerel $LN4+83
	DD	imagerel $unwind$??0StaticRuntime@asmjit@@QEAA@PEAX_K@Z
pdata	ENDS
pdata	SEGMENT
$pdata$?dtor$0@?0???0StaticRuntime@asmjit@@QEAA@PEAX_K@Z@4HA DD imagerel ?dtor$0@?0???0StaticRuntime@asmjit@@QEAA@PEAX_K@Z@4HA
	DD	imagerel ?dtor$0@?0???0StaticRuntime@asmjit@@QEAA@PEAX_K@Z@4HA+24
	DD	imagerel $unwind$?dtor$0@?0???0StaticRuntime@asmjit@@QEAA@PEAX_K@Z@4HA
pdata	ENDS
pdata	SEGMENT
$pdata$??1StaticRuntime@asmjit@@UEAA@XZ DD imagerel $LN4
	DD	imagerel $LN4+40
	DD	imagerel $unwind$??1StaticRuntime@asmjit@@UEAA@XZ
pdata	ENDS
pdata	SEGMENT
$pdata$?dtor$0@?0???1StaticRuntime@asmjit@@UEAA@XZ@4HA DD imagerel ?dtor$0@?0???1StaticRuntime@asmjit@@UEAA@XZ@4HA
	DD	imagerel ?dtor$0@?0???1StaticRuntime@asmjit@@UEAA@XZ@4HA+24
	DD	imagerel $unwind$?dtor$0@?0???1StaticRuntime@asmjit@@UEAA@XZ@4HA
pdata	ENDS
pdata	SEGMENT
$pdata$?add@StaticRuntime@asmjit@@UEAAIPEAPEAXPEAUAssembler@2@@Z DD imagerel $LN8
	DD	imagerel $LN8+316
	DD	imagerel $unwind$?add@StaticRuntime@asmjit@@UEAAIPEAPEAXPEAUAssembler@2@@Z
pdata	ENDS
;	COMDAT pdata
pdata	SEGMENT
$pdata$??_GStaticRuntime@asmjit@@UEAAPEAXI@Z DD imagerel $LN4
	DD	imagerel $LN4+60
	DD	imagerel $unwind$??_GStaticRuntime@asmjit@@UEAAPEAXI@Z
pdata	ENDS
pdata	SEGMENT
$pdata$??0JitRuntime@asmjit@@QEAA@XZ DD imagerel $LN5
	DD	imagerel $LN5+72
	DD	imagerel $unwind$??0JitRuntime@asmjit@@QEAA@XZ
pdata	ENDS
pdata	SEGMENT
$pdata$?dtor$0@?0???0JitRuntime@asmjit@@QEAA@XZ@4HA DD imagerel ?dtor$0@?0???0JitRuntime@asmjit@@QEAA@XZ@4HA
	DD	imagerel ?dtor$0@?0???0JitRuntime@asmjit@@QEAA@XZ@4HA+24
	DD	imagerel $unwind$?dtor$0@?0???0JitRuntime@asmjit@@QEAA@XZ@4HA
$pdata$?dtor$1@?0???0JitRuntime@asmjit@@QEAA@XZ@4HA DD imagerel ?dtor$1@?0???0JitRuntime@asmjit@@QEAA@XZ@4HA
	DD	imagerel ?dtor$1@?0???0JitRuntime@asmjit@@QEAA@XZ@4HA+28
	DD	imagerel $unwind$?dtor$1@?0???0JitRuntime@asmjit@@QEAA@XZ@4HA
pdata	ENDS
pdata	SEGMENT
$pdata$??1JitRuntime@asmjit@@UEAA@XZ DD imagerel $LN5
	DD	imagerel $LN5+58
	DD	imagerel $unwind$??1JitRuntime@asmjit@@UEAA@XZ
pdata	ENDS
pdata	SEGMENT
$pdata$?dtor$0@?0???1JitRuntime@asmjit@@UEAA@XZ@4HA DD imagerel ?dtor$0@?0???1JitRuntime@asmjit@@UEAA@XZ@4HA
	DD	imagerel ?dtor$0@?0???1JitRuntime@asmjit@@UEAA@XZ@4HA+24
	DD	imagerel $unwind$?dtor$0@?0???1JitRuntime@asmjit@@UEAA@XZ@4HA
$pdata$?dtor$1@?0???1JitRuntime@asmjit@@UEAA@XZ@4HA DD imagerel ?dtor$1@?0???1JitRuntime@asmjit@@UEAA@XZ@4HA
	DD	imagerel ?dtor$1@?0???1JitRuntime@asmjit@@UEAA@XZ@4HA+28
	DD	imagerel $unwind$?dtor$1@?0???1JitRuntime@asmjit@@UEAA@XZ@4HA
pdata	ENDS
pdata	SEGMENT
$pdata$?add@JitRuntime@asmjit@@UEAAIPEAPEAXPEAUAssembler@2@@Z DD imagerel $LN6
	DD	imagerel $LN6+268
	DD	imagerel $unwind$?add@JitRuntime@asmjit@@UEAAIPEAPEAXPEAUAssembler@2@@Z
$pdata$?release@JitRuntime@asmjit@@UEAAIPEAX@Z DD imagerel $LN3
	DD	imagerel $LN3+48
	DD	imagerel $unwind$?release@JitRuntime@asmjit@@UEAAIPEAX@Z
pdata	ENDS
;	COMDAT pdata
pdata	SEGMENT
$pdata$??_GJitRuntime@asmjit@@UEAAPEAXI@Z DD imagerel $LN4
	DD	imagerel $LN4+60
	DD	imagerel $unwind$??_GJitRuntime@asmjit@@UEAAPEAXI@Z
pdata	ENDS
;	COMDAT pdata
pdata	SEGMENT
$pdata$?getCodeSize@Assembler@asmjit@@QEBA_KXZ DD imagerel $LN3
	DD	imagerel $LN3+50
	DD	imagerel $unwind$?getCodeSize@Assembler@asmjit@@QEBA_KXZ
pdata	ENDS
;	COMDAT ??_R1A@?0A@EA@JitRuntime@asmjit@@8
rdata$r	SEGMENT
??_R1A@?0A@EA@JitRuntime@asmjit@@8 DD imagerel ??_R0?AUJitRuntime@asmjit@@@8 ; asmjit::JitRuntime::`RTTI Base Class Descriptor at (0,-1,0,64)'
	DD	02H
	DD	00H
	DD	0ffffffffH
	DD	00H
	DD	040H
	DD	imagerel ??_R3JitRuntime@asmjit@@8
rdata$r	ENDS
;	COMDAT ??_R2JitRuntime@asmjit@@8
rdata$r	SEGMENT
??_R2JitRuntime@asmjit@@8 DD imagerel ??_R1A@?0A@EA@JitRuntime@asmjit@@8 ; asmjit::JitRuntime::`RTTI Base Class Array'
	DD	imagerel ??_R1A@?0A@EA@HostRuntime@asmjit@@8
	DD	imagerel ??_R1A@?0A@EA@Runtime@asmjit@@8
	ORG $+3
rdata$r	ENDS
;	COMDAT ??_R3JitRuntime@asmjit@@8
rdata$r	SEGMENT
??_R3JitRuntime@asmjit@@8 DD 00H			; asmjit::JitRuntime::`RTTI Class Hierarchy Descriptor'
	DD	00H
	DD	03H
	DD	imagerel ??_R2JitRuntime@asmjit@@8
rdata$r	ENDS
;	COMDAT ??_R0?AUJitRuntime@asmjit@@@8
data$rs	SEGMENT
??_R0?AUJitRuntime@asmjit@@@8 DQ FLAT:??_7type_info@@6B@ ; asmjit::JitRuntime `RTTI Type Descriptor'
	DQ	0000000000000000H
	DB	'.?AUJitRuntime@asmjit@@', 00H
data$rs	ENDS
;	COMDAT ??_R4JitRuntime@asmjit@@6B@
rdata$r	SEGMENT
??_R4JitRuntime@asmjit@@6B@ DD 01H			; asmjit::JitRuntime::`RTTI Complete Object Locator'
	DD	00H
	DD	00H
	DD	imagerel ??_R0?AUJitRuntime@asmjit@@@8
	DD	imagerel ??_R3JitRuntime@asmjit@@8
	DD	imagerel ??_R4JitRuntime@asmjit@@6B@
rdata$r	ENDS
;	COMDAT ??_R1A@?0A@EA@StaticRuntime@asmjit@@8
rdata$r	SEGMENT
??_R1A@?0A@EA@StaticRuntime@asmjit@@8 DD imagerel ??_R0?AUStaticRuntime@asmjit@@@8 ; asmjit::StaticRuntime::`RTTI Base Class Descriptor at (0,-1,0,64)'
	DD	02H
	DD	00H
	DD	0ffffffffH
	DD	00H
	DD	040H
	DD	imagerel ??_R3StaticRuntime@asmjit@@8
rdata$r	ENDS
;	COMDAT ??_R2StaticRuntime@asmjit@@8
rdata$r	SEGMENT
??_R2StaticRuntime@asmjit@@8 DD imagerel ??_R1A@?0A@EA@StaticRuntime@asmjit@@8 ; asmjit::StaticRuntime::`RTTI Base Class Array'
	DD	imagerel ??_R1A@?0A@EA@HostRuntime@asmjit@@8
	DD	imagerel ??_R1A@?0A@EA@Runtime@asmjit@@8
	ORG $+3
rdata$r	ENDS
;	COMDAT ??_R3StaticRuntime@asmjit@@8
rdata$r	SEGMENT
??_R3StaticRuntime@asmjit@@8 DD 00H			; asmjit::StaticRuntime::`RTTI Class Hierarchy Descriptor'
	DD	00H
	DD	03H
	DD	imagerel ??_R2StaticRuntime@asmjit@@8
rdata$r	ENDS
;	COMDAT ??_R0?AUStaticRuntime@asmjit@@@8
data$rs	SEGMENT
??_R0?AUStaticRuntime@asmjit@@@8 DQ FLAT:??_7type_info@@6B@ ; asmjit::StaticRuntime `RTTI Type Descriptor'
	DQ	0000000000000000H
	DB	'.?AUStaticRuntime@asmjit@@', 00H
data$rs	ENDS
;	COMDAT ??_R4StaticRuntime@asmjit@@6B@
rdata$r	SEGMENT
??_R4StaticRuntime@asmjit@@6B@ DD 01H			; asmjit::StaticRuntime::`RTTI Complete Object Locator'
	DD	00H
	DD	00H
	DD	imagerel ??_R0?AUStaticRuntime@asmjit@@@8
	DD	imagerel ??_R3StaticRuntime@asmjit@@8
	DD	imagerel ??_R4StaticRuntime@asmjit@@6B@
rdata$r	ENDS
;	COMDAT ??_R1A@?0A@EA@HostRuntime@asmjit@@8
rdata$r	SEGMENT
??_R1A@?0A@EA@HostRuntime@asmjit@@8 DD imagerel ??_R0?AUHostRuntime@asmjit@@@8 ; asmjit::HostRuntime::`RTTI Base Class Descriptor at (0,-1,0,64)'
	DD	01H
	DD	00H
	DD	0ffffffffH
	DD	00H
	DD	040H
	DD	imagerel ??_R3HostRuntime@asmjit@@8
rdata$r	ENDS
;	COMDAT ??_R2HostRuntime@asmjit@@8
rdata$r	SEGMENT
??_R2HostRuntime@asmjit@@8 DD imagerel ??_R1A@?0A@EA@HostRuntime@asmjit@@8 ; asmjit::HostRuntime::`RTTI Base Class Array'
	DD	imagerel ??_R1A@?0A@EA@Runtime@asmjit@@8
	ORG $+3
rdata$r	ENDS
;	COMDAT ??_R3HostRuntime@asmjit@@8
rdata$r	SEGMENT
??_R3HostRuntime@asmjit@@8 DD 00H			; asmjit::HostRuntime::`RTTI Class Hierarchy Descriptor'
	DD	00H
	DD	02H
	DD	imagerel ??_R2HostRuntime@asmjit@@8
rdata$r	ENDS
;	COMDAT ??_R0?AUHostRuntime@asmjit@@@8
data$rs	SEGMENT
??_R0?AUHostRuntime@asmjit@@@8 DQ FLAT:??_7type_info@@6B@ ; asmjit::HostRuntime `RTTI Type Descriptor'
	DQ	0000000000000000H
	DB	'.?AUHostRuntime@asmjit@@', 00H
data$rs	ENDS
;	COMDAT ??_R4HostRuntime@asmjit@@6B@
rdata$r	SEGMENT
??_R4HostRuntime@asmjit@@6B@ DD 01H			; asmjit::HostRuntime::`RTTI Complete Object Locator'
	DD	00H
	DD	00H
	DD	imagerel ??_R0?AUHostRuntime@asmjit@@@8
	DD	imagerel ??_R3HostRuntime@asmjit@@8
	DD	imagerel ??_R4HostRuntime@asmjit@@6B@
rdata$r	ENDS
;	COMDAT ??_R1A@?0A@EA@Runtime@asmjit@@8
rdata$r	SEGMENT
??_R1A@?0A@EA@Runtime@asmjit@@8 DD imagerel ??_R0?AURuntime@asmjit@@@8 ; asmjit::Runtime::`RTTI Base Class Descriptor at (0,-1,0,64)'
	DD	00H
	DD	00H
	DD	0ffffffffH
	DD	00H
	DD	040H
	DD	imagerel ??_R3Runtime@asmjit@@8
rdata$r	ENDS
;	COMDAT ??_R2Runtime@asmjit@@8
rdata$r	SEGMENT
??_R2Runtime@asmjit@@8 DD imagerel ??_R1A@?0A@EA@Runtime@asmjit@@8 ; asmjit::Runtime::`RTTI Base Class Array'
	ORG $+3
rdata$r	ENDS
;	COMDAT ??_R3Runtime@asmjit@@8
rdata$r	SEGMENT
??_R3Runtime@asmjit@@8 DD 00H				; asmjit::Runtime::`RTTI Class Hierarchy Descriptor'
	DD	00H
	DD	01H
	DD	imagerel ??_R2Runtime@asmjit@@8
rdata$r	ENDS
;	COMDAT ??_R0?AURuntime@asmjit@@@8
data$rs	SEGMENT
??_R0?AURuntime@asmjit@@@8 DQ FLAT:??_7type_info@@6B@	; asmjit::Runtime `RTTI Type Descriptor'
	DQ	0000000000000000H
	DB	'.?AURuntime@asmjit@@', 00H
data$rs	ENDS
;	COMDAT ??_R4Runtime@asmjit@@6B@
rdata$r	SEGMENT
??_R4Runtime@asmjit@@6B@ DD 01H				; asmjit::Runtime::`RTTI Complete Object Locator'
	DD	00H
	DD	00H
	DD	imagerel ??_R0?AURuntime@asmjit@@@8
	DD	imagerel ??_R3Runtime@asmjit@@8
	DD	imagerel ??_R4Runtime@asmjit@@6B@
rdata$r	ENDS
;	COMDAT ??_7JitRuntime@asmjit@@6B@
CONST	SEGMENT
??_7JitRuntime@asmjit@@6B@ DQ FLAT:??_R4JitRuntime@asmjit@@6B@ ; asmjit::JitRuntime::`vftable'
	DQ	FLAT:??_EJitRuntime@asmjit@@UEAAPEAXI@Z
	DQ	FLAT:?getCpuInfo@HostRuntime@asmjit@@UEAAPEBUCpuInfo@2@XZ
	DQ	FLAT:?getStackAlignment@HostRuntime@asmjit@@UEAAIXZ
	DQ	FLAT:?add@JitRuntime@asmjit@@UEAAIPEAPEAXPEAUAssembler@2@@Z
	DQ	FLAT:?release@JitRuntime@asmjit@@UEAAIPEAX@Z
	DQ	FLAT:?flush@HostRuntime@asmjit@@UEAAXPEAX_K@Z
CONST	ENDS
;	COMDAT ??_7StaticRuntime@asmjit@@6B@
CONST	SEGMENT
??_7StaticRuntime@asmjit@@6B@ DQ FLAT:??_R4StaticRuntime@asmjit@@6B@ ; asmjit::StaticRuntime::`vftable'
	DQ	FLAT:??_EStaticRuntime@asmjit@@UEAAPEAXI@Z
	DQ	FLAT:?getCpuInfo@HostRuntime@asmjit@@UEAAPEBUCpuInfo@2@XZ
	DQ	FLAT:?getStackAlignment@HostRuntime@asmjit@@UEAAIXZ
	DQ	FLAT:?add@StaticRuntime@asmjit@@UEAAIPEAPEAXPEAUAssembler@2@@Z
	DQ	FLAT:?release@StaticRuntime@asmjit@@UEAAIPEAX@Z
	DQ	FLAT:?flush@HostRuntime@asmjit@@UEAAXPEAX_K@Z
CONST	ENDS
;	COMDAT ??_7HostRuntime@asmjit@@6B@
CONST	SEGMENT
??_7HostRuntime@asmjit@@6B@ DQ FLAT:??_R4HostRuntime@asmjit@@6B@ ; asmjit::HostRuntime::`vftable'
	DQ	FLAT:??_EHostRuntime@asmjit@@UEAAPEAXI@Z
	DQ	FLAT:?getCpuInfo@HostRuntime@asmjit@@UEAAPEBUCpuInfo@2@XZ
	DQ	FLAT:?getStackAlignment@HostRuntime@asmjit@@UEAAIXZ
	DQ	FLAT:_purecall
	DQ	FLAT:_purecall
	DQ	FLAT:?flush@HostRuntime@asmjit@@UEAAXPEAX_K@Z
CONST	ENDS
;	COMDAT ??_7Runtime@asmjit@@6B@
CONST	SEGMENT
??_7Runtime@asmjit@@6B@ DQ FLAT:??_R4Runtime@asmjit@@6B@ ; asmjit::Runtime::`vftable'
	DQ	FLAT:??_ERuntime@asmjit@@UEAAPEAXI@Z
	DQ	FLAT:_purecall
	DQ	FLAT:_purecall
	DQ	FLAT:_purecall
	DQ	FLAT:_purecall
CONST	ENDS
;	COMDAT xdata
xdata	SEGMENT
$unwind$?getCodeSize@Assembler@asmjit@@QEBA_KXZ DD 010901H
	DD	06209H
xdata	ENDS
;	COMDAT xdata
xdata	SEGMENT
$unwind$??_GJitRuntime@asmjit@@UEAAPEAXI@Z DD 010d01H
	DD	0420dH
xdata	ENDS
;	COMDAT xdata
xdata	SEGMENT
$unwind$??_GStaticRuntime@asmjit@@UEAAPEAXI@Z DD 010d01H
	DD	0420dH
xdata	ENDS
;	COMDAT xdata
xdata	SEGMENT
$unwind$??_GHostRuntime@asmjit@@UEAAPEAXI@Z DD 010d01H
	DD	0420dH
xdata	ENDS
;	COMDAT xdata
xdata	SEGMENT
$unwind$??_GRuntime@asmjit@@UEAAPEAXI@Z DD 010d01H
	DD	0420dH
xdata	ENDS
xdata	SEGMENT
$unwind$??0Runtime@asmjit@@QEAA@XZ DD 010901H
	DD	04209H
$unwind$??0HostRuntime@asmjit@@QEAA@XZ DD 010911H
	DD	04209H
	DD	imagerel __CxxFrameHandler4
	DD	imagerel $cppxdata$??0HostRuntime@asmjit@@QEAA@XZ
$cppxdata$??0HostRuntime@asmjit@@QEAA@XZ DB 08H
	DD	imagerel $stateUnwindMap$??0HostRuntime@asmjit@@QEAA@XZ
	DD	imagerel $ip2state$??0HostRuntime@asmjit@@QEAA@XZ
$stateUnwindMap$??0HostRuntime@asmjit@@QEAA@XZ DB 02H
	DB	0eH
	DD	imagerel ?dtor$0@?0???0HostRuntime@asmjit@@QEAA@XZ@4HA
$ip2state$??0HostRuntime@asmjit@@QEAA@XZ DB 06H
	DB	00H
	DB	00H
	DB	'('
	DB	02H
	DB	'0'
	DB	00H
	ORG $+2
$unwind$?dtor$0@?0???0HostRuntime@asmjit@@QEAA@XZ@4HA DD 020601H
	DD	050023206H
$unwind$??1HostRuntime@asmjit@@UEAA@XZ DD 010911H
	DD	04209H
	DD	imagerel __CxxFrameHandler4
	DD	imagerel $cppxdata$??1HostRuntime@asmjit@@UEAA@XZ
$cppxdata$??1HostRuntime@asmjit@@UEAA@XZ DB 048H
	DD	imagerel $stateUnwindMap$??1HostRuntime@asmjit@@UEAA@XZ
	DD	imagerel $ip2state$??1HostRuntime@asmjit@@UEAA@XZ
$stateUnwindMap$??1HostRuntime@asmjit@@UEAA@XZ DB 02H
	DB	0eH
	DD	imagerel ?dtor$0@?0???1HostRuntime@asmjit@@UEAA@XZ@4HA
$ip2state$??1HostRuntime@asmjit@@UEAA@XZ DB 02H
	DB	00H
	DB	00H
	ORG $+2
$unwind$?dtor$0@?0???1HostRuntime@asmjit@@UEAA@XZ@4HA DD 020601H
	DD	050023206H
$unwind$?getCpuInfo@HostRuntime@asmjit@@UEAAPEBUCpuInfo@2@XZ DD 010901H
	DD	04209H
$unwind$?getStackAlignment@HostRuntime@asmjit@@UEAAIXZ DD 010901H
	DD	02209H
$unwind$??0StaticRuntime@asmjit@@QEAA@PEAX_K@Z DD 011311H
	DD	04213H
	DD	imagerel __CxxFrameHandler4
	DD	imagerel $cppxdata$??0StaticRuntime@asmjit@@QEAA@PEAX_K@Z
$cppxdata$??0StaticRuntime@asmjit@@QEAA@PEAX_K@Z DB 08H
	DD	imagerel $stateUnwindMap$??0StaticRuntime@asmjit@@QEAA@PEAX_K@Z
	DD	imagerel $ip2state$??0StaticRuntime@asmjit@@QEAA@PEAX_K@Z
$stateUnwindMap$??0StaticRuntime@asmjit@@QEAA@PEAX_K@Z DB 02H
	DB	0eH
	DD	imagerel ?dtor$0@?0???0StaticRuntime@asmjit@@QEAA@PEAX_K@Z@4HA
$ip2state$??0StaticRuntime@asmjit@@QEAA@PEAX_K@Z DB 06H
	DB	00H
	DB	00H
	DB	'<'
	DB	02H
	DB	'V'
	DB	00H
	ORG $+2
$unwind$?dtor$0@?0???0StaticRuntime@asmjit@@QEAA@PEAX_K@Z@4HA DD 020601H
	DD	050023206H
$unwind$??1StaticRuntime@asmjit@@UEAA@XZ DD 010911H
	DD	04209H
	DD	imagerel __CxxFrameHandler4
	DD	imagerel $cppxdata$??1StaticRuntime@asmjit@@UEAA@XZ
$cppxdata$??1StaticRuntime@asmjit@@UEAA@XZ DB 048H
	DD	imagerel $stateUnwindMap$??1StaticRuntime@asmjit@@UEAA@XZ
	DD	imagerel $ip2state$??1StaticRuntime@asmjit@@UEAA@XZ
$stateUnwindMap$??1StaticRuntime@asmjit@@UEAA@XZ DB 02H
	DB	0eH
	DD	imagerel ?dtor$0@?0???1StaticRuntime@asmjit@@UEAA@XZ@4HA
$ip2state$??1StaticRuntime@asmjit@@UEAA@XZ DB 02H
	DB	00H
	DB	00H
	ORG $+2
$unwind$?dtor$0@?0???1StaticRuntime@asmjit@@UEAA@XZ@4HA DD 020601H
	DD	050023206H
$unwind$?add@StaticRuntime@asmjit@@UEAAIPEAPEAXPEAUAssembler@2@@Z DD 011301H
	DD	0a213H
$unwind$??0JitRuntime@asmjit@@QEAA@XZ DD 010911H
	DD	06209H
	DD	imagerel __CxxFrameHandler4
	DD	imagerel $cppxdata$??0JitRuntime@asmjit@@QEAA@XZ
$cppxdata$??0JitRuntime@asmjit@@QEAA@XZ DB 08H
	DD	imagerel $stateUnwindMap$??0JitRuntime@asmjit@@QEAA@XZ
	DD	imagerel $ip2state$??0JitRuntime@asmjit@@QEAA@XZ
$stateUnwindMap$??0JitRuntime@asmjit@@QEAA@XZ DB 04H
	DB	0eH
	DD	imagerel ?dtor$0@?0???0JitRuntime@asmjit@@QEAA@XZ@4HA
	DB	02eH
	DD	imagerel ?dtor$1@?0???0JitRuntime@asmjit@@QEAA@XZ@4HA
$ip2state$??0JitRuntime@asmjit@@QEAA@XZ DB 06H
	DB	00H
	DB	00H
	DB	'('
	DB	02H
	DB	'T'
	DB	00H
	ORG $+1
$unwind$?dtor$0@?0???0JitRuntime@asmjit@@QEAA@XZ@4HA DD 020601H
	DD	050023206H
$unwind$?dtor$1@?0???0JitRuntime@asmjit@@QEAA@XZ@4HA DD 020601H
	DD	050023206H
$unwind$??1JitRuntime@asmjit@@UEAA@XZ DD 010911H
	DD	04209H
	DD	imagerel __CxxFrameHandler4
	DD	imagerel $cppxdata$??1JitRuntime@asmjit@@UEAA@XZ
$cppxdata$??1JitRuntime@asmjit@@UEAA@XZ DB 048H
	DD	imagerel $stateUnwindMap$??1JitRuntime@asmjit@@UEAA@XZ
	DD	imagerel $ip2state$??1JitRuntime@asmjit@@UEAA@XZ
$stateUnwindMap$??1JitRuntime@asmjit@@UEAA@XZ DB 04H
	DB	0eH
	DD	imagerel ?dtor$0@?0???1JitRuntime@asmjit@@UEAA@XZ@4HA
	DB	02eH
	DD	imagerel ?dtor$1@?0???1JitRuntime@asmjit@@UEAA@XZ@4HA
$ip2state$??1JitRuntime@asmjit@@UEAA@XZ DB 06H
	DB	00H
	DB	00H
	DB	'0'
	DB	02H
	DB	'$'
	DB	00H
	ORG $+1
$unwind$?dtor$0@?0???1JitRuntime@asmjit@@UEAA@XZ@4HA DD 020601H
	DD	050023206H
$unwind$?dtor$1@?0???1JitRuntime@asmjit@@UEAA@XZ@4HA DD 020601H
	DD	050023206H
$unwind$?add@JitRuntime@asmjit@@UEAAIPEAPEAXPEAUAssembler@2@@Z DD 011301H
	DD	0a213H
$unwind$?release@JitRuntime@asmjit@@UEAAIPEAX@Z DD 010e01H
	DD	0620eH
xdata	ENDS
; Function compile flags: /Odtp
; File D:\c++\paoda\ThirdParty\AsmJit\base\assembler.h
;	COMDAT ?getTrampolineSize@Assembler@asmjit@@QEBA_KXZ
_TEXT	SEGMENT
this$ = 8
?getTrampolineSize@Assembler@asmjit@@QEBA_KXZ PROC	; asmjit::Assembler::getTrampolineSize, COMDAT

; 318  :   ASMJIT_INLINE size_t getTrampolineSize() const {

	mov	QWORD PTR [rsp+8], rcx

; 319  :     return _trampolineSize;

	mov	rax, QWORD PTR this$[rsp]
	mov	eax, DWORD PTR [rax+96]

; 320  :   }

	ret	0
?getTrampolineSize@Assembler@asmjit@@QEBA_KXZ ENDP	; asmjit::Assembler::getTrampolineSize
_TEXT	ENDS
; Function compile flags: /Odtp
; File D:\c++\paoda\ThirdParty\AsmJit\base\assembler.h
;	COMDAT ?getCodeSize@Assembler@asmjit@@QEBA_KXZ
_TEXT	SEGMENT
tv65 = 32
this$ = 64
?getCodeSize@Assembler@asmjit@@QEBA_KXZ PROC		; asmjit::Assembler::getCodeSize, COMDAT

; 304  :   ASMJIT_INLINE size_t getCodeSize() const {

$LN3:
	mov	QWORD PTR [rsp+8], rcx
	sub	rsp, 56					; 00000038H

; 305  :     return getOffset() + getTrampolineSize();

	mov	rcx, QWORD PTR this$[rsp]
	call	?getOffset@Assembler@asmjit@@QEBA_KXZ	; asmjit::Assembler::getOffset
	mov	QWORD PTR tv65[rsp], rax
	mov	rcx, QWORD PTR this$[rsp]
	call	?getTrampolineSize@Assembler@asmjit@@QEBA_KXZ ; asmjit::Assembler::getTrampolineSize
	mov	rcx, QWORD PTR tv65[rsp]
	add	rcx, rax
	mov	rax, rcx

; 306  :   }

	add	rsp, 56					; 00000038H
	ret	0
?getCodeSize@Assembler@asmjit@@QEBA_KXZ ENDP		; asmjit::Assembler::getCodeSize
_TEXT	ENDS
; Function compile flags: /Odtp
; File D:\c++\paoda\ThirdParty\AsmJit\base\assembler.h
;	COMDAT ?getOffset@Assembler@asmjit@@QEBA_KXZ
_TEXT	SEGMENT
this$ = 8
?getOffset@Assembler@asmjit@@QEBA_KXZ PROC		; asmjit::Assembler::getOffset, COMDAT

; 203  :   ASMJIT_INLINE size_t getOffset() const {

	mov	QWORD PTR [rsp+8], rcx

; 204  :     return (size_t)(_cursor - _buffer);

	mov	rax, QWORD PTR this$[rsp]
	mov	rcx, QWORD PTR this$[rsp]
	mov	rcx, QWORD PTR [rcx+72]
	mov	rax, QWORD PTR [rax+88]
	sub	rax, rcx

; 205  :   }

	ret	0
?getOffset@Assembler@asmjit@@QEBA_KXZ ENDP		; asmjit::Assembler::getOffset
_TEXT	ENDS
; Function compile flags: /Odtp
;	COMDAT ??_GJitRuntime@asmjit@@UEAAPEAXI@Z
_TEXT	SEGMENT
this$ = 48
__flags$ = 56
??_GJitRuntime@asmjit@@UEAAPEAXI@Z PROC			; asmjit::JitRuntime::`scalar deleting destructor', COMDAT
$LN4:
	mov	DWORD PTR [rsp+16], edx
	mov	QWORD PTR [rsp+8], rcx
	sub	rsp, 40					; 00000028H
	mov	rcx, QWORD PTR this$[rsp]
	call	??1JitRuntime@asmjit@@UEAA@XZ		; asmjit::JitRuntime::~JitRuntime
	mov	eax, DWORD PTR __flags$[rsp]
	and	eax, 1
	test	eax, eax
	je	SHORT $LN2@scalar
	mov	edx, 160				; 000000a0H
	mov	rcx, QWORD PTR this$[rsp]
	call	??3@YAXPEAX_K@Z				; operator delete
	npad	1
$LN2@scalar:
	mov	rax, QWORD PTR this$[rsp]
	add	rsp, 40					; 00000028H
	ret	0
??_GJitRuntime@asmjit@@UEAAPEAXI@Z ENDP			; asmjit::JitRuntime::`scalar deleting destructor'
_TEXT	ENDS
; Function compile flags: /Odtp
; File D:\c++\paoda\ThirdParty\AsmJit\base\runtime.cpp
_TEXT	SEGMENT
tv69 = 32
this$ = 64
p$ = 72
?release@JitRuntime@asmjit@@UEAAIPEAX@Z PROC		; asmjit::JitRuntime::release

; 184  : Error JitRuntime::release(void* p) {

$LN3:
	mov	QWORD PTR [rsp+16], rdx
	mov	QWORD PTR [rsp+8], rcx
	sub	rsp, 56					; 00000038H

; 185  :   return _memMgr.release(p);

	mov	rax, QWORD PTR this$[rsp]
	add	rax, 32					; 00000020H
	mov	QWORD PTR tv69[rsp], rax
	mov	rdx, QWORD PTR p$[rsp]
	mov	rcx, QWORD PTR tv69[rsp]
	call	?release@VMemMgr@asmjit@@QEAAIPEAX@Z	; asmjit::VMemMgr::release

; 186  : }

	add	rsp, 56					; 00000038H
	ret	0
?release@JitRuntime@asmjit@@UEAAIPEAX@Z ENDP		; asmjit::JitRuntime::release
_TEXT	ENDS
; Function compile flags: /Odtp
; File D:\c++\paoda\ThirdParty\AsmJit\base\runtime.cpp
_TEXT	SEGMENT
p$ = 32
codeSize$ = 40
relocSize$ = 48
tv75 = 56
tv88 = 64
tv130 = 72
this$ = 96
dst$ = 104
assembler$ = 112
?add@JitRuntime@asmjit@@UEAAIPEAPEAXPEAUAssembler@2@@Z PROC ; asmjit::JitRuntime::add

; 159  : Error JitRuntime::add(void** dst, Assembler* assembler) {

$LN6:
	mov	QWORD PTR [rsp+24], r8
	mov	QWORD PTR [rsp+16], rdx
	mov	QWORD PTR [rsp+8], rcx
	sub	rsp, 88					; 00000058H

; 160  :   size_t codeSize = assembler->getCodeSize();

	mov	rcx, QWORD PTR assembler$[rsp]
	call	?getCodeSize@Assembler@asmjit@@QEBA_KXZ	; asmjit::Assembler::getCodeSize
	mov	QWORD PTR codeSize$[rsp], rax

; 161  :   if (codeSize == 0) {

	cmp	QWORD PTR codeSize$[rsp], 0
	jne	SHORT $LN2@add

; 162  :     *dst = NULL;

	mov	rax, QWORD PTR dst$[rsp]
	mov	QWORD PTR [rax], 0

; 163  :     return kErrorNoCodeGenerated;

	mov	eax, 5
	jmp	$LN1@add
$LN2@add:

; 164  :   }
; 165  : 
; 166  :   void* p = _memMgr.alloc(codeSize, getAllocType());

	mov	rax, QWORD PTR this$[rsp]
	add	rax, 32					; 00000020H
	mov	QWORD PTR tv75[rsp], rax
	mov	rcx, QWORD PTR this$[rsp]
	call	?getAllocType@JitRuntime@asmjit@@QEBAIXZ ; asmjit::JitRuntime::getAllocType
	mov	r8d, eax
	mov	rdx, QWORD PTR codeSize$[rsp]
	mov	rcx, QWORD PTR tv75[rsp]
	call	?alloc@VMemMgr@asmjit@@QEAAPEAX_KI@Z	; asmjit::VMemMgr::alloc
	mov	QWORD PTR p$[rsp], rax

; 167  :   if (p == NULL) {

	cmp	QWORD PTR p$[rsp], 0
	jne	SHORT $LN3@add

; 168  :     *dst = NULL;

	mov	rax, QWORD PTR dst$[rsp]
	mov	QWORD PTR [rax], 0

; 169  :     return kErrorNoVirtualMemory;

	mov	eax, 2
	jmp	SHORT $LN1@add
$LN3@add:

; 170  :   }
; 171  : 
; 172  :   // Relocate the code and release the unused memory back to `VMemMgr`.
; 173  :   size_t relocSize = assembler->relocCode(p);

	mov	r8, -1
	mov	rdx, QWORD PTR p$[rsp]
	mov	rcx, QWORD PTR assembler$[rsp]
	call	?relocCode@Assembler@asmjit@@QEBA_KPEAX_K@Z ; asmjit::Assembler::relocCode
	mov	QWORD PTR relocSize$[rsp], rax

; 174  :   if (relocSize < codeSize) {

	mov	rax, QWORD PTR codeSize$[rsp]
	cmp	QWORD PTR relocSize$[rsp], rax
	jae	SHORT $LN4@add

; 175  :     _memMgr.shrink(p, relocSize);

	mov	rax, QWORD PTR this$[rsp]
	add	rax, 32					; 00000020H
	mov	QWORD PTR tv88[rsp], rax
	mov	r8, QWORD PTR relocSize$[rsp]
	mov	rdx, QWORD PTR p$[rsp]
	mov	rcx, QWORD PTR tv88[rsp]
	call	?shrink@VMemMgr@asmjit@@QEAAIPEAX_K@Z	; asmjit::VMemMgr::shrink
	npad	1
$LN4@add:

; 176  :   }
; 177  : 
; 178  :   flush(p, relocSize);

	mov	rax, QWORD PTR this$[rsp]
	mov	rax, QWORD PTR [rax]
	mov	rax, QWORD PTR [rax+40]
	mov	QWORD PTR tv130[rsp], rax
	mov	r8, QWORD PTR relocSize$[rsp]
	mov	rdx, QWORD PTR p$[rsp]
	mov	rcx, QWORD PTR this$[rsp]
	call	QWORD PTR tv130[rsp]

; 179  :   *dst = p;

	mov	rax, QWORD PTR dst$[rsp]
	mov	rcx, QWORD PTR p$[rsp]
	mov	QWORD PTR [rax], rcx

; 180  : 
; 181  :   return kErrorOk;

	xor	eax, eax
$LN1@add:

; 182  : }

	add	rsp, 88					; 00000058H
	ret	0
?add@JitRuntime@asmjit@@UEAAIPEAPEAXPEAUAssembler@2@@Z ENDP ; asmjit::JitRuntime::add
_TEXT	ENDS
; Function compile flags: /Odtp
; File D:\c++\paoda\ThirdParty\AsmJit\base\runtime.h
;	COMDAT ?getAllocType@JitRuntime@asmjit@@QEBAIXZ
_TEXT	SEGMENT
this$ = 8
?getAllocType@JitRuntime@asmjit@@QEBAIXZ PROC		; asmjit::JitRuntime::getAllocType, COMDAT

; 225  :   ASMJIT_INLINE uint32_t getAllocType() const {

	mov	QWORD PTR [rsp+8], rcx

; 226  :     return _allocType;

	mov	rax, QWORD PTR this$[rsp]
	movzx	eax, BYTE PTR [rax+25]

; 227  :   }

	ret	0
?getAllocType@JitRuntime@asmjit@@QEBAIXZ ENDP		; asmjit::JitRuntime::getAllocType
_TEXT	ENDS
; Function compile flags: /Odtp
; File D:\c++\paoda\ThirdParty\AsmJit\base\runtime.cpp
_TEXT	SEGMENT
this$ = 48
??1JitRuntime@asmjit@@UEAA@XZ PROC			; asmjit::JitRuntime::~JitRuntime

; 153  : JitRuntime::~JitRuntime() {}

$LN5:
	mov	QWORD PTR [rsp+8], rcx
	sub	rsp, 40					; 00000028H
	mov	rax, QWORD PTR this$[rsp]
	lea	rcx, OFFSET FLAT:??_7JitRuntime@asmjit@@6B@
	mov	QWORD PTR [rax], rcx
	mov	rax, QWORD PTR this$[rsp]
	add	rax, 32					; 00000020H
	mov	rcx, rax
	call	??1VMemMgr@asmjit@@QEAA@XZ		; asmjit::VMemMgr::~VMemMgr
	npad	1
	mov	rcx, QWORD PTR this$[rsp]
	call	??1HostRuntime@asmjit@@UEAA@XZ		; asmjit::HostRuntime::~HostRuntime
	npad	1
	add	rsp, 40					; 00000028H
	ret	0
??1JitRuntime@asmjit@@UEAA@XZ ENDP			; asmjit::JitRuntime::~JitRuntime
_TEXT	ENDS
; Function compile flags: /Odtp
text$x	SEGMENT
this$ = 48
?dtor$0@?0???1JitRuntime@asmjit@@UEAA@XZ@4HA PROC	; `asmjit::JitRuntime::~JitRuntime'::`1'::dtor$0
	push	rbp
	sub	rsp, 32					; 00000020H
	mov	rbp, rdx
	mov	rcx, QWORD PTR this$[rbp]
	call	??1HostRuntime@asmjit@@UEAA@XZ		; asmjit::HostRuntime::~HostRuntime
	add	rsp, 32					; 00000020H
	pop	rbp
	ret	0
?dtor$0@?0???1JitRuntime@asmjit@@UEAA@XZ@4HA ENDP	; `asmjit::JitRuntime::~JitRuntime'::`1'::dtor$0
text$x	ENDS
; Function compile flags: /Odtp
text$x	SEGMENT
this$ = 48
?dtor$1@?0???1JitRuntime@asmjit@@UEAA@XZ@4HA PROC	; `asmjit::JitRuntime::~JitRuntime'::`1'::dtor$1
	push	rbp
	sub	rsp, 32					; 00000020H
	mov	rbp, rdx
	mov	rcx, QWORD PTR this$[rbp]
	add	rcx, 32					; 00000020H
	call	??1VMemMgr@asmjit@@QEAA@XZ		; asmjit::VMemMgr::~VMemMgr
	add	rsp, 32					; 00000020H
	pop	rbp
	ret	0
?dtor$1@?0???1JitRuntime@asmjit@@UEAA@XZ@4HA ENDP	; `asmjit::JitRuntime::~JitRuntime'::`1'::dtor$1
text$x	ENDS
; Function compile flags: /Odtp
; File D:\c++\paoda\ThirdParty\AsmJit\base\runtime.cpp
_TEXT	SEGMENT
tv85 = 32
this$ = 64
??0JitRuntime@asmjit@@QEAA@XZ PROC			; asmjit::JitRuntime::JitRuntime

; 152  : JitRuntime::JitRuntime() {}

$LN5:
	mov	QWORD PTR [rsp+8], rcx
	sub	rsp, 56					; 00000038H
	mov	rcx, QWORD PTR this$[rsp]
	call	??0HostRuntime@asmjit@@QEAA@XZ		; asmjit::HostRuntime::HostRuntime
	npad	1
	mov	rax, QWORD PTR this$[rsp]
	lea	rcx, OFFSET FLAT:??_7JitRuntime@asmjit@@6B@
	mov	QWORD PTR [rax], rcx
	mov	rax, QWORD PTR this$[rsp]
	add	rax, 32					; 00000020H
	mov	QWORD PTR tv85[rsp], rax
	xor	edx, edx
	mov	rcx, QWORD PTR tv85[rsp]
	call	??0VMemMgr@asmjit@@QEAA@PEAX@Z		; asmjit::VMemMgr::VMemMgr
	npad	1
	mov	rax, QWORD PTR this$[rsp]
	add	rsp, 56					; 00000038H
	ret	0
??0JitRuntime@asmjit@@QEAA@XZ ENDP			; asmjit::JitRuntime::JitRuntime
_TEXT	ENDS
; Function compile flags: /Odtp
text$x	SEGMENT
tv85 = 32
this$ = 64
?dtor$0@?0???0JitRuntime@asmjit@@QEAA@XZ@4HA PROC	; `asmjit::JitRuntime::JitRuntime'::`1'::dtor$0
	push	rbp
	sub	rsp, 32					; 00000020H
	mov	rbp, rdx
	mov	rcx, QWORD PTR this$[rbp]
	call	??1HostRuntime@asmjit@@UEAA@XZ		; asmjit::HostRuntime::~HostRuntime
	add	rsp, 32					; 00000020H
	pop	rbp
	ret	0
?dtor$0@?0???0JitRuntime@asmjit@@QEAA@XZ@4HA ENDP	; `asmjit::JitRuntime::JitRuntime'::`1'::dtor$0
text$x	ENDS
; Function compile flags: /Odtp
text$x	SEGMENT
tv85 = 32
this$ = 64
?dtor$1@?0???0JitRuntime@asmjit@@QEAA@XZ@4HA PROC	; `asmjit::JitRuntime::JitRuntime'::`1'::dtor$1
	push	rbp
	sub	rsp, 32					; 00000020H
	mov	rbp, rdx
	mov	rcx, QWORD PTR this$[rbp]
	add	rcx, 32					; 00000020H
	call	??1VMemMgr@asmjit@@QEAA@XZ		; asmjit::VMemMgr::~VMemMgr
	add	rsp, 32					; 00000020H
	pop	rbp
	ret	0
?dtor$1@?0???0JitRuntime@asmjit@@QEAA@XZ@4HA ENDP	; `asmjit::JitRuntime::JitRuntime'::`1'::dtor$1
text$x	ENDS
; Function compile flags: /Odtp
;	COMDAT ??_GStaticRuntime@asmjit@@UEAAPEAXI@Z
_TEXT	SEGMENT
this$ = 48
__flags$ = 56
??_GStaticRuntime@asmjit@@UEAAPEAXI@Z PROC		; asmjit::StaticRuntime::`scalar deleting destructor', COMDAT
$LN4:
	mov	DWORD PTR [rsp+16], edx
	mov	QWORD PTR [rsp+8], rcx
	sub	rsp, 40					; 00000028H
	mov	rcx, QWORD PTR this$[rsp]
	call	??1StaticRuntime@asmjit@@UEAA@XZ	; asmjit::StaticRuntime::~StaticRuntime
	mov	eax, DWORD PTR __flags$[rsp]
	and	eax, 1
	test	eax, eax
	je	SHORT $LN2@scalar
	mov	edx, 32					; 00000020H
	mov	rcx, QWORD PTR this$[rsp]
	call	??3@YAXPEAX_K@Z				; operator delete
	npad	1
$LN2@scalar:
	mov	rax, QWORD PTR this$[rsp]
	add	rsp, 40					; 00000028H
	ret	0
??_GStaticRuntime@asmjit@@UEAAPEAXI@Z ENDP		; asmjit::StaticRuntime::`scalar deleting destructor'
_TEXT	ENDS
; Function compile flags: /Odtp
; File D:\c++\paoda\ThirdParty\AsmJit\base\runtime.cpp
_TEXT	SEGMENT
this$ = 8
p$ = 16
?release@StaticRuntime@asmjit@@UEAAIPEAX@Z PROC		; asmjit::StaticRuntime::release

; 142  : Error StaticRuntime::release(void* p) {

	mov	QWORD PTR [rsp+16], rdx
	mov	QWORD PTR [rsp+8], rcx

; 143  :   // There is nothing to release as `StaticRuntime` doesn't manage any memory.
; 144  :   ASMJIT_UNUSED(p);
; 145  :   return kErrorOk;

	xor	eax, eax

; 146  : }

	ret	0
?release@StaticRuntime@asmjit@@UEAAIPEAX@Z ENDP		; asmjit::StaticRuntime::release
_TEXT	ENDS
; Function compile flags: /Odtp
; File D:\c++\paoda\ThirdParty\AsmJit\base\runtime.cpp
_TEXT	SEGMENT
codeSize$ = 32
sizeLimit$ = 40
p$ = 48
baseAddress$ = 56
relocSize$ = 64
tv136 = 72
this$ = 96
dst$ = 104
assembler$ = 112
?add@StaticRuntime@asmjit@@UEAAIPEAPEAXPEAUAssembler@2@@Z PROC ; asmjit::StaticRuntime::add

; 106  : Error StaticRuntime::add(void** dst, Assembler* assembler) {

$LN8:
	mov	QWORD PTR [rsp+24], r8
	mov	QWORD PTR [rsp+16], rdx
	mov	QWORD PTR [rsp+8], rcx
	sub	rsp, 88					; 00000058H

; 107  :   size_t codeSize = assembler->getCodeSize();

	mov	rcx, QWORD PTR assembler$[rsp]
	call	?getCodeSize@Assembler@asmjit@@QEBA_KXZ	; asmjit::Assembler::getCodeSize
	mov	QWORD PTR codeSize$[rsp], rax

; 108  :   size_t sizeLimit = _sizeLimit;

	mov	rax, QWORD PTR this$[rsp]
	mov	rax, QWORD PTR [rax+8]
	mov	QWORD PTR sizeLimit$[rsp], rax

; 109  : 
; 110  :   if (codeSize == 0) {

	cmp	QWORD PTR codeSize$[rsp], 0
	jne	SHORT $LN2@add

; 111  :     *dst = NULL;

	mov	rax, QWORD PTR dst$[rsp]
	mov	QWORD PTR [rax], 0

; 112  :     return kErrorNoCodeGenerated;

	mov	eax, 5
	jmp	$LN1@add
$LN2@add:

; 113  :   }
; 114  : 
; 115  :   if (sizeLimit != 0 && sizeLimit < codeSize) {

	cmp	QWORD PTR sizeLimit$[rsp], 0
	je	SHORT $LN3@add
	mov	rax, QWORD PTR codeSize$[rsp]
	cmp	QWORD PTR sizeLimit$[rsp], rax
	jae	SHORT $LN3@add

; 116  :     *dst = NULL;

	mov	rax, QWORD PTR dst$[rsp]
	mov	QWORD PTR [rax], 0

; 117  :     return kErrorCodeTooLarge;

	mov	eax, 6
	jmp	$LN1@add
$LN3@add:

; 118  :   }
; 119  : 
; 120  :   Ptr baseAddress = _baseAddress;

	mov	rax, QWORD PTR this$[rsp]
	mov	rax, QWORD PTR [rax+16]
	mov	QWORD PTR baseAddress$[rsp], rax

; 121  :   uint8_t* p = static_cast<uint8_t*>((void*)static_cast<uintptr_t>(baseAddress));

	mov	rax, QWORD PTR baseAddress$[rsp]
	mov	QWORD PTR p$[rsp], rax

; 122  : 
; 123  :   // Since the base address is known the `relocSize` returned should be equal
; 124  :   // to `codeSize`. It's better to fail if they don't match instead of passsing
; 125  :   // silently.
; 126  :   size_t relocSize = assembler->relocCode(p, baseAddress);

	mov	r8, QWORD PTR baseAddress$[rsp]
	mov	rdx, QWORD PTR p$[rsp]
	mov	rcx, QWORD PTR assembler$[rsp]
	call	?relocCode@Assembler@asmjit@@QEBA_KPEAX_K@Z ; asmjit::Assembler::relocCode
	mov	QWORD PTR relocSize$[rsp], rax

; 127  :   if (relocSize == 0 || codeSize != relocSize) {

	cmp	QWORD PTR relocSize$[rsp], 0
	je	SHORT $LN5@add
	mov	rax, QWORD PTR relocSize$[rsp]
	cmp	QWORD PTR codeSize$[rsp], rax
	je	SHORT $LN4@add
$LN5@add:

; 128  :     *dst = NULL;

	mov	rax, QWORD PTR dst$[rsp]
	mov	QWORD PTR [rax], 0

; 129  :     return kErrorInvalidState;

	mov	eax, 4
	jmp	SHORT $LN1@add
$LN4@add:

; 130  :   }
; 131  : 
; 132  :   _baseAddress += codeSize;

	mov	rax, QWORD PTR this$[rsp]
	mov	rax, QWORD PTR [rax+16]
	add	rax, QWORD PTR codeSize$[rsp]
	mov	rcx, QWORD PTR this$[rsp]
	mov	QWORD PTR [rcx+16], rax

; 133  :   if (sizeLimit)

	cmp	QWORD PTR sizeLimit$[rsp], 0
	je	SHORT $LN6@add

; 134  :     sizeLimit -= codeSize;

	mov	rax, QWORD PTR codeSize$[rsp]
	mov	rcx, QWORD PTR sizeLimit$[rsp]
	sub	rcx, rax
	mov	rax, rcx
	mov	QWORD PTR sizeLimit$[rsp], rax
$LN6@add:

; 135  : 
; 136  :   flush(p, codeSize);

	mov	rax, QWORD PTR this$[rsp]
	mov	rax, QWORD PTR [rax]
	mov	rax, QWORD PTR [rax+40]
	mov	QWORD PTR tv136[rsp], rax
	mov	r8, QWORD PTR codeSize$[rsp]
	mov	rdx, QWORD PTR p$[rsp]
	mov	rcx, QWORD PTR this$[rsp]
	call	QWORD PTR tv136[rsp]

; 137  :   *dst = p;

	mov	rax, QWORD PTR dst$[rsp]
	mov	rcx, QWORD PTR p$[rsp]
	mov	QWORD PTR [rax], rcx

; 138  : 
; 139  :   return kErrorOk;

	xor	eax, eax
$LN1@add:

; 140  : }

	add	rsp, 88					; 00000058H
	ret	0
?add@StaticRuntime@asmjit@@UEAAIPEAPEAXPEAUAssembler@2@@Z ENDP ; asmjit::StaticRuntime::add
_TEXT	ENDS
; Function compile flags: /Odtp
; File D:\c++\paoda\ThirdParty\AsmJit\base\runtime.cpp
_TEXT	SEGMENT
this$ = 48
??1StaticRuntime@asmjit@@UEAA@XZ PROC			; asmjit::StaticRuntime::~StaticRuntime

; 100  : StaticRuntime::~StaticRuntime() {}

$LN4:
	mov	QWORD PTR [rsp+8], rcx
	sub	rsp, 40					; 00000028H
	mov	rax, QWORD PTR this$[rsp]
	lea	rcx, OFFSET FLAT:??_7StaticRuntime@asmjit@@6B@
	mov	QWORD PTR [rax], rcx
	mov	rcx, QWORD PTR this$[rsp]
	call	??1HostRuntime@asmjit@@UEAA@XZ		; asmjit::HostRuntime::~HostRuntime
	npad	1
	add	rsp, 40					; 00000028H
	ret	0
??1StaticRuntime@asmjit@@UEAA@XZ ENDP			; asmjit::StaticRuntime::~StaticRuntime
_TEXT	ENDS
; Function compile flags: /Odtp
text$x	SEGMENT
this$ = 48
?dtor$0@?0???1StaticRuntime@asmjit@@UEAA@XZ@4HA PROC	; `asmjit::StaticRuntime::~StaticRuntime'::`1'::dtor$0
	push	rbp
	sub	rsp, 32					; 00000020H
	mov	rbp, rdx
	mov	rcx, QWORD PTR this$[rbp]
	call	??1HostRuntime@asmjit@@UEAA@XZ		; asmjit::HostRuntime::~HostRuntime
	add	rsp, 32					; 00000020H
	pop	rbp
	ret	0
?dtor$0@?0???1StaticRuntime@asmjit@@UEAA@XZ@4HA ENDP	; `asmjit::StaticRuntime::~StaticRuntime'::`1'::dtor$0
text$x	ENDS
; Function compile flags: /Odtp
; File D:\c++\paoda\ThirdParty\AsmJit\base\runtime.cpp
_TEXT	SEGMENT
this$ = 48
baseAddress$ = 56
sizeLimit$ = 64
??0StaticRuntime@asmjit@@QEAA@PEAX_K@Z PROC		; asmjit::StaticRuntime::StaticRuntime

; 95   : StaticRuntime::StaticRuntime(void* baseAddress, size_t sizeLimit) {

$LN4:
	mov	QWORD PTR [rsp+24], r8
	mov	QWORD PTR [rsp+16], rdx
	mov	QWORD PTR [rsp+8], rcx
	sub	rsp, 40					; 00000028H
	mov	rcx, QWORD PTR this$[rsp]
	call	??0HostRuntime@asmjit@@QEAA@XZ		; asmjit::HostRuntime::HostRuntime
	npad	1
	mov	rax, QWORD PTR this$[rsp]
	lea	rcx, OFFSET FLAT:??_7StaticRuntime@asmjit@@6B@
	mov	QWORD PTR [rax], rcx

; 96   :   _sizeLimit = sizeLimit;

	mov	rax, QWORD PTR this$[rsp]
	mov	rcx, QWORD PTR sizeLimit$[rsp]
	mov	QWORD PTR [rax+8], rcx

; 97   :   _baseAddress = static_cast<Ptr>((uintptr_t)baseAddress);

	mov	rax, QWORD PTR this$[rsp]
	mov	rcx, QWORD PTR baseAddress$[rsp]
	mov	QWORD PTR [rax+16], rcx

; 98   : }

	mov	rax, QWORD PTR this$[rsp]
	add	rsp, 40					; 00000028H
	ret	0
??0StaticRuntime@asmjit@@QEAA@PEAX_K@Z ENDP		; asmjit::StaticRuntime::StaticRuntime
_TEXT	ENDS
; Function compile flags: /Odtp
text$x	SEGMENT
this$ = 48
baseAddress$ = 56
sizeLimit$ = 64
?dtor$0@?0???0StaticRuntime@asmjit@@QEAA@PEAX_K@Z@4HA PROC ; `asmjit::StaticRuntime::StaticRuntime'::`1'::dtor$0
	push	rbp
	sub	rsp, 32					; 00000020H
	mov	rbp, rdx
	mov	rcx, QWORD PTR this$[rbp]
	call	??1HostRuntime@asmjit@@UEAA@XZ		; asmjit::HostRuntime::~HostRuntime
	add	rsp, 32					; 00000020H
	pop	rbp
	ret	0
?dtor$0@?0???0StaticRuntime@asmjit@@QEAA@PEAX_K@Z@4HA ENDP ; `asmjit::StaticRuntime::StaticRuntime'::`1'::dtor$0
text$x	ENDS
; Function compile flags: /Odtp
;	COMDAT ??_GHostRuntime@asmjit@@UEAAPEAXI@Z
_TEXT	SEGMENT
this$ = 48
__flags$ = 56
??_GHostRuntime@asmjit@@UEAAPEAXI@Z PROC		; asmjit::HostRuntime::`scalar deleting destructor', COMDAT
$LN4:
	mov	DWORD PTR [rsp+16], edx
	mov	QWORD PTR [rsp+8], rcx
	sub	rsp, 40					; 00000028H
	mov	rcx, QWORD PTR this$[rsp]
	call	??1HostRuntime@asmjit@@UEAA@XZ		; asmjit::HostRuntime::~HostRuntime
	mov	eax, DWORD PTR __flags$[rsp]
	and	eax, 1
	test	eax, eax
	je	SHORT $LN2@scalar
	mov	edx, 32					; 00000020H
	mov	rcx, QWORD PTR this$[rsp]
	call	??3@YAXPEAX_K@Z				; operator delete
	npad	1
$LN2@scalar:
	mov	rax, QWORD PTR this$[rsp]
	add	rsp, 40					; 00000028H
	ret	0
??_GHostRuntime@asmjit@@UEAAPEAXI@Z ENDP		; asmjit::HostRuntime::`scalar deleting destructor'
_TEXT	ENDS
; Function compile flags: /Odtp
; File D:\c++\paoda\ThirdParty\AsmJit\base\runtime.cpp
_TEXT	SEGMENT
this$ = 8
p$ = 16
size$ = 24
?flush@HostRuntime@asmjit@@UEAAXPEAX_K@Z PROC		; asmjit::HostRuntime::flush

; 79   : void HostRuntime::flush(void* p, size_t size) {

	mov	QWORD PTR [rsp+24], r8
	mov	QWORD PTR [rsp+16], rdx
	mov	QWORD PTR [rsp+8], rcx

; 80   :   // Only useful on non-x86 architectures.
; 81   : #if !defined(ASMJIT_HOST_X86) && !defined(ASMJIT_HOST_X64)
; 82   : 
; 83   :   // Windows has built-in support in kernel32.dll.
; 84   : #if defined(ASMJIT_OS_WINDOWS)
; 85   :   ::FlushInstructionCache(_memMgr.getProcessHandle(), p, size);
; 86   : #endif // ASMJIT_OS_WINDOWS
; 87   : 
; 88   : #endif // !ASMJIT_HOST_X86 && !ASMJIT_HOST_X64
; 89   : }

	ret	0
?flush@HostRuntime@asmjit@@UEAAXPEAX_K@Z ENDP		; asmjit::HostRuntime::flush
_TEXT	ENDS
; Function compile flags: /Odtp
; File D:\c++\paoda\ThirdParty\AsmJit\base\runtime.cpp
_TEXT	SEGMENT
alignment$ = 0
this$ = 32
?getStackAlignment@HostRuntime@asmjit@@UEAAIXZ PROC	; asmjit::HostRuntime::getStackAlignment

; 55   : uint32_t HostRuntime::getStackAlignment() {

$LN3:
	mov	QWORD PTR [rsp+8], rcx
	sub	rsp, 24

; 56   :   uint32_t alignment = sizeof(intptr_t);

	mov	DWORD PTR alignment$[rsp], 8

; 57   : 
; 58   : #if defined(ASMJIT_HOST_X86)
; 59   :   // Modern Linux, APPLE and UNIX guarantees 16-byte stack alignment, but I'm
; 60   :   // not sure about all other UNIX operating systems, because 16-byte alignment
; 61   :   // is addition to an older specification.
; 62   : # if (defined(__linux__)   || \
; 63   :       defined(__linux)     || \
; 64   :       defined(__unix__)    || \
; 65   :       defined(__FreeBSD__) || \
; 66   :       defined(__NetBSD__)  || \
; 67   :       defined(__OpenBSD__) || \
; 68   :       defined(__DARWIN__)  || \
; 69   :       defined(__APPLE__)   )
; 70   :   alignment = 16;
; 71   : # endif
; 72   : #elif defined(ASMJIT_HOST_X64)
; 73   :   alignment = 16;

	mov	DWORD PTR alignment$[rsp], 16

; 74   : #endif
; 75   : 
; 76   :   return alignment;

	mov	eax, DWORD PTR alignment$[rsp]

; 77   : }

	add	rsp, 24
	ret	0
?getStackAlignment@HostRuntime@asmjit@@UEAAIXZ ENDP	; asmjit::HostRuntime::getStackAlignment
_TEXT	ENDS
; Function compile flags: /Odtp
; File D:\c++\paoda\ThirdParty\AsmJit\base\runtime.cpp
_TEXT	SEGMENT
this$ = 48
?getCpuInfo@HostRuntime@asmjit@@UEAAPEBUCpuInfo@2@XZ PROC ; asmjit::HostRuntime::getCpuInfo

; 51   : const CpuInfo* HostRuntime::getCpuInfo() {

$LN3:
	mov	QWORD PTR [rsp+8], rcx
	sub	rsp, 40					; 00000028H

; 52   :   return CpuInfo::getHost();

	call	?getHost@CpuInfo@asmjit@@SAPEBU12@XZ	; asmjit::CpuInfo::getHost

; 53   : }

	add	rsp, 40					; 00000028H
	ret	0
?getCpuInfo@HostRuntime@asmjit@@UEAAPEBUCpuInfo@2@XZ ENDP ; asmjit::HostRuntime::getCpuInfo
_TEXT	ENDS
; Function compile flags: /Odtp
; File D:\c++\paoda\ThirdParty\AsmJit\base\runtime.cpp
_TEXT	SEGMENT
this$ = 48
??1HostRuntime@asmjit@@UEAA@XZ PROC			; asmjit::HostRuntime::~HostRuntime

; 45   : HostRuntime::~HostRuntime() {}

$LN4:
	mov	QWORD PTR [rsp+8], rcx
	sub	rsp, 40					; 00000028H
	mov	rax, QWORD PTR this$[rsp]
	lea	rcx, OFFSET FLAT:??_7HostRuntime@asmjit@@6B@
	mov	QWORD PTR [rax], rcx
	mov	rcx, QWORD PTR this$[rsp]
	call	??1Runtime@asmjit@@UEAA@XZ		; asmjit::Runtime::~Runtime
	npad	1
	add	rsp, 40					; 00000028H
	ret	0
??1HostRuntime@asmjit@@UEAA@XZ ENDP			; asmjit::HostRuntime::~HostRuntime
_TEXT	ENDS
; Function compile flags: /Odtp
text$x	SEGMENT
this$ = 48
?dtor$0@?0???1HostRuntime@asmjit@@UEAA@XZ@4HA PROC	; `asmjit::HostRuntime::~HostRuntime'::`1'::dtor$0
	push	rbp
	sub	rsp, 32					; 00000020H
	mov	rbp, rdx
	mov	rcx, QWORD PTR this$[rbp]
	call	??1Runtime@asmjit@@UEAA@XZ		; asmjit::Runtime::~Runtime
	add	rsp, 32					; 00000020H
	pop	rbp
	ret	0
?dtor$0@?0???1HostRuntime@asmjit@@UEAA@XZ@4HA ENDP	; `asmjit::HostRuntime::~HostRuntime'::`1'::dtor$0
text$x	ENDS
; Function compile flags: /Odtp
; File D:\c++\paoda\ThirdParty\AsmJit\base\runtime.cpp
_TEXT	SEGMENT
this$ = 48
??0HostRuntime@asmjit@@QEAA@XZ PROC			; asmjit::HostRuntime::HostRuntime

; 41   : HostRuntime::HostRuntime() {

$LN4:
	mov	QWORD PTR [rsp+8], rcx
	sub	rsp, 40					; 00000028H
	mov	rcx, QWORD PTR this$[rsp]
	call	??0Runtime@asmjit@@QEAA@XZ		; asmjit::Runtime::Runtime
	npad	1
	mov	rax, QWORD PTR this$[rsp]
	lea	rcx, OFFSET FLAT:??_7HostRuntime@asmjit@@6B@
	mov	QWORD PTR [rax], rcx

; 42   :   _runtimeType = kRuntimeTypeJit;

	mov	rax, QWORD PTR this$[rsp]
	mov	BYTE PTR [rax+24], 1

; 43   : }

	mov	rax, QWORD PTR this$[rsp]
	add	rsp, 40					; 00000028H
	ret	0
??0HostRuntime@asmjit@@QEAA@XZ ENDP			; asmjit::HostRuntime::HostRuntime
_TEXT	ENDS
; Function compile flags: /Odtp
text$x	SEGMENT
this$ = 48
?dtor$0@?0???0HostRuntime@asmjit@@QEAA@XZ@4HA PROC	; `asmjit::HostRuntime::HostRuntime'::`1'::dtor$0
	push	rbp
	sub	rsp, 32					; 00000020H
	mov	rbp, rdx
	mov	rcx, QWORD PTR this$[rbp]
	call	??1Runtime@asmjit@@UEAA@XZ		; asmjit::Runtime::~Runtime
	add	rsp, 32					; 00000020H
	pop	rbp
	ret	0
?dtor$0@?0???0HostRuntime@asmjit@@QEAA@XZ@4HA ENDP	; `asmjit::HostRuntime::HostRuntime'::`1'::dtor$0
text$x	ENDS
; Function compile flags: /Odtp
;	COMDAT ??_GRuntime@asmjit@@UEAAPEAXI@Z
_TEXT	SEGMENT
this$ = 48
__flags$ = 56
??_GRuntime@asmjit@@UEAAPEAXI@Z PROC			; asmjit::Runtime::`scalar deleting destructor', COMDAT
$LN4:
	mov	DWORD PTR [rsp+16], edx
	mov	QWORD PTR [rsp+8], rcx
	sub	rsp, 40					; 00000028H
	mov	rcx, QWORD PTR this$[rsp]
	call	??1Runtime@asmjit@@UEAA@XZ		; asmjit::Runtime::~Runtime
	mov	eax, DWORD PTR __flags$[rsp]
	and	eax, 1
	test	eax, eax
	je	SHORT $LN2@scalar
	mov	edx, 32					; 00000020H
	mov	rcx, QWORD PTR this$[rsp]
	call	??3@YAXPEAX_K@Z				; operator delete
	npad	1
$LN2@scalar:
	mov	rax, QWORD PTR this$[rsp]
	add	rsp, 40					; 00000028H
	ret	0
??_GRuntime@asmjit@@UEAAPEAXI@Z ENDP			; asmjit::Runtime::`scalar deleting destructor'
_TEXT	ENDS
; Function compile flags: /Odtp
; File D:\c++\paoda\ThirdParty\AsmJit\base\runtime.cpp
_TEXT	SEGMENT
this$ = 8
??1Runtime@asmjit@@UEAA@XZ PROC				; asmjit::Runtime::~Runtime

; 35   : Runtime::~Runtime() {}

	mov	QWORD PTR [rsp+8], rcx
	mov	rax, QWORD PTR this$[rsp]
	lea	rcx, OFFSET FLAT:??_7Runtime@asmjit@@6B@
	mov	QWORD PTR [rax], rcx
	ret	0
??1Runtime@asmjit@@UEAA@XZ ENDP				; asmjit::Runtime::~Runtime
_TEXT	ENDS
; Function compile flags: /Odtp
; File D:\c++\paoda\ThirdParty\AsmJit\base\runtime.cpp
_TEXT	SEGMENT
this$ = 48
??0Runtime@asmjit@@QEAA@XZ PROC				; asmjit::Runtime::Runtime

; 25   : Runtime::Runtime() {

$LN3:
	mov	QWORD PTR [rsp+8], rcx
	sub	rsp, 40					; 00000028H
	mov	rax, QWORD PTR this$[rsp]
	lea	rcx, OFFSET FLAT:??_7Runtime@asmjit@@6B@
	mov	QWORD PTR [rax], rcx

; 26   :   _sizeLimit = 0;

	mov	rax, QWORD PTR this$[rsp]
	mov	QWORD PTR [rax+8], 0

; 27   : 
; 28   :   _runtimeType = kRuntimeTypeNone;

	mov	rax, QWORD PTR this$[rsp]
	mov	BYTE PTR [rax+24], 0

; 29   :   _allocType = kVMemAllocFreeable;

	mov	rax, QWORD PTR this$[rsp]
	mov	BYTE PTR [rax+25], 0

; 30   :   ::memset(_reserved, 0, sizeof(_reserved));

	mov	rax, QWORD PTR this$[rsp]
	add	rax, 26
	mov	r8d, 6
	xor	edx, edx
	mov	rcx, rax
	call	memset

; 31   : 
; 32   :   _baseAddress = kNoBaseAddress;

	mov	rax, QWORD PTR this$[rsp]
	mov	QWORD PTR [rax+16], -1

; 33   : }

	mov	rax, QWORD PTR this$[rsp]
	add	rsp, 40					; 00000028H
	ret	0
??0Runtime@asmjit@@QEAA@XZ ENDP				; asmjit::Runtime::Runtime
_TEXT	ENDS
END
