; Listing generated by Microsoft (R) Optimizing Compiler Version 19.43.34810.0 

include listing.inc

INCLUDELIB LIBCMT
INCLUDELIB OLDNAMES

PUBLIC	??_C@_06GLKGGCJO@LcOpen@			; `string'
PUBLIC	??_C@_06GJPHNGFG@LcRead@			; `string'
PUBLIC	??_C@_0O@CBBNAKKC@LcReadScatter@		; `string'
PUBLIC	??_C@_07MBHEMNEL@LcWrite@			; `string'
PUBLIC	??_C@_0P@DAJMPOFM@LcWriteScatter@		; `string'
PUBLIC	??_C@_0M@HBBFEIGD@LcGetOption@			; `string'
PUBLIC	??_C@_0M@FPFAGJPB@LcSetOption@			; `string'
PUBLIC	??_C@_09DCHLEDFD@LcCommand@			; `string'
PUBLIC	??_C@_03HPADHAHE@N?1A@				; `string'
PUBLIC	??_C@_03HDGGCCPD@X86@				; `string'
PUBLIC	??_C@_06IDLKBMKC@X86PAE@			; `string'
PUBLIC	??_C@_03ELMOGNHL@X64@				; `string'
PUBLIC	??_C@_05DKFIPBAL@ARM64@				; `string'
PUBLIC	??_C@_04PCJGBDOP@Zero@				; `string'
PUBLIC	??_C@_04HJMOFLDF@Free@				; `string'
PUBLIC	??_C@_07LNBDIIPN@Standby@			; `string'
PUBLIC	??_C@_07PFEKAJBJ@Modifiy@			; `string'
PUBLIC	??_C@_07DGKCKENG@ModNoWr@			; `string'
PUBLIC	??_C@_03KHCCLPOB@Bad@				; `string'
PUBLIC	??_C@_06MAFFGDO@Active@				; `string'
PUBLIC	??_C@_07KADDEKFE@Transit@			; `string'
PUBLIC	??_C@_01JOAMLHOP@?9@				; `string'
PUBLIC	??_C@_06CGLFEPBO@Unused@			; `string'
PUBLIC	??_C@_08LBAJPEDB@ProcPriv@			; `string'
PUBLIC	??_C@_09BGPMMIPE@PageTable@			; `string'
PUBLIC	??_C@_09MFCNICMF@LargePage@			; `string'
PUBLIC	??_C@_0L@DHBAIELD@DriverLock@			; `string'
PUBLIC	??_C@_09PKFILKGD@Shareable@			; `string'
PUBLIC	??_C@_04PBAHLACE@File@				; `string'
PUBLIC	_Avx2WmemEnabledWeakValue
;	COMDAT _Avx2WmemEnabledWeakValue
_BSS	SEGMENT
_Avx2WmemEnabledWeakValue DD 01H DUP (?)
_BSS	ENDS
;	COMDAT ??_C@_04PBAHLACE@File@
CONST	SEGMENT
??_C@_04PBAHLACE@File@ DB 'File', 00H			; `string'
CONST	ENDS
;	COMDAT ??_C@_09PKFILKGD@Shareable@
CONST	SEGMENT
??_C@_09PKFILKGD@Shareable@ DB 'Shareable', 00H		; `string'
CONST	ENDS
;	COMDAT ??_C@_0L@DHBAIELD@DriverLock@
CONST	SEGMENT
??_C@_0L@DHBAIELD@DriverLock@ DB 'DriverLock', 00H	; `string'
CONST	ENDS
;	COMDAT ??_C@_09MFCNICMF@LargePage@
CONST	SEGMENT
??_C@_09MFCNICMF@LargePage@ DB 'LargePage', 00H		; `string'
CONST	ENDS
;	COMDAT ??_C@_09BGPMMIPE@PageTable@
CONST	SEGMENT
??_C@_09BGPMMIPE@PageTable@ DB 'PageTable', 00H		; `string'
CONST	ENDS
;	COMDAT ??_C@_08LBAJPEDB@ProcPriv@
CONST	SEGMENT
??_C@_08LBAJPEDB@ProcPriv@ DB 'ProcPriv', 00H		; `string'
CONST	ENDS
;	COMDAT ??_C@_06CGLFEPBO@Unused@
CONST	SEGMENT
??_C@_06CGLFEPBO@Unused@ DB 'Unused', 00H		; `string'
CONST	ENDS
;	COMDAT ??_C@_01JOAMLHOP@?9@
CONST	SEGMENT
??_C@_01JOAMLHOP@?9@ DB '-', 00H			; `string'
CONST	ENDS
;	COMDAT ??_C@_07KADDEKFE@Transit@
CONST	SEGMENT
??_C@_07KADDEKFE@Transit@ DB 'Transit', 00H		; `string'
CONST	ENDS
;	COMDAT ??_C@_06MAFFGDO@Active@
CONST	SEGMENT
??_C@_06MAFFGDO@Active@ DB 'Active', 00H		; `string'
CONST	ENDS
;	COMDAT ??_C@_03KHCCLPOB@Bad@
CONST	SEGMENT
??_C@_03KHCCLPOB@Bad@ DB 'Bad', 00H			; `string'
CONST	ENDS
;	COMDAT ??_C@_07DGKCKENG@ModNoWr@
CONST	SEGMENT
??_C@_07DGKCKENG@ModNoWr@ DB 'ModNoWr', 00H		; `string'
CONST	ENDS
;	COMDAT ??_C@_07PFEKAJBJ@Modifiy@
CONST	SEGMENT
??_C@_07PFEKAJBJ@Modifiy@ DB 'Modifiy', 00H		; `string'
CONST	ENDS
;	COMDAT ??_C@_07LNBDIIPN@Standby@
CONST	SEGMENT
??_C@_07LNBDIIPN@Standby@ DB 'Standby', 00H		; `string'
CONST	ENDS
;	COMDAT ??_C@_04HJMOFLDF@Free@
CONST	SEGMENT
??_C@_04HJMOFLDF@Free@ DB 'Free', 00H			; `string'
CONST	ENDS
;	COMDAT ??_C@_04PCJGBDOP@Zero@
CONST	SEGMENT
??_C@_04PCJGBDOP@Zero@ DB 'Zero', 00H			; `string'
CONST	ENDS
;	COMDAT ??_C@_05DKFIPBAL@ARM64@
CONST	SEGMENT
??_C@_05DKFIPBAL@ARM64@ DB 'ARM64', 00H			; `string'
CONST	ENDS
;	COMDAT ??_C@_03ELMOGNHL@X64@
CONST	SEGMENT
??_C@_03ELMOGNHL@X64@ DB 'X64', 00H			; `string'
CONST	ENDS
;	COMDAT ??_C@_06IDLKBMKC@X86PAE@
CONST	SEGMENT
??_C@_06IDLKBMKC@X86PAE@ DB 'X86PAE', 00H		; `string'
CONST	ENDS
;	COMDAT ??_C@_03HDGGCCPD@X86@
CONST	SEGMENT
??_C@_03HDGGCCPD@X86@ DB 'X86', 00H			; `string'
CONST	ENDS
;	COMDAT ??_C@_03HPADHAHE@N?1A@
CONST	SEGMENT
??_C@_03HPADHAHE@N?1A@ DB 'N/A', 00H			; `string'
CONST	ENDS
;	COMDAT ??_C@_09DCHLEDFD@LcCommand@
CONST	SEGMENT
??_C@_09DCHLEDFD@LcCommand@ DB 'LcCommand', 00H		; `string'
CONST	ENDS
;	COMDAT ??_C@_0M@FPFAGJPB@LcSetOption@
CONST	SEGMENT
??_C@_0M@FPFAGJPB@LcSetOption@ DB 'LcSetOption', 00H	; `string'
CONST	ENDS
;	COMDAT ??_C@_0M@HBBFEIGD@LcGetOption@
CONST	SEGMENT
??_C@_0M@HBBFEIGD@LcGetOption@ DB 'LcGetOption', 00H	; `string'
CONST	ENDS
;	COMDAT ??_C@_0P@DAJMPOFM@LcWriteScatter@
CONST	SEGMENT
??_C@_0P@DAJMPOFM@LcWriteScatter@ DB 'LcWriteScatter', 00H ; `string'
CONST	ENDS
;	COMDAT ??_C@_07MBHEMNEL@LcWrite@
CONST	SEGMENT
??_C@_07MBHEMNEL@LcWrite@ DB 'LcWrite', 00H		; `string'
CONST	ENDS
;	COMDAT ??_C@_0O@CBBNAKKC@LcReadScatter@
CONST	SEGMENT
??_C@_0O@CBBNAKKC@LcReadScatter@ DB 'LcReadScatter', 00H ; `string'
CONST	ENDS
;	COMDAT ??_C@_06GJPHNGFG@LcRead@
CONST	SEGMENT
??_C@_06GJPHNGFG@LcRead@ DB 'LcRead', 00H		; `string'
CONST	ENDS
;	COMDAT ??_C@_06GLKGGCJO@LcOpen@
CONST	SEGMENT
??_C@_06GLKGGCJO@LcOpen@ DB 'LcOpen', 00H		; `string'
CONST	ENDS
PUBLIC	??_H@YAXPEAX_K1P6APEAX0@Z@Z			; `vector constructor iterator'
PUBLIC	?assign@?$_Narrow_char_traits@DH@std@@SAXAEADAEBD@Z ; std::_Narrow_char_traits<char,int>::assign
PUBLIC	?_Adjust_manually_vector_aligned@std@@YAXAEAPEAXAEA_K@Z ; std::_Adjust_manually_vector_aligned
PUBLIC	?_Orphan_all@_Container_base0@std@@QEAAXXZ	; std::_Container_base0::_Orphan_all
PUBLIC	?deallocate@?$allocator@D@std@@QEAAXQEAD_K@Z	; std::allocator<char>::deallocate
PUBLIC	?_Myptr@?$_String_val@U?$_Simple_types@D@std@@@std@@QEBAPEBDXZ ; std::_String_val<std::_Simple_types<char> >::_Myptr
PUBLIC	?_Large_mode_engaged@?$_String_val@U?$_Simple_types@D@std@@@std@@QEBA_NXZ ; std::_String_val<std::_Simple_types<char> >::_Large_mode_engaged
PUBLIC	??1_Bxty@?$_String_val@U?$_Simple_types@D@std@@@std@@QEAA@XZ ; std::_String_val<std::_Simple_types<char> >::_Bxty::~_Bxty
PUBLIC	?_Switch_to_buf@_Bxty@?$_String_val@U?$_Simple_types@D@std@@@std@@QEAAXXZ ; std::_String_val<std::_Simple_types<char> >::_Bxty::_Switch_to_buf
PUBLIC	??1?$_String_val@U?$_Simple_types@D@std@@@std@@QEAA@XZ ; std::_String_val<std::_Simple_types<char> >::~_String_val<std::_Simple_types<char> >
PUBLIC	?_Deallocate_for_capacity@?$basic_string@DU?$char_traits@D@std@@V?$allocator@D@2@@std@@CAXAEAV?$allocator@D@2@QEAD_K@Z ; std::basic_string<char,std::char_traits<char>,std::allocator<char> >::_Deallocate_for_capacity
PUBLIC	??1?$basic_string@DU?$char_traits@D@std@@V?$allocator@D@2@@std@@QEAA@XZ ; std::basic_string<char,std::char_traits<char>,std::allocator<char> >::~basic_string<char,std::char_traits<char>,std::allocator<char> >
PUBLIC	?c_str@?$basic_string@DU?$char_traits@D@std@@V?$allocator@D@2@@std@@QEBAPEBDXZ ; std::basic_string<char,std::char_traits<char>,std::allocator<char> >::c_str
PUBLIC	?_Tidy_deallocate@?$basic_string@DU?$char_traits@D@std@@V?$allocator@D@2@@std@@AEAAXXZ ; std::basic_string<char,std::char_traits<char>,std::allocator<char> >::_Tidy_deallocate
PUBLIC	?_Getal@?$basic_string@DU?$char_traits@D@std@@V?$allocator@D@2@@std@@AEAAAEAV?$allocator@D@2@XZ ; std::basic_string<char,std::char_traits<char>,std::allocator<char> >::_Getal
PUBLIC	?_Get_first@?$_Compressed_pair@V?$allocator@D@std@@V?$_String_val@U?$_Simple_types@D@std@@@2@$00@std@@QEAAAEAV?$allocator@D@2@XZ ; std::_Compressed_pair<std::allocator<char>,std::_String_val<std::_Simple_types<char> >,1>::_Get_first
PUBLIC	??1?$_Compressed_pair@V?$allocator@D@std@@V?$_String_val@U?$_Simple_types@D@std@@@2@$00@std@@QEAA@XZ ; std::_Compressed_pair<std::allocator<char>,std::_String_val<std::_Simple_types<char> >,1>::~_Compressed_pair<std::allocator<char>,std::_String_val<std::_Simple_types<char> >,1>
PUBLIC	?ThreadInterlockedAssignIf@@YA_NPECJJJ@Z	; ThreadInterlockedAssignIf
PUBLIC	??0CThreadMutex@Thread@IronMan@@QEAA@XZ		; IronMan::Thread::CThreadMutex::CThreadMutex
PUBLIC	??1CThreadMutex@Thread@IronMan@@QEAA@XZ		; IronMan::Thread::CThreadMutex::~CThreadMutex
PUBLIC	?Lock@CThreadMutex@Thread@IronMan@@QEAAXXZ	; IronMan::Thread::CThreadMutex::Lock
PUBLIC	?Unlock@CThreadMutex@Thread@IronMan@@QEAAXXZ	; IronMan::Thread::CThreadMutex::Unlock
PUBLIC	?TryLock@CThreadMutex@Thread@IronMan@@QEAA_NXZ	; IronMan::Thread::CThreadMutex::TryLock
PUBLIC	?AssertOwnedByCurrentThread@CThreadMutex@Thread@IronMan@@QEAA_NXZ ; IronMan::Thread::CThreadMutex::AssertOwnedByCurrentThread
PUBLIC	?SetTrace@CThreadMutex@Thread@IronMan@@QEAAX_N@Z ; IronMan::Thread::CThreadMutex::SetTrace
PUBLIC	?TryLockInline@CThreadFastMutex@Thread@IronMan@@AECA_NI@Z ; IronMan::Thread::CThreadFastMutex::TryLockInline
PUBLIC	?TryLock@CThreadFastMutex@Thread@IronMan@@AECA_NI@Z ; IronMan::Thread::CThreadFastMutex::TryLock
PUBLIC	?Lock@CThreadFastMutex@Thread@IronMan@@AECAXII@Z ; IronMan::Thread::CThreadFastMutex::Lock
PUBLIC	??0WSInit@detail@httplib@@QEAA@XZ		; httplib::detail::WSInit::WSInit
PUBLIC	??1WSInit@detail@httplib@@QEAA@XZ		; httplib::detail::WSInit::~WSInit
PUBLIC	??0SSLInit@detail@httplib@@QEAA@XZ		; httplib::detail::SSLInit::SSLInit
PUBLIC	??$_Unfancy@D@std@@YAPEADPEAD@Z			; std::_Unfancy<char>
PUBLIC	??$_Deallocate@$0BA@@std@@YAXPEAX_K@Z		; std::_Deallocate<16>
PUBLIC	??$_Destroy_in_place@PEAD@std@@YAXAEAPEAD@Z	; std::_Destroy_in_place<char *>
PUBLIC	??$?0$0A@@id@locale@std@@QEAA@XZ		; std::locale::id::id<0>
PUBLIC	??_C@_0DF@PFFPIAEC@Thread?5?$CFu?5about?5to?5try?9wait?5for@ ; `string'
PUBLIC	??_C@_0BC@ECCJIJFO@?$FL?h?$LO?$JD?e?$IH?$LK?d?$LP?$KB?f?$IB?$KP?$FN?5?$CFs@ ; `string'
PUBLIC	??_C@_0BO@PLAACIBM@Thread?5?$CFu?5now?5owns?5lock?50x?$CFx?6@ ; `string'
PUBLIC	?id@?$num_put@DV?$ostreambuf_iterator@DU?$char_traits@D@std@@@std@@@std@@2V0locale@2@A ; std::num_put<char,std::ostreambuf_iterator<char,std::char_traits<char> > >::id
PUBLIC	?id@?$codecvt@DDU_Mbstatet@@@std@@2V0locale@2@A	; std::codecvt<char,char,_Mbstatet>::id
PUBLIC	?id@?$numpunct@D@std@@2V0locale@2@A		; std::numpunct<char>::id
PUBLIC	?id@?$collate@D@std@@2V0locale@2@A		; std::collate<char>::id
EXTRN	??3@YAXPEAX_K@Z:PROC				; operator delete
EXTRN	atexit:PROC
EXTRN	_invalid_parameter_noinfo_noreturn:PROC
EXTRN	__imp_GetStdHandle:PROC
EXTRN	__imp_EnterCriticalSection:PROC
EXTRN	__imp_LeaveCriticalSection:PROC
EXTRN	__imp_InitializeCriticalSectionAndSpinCount:PROC
EXTRN	__imp_TryEnterCriticalSection:PROC
EXTRN	__imp_DeleteCriticalSection:PROC
EXTRN	__imp_Sleep:PROC
EXTRN	__imp_GetCurrentThread:PROC
EXTRN	__imp_GetCurrentThreadId:PROC
EXTRN	__imp_GetThreadPriority:PROC
EXTRN	__imp_SetConsoleTextAttribute:PROC
EXTRN	?Print@Console@IronMan@@YA_NPEBDZZ:PROC		; IronMan::Console::Print
EXTRN	?FormatString@Utils@IronMan@@YA?AV?$basic_string@DU?$char_traits@D@std@@V?$allocator@D@2@@std@@PEBDZZ:PROC ; IronMan::Utils::FormatString
EXTRN	__imp_WSAStartup:PROC
EXTRN	__imp_WSACleanup:PROC
EXTRN	OPENSSL_init_ssl:PROC
EXTRN	__CxxFrameHandler4:PROC
EXTRN	__GSHandlerCheck:PROC
EXTRN	__GSHandlerCheck_EH4:PROC
EXTRN	__security_check_cookie:PROC
EXTRN	__security_cookie:QWORD
_BSS	SEGMENT
?wsinit_@detail@httplib@@3VWSInit@12@A DB 01H DUP (?)	; httplib::detail::wsinit_
?sslinit_@detail@httplib@@3VSSLInit@12@A DB 01H DUP (?)	; httplib::detail::sslinit_
_BSS	ENDS
;	COMDAT ?id@?$num_put@DV?$ostreambuf_iterator@DU?$char_traits@D@std@@@std@@@std@@2V0locale@2@A
_BSS	SEGMENT
?id@?$num_put@DV?$ostreambuf_iterator@DU?$char_traits@D@std@@@std@@@std@@2V0locale@2@A DQ 01H DUP (?) ; std::num_put<char,std::ostreambuf_iterator<char,std::char_traits<char> > >::id
_BSS	ENDS
;	COMDAT ?id@?$codecvt@DDU_Mbstatet@@@std@@2V0locale@2@A
_BSS	SEGMENT
?id@?$codecvt@DDU_Mbstatet@@@std@@2V0locale@2@A DQ 01H DUP (?) ; std::codecvt<char,char,_Mbstatet>::id
_BSS	ENDS
;	COMDAT ?id@?$numpunct@D@std@@2V0locale@2@A
_BSS	SEGMENT
?id@?$numpunct@D@std@@2V0locale@2@A DQ 01H DUP (?)	; std::numpunct<char>::id
_BSS	ENDS
;	COMDAT ?id@?$collate@D@std@@2V0locale@2@A
_BSS	SEGMENT
?id@?$collate@D@std@@2V0locale@2@A DQ 01H DUP (?)	; std::collate<char>::id
_BSS	ENDS
;	COMDAT pdata
pdata	SEGMENT
$pdata$??_H@YAXPEAX_K1P6APEAX0@Z@Z DD imagerel $LN5
	DD	imagerel $LN5+102
	DD	imagerel $unwind$??_H@YAXPEAX_K1P6APEAX0@Z@Z
pdata	ENDS
;	COMDAT pdata
pdata	SEGMENT
$pdata$?_Adjust_manually_vector_aligned@std@@YAXAEAPEAXAEA_K@Z DD imagerel $LN11
	DD	imagerel $LN11+154
	DD	imagerel $unwind$?_Adjust_manually_vector_aligned@std@@YAXAEAPEAXAEA_K@Z
pdata	ENDS
;	COMDAT pdata
pdata	SEGMENT
$pdata$?deallocate@?$allocator@D@std@@QEAAXQEAD_K@Z DD imagerel $LN3
	DD	imagerel $LN3+40
	DD	imagerel $unwind$?deallocate@?$allocator@D@std@@QEAAXQEAD_K@Z
pdata	ENDS
;	COMDAT pdata
pdata	SEGMENT
$pdata$?_Myptr@?$_String_val@U?$_Simple_types@D@std@@@std@@QEBAPEBDXZ DD imagerel $LN4
	DD	imagerel $LN4+64
	DD	imagerel $unwind$?_Myptr@?$_String_val@U?$_Simple_types@D@std@@@std@@QEBAPEBDXZ
pdata	ENDS
;	COMDAT pdata
pdata	SEGMENT
$pdata$?_Large_mode_engaged@?$_String_val@U?$_Simple_types@D@std@@@std@@QEBA_NXZ DD imagerel $LN5
	DD	imagerel $LN5+46
	DD	imagerel $unwind$?_Large_mode_engaged@?$_String_val@U?$_Simple_types@D@std@@@std@@QEBA_NXZ
pdata	ENDS
;	COMDAT pdata
pdata	SEGMENT
$pdata$?_Switch_to_buf@_Bxty@?$_String_val@U?$_Simple_types@D@std@@@std@@QEAAXXZ DD imagerel $LN3
	DD	imagerel $LN3+28
	DD	imagerel $unwind$?_Switch_to_buf@_Bxty@?$_String_val@U?$_Simple_types@D@std@@@std@@QEAAXXZ
pdata	ENDS
;	COMDAT pdata
pdata	SEGMENT
$pdata$??1?$_String_val@U?$_Simple_types@D@std@@@std@@QEAA@XZ DD imagerel $LN4
	DD	imagerel $LN4+28
	DD	imagerel $unwind$??1?$_String_val@U?$_Simple_types@D@std@@@std@@QEAA@XZ
pdata	ENDS
;	COMDAT pdata
pdata	SEGMENT
$pdata$?dtor$0@?0???1?$_String_val@U?$_Simple_types@D@std@@@std@@QEAA@XZ@4HA DD imagerel ?dtor$0@?0???1?$_String_val@U?$_Simple_types@D@std@@@std@@QEAA@XZ@4HA
	DD	imagerel ?dtor$0@?0???1?$_String_val@U?$_Simple_types@D@std@@@std@@QEAA@XZ@4HA+24
	DD	imagerel $unwind$?dtor$0@?0???1?$_String_val@U?$_Simple_types@D@std@@@std@@QEAA@XZ@4HA
pdata	ENDS
;	COMDAT pdata
pdata	SEGMENT
$pdata$?_Deallocate_for_capacity@?$basic_string@DU?$char_traits@D@std@@V?$allocator@D@2@@std@@CAXAEAV?$allocator@D@2@QEAD_K@Z DD imagerel $LN3
	DD	imagerel $LN3+51
	DD	imagerel $unwind$?_Deallocate_for_capacity@?$basic_string@DU?$char_traits@D@std@@V?$allocator@D@2@@std@@CAXAEAV?$allocator@D@2@QEAD_K@Z
pdata	ENDS
;	COMDAT pdata
pdata	SEGMENT
$pdata$??1?$basic_string@DU?$char_traits@D@std@@V?$allocator@D@2@@std@@QEAA@XZ DD imagerel $LN4
	DD	imagerel $LN4+39
	DD	imagerel $unwind$??1?$basic_string@DU?$char_traits@D@std@@V?$allocator@D@2@@std@@QEAA@XZ
pdata	ENDS
;	COMDAT pdata
pdata	SEGMENT
$pdata$?dtor$0@?0???1?$basic_string@DU?$char_traits@D@std@@V?$allocator@D@2@@std@@QEAA@XZ@4HA DD imagerel ?dtor$0@?0???1?$basic_string@DU?$char_traits@D@std@@V?$allocator@D@2@@std@@QEAA@XZ@4HA
	DD	imagerel ?dtor$0@?0???1?$basic_string@DU?$char_traits@D@std@@V?$allocator@D@2@@std@@QEAA@XZ@4HA+24
	DD	imagerel $unwind$?dtor$0@?0???1?$basic_string@DU?$char_traits@D@std@@V?$allocator@D@2@@std@@QEAA@XZ@4HA
pdata	ENDS
;	COMDAT pdata
pdata	SEGMENT
$pdata$?c_str@?$basic_string@DU?$char_traits@D@std@@V?$allocator@D@2@@std@@QEBAPEBDXZ DD imagerel $LN3
	DD	imagerel $LN3+27
	DD	imagerel $unwind$?c_str@?$basic_string@DU?$char_traits@D@std@@V?$allocator@D@2@@std@@QEBAPEBDXZ
pdata	ENDS
;	COMDAT pdata
pdata	SEGMENT
$pdata$?_Tidy_deallocate@?$basic_string@DU?$char_traits@D@std@@V?$allocator@D@2@@std@@AEAAXXZ DD imagerel $LN4
	DD	imagerel $LN4+173
	DD	imagerel $unwind$?_Tidy_deallocate@?$basic_string@DU?$char_traits@D@std@@V?$allocator@D@2@@std@@AEAAXXZ
pdata	ENDS
;	COMDAT pdata
pdata	SEGMENT
$pdata$?_Getal@?$basic_string@DU?$char_traits@D@std@@V?$allocator@D@2@@std@@AEAAAEAV?$allocator@D@2@XZ DD imagerel $LN3
	DD	imagerel $LN3+27
	DD	imagerel $unwind$?_Getal@?$basic_string@DU?$char_traits@D@std@@V?$allocator@D@2@@std@@AEAAAEAV?$allocator@D@2@XZ
pdata	ENDS
;	COMDAT pdata
pdata	SEGMENT
$pdata$??1?$_Compressed_pair@V?$allocator@D@std@@V?$_String_val@U?$_Simple_types@D@std@@@2@$00@std@@QEAA@XZ DD imagerel $LN4
	DD	imagerel $LN4+28
	DD	imagerel $unwind$??1?$_Compressed_pair@V?$allocator@D@std@@V?$_String_val@U?$_Simple_types@D@std@@@2@$00@std@@QEAA@XZ
pdata	ENDS
;	COMDAT pdata
pdata	SEGMENT
$pdata$?dtor$0@?0???1?$_Compressed_pair@V?$allocator@D@std@@V?$_String_val@U?$_Simple_types@D@std@@@2@$00@std@@QEAA@XZ@4HA DD imagerel ?dtor$0@?0???1?$_Compressed_pair@V?$allocator@D@std@@V?$_String_val@U?$_Simple_types@D@std@@@2@$00@std@@QEAA@XZ@4HA
	DD	imagerel ?dtor$0@?0???1?$_Compressed_pair@V?$allocator@D@std@@V?$_String_val@U?$_Simple_types@D@std@@@2@$00@std@@QEAA@XZ@4HA+24
	DD	imagerel $unwind$?dtor$0@?0???1?$_Compressed_pair@V?$allocator@D@std@@V?$_String_val@U?$_Simple_types@D@std@@@2@$00@std@@QEAA@XZ@4HA
pdata	ENDS
;	COMDAT pdata
pdata	SEGMENT
$pdata$?ThreadInterlockedAssignIf@@YA_NPECJJJ@Z DD imagerel $LN5
	DD	imagerel $LN5+74
	DD	imagerel $unwind$?ThreadInterlockedAssignIf@@YA_NPECJJJ@Z
pdata	ENDS
pdata	SEGMENT
$pdata$??0CThreadMutex@Thread@IronMan@@QEAA@XZ DD imagerel $LN3
	DD	imagerel $LN3+70
	DD	imagerel $unwind$??0CThreadMutex@Thread@IronMan@@QEAA@XZ
$pdata$??1CThreadMutex@Thread@IronMan@@QEAA@XZ DD imagerel $LN3
	DD	imagerel $LN3+29
	DD	imagerel $unwind$??1CThreadMutex@Thread@IronMan@@QEAA@XZ
$pdata$?Lock@CThreadMutex@Thread@IronMan@@QEAAXXZ DD imagerel $LN3
	DD	imagerel $LN3+29
	DD	imagerel $unwind$?Lock@CThreadMutex@Thread@IronMan@@QEAAXXZ
$pdata$?Unlock@CThreadMutex@Thread@IronMan@@QEAAXXZ DD imagerel $LN3
	DD	imagerel $LN3+29
	DD	imagerel $unwind$?Unlock@CThreadMutex@Thread@IronMan@@QEAAXXZ
$pdata$?TryLock@CThreadMutex@Thread@IronMan@@QEAA_NXZ DD imagerel $LN9
	DD	imagerel $LN9+567
	DD	imagerel $unwind$?TryLock@CThreadMutex@Thread@IronMan@@QEAA_NXZ
pdata	ENDS
pdata	SEGMENT
$pdata$?dtor$0@?0??TryLock@CThreadMutex@Thread@IronMan@@QEAA_NXZ@4HA DD imagerel ?dtor$0@?0??TryLock@CThreadMutex@Thread@IronMan@@QEAA_NXZ@4HA
	DD	imagerel ?dtor$0@?0??TryLock@CThreadMutex@Thread@IronMan@@QEAA_NXZ@4HA+24
	DD	imagerel $unwind$?dtor$0@?0??TryLock@CThreadMutex@Thread@IronMan@@QEAA_NXZ@4HA
$pdata$?dtor$1@?0??TryLock@CThreadMutex@Thread@IronMan@@QEAA_NXZ@4HA DD imagerel ?dtor$1@?0??TryLock@CThreadMutex@Thread@IronMan@@QEAA_NXZ@4HA
	DD	imagerel ?dtor$1@?0??TryLock@CThreadMutex@Thread@IronMan@@QEAA_NXZ@4HA+27
	DD	imagerel $unwind$?dtor$1@?0??TryLock@CThreadMutex@Thread@IronMan@@QEAA_NXZ@4HA
pdata	ENDS
;	COMDAT pdata
pdata	SEGMENT
$pdata$?TryLockInline@CThreadFastMutex@Thread@IronMan@@AECA_NI@Z DD imagerel $LN4
	DD	imagerel $LN4+82
	DD	imagerel $unwind$?TryLockInline@CThreadFastMutex@Thread@IronMan@@AECA_NI@Z
pdata	ENDS
;	COMDAT pdata
pdata	SEGMENT
$pdata$?TryLock@CThreadFastMutex@Thread@IronMan@@AECA_NI@Z DD imagerel $LN3
	DD	imagerel $LN3+32
	DD	imagerel $unwind$?TryLock@CThreadFastMutex@Thread@IronMan@@AECA_NI@Z
pdata	ENDS
pdata	SEGMENT
$pdata$?Lock@CThreadFastMutex@Thread@IronMan@@AECAXII@Z DD imagerel $LN24
	DD	imagerel $LN24+263
	DD	imagerel $unwind$?Lock@CThreadFastMutex@Thread@IronMan@@AECAXII@Z
pdata	ENDS
;	COMDAT pdata
pdata	SEGMENT
$pdata$??0WSInit@detail@httplib@@QEAA@XZ DD imagerel $LN4
	DD	imagerel $LN4+103
	DD	imagerel $unwind$??0WSInit@detail@httplib@@QEAA@XZ
pdata	ENDS
;	COMDAT pdata
pdata	SEGMENT
$pdata$??1WSInit@detail@httplib@@QEAA@XZ DD imagerel $LN4
	DD	imagerel $LN4+33
	DD	imagerel $unwind$??1WSInit@detail@httplib@@QEAA@XZ
pdata	ENDS
;	COMDAT pdata
pdata	SEGMENT
$pdata$??__Ewsinit_@detail@httplib@@YAXXZ DD imagerel ??__Ewsinit_@detail@httplib@@YAXXZ
	DD	imagerel ??__Ewsinit_@detail@httplib@@YAXXZ+34
	DD	imagerel $unwind$??__Ewsinit_@detail@httplib@@YAXXZ
pdata	ENDS
;	COMDAT pdata
pdata	SEGMENT
$pdata$??__Fwsinit_@detail@httplib@@YAXXZ DD imagerel ??__Fwsinit_@detail@httplib@@YAXXZ
	DD	imagerel ??__Fwsinit_@detail@httplib@@YAXXZ+22
	DD	imagerel $unwind$??__Fwsinit_@detail@httplib@@YAXXZ
pdata	ENDS
;	COMDAT pdata
pdata	SEGMENT
$pdata$??0SSLInit@detail@httplib@@QEAA@XZ DD imagerel $LN3
	DD	imagerel $LN3+32
	DD	imagerel $unwind$??0SSLInit@detail@httplib@@QEAA@XZ
pdata	ENDS
;	COMDAT pdata
pdata	SEGMENT
$pdata$??__Esslinit_@detail@httplib@@YAXXZ DD imagerel ??__Esslinit_@detail@httplib@@YAXXZ
	DD	imagerel ??__Esslinit_@detail@httplib@@YAXXZ+22
	DD	imagerel $unwind$??__Esslinit_@detail@httplib@@YAXXZ
pdata	ENDS
;	COMDAT pdata
pdata	SEGMENT
$pdata$??$_Deallocate@$0BA@@std@@YAXPEAX_K@Z DD imagerel $LN4
	DD	imagerel $LN4+62
	DD	imagerel $unwind$??$_Deallocate@$0BA@@std@@YAXPEAX_K@Z
pdata	ENDS
;	COMDAT pdata
pdata	SEGMENT
$pdata$??__E?id@?$codecvt@DDU_Mbstatet@@@std@@2V0locale@2@A@@YAXXZ DD imagerel ??__E?id@?$codecvt@DDU_Mbstatet@@@std@@2V0locale@2@A@@YAXXZ
	DD	imagerel ??__E?id@?$codecvt@DDU_Mbstatet@@@std@@2V0locale@2@A@@YAXXZ+22
	DD	imagerel $unwind$??__E?id@?$codecvt@DDU_Mbstatet@@@std@@2V0locale@2@A@@YAXXZ
pdata	ENDS
;	COMDAT pdata
pdata	SEGMENT
$pdata$??__E?id@?$num_put@DV?$ostreambuf_iterator@DU?$char_traits@D@std@@@std@@@std@@2V0locale@2@A@@YAXXZ DD imagerel ??__E?id@?$num_put@DV?$ostreambuf_iterator@DU?$char_traits@D@std@@@std@@@std@@2V0locale@2@A@@YAXXZ
	DD	imagerel ??__E?id@?$num_put@DV?$ostreambuf_iterator@DU?$char_traits@D@std@@@std@@@std@@2V0locale@2@A@@YAXXZ+22
	DD	imagerel $unwind$??__E?id@?$num_put@DV?$ostreambuf_iterator@DU?$char_traits@D@std@@@std@@@std@@2V0locale@2@A@@YAXXZ
pdata	ENDS
;	COMDAT pdata
pdata	SEGMENT
$pdata$??__E?id@?$collate@D@std@@2V0locale@2@A@@YAXXZ DD imagerel ??__E?id@?$collate@D@std@@2V0locale@2@A@@YAXXZ
	DD	imagerel ??__E?id@?$collate@D@std@@2V0locale@2@A@@YAXXZ+22
	DD	imagerel $unwind$??__E?id@?$collate@D@std@@2V0locale@2@A@@YAXXZ
pdata	ENDS
;	COMDAT pdata
pdata	SEGMENT
$pdata$??__E?id@?$numpunct@D@std@@2V0locale@2@A@@YAXXZ DD imagerel ??__E?id@?$numpunct@D@std@@2V0locale@2@A@@YAXXZ
	DD	imagerel ??__E?id@?$numpunct@D@std@@2V0locale@2@A@@YAXXZ+22
	DD	imagerel $unwind$??__E?id@?$numpunct@D@std@@2V0locale@2@A@@YAXXZ
pdata	ENDS
CRT$XCU	SEGMENT
?wsinit_$initializer$@detail@httplib@@3P6AXXZEA DQ FLAT:??__Ewsinit_@detail@httplib@@YAXXZ ; httplib::detail::wsinit_$initializer$
CRT$XCU	ENDS
;	COMDAT ??_C@_0BO@PLAACIBM@Thread?5?$CFu?5now?5owns?5lock?50x?$CFx?6@
CONST	SEGMENT
??_C@_0BO@PLAACIBM@Thread?5?$CFu?5now?5owns?5lock?50x?$CFx?6@ DB 'Thread '
	DB	'%u now owns lock 0x%x', 0aH, 00H		; `string'
CONST	ENDS
;	COMDAT ??_C@_0BC@ECCJIJFO@?$FL?h?$LO?$JD?e?$IH?$LK?d?$LP?$KB?f?$IB?$KP?$FN?5?$CFs@
CONST	SEGMENT
??_C@_0BC@ECCJIJFO@?$FL?h?$LO?$JD?e?$IH?$LK?d?$LP?$KB?f?$IB?$KP?$FN?5?$CFs@ DB '['
	DB	0e8H, 0beH, 093H, 0e5H, 087H, 0baH, 0e4H, 0bfH, 0a1H, 0e6H, 081H
	DB	0afH, '] %s', 00H				; `string'
CONST	ENDS
;	COMDAT ??_C@_0DF@PFFPIAEC@Thread?5?$CFu?5about?5to?5try?9wait?5for@
CONST	SEGMENT
??_C@_0DF@PFFPIAEC@Thread?5?$CFu?5about?5to?5try?9wait?5for@ DB 'Thread %'
	DB	'u about to try-wait for lock %x owned by %u', 0aH, 00H ; `string'
CONST	ENDS
;	COMDAT xdata
xdata	SEGMENT
$unwind$??__E?id@?$numpunct@D@std@@2V0locale@2@A@@YAXXZ DD 010401H
	DD	04204H
xdata	ENDS
;	COMDAT xdata
xdata	SEGMENT
$unwind$??__E?id@?$collate@D@std@@2V0locale@2@A@@YAXXZ DD 010401H
	DD	04204H
xdata	ENDS
;	COMDAT xdata
xdata	SEGMENT
$unwind$??__E?id@?$num_put@DV?$ostreambuf_iterator@DU?$char_traits@D@std@@@std@@@std@@2V0locale@2@A@@YAXXZ DD 010401H
	DD	04204H
xdata	ENDS
;	COMDAT xdata
xdata	SEGMENT
$unwind$??__E?id@?$codecvt@DDU_Mbstatet@@@std@@2V0locale@2@A@@YAXXZ DD 010401H
	DD	04204H
xdata	ENDS
;	COMDAT xdata
xdata	SEGMENT
$ip2state$??$_Deallocate@$0BA@@std@@YAXPEAX_K@Z DB 02H
	DB	00H
	DB	00H
xdata	ENDS
;	COMDAT xdata
xdata	SEGMENT
$cppxdata$??$_Deallocate@$0BA@@std@@YAXPEAX_K@Z DB 040H
	DD	imagerel $ip2state$??$_Deallocate@$0BA@@std@@YAXPEAX_K@Z
xdata	ENDS
;	COMDAT xdata
xdata	SEGMENT
$unwind$??$_Deallocate@$0BA@@std@@YAXPEAX_K@Z DD 010e19H
	DD	0420eH
	DD	imagerel __CxxFrameHandler4
	DD	imagerel $cppxdata$??$_Deallocate@$0BA@@std@@YAXPEAX_K@Z
xdata	ENDS
;	COMDAT xdata
xdata	SEGMENT
$unwind$??__Esslinit_@detail@httplib@@YAXXZ DD 010401H
	DD	04204H
xdata	ENDS
;	COMDAT xdata
xdata	SEGMENT
$unwind$??0SSLInit@detail@httplib@@QEAA@XZ DD 010901H
	DD	04209H
xdata	ENDS
;	COMDAT xdata
xdata	SEGMENT
$unwind$??__Fwsinit_@detail@httplib@@YAXXZ DD 010401H
	DD	04204H
xdata	ENDS
;	COMDAT xdata
xdata	SEGMENT
$unwind$??__Ewsinit_@detail@httplib@@YAXXZ DD 010401H
	DD	04204H
xdata	ENDS
;	COMDAT xdata
xdata	SEGMENT
$ip2state$??1WSInit@detail@httplib@@QEAA@XZ DB 02H
	DB	00H
	DB	00H
xdata	ENDS
;	COMDAT xdata
xdata	SEGMENT
$cppxdata$??1WSInit@detail@httplib@@QEAA@XZ DB 040H
	DD	imagerel $ip2state$??1WSInit@detail@httplib@@QEAA@XZ
xdata	ENDS
;	COMDAT xdata
xdata	SEGMENT
$unwind$??1WSInit@detail@httplib@@QEAA@XZ DD 010919H
	DD	04209H
	DD	imagerel __CxxFrameHandler4
	DD	imagerel $cppxdata$??1WSInit@detail@httplib@@QEAA@XZ
xdata	ENDS
;	COMDAT voltbl
voltbl	SEGMENT
_volmd	DB	016H
	DB	04fH
voltbl	ENDS
;	COMDAT xdata
xdata	SEGMENT
$unwind$??0WSInit@detail@httplib@@QEAA@XZ DD 021e19H
	DD	03b010cH
	DD	imagerel __GSHandlerCheck
	DD	01c0H
xdata	ENDS
;	COMDAT xdata
xdata	SEGMENT
$unwind$?TryLock@CThreadFastMutex@Thread@IronMan@@AECA_NI@Z DD 010d01H
	DD	0420dH
xdata	ENDS
;	COMDAT voltbl
voltbl	SEGMENT
_volmd	DB	012H
	DB	03eH
	DB	048H
voltbl	ENDS
;	COMDAT xdata
xdata	SEGMENT
$unwind$?TryLockInline@CThreadFastMutex@Thread@IronMan@@AECA_NI@Z DD 010d01H
	DD	0420dH
xdata	ENDS
voltbl	SEGMENT
_volmd	DD	0ffffffffH
	DDSymXIndex: 	FLAT:?TryLock@CThreadMutex@Thread@IronMan@@QEAA_NXZ
	DD	016H
	DD	021fH
voltbl	ENDS
xdata	SEGMENT
$unwind$??0CThreadMutex@Thread@IronMan@@QEAA@XZ DD 010901H
	DD	04209H
$unwind$??1CThreadMutex@Thread@IronMan@@QEAA@XZ DD 010919H
	DD	04209H
	DD	imagerel __CxxFrameHandler4
	DD	imagerel $cppxdata$??1CThreadMutex@Thread@IronMan@@QEAA@XZ
$cppxdata$??1CThreadMutex@Thread@IronMan@@QEAA@XZ DB 040H
	DD	imagerel $ip2state$??1CThreadMutex@Thread@IronMan@@QEAA@XZ
$ip2state$??1CThreadMutex@Thread@IronMan@@QEAA@XZ DB 02H
	DB	00H
	DB	00H
$unwind$?Lock@CThreadMutex@Thread@IronMan@@QEAAXXZ DD 010901H
	DD	04209H
$unwind$?Unlock@CThreadMutex@Thread@IronMan@@QEAAXXZ DD 010901H
	DD	04209H
$unwind$?TryLock@CThreadMutex@Thread@IronMan@@QEAA_NXZ DD 021e19H
	DD	017010cH
	DD	imagerel __GSHandlerCheck_EH4
	DD	imagerel $cppxdata$?TryLock@CThreadMutex@Thread@IronMan@@QEAA_NXZ
	DD	0a2H
$cppxdata$?TryLock@CThreadMutex@Thread@IronMan@@QEAA_NXZ DB 08H
	DD	imagerel $stateUnwindMap$?TryLock@CThreadMutex@Thread@IronMan@@QEAA_NXZ
	DD	imagerel $ip2state$?TryLock@CThreadMutex@Thread@IronMan@@QEAA_NXZ
$stateUnwindMap$?TryLock@CThreadMutex@Thread@IronMan@@QEAA_NXZ DB 04H
	DB	0eH
	DD	imagerel ?dtor$0@?0??TryLock@CThreadMutex@Thread@IronMan@@QEAA_NXZ@4HA
	DB	036H
	DD	imagerel ?dtor$1@?0??TryLock@CThreadMutex@Thread@IronMan@@QEAA_NXZ@4HA
$ip2state$?TryLock@CThreadMutex@Thread@IronMan@@QEAA_NXZ DB 0aH
	DB	00H
	DB	00H
	DB	'Q', 03H
	DB	02H
	DB	'\'
	DB	00H
	DB	015H, 03H
	DB	04H
	DB	'R'
	DB	00H
	ORG $+3
$unwind$?dtor$0@?0??TryLock@CThreadMutex@Thread@IronMan@@QEAA_NXZ@4HA DD 020601H
	DD	050023206H
$unwind$?dtor$1@?0??TryLock@CThreadMutex@Thread@IronMan@@QEAA_NXZ@4HA DD 020601H
	DD	050023206H
$unwind$?Lock@CThreadFastMutex@Thread@IronMan@@AECAXII@Z DD 011201H
	DD	06212H
xdata	ENDS
;	COMDAT voltbl
voltbl	SEGMENT
_volmd	DB	027H
voltbl	ENDS
;	COMDAT xdata
xdata	SEGMENT
$unwind$?ThreadInterlockedAssignIf@@YA_NPECJJJ@Z DD 011201H
	DD	02212H
xdata	ENDS
;	COMDAT xdata
xdata	SEGMENT
$unwind$?dtor$0@?0???1?$_Compressed_pair@V?$allocator@D@std@@V?$_String_val@U?$_Simple_types@D@std@@@2@$00@std@@QEAA@XZ@4HA DD 020601H
	DD	050023206H
xdata	ENDS
;	COMDAT xdata
xdata	SEGMENT
$ip2state$??1?$_Compressed_pair@V?$allocator@D@std@@V?$_String_val@U?$_Simple_types@D@std@@@2@$00@std@@QEAA@XZ DB 02H
	DB	00H
	DB	00H
xdata	ENDS
;	COMDAT xdata
xdata	SEGMENT
$stateUnwindMap$??1?$_Compressed_pair@V?$allocator@D@std@@V?$_String_val@U?$_Simple_types@D@std@@@2@$00@std@@QEAA@XZ DB 02H
	DB	0eH
	DD	imagerel ?dtor$0@?0???1?$_Compressed_pair@V?$allocator@D@std@@V?$_String_val@U?$_Simple_types@D@std@@@2@$00@std@@QEAA@XZ@4HA
xdata	ENDS
;	COMDAT xdata
xdata	SEGMENT
$cppxdata$??1?$_Compressed_pair@V?$allocator@D@std@@V?$_String_val@U?$_Simple_types@D@std@@@2@$00@std@@QEAA@XZ DB 048H
	DD	imagerel $stateUnwindMap$??1?$_Compressed_pair@V?$allocator@D@std@@V?$_String_val@U?$_Simple_types@D@std@@@2@$00@std@@QEAA@XZ
	DD	imagerel $ip2state$??1?$_Compressed_pair@V?$allocator@D@std@@V?$_String_val@U?$_Simple_types@D@std@@@2@$00@std@@QEAA@XZ
xdata	ENDS
;	COMDAT xdata
xdata	SEGMENT
$unwind$??1?$_Compressed_pair@V?$allocator@D@std@@V?$_String_val@U?$_Simple_types@D@std@@@2@$00@std@@QEAA@XZ DD 010911H
	DD	04209H
	DD	imagerel __CxxFrameHandler4
	DD	imagerel $cppxdata$??1?$_Compressed_pair@V?$allocator@D@std@@V?$_String_val@U?$_Simple_types@D@std@@@2@$00@std@@QEAA@XZ
xdata	ENDS
;	COMDAT xdata
xdata	SEGMENT
$unwind$?_Getal@?$basic_string@DU?$char_traits@D@std@@V?$allocator@D@2@@std@@AEAAAEAV?$allocator@D@2@XZ DD 010901H
	DD	04209H
xdata	ENDS
;	COMDAT xdata
xdata	SEGMENT
$unwind$?_Tidy_deallocate@?$basic_string@DU?$char_traits@D@std@@V?$allocator@D@2@@std@@AEAAXXZ DD 010901H
	DD	08209H
xdata	ENDS
;	COMDAT xdata
xdata	SEGMENT
$unwind$?c_str@?$basic_string@DU?$char_traits@D@std@@V?$allocator@D@2@@std@@QEBAPEBDXZ DD 010901H
	DD	04209H
xdata	ENDS
;	COMDAT xdata
xdata	SEGMENT
$unwind$?dtor$0@?0???1?$basic_string@DU?$char_traits@D@std@@V?$allocator@D@2@@std@@QEAA@XZ@4HA DD 020601H
	DD	050023206H
xdata	ENDS
;	COMDAT xdata
xdata	SEGMENT
$ip2state$??1?$basic_string@DU?$char_traits@D@std@@V?$allocator@D@2@@std@@QEAA@XZ DB 06H
	DB	00H
	DB	00H
	DB	012H
	DB	02H
	DB	016H
	DB	00H
xdata	ENDS
;	COMDAT xdata
xdata	SEGMENT
$stateUnwindMap$??1?$basic_string@DU?$char_traits@D@std@@V?$allocator@D@2@@std@@QEAA@XZ DB 02H
	DB	0eH
	DD	imagerel ?dtor$0@?0???1?$basic_string@DU?$char_traits@D@std@@V?$allocator@D@2@@std@@QEAA@XZ@4HA
xdata	ENDS
;	COMDAT xdata
xdata	SEGMENT
$cppxdata$??1?$basic_string@DU?$char_traits@D@std@@V?$allocator@D@2@@std@@QEAA@XZ DB 048H
	DD	imagerel $stateUnwindMap$??1?$basic_string@DU?$char_traits@D@std@@V?$allocator@D@2@@std@@QEAA@XZ
	DD	imagerel $ip2state$??1?$basic_string@DU?$char_traits@D@std@@V?$allocator@D@2@@std@@QEAA@XZ
xdata	ENDS
;	COMDAT xdata
xdata	SEGMENT
$unwind$??1?$basic_string@DU?$char_traits@D@std@@V?$allocator@D@2@@std@@QEAA@XZ DD 010911H
	DD	04209H
	DD	imagerel __CxxFrameHandler4
	DD	imagerel $cppxdata$??1?$basic_string@DU?$char_traits@D@std@@V?$allocator@D@2@@std@@QEAA@XZ
xdata	ENDS
;	COMDAT xdata
xdata	SEGMENT
$unwind$?_Deallocate_for_capacity@?$basic_string@DU?$char_traits@D@std@@V?$allocator@D@2@@std@@CAXAEAV?$allocator@D@2@QEAD_K@Z DD 011301H
	DD	04213H
xdata	ENDS
;	COMDAT xdata
xdata	SEGMENT
$unwind$?dtor$0@?0???1?$_String_val@U?$_Simple_types@D@std@@@std@@QEAA@XZ@4HA DD 020601H
	DD	050023206H
xdata	ENDS
;	COMDAT xdata
xdata	SEGMENT
$ip2state$??1?$_String_val@U?$_Simple_types@D@std@@@std@@QEAA@XZ DB 02H
	DB	00H
	DB	00H
xdata	ENDS
;	COMDAT xdata
xdata	SEGMENT
$stateUnwindMap$??1?$_String_val@U?$_Simple_types@D@std@@@std@@QEAA@XZ DB 02H
	DB	0eH
	DD	imagerel ?dtor$0@?0???1?$_String_val@U?$_Simple_types@D@std@@@std@@QEAA@XZ@4HA
xdata	ENDS
;	COMDAT xdata
xdata	SEGMENT
$cppxdata$??1?$_String_val@U?$_Simple_types@D@std@@@std@@QEAA@XZ DB 048H
	DD	imagerel $stateUnwindMap$??1?$_String_val@U?$_Simple_types@D@std@@@std@@QEAA@XZ
	DD	imagerel $ip2state$??1?$_String_val@U?$_Simple_types@D@std@@@std@@QEAA@XZ
xdata	ENDS
;	COMDAT xdata
xdata	SEGMENT
$unwind$??1?$_String_val@U?$_Simple_types@D@std@@@std@@QEAA@XZ DD 010911H
	DD	04209H
	DD	imagerel __CxxFrameHandler4
	DD	imagerel $cppxdata$??1?$_String_val@U?$_Simple_types@D@std@@@std@@QEAA@XZ
xdata	ENDS
;	COMDAT xdata
xdata	SEGMENT
$unwind$?_Switch_to_buf@_Bxty@?$_String_val@U?$_Simple_types@D@std@@@std@@QEAAXXZ DD 010901H
	DD	04209H
xdata	ENDS
;	COMDAT xdata
xdata	SEGMENT
$unwind$?_Large_mode_engaged@?$_String_val@U?$_Simple_types@D@std@@@std@@QEBA_NXZ DD 010901H
	DD	02209H
xdata	ENDS
;	COMDAT xdata
xdata	SEGMENT
$unwind$?_Myptr@?$_String_val@U?$_Simple_types@D@std@@@std@@QEBAPEBDXZ DD 010901H
	DD	06209H
xdata	ENDS
;	COMDAT xdata
xdata	SEGMENT
$unwind$?deallocate@?$allocator@D@std@@QEAAXQEAD_K@Z DD 011301H
	DD	04213H
xdata	ENDS
;	COMDAT xdata
xdata	SEGMENT
$unwind$?_Adjust_manually_vector_aligned@std@@YAXAEAPEAXAEA_K@Z DD 010e01H
	DD	0820eH
xdata	ENDS
;	COMDAT xdata
xdata	SEGMENT
$unwind$??_H@YAXPEAX_K1P6APEAX0@Z@Z DD 011801H
	DD	06218H
xdata	ENDS
CRT$XCU	SEGMENT
?sslinit_$initializer$@detail@httplib@@3P6AXXZEA DQ FLAT:??__Esslinit_@detail@httplib@@YAXXZ ; httplib::detail::sslinit_$initializer$
CRT$XCU	ENDS
;	COMDAT CRT$XCU
CRT$XCU	SEGMENT
??id$initializer$@?$codecvt@DDU_Mbstatet@@@std@@2P6AXXZEA@@3P6AXXZEA DQ FLAT:??__E?id@?$codecvt@DDU_Mbstatet@@@std@@2V0locale@2@A@@YAXXZ ; ??id$initializer$@?$codecvt@DDU_Mbstatet@@@std@@2P6AXXZEA@@3P6AXXZEA
CRT$XCU	ENDS
;	COMDAT CRT$XCU
CRT$XCU	SEGMENT
??id$initializer$@?$num_put@DV?$ostreambuf_iterator@DU?$char_traits@D@std@@@std@@@std@@2P6AXXZEA@@3P6AXXZEA DQ FLAT:??__E?id@?$num_put@DV?$ostreambuf_iterator@DU?$char_traits@D@std@@@std@@@std@@2V0locale@2@A@@YAXXZ ; ??id$initializer$@?$num_put@DV?$ostreambuf_iterator@DU?$char_traits@D@std@@@std@@@std@@2P6AXXZEA@@3P6AXXZEA
CRT$XCU	ENDS
;	COMDAT CRT$XCU
CRT$XCU	SEGMENT
??id$initializer$@?$collate@D@std@@2P6AXXZEA@@3P6AXXZEA DQ FLAT:??__E?id@?$collate@D@std@@2V0locale@2@A@@YAXXZ ; ??id$initializer$@?$collate@D@std@@2P6AXXZEA@@3P6AXXZEA
CRT$XCU	ENDS
;	COMDAT CRT$XCU
CRT$XCU	SEGMENT
??id$initializer$@?$numpunct@D@std@@2P6AXXZEA@@3P6AXXZEA DQ FLAT:??__E?id@?$numpunct@D@std@@2V0locale@2@A@@YAXXZ ; ??id$initializer$@?$numpunct@D@std@@2P6AXXZEA@@3P6AXXZEA
CRT$XCU	ENDS
; Function compile flags: /Odtp
; File C:\Program Files\Microsoft Visual Studio\2022\Community\VC\Tools\MSVC\14.43.34808\include\xlocnum
;	COMDAT ??__E?id@?$numpunct@D@std@@2V0locale@2@A@@YAXXZ
text$di	SEGMENT
??__E?id@?$numpunct@D@std@@2V0locale@2@A@@YAXXZ PROC	; `dynamic initializer for 'std::numpunct<char>::id'', COMDAT

; 236  : __PURE_APPDOMAIN_GLOBAL locale::id numpunct<_Elem>::id;

	sub	rsp, 40					; 00000028H
	lea	rcx, OFFSET FLAT:?id@?$numpunct@D@std@@2V0locale@2@A ; std::numpunct<char>::id
	call	??$?0$0A@@id@locale@std@@QEAA@XZ	; std::locale::id::id<0>
	npad	1
	add	rsp, 40					; 00000028H
	ret	0
??__E?id@?$numpunct@D@std@@2V0locale@2@A@@YAXXZ ENDP	; `dynamic initializer for 'std::numpunct<char>::id''
text$di	ENDS
; Function compile flags: /Odtp
; File C:\Program Files\Microsoft Visual Studio\2022\Community\VC\Tools\MSVC\14.43.34808\include\locale
;	COMDAT ??__E?id@?$collate@D@std@@2V0locale@2@A@@YAXXZ
text$di	SEGMENT
??__E?id@?$collate@D@std@@2V0locale@2@A@@YAXXZ PROC	; `dynamic initializer for 'std::collate<char>::id'', COMDAT

; 124  : __PURE_APPDOMAIN_GLOBAL locale::id collate<_Elem>::id;

	sub	rsp, 40					; 00000028H
	lea	rcx, OFFSET FLAT:?id@?$collate@D@std@@2V0locale@2@A ; std::collate<char>::id
	call	??$?0$0A@@id@locale@std@@QEAA@XZ	; std::locale::id::id<0>
	npad	1
	add	rsp, 40					; 00000028H
	ret	0
??__E?id@?$collate@D@std@@2V0locale@2@A@@YAXXZ ENDP	; `dynamic initializer for 'std::collate<char>::id''
text$di	ENDS
; Function compile flags: /Odtp
; File C:\Program Files\Microsoft Visual Studio\2022\Community\VC\Tools\MSVC\14.43.34808\include\xlocnum
;	COMDAT ??__E?id@?$num_put@DV?$ostreambuf_iterator@DU?$char_traits@D@std@@@std@@@std@@2V0locale@2@A@@YAXXZ
text$di	SEGMENT
??__E?id@?$num_put@DV?$ostreambuf_iterator@DU?$char_traits@D@std@@@std@@@std@@2V0locale@2@A@@YAXXZ PROC ; `dynamic initializer for 'std::num_put<char,std::ostreambuf_iterator<char,std::char_traits<char> > >::id'', COMDAT

; 1646 : __PURE_APPDOMAIN_GLOBAL locale::id num_put<_Elem, _OutIt>::id;

	sub	rsp, 40					; 00000028H
	lea	rcx, OFFSET FLAT:?id@?$num_put@DV?$ostreambuf_iterator@DU?$char_traits@D@std@@@std@@@std@@2V0locale@2@A ; std::num_put<char,std::ostreambuf_iterator<char,std::char_traits<char> > >::id
	call	??$?0$0A@@id@locale@std@@QEAA@XZ	; std::locale::id::id<0>
	npad	1
	add	rsp, 40					; 00000028H
	ret	0
??__E?id@?$num_put@DV?$ostreambuf_iterator@DU?$char_traits@D@std@@@std@@@std@@2V0locale@2@A@@YAXXZ ENDP ; `dynamic initializer for 'std::num_put<char,std::ostreambuf_iterator<char,std::char_traits<char> > >::id''
text$di	ENDS
; Function compile flags: /Odtp
; File C:\Program Files\Microsoft Visual Studio\2022\Community\VC\Tools\MSVC\14.43.34808\include\xlocale
;	COMDAT ??__E?id@?$codecvt@DDU_Mbstatet@@@std@@2V0locale@2@A@@YAXXZ
text$di	SEGMENT
??__E?id@?$codecvt@DDU_Mbstatet@@@std@@2V0locale@2@A@@YAXXZ PROC ; `dynamic initializer for 'std::codecvt<char,char,_Mbstatet>::id'', COMDAT

; 809  : __PURE_APPDOMAIN_GLOBAL locale::id codecvt<_Elem, _Byte, _Statype>::id;

	sub	rsp, 40					; 00000028H
	lea	rcx, OFFSET FLAT:?id@?$codecvt@DDU_Mbstatet@@@std@@2V0locale@2@A ; std::codecvt<char,char,_Mbstatet>::id
	call	??$?0$0A@@id@locale@std@@QEAA@XZ	; std::locale::id::id<0>
	npad	1
	add	rsp, 40					; 00000028H
	ret	0
??__E?id@?$codecvt@DDU_Mbstatet@@@std@@2V0locale@2@A@@YAXXZ ENDP ; `dynamic initializer for 'std::codecvt<char,char,_Mbstatet>::id''
text$di	ENDS
; Function compile flags: /Odtp
; File C:\Program Files\Microsoft Visual Studio\2022\Community\VC\Tools\MSVC\14.43.34808\include\xlocale
;	COMDAT ??$?0$0A@@id@locale@std@@QEAA@XZ
_TEXT	SEGMENT
this$ = 8
??$?0$0A@@id@locale@std@@QEAA@XZ PROC			; std::locale::id::id<0>, COMDAT

; 81   :         id() noexcept /* strengthened */ {}

	mov	QWORD PTR [rsp+8], rcx

; 82   : #endif // ^^^ !defined(_CRTBLD) ^^^
; 83   : 
; 84   :         id(const id&)            = delete;
; 85   :         id& operator=(const id&) = delete;
; 86   : 
; 87   :         template <int = 0> // TRANSITION, ABI
; 88   :         size_t _Get_index() { // get stamp, with lazy allocation
; 89   :             if (_Id == 0) { // still zero, allocate stamp
; 90   :                 _BEGIN_LOCK(_LOCK_LOCALE)
; 91   :                 if (_Id == 0) {
; 92   :                     _Id = static_cast<size_t>(++_Id_cnt);
; 93   :                 }
; 94   :                 _END_LOCK()
; 95   :             }
; 96   :             return _Id;
; 97   :         }
; 98   : 
; 99   : #ifdef _CRTBLD // TRANSITION, ABI: preserved for binary compatibility
; 100  :         __CLR_OR_THIS_CALL operator size_t() {
; 101  :             return _Get_index();
; 102  :         }
; 103  : #endif // defined(_CRTBLD)
; 104  : 
; 105  :     private:
; 106  :         size_t _Id = 0; // the identifier stamp

	mov	rax, QWORD PTR this$[rsp]
	mov	QWORD PTR [rax], 0

; 81   :         id() noexcept /* strengthened */ {}

	mov	rax, QWORD PTR this$[rsp]
	ret	0
??$?0$0A@@id@locale@std@@QEAA@XZ ENDP			; std::locale::id::id<0>
_TEXT	ENDS
; Function compile flags: /Odtp
; File C:\Program Files\Microsoft Visual Studio\2022\Community\VC\Tools\MSVC\14.43.34808\include\xmemory
;	COMDAT ??$_Destroy_in_place@PEAD@std@@YAXAEAPEAD@Z
_TEXT	SEGMENT
_Obj$ = 8
??$_Destroy_in_place@PEAD@std@@YAXAEAPEAD@Z PROC	; std::_Destroy_in_place<char *>, COMDAT

; 320  : _CONSTEXPR20 void _Destroy_in_place(_Ty& _Obj) noexcept {

	mov	QWORD PTR [rsp+8], rcx

; 321  :     if constexpr (is_array_v<_Ty>) {
; 322  :         _STD _Destroy_range(_Obj, _Obj + extent_v<_Ty>);
; 323  :     } else {
; 324  :         _Obj.~_Ty();
; 325  :     }
; 326  : }

	ret	0
??$_Destroy_in_place@PEAD@std@@YAXAEAPEAD@Z ENDP	; std::_Destroy_in_place<char *>
_TEXT	ENDS
; Function compile flags: /Odtp
; File C:\Program Files\Microsoft Visual Studio\2022\Community\VC\Tools\MSVC\14.43.34808\include\xmemory
;	COMDAT ??$_Deallocate@$0BA@@std@@YAXPEAX_K@Z
_TEXT	SEGMENT
_Ptr$ = 48
_Bytes$ = 56
??$_Deallocate@$0BA@@std@@YAXPEAX_K@Z PROC		; std::_Deallocate<16>, COMDAT

; 261  : _CONSTEXPR20 void _Deallocate(void* _Ptr, size_t _Bytes) noexcept {

$LN4:
	mov	QWORD PTR [rsp+16], rdx
	mov	QWORD PTR [rsp+8], rcx
	sub	rsp, 40					; 00000028H

; 262  :     // deallocate storage allocated by _Allocate
; 263  : #if _HAS_CXX20 // TRANSITION, GH-1532
; 264  :     if (_STD is_constant_evaluated()) {
; 265  :         ::operator delete(_Ptr);
; 266  :         return;
; 267  :     }
; 268  : #endif // _HAS_CXX20
; 269  : 
; 270  : #ifdef __cpp_aligned_new
; 271  :     if constexpr (_Align > __STDCPP_DEFAULT_NEW_ALIGNMENT__) {
; 272  :         size_t _Passed_align = _Align;
; 273  : #if defined(_M_IX86) || defined(_M_X64)
; 274  :         if (_Bytes >= _Big_allocation_threshold) {
; 275  :             // boost the alignment of big allocations to help autovectorization
; 276  :             _Passed_align = (_STD max)(_Align, _Big_allocation_alignment);
; 277  :         }
; 278  : #endif // defined(_M_IX86) || defined(_M_X64)
; 279  :         ::operator delete(_Ptr, _Bytes, align_val_t{_Passed_align});
; 280  :     } else
; 281  : #endif // defined(__cpp_aligned_new)
; 282  :     {
; 283  : #if defined(_M_IX86) || defined(_M_X64)
; 284  :         if (_Bytes >= _Big_allocation_threshold) {

	cmp	QWORD PTR _Bytes$[rsp], 4096		; 00001000H
	jb	SHORT $LN2@Deallocate

; 285  :             // boost the alignment of big allocations to help autovectorization
; 286  :             _Adjust_manually_vector_aligned(_Ptr, _Bytes);

	lea	rdx, QWORD PTR _Bytes$[rsp]
	lea	rcx, QWORD PTR _Ptr$[rsp]
	call	?_Adjust_manually_vector_aligned@std@@YAXAEAPEAXAEA_K@Z ; std::_Adjust_manually_vector_aligned
	npad	1
$LN2@Deallocate:

; 287  :         }
; 288  : #endif // defined(_M_IX86) || defined(_M_X64)
; 289  :         ::operator delete(_Ptr, _Bytes);

	mov	rdx, QWORD PTR _Bytes$[rsp]
	mov	rcx, QWORD PTR _Ptr$[rsp]
	call	??3@YAXPEAX_K@Z				; operator delete
	npad	1

; 290  :     }
; 291  : }

	add	rsp, 40					; 00000028H
	ret	0
??$_Deallocate@$0BA@@std@@YAXPEAX_K@Z ENDP		; std::_Deallocate<16>
_TEXT	ENDS
; Function compile flags: /Odtp
; File C:\Program Files\Microsoft Visual Studio\2022\Community\VC\Tools\MSVC\14.43.34808\include\xmemory
;	COMDAT ??$_Unfancy@D@std@@YAPEADPEAD@Z
_TEXT	SEGMENT
_Ptr$ = 8
??$_Unfancy@D@std@@YAPEADPEAD@Z PROC			; std::_Unfancy<char>, COMDAT

; 68   : _NODISCARD constexpr _Ty* _Unfancy(_Ty* _Ptr) noexcept { // do nothing for plain pointers

	mov	QWORD PTR [rsp+8], rcx

; 69   :     return _Ptr;

	mov	rax, QWORD PTR _Ptr$[rsp]

; 70   : }

	ret	0
??$_Unfancy@D@std@@YAPEADPEAD@Z ENDP			; std::_Unfancy<char>
_TEXT	ENDS
; Function compile flags: /Odtp
; File D:\c++\paoda\Helper\HttpLib\httplib.h
;	COMDAT ??__Esslinit_@detail@httplib@@YAXXZ
text$di	SEGMENT
??__Esslinit_@detail@httplib@@YAXXZ PROC		; httplib::detail::`dynamic initializer for 'sslinit_'', COMDAT

; 8802 :         static SSLInit sslinit_;

	sub	rsp, 40					; 00000028H
	lea	rcx, OFFSET FLAT:?sslinit_@detail@httplib@@3VSSLInit@12@A
	call	??0SSLInit@detail@httplib@@QEAA@XZ	; httplib::detail::SSLInit::SSLInit
	npad	1
	add	rsp, 40					; 00000028H
	ret	0
??__Esslinit_@detail@httplib@@YAXXZ ENDP		; httplib::detail::`dynamic initializer for 'sslinit_''
text$di	ENDS
; Function compile flags: /Odtp
; File D:\c++\paoda\Helper\HttpLib\httplib.h
;	COMDAT ??0SSLInit@detail@httplib@@QEAA@XZ
_TEXT	SEGMENT
this$ = 48
??0SSLInit@detail@httplib@@QEAA@XZ PROC			; httplib::detail::SSLInit::SSLInit, COMDAT

; 8693 :             SSLInit() {

$LN3:
	mov	QWORD PTR [rsp+8], rcx
	sub	rsp, 40					; 00000028H

; 8694 :                 OPENSSL_init_ssl(

	xor	edx, edx
	mov	ecx, 2097154				; 00200002H
	call	OPENSSL_init_ssl
	npad	1

; 8695 :                     OPENSSL_INIT_LOAD_SSL_STRINGS | OPENSSL_INIT_LOAD_CRYPTO_STRINGS, NULL);
; 8696 :             }

	mov	rax, QWORD PTR this$[rsp]
	add	rsp, 40					; 00000028H
	ret	0
??0SSLInit@detail@httplib@@QEAA@XZ ENDP			; httplib::detail::SSLInit::SSLInit
_TEXT	ENDS
; Function compile flags: /Odtp
;	COMDAT ??__Fwsinit_@detail@httplib@@YAXXZ
text$yd	SEGMENT
??__Fwsinit_@detail@httplib@@YAXXZ PROC			; httplib::detail::`dynamic atexit destructor for 'wsinit_'', COMDAT
	sub	rsp, 40					; 00000028H
	lea	rcx, OFFSET FLAT:?wsinit_@detail@httplib@@3VWSInit@12@A
	call	??1WSInit@detail@httplib@@QEAA@XZ	; httplib::detail::WSInit::~WSInit
	npad	1
	add	rsp, 40					; 00000028H
	ret	0
??__Fwsinit_@detail@httplib@@YAXXZ ENDP			; httplib::detail::`dynamic atexit destructor for 'wsinit_''
text$yd	ENDS
; Function compile flags: /Odtp
; File D:\c++\paoda\Helper\HttpLib\httplib.h
;	COMDAT ??__Ewsinit_@detail@httplib@@YAXXZ
text$di	SEGMENT
??__Ewsinit_@detail@httplib@@YAXXZ PROC			; httplib::detail::`dynamic initializer for 'wsinit_'', COMDAT

; 5291 :         static WSInit wsinit_;

	sub	rsp, 40					; 00000028H
	lea	rcx, OFFSET FLAT:?wsinit_@detail@httplib@@3VWSInit@12@A
	call	??0WSInit@detail@httplib@@QEAA@XZ	; httplib::detail::WSInit::WSInit
	lea	rcx, OFFSET FLAT:??__Fwsinit_@detail@httplib@@YAXXZ ; httplib::detail::`dynamic atexit destructor for 'wsinit_''
	call	atexit
	npad	1
	add	rsp, 40					; 00000028H
	ret	0
??__Ewsinit_@detail@httplib@@YAXXZ ENDP			; httplib::detail::`dynamic initializer for 'wsinit_''
text$di	ENDS
; Function compile flags: /Odtp
; File D:\c++\paoda\Helper\HttpLib\httplib.h
;	COMDAT ??1WSInit@detail@httplib@@QEAA@XZ
_TEXT	SEGMENT
this$ = 48
??1WSInit@detail@httplib@@QEAA@XZ PROC			; httplib::detail::WSInit::~WSInit, COMDAT

; 5284 :             ~WSInit() {

$LN4:
	mov	QWORD PTR [rsp+8], rcx
	sub	rsp, 40					; 00000028H

; 5285 :                 if (is_valid_) WSACleanup();

	mov	rax, QWORD PTR this$[rsp]
	movzx	eax, BYTE PTR [rax]
	test	eax, eax
	je	SHORT $LN2@WSInit
	call	QWORD PTR __imp_WSACleanup
	npad	1
$LN2@WSInit:

; 5286 :             }

	add	rsp, 40					; 00000028H
	ret	0
??1WSInit@detail@httplib@@QEAA@XZ ENDP			; httplib::detail::WSInit::~WSInit
_TEXT	ENDS
; Function compile flags: /Odtp
; File D:\c++\paoda\Helper\HttpLib\httplib.h
;	COMDAT ??0WSInit@detail@httplib@@QEAA@XZ
_TEXT	SEGMENT
wsaData$ = 32
__$ArrayPad$ = 448
this$ = 480
??0WSInit@detail@httplib@@QEAA@XZ PROC			; httplib::detail::WSInit::WSInit, COMDAT

; 5279 :             WSInit() {

$LN4:
	mov	QWORD PTR [rsp+8], rcx
	sub	rsp, 472				; 000001d8H
	mov	rax, QWORD PTR __security_cookie
	xor	rax, rsp
	mov	QWORD PTR __$ArrayPad$[rsp], rax

; 5283 : 
; 5284 :             ~WSInit() {
; 5285 :                 if (is_valid_) WSACleanup();
; 5286 :             }
; 5287 : 
; 5288 :             bool is_valid_ = false;

	mov	rax, QWORD PTR this$[rsp]
	mov	BYTE PTR [rax], 0

; 5280 :                 WSADATA wsaData;
; 5281 :                 if (WSAStartup(0x0002, &wsaData) == 0) is_valid_ = true;

	lea	rdx, QWORD PTR wsaData$[rsp]
	mov	cx, 2
	call	QWORD PTR __imp_WSAStartup
	test	eax, eax
	jne	SHORT $LN2@WSInit
	mov	rax, QWORD PTR this$[rsp]
	mov	BYTE PTR [rax], 1
$LN2@WSInit:

; 5282 :             }

	mov	rax, QWORD PTR this$[rsp]
	mov	rcx, QWORD PTR __$ArrayPad$[rsp]
	xor	rcx, rsp
	call	__security_check_cookie
	add	rsp, 472				; 000001d8H
	ret	0
??0WSInit@detail@httplib@@QEAA@XZ ENDP			; httplib::detail::WSInit::WSInit
_TEXT	ENDS
; Function compile flags: /Odtp
; File D:\c++\paoda\Helper\Misc\ThreadMutex.cpp
_TEXT	SEGMENT
i$ = 32
this$ = 64
threadId$ = 72
nSpinSleepTime$ = 80
?Lock@CThreadFastMutex@Thread@IronMan@@AECAXII@Z PROC	; IronMan::Thread::CThreadFastMutex::Lock

; 112  : 		{

$LN24:
	mov	DWORD PTR [rsp+24], r8d
	mov	DWORD PTR [rsp+16], edx
	mov	QWORD PTR [rsp+8], rcx
	sub	rsp, 56					; 00000038H

; 113  : 			int i;
; 114  : 			if (nSpinSleepTime != TT_INFINITE)

	cmp	DWORD PTR nSpinSleepTime$[rsp], -1	; ffffffffH
	je	$LN14@Lock

; 115  : 			{
; 116  : 				for (i = 1000; i != 0; --i)

	mov	DWORD PTR i$[rsp], 1000			; 000003e8H
	jmp	SHORT $LN4@Lock
$LN2@Lock:
	mov	eax, DWORD PTR i$[rsp]
	dec	eax
	mov	DWORD PTR i$[rsp], eax
$LN4@Lock:
	cmp	DWORD PTR i$[rsp], 0
	je	SHORT $LN3@Lock

; 117  : 				{
; 118  : 					if (TryLock(threadId))

	mov	edx, DWORD PTR threadId$[rsp]
	mov	rcx, QWORD PTR this$[rsp]
	call	?TryLock@CThreadFastMutex@Thread@IronMan@@AECA_NI@Z ; IronMan::Thread::CThreadFastMutex::TryLock
	movzx	eax, al
	test	eax, eax
	je	SHORT $LN16@Lock

; 119  : 					{
; 120  : 						return;

	jmp	$LN1@Lock
$LN16@Lock:

; 121  : 					}
; 122  : 					__debugbreak();

	int	3

; 123  : 				}

	jmp	SHORT $LN2@Lock
$LN3@Lock:

; 124  : 
; 125  : #ifdef _WIN32
; 126  : 				if (!nSpinSleepTime && GetThreadPriority(GetCurrentThread()) > THREAD_PRIORITY_NORMAL)

	cmp	DWORD PTR nSpinSleepTime$[rsp], 0
	jne	SHORT $LN17@Lock
	call	QWORD PTR __imp_GetCurrentThread
	mov	rcx, rax
	call	QWORD PTR __imp_GetThreadPriority
	test	eax, eax
	jle	SHORT $LN17@Lock

; 127  : 				{
; 128  : 					nSpinSleepTime = 1;

	mov	DWORD PTR nSpinSleepTime$[rsp], 1

; 129  : 				}

	jmp	SHORT $LN18@Lock
$LN17@Lock:

; 130  : 				else
; 131  : #endif
; 132  : 
; 133  : 					if (nSpinSleepTime)

	cmp	DWORD PTR nSpinSleepTime$[rsp], 0
	je	SHORT $LN19@Lock

; 134  : 					{
; 135  : 						for (i = 4000; i != 0; --i)

	mov	DWORD PTR i$[rsp], 4000			; 00000fa0H
	jmp	SHORT $LN7@Lock
$LN5@Lock:
	mov	eax, DWORD PTR i$[rsp]
	dec	eax
	mov	DWORD PTR i$[rsp], eax
$LN7@Lock:
	cmp	DWORD PTR i$[rsp], 0
	je	SHORT $LN6@Lock

; 136  : 						{
; 137  : 							if (TryLock(threadId))

	mov	edx, DWORD PTR threadId$[rsp]
	mov	rcx, QWORD PTR this$[rsp]
	call	?TryLock@CThreadFastMutex@Thread@IronMan@@AECA_NI@Z ; IronMan::Thread::CThreadFastMutex::TryLock
	movzx	eax, al
	test	eax, eax
	je	SHORT $LN20@Lock

; 138  : 							{
; 139  : 								return;

	jmp	SHORT $LN1@Lock
$LN20@Lock:

; 140  : 							}
; 141  : 
; 142  : 							_mm_pause();

	pause

; 143  : 							Sleep(0);

	xor	ecx, ecx
	call	QWORD PTR __imp_Sleep
	npad	1

; 144  : 						}

	jmp	SHORT $LN5@Lock
$LN6@Lock:
$LN19@Lock:
$LN18@Lock:
$LN8@Lock:

; 145  : 
; 146  : 					}
; 147  : 
; 148  : 				for (;; ) // coded as for instead of while to make easy to breakpoint success
; 149  : 				{
; 150  : 					if (TryLock(threadId))

	mov	edx, DWORD PTR threadId$[rsp]
	mov	rcx, QWORD PTR this$[rsp]
	call	?TryLock@CThreadFastMutex@Thread@IronMan@@AECA_NI@Z ; IronMan::Thread::CThreadFastMutex::TryLock
	movzx	eax, al
	test	eax, eax
	je	SHORT $LN21@Lock

; 151  : 					{
; 152  : 						return;

	jmp	SHORT $LN1@Lock
$LN21@Lock:

; 153  : 					}
; 154  : 
; 155  : 					_mm_pause();

	pause

; 156  : 					Sleep(nSpinSleepTime);

	mov	ecx, DWORD PTR nSpinSleepTime$[rsp]
	call	QWORD PTR __imp_Sleep
	npad	1

; 157  : 				}

	jmp	SHORT $LN8@Lock

; 158  : 			}

	jmp	SHORT $LN15@Lock
$LN14@Lock:
$LN11@Lock:

; 159  : 			else
; 160  : 			{
; 161  : 				for (;; ) // coded as for instead of while to make easy to breakpoint success
; 162  : 				{
; 163  : 					if (TryLock(threadId))

	mov	edx, DWORD PTR threadId$[rsp]
	mov	rcx, QWORD PTR this$[rsp]
	call	?TryLock@CThreadFastMutex@Thread@IronMan@@AECA_NI@Z ; IronMan::Thread::CThreadFastMutex::TryLock
	movzx	eax, al
	test	eax, eax
	je	SHORT $LN22@Lock

; 164  : 					{
; 165  : 						return;

	jmp	SHORT $LN1@Lock
$LN22@Lock:

; 166  : 					}
; 167  : 
; 168  : 					_mm_pause();

	pause

; 169  : 				}

	jmp	SHORT $LN11@Lock
$LN15@Lock:
$LN1@Lock:

; 170  : 			}
; 171  : 		}

	add	rsp, 56					; 00000038H
	ret	0
?Lock@CThreadFastMutex@Thread@IronMan@@AECAXII@Z ENDP	; IronMan::Thread::CThreadFastMutex::Lock
_TEXT	ENDS
; Function compile flags: /Odtp
; File D:\c++\paoda\Helper\Misc\ThreadMutex.h
;	COMDAT ?TryLock@CThreadFastMutex@Thread@IronMan@@AECA_NI@Z
_TEXT	SEGMENT
this$ = 48
threadId$ = 56
?TryLock@CThreadFastMutex@Thread@IronMan@@AECA_NI@Z PROC ; IronMan::Thread::CThreadFastMutex::TryLock, COMDAT

; 133  : 			{

$LN3:
	mov	DWORD PTR [rsp+16], edx
	mov	QWORD PTR [rsp+8], rcx
	sub	rsp, 40					; 00000028H

; 134  : 				return TryLockInline(threadId);

	mov	edx, DWORD PTR threadId$[rsp]
	mov	rcx, QWORD PTR this$[rsp]
	call	?TryLockInline@CThreadFastMutex@Thread@IronMan@@AECA_NI@Z ; IronMan::Thread::CThreadFastMutex::TryLockInline

; 135  : 			}

	add	rsp, 40					; 00000028H
	ret	0
?TryLock@CThreadFastMutex@Thread@IronMan@@AECA_NI@Z ENDP ; IronMan::Thread::CThreadFastMutex::TryLock
_TEXT	ENDS
; Function compile flags: /Odtp
; File D:\c++\paoda\Helper\Misc\ThreadMutex.h
;	COMDAT ?TryLockInline@CThreadFastMutex@Thread@IronMan@@AECA_NI@Z
_TEXT	SEGMENT
this$ = 48
threadId$ = 56
?TryLockInline@CThreadFastMutex@Thread@IronMan@@AECA_NI@Z PROC ; IronMan::Thread::CThreadFastMutex::TryLockInline, COMDAT

; 124  : 			{

$LN4:
	mov	DWORD PTR [rsp+16], edx
	mov	QWORD PTR [rsp+8], rcx
	sub	rsp, 40					; 00000028H

; 125  : 				if ((long)threadId != m_ownerID && !ThreadInterlockedAssignIf((volatile long *)&m_ownerID, (long)threadId, 0))

	mov	rax, QWORD PTR this$[rsp]
	mov	eax, DWORD PTR [rax]
	cmp	DWORD PTR threadId$[rsp], eax
	je	SHORT $LN2@TryLockInl
	mov	rax, QWORD PTR this$[rsp]
	xor	r8d, r8d
	mov	edx, DWORD PTR threadId$[rsp]
	mov	rcx, rax
	call	?ThreadInterlockedAssignIf@@YA_NPECJJJ@Z ; ThreadInterlockedAssignIf
	movzx	eax, al
	test	eax, eax
	jne	SHORT $LN2@TryLockInl

; 126  : 					return false;

	xor	al, al
	jmp	SHORT $LN1@TryLockInl
$LN2@TryLockInl:

; 127  : 
; 128  : 				++m_depth;

	mov	rax, QWORD PTR this$[rsp]
	mov	eax, DWORD PTR [rax+4]
	inc	eax
	mov	rcx, QWORD PTR this$[rsp]
	mov	DWORD PTR [rcx+4], eax

; 129  : 				return true;

	mov	al, 1
$LN1@TryLockInl:

; 130  : 			}

	add	rsp, 40					; 00000028H
	ret	0
?TryLockInline@CThreadFastMutex@Thread@IronMan@@AECA_NI@Z ENDP ; IronMan::Thread::CThreadFastMutex::TryLockInline
_TEXT	ENDS
; Function compile flags: /Odtp
; File D:\c++\paoda\Helper\Misc\ThreadMutex.cpp
_TEXT	SEGMENT
this$ = 8
bTrace$ = 16
?SetTrace@CThreadMutex@Thread@IronMan@@QEAAX_N@Z PROC	; IronMan::Thread::CThreadMutex::SetTrace

; 106  : 		{

	mov	BYTE PTR [rsp+16], dl
	mov	QWORD PTR [rsp+8], rcx

; 107  : #ifdef THREAD_MUTEX_TRACING_ENABLED
; 108  : 			m_bTrace = bTrace;
; 109  : #endif
; 110  : 		}

	ret	0
?SetTrace@CThreadMutex@Thread@IronMan@@QEAAX_N@Z ENDP	; IronMan::Thread::CThreadMutex::SetTrace
_TEXT	ENDS
; Function compile flags: /Odtp
; File D:\c++\paoda\Helper\Misc\ThreadMutex.cpp
_TEXT	SEGMENT
this$ = 8
?AssertOwnedByCurrentThread@CThreadMutex@Thread@IronMan@@QEAA_NXZ PROC ; IronMan::Thread::CThreadMutex::AssertOwnedByCurrentThread

; 95   : 		{

	mov	QWORD PTR [rsp+8], rcx

; 96   : #ifdef THREAD_MUTEX_TRACING_ENABLED
; 97   : 			if (GetCurrentThreadId() == m_currentOwnerID)
; 98   : 				return true;
; 99   : 			assert(0);//"Expected thread %u as owner of lock 0x%x, but %u owns", ThreadGetCurrentId(), (CRITICAL_SECTION *)&m_CriticalSection, m_currentOwnerID
; 100  : 			return false;
; 101  : #else
; 102  : 			return true;

	mov	al, 1

; 103  : #endif
; 104  : 		}

	ret	0
?AssertOwnedByCurrentThread@CThreadMutex@Thread@IronMan@@QEAA_NXZ ENDP ; IronMan::Thread::CThreadMutex::AssertOwnedByCurrentThread
_TEXT	ENDS
; Function compile flags: /Odtp
; File D:\c++\paoda\Helper\Misc\ThreadMutex.cpp
_TEXT	SEGMENT
thisThreadID$ = 32
tv133 = 36
tv131 = 40
tv169 = 44
tv177 = 48
tv174 = 56
tv129 = 64
tv178 = 72
tv176 = 80
tv167 = 88
$T1 = 96
$T2 = 128
__$ArrayPad$ = 160
this$ = 192
?TryLock@CThreadMutex@Thread@IronMan@@QEAA_NXZ PROC	; IronMan::Thread::CThreadMutex::TryLock

; 70   : 		{

$LN9:
	mov	QWORD PTR [rsp+8], rcx
	sub	rsp, 184				; 000000b8H
	mov	rax, QWORD PTR __security_cookie
	xor	rax, rsp
	mov	QWORD PTR __$ArrayPad$[rsp], rax

; 71   : 
; 72   : 			uint32_t thisThreadID = GetCurrentThreadId();

	call	QWORD PTR __imp_GetCurrentThreadId
	mov	DWORD PTR thisThreadID$[rsp], eax

; 73   : 			if (m_bTrace && m_currentOwnerID && (m_currentOwnerID != thisThreadID))

	mov	rax, QWORD PTR this$[rsp]
	movzx	eax, BYTE PTR [rax+46]
	test	eax, eax
	je	$LN2@TryLock
	mov	rax, QWORD PTR this$[rsp]
	cmp	DWORD PTR [rax+40], 0
	je	$LN2@TryLock
	mov	rax, QWORD PTR this$[rsp]
	mov	ecx, DWORD PTR thisThreadID$[rsp]
	cmp	DWORD PTR [rax+40], ecx
	je	$LN2@TryLock

; 74   : 			{
; 75   : 				CONSOLE_INFO("Thread %u about to try-wait for lock %x owned by %u\n", GetCurrentThreadId(), (CRITICAL_SECTION *)&m_CriticalSection, m_currentOwnerID);

	mov	ecx, -11				; fffffff5H
	call	QWORD PTR __imp_GetStdHandle
	mov	dx, 15
	mov	rcx, rax
	call	QWORD PTR __imp_SetConsoleTextAttribute
	mov	ecx, -11				; fffffff5H
	call	QWORD PTR __imp_GetStdHandle
	mov	dx, 7
	mov	rcx, rax
	call	QWORD PTR __imp_SetConsoleTextAttribute
	npad	1
	mov	rax, QWORD PTR this$[rsp]
	mov	eax, DWORD PTR [rax+40]
	mov	DWORD PTR tv133[rsp], eax
	call	QWORD PTR __imp_GetCurrentThreadId
	mov	DWORD PTR tv131[rsp], eax
	lea	r8, OFFSET FLAT:??_C@_0DF@PFFPIAEC@Thread?5?$CFu?5about?5to?5try?9wait?5for@
	lea	rdx, OFFSET FLAT:??_C@_0BC@ECCJIJFO@?$FL?h?$LO?$JD?e?$IH?$LK?d?$LP?$KB?f?$IB?$KP?$FN?5?$CFs@
	lea	rcx, QWORD PTR $T1[rsp]
	call	?FormatString@Utils@IronMan@@YA?AV?$basic_string@DU?$char_traits@D@std@@V?$allocator@D@2@@std@@PEBDZZ ; IronMan::Utils::FormatString
	mov	QWORD PTR tv177[rsp], rax
	mov	rax, QWORD PTR tv177[rsp]
	mov	QWORD PTR tv174[rsp], rax
	mov	rcx, QWORD PTR tv174[rsp]
	call	?c_str@?$basic_string@DU?$char_traits@D@std@@V?$allocator@D@2@@std@@QEBAPEBDXZ ; std::basic_string<char,std::char_traits<char>,std::allocator<char> >::c_str
	mov	QWORD PTR tv129[rsp], rax
	mov	rax, QWORD PTR this$[rsp]
	mov	r9d, DWORD PTR tv133[rsp]
	mov	r8, rax
	mov	edx, DWORD PTR tv131[rsp]
	mov	rcx, QWORD PTR tv129[rsp]
	call	?Print@Console@IronMan@@YA_NPEBDZZ	; IronMan::Console::Print
	npad	1
	lea	rcx, QWORD PTR $T1[rsp]
	call	??1?$basic_string@DU?$char_traits@D@std@@V?$allocator@D@2@@std@@QEAA@XZ ; std::basic_string<char,std::char_traits<char>,std::allocator<char> >::~basic_string<char,std::char_traits<char>,std::allocator<char> >
	npad	1
$LN2@TryLock:

; 76   : 			}
; 77   : 			if (TryEnterCriticalSection((CRITICAL_SECTION *)&m_CriticalSection) != FALSE)

	mov	rax, QWORD PTR this$[rsp]
	mov	rcx, rax
	call	QWORD PTR __imp_TryEnterCriticalSection
	test	eax, eax
	je	$LN3@TryLock

; 78   : 			{
; 79   : 				if (m_lockCount == 0)

	mov	rax, QWORD PTR this$[rsp]
	movzx	eax, WORD PTR [rax+44]
	test	eax, eax
	jne	$LN4@TryLock

; 80   : 				{
; 81   : 					// we now own it for the first time.  Set owner information
; 82   : 					m_currentOwnerID = thisThreadID;

	mov	rax, QWORD PTR this$[rsp]
	mov	ecx, DWORD PTR thisThreadID$[rsp]
	mov	DWORD PTR [rax+40], ecx

; 83   : 					if (m_bTrace)

	mov	rax, QWORD PTR this$[rsp]
	movzx	eax, BYTE PTR [rax+46]
	test	eax, eax
	je	$LN4@TryLock

; 84   : 					{
; 85   : 						CONSOLE_INFO("Thread %u now owns lock 0x%x\n", m_currentOwnerID, (CRITICAL_SECTION *)&m_CriticalSection);

	mov	ecx, -11				; fffffff5H
	call	QWORD PTR __imp_GetStdHandle
	mov	dx, 15
	mov	rcx, rax
	call	QWORD PTR __imp_SetConsoleTextAttribute
	mov	ecx, -11				; fffffff5H
	call	QWORD PTR __imp_GetStdHandle
	mov	dx, 7
	mov	rcx, rax
	call	QWORD PTR __imp_SetConsoleTextAttribute
	npad	1
	mov	rax, QWORD PTR this$[rsp]
	mov	eax, DWORD PTR [rax+40]
	mov	DWORD PTR tv169[rsp], eax
	lea	r8, OFFSET FLAT:??_C@_0BO@PLAACIBM@Thread?5?$CFu?5now?5owns?5lock?50x?$CFx?6@
	lea	rdx, OFFSET FLAT:??_C@_0BC@ECCJIJFO@?$FL?h?$LO?$JD?e?$IH?$LK?d?$LP?$KB?f?$IB?$KP?$FN?5?$CFs@
	lea	rcx, QWORD PTR $T2[rsp]
	call	?FormatString@Utils@IronMan@@YA?AV?$basic_string@DU?$char_traits@D@std@@V?$allocator@D@2@@std@@PEBDZZ ; IronMan::Utils::FormatString
	mov	QWORD PTR tv178[rsp], rax
	mov	rax, QWORD PTR tv178[rsp]
	mov	QWORD PTR tv176[rsp], rax
	mov	rcx, QWORD PTR tv176[rsp]
	call	?c_str@?$basic_string@DU?$char_traits@D@std@@V?$allocator@D@2@@std@@QEBAPEBDXZ ; std::basic_string<char,std::char_traits<char>,std::allocator<char> >::c_str
	mov	QWORD PTR tv167[rsp], rax
	mov	rax, QWORD PTR this$[rsp]
	mov	r8, rax
	mov	edx, DWORD PTR tv169[rsp]
	mov	rcx, QWORD PTR tv167[rsp]
	call	?Print@Console@IronMan@@YA_NPEBDZZ	; IronMan::Console::Print
	npad	1
	lea	rcx, QWORD PTR $T2[rsp]
	call	??1?$basic_string@DU?$char_traits@D@std@@V?$allocator@D@2@@std@@QEAA@XZ ; std::basic_string<char,std::char_traits<char>,std::allocator<char> >::~basic_string<char,std::char_traits<char>,std::allocator<char> >
	npad	1
$LN4@TryLock:

; 86   : 					}
; 87   : 				}
; 88   : 				m_lockCount++;

	mov	rax, QWORD PTR this$[rsp]
	movzx	eax, WORD PTR [rax+44]
	inc	ax
	mov	rcx, QWORD PTR this$[rsp]
	mov	WORD PTR [rcx+44], ax

; 89   : 
; 90   : 				return true;

	mov	al, 1
	jmp	SHORT $LN1@TryLock
$LN3@TryLock:

; 91   : 			}
; 92   : 			return false;

	xor	al, al
$LN1@TryLock:

; 93   : 		}

	mov	rcx, QWORD PTR __$ArrayPad$[rsp]
	xor	rcx, rsp
	call	__security_check_cookie
	add	rsp, 184				; 000000b8H
	ret	0
?TryLock@CThreadMutex@Thread@IronMan@@QEAA_NXZ ENDP	; IronMan::Thread::CThreadMutex::TryLock
_TEXT	ENDS
; Function compile flags: /Odtp
text$x	SEGMENT
thisThreadID$ = 32
tv133 = 36
tv131 = 40
tv169 = 44
tv177 = 48
tv174 = 56
tv129 = 64
tv178 = 72
tv176 = 80
tv167 = 88
$T1 = 96
$T2 = 128
__$ArrayPad$ = 160
this$ = 192
?dtor$0@?0??TryLock@CThreadMutex@Thread@IronMan@@QEAA_NXZ@4HA PROC ; `IronMan::Thread::CThreadMutex::TryLock'::`1'::dtor$0
	push	rbp
	sub	rsp, 32					; 00000020H
	mov	rbp, rdx
	lea	rcx, QWORD PTR $T1[rbp]
	call	??1?$basic_string@DU?$char_traits@D@std@@V?$allocator@D@2@@std@@QEAA@XZ ; std::basic_string<char,std::char_traits<char>,std::allocator<char> >::~basic_string<char,std::char_traits<char>,std::allocator<char> >
	add	rsp, 32					; 00000020H
	pop	rbp
	ret	0
?dtor$0@?0??TryLock@CThreadMutex@Thread@IronMan@@QEAA_NXZ@4HA ENDP ; `IronMan::Thread::CThreadMutex::TryLock'::`1'::dtor$0
text$x	ENDS
; Function compile flags: /Odtp
text$x	SEGMENT
thisThreadID$ = 32
tv133 = 36
tv131 = 40
tv169 = 44
tv177 = 48
tv174 = 56
tv129 = 64
tv178 = 72
tv176 = 80
tv167 = 88
$T1 = 96
$T2 = 128
__$ArrayPad$ = 160
this$ = 192
?dtor$1@?0??TryLock@CThreadMutex@Thread@IronMan@@QEAA_NXZ@4HA PROC ; `IronMan::Thread::CThreadMutex::TryLock'::`1'::dtor$1
	push	rbp
	sub	rsp, 32					; 00000020H
	mov	rbp, rdx
	lea	rcx, QWORD PTR $T2[rbp]
	call	??1?$basic_string@DU?$char_traits@D@std@@V?$allocator@D@2@@std@@QEAA@XZ ; std::basic_string<char,std::char_traits<char>,std::allocator<char> >::~basic_string<char,std::char_traits<char>,std::allocator<char> >
	add	rsp, 32					; 00000020H
	pop	rbp
	ret	0
?dtor$1@?0??TryLock@CThreadMutex@Thread@IronMan@@QEAA_NXZ@4HA ENDP ; `IronMan::Thread::CThreadMutex::TryLock'::`1'::dtor$1
text$x	ENDS
; Function compile flags: /Odtp
; File D:\c++\paoda\Helper\Misc\ThreadMutex.cpp
_TEXT	SEGMENT
this$ = 48
?Unlock@CThreadMutex@Thread@IronMan@@QEAAXXZ PROC	; IronMan::Thread::CThreadMutex::Unlock

; 53   : 		{

$LN3:
	mov	QWORD PTR [rsp+8], rcx
	sub	rsp, 40					; 00000028H

; 54   : 
; 55   : #ifdef THREAD_MUTEX_TRACING_ENABLED
; 56   : 			assert(m_lockCount >= 1);//"Invalid unlock of thread lock"
; 57   : 			m_lockCount--;
; 58   : 			if (m_lockCount == 0)
; 59   : 			{
; 60   : 				if (m_bTrace)
; 61   : 				{
; 62   : 					CONSOLE_INFO("Thread %u releasing lock 0x%x\n", m_currentOwnerID, (CRITICAL_SECTION *)&m_CriticalSection);
; 63   : 				}
; 64   : 				m_currentOwnerID = 0;
; 65   : 			}
; 66   : #endif
; 67   : 			LeaveCriticalSection((CRITICAL_SECTION *)&m_CriticalSection);

	mov	rax, QWORD PTR this$[rsp]
	mov	rcx, rax
	call	QWORD PTR __imp_LeaveCriticalSection
	npad	1

; 68   : 		}

	add	rsp, 40					; 00000028H
	ret	0
?Unlock@CThreadMutex@Thread@IronMan@@QEAAXXZ ENDP	; IronMan::Thread::CThreadMutex::Unlock
_TEXT	ENDS
; Function compile flags: /Odtp
; File D:\c++\paoda\Helper\Misc\ThreadMutex.cpp
_TEXT	SEGMENT
this$ = 48
?Lock@CThreadMutex@Thread@IronMan@@QEAAXXZ PROC		; IronMan::Thread::CThreadMutex::Lock

; 26   : 		{

$LN3:
	mov	QWORD PTR [rsp+8], rcx
	sub	rsp, 40					; 00000028H

; 27   : #ifdef THREAD_MUTEX_TRACING_ENABLED
; 28   : 			uint32_t thisThreadID = GetCurrentThreadId();
; 29   : 			if (m_bTrace && m_currentOwnerID && (m_currentOwnerID != thisThreadID))
; 30   : 			{
; 31   : 				CONSOLE_INFO("Thread %u about to wait for lock %x owned by %u\n", GetCurrentThreadId(), (CRITICAL_SECTION *)&m_CriticalSection, m_currentOwnerID);
; 32   : 			}
; 33   : 				
; 34   : #endif
; 35   : 
; 36   : 			EnterCriticalSection((CRITICAL_SECTION *)&m_CriticalSection);

	mov	rax, QWORD PTR this$[rsp]
	mov	rcx, rax
	call	QWORD PTR __imp_EnterCriticalSection
	npad	1

; 37   : 
; 38   : #ifdef THREAD_MUTEX_TRACING_ENABLED
; 39   : 			if (m_lockCount == 0)
; 40   : 			{
; 41   : 				// we now own it for the first time.  Set owner information
; 42   : 				m_currentOwnerID = thisThreadID;
; 43   : 				if (m_bTrace)
; 44   : 				{
; 45   : 					CONSOLE_INFO("Thread %u now owns lock 0x%x\n", m_currentOwnerID, (CRITICAL_SECTION *)&m_CriticalSection);
; 46   : 				}
; 47   : 					
; 48   : 			}
; 49   : 			m_lockCount++;
; 50   : #endif
; 51   : 		}

	add	rsp, 40					; 00000028H
	ret	0
?Lock@CThreadMutex@Thread@IronMan@@QEAAXXZ ENDP		; IronMan::Thread::CThreadMutex::Lock
_TEXT	ENDS
; Function compile flags: /Odtp
; File D:\c++\paoda\Helper\Misc\ThreadMutex.cpp
_TEXT	SEGMENT
this$ = 48
??1CThreadMutex@Thread@IronMan@@QEAA@XZ PROC		; IronMan::Thread::CThreadMutex::~CThreadMutex

; 22   : 		{

$LN3:
	mov	QWORD PTR [rsp+8], rcx
	sub	rsp, 40					; 00000028H

; 23   : 			DeleteCriticalSection((CRITICAL_SECTION *)&m_CriticalSection);

	mov	rax, QWORD PTR this$[rsp]
	mov	rcx, rax
	call	QWORD PTR __imp_DeleteCriticalSection
	npad	1

; 24   : 		}

	add	rsp, 40					; 00000028H
	ret	0
??1CThreadMutex@Thread@IronMan@@QEAA@XZ ENDP		; IronMan::Thread::CThreadMutex::~CThreadMutex
_TEXT	ENDS
; Function compile flags: /Odtp
; File D:\c++\paoda\Helper\Misc\ThreadMutex.cpp
_TEXT	SEGMENT
this$ = 48
??0CThreadMutex@Thread@IronMan@@QEAA@XZ PROC		; IronMan::Thread::CThreadMutex::CThreadMutex

; 8    : 		{

$LN3:
	mov	QWORD PTR [rsp+8], rcx
	sub	rsp, 40					; 00000028H

; 9    : #ifdef THREAD_MUTEX_TRACING_ENABLED
; 10   : 			memset(&m_CriticalSection, 0, sizeof(m_CriticalSection));
; 11   : #endif
; 12   : 			InitializeCriticalSectionAndSpinCount((CRITICAL_SECTION *)&m_CriticalSection, 4000);

	mov	rax, QWORD PTR this$[rsp]
	mov	edx, 4000				; 00000fa0H
	mov	rcx, rax
	call	QWORD PTR __imp_InitializeCriticalSectionAndSpinCount

; 13   : #ifdef THREAD_MUTEX_TRACING_SUPPORTED
; 14   : 			// These need to be initialized unconditionally in case mixing release & debug object modules
; 15   : 			// Lock and unlock may be emitted as COMDATs, in which case may get spurious output
; 16   : 			m_currentOwnerID = m_lockCount = 0;

	xor	eax, eax
	mov	rcx, QWORD PTR this$[rsp]
	mov	WORD PTR [rcx+44], ax
	mov	rax, QWORD PTR this$[rsp]
	mov	DWORD PTR [rax+40], 0

; 17   : 			m_bTrace = false;

	mov	rax, QWORD PTR this$[rsp]
	mov	BYTE PTR [rax+46], 0

; 18   : #endif
; 19   : 
; 20   : 		}

	mov	rax, QWORD PTR this$[rsp]
	add	rsp, 40					; 00000028H
	ret	0
??0CThreadMutex@Thread@IronMan@@QEAA@XZ ENDP		; IronMan::Thread::CThreadMutex::CThreadMutex
_TEXT	ENDS
; Function compile flags: /Odtp
; File D:\c++\paoda\Helper\Misc\ThreadMutex.h
;	COMDAT ?ThreadInterlockedAssignIf@@YA_NPECJJJ@Z
_TEXT	SEGMENT
tv69 = 0
tv71 = 4
p$ = 32
value$ = 40
comperand$ = 48
?ThreadInterlockedAssignIf@@YA_NPECJJJ@Z PROC		; ThreadInterlockedAssignIf, COMDAT

; 37   : inline bool ThreadInterlockedAssignIf(long volatile *p, long value, long comperand) { assert((size_t)p % 4 == 0); return (_InterlockedCompareExchange(p, value, comperand) == comperand); }

$LN5:
	mov	DWORD PTR [rsp+24], r8d
	mov	DWORD PTR [rsp+16], edx
	mov	QWORD PTR [rsp+8], rcx
	sub	rsp, 24
	mov	eax, DWORD PTR value$[rsp]
	mov	DWORD PTR tv71[rsp], eax
	mov	rcx, QWORD PTR p$[rsp]
	mov	eax, DWORD PTR comperand$[rsp]
	mov	edx, DWORD PTR tv71[rsp]
	lock cmpxchg DWORD PTR [rcx], edx
	cmp	eax, DWORD PTR comperand$[rsp]
	jne	SHORT $LN3@ThreadInte
	mov	DWORD PTR tv69[rsp], 1
	jmp	SHORT $LN4@ThreadInte
$LN3@ThreadInte:
	mov	DWORD PTR tv69[rsp], 0
$LN4@ThreadInte:
	movzx	eax, BYTE PTR tv69[rsp]
	add	rsp, 24
	ret	0
?ThreadInterlockedAssignIf@@YA_NPECJJJ@Z ENDP		; ThreadInterlockedAssignIf
_TEXT	ENDS
; Function compile flags: /Odtp
;	COMDAT ??1?$_Compressed_pair@V?$allocator@D@std@@V?$_String_val@U?$_Simple_types@D@std@@@2@$00@std@@QEAA@XZ
_TEXT	SEGMENT
this$ = 48
??1?$_Compressed_pair@V?$allocator@D@std@@V?$_String_val@U?$_Simple_types@D@std@@@2@$00@std@@QEAA@XZ PROC ; std::_Compressed_pair<std::allocator<char>,std::_String_val<std::_Simple_types<char> >,1>::~_Compressed_pair<std::allocator<char>,std::_String_val<std::_Simple_types<char> >,1>, COMDAT
$LN4:
	mov	QWORD PTR [rsp+8], rcx
	sub	rsp, 40					; 00000028H
	mov	rax, QWORD PTR this$[rsp]
	mov	rcx, rax
	call	??1?$_String_val@U?$_Simple_types@D@std@@@std@@QEAA@XZ
	npad	1
	add	rsp, 40					; 00000028H
	ret	0
??1?$_Compressed_pair@V?$allocator@D@std@@V?$_String_val@U?$_Simple_types@D@std@@@2@$00@std@@QEAA@XZ ENDP ; std::_Compressed_pair<std::allocator<char>,std::_String_val<std::_Simple_types<char> >,1>::~_Compressed_pair<std::allocator<char>,std::_String_val<std::_Simple_types<char> >,1>
_TEXT	ENDS
; Function compile flags: /Odtp
;	COMDAT text$x
text$x	SEGMENT
this$ = 48
?dtor$0@?0???1?$_Compressed_pair@V?$allocator@D@std@@V?$_String_val@U?$_Simple_types@D@std@@@2@$00@std@@QEAA@XZ@4HA PROC ; `std::_Compressed_pair<std::allocator<char>,std::_String_val<std::_Simple_types<char> >,1>::~_Compressed_pair<std::allocator<char>,std::_String_val<std::_Simple_types<char> >,1>'::`1'::dtor$0
	push	rbp
	sub	rsp, 32					; 00000020H
	mov	rbp, rdx
	mov	rcx, QWORD PTR this$[rbp]
	call	??1?$_String_val@U?$_Simple_types@D@std@@@std@@QEAA@XZ
	add	rsp, 32					; 00000020H
	pop	rbp
	ret	0
?dtor$0@?0???1?$_Compressed_pair@V?$allocator@D@std@@V?$_String_val@U?$_Simple_types@D@std@@@2@$00@std@@QEAA@XZ@4HA ENDP ; `std::_Compressed_pair<std::allocator<char>,std::_String_val<std::_Simple_types<char> >,1>::~_Compressed_pair<std::allocator<char>,std::_String_val<std::_Simple_types<char> >,1>'::`1'::dtor$0
text$x	ENDS
; Function compile flags: /Odtp
; File C:\Program Files\Microsoft Visual Studio\2022\Community\VC\Tools\MSVC\14.43.34808\include\xmemory
;	COMDAT ?_Get_first@?$_Compressed_pair@V?$allocator@D@std@@V?$_String_val@U?$_Simple_types@D@std@@@2@$00@std@@QEAAAEAV?$allocator@D@2@XZ
_TEXT	SEGMENT
this$ = 8
?_Get_first@?$_Compressed_pair@V?$allocator@D@std@@V?$_String_val@U?$_Simple_types@D@std@@@2@$00@std@@QEAAAEAV?$allocator@D@2@XZ PROC ; std::_Compressed_pair<std::allocator<char>,std::_String_val<std::_Simple_types<char> >,1>::_Get_first, COMDAT

; 1534 :     constexpr _Ty1& _Get_first() noexcept {

	mov	QWORD PTR [rsp+8], rcx

; 1535 :         return *this;

	mov	rax, QWORD PTR this$[rsp]

; 1536 :     }

	ret	0
?_Get_first@?$_Compressed_pair@V?$allocator@D@std@@V?$_String_val@U?$_Simple_types@D@std@@@2@$00@std@@QEAAAEAV?$allocator@D@2@XZ ENDP ; std::_Compressed_pair<std::allocator<char>,std::_String_val<std::_Simple_types<char> >,1>::_Get_first
_TEXT	ENDS
; Function compile flags: /Odtp
; File C:\Program Files\Microsoft Visual Studio\2022\Community\VC\Tools\MSVC\14.43.34808\include\xstring
;	COMDAT ?_Getal@?$basic_string@DU?$char_traits@D@std@@V?$allocator@D@2@@std@@AEAAAEAV?$allocator@D@2@XZ
_TEXT	SEGMENT
this$ = 48
?_Getal@?$basic_string@DU?$char_traits@D@std@@V?$allocator@D@2@@std@@AEAAAEAV?$allocator@D@2@XZ PROC ; std::basic_string<char,std::char_traits<char>,std::allocator<char> >::_Getal, COMDAT

; 3070 :     _CONSTEXPR20 _Alty& _Getal() noexcept {

$LN3:
	mov	QWORD PTR [rsp+8], rcx
	sub	rsp, 40					; 00000028H

; 3071 :         return _Mypair._Get_first();

	mov	rax, QWORD PTR this$[rsp]
	mov	rcx, rax
	call	?_Get_first@?$_Compressed_pair@V?$allocator@D@std@@V?$_String_val@U?$_Simple_types@D@std@@@2@$00@std@@QEAAAEAV?$allocator@D@2@XZ ; std::_Compressed_pair<std::allocator<char>,std::_String_val<std::_Simple_types<char> >,1>::_Get_first

; 3072 :     }

	add	rsp, 40					; 00000028H
	ret	0
?_Getal@?$basic_string@DU?$char_traits@D@std@@V?$allocator@D@2@@std@@AEAAAEAV?$allocator@D@2@XZ ENDP ; std::basic_string<char,std::char_traits<char>,std::allocator<char> >::_Getal
_TEXT	ENDS
; Function compile flags: /Odtp
; File C:\Program Files\Microsoft Visual Studio\2022\Community\VC\Tools\MSVC\14.43.34808\include\xstring
;	COMDAT ?_Tidy_deallocate@?$basic_string@DU?$char_traits@D@std@@V?$allocator@D@2@@std@@AEAAXXZ
_TEXT	SEGMENT
$T1 = 32
_My_data$ = 40
_Al$2 = 48
this$ = 80
?_Tidy_deallocate@?$basic_string@DU?$char_traits@D@std@@V?$allocator@D@2@@std@@AEAAXXZ PROC ; std::basic_string<char,std::char_traits<char>,std::allocator<char> >::_Tidy_deallocate, COMDAT

; 3044 :     _CONSTEXPR20 void _Tidy_deallocate() noexcept { // initialize buffer, deallocating any storage

$LN4:
	mov	QWORD PTR [rsp+8], rcx
	sub	rsp, 72					; 00000048H

; 3045 :         auto& _My_data = _Mypair._Myval2;

	mov	rax, QWORD PTR this$[rsp]
	mov	QWORD PTR _My_data$[rsp], rax

; 3046 :         _My_data._Orphan_all();

	mov	rcx, QWORD PTR _My_data$[rsp]
	call	?_Orphan_all@_Container_base0@std@@QEAAXXZ ; std::_Container_base0::_Orphan_all
	npad	1

; 3047 :         if (_My_data._Large_mode_engaged()) {

	mov	rcx, QWORD PTR _My_data$[rsp]
	call	?_Large_mode_engaged@?$_String_val@U?$_Simple_types@D@std@@@std@@QEBA_NXZ ; std::_String_val<std::_Simple_types<char> >::_Large_mode_engaged
	movzx	eax, al
	test	eax, eax
	je	SHORT $LN2@Tidy_deall

; 3048 :             _ASAN_STRING_REMOVE(*this);
; 3049 :             auto& _Al = _Getal();

	mov	rcx, QWORD PTR this$[rsp]
	call	?_Getal@?$basic_string@DU?$char_traits@D@std@@V?$allocator@D@2@@std@@AEAAAEAV?$allocator@D@2@XZ ; std::basic_string<char,std::char_traits<char>,std::allocator<char> >::_Getal
	mov	QWORD PTR _Al$2[rsp], rax

; 3050 :             _Deallocate_for_capacity(_Al, _My_data._Bx._Ptr, _My_data._Myres);

	mov	rax, QWORD PTR _My_data$[rsp]
	mov	r8, QWORD PTR [rax+24]
	mov	rax, QWORD PTR _My_data$[rsp]
	mov	rdx, QWORD PTR [rax]
	mov	rcx, QWORD PTR _Al$2[rsp]
	call	?_Deallocate_for_capacity@?$basic_string@DU?$char_traits@D@std@@V?$allocator@D@2@@std@@CAXAEAV?$allocator@D@2@QEAD_K@Z ; std::basic_string<char,std::char_traits<char>,std::allocator<char> >::_Deallocate_for_capacity

; 3051 :             _My_data._Bx._Switch_to_buf();

	mov	rax, QWORD PTR _My_data$[rsp]
	mov	rcx, rax
	call	?_Switch_to_buf@_Bxty@?$_String_val@U?$_Simple_types@D@std@@@std@@QEAAXXZ ; std::_String_val<std::_Simple_types<char> >::_Bxty::_Switch_to_buf
	npad	1
$LN2@Tidy_deall:

; 3052 :         }
; 3053 : 
; 3054 :         _My_data._Mysize = 0;

	mov	rax, QWORD PTR _My_data$[rsp]
	mov	QWORD PTR [rax+16], 0

; 3055 :         _My_data._Myres  = _Small_string_capacity;

	mov	rax, QWORD PTR _My_data$[rsp]
	mov	QWORD PTR [rax+24], 15

; 3056 :         // the _Traits::assign is last so the codegen doesn't think the char write can alias this
; 3057 :         _Traits::assign(_My_data._Bx._Buf[0], _Elem());

	mov	BYTE PTR $T1[rsp], 0
	mov	eax, 1
	imul	rax, rax, 0
	mov	rcx, QWORD PTR _My_data$[rsp]
	add	rcx, rax
	mov	rax, rcx
	lea	rdx, QWORD PTR $T1[rsp]
	mov	rcx, rax
	call	?assign@?$_Narrow_char_traits@DH@std@@SAXAEADAEBD@Z ; std::_Narrow_char_traits<char,int>::assign
	npad	1

; 3058 :     }

	add	rsp, 72					; 00000048H
	ret	0
?_Tidy_deallocate@?$basic_string@DU?$char_traits@D@std@@V?$allocator@D@2@@std@@AEAAXXZ ENDP ; std::basic_string<char,std::char_traits<char>,std::allocator<char> >::_Tidy_deallocate
_TEXT	ENDS
; Function compile flags: /Odtp
; File C:\Program Files\Microsoft Visual Studio\2022\Community\VC\Tools\MSVC\14.43.34808\include\xstring
;	COMDAT ?c_str@?$basic_string@DU?$char_traits@D@std@@V?$allocator@D@2@@std@@QEBAPEBDXZ
_TEXT	SEGMENT
this$ = 48
?c_str@?$basic_string@DU?$char_traits@D@std@@V?$allocator@D@2@@std@@QEBAPEBDXZ PROC ; std::basic_string<char,std::char_traits<char>,std::allocator<char> >::c_str, COMDAT

; 2327 :     _NODISCARD _CONSTEXPR20 _Ret_z_ const _Elem* c_str() const noexcept {

$LN3:
	mov	QWORD PTR [rsp+8], rcx
	sub	rsp, 40					; 00000028H

; 2328 :         return _Mypair._Myval2._Myptr();

	mov	rax, QWORD PTR this$[rsp]
	mov	rcx, rax
	call	?_Myptr@?$_String_val@U?$_Simple_types@D@std@@@std@@QEBAPEBDXZ ; std::_String_val<std::_Simple_types<char> >::_Myptr

; 2329 :     }

	add	rsp, 40					; 00000028H
	ret	0
?c_str@?$basic_string@DU?$char_traits@D@std@@V?$allocator@D@2@@std@@QEBAPEBDXZ ENDP ; std::basic_string<char,std::char_traits<char>,std::allocator<char> >::c_str
_TEXT	ENDS
; Function compile flags: /Odtp
; File C:\Program Files\Microsoft Visual Studio\2022\Community\VC\Tools\MSVC\14.43.34808\include\xstring
;	COMDAT ??1?$basic_string@DU?$char_traits@D@std@@V?$allocator@D@2@@std@@QEAA@XZ
_TEXT	SEGMENT
this$ = 48
??1?$basic_string@DU?$char_traits@D@std@@V?$allocator@D@2@@std@@QEAA@XZ PROC ; std::basic_string<char,std::char_traits<char>,std::allocator<char> >::~basic_string<char,std::char_traits<char>,std::allocator<char> >, COMDAT

; 1358 :     _CONSTEXPR20 ~basic_string() noexcept {

$LN4:
	mov	QWORD PTR [rsp+8], rcx
	sub	rsp, 40					; 00000028H

; 1359 :         _Tidy_deallocate();

	mov	rcx, QWORD PTR this$[rsp]
	call	?_Tidy_deallocate@?$basic_string@DU?$char_traits@D@std@@V?$allocator@D@2@@std@@AEAAXXZ ; std::basic_string<char,std::char_traits<char>,std::allocator<char> >::_Tidy_deallocate
	npad	1

; 1360 : #if _ITERATOR_DEBUG_LEVEL != 0
; 1361 :         auto&& _Alproxy          = _GET_PROXY_ALLOCATOR(_Alty, _Getal());
; 1362 :         const auto _To_delete    = _Mypair._Myval2._Myproxy;
; 1363 :         _Mypair._Myval2._Myproxy = nullptr;
; 1364 :         _Delete_plain_internal(_Alproxy, _To_delete);
; 1365 : #endif // _ITERATOR_DEBUG_LEVEL != 0
; 1366 :     }

	mov	rax, QWORD PTR this$[rsp]
	mov	rcx, rax
	call	??1?$_Compressed_pair@V?$allocator@D@std@@V?$_String_val@U?$_Simple_types@D@std@@@2@$00@std@@QEAA@XZ
	npad	1
	add	rsp, 40					; 00000028H
	ret	0
??1?$basic_string@DU?$char_traits@D@std@@V?$allocator@D@2@@std@@QEAA@XZ ENDP ; std::basic_string<char,std::char_traits<char>,std::allocator<char> >::~basic_string<char,std::char_traits<char>,std::allocator<char> >
_TEXT	ENDS
; Function compile flags: /Odtp
;	COMDAT text$x
text$x	SEGMENT
this$ = 48
?dtor$0@?0???1?$basic_string@DU?$char_traits@D@std@@V?$allocator@D@2@@std@@QEAA@XZ@4HA PROC ; `std::basic_string<char,std::char_traits<char>,std::allocator<char> >::~basic_string<char,std::char_traits<char>,std::allocator<char> >'::`1'::dtor$0
	push	rbp
	sub	rsp, 32					; 00000020H
	mov	rbp, rdx
	mov	rcx, QWORD PTR this$[rbp]
	call	??1?$_Compressed_pair@V?$allocator@D@std@@V?$_String_val@U?$_Simple_types@D@std@@@2@$00@std@@QEAA@XZ
	add	rsp, 32					; 00000020H
	pop	rbp
	ret	0
?dtor$0@?0???1?$basic_string@DU?$char_traits@D@std@@V?$allocator@D@2@@std@@QEAA@XZ@4HA ENDP ; `std::basic_string<char,std::char_traits<char>,std::allocator<char> >::~basic_string<char,std::char_traits<char>,std::allocator<char> >'::`1'::dtor$0
text$x	ENDS
; Function compile flags: /Odtp
; File C:\Program Files\Microsoft Visual Studio\2022\Community\VC\Tools\MSVC\14.43.34808\include\xstring
;	COMDAT ?_Deallocate_for_capacity@?$basic_string@DU?$char_traits@D@std@@V?$allocator@D@2@@std@@CAXAEAV?$allocator@D@2@QEAD_K@Z
_TEXT	SEGMENT
_Al$ = 48
_Old_ptr$ = 56
_Capacity$ = 64
?_Deallocate_for_capacity@?$basic_string@DU?$char_traits@D@std@@V?$allocator@D@2@@std@@CAXAEAV?$allocator@D@2@QEAD_K@Z PROC ; std::basic_string<char,std::char_traits<char>,std::allocator<char> >::_Deallocate_for_capacity, COMDAT

; 826  :         _Alty& _Al, const pointer _Old_ptr, const size_type _Capacity) noexcept {

$LN3:
	mov	QWORD PTR [rsp+24], r8
	mov	QWORD PTR [rsp+16], rdx
	mov	QWORD PTR [rsp+8], rcx
	sub	rsp, 40					; 00000028H

; 827  :         _STL_INTERNAL_CHECK(_Capacity > _Small_string_capacity);
; 828  :         _Al.deallocate(_Old_ptr, _Capacity + 1); // +1 for null terminator

	mov	rax, QWORD PTR _Capacity$[rsp]
	inc	rax
	mov	r8, rax
	mov	rdx, QWORD PTR _Old_ptr$[rsp]
	mov	rcx, QWORD PTR _Al$[rsp]
	call	?deallocate@?$allocator@D@std@@QEAAXQEAD_K@Z ; std::allocator<char>::deallocate
	npad	1

; 829  :     }

	add	rsp, 40					; 00000028H
	ret	0
?_Deallocate_for_capacity@?$basic_string@DU?$char_traits@D@std@@V?$allocator@D@2@@std@@CAXAEAV?$allocator@D@2@QEAD_K@Z ENDP ; std::basic_string<char,std::char_traits<char>,std::allocator<char> >::_Deallocate_for_capacity
_TEXT	ENDS
; Function compile flags: /Odtp
;	COMDAT ??1?$_String_val@U?$_Simple_types@D@std@@@std@@QEAA@XZ
_TEXT	SEGMENT
this$ = 48
??1?$_String_val@U?$_Simple_types@D@std@@@std@@QEAA@XZ PROC ; std::_String_val<std::_Simple_types<char> >::~_String_val<std::_Simple_types<char> >, COMDAT
$LN4:
	mov	QWORD PTR [rsp+8], rcx
	sub	rsp, 40					; 00000028H
	mov	rax, QWORD PTR this$[rsp]
	mov	rcx, rax
	call	??1_Bxty@?$_String_val@U?$_Simple_types@D@std@@@std@@QEAA@XZ ; std::_String_val<std::_Simple_types<char> >::_Bxty::~_Bxty
	npad	1
	add	rsp, 40					; 00000028H
	ret	0
??1?$_String_val@U?$_Simple_types@D@std@@@std@@QEAA@XZ ENDP ; std::_String_val<std::_Simple_types<char> >::~_String_val<std::_Simple_types<char> >
_TEXT	ENDS
; Function compile flags: /Odtp
;	COMDAT text$x
text$x	SEGMENT
this$ = 48
?dtor$0@?0???1?$_String_val@U?$_Simple_types@D@std@@@std@@QEAA@XZ@4HA PROC ; `std::_String_val<std::_Simple_types<char> >::~_String_val<std::_Simple_types<char> >'::`1'::dtor$0
	push	rbp
	sub	rsp, 32					; 00000020H
	mov	rbp, rdx
	mov	rcx, QWORD PTR this$[rbp]
	call	??1_Bxty@?$_String_val@U?$_Simple_types@D@std@@@std@@QEAA@XZ ; std::_String_val<std::_Simple_types<char> >::_Bxty::~_Bxty
	add	rsp, 32					; 00000020H
	pop	rbp
	ret	0
?dtor$0@?0???1?$_String_val@U?$_Simple_types@D@std@@@std@@QEAA@XZ@4HA ENDP ; `std::_String_val<std::_Simple_types<char> >::~_String_val<std::_Simple_types<char> >'::`1'::dtor$0
text$x	ENDS
; Function compile flags: /Odtp
; File C:\Program Files\Microsoft Visual Studio\2022\Community\VC\Tools\MSVC\14.43.34808\include\xstring
;	COMDAT ?_Switch_to_buf@_Bxty@?$_String_val@U?$_Simple_types@D@std@@@std@@QEAAXXZ
_TEXT	SEGMENT
this$ = 48
?_Switch_to_buf@_Bxty@?$_String_val@U?$_Simple_types@D@std@@@std@@QEAAXXZ PROC ; std::_String_val<std::_Simple_types<char> >::_Bxty::_Switch_to_buf, COMDAT

; 481  :         _CONSTEXPR20 void _Switch_to_buf() noexcept {

$LN3:
	mov	QWORD PTR [rsp+8], rcx
	sub	rsp, 40					; 00000028H

; 482  :             _STD _Destroy_in_place(_Ptr);

	mov	rax, QWORD PTR this$[rsp]
	mov	rcx, rax
	call	??$_Destroy_in_place@PEAD@std@@YAXAEAPEAD@Z ; std::_Destroy_in_place<char *>
	npad	1

; 483  : 
; 484  : #if _HAS_CXX20
; 485  :             // start the lifetime of the array elements
; 486  :             if (_STD is_constant_evaluated()) {
; 487  :                 for (size_type _Idx = 0; _Idx < _BUF_SIZE; ++_Idx) {
; 488  :                     _Buf[_Idx] = value_type();
; 489  :                 }
; 490  :             }
; 491  : #endif // _HAS_CXX20
; 492  :         }

	add	rsp, 40					; 00000028H
	ret	0
?_Switch_to_buf@_Bxty@?$_String_val@U?$_Simple_types@D@std@@@std@@QEAAXXZ ENDP ; std::_String_val<std::_Simple_types<char> >::_Bxty::_Switch_to_buf
_TEXT	ENDS
; Function compile flags: /Odtp
; File C:\Program Files\Microsoft Visual Studio\2022\Community\VC\Tools\MSVC\14.43.34808\include\xstring
;	COMDAT ??1_Bxty@?$_String_val@U?$_Simple_types@D@std@@@std@@QEAA@XZ
_TEXT	SEGMENT
this$ = 8
??1_Bxty@?$_String_val@U?$_Simple_types@D@std@@@std@@QEAA@XZ PROC ; std::_String_val<std::_Simple_types<char> >::_Bxty::~_Bxty, COMDAT

; 475  :         _CONSTEXPR20 ~_Bxty() noexcept {} // user-provided, for fancy pointers

	mov	QWORD PTR [rsp+8], rcx
	ret	0
??1_Bxty@?$_String_val@U?$_Simple_types@D@std@@@std@@QEAA@XZ ENDP ; std::_String_val<std::_Simple_types<char> >::_Bxty::~_Bxty
_TEXT	ENDS
; Function compile flags: /Odtp
; File C:\Program Files\Microsoft Visual Studio\2022\Community\VC\Tools\MSVC\14.43.34808\include\xstring
;	COMDAT ?_Large_mode_engaged@?$_String_val@U?$_Simple_types@D@std@@@std@@QEBA_NXZ
_TEXT	SEGMENT
tv66 = 0
this$ = 32
?_Large_mode_engaged@?$_String_val@U?$_Simple_types@D@std@@@std@@QEBA_NXZ PROC ; std::_String_val<std::_Simple_types<char> >::_Large_mode_engaged, COMDAT

; 433  :     _NODISCARD _CONSTEXPR20 bool _Large_mode_engaged() const noexcept {

$LN5:
	mov	QWORD PTR [rsp+8], rcx
	sub	rsp, 24

; 434  :         return _Myres > _Small_string_capacity;

	mov	rax, QWORD PTR this$[rsp]
	cmp	QWORD PTR [rax+24], 15
	jbe	SHORT $LN3@Large_mode
	mov	DWORD PTR tv66[rsp], 1
	jmp	SHORT $LN4@Large_mode
$LN3@Large_mode:
	mov	DWORD PTR tv66[rsp], 0
$LN4@Large_mode:
	movzx	eax, BYTE PTR tv66[rsp]

; 435  :     }

	add	rsp, 24
	ret	0
?_Large_mode_engaged@?$_String_val@U?$_Simple_types@D@std@@@std@@QEBA_NXZ ENDP ; std::_String_val<std::_Simple_types<char> >::_Large_mode_engaged
_TEXT	ENDS
; Function compile flags: /Odtp
; File C:\Program Files\Microsoft Visual Studio\2022\Community\VC\Tools\MSVC\14.43.34808\include\xstring
;	COMDAT ?_Myptr@?$_String_val@U?$_Simple_types@D@std@@@std@@QEBAPEBDXZ
_TEXT	SEGMENT
_Result$ = 32
this$ = 64
?_Myptr@?$_String_val@U?$_Simple_types@D@std@@@std@@QEBAPEBDXZ PROC ; std::_String_val<std::_Simple_types<char> >::_Myptr, COMDAT

; 424  :     _NODISCARD _CONSTEXPR20 const value_type* _Myptr() const noexcept {

$LN4:
	mov	QWORD PTR [rsp+8], rcx
	sub	rsp, 56					; 00000038H

; 425  :         const value_type* _Result = _Bx._Buf;

	mov	rax, QWORD PTR this$[rsp]
	mov	QWORD PTR _Result$[rsp], rax

; 426  :         if (_Large_mode_engaged()) {

	mov	rcx, QWORD PTR this$[rsp]
	call	?_Large_mode_engaged@?$_String_val@U?$_Simple_types@D@std@@@std@@QEBA_NXZ ; std::_String_val<std::_Simple_types<char> >::_Large_mode_engaged
	movzx	eax, al
	test	eax, eax
	je	SHORT $LN2@Myptr

; 427  :             _Result = _Unfancy(_Bx._Ptr);

	mov	rax, QWORD PTR this$[rsp]
	mov	rcx, QWORD PTR [rax]
	call	??$_Unfancy@D@std@@YAPEADPEAD@Z		; std::_Unfancy<char>
	mov	QWORD PTR _Result$[rsp], rax
$LN2@Myptr:

; 428  :         }
; 429  : 
; 430  :         return _Result;

	mov	rax, QWORD PTR _Result$[rsp]

; 431  :     }

	add	rsp, 56					; 00000038H
	ret	0
?_Myptr@?$_String_val@U?$_Simple_types@D@std@@@std@@QEBAPEBDXZ ENDP ; std::_String_val<std::_Simple_types<char> >::_Myptr
_TEXT	ENDS
; Function compile flags: /Odtp
; File C:\Program Files\Microsoft Visual Studio\2022\Community\VC\Tools\MSVC\14.43.34808\include\xmemory
;	COMDAT ?deallocate@?$allocator@D@std@@QEAAXQEAD_K@Z
_TEXT	SEGMENT
this$ = 48
_Ptr$ = 56
_Count$ = 64
?deallocate@?$allocator@D@std@@QEAAXQEAD_K@Z PROC	; std::allocator<char>::deallocate, COMDAT

; 978  :     _CONSTEXPR20 void deallocate(_Ty* const _Ptr, const size_t _Count) noexcept /* strengthened */ {

$LN3:
	mov	QWORD PTR [rsp+24], r8
	mov	QWORD PTR [rsp+16], rdx
	mov	QWORD PTR [rsp+8], rcx
	sub	rsp, 40					; 00000028H

; 979  :         _STL_ASSERT(_Ptr != nullptr || _Count == 0, "null pointer cannot point to a block of non-zero size");
; 980  :         // no overflow check on the following multiply; we assume _Allocate did that check
; 981  :         _STD _Deallocate<_New_alignof<_Ty>>(_Ptr, sizeof(_Ty) * _Count);

	mov	rdx, QWORD PTR _Count$[rsp]
	mov	rcx, QWORD PTR _Ptr$[rsp]
	call	??$_Deallocate@$0BA@@std@@YAXPEAX_K@Z	; std::_Deallocate<16>
	npad	1

; 982  :     }

	add	rsp, 40					; 00000028H
	ret	0
?deallocate@?$allocator@D@std@@QEAAXQEAD_K@Z ENDP	; std::allocator<char>::deallocate
_TEXT	ENDS
; Function compile flags: /Odtp
; File C:\Program Files\Microsoft Visual Studio\2022\Community\VC\Tools\MSVC\14.43.34808\include\xmemory
;	COMDAT ?_Orphan_all@_Container_base0@std@@QEAAXXZ
_TEXT	SEGMENT
this$ = 8
?_Orphan_all@_Container_base0@std@@QEAAXXZ PROC		; std::_Container_base0::_Orphan_all, COMDAT

; 1180 :     _CONSTEXPR20 void _Orphan_all() noexcept {}

	mov	QWORD PTR [rsp+8], rcx
	ret	0
?_Orphan_all@_Container_base0@std@@QEAAXXZ ENDP		; std::_Container_base0::_Orphan_all
_TEXT	ENDS
; Function compile flags: /Odtp
; File C:\Program Files\Microsoft Visual Studio\2022\Community\VC\Tools\MSVC\14.43.34808\include\xmemory
;	COMDAT ?_Adjust_manually_vector_aligned@std@@YAXAEAPEAXAEA_K@Z
_TEXT	SEGMENT
_Back_shift$ = 32
_Ptr_container$ = 40
_Ptr_user$ = 48
_Min_back_shift$ = 56
_Ptr$ = 80
_Bytes$ = 88
?_Adjust_manually_vector_aligned@std@@YAXAEAPEAXAEA_K@Z PROC ; std::_Adjust_manually_vector_aligned, COMDAT

; 200  : inline void _Adjust_manually_vector_aligned(void*& _Ptr, size_t& _Bytes) {

$LN11:
	mov	QWORD PTR [rsp+16], rdx
	mov	QWORD PTR [rsp+8], rcx
	sub	rsp, 72					; 00000048H

; 201  :     // adjust parameters from _Allocate_manually_vector_aligned to pass to operator delete
; 202  :     _Bytes += _Non_user_size;

	mov	rax, QWORD PTR _Bytes$[rsp]
	mov	rax, QWORD PTR [rax]
	add	rax, 39					; 00000027H
	mov	rcx, QWORD PTR _Bytes$[rsp]
	mov	QWORD PTR [rcx], rax

; 203  : 
; 204  :     const uintptr_t* const _Ptr_user = static_cast<uintptr_t*>(_Ptr);

	mov	rax, QWORD PTR _Ptr$[rsp]
	mov	rax, QWORD PTR [rax]
	mov	QWORD PTR _Ptr_user$[rsp], rax

; 205  :     const uintptr_t _Ptr_container   = _Ptr_user[-1];

	mov	eax, 8
	imul	rax, rax, -1
	mov	rcx, QWORD PTR _Ptr_user$[rsp]
	mov	rax, QWORD PTR [rcx+rax]
	mov	QWORD PTR _Ptr_container$[rsp], rax

; 206  : 
; 207  :     // If the following asserts, it likely means that we are performing
; 208  :     // an aligned delete on memory coming from an unaligned allocation.
; 209  :     _STL_ASSERT(_Ptr_user[-2] == _Big_allocation_sentinel, "invalid argument");
; 210  : 
; 211  :     // Extra paranoia on aligned allocation/deallocation; ensure _Ptr_container is
; 212  :     // in range [_Min_back_shift, _Non_user_size]
; 213  : #ifdef _DEBUG
; 214  :     constexpr uintptr_t _Min_back_shift = 2 * sizeof(void*);
; 215  : #else // ^^^ defined(_DEBUG) / !defined(_DEBUG) vvv
; 216  :     constexpr uintptr_t _Min_back_shift = sizeof(void*);

	mov	QWORD PTR _Min_back_shift$[rsp], 8

; 217  : #endif // ^^^ !defined(_DEBUG) ^^^
; 218  :     const uintptr_t _Back_shift = reinterpret_cast<uintptr_t>(_Ptr) - _Ptr_container;

	mov	rax, QWORD PTR _Ptr$[rsp]
	mov	rcx, QWORD PTR _Ptr_container$[rsp]
	mov	rax, QWORD PTR [rax]
	sub	rax, rcx
	mov	QWORD PTR _Back_shift$[rsp], rax
$LN4@Adjust_man:

; 219  :     _STL_VERIFY(_Back_shift >= _Min_back_shift && _Back_shift <= _Non_user_size, "invalid argument");

	cmp	QWORD PTR _Back_shift$[rsp], 8
	jb	SHORT $LN8@Adjust_man
	cmp	QWORD PTR _Back_shift$[rsp], 39		; 00000027H
	ja	SHORT $LN8@Adjust_man
	jmp	SHORT $LN9@Adjust_man
$LN8@Adjust_man:
$LN7@Adjust_man:
	call	_invalid_parameter_noinfo_noreturn
	npad	1
	xor	eax, eax
	test	eax, eax
	jne	SHORT $LN7@Adjust_man
$LN9@Adjust_man:
	xor	eax, eax
	test	eax, eax
	jne	SHORT $LN4@Adjust_man

; 220  :     _Ptr = reinterpret_cast<void*>(_Ptr_container);

	mov	rax, QWORD PTR _Ptr$[rsp]
	mov	rcx, QWORD PTR _Ptr_container$[rsp]
	mov	QWORD PTR [rax], rcx
$LN10@Adjust_man:

; 221  : }

	add	rsp, 72					; 00000048H
	ret	0
?_Adjust_manually_vector_aligned@std@@YAXAEAPEAXAEA_K@Z ENDP ; std::_Adjust_manually_vector_aligned
_TEXT	ENDS
; Function compile flags: /Odtp
; File C:\Program Files\Microsoft Visual Studio\2022\Community\VC\Tools\MSVC\14.43.34808\include\__msvc_string_view.hpp
;	COMDAT ?assign@?$_Narrow_char_traits@DH@std@@SAXAEADAEBD@Z
_TEXT	SEGMENT
_Left$ = 8
_Right$ = 16
?assign@?$_Narrow_char_traits@DH@std@@SAXAEADAEBD@Z PROC ; std::_Narrow_char_traits<char,int>::assign, COMDAT

; 470  :     static _CONSTEXPR17 void assign(_Elem& _Left, const _Elem& _Right) noexcept {

	mov	QWORD PTR [rsp+16], rdx
	mov	QWORD PTR [rsp+8], rcx

; 471  : #if _HAS_CXX20
; 472  :         if (_STD is_constant_evaluated()) {
; 473  :             return _Primary_char_traits::assign(_Left, _Right);
; 474  :         }
; 475  : #endif // _HAS_CXX20
; 476  :         _Left = _Right;

	mov	rax, QWORD PTR _Left$[rsp]
	mov	rcx, QWORD PTR _Right$[rsp]
	movzx	ecx, BYTE PTR [rcx]
	mov	BYTE PTR [rax], cl

; 477  :     }

	ret	0
?assign@?$_Narrow_char_traits@DH@std@@SAXAEADAEBD@Z ENDP ; std::_Narrow_char_traits<char,int>::assign
_TEXT	ENDS
; Function compile flags: /Odtp
;	COMDAT ??_H@YAXPEAX_K1P6APEAX0@Z@Z
_TEXT	SEGMENT
tv66 = 32
tv70 = 40
__t$ = 64
__s$ = 72
__n$ = 80
__f$ = 88
??_H@YAXPEAX_K1P6APEAX0@Z@Z PROC			; `vector constructor iterator', COMDAT
$LN5:
	mov	QWORD PTR [rsp+32], r9
	mov	QWORD PTR [rsp+24], r8
	mov	QWORD PTR [rsp+16], rdx
	mov	QWORD PTR [rsp+8], rcx
	sub	rsp, 56					; 00000038H
$LN2@vector:
	mov	rax, QWORD PTR __n$[rsp]
	mov	QWORD PTR tv66[rsp], rax
	mov	rax, QWORD PTR __n$[rsp]
	dec	rax
	mov	QWORD PTR __n$[rsp], rax
	cmp	QWORD PTR tv66[rsp], 0
	jbe	SHORT $LN3@vector
	mov	rax, QWORD PTR __f$[rsp]
	mov	QWORD PTR tv70[rsp], rax
	mov	rcx, QWORD PTR __t$[rsp]
	call	QWORD PTR tv70[rsp]
	mov	rax, QWORD PTR __s$[rsp]
	mov	rcx, QWORD PTR __t$[rsp]
	add	rcx, rax
	mov	rax, rcx
	mov	QWORD PTR __t$[rsp], rax
	jmp	SHORT $LN2@vector
$LN3@vector:
	add	rsp, 56					; 00000038H
	ret	0
??_H@YAXPEAX_K1P6APEAX0@Z@Z ENDP			; `vector constructor iterator'
_TEXT	ENDS
END
