; Listing generated by Microsoft (R) Optimizing Compiler Version 19.43.34810.0 

include listing.inc

INCLUDELIB LIBCMT
INCLUDELIB OLDNAMES

PUBLIC	??_C@_06GLKGGCJO@LcOpen@			; `string'
PUBLIC	??_C@_06GJPHNGFG@LcRead@			; `string'
PUBLIC	??_C@_0O@CBBNAKKC@LcReadScatter@		; `string'
PUBLIC	??_C@_07MBHEMNEL@LcWrite@			; `string'
PUBLIC	??_C@_0P@DAJMPOFM@LcWriteScatter@		; `string'
PUBLIC	??_C@_0M@HBBFEIGD@LcGetOption@			; `string'
PUBLIC	??_C@_0M@FPFAGJPB@LcSetOption@			; `string'
PUBLIC	??_C@_09DCHLEDFD@LcCommand@			; `string'
PUBLIC	??_C@_03HPADHAHE@N?1A@				; `string'
PUBLIC	??_C@_03HDGGCCPD@X86@				; `string'
PUBLIC	??_C@_06IDLKBMKC@X86PAE@			; `string'
PUBLIC	??_C@_03ELMOGNHL@X64@				; `string'
PUBLIC	??_C@_05DKFIPBAL@ARM64@				; `string'
PUBLIC	??_C@_04PCJGBDOP@Zero@				; `string'
PUBLIC	??_C@_04HJMOFLDF@Free@				; `string'
PUBLIC	??_C@_07LNBDIIPN@Standby@			; `string'
PUBLIC	??_C@_07PFEKAJBJ@Modifiy@			; `string'
PUBLIC	??_C@_07DGKCKENG@ModNoWr@			; `string'
PUBLIC	??_C@_03KHCCLPOB@Bad@				; `string'
PUBLIC	??_C@_06MAFFGDO@Active@				; `string'
PUBLIC	??_C@_07KADDEKFE@Transit@			; `string'
PUBLIC	??_C@_01JOAMLHOP@?9@				; `string'
PUBLIC	??_C@_06CGLFEPBO@Unused@			; `string'
PUBLIC	??_C@_08LBAJPEDB@ProcPriv@			; `string'
PUBLIC	??_C@_09BGPMMIPE@PageTable@			; `string'
PUBLIC	??_C@_09MFCNICMF@LargePage@			; `string'
PUBLIC	??_C@_0L@DHBAIELD@DriverLock@			; `string'
PUBLIC	??_C@_09PKFILKGD@Shareable@			; `string'
PUBLIC	??_C@_04PBAHLACE@File@				; `string'
PUBLIC	_Avx2WmemEnabledWeakValue
PUBLIC	?GlobalFunctionBuffer@UEDecryptBuilder@SDK@Core@IronMan@@0PEAEEA ; IronMan::Core::SDK::UEDecryptBuilder::GlobalFunctionBuffer
PUBLIC	?BufferUsedSize@UEDecryptBuilder@SDK@Core@IronMan@@0_KA ; IronMan::Core::SDK::UEDecryptBuilder::BufferUsedSize
EXTRN	?x86RegData@asmjit@@3UX86RegData@1@B:BYTE	; asmjit::x86RegData
;	COMDAT _Avx2WmemEnabledWeakValue
_BSS	SEGMENT
_Avx2WmemEnabledWeakValue DD 01H DUP (?)
_BSS	ENDS
_BSS	SEGMENT
?GlobalFunctionBuffer@UEDecryptBuilder@SDK@Core@IronMan@@0PEAEEA DQ 01H DUP (?) ; IronMan::Core::SDK::UEDecryptBuilder::GlobalFunctionBuffer
_BSS	ENDS
_DATA	SEGMENT
?BufferUsedSize@UEDecryptBuilder@SDK@Core@IronMan@@0_KA DQ 0000000000000006H ; IronMan::Core::SDK::UEDecryptBuilder::BufferUsedSize
_DATA	ENDS
;	COMDAT ??_C@_04PBAHLACE@File@
CONST	SEGMENT
??_C@_04PBAHLACE@File@ DB 'File', 00H			; `string'
CONST	ENDS
;	COMDAT ??_C@_09PKFILKGD@Shareable@
CONST	SEGMENT
??_C@_09PKFILKGD@Shareable@ DB 'Shareable', 00H		; `string'
CONST	ENDS
;	COMDAT ??_C@_0L@DHBAIELD@DriverLock@
CONST	SEGMENT
??_C@_0L@DHBAIELD@DriverLock@ DB 'DriverLock', 00H	; `string'
CONST	ENDS
;	COMDAT ??_C@_09MFCNICMF@LargePage@
CONST	SEGMENT
??_C@_09MFCNICMF@LargePage@ DB 'LargePage', 00H		; `string'
CONST	ENDS
;	COMDAT ??_C@_09BGPMMIPE@PageTable@
CONST	SEGMENT
??_C@_09BGPMMIPE@PageTable@ DB 'PageTable', 00H		; `string'
CONST	ENDS
;	COMDAT ??_C@_08LBAJPEDB@ProcPriv@
CONST	SEGMENT
??_C@_08LBAJPEDB@ProcPriv@ DB 'ProcPriv', 00H		; `string'
CONST	ENDS
;	COMDAT ??_C@_06CGLFEPBO@Unused@
CONST	SEGMENT
??_C@_06CGLFEPBO@Unused@ DB 'Unused', 00H		; `string'
CONST	ENDS
;	COMDAT ??_C@_01JOAMLHOP@?9@
CONST	SEGMENT
??_C@_01JOAMLHOP@?9@ DB '-', 00H			; `string'
CONST	ENDS
;	COMDAT ??_C@_07KADDEKFE@Transit@
CONST	SEGMENT
??_C@_07KADDEKFE@Transit@ DB 'Transit', 00H		; `string'
CONST	ENDS
;	COMDAT ??_C@_06MAFFGDO@Active@
CONST	SEGMENT
??_C@_06MAFFGDO@Active@ DB 'Active', 00H		; `string'
CONST	ENDS
;	COMDAT ??_C@_03KHCCLPOB@Bad@
CONST	SEGMENT
??_C@_03KHCCLPOB@Bad@ DB 'Bad', 00H			; `string'
CONST	ENDS
;	COMDAT ??_C@_07DGKCKENG@ModNoWr@
CONST	SEGMENT
??_C@_07DGKCKENG@ModNoWr@ DB 'ModNoWr', 00H		; `string'
CONST	ENDS
;	COMDAT ??_C@_07PFEKAJBJ@Modifiy@
CONST	SEGMENT
??_C@_07PFEKAJBJ@Modifiy@ DB 'Modifiy', 00H		; `string'
CONST	ENDS
;	COMDAT ??_C@_07LNBDIIPN@Standby@
CONST	SEGMENT
??_C@_07LNBDIIPN@Standby@ DB 'Standby', 00H		; `string'
CONST	ENDS
;	COMDAT ??_C@_04HJMOFLDF@Free@
CONST	SEGMENT
??_C@_04HJMOFLDF@Free@ DB 'Free', 00H			; `string'
CONST	ENDS
;	COMDAT ??_C@_04PCJGBDOP@Zero@
CONST	SEGMENT
??_C@_04PCJGBDOP@Zero@ DB 'Zero', 00H			; `string'
CONST	ENDS
CONST	SEGMENT
?NoInit@asmjit@@3U_NoInit@1@B	ORG $+1			; asmjit::NoInit
CONST	ENDS
;	COMDAT ??_C@_05DKFIPBAL@ARM64@
CONST	SEGMENT
??_C@_05DKFIPBAL@ARM64@ DB 'ARM64', 00H			; `string'
CONST	ENDS
;	COMDAT ??_C@_03ELMOGNHL@X64@
CONST	SEGMENT
??_C@_03ELMOGNHL@X64@ DB 'X64', 00H			; `string'
CONST	ENDS
;	COMDAT ??_C@_06IDLKBMKC@X86PAE@
CONST	SEGMENT
??_C@_06IDLKBMKC@X86PAE@ DB 'X86PAE', 00H		; `string'
CONST	ENDS
;	COMDAT ??_C@_03HDGGCCPD@X86@
CONST	SEGMENT
??_C@_03HDGGCCPD@X86@ DB 'X86', 00H			; `string'
CONST	ENDS
;	COMDAT ??_C@_03HPADHAHE@N?1A@
CONST	SEGMENT
??_C@_03HPADHAHE@N?1A@ DB 'N/A', 00H			; `string'
CONST	ENDS
;	COMDAT ??_C@_09DCHLEDFD@LcCommand@
CONST	SEGMENT
??_C@_09DCHLEDFD@LcCommand@ DB 'LcCommand', 00H		; `string'
CONST	ENDS
;	COMDAT ??_C@_0M@FPFAGJPB@LcSetOption@
CONST	SEGMENT
??_C@_0M@FPFAGJPB@LcSetOption@ DB 'LcSetOption', 00H	; `string'
CONST	ENDS
;	COMDAT ??_C@_0M@HBBFEIGD@LcGetOption@
CONST	SEGMENT
??_C@_0M@HBBFEIGD@LcGetOption@ DB 'LcGetOption', 00H	; `string'
CONST	ENDS
;	COMDAT ??_C@_0P@DAJMPOFM@LcWriteScatter@
CONST	SEGMENT
??_C@_0P@DAJMPOFM@LcWriteScatter@ DB 'LcWriteScatter', 00H ; `string'
CONST	ENDS
;	COMDAT ??_C@_07MBHEMNEL@LcWrite@
CONST	SEGMENT
??_C@_07MBHEMNEL@LcWrite@ DB 'LcWrite', 00H		; `string'
CONST	ENDS
;	COMDAT ??_C@_0O@CBBNAKKC@LcReadScatter@
CONST	SEGMENT
??_C@_0O@CBBNAKKC@LcReadScatter@ DB 'LcReadScatter', 00H ; `string'
CONST	ENDS
;	COMDAT ??_C@_06GJPHNGFG@LcRead@
CONST	SEGMENT
??_C@_06GJPHNGFG@LcRead@ DB 'LcRead', 00H		; `string'
CONST	ENDS
;	COMDAT ??_C@_06GLKGGCJO@LcOpen@
CONST	SEGMENT
??_C@_06GLKGGCJO@LcOpen@ DB 'LcOpen', 00H		; `string'
CONST	ENDS
PUBLIC	??_H@YAXPEAX_K1P6APEAX0@Z@Z			; `vector constructor iterator'
PUBLIC	??2@YAPEAX_KPEAX@Z				; operator new
PUBLIC	?_Fnv1a_append_bytes@std@@YA_K_KQEBE_K@Z	; std::_Fnv1a_append_bytes
PUBLIC	?assign@?$_Narrow_char_traits@DH@std@@SAXAEADAEBD@Z ; std::_Narrow_char_traits<char,int>::assign
PUBLIC	??0exception@std@@QEAA@QEBDH@Z			; std::exception::exception
PUBLIC	??0exception@std@@QEAA@AEBV01@@Z		; std::exception::exception
PUBLIC	??1exception@std@@UEAA@XZ			; std::exception::~exception
PUBLIC	?what@exception@std@@UEBAPEBDXZ			; std::exception::what
PUBLIC	??_Gexception@std@@UEAAPEAXI@Z			; std::exception::`scalar deleting destructor'
PUBLIC	??0bad_alloc@std@@AEAA@QEBD@Z			; std::bad_alloc::bad_alloc
PUBLIC	??1bad_alloc@std@@UEAA@XZ			; std::bad_alloc::~bad_alloc
PUBLIC	??0bad_alloc@std@@QEAA@AEBV01@@Z		; std::bad_alloc::bad_alloc
PUBLIC	??_Gbad_alloc@std@@UEAAPEAXI@Z			; std::bad_alloc::`scalar deleting destructor'
PUBLIC	??0bad_array_new_length@std@@QEAA@XZ		; std::bad_array_new_length::bad_array_new_length
PUBLIC	??1bad_array_new_length@std@@UEAA@XZ		; std::bad_array_new_length::~bad_array_new_length
PUBLIC	??0bad_array_new_length@std@@QEAA@AEBV01@@Z	; std::bad_array_new_length::bad_array_new_length
PUBLIC	??_Gbad_array_new_length@std@@UEAAPEAXI@Z	; std::bad_array_new_length::`scalar deleting destructor'
PUBLIC	?_Throw_bad_array_new_length@std@@YAXXZ		; std::_Throw_bad_array_new_length
PUBLIC	?_Allocate@_Default_allocate_traits@std@@SAPEAX_K@Z ; std::_Default_allocate_traits::_Allocate
PUBLIC	?_Adjust_manually_vector_aligned@std@@YAXAEAPEAXAEA_K@Z ; std::_Adjust_manually_vector_aligned
PUBLIC	?_Orphan_all@_Container_base0@std@@QEAAXXZ	; std::_Container_base0::_Orphan_all
PUBLIC	?_Alloc_proxy@_Container_base0@std@@QEAAXAEBU_Fake_allocator@2@@Z ; std::_Container_base0::_Alloc_proxy
PUBLIC	?_Adopt@_Iterator_base0@std@@QEAAXPEBX@Z	; std::_Iterator_base0::_Adopt
PUBLIC	??0_Fake_proxy_ptr_impl@std@@QEAA@AEBU_Fake_allocator@1@AEBU_Container_base0@1@@Z ; std::_Fake_proxy_ptr_impl::_Fake_proxy_ptr_impl
PUBLIC	?_Release@_Fake_proxy_ptr_impl@std@@QEAAXXZ	; std::_Fake_proxy_ptr_impl::_Release
PUBLIC	??0?$tuple@$$V@std@@QEAA@AEBV01@@Z		; std::tuple<>::tuple<>
PUBLIC	?deallocate@?$allocator@D@std@@QEAAXQEAD_K@Z	; std::allocator<char>::deallocate
PUBLIC	?_Myptr@?$_String_val@U?$_Simple_types@D@std@@@std@@QEBAPEBDXZ ; std::_String_val<std::_Simple_types<char> >::_Myptr
PUBLIC	?_Large_mode_engaged@?$_String_val@U?$_Simple_types@D@std@@@std@@QEBA_NXZ ; std::_String_val<std::_Simple_types<char> >::_Large_mode_engaged
PUBLIC	??1_Bxty@?$_String_val@U?$_Simple_types@D@std@@@std@@QEAA@XZ ; std::_String_val<std::_Simple_types<char> >::_Bxty::~_Bxty
PUBLIC	?_Switch_to_buf@_Bxty@?$_String_val@U?$_Simple_types@D@std@@@std@@QEAAXXZ ; std::_String_val<std::_Simple_types<char> >::_Bxty::_Switch_to_buf
PUBLIC	??1?$_String_val@U?$_Simple_types@D@std@@@std@@QEAA@XZ ; std::_String_val<std::_Simple_types<char> >::~_String_val<std::_Simple_types<char> >
PUBLIC	?_Deallocate_for_capacity@?$basic_string@DU?$char_traits@D@std@@V?$allocator@D@2@@std@@CAXAEAV?$allocator@D@2@QEAD_K@Z ; std::basic_string<char,std::char_traits<char>,std::allocator<char> >::_Deallocate_for_capacity
PUBLIC	??1?$basic_string@DU?$char_traits@D@std@@V?$allocator@D@2@@std@@QEAA@XZ ; std::basic_string<char,std::char_traits<char>,std::allocator<char> >::~basic_string<char,std::char_traits<char>,std::allocator<char> >
PUBLIC	?c_str@?$basic_string@DU?$char_traits@D@std@@V?$allocator@D@2@@std@@QEBAPEBDXZ ; std::basic_string<char,std::char_traits<char>,std::allocator<char> >::c_str
PUBLIC	?_Tidy_deallocate@?$basic_string@DU?$char_traits@D@std@@V?$allocator@D@2@@std@@AEAAXXZ ; std::basic_string<char,std::char_traits<char>,std::allocator<char> >::_Tidy_deallocate
PUBLIC	?_Getal@?$basic_string@DU?$char_traits@D@std@@V?$allocator@D@2@@std@@AEAAAEAV?$allocator@D@2@XZ ; std::basic_string<char,std::char_traits<char>,std::allocator<char> >::_Getal
PUBLIC	?_Get_first@?$_Compressed_pair@V?$allocator@D@std@@V?$_String_val@U?$_Simple_types@D@std@@@2@$00@std@@QEAAAEAV?$allocator@D@2@XZ ; std::_Compressed_pair<std::allocator<char>,std::_String_val<std::_Simple_types<char> >,1>::_Get_first
PUBLIC	??1?$_Compressed_pair@V?$allocator@D@std@@V?$_String_val@U?$_Simple_types@D@std@@@2@$00@std@@QEAA@XZ ; std::_Compressed_pair<std::allocator<char>,std::_String_val<std::_Simple_types<char> >,1>::~_Compressed_pair<std::allocator<char>,std::_String_val<std::_Simple_types<char> >,1>
PUBLIC	?_Floor_of_log_2@std@@YAK_K@Z			; std::_Floor_of_log_2
PUBLIC	?_Ceiling_of_log_2@std@@YAK_K@Z			; std::_Ceiling_of_log_2
PUBLIC	??$min@_K@std@@YAAEB_KAEB_K0@Z			; std::min<unsigned __int64>
PUBLIC	??0WSInit@detail@httplib@@QEAA@XZ		; httplib::detail::WSInit::WSInit
PUBLIC	??1WSInit@detail@httplib@@QEAA@XZ		; httplib::detail::WSInit::~WSInit
PUBLIC	??0SSLInit@detail@httplib@@QEAA@XZ		; httplib::detail::SSLInit::SSLInit
PUBLIC	?int_@X86Assembler@asmjit@@QEAAIH@Z		; asmjit::X86Assembler::int_
PUBLIC	?int3@X86Assembler@asmjit@@QEAAIXZ		; asmjit::X86Assembler::int3
PUBLIC	??CIAsmHelper@IronMan@@QEAAPEAUX86Assembler@asmjit@@XZ ; IronMan::IAsmHelper::operator->
PUBLIC	??D?$unique_ptr@VIAsmHelper@IronMan@@U?$default_delete@VIAsmHelper@IronMan@@@std@@@std@@QEBAAEAVIAsmHelper@IronMan@@XZ ; std::unique_ptr<IronMan::IAsmHelper,std::default_delete<IronMan::IAsmHelper> >::operator*
PUBLIC	?GetDecryptFunctions@AnalysisBase@Analysis@IronMan@@QEBAAEBV?$vector@V?$unique_ptr@VIAsmHelper@IronMan@@U?$default_delete@VIAsmHelper@IronMan@@@std@@@std@@V?$allocator@V?$unique_ptr@VIAsmHelper@IronMan@@U?$default_delete@VIAsmHelper@IronMan@@@std@@@std@@@2@@std@@XZ ; IronMan::Analysis::AnalysisBase::GetDecryptFunctions
PUBLIC	?size@?$vector@V?$unique_ptr@VIAsmHelper@IronMan@@U?$default_delete@VIAsmHelper@IronMan@@@std@@@std@@V?$allocator@V?$unique_ptr@VIAsmHelper@IronMan@@U?$default_delete@VIAsmHelper@IronMan@@@std@@@std@@@2@@std@@QEBA_KXZ ; std::vector<std::unique_ptr<IronMan::IAsmHelper,std::default_delete<IronMan::IAsmHelper> >,std::allocator<std::unique_ptr<IronMan::IAsmHelper,std::default_delete<IronMan::IAsmHelper> > > >::size
PUBLIC	??A?$vector@V?$unique_ptr@VIAsmHelper@IronMan@@U?$default_delete@VIAsmHelper@IronMan@@@std@@@std@@V?$allocator@V?$unique_ptr@VIAsmHelper@IronMan@@U?$default_delete@VIAsmHelper@IronMan@@@std@@@std@@@2@@std@@QEBAAEBV?$unique_ptr@VIAsmHelper@IronMan@@U?$default_delete@VIAsmHelper@IronMan@@@std@@@1@_K@Z ; std::vector<std::unique_ptr<IronMan::IAsmHelper,std::default_delete<IronMan::IAsmHelper> >,std::allocator<std::unique_ptr<IronMan::IAsmHelper,std::default_delete<IronMan::IAsmHelper> > > >::operator[]
PUBLIC	??0?$_Func_class@XPEAX@std@@QEAA@XZ		; std::_Func_class<void,void *>::_Func_class<void,void *>
PUBLIC	??1?$_Func_class@XPEAX@std@@QEAA@XZ		; std::_Func_class<void,void *>::~_Func_class<void,void *>
PUBLIC	?_Empty@?$_Func_class@XPEAX@std@@IEBA_NXZ	; std::_Func_class<void,void *>::_Empty
PUBLIC	?_Reset_copy@?$_Func_class@XPEAX@std@@IEAAXAEBV12@@Z ; std::_Func_class<void,void *>::_Reset_copy
PUBLIC	?_Tidy@?$_Func_class@XPEAX@std@@IEAAXXZ		; std::_Func_class<void,void *>::_Tidy
PUBLIC	?_Local@?$_Func_class@XPEAX@std@@AEBA_NXZ	; std::_Func_class<void,void *>::_Local
PUBLIC	?_Getimpl@?$_Func_class@XPEAX@std@@AEBAPEAV?$_Func_base@XPEAX@2@XZ ; std::_Func_class<void,void *>::_Getimpl
PUBLIC	?_Set@?$_Func_class@XPEAX@std@@AEAAXPEAV?$_Func_base@XPEAX@2@@Z ; std::_Func_class<void,void *>::_Set
PUBLIC	??0?$function@$$A6AXPEAX@Z@std@@QEAA@$$T@Z	; std::function<void __cdecl(void *)>::function<void __cdecl(void *)>
PUBLIC	??0?$function@$$A6AXPEAX@Z@std@@QEAA@AEBV01@@Z	; std::function<void __cdecl(void *)>::function<void __cdecl(void *)>
PUBLIC	??1?$function@$$A6AXPEAX@Z@std@@QEAA@XZ		; std::function<void __cdecl(void *)>::~function<void __cdecl(void *)>
PUBLIC	?Initialize@UEDecryptBuilder@SDK@Core@IronMan@@SA_NXZ ; IronMan::Core::SDK::UEDecryptBuilder::Initialize
PUBLIC	?SetExchange@UEDecryptBuilder@SDK@Core@IronMan@@SA_NXZ ; IronMan::Core::SDK::UEDecryptBuilder::SetExchange
PUBLIC	??0UEDecryptBuilder@SDK@Core@IronMan@@QEAA@_KHW4BuildType@123@V?$function@$$A6AXPEAX@Z@std@@@Z ; IronMan::Core::SDK::UEDecryptBuilder::UEDecryptBuilder
PUBLIC	??1UEDecryptBuilder@SDK@Core@IronMan@@QEAA@XZ	; IronMan::Core::SDK::UEDecryptBuilder::~UEDecryptBuilder
PUBLIC	??_GUEDecryptBuilder@SDK@Core@IronMan@@QEAAPEAXI@Z ; IronMan::Core::SDK::UEDecryptBuilder::`scalar deleting destructor'
PUBLIC	??0?$_Uhash_compare@W4DecryptFunc@SDK@Core@IronMan@@U?$hash@W4DecryptFunc@SDK@Core@IronMan@@@std@@U?$equal_to@W4DecryptFunc@SDK@Core@IronMan@@@6@@std@@QEAA@XZ ; std::_Uhash_compare<enum IronMan::Core::SDK::DecryptFunc,std::hash<enum IronMan::Core::SDK::DecryptFunc>,std::equal_to<enum IronMan::Core::SDK::DecryptFunc> >::_Uhash_compare<enum IronMan::Core::SDK::DecryptFunc,std::hash<enum IronMan::Core::SDK::DecryptFunc>,std::equal_to<enum IronMan::Core::SDK::DecryptFunc> >
PUBLIC	?_Get_max_bucket_size@?$_Uhash_compare@W4DecryptFunc@SDK@Core@IronMan@@U?$hash@W4DecryptFunc@SDK@Core@IronMan@@@std@@U?$equal_to@W4DecryptFunc@SDK@Core@IronMan@@@6@@std@@QEAAAEAMXZ ; std::_Uhash_compare<enum IronMan::Core::SDK::DecryptFunc,std::hash<enum IronMan::Core::SDK::DecryptFunc>,std::equal_to<enum IronMan::Core::SDK::DecryptFunc> >::_Get_max_bucket_size
PUBLIC	?_Get_max_bucket_size@?$_Uhash_compare@W4DecryptFunc@SDK@Core@IronMan@@U?$hash@W4DecryptFunc@SDK@Core@IronMan@@@std@@U?$equal_to@W4DecryptFunc@SDK@Core@IronMan@@@6@@std@@QEBAAEBMXZ ; std::_Uhash_compare<enum IronMan::Core::SDK::DecryptFunc,std::hash<enum IronMan::Core::SDK::DecryptFunc>,std::equal_to<enum IronMan::Core::SDK::DecryptFunc> >::_Get_max_bucket_size
PUBLIC	??R?$equal_to@W4DecryptFunc@SDK@Core@IronMan@@@std@@QEBA_NAEBW4DecryptFunc@SDK@Core@IronMan@@0@Z ; std::equal_to<enum IronMan::Core::SDK::DecryptFunc>::operator()
PUBLIC	??R?$_Conditionally_enabled_hash@W4DecryptFunc@SDK@Core@IronMan@@$00@std@@QEBA_KAEBW4DecryptFunc@SDK@Core@IronMan@@@Z ; std::_Conditionally_enabled_hash<enum IronMan::Core::SDK::DecryptFunc,1>::operator()
PUBLIC	?_Do_hash@?$hash@W4DecryptFunc@SDK@Core@IronMan@@@std@@SA_KAEBW4DecryptFunc@SDK@Core@IronMan@@@Z ; std::hash<enum IronMan::Core::SDK::DecryptFunc>::_Do_hash
PUBLIC	?_Get_first@?$_Compressed_pair@U?$equal_to@W4DecryptFunc@SDK@Core@IronMan@@@std@@M$00@std@@QEBAAEBU?$equal_to@W4DecryptFunc@SDK@Core@IronMan@@@2@XZ ; std::_Compressed_pair<std::equal_to<enum IronMan::Core::SDK::DecryptFunc>,float,1>::_Get_first
PUBLIC	?_Get_first@?$_Compressed_pair@U?$hash@W4DecryptFunc@SDK@Core@IronMan@@@std@@V?$_Compressed_pair@U?$equal_to@W4DecryptFunc@SDK@Core@IronMan@@@std@@M$00@2@$00@std@@QEBAAEBU?$hash@W4DecryptFunc@SDK@Core@IronMan@@@2@XZ ; std::_Compressed_pair<std::hash<enum IronMan::Core::SDK::DecryptFunc>,std::_Compressed_pair<std::equal_to<enum IronMan::Core::SDK::DecryptFunc>,float,1>,1>::_Get_first
PUBLIC	??0?$allocator@U?$pair@$$CBW4DecryptFunc@SDK@Core@IronMan@@V?$unique_ptr@VUEDecryptBuilder@SDK@Core@IronMan@@U?$default_delete@VUEDecryptBuilder@SDK@Core@IronMan@@@std@@@std@@@std@@@std@@QEAA@XZ ; std::allocator<std::pair<enum IronMan::Core::SDK::DecryptFunc const ,std::unique_ptr<IronMan::Core::SDK::UEDecryptBuilder,std::default_delete<IronMan::Core::SDK::UEDecryptBuilder> > > >::allocator<std::pair<enum IronMan::Core::SDK::DecryptFunc const ,std::unique_ptr<IronMan::Core::SDK::UEDecryptBuilder,std::default_delete<IronMan::Core::SDK::UEDecryptBuilder> > > >
PUBLIC	??0?$_Umap_traits@W4DecryptFunc@SDK@Core@IronMan@@V?$unique_ptr@VUEDecryptBuilder@SDK@Core@IronMan@@U?$default_delete@VUEDecryptBuilder@SDK@Core@IronMan@@@std@@@std@@V?$_Uhash_compare@W4DecryptFunc@SDK@Core@IronMan@@U?$hash@W4DecryptFunc@SDK@Core@IronMan@@@std@@U?$equal_to@W4DecryptFunc@SDK@Core@IronMan@@@6@@6@V?$allocator@U?$pair@$$CBW4DecryptFunc@SDK@Core@IronMan@@V?$unique_ptr@VUEDecryptBuilder@SDK@Core@IronMan@@U?$default_delete@VUEDecryptBuilder@SDK@Core@IronMan@@@std@@@std@@@std@@@6@$0A@@std@@QEAA@AEBV?$_Uhash_compare@W4DecryptFunc@SDK@Core@IronMan@@U?$hash@W4DecryptFunc@SDK@Core@IronMan@@@std@@U?$equal_to@W4DecryptFunc@SDK@Core@IronMan@@@6@@1@@Z ; std::_Umap_traits<enum IronMan::Core::SDK::DecryptFunc,std::unique_ptr<IronMan::Core::SDK::UEDecryptBuilder,std::default_delete<IronMan::Core::SDK::UEDecryptBuilder> >,std::_Uhash_compare<enum IronMan::Core::SDK::DecryptFunc,std::hash<enum IronMan::Core::SDK::DecryptFunc>,std::equal_to<enum IronMan::Core::SDK::DecryptFunc> >,std::allocator<std::pair<enum IronMan::Core::SDK::DecryptFunc const ,std::unique_ptr<IronMan::Core::SDK::UEDecryptBuilder,std::default_delete<IronMan::Core::SDK::UEDecryptBuilder> > > >,0>::_Umap_traits<enum IronMan::Core::SDK::DecryptFunc,std::unique_ptr<IronMan::Core::SDK::UEDecryptBuilder,std::default_delete<IronMan::Core::SDK::UEDecryptBuilder> >,std::_Uhash_compare<enum IronMan::Core::SDK::DecryptFunc,std::hash<enum IronMan::Core::SDK::DecryptFunc>,std::equal_to<enum IronMan::Core::SDK::DecryptFunc> >,std::allocator<std::pair<enum IronMan::Core::SDK::DecryptFunc const ,std::unique_ptr<IronMan::Core::SDK::UEDecryptBuilder,std::default_delete<IronMan::Core::SDK::UEDecryptBuilder> > > >,0>
PUBLIC	?deallocate@?$allocator@U?$_List_node@U?$pair@$$CBW4DecryptFunc@SDK@Core@IronMan@@V?$unique_ptr@VUEDecryptBuilder@SDK@Core@IronMan@@U?$default_delete@VUEDecryptBuilder@SDK@Core@IronMan@@@std@@@std@@@std@@PEAX@std@@@std@@QEAAXQEAU?$_List_node@U?$pair@$$CBW4DecryptFunc@SDK@Core@IronMan@@V?$unique_ptr@VUEDecryptBuilder@SDK@Core@IronMan@@U?$default_delete@VUEDecryptBuilder@SDK@Core@IronMan@@@std@@@std@@@std@@PEAX@2@_K@Z ; std::allocator<std::_List_node<std::pair<enum IronMan::Core::SDK::DecryptFunc const ,std::unique_ptr<IronMan::Core::SDK::UEDecryptBuilder,std::default_delete<IronMan::Core::SDK::UEDecryptBuilder> > >,void *> >::deallocate
PUBLIC	?allocate@?$allocator@U?$_List_node@U?$pair@$$CBW4DecryptFunc@SDK@Core@IronMan@@V?$unique_ptr@VUEDecryptBuilder@SDK@Core@IronMan@@U?$default_delete@VUEDecryptBuilder@SDK@Core@IronMan@@@std@@@std@@@std@@PEAX@std@@@std@@QEAAPEAU?$_List_node@U?$pair@$$CBW4DecryptFunc@SDK@Core@IronMan@@V?$unique_ptr@VUEDecryptBuilder@SDK@Core@IronMan@@U?$default_delete@VUEDecryptBuilder@SDK@Core@IronMan@@@std@@@std@@@std@@PEAX@2@_K@Z ; std::allocator<std::_List_node<std::pair<enum IronMan::Core::SDK::DecryptFunc const ,std::unique_ptr<IronMan::Core::SDK::UEDecryptBuilder,std::default_delete<IronMan::Core::SDK::UEDecryptBuilder> > >,void *> >::allocate
PUBLIC	?deallocate@?$_Default_allocator_traits@V?$allocator@U?$_List_node@U?$pair@$$CBW4DecryptFunc@SDK@Core@IronMan@@V?$unique_ptr@VUEDecryptBuilder@SDK@Core@IronMan@@U?$default_delete@VUEDecryptBuilder@SDK@Core@IronMan@@@std@@@std@@@std@@PEAX@std@@@std@@@std@@SAXAEAV?$allocator@U?$_List_node@U?$pair@$$CBW4DecryptFunc@SDK@Core@IronMan@@V?$unique_ptr@VUEDecryptBuilder@SDK@Core@IronMan@@U?$default_delete@VUEDecryptBuilder@SDK@Core@IronMan@@@std@@@std@@@std@@PEAX@std@@@2@QEAU?$_List_node@U?$pair@$$CBW4DecryptFunc@SDK@Core@IronMan@@V?$unique_ptr@VUEDecryptBuilder@SDK@Core@IronMan@@U?$default_delete@VUEDecryptBuilder@SDK@Core@IronMan@@@std@@@std@@@std@@PEAX@2@_K@Z ; std::_Default_allocator_traits<std::allocator<std::_List_node<std::pair<enum IronMan::Core::SDK::DecryptFunc const ,std::unique_ptr<IronMan::Core::SDK::UEDecryptBuilder,std::default_delete<IronMan::Core::SDK::UEDecryptBuilder> > >,void *> > >::deallocate
PUBLIC	?max_size@?$_Default_allocator_traits@V?$allocator@U?$_List_node@U?$pair@$$CBW4DecryptFunc@SDK@Core@IronMan@@V?$unique_ptr@VUEDecryptBuilder@SDK@Core@IronMan@@U?$default_delete@VUEDecryptBuilder@SDK@Core@IronMan@@@std@@@std@@@std@@PEAX@std@@@std@@@std@@SA_KAEBV?$allocator@U?$_List_node@U?$pair@$$CBW4DecryptFunc@SDK@Core@IronMan@@V?$unique_ptr@VUEDecryptBuilder@SDK@Core@IronMan@@U?$default_delete@VUEDecryptBuilder@SDK@Core@IronMan@@@std@@@std@@@std@@PEAX@std@@@2@@Z ; std::_Default_allocator_traits<std::allocator<std::_List_node<std::pair<enum IronMan::Core::SDK::DecryptFunc const ,std::unique_ptr<IronMan::Core::SDK::UEDecryptBuilder,std::default_delete<IronMan::Core::SDK::UEDecryptBuilder> > >,void *> > >::max_size
PUBLIC	??0?$list@U?$pair@$$CBW4DecryptFunc@SDK@Core@IronMan@@V?$unique_ptr@VUEDecryptBuilder@SDK@Core@IronMan@@U?$default_delete@VUEDecryptBuilder@SDK@Core@IronMan@@@std@@@std@@@std@@V?$allocator@U?$pair@$$CBW4DecryptFunc@SDK@Core@IronMan@@V?$unique_ptr@VUEDecryptBuilder@SDK@Core@IronMan@@U?$default_delete@VUEDecryptBuilder@SDK@Core@IronMan@@@std@@@std@@@std@@@2@@std@@QEAA@AEBV?$allocator@U?$pair@$$CBW4DecryptFunc@SDK@Core@IronMan@@V?$unique_ptr@VUEDecryptBuilder@SDK@Core@IronMan@@U?$default_delete@VUEDecryptBuilder@SDK@Core@IronMan@@@std@@@std@@@std@@@1@@Z ; std::list<std::pair<enum IronMan::Core::SDK::DecryptFunc const ,std::unique_ptr<IronMan::Core::SDK::UEDecryptBuilder,std::default_delete<IronMan::Core::SDK::UEDecryptBuilder> > >,std::allocator<std::pair<enum IronMan::Core::SDK::DecryptFunc const ,std::unique_ptr<IronMan::Core::SDK::UEDecryptBuilder,std::default_delete<IronMan::Core::SDK::UEDecryptBuilder> > > > >::list<std::pair<enum IronMan::Core::SDK::DecryptFunc const ,std::unique_ptr<IronMan::Core::SDK::UEDecryptBuilder,std::default_delete<IronMan::Core::SDK::UEDecryptBuilder> > >,std::allocator<std::pair<enum IronMan::Core::SDK::DecryptFunc const ,std::unique_ptr<IronMan::Core::SDK::UEDecryptBuilder,std::default_delete<IronMan::Core::SDK::UEDecryptBuilder> > > > >
PUBLIC	??1?$list@U?$pair@$$CBW4DecryptFunc@SDK@Core@IronMan@@V?$unique_ptr@VUEDecryptBuilder@SDK@Core@IronMan@@U?$default_delete@VUEDecryptBuilder@SDK@Core@IronMan@@@std@@@std@@@std@@V?$allocator@U?$pair@$$CBW4DecryptFunc@SDK@Core@IronMan@@V?$unique_ptr@VUEDecryptBuilder@SDK@Core@IronMan@@U?$default_delete@VUEDecryptBuilder@SDK@Core@IronMan@@@std@@@std@@@std@@@2@@std@@QEAA@XZ ; std::list<std::pair<enum IronMan::Core::SDK::DecryptFunc const ,std::unique_ptr<IronMan::Core::SDK::UEDecryptBuilder,std::default_delete<IronMan::Core::SDK::UEDecryptBuilder> > >,std::allocator<std::pair<enum IronMan::Core::SDK::DecryptFunc const ,std::unique_ptr<IronMan::Core::SDK::UEDecryptBuilder,std::default_delete<IronMan::Core::SDK::UEDecryptBuilder> > > > >::~list<std::pair<enum IronMan::Core::SDK::DecryptFunc const ,std::unique_ptr<IronMan::Core::SDK::UEDecryptBuilder,std::default_delete<IronMan::Core::SDK::UEDecryptBuilder> > >,std::allocator<std::pair<enum IronMan::Core::SDK::DecryptFunc const ,std::unique_ptr<IronMan::Core::SDK::UEDecryptBuilder,std::default_delete<IronMan::Core::SDK::UEDecryptBuilder> > > > >
PUBLIC	?_Unchecked_begin@?$list@U?$pair@$$CBW4DecryptFunc@SDK@Core@IronMan@@V?$unique_ptr@VUEDecryptBuilder@SDK@Core@IronMan@@U?$default_delete@VUEDecryptBuilder@SDK@Core@IronMan@@@std@@@std@@@std@@V?$allocator@U?$pair@$$CBW4DecryptFunc@SDK@Core@IronMan@@V?$unique_ptr@VUEDecryptBuilder@SDK@Core@IronMan@@U?$default_delete@VUEDecryptBuilder@SDK@Core@IronMan@@@std@@@std@@@std@@@2@@std@@QEAA?AV?$_List_unchecked_iterator@V?$_List_val@U?$_List_simple_types@U?$pair@$$CBW4DecryptFunc@SDK@Core@IronMan@@V?$unique_ptr@VUEDecryptBuilder@SDK@Core@IronMan@@U?$default_delete@VUEDecryptBuilder@SDK@Core@IronMan@@@std@@@std@@@std@@@std@@@std@@@2@XZ ; std::list<std::pair<enum IronMan::Core::SDK::DecryptFunc const ,std::unique_ptr<IronMan::Core::SDK::UEDecryptBuilder,std::default_delete<IronMan::Core::SDK::UEDecryptBuilder> > >,std::allocator<std::pair<enum IronMan::Core::SDK::DecryptFunc const ,std::unique_ptr<IronMan::Core::SDK::UEDecryptBuilder,std::default_delete<IronMan::Core::SDK::UEDecryptBuilder> > > > >::_Unchecked_begin
PUBLIC	?_Unchecked_end@?$list@U?$pair@$$CBW4DecryptFunc@SDK@Core@IronMan@@V?$unique_ptr@VUEDecryptBuilder@SDK@Core@IronMan@@U?$default_delete@VUEDecryptBuilder@SDK@Core@IronMan@@@std@@@std@@@std@@V?$allocator@U?$pair@$$CBW4DecryptFunc@SDK@Core@IronMan@@V?$unique_ptr@VUEDecryptBuilder@SDK@Core@IronMan@@U?$default_delete@VUEDecryptBuilder@SDK@Core@IronMan@@@std@@@std@@@std@@@2@@std@@QEAA?AV?$_List_unchecked_iterator@V?$_List_val@U?$_List_simple_types@U?$pair@$$CBW4DecryptFunc@SDK@Core@IronMan@@V?$unique_ptr@VUEDecryptBuilder@SDK@Core@IronMan@@U?$default_delete@VUEDecryptBuilder@SDK@Core@IronMan@@@std@@@std@@@std@@@std@@@std@@@2@XZ ; std::list<std::pair<enum IronMan::Core::SDK::DecryptFunc const ,std::unique_ptr<IronMan::Core::SDK::UEDecryptBuilder,std::default_delete<IronMan::Core::SDK::UEDecryptBuilder> > >,std::allocator<std::pair<enum IronMan::Core::SDK::DecryptFunc const ,std::unique_ptr<IronMan::Core::SDK::UEDecryptBuilder,std::default_delete<IronMan::Core::SDK::UEDecryptBuilder> > > > >::_Unchecked_end
PUBLIC	?_Make_iter@?$list@U?$pair@$$CBW4DecryptFunc@SDK@Core@IronMan@@V?$unique_ptr@VUEDecryptBuilder@SDK@Core@IronMan@@U?$default_delete@VUEDecryptBuilder@SDK@Core@IronMan@@@std@@@std@@@std@@V?$allocator@U?$pair@$$CBW4DecryptFunc@SDK@Core@IronMan@@V?$unique_ptr@VUEDecryptBuilder@SDK@Core@IronMan@@U?$default_delete@VUEDecryptBuilder@SDK@Core@IronMan@@@std@@@std@@@std@@@2@@std@@QEBA?AV?$_List_iterator@V?$_List_val@U?$_List_simple_types@U?$pair@$$CBW4DecryptFunc@SDK@Core@IronMan@@V?$unique_ptr@VUEDecryptBuilder@SDK@Core@IronMan@@U?$default_delete@VUEDecryptBuilder@SDK@Core@IronMan@@@std@@@std@@@std@@@std@@@std@@@2@PEAU?$_List_node@U?$pair@$$CBW4DecryptFunc@SDK@Core@IronMan@@V?$unique_ptr@VUEDecryptBuilder@SDK@Core@IronMan@@U?$default_delete@VUEDecryptBuilder@SDK@Core@IronMan@@@std@@@std@@@std@@PEAX@2@@Z ; std::list<std::pair<enum IronMan::Core::SDK::DecryptFunc const ,std::unique_ptr<IronMan::Core::SDK::UEDecryptBuilder,std::default_delete<IronMan::Core::SDK::UEDecryptBuilder> > >,std::allocator<std::pair<enum IronMan::Core::SDK::DecryptFunc const ,std::unique_ptr<IronMan::Core::SDK::UEDecryptBuilder,std::default_delete<IronMan::Core::SDK::UEDecryptBuilder> > > > >::_Make_iter
PUBLIC	?max_size@?$list@U?$pair@$$CBW4DecryptFunc@SDK@Core@IronMan@@V?$unique_ptr@VUEDecryptBuilder@SDK@Core@IronMan@@U?$default_delete@VUEDecryptBuilder@SDK@Core@IronMan@@@std@@@std@@@std@@V?$allocator@U?$pair@$$CBW4DecryptFunc@SDK@Core@IronMan@@V?$unique_ptr@VUEDecryptBuilder@SDK@Core@IronMan@@U?$default_delete@VUEDecryptBuilder@SDK@Core@IronMan@@@std@@@std@@@std@@@2@@std@@QEBA_KXZ ; std::list<std::pair<enum IronMan::Core::SDK::DecryptFunc const ,std::unique_ptr<IronMan::Core::SDK::UEDecryptBuilder,std::default_delete<IronMan::Core::SDK::UEDecryptBuilder> > >,std::allocator<std::pair<enum IronMan::Core::SDK::DecryptFunc const ,std::unique_ptr<IronMan::Core::SDK::UEDecryptBuilder,std::default_delete<IronMan::Core::SDK::UEDecryptBuilder> > > > >::max_size
PUBLIC	?clear@?$list@U?$pair@$$CBW4DecryptFunc@SDK@Core@IronMan@@V?$unique_ptr@VUEDecryptBuilder@SDK@Core@IronMan@@U?$default_delete@VUEDecryptBuilder@SDK@Core@IronMan@@@std@@@std@@@std@@V?$allocator@U?$pair@$$CBW4DecryptFunc@SDK@Core@IronMan@@V?$unique_ptr@VUEDecryptBuilder@SDK@Core@IronMan@@U?$default_delete@VUEDecryptBuilder@SDK@Core@IronMan@@@std@@@std@@@std@@@2@@std@@QEAAXXZ ; std::list<std::pair<enum IronMan::Core::SDK::DecryptFunc const ,std::unique_ptr<IronMan::Core::SDK::UEDecryptBuilder,std::default_delete<IronMan::Core::SDK::UEDecryptBuilder> > >,std::allocator<std::pair<enum IronMan::Core::SDK::DecryptFunc const ,std::unique_ptr<IronMan::Core::SDK::UEDecryptBuilder,std::default_delete<IronMan::Core::SDK::UEDecryptBuilder> > > > >::clear
PUBLIC	?_Tidy@?$list@U?$pair@$$CBW4DecryptFunc@SDK@Core@IronMan@@V?$unique_ptr@VUEDecryptBuilder@SDK@Core@IronMan@@U?$default_delete@VUEDecryptBuilder@SDK@Core@IronMan@@@std@@@std@@@std@@V?$allocator@U?$pair@$$CBW4DecryptFunc@SDK@Core@IronMan@@V?$unique_ptr@VUEDecryptBuilder@SDK@Core@IronMan@@U?$default_delete@VUEDecryptBuilder@SDK@Core@IronMan@@@std@@@std@@@std@@@2@@std@@AEAAXXZ ; std::list<std::pair<enum IronMan::Core::SDK::DecryptFunc const ,std::unique_ptr<IronMan::Core::SDK::UEDecryptBuilder,std::default_delete<IronMan::Core::SDK::UEDecryptBuilder> > >,std::allocator<std::pair<enum IronMan::Core::SDK::DecryptFunc const ,std::unique_ptr<IronMan::Core::SDK::UEDecryptBuilder,std::default_delete<IronMan::Core::SDK::UEDecryptBuilder> > > > >::_Tidy
PUBLIC	?_Alloc_sentinel_and_proxy@?$list@U?$pair@$$CBW4DecryptFunc@SDK@Core@IronMan@@V?$unique_ptr@VUEDecryptBuilder@SDK@Core@IronMan@@U?$default_delete@VUEDecryptBuilder@SDK@Core@IronMan@@@std@@@std@@@std@@V?$allocator@U?$pair@$$CBW4DecryptFunc@SDK@Core@IronMan@@V?$unique_ptr@VUEDecryptBuilder@SDK@Core@IronMan@@U?$default_delete@VUEDecryptBuilder@SDK@Core@IronMan@@@std@@@std@@@std@@@2@@std@@AEAAXXZ ; std::list<std::pair<enum IronMan::Core::SDK::DecryptFunc const ,std::unique_ptr<IronMan::Core::SDK::UEDecryptBuilder,std::default_delete<IronMan::Core::SDK::UEDecryptBuilder> > >,std::allocator<std::pair<enum IronMan::Core::SDK::DecryptFunc const ,std::unique_ptr<IronMan::Core::SDK::UEDecryptBuilder,std::default_delete<IronMan::Core::SDK::UEDecryptBuilder> > > > >::_Alloc_sentinel_and_proxy
PUBLIC	?_Getal@?$list@U?$pair@$$CBW4DecryptFunc@SDK@Core@IronMan@@V?$unique_ptr@VUEDecryptBuilder@SDK@Core@IronMan@@U?$default_delete@VUEDecryptBuilder@SDK@Core@IronMan@@@std@@@std@@@std@@V?$allocator@U?$pair@$$CBW4DecryptFunc@SDK@Core@IronMan@@V?$unique_ptr@VUEDecryptBuilder@SDK@Core@IronMan@@U?$default_delete@VUEDecryptBuilder@SDK@Core@IronMan@@@std@@@std@@@std@@@2@@std@@AEAAAEAV?$allocator@U?$_List_node@U?$pair@$$CBW4DecryptFunc@SDK@Core@IronMan@@V?$unique_ptr@VUEDecryptBuilder@SDK@Core@IronMan@@U?$default_delete@VUEDecryptBuilder@SDK@Core@IronMan@@@std@@@std@@@std@@PEAX@std@@@2@XZ ; std::list<std::pair<enum IronMan::Core::SDK::DecryptFunc const ,std::unique_ptr<IronMan::Core::SDK::UEDecryptBuilder,std::default_delete<IronMan::Core::SDK::UEDecryptBuilder> > >,std::allocator<std::pair<enum IronMan::Core::SDK::DecryptFunc const ,std::unique_ptr<IronMan::Core::SDK::UEDecryptBuilder,std::default_delete<IronMan::Core::SDK::UEDecryptBuilder> > > > >::_Getal
PUBLIC	?_Getal@?$list@U?$pair@$$CBW4DecryptFunc@SDK@Core@IronMan@@V?$unique_ptr@VUEDecryptBuilder@SDK@Core@IronMan@@U?$default_delete@VUEDecryptBuilder@SDK@Core@IronMan@@@std@@@std@@@std@@V?$allocator@U?$pair@$$CBW4DecryptFunc@SDK@Core@IronMan@@V?$unique_ptr@VUEDecryptBuilder@SDK@Core@IronMan@@U?$default_delete@VUEDecryptBuilder@SDK@Core@IronMan@@@std@@@std@@@std@@@2@@std@@AEBAAEBV?$allocator@U?$_List_node@U?$pair@$$CBW4DecryptFunc@SDK@Core@IronMan@@V?$unique_ptr@VUEDecryptBuilder@SDK@Core@IronMan@@U?$default_delete@VUEDecryptBuilder@SDK@Core@IronMan@@@std@@@std@@@std@@PEAX@std@@@2@XZ ; std::list<std::pair<enum IronMan::Core::SDK::DecryptFunc const ,std::unique_ptr<IronMan::Core::SDK::UEDecryptBuilder,std::default_delete<IronMan::Core::SDK::UEDecryptBuilder> > >,std::allocator<std::pair<enum IronMan::Core::SDK::DecryptFunc const ,std::unique_ptr<IronMan::Core::SDK::UEDecryptBuilder,std::default_delete<IronMan::Core::SDK::UEDecryptBuilder> > > > >::_Getal
PUBLIC	??0?$_List_val@U?$_List_simple_types@U?$pair@$$CBW4DecryptFunc@SDK@Core@IronMan@@V?$unique_ptr@VUEDecryptBuilder@SDK@Core@IronMan@@U?$default_delete@VUEDecryptBuilder@SDK@Core@IronMan@@@std@@@std@@@std@@@std@@@std@@QEAA@XZ ; std::_List_val<std::_List_simple_types<std::pair<enum IronMan::Core::SDK::DecryptFunc const ,std::unique_ptr<IronMan::Core::SDK::UEDecryptBuilder,std::default_delete<IronMan::Core::SDK::UEDecryptBuilder> > > > >::_List_val<std::_List_simple_types<std::pair<enum IronMan::Core::SDK::DecryptFunc const ,std::unique_ptr<IronMan::Core::SDK::UEDecryptBuilder,std::default_delete<IronMan::Core::SDK::UEDecryptBuilder> > > > >
PUBLIC	?_Orphan_non_end@?$_List_val@U?$_List_simple_types@U?$pair@$$CBW4DecryptFunc@SDK@Core@IronMan@@V?$unique_ptr@VUEDecryptBuilder@SDK@Core@IronMan@@U?$default_delete@VUEDecryptBuilder@SDK@Core@IronMan@@@std@@@std@@@std@@@std@@@std@@QEAAXXZ ; std::_List_val<std::_List_simple_types<std::pair<enum IronMan::Core::SDK::DecryptFunc const ,std::unique_ptr<IronMan::Core::SDK::UEDecryptBuilder,std::default_delete<IronMan::Core::SDK::UEDecryptBuilder> > > > >::_Orphan_non_end
PUBLIC	?_Unchecked_splice@?$_List_val@U?$_List_simple_types@U?$pair@$$CBW4DecryptFunc@SDK@Core@IronMan@@V?$unique_ptr@VUEDecryptBuilder@SDK@Core@IronMan@@U?$default_delete@VUEDecryptBuilder@SDK@Core@IronMan@@@std@@@std@@@std@@@std@@@std@@SAPEAU?$_List_node@U?$pair@$$CBW4DecryptFunc@SDK@Core@IronMan@@V?$unique_ptr@VUEDecryptBuilder@SDK@Core@IronMan@@U?$default_delete@VUEDecryptBuilder@SDK@Core@IronMan@@@std@@@std@@@std@@PEAX@2@QEAU32@00@Z ; std::_List_val<std::_List_simple_types<std::pair<enum IronMan::Core::SDK::DecryptFunc const ,std::unique_ptr<IronMan::Core::SDK::UEDecryptBuilder,std::default_delete<IronMan::Core::SDK::UEDecryptBuilder> > > > >::_Unchecked_splice
PUBLIC	?_Get_first@?$_Compressed_pair@V?$allocator@U?$_List_node@U?$pair@$$CBW4DecryptFunc@SDK@Core@IronMan@@V?$unique_ptr@VUEDecryptBuilder@SDK@Core@IronMan@@U?$default_delete@VUEDecryptBuilder@SDK@Core@IronMan@@@std@@@std@@@std@@PEAX@std@@@std@@V?$_List_val@U?$_List_simple_types@U?$pair@$$CBW4DecryptFunc@SDK@Core@IronMan@@V?$unique_ptr@VUEDecryptBuilder@SDK@Core@IronMan@@U?$default_delete@VUEDecryptBuilder@SDK@Core@IronMan@@@std@@@std@@@std@@@std@@@2@$00@std@@QEAAAEAV?$allocator@U?$_List_node@U?$pair@$$CBW4DecryptFunc@SDK@Core@IronMan@@V?$unique_ptr@VUEDecryptBuilder@SDK@Core@IronMan@@U?$default_delete@VUEDecryptBuilder@SDK@Core@IronMan@@@std@@@std@@@std@@PEAX@std@@@2@XZ ; std::_Compressed_pair<std::allocator<std::_List_node<std::pair<enum IronMan::Core::SDK::DecryptFunc const ,std::unique_ptr<IronMan::Core::SDK::UEDecryptBuilder,std::default_delete<IronMan::Core::SDK::UEDecryptBuilder> > >,void *> >,std::_List_val<std::_List_simple_types<std::pair<enum IronMan::Core::SDK::DecryptFunc const ,std::unique_ptr<IronMan::Core::SDK::UEDecryptBuilder,std::default_delete<IronMan::Core::SDK::UEDecryptBuilder> > > > >,1>::_Get_first
PUBLIC	?_Get_first@?$_Compressed_pair@V?$allocator@U?$_List_node@U?$pair@$$CBW4DecryptFunc@SDK@Core@IronMan@@V?$unique_ptr@VUEDecryptBuilder@SDK@Core@IronMan@@U?$default_delete@VUEDecryptBuilder@SDK@Core@IronMan@@@std@@@std@@@std@@PEAX@std@@@std@@V?$_List_val@U?$_List_simple_types@U?$pair@$$CBW4DecryptFunc@SDK@Core@IronMan@@V?$unique_ptr@VUEDecryptBuilder@SDK@Core@IronMan@@U?$default_delete@VUEDecryptBuilder@SDK@Core@IronMan@@@std@@@std@@@std@@@std@@@2@$00@std@@QEBAAEBV?$allocator@U?$_List_node@U?$pair@$$CBW4DecryptFunc@SDK@Core@IronMan@@V?$unique_ptr@VUEDecryptBuilder@SDK@Core@IronMan@@U?$default_delete@VUEDecryptBuilder@SDK@Core@IronMan@@@std@@@std@@@std@@PEAX@std@@@2@XZ ; std::_Compressed_pair<std::allocator<std::_List_node<std::pair<enum IronMan::Core::SDK::DecryptFunc const ,std::unique_ptr<IronMan::Core::SDK::UEDecryptBuilder,std::default_delete<IronMan::Core::SDK::UEDecryptBuilder> > >,void *> >,std::_List_val<std::_List_simple_types<std::pair<enum IronMan::Core::SDK::DecryptFunc const ,std::unique_ptr<IronMan::Core::SDK::UEDecryptBuilder,std::default_delete<IronMan::Core::SDK::UEDecryptBuilder> > > > >,1>::_Get_first
PUBLIC	??0?$_Hash@V?$_Umap_traits@W4DecryptFunc@SDK@Core@IronMan@@V?$unique_ptr@VUEDecryptBuilder@SDK@Core@IronMan@@U?$default_delete@VUEDecryptBuilder@SDK@Core@IronMan@@@std@@@std@@V?$_Uhash_compare@W4DecryptFunc@SDK@Core@IronMan@@U?$hash@W4DecryptFunc@SDK@Core@IronMan@@@std@@U?$equal_to@W4DecryptFunc@SDK@Core@IronMan@@@6@@6@V?$allocator@U?$pair@$$CBW4DecryptFunc@SDK@Core@IronMan@@V?$unique_ptr@VUEDecryptBuilder@SDK@Core@IronMan@@U?$default_delete@VUEDecryptBuilder@SDK@Core@IronMan@@@std@@@std@@@std@@@6@$0A@@std@@@std@@IEAA@AEBV?$_Uhash_compare@W4DecryptFunc@SDK@Core@IronMan@@U?$hash@W4DecryptFunc@SDK@Core@IronMan@@@std@@U?$equal_to@W4DecryptFunc@SDK@Core@IronMan@@@6@@1@AEBV?$allocator@U?$pair@$$CBW4DecryptFunc@SDK@Core@IronMan@@V?$unique_ptr@VUEDecryptBuilder@SDK@Core@IronMan@@U?$default_delete@VUEDecryptBuilder@SDK@Core@IronMan@@@std@@@std@@@std@@@1@@Z ; std::_Hash<std::_Umap_traits<enum IronMan::Core::SDK::DecryptFunc,std::unique_ptr<IronMan::Core::SDK::UEDecryptBuilder,std::default_delete<IronMan::Core::SDK::UEDecryptBuilder> >,std::_Uhash_compare<enum IronMan::Core::SDK::DecryptFunc,std::hash<enum IronMan::Core::SDK::DecryptFunc>,std::equal_to<enum IronMan::Core::SDK::DecryptFunc> >,std::allocator<std::pair<enum IronMan::Core::SDK::DecryptFunc const ,std::unique_ptr<IronMan::Core::SDK::UEDecryptBuilder,std::default_delete<IronMan::Core::SDK::UEDecryptBuilder> > > >,0> >::_Hash<std::_Umap_traits<enum IronMan::Core::SDK::DecryptFunc,std::unique_ptr<IronMan::Core::SDK::UEDecryptBuilder,std::default_delete<IronMan::Core::SDK::UEDecryptBuilder> >,std::_Uhash_compare<enum IronMan::Core::SDK::DecryptFunc,std::hash<enum IronMan::Core::SDK::DecryptFunc>,std::equal_to<enum IronMan::Core::SDK::DecryptFunc> >,std::allocator<std::pair<enum IronMan::Core::SDK::DecryptFunc const ,std::unique_ptr<IronMan::Core::SDK::UEDecryptBuilder,std::default_delete<IronMan::Core::SDK::UEDecryptBuilder> > > >,0> >
PUBLIC	?_Unchecked_begin@?$_Hash@V?$_Umap_traits@W4DecryptFunc@SDK@Core@IronMan@@V?$unique_ptr@VUEDecryptBuilder@SDK@Core@IronMan@@U?$default_delete@VUEDecryptBuilder@SDK@Core@IronMan@@@std@@@std@@V?$_Uhash_compare@W4DecryptFunc@SDK@Core@IronMan@@U?$hash@W4DecryptFunc@SDK@Core@IronMan@@@std@@U?$equal_to@W4DecryptFunc@SDK@Core@IronMan@@@6@@6@V?$allocator@U?$pair@$$CBW4DecryptFunc@SDK@Core@IronMan@@V?$unique_ptr@VUEDecryptBuilder@SDK@Core@IronMan@@U?$default_delete@VUEDecryptBuilder@SDK@Core@IronMan@@@std@@@std@@@std@@@6@$0A@@std@@@std@@QEAA?AV?$_List_unchecked_iterator@V?$_List_val@U?$_List_simple_types@U?$pair@$$CBW4DecryptFunc@SDK@Core@IronMan@@V?$unique_ptr@VUEDecryptBuilder@SDK@Core@IronMan@@U?$default_delete@VUEDecryptBuilder@SDK@Core@IronMan@@@std@@@std@@@std@@@std@@@std@@@2@XZ ; std::_Hash<std::_Umap_traits<enum IronMan::Core::SDK::DecryptFunc,std::unique_ptr<IronMan::Core::SDK::UEDecryptBuilder,std::default_delete<IronMan::Core::SDK::UEDecryptBuilder> >,std::_Uhash_compare<enum IronMan::Core::SDK::DecryptFunc,std::hash<enum IronMan::Core::SDK::DecryptFunc>,std::equal_to<enum IronMan::Core::SDK::DecryptFunc> >,std::allocator<std::pair<enum IronMan::Core::SDK::DecryptFunc const ,std::unique_ptr<IronMan::Core::SDK::UEDecryptBuilder,std::default_delete<IronMan::Core::SDK::UEDecryptBuilder> > > >,0> >::_Unchecked_begin
PUBLIC	?_Unchecked_end@?$_Hash@V?$_Umap_traits@W4DecryptFunc@SDK@Core@IronMan@@V?$unique_ptr@VUEDecryptBuilder@SDK@Core@IronMan@@U?$default_delete@VUEDecryptBuilder@SDK@Core@IronMan@@@std@@@std@@V?$_Uhash_compare@W4DecryptFunc@SDK@Core@IronMan@@U?$hash@W4DecryptFunc@SDK@Core@IronMan@@@std@@U?$equal_to@W4DecryptFunc@SDK@Core@IronMan@@@6@@6@V?$allocator@U?$pair@$$CBW4DecryptFunc@SDK@Core@IronMan@@V?$unique_ptr@VUEDecryptBuilder@SDK@Core@IronMan@@U?$default_delete@VUEDecryptBuilder@SDK@Core@IronMan@@@std@@@std@@@std@@@6@$0A@@std@@@std@@QEAA?AV?$_List_unchecked_iterator@V?$_List_val@U?$_List_simple_types@U?$pair@$$CBW4DecryptFunc@SDK@Core@IronMan@@V?$unique_ptr@VUEDecryptBuilder@SDK@Core@IronMan@@U?$default_delete@VUEDecryptBuilder@SDK@Core@IronMan@@@std@@@std@@@std@@@std@@@std@@@2@XZ ; std::_Hash<std::_Umap_traits<enum IronMan::Core::SDK::DecryptFunc,std::unique_ptr<IronMan::Core::SDK::UEDecryptBuilder,std::default_delete<IronMan::Core::SDK::UEDecryptBuilder> >,std::_Uhash_compare<enum IronMan::Core::SDK::DecryptFunc,std::hash<enum IronMan::Core::SDK::DecryptFunc>,std::equal_to<enum IronMan::Core::SDK::DecryptFunc> >,std::allocator<std::pair<enum IronMan::Core::SDK::DecryptFunc const ,std::unique_ptr<IronMan::Core::SDK::UEDecryptBuilder,std::default_delete<IronMan::Core::SDK::UEDecryptBuilder> > > >,0> >::_Unchecked_end
PUBLIC	?bucket_count@?$_Hash@V?$_Umap_traits@W4DecryptFunc@SDK@Core@IronMan@@V?$unique_ptr@VUEDecryptBuilder@SDK@Core@IronMan@@U?$default_delete@VUEDecryptBuilder@SDK@Core@IronMan@@@std@@@std@@V?$_Uhash_compare@W4DecryptFunc@SDK@Core@IronMan@@U?$hash@W4DecryptFunc@SDK@Core@IronMan@@@std@@U?$equal_to@W4DecryptFunc@SDK@Core@IronMan@@@6@@6@V?$allocator@U?$pair@$$CBW4DecryptFunc@SDK@Core@IronMan@@V?$unique_ptr@VUEDecryptBuilder@SDK@Core@IronMan@@U?$default_delete@VUEDecryptBuilder@SDK@Core@IronMan@@@std@@@std@@@std@@@6@$0A@@std@@@std@@QEBA_KXZ ; std::_Hash<std::_Umap_traits<enum IronMan::Core::SDK::DecryptFunc,std::unique_ptr<IronMan::Core::SDK::UEDecryptBuilder,std::default_delete<IronMan::Core::SDK::UEDecryptBuilder> >,std::_Uhash_compare<enum IronMan::Core::SDK::DecryptFunc,std::hash<enum IronMan::Core::SDK::DecryptFunc>,std::equal_to<enum IronMan::Core::SDK::DecryptFunc> >,std::allocator<std::pair<enum IronMan::Core::SDK::DecryptFunc const ,std::unique_ptr<IronMan::Core::SDK::UEDecryptBuilder,std::default_delete<IronMan::Core::SDK::UEDecryptBuilder> > > >,0> >::bucket_count
PUBLIC	?bucket@?$_Hash@V?$_Umap_traits@W4DecryptFunc@SDK@Core@IronMan@@V?$unique_ptr@VUEDecryptBuilder@SDK@Core@IronMan@@U?$default_delete@VUEDecryptBuilder@SDK@Core@IronMan@@@std@@@std@@V?$_Uhash_compare@W4DecryptFunc@SDK@Core@IronMan@@U?$hash@W4DecryptFunc@SDK@Core@IronMan@@@std@@U?$equal_to@W4DecryptFunc@SDK@Core@IronMan@@@6@@6@V?$allocator@U?$pair@$$CBW4DecryptFunc@SDK@Core@IronMan@@V?$unique_ptr@VUEDecryptBuilder@SDK@Core@IronMan@@U?$default_delete@VUEDecryptBuilder@SDK@Core@IronMan@@@std@@@std@@@std@@@6@$0A@@std@@@std@@QEBA_KAEBW4DecryptFunc@SDK@Core@IronMan@@@Z ; std::_Hash<std::_Umap_traits<enum IronMan::Core::SDK::DecryptFunc,std::unique_ptr<IronMan::Core::SDK::UEDecryptBuilder,std::default_delete<IronMan::Core::SDK::UEDecryptBuilder> >,std::_Uhash_compare<enum IronMan::Core::SDK::DecryptFunc,std::hash<enum IronMan::Core::SDK::DecryptFunc>,std::equal_to<enum IronMan::Core::SDK::DecryptFunc> >,std::allocator<std::pair<enum IronMan::Core::SDK::DecryptFunc const ,std::unique_ptr<IronMan::Core::SDK::UEDecryptBuilder,std::default_delete<IronMan::Core::SDK::UEDecryptBuilder> > > >,0> >::bucket
PUBLIC	?max_load_factor@?$_Hash@V?$_Umap_traits@W4DecryptFunc@SDK@Core@IronMan@@V?$unique_ptr@VUEDecryptBuilder@SDK@Core@IronMan@@U?$default_delete@VUEDecryptBuilder@SDK@Core@IronMan@@@std@@@std@@V?$_Uhash_compare@W4DecryptFunc@SDK@Core@IronMan@@U?$hash@W4DecryptFunc@SDK@Core@IronMan@@@std@@U?$equal_to@W4DecryptFunc@SDK@Core@IronMan@@@6@@6@V?$allocator@U?$pair@$$CBW4DecryptFunc@SDK@Core@IronMan@@V?$unique_ptr@VUEDecryptBuilder@SDK@Core@IronMan@@U?$default_delete@VUEDecryptBuilder@SDK@Core@IronMan@@@std@@@std@@@std@@@6@$0A@@std@@@std@@QEBAMXZ ; std::_Hash<std::_Umap_traits<enum IronMan::Core::SDK::DecryptFunc,std::unique_ptr<IronMan::Core::SDK::UEDecryptBuilder,std::default_delete<IronMan::Core::SDK::UEDecryptBuilder> >,std::_Uhash_compare<enum IronMan::Core::SDK::DecryptFunc,std::hash<enum IronMan::Core::SDK::DecryptFunc>,std::equal_to<enum IronMan::Core::SDK::DecryptFunc> >,std::allocator<std::pair<enum IronMan::Core::SDK::DecryptFunc const ,std::unique_ptr<IronMan::Core::SDK::UEDecryptBuilder,std::default_delete<IronMan::Core::SDK::UEDecryptBuilder> > > >,0> >::max_load_factor
PUBLIC	?_Unchecked_erase@?$_Hash@V?$_Umap_traits@W4DecryptFunc@SDK@Core@IronMan@@V?$unique_ptr@VUEDecryptBuilder@SDK@Core@IronMan@@U?$default_delete@VUEDecryptBuilder@SDK@Core@IronMan@@@std@@@std@@V?$_Uhash_compare@W4DecryptFunc@SDK@Core@IronMan@@U?$hash@W4DecryptFunc@SDK@Core@IronMan@@@std@@U?$equal_to@W4DecryptFunc@SDK@Core@IronMan@@@6@@6@V?$allocator@U?$pair@$$CBW4DecryptFunc@SDK@Core@IronMan@@V?$unique_ptr@VUEDecryptBuilder@SDK@Core@IronMan@@U?$default_delete@VUEDecryptBuilder@SDK@Core@IronMan@@@std@@@std@@@std@@@6@$0A@@std@@@std@@AEAAPEAU?$_List_node@U?$pair@$$CBW4DecryptFunc@SDK@Core@IronMan@@V?$unique_ptr@VUEDecryptBuilder@SDK@Core@IronMan@@U?$default_delete@VUEDecryptBuilder@SDK@Core@IronMan@@@std@@@std@@@std@@PEAX@2@PEAU32@QEAU32@@Z ; std::_Hash<std::_Umap_traits<enum IronMan::Core::SDK::DecryptFunc,std::unique_ptr<IronMan::Core::SDK::UEDecryptBuilder,std::default_delete<IronMan::Core::SDK::UEDecryptBuilder> >,std::_Uhash_compare<enum IronMan::Core::SDK::DecryptFunc,std::hash<enum IronMan::Core::SDK::DecryptFunc>,std::equal_to<enum IronMan::Core::SDK::DecryptFunc> >,std::allocator<std::pair<enum IronMan::Core::SDK::DecryptFunc const ,std::unique_ptr<IronMan::Core::SDK::UEDecryptBuilder,std::default_delete<IronMan::Core::SDK::UEDecryptBuilder> > > >,0> >::_Unchecked_erase
PUBLIC	?clear@?$_Hash@V?$_Umap_traits@W4DecryptFunc@SDK@Core@IronMan@@V?$unique_ptr@VUEDecryptBuilder@SDK@Core@IronMan@@U?$default_delete@VUEDecryptBuilder@SDK@Core@IronMan@@@std@@@std@@V?$_Uhash_compare@W4DecryptFunc@SDK@Core@IronMan@@U?$hash@W4DecryptFunc@SDK@Core@IronMan@@@std@@U?$equal_to@W4DecryptFunc@SDK@Core@IronMan@@@6@@6@V?$allocator@U?$pair@$$CBW4DecryptFunc@SDK@Core@IronMan@@V?$unique_ptr@VUEDecryptBuilder@SDK@Core@IronMan@@U?$default_delete@VUEDecryptBuilder@SDK@Core@IronMan@@@std@@@std@@@std@@@6@$0A@@std@@@std@@QEAAXXZ ; std::_Hash<std::_Umap_traits<enum IronMan::Core::SDK::DecryptFunc,std::unique_ptr<IronMan::Core::SDK::UEDecryptBuilder,std::default_delete<IronMan::Core::SDK::UEDecryptBuilder> >,std::_Uhash_compare<enum IronMan::Core::SDK::DecryptFunc,std::hash<enum IronMan::Core::SDK::DecryptFunc>,std::equal_to<enum IronMan::Core::SDK::DecryptFunc> >,std::allocator<std::pair<enum IronMan::Core::SDK::DecryptFunc const ,std::unique_ptr<IronMan::Core::SDK::UEDecryptBuilder,std::default_delete<IronMan::Core::SDK::UEDecryptBuilder> > > >,0> >::clear
PUBLIC	?_Insert_new_node_before@?$_Hash@V?$_Umap_traits@W4DecryptFunc@SDK@Core@IronMan@@V?$unique_ptr@VUEDecryptBuilder@SDK@Core@IronMan@@U?$default_delete@VUEDecryptBuilder@SDK@Core@IronMan@@@std@@@std@@V?$_Uhash_compare@W4DecryptFunc@SDK@Core@IronMan@@U?$hash@W4DecryptFunc@SDK@Core@IronMan@@@std@@U?$equal_to@W4DecryptFunc@SDK@Core@IronMan@@@6@@6@V?$allocator@U?$pair@$$CBW4DecryptFunc@SDK@Core@IronMan@@V?$unique_ptr@VUEDecryptBuilder@SDK@Core@IronMan@@U?$default_delete@VUEDecryptBuilder@SDK@Core@IronMan@@@std@@@std@@@std@@@6@$0A@@std@@@std@@IEAAPEAU?$_List_node@U?$pair@$$CBW4DecryptFunc@SDK@Core@IronMan@@V?$unique_ptr@VUEDecryptBuilder@SDK@Core@IronMan@@U?$default_delete@VUEDecryptBuilder@SDK@Core@IronMan@@@std@@@std@@@std@@PEAX@2@_KQEAU32@1@Z ; std::_Hash<std::_Umap_traits<enum IronMan::Core::SDK::DecryptFunc,std::unique_ptr<IronMan::Core::SDK::UEDecryptBuilder,std::default_delete<IronMan::Core::SDK::UEDecryptBuilder> >,std::_Uhash_compare<enum IronMan::Core::SDK::DecryptFunc,std::hash<enum IronMan::Core::SDK::DecryptFunc>,std::equal_to<enum IronMan::Core::SDK::DecryptFunc> >,std::allocator<std::pair<enum IronMan::Core::SDK::DecryptFunc const ,std::unique_ptr<IronMan::Core::SDK::UEDecryptBuilder,std::default_delete<IronMan::Core::SDK::UEDecryptBuilder> > > >,0> >::_Insert_new_node_before
PUBLIC	?_Check_max_size@?$_Hash@V?$_Umap_traits@W4DecryptFunc@SDK@Core@IronMan@@V?$unique_ptr@VUEDecryptBuilder@SDK@Core@IronMan@@U?$default_delete@VUEDecryptBuilder@SDK@Core@IronMan@@@std@@@std@@V?$_Uhash_compare@W4DecryptFunc@SDK@Core@IronMan@@U?$hash@W4DecryptFunc@SDK@Core@IronMan@@@std@@U?$equal_to@W4DecryptFunc@SDK@Core@IronMan@@@6@@6@V?$allocator@U?$pair@$$CBW4DecryptFunc@SDK@Core@IronMan@@V?$unique_ptr@VUEDecryptBuilder@SDK@Core@IronMan@@U?$default_delete@VUEDecryptBuilder@SDK@Core@IronMan@@@std@@@std@@@std@@@6@$0A@@std@@@std@@IEBAXXZ ; std::_Hash<std::_Umap_traits<enum IronMan::Core::SDK::DecryptFunc,std::unique_ptr<IronMan::Core::SDK::UEDecryptBuilder,std::default_delete<IronMan::Core::SDK::UEDecryptBuilder> >,std::_Uhash_compare<enum IronMan::Core::SDK::DecryptFunc,std::hash<enum IronMan::Core::SDK::DecryptFunc>,std::equal_to<enum IronMan::Core::SDK::DecryptFunc> >,std::allocator<std::pair<enum IronMan::Core::SDK::DecryptFunc const ,std::unique_ptr<IronMan::Core::SDK::UEDecryptBuilder,std::default_delete<IronMan::Core::SDK::UEDecryptBuilder> > > >,0> >::_Check_max_size
PUBLIC	?_Check_rehash_required_1@?$_Hash@V?$_Umap_traits@W4DecryptFunc@SDK@Core@IronMan@@V?$unique_ptr@VUEDecryptBuilder@SDK@Core@IronMan@@U?$default_delete@VUEDecryptBuilder@SDK@Core@IronMan@@@std@@@std@@V?$_Uhash_compare@W4DecryptFunc@SDK@Core@IronMan@@U?$hash@W4DecryptFunc@SDK@Core@IronMan@@@std@@U?$equal_to@W4DecryptFunc@SDK@Core@IronMan@@@6@@6@V?$allocator@U?$pair@$$CBW4DecryptFunc@SDK@Core@IronMan@@V?$unique_ptr@VUEDecryptBuilder@SDK@Core@IronMan@@U?$default_delete@VUEDecryptBuilder@SDK@Core@IronMan@@@std@@@std@@@std@@@6@$0A@@std@@@std@@IEBA_NXZ ; std::_Hash<std::_Umap_traits<enum IronMan::Core::SDK::DecryptFunc,std::unique_ptr<IronMan::Core::SDK::UEDecryptBuilder,std::default_delete<IronMan::Core::SDK::UEDecryptBuilder> >,std::_Uhash_compare<enum IronMan::Core::SDK::DecryptFunc,std::hash<enum IronMan::Core::SDK::DecryptFunc>,std::equal_to<enum IronMan::Core::SDK::DecryptFunc> >,std::allocator<std::pair<enum IronMan::Core::SDK::DecryptFunc const ,std::unique_ptr<IronMan::Core::SDK::UEDecryptBuilder,std::default_delete<IronMan::Core::SDK::UEDecryptBuilder> > > >,0> >::_Check_rehash_required_1
PUBLIC	?_Rehash_for_1@?$_Hash@V?$_Umap_traits@W4DecryptFunc@SDK@Core@IronMan@@V?$unique_ptr@VUEDecryptBuilder@SDK@Core@IronMan@@U?$default_delete@VUEDecryptBuilder@SDK@Core@IronMan@@@std@@@std@@V?$_Uhash_compare@W4DecryptFunc@SDK@Core@IronMan@@U?$hash@W4DecryptFunc@SDK@Core@IronMan@@@std@@U?$equal_to@W4DecryptFunc@SDK@Core@IronMan@@@6@@6@V?$allocator@U?$pair@$$CBW4DecryptFunc@SDK@Core@IronMan@@V?$unique_ptr@VUEDecryptBuilder@SDK@Core@IronMan@@U?$default_delete@VUEDecryptBuilder@SDK@Core@IronMan@@@std@@@std@@@std@@@6@$0A@@std@@@std@@IEAAXXZ ; std::_Hash<std::_Umap_traits<enum IronMan::Core::SDK::DecryptFunc,std::unique_ptr<IronMan::Core::SDK::UEDecryptBuilder,std::default_delete<IronMan::Core::SDK::UEDecryptBuilder> >,std::_Uhash_compare<enum IronMan::Core::SDK::DecryptFunc,std::hash<enum IronMan::Core::SDK::DecryptFunc>,std::equal_to<enum IronMan::Core::SDK::DecryptFunc> >,std::allocator<std::pair<enum IronMan::Core::SDK::DecryptFunc const ,std::unique_ptr<IronMan::Core::SDK::UEDecryptBuilder,std::default_delete<IronMan::Core::SDK::UEDecryptBuilder> > > >,0> >::_Rehash_for_1
PUBLIC	?_Min_load_factor_buckets@?$_Hash@V?$_Umap_traits@W4DecryptFunc@SDK@Core@IronMan@@V?$unique_ptr@VUEDecryptBuilder@SDK@Core@IronMan@@U?$default_delete@VUEDecryptBuilder@SDK@Core@IronMan@@@std@@@std@@V?$_Uhash_compare@W4DecryptFunc@SDK@Core@IronMan@@U?$hash@W4DecryptFunc@SDK@Core@IronMan@@@std@@U?$equal_to@W4DecryptFunc@SDK@Core@IronMan@@@6@@6@V?$allocator@U?$pair@$$CBW4DecryptFunc@SDK@Core@IronMan@@V?$unique_ptr@VUEDecryptBuilder@SDK@Core@IronMan@@U?$default_delete@VUEDecryptBuilder@SDK@Core@IronMan@@@std@@@std@@@std@@@6@$0A@@std@@@std@@IEBA_K_K@Z ; std::_Hash<std::_Umap_traits<enum IronMan::Core::SDK::DecryptFunc,std::unique_ptr<IronMan::Core::SDK::UEDecryptBuilder,std::default_delete<IronMan::Core::SDK::UEDecryptBuilder> >,std::_Uhash_compare<enum IronMan::Core::SDK::DecryptFunc,std::hash<enum IronMan::Core::SDK::DecryptFunc>,std::equal_to<enum IronMan::Core::SDK::DecryptFunc> >,std::allocator<std::pair<enum IronMan::Core::SDK::DecryptFunc const ,std::unique_ptr<IronMan::Core::SDK::UEDecryptBuilder,std::default_delete<IronMan::Core::SDK::UEDecryptBuilder> > > >,0> >::_Min_load_factor_buckets
PUBLIC	?_Desired_grow_bucket_count@?$_Hash@V?$_Umap_traits@W4DecryptFunc@SDK@Core@IronMan@@V?$unique_ptr@VUEDecryptBuilder@SDK@Core@IronMan@@U?$default_delete@VUEDecryptBuilder@SDK@Core@IronMan@@@std@@@std@@V?$_Uhash_compare@W4DecryptFunc@SDK@Core@IronMan@@U?$hash@W4DecryptFunc@SDK@Core@IronMan@@@std@@U?$equal_to@W4DecryptFunc@SDK@Core@IronMan@@@6@@6@V?$allocator@U?$pair@$$CBW4DecryptFunc@SDK@Core@IronMan@@V?$unique_ptr@VUEDecryptBuilder@SDK@Core@IronMan@@U?$default_delete@VUEDecryptBuilder@SDK@Core@IronMan@@@std@@@std@@@std@@@6@$0A@@std@@@std@@IEBA_K_K@Z ; std::_Hash<std::_Umap_traits<enum IronMan::Core::SDK::DecryptFunc,std::unique_ptr<IronMan::Core::SDK::UEDecryptBuilder,std::default_delete<IronMan::Core::SDK::UEDecryptBuilder> >,std::_Uhash_compare<enum IronMan::Core::SDK::DecryptFunc,std::hash<enum IronMan::Core::SDK::DecryptFunc>,std::equal_to<enum IronMan::Core::SDK::DecryptFunc> >,std::allocator<std::pair<enum IronMan::Core::SDK::DecryptFunc const ,std::unique_ptr<IronMan::Core::SDK::UEDecryptBuilder,std::default_delete<IronMan::Core::SDK::UEDecryptBuilder> > > >,0> >::_Desired_grow_bucket_count
PUBLIC	?_Forced_rehash@?$_Hash@V?$_Umap_traits@W4DecryptFunc@SDK@Core@IronMan@@V?$unique_ptr@VUEDecryptBuilder@SDK@Core@IronMan@@U?$default_delete@VUEDecryptBuilder@SDK@Core@IronMan@@@std@@@std@@V?$_Uhash_compare@W4DecryptFunc@SDK@Core@IronMan@@U?$hash@W4DecryptFunc@SDK@Core@IronMan@@@std@@U?$equal_to@W4DecryptFunc@SDK@Core@IronMan@@@6@@6@V?$allocator@U?$pair@$$CBW4DecryptFunc@SDK@Core@IronMan@@V?$unique_ptr@VUEDecryptBuilder@SDK@Core@IronMan@@U?$default_delete@VUEDecryptBuilder@SDK@Core@IronMan@@@std@@@std@@@std@@@6@$0A@@std@@@std@@IEAAX_K@Z ; std::_Hash<std::_Umap_traits<enum IronMan::Core::SDK::DecryptFunc,std::unique_ptr<IronMan::Core::SDK::UEDecryptBuilder,std::default_delete<IronMan::Core::SDK::UEDecryptBuilder> >,std::_Uhash_compare<enum IronMan::Core::SDK::DecryptFunc,std::hash<enum IronMan::Core::SDK::DecryptFunc>,std::equal_to<enum IronMan::Core::SDK::DecryptFunc> >,std::allocator<std::pair<enum IronMan::Core::SDK::DecryptFunc const ,std::unique_ptr<IronMan::Core::SDK::UEDecryptBuilder,std::default_delete<IronMan::Core::SDK::UEDecryptBuilder> > > >,0> >::_Forced_rehash
PUBLIC	?_Max_bucket_size@?$_Hash@V?$_Umap_traits@W4DecryptFunc@SDK@Core@IronMan@@V?$unique_ptr@VUEDecryptBuilder@SDK@Core@IronMan@@U?$default_delete@VUEDecryptBuilder@SDK@Core@IronMan@@@std@@@std@@V?$_Uhash_compare@W4DecryptFunc@SDK@Core@IronMan@@U?$hash@W4DecryptFunc@SDK@Core@IronMan@@@std@@U?$equal_to@W4DecryptFunc@SDK@Core@IronMan@@@6@@6@V?$allocator@U?$pair@$$CBW4DecryptFunc@SDK@Core@IronMan@@V?$unique_ptr@VUEDecryptBuilder@SDK@Core@IronMan@@U?$default_delete@VUEDecryptBuilder@SDK@Core@IronMan@@@std@@@std@@@std@@@6@$0A@@std@@@std@@IEAAAEAMXZ ; std::_Hash<std::_Umap_traits<enum IronMan::Core::SDK::DecryptFunc,std::unique_ptr<IronMan::Core::SDK::UEDecryptBuilder,std::default_delete<IronMan::Core::SDK::UEDecryptBuilder> >,std::_Uhash_compare<enum IronMan::Core::SDK::DecryptFunc,std::hash<enum IronMan::Core::SDK::DecryptFunc>,std::equal_to<enum IronMan::Core::SDK::DecryptFunc> >,std::allocator<std::pair<enum IronMan::Core::SDK::DecryptFunc const ,std::unique_ptr<IronMan::Core::SDK::UEDecryptBuilder,std::default_delete<IronMan::Core::SDK::UEDecryptBuilder> > > >,0> >::_Max_bucket_size
PUBLIC	?_Max_bucket_size@?$_Hash@V?$_Umap_traits@W4DecryptFunc@SDK@Core@IronMan@@V?$unique_ptr@VUEDecryptBuilder@SDK@Core@IronMan@@U?$default_delete@VUEDecryptBuilder@SDK@Core@IronMan@@@std@@@std@@V?$_Uhash_compare@W4DecryptFunc@SDK@Core@IronMan@@U?$hash@W4DecryptFunc@SDK@Core@IronMan@@@std@@U?$equal_to@W4DecryptFunc@SDK@Core@IronMan@@@6@@6@V?$allocator@U?$pair@$$CBW4DecryptFunc@SDK@Core@IronMan@@V?$unique_ptr@VUEDecryptBuilder@SDK@Core@IronMan@@U?$default_delete@VUEDecryptBuilder@SDK@Core@IronMan@@@std@@@std@@@std@@@6@$0A@@std@@@std@@IEBAAEBMXZ ; std::_Hash<std::_Umap_traits<enum IronMan::Core::SDK::DecryptFunc,std::unique_ptr<IronMan::Core::SDK::UEDecryptBuilder,std::default_delete<IronMan::Core::SDK::UEDecryptBuilder> >,std::_Uhash_compare<enum IronMan::Core::SDK::DecryptFunc,std::hash<enum IronMan::Core::SDK::DecryptFunc>,std::equal_to<enum IronMan::Core::SDK::DecryptFunc> >,std::allocator<std::pair<enum IronMan::Core::SDK::DecryptFunc const ,std::unique_ptr<IronMan::Core::SDK::UEDecryptBuilder,std::default_delete<IronMan::Core::SDK::UEDecryptBuilder> > > >,0> >::_Max_bucket_size
PUBLIC	?deallocate@?$allocator@V?$_List_unchecked_iterator@V?$_List_val@U?$_List_simple_types@U?$pair@$$CBW4DecryptFunc@SDK@Core@IronMan@@V?$unique_ptr@VUEDecryptBuilder@SDK@Core@IronMan@@U?$default_delete@VUEDecryptBuilder@SDK@Core@IronMan@@@std@@@std@@@std@@@std@@@std@@@std@@@std@@QEAAXQEAV?$_List_unchecked_iterator@V?$_List_val@U?$_List_simple_types@U?$pair@$$CBW4DecryptFunc@SDK@Core@IronMan@@V?$unique_ptr@VUEDecryptBuilder@SDK@Core@IronMan@@U?$default_delete@VUEDecryptBuilder@SDK@Core@IronMan@@@std@@@std@@@std@@@std@@@std@@@2@_K@Z ; std::allocator<std::_List_unchecked_iterator<std::_List_val<std::_List_simple_types<std::pair<enum IronMan::Core::SDK::DecryptFunc const ,std::unique_ptr<IronMan::Core::SDK::UEDecryptBuilder,std::default_delete<IronMan::Core::SDK::UEDecryptBuilder> > > > > > >::deallocate
PUBLIC	?allocate@?$allocator@V?$_List_unchecked_iterator@V?$_List_val@U?$_List_simple_types@U?$pair@$$CBW4DecryptFunc@SDK@Core@IronMan@@V?$unique_ptr@VUEDecryptBuilder@SDK@Core@IronMan@@U?$default_delete@VUEDecryptBuilder@SDK@Core@IronMan@@@std@@@std@@@std@@@std@@@std@@@std@@@std@@QEAAPEAV?$_List_unchecked_iterator@V?$_List_val@U?$_List_simple_types@U?$pair@$$CBW4DecryptFunc@SDK@Core@IronMan@@V?$unique_ptr@VUEDecryptBuilder@SDK@Core@IronMan@@U?$default_delete@VUEDecryptBuilder@SDK@Core@IronMan@@@std@@@std@@@std@@@std@@@std@@@2@_K@Z ; std::allocator<std::_List_unchecked_iterator<std::_List_val<std::_List_simple_types<std::pair<enum IronMan::Core::SDK::DecryptFunc const ,std::unique_ptr<IronMan::Core::SDK::UEDecryptBuilder,std::default_delete<IronMan::Core::SDK::UEDecryptBuilder> > > > > > >::allocate
PUBLIC	?max_size@?$_Default_allocator_traits@V?$allocator@V?$_List_unchecked_iterator@V?$_List_val@U?$_List_simple_types@U?$pair@$$CBW4DecryptFunc@SDK@Core@IronMan@@V?$unique_ptr@VUEDecryptBuilder@SDK@Core@IronMan@@U?$default_delete@VUEDecryptBuilder@SDK@Core@IronMan@@@std@@@std@@@std@@@std@@@std@@@std@@@std@@@std@@SA_KAEBV?$allocator@V?$_List_unchecked_iterator@V?$_List_val@U?$_List_simple_types@U?$pair@$$CBW4DecryptFunc@SDK@Core@IronMan@@V?$unique_ptr@VUEDecryptBuilder@SDK@Core@IronMan@@U?$default_delete@VUEDecryptBuilder@SDK@Core@IronMan@@@std@@@std@@@std@@@std@@@std@@@std@@@2@@Z ; std::_Default_allocator_traits<std::allocator<std::_List_unchecked_iterator<std::_List_val<std::_List_simple_types<std::pair<enum IronMan::Core::SDK::DecryptFunc const ,std::unique_ptr<IronMan::Core::SDK::UEDecryptBuilder,std::default_delete<IronMan::Core::SDK::UEDecryptBuilder> > > > > > > >::max_size
PUBLIC	?size@?$_Hash_vec@V?$allocator@V?$_List_unchecked_iterator@V?$_List_val@U?$_List_simple_types@U?$pair@$$CBW4DecryptFunc@SDK@Core@IronMan@@V?$unique_ptr@VUEDecryptBuilder@SDK@Core@IronMan@@U?$default_delete@VUEDecryptBuilder@SDK@Core@IronMan@@@std@@@std@@@std@@@std@@@std@@@std@@@std@@@std@@QEBA_KXZ ; std::_Hash_vec<std::allocator<std::_List_unchecked_iterator<std::_List_val<std::_List_simple_types<std::pair<enum IronMan::Core::SDK::DecryptFunc const ,std::unique_ptr<IronMan::Core::SDK::UEDecryptBuilder,std::default_delete<IronMan::Core::SDK::UEDecryptBuilder> > > > > > > >::size
PUBLIC	?max_size@?$_Hash_vec@V?$allocator@V?$_List_unchecked_iterator@V?$_List_val@U?$_List_simple_types@U?$pair@$$CBW4DecryptFunc@SDK@Core@IronMan@@V?$unique_ptr@VUEDecryptBuilder@SDK@Core@IronMan@@U?$default_delete@VUEDecryptBuilder@SDK@Core@IronMan@@@std@@@std@@@std@@@std@@@std@@@std@@@std@@@std@@QEBA_KXZ ; std::_Hash_vec<std::allocator<std::_List_unchecked_iterator<std::_List_val<std::_List_simple_types<std::pair<enum IronMan::Core::SDK::DecryptFunc const ,std::unique_ptr<IronMan::Core::SDK::UEDecryptBuilder,std::default_delete<IronMan::Core::SDK::UEDecryptBuilder> > > > > > > >::max_size
PUBLIC	?capacity@?$_Hash_vec@V?$allocator@V?$_List_unchecked_iterator@V?$_List_val@U?$_List_simple_types@U?$pair@$$CBW4DecryptFunc@SDK@Core@IronMan@@V?$unique_ptr@VUEDecryptBuilder@SDK@Core@IronMan@@U?$default_delete@VUEDecryptBuilder@SDK@Core@IronMan@@@std@@@std@@@std@@@std@@@std@@@std@@@std@@@std@@QEBA_KXZ ; std::_Hash_vec<std::allocator<std::_List_unchecked_iterator<std::_List_val<std::_List_simple_types<std::pair<enum IronMan::Core::SDK::DecryptFunc const ,std::unique_ptr<IronMan::Core::SDK::UEDecryptBuilder,std::default_delete<IronMan::Core::SDK::UEDecryptBuilder> > > > > > > >::capacity
PUBLIC	?_Assign_grow@?$_Hash_vec@V?$allocator@V?$_List_unchecked_iterator@V?$_List_val@U?$_List_simple_types@U?$pair@$$CBW4DecryptFunc@SDK@Core@IronMan@@V?$unique_ptr@VUEDecryptBuilder@SDK@Core@IronMan@@U?$default_delete@VUEDecryptBuilder@SDK@Core@IronMan@@@std@@@std@@@std@@@std@@@std@@@std@@@std@@@std@@QEAAX_KV?$_List_unchecked_iterator@V?$_List_val@U?$_List_simple_types@U?$pair@$$CBW4DecryptFunc@SDK@Core@IronMan@@V?$unique_ptr@VUEDecryptBuilder@SDK@Core@IronMan@@U?$default_delete@VUEDecryptBuilder@SDK@Core@IronMan@@@std@@@std@@@std@@@std@@@std@@@2@@Z ; std::_Hash_vec<std::allocator<std::_List_unchecked_iterator<std::_List_val<std::_List_simple_types<std::pair<enum IronMan::Core::SDK::DecryptFunc const ,std::unique_ptr<IronMan::Core::SDK::UEDecryptBuilder,std::default_delete<IronMan::Core::SDK::UEDecryptBuilder> > > > > > > >::_Assign_grow
PUBLIC	?_Tidy@?$_Hash_vec@V?$allocator@V?$_List_unchecked_iterator@V?$_List_val@U?$_List_simple_types@U?$pair@$$CBW4DecryptFunc@SDK@Core@IronMan@@V?$unique_ptr@VUEDecryptBuilder@SDK@Core@IronMan@@U?$default_delete@VUEDecryptBuilder@SDK@Core@IronMan@@@std@@@std@@@std@@@std@@@std@@@std@@@std@@@std@@QEAAXXZ ; std::_Hash_vec<std::allocator<std::_List_unchecked_iterator<std::_List_val<std::_List_simple_types<std::pair<enum IronMan::Core::SDK::DecryptFunc const ,std::unique_ptr<IronMan::Core::SDK::UEDecryptBuilder,std::default_delete<IronMan::Core::SDK::UEDecryptBuilder> > > > > > > >::_Tidy
PUBLIC	??1?$_Hash_vec@V?$allocator@V?$_List_unchecked_iterator@V?$_List_val@U?$_List_simple_types@U?$pair@$$CBW4DecryptFunc@SDK@Core@IronMan@@V?$unique_ptr@VUEDecryptBuilder@SDK@Core@IronMan@@U?$default_delete@VUEDecryptBuilder@SDK@Core@IronMan@@@std@@@std@@@std@@@std@@@std@@@std@@@std@@@std@@QEAA@XZ ; std::_Hash_vec<std::allocator<std::_List_unchecked_iterator<std::_List_val<std::_List_simple_types<std::pair<enum IronMan::Core::SDK::DecryptFunc const ,std::unique_ptr<IronMan::Core::SDK::UEDecryptBuilder,std::default_delete<IronMan::Core::SDK::UEDecryptBuilder> > > > > > > >::~_Hash_vec<std::allocator<std::_List_unchecked_iterator<std::_List_val<std::_List_simple_types<std::pair<enum IronMan::Core::SDK::DecryptFunc const ,std::unique_ptr<IronMan::Core::SDK::UEDecryptBuilder,std::default_delete<IronMan::Core::SDK::UEDecryptBuilder> > > > > > > >
PUBLIC	??0?$_Vector_val@U?$_Simple_types@V?$_List_unchecked_iterator@V?$_List_val@U?$_List_simple_types@U?$pair@$$CBW4DecryptFunc@SDK@Core@IronMan@@V?$unique_ptr@VUEDecryptBuilder@SDK@Core@IronMan@@U?$default_delete@VUEDecryptBuilder@SDK@Core@IronMan@@@std@@@std@@@std@@@std@@@std@@@std@@@std@@@std@@QEAA@XZ ; std::_Vector_val<std::_Simple_types<std::_List_unchecked_iterator<std::_List_val<std::_List_simple_types<std::pair<enum IronMan::Core::SDK::DecryptFunc const ,std::unique_ptr<IronMan::Core::SDK::UEDecryptBuilder,std::default_delete<IronMan::Core::SDK::UEDecryptBuilder> > > > > > > >::_Vector_val<std::_Simple_types<std::_List_unchecked_iterator<std::_List_val<std::_List_simple_types<std::pair<enum IronMan::Core::SDK::DecryptFunc const ,std::unique_ptr<IronMan::Core::SDK::UEDecryptBuilder,std::default_delete<IronMan::Core::SDK::UEDecryptBuilder> > > > > > > >
PUBLIC	?_Get_first@?$_Compressed_pair@V?$allocator@V?$_List_unchecked_iterator@V?$_List_val@U?$_List_simple_types@U?$pair@$$CBW4DecryptFunc@SDK@Core@IronMan@@V?$unique_ptr@VUEDecryptBuilder@SDK@Core@IronMan@@U?$default_delete@VUEDecryptBuilder@SDK@Core@IronMan@@@std@@@std@@@std@@@std@@@std@@@std@@@std@@V?$_Vector_val@U?$_Simple_types@V?$_List_unchecked_iterator@V?$_List_val@U?$_List_simple_types@U?$pair@$$CBW4DecryptFunc@SDK@Core@IronMan@@V?$unique_ptr@VUEDecryptBuilder@SDK@Core@IronMan@@U?$default_delete@VUEDecryptBuilder@SDK@Core@IronMan@@@std@@@std@@@std@@@std@@@std@@@std@@@std@@@2@$00@std@@QEAAAEAV?$allocator@V?$_List_unchecked_iterator@V?$_List_val@U?$_List_simple_types@U?$pair@$$CBW4DecryptFunc@SDK@Core@IronMan@@V?$unique_ptr@VUEDecryptBuilder@SDK@Core@IronMan@@U?$default_delete@VUEDecryptBuilder@SDK@Core@IronMan@@@std@@@std@@@std@@@std@@@std@@@std@@@2@XZ ; std::_Compressed_pair<std::allocator<std::_List_unchecked_iterator<std::_List_val<std::_List_simple_types<std::pair<enum IronMan::Core::SDK::DecryptFunc const ,std::unique_ptr<IronMan::Core::SDK::UEDecryptBuilder,std::default_delete<IronMan::Core::SDK::UEDecryptBuilder> > > > > > >,std::_Vector_val<std::_Simple_types<std::_List_unchecked_iterator<std::_List_val<std::_List_simple_types<std::pair<enum IronMan::Core::SDK::DecryptFunc const ,std::unique_ptr<IronMan::Core::SDK::UEDecryptBuilder,std::default_delete<IronMan::Core::SDK::UEDecryptBuilder> > > > > > > >,1>::_Get_first
PUBLIC	?_Get_first@?$_Compressed_pair@V?$allocator@V?$_List_unchecked_iterator@V?$_List_val@U?$_List_simple_types@U?$pair@$$CBW4DecryptFunc@SDK@Core@IronMan@@V?$unique_ptr@VUEDecryptBuilder@SDK@Core@IronMan@@U?$default_delete@VUEDecryptBuilder@SDK@Core@IronMan@@@std@@@std@@@std@@@std@@@std@@@std@@@std@@V?$_Vector_val@U?$_Simple_types@V?$_List_unchecked_iterator@V?$_List_val@U?$_List_simple_types@U?$pair@$$CBW4DecryptFunc@SDK@Core@IronMan@@V?$unique_ptr@VUEDecryptBuilder@SDK@Core@IronMan@@U?$default_delete@VUEDecryptBuilder@SDK@Core@IronMan@@@std@@@std@@@std@@@std@@@std@@@std@@@std@@@2@$00@std@@QEBAAEBV?$allocator@V?$_List_unchecked_iterator@V?$_List_val@U?$_List_simple_types@U?$pair@$$CBW4DecryptFunc@SDK@Core@IronMan@@V?$unique_ptr@VUEDecryptBuilder@SDK@Core@IronMan@@U?$default_delete@VUEDecryptBuilder@SDK@Core@IronMan@@@std@@@std@@@std@@@std@@@std@@@std@@@2@XZ ; std::_Compressed_pair<std::allocator<std::_List_unchecked_iterator<std::_List_val<std::_List_simple_types<std::pair<enum IronMan::Core::SDK::DecryptFunc const ,std::unique_ptr<IronMan::Core::SDK::UEDecryptBuilder,std::default_delete<IronMan::Core::SDK::UEDecryptBuilder> > > > > > >,std::_Vector_val<std::_Simple_types<std::_List_unchecked_iterator<std::_List_val<std::_List_simple_types<std::pair<enum IronMan::Core::SDK::DecryptFunc const ,std::unique_ptr<IronMan::Core::SDK::UEDecryptBuilder,std::default_delete<IronMan::Core::SDK::UEDecryptBuilder> > > > > > > >,1>::_Get_first
PUBLIC	??1?$_Hash@V?$_Umap_traits@W4DecryptFunc@SDK@Core@IronMan@@V?$unique_ptr@VUEDecryptBuilder@SDK@Core@IronMan@@U?$default_delete@VUEDecryptBuilder@SDK@Core@IronMan@@@std@@@std@@V?$_Uhash_compare@W4DecryptFunc@SDK@Core@IronMan@@U?$hash@W4DecryptFunc@SDK@Core@IronMan@@@std@@U?$equal_to@W4DecryptFunc@SDK@Core@IronMan@@@6@@6@V?$allocator@U?$pair@$$CBW4DecryptFunc@SDK@Core@IronMan@@V?$unique_ptr@VUEDecryptBuilder@SDK@Core@IronMan@@U?$default_delete@VUEDecryptBuilder@SDK@Core@IronMan@@@std@@@std@@@std@@@6@$0A@@std@@@std@@QEAA@XZ ; std::_Hash<std::_Umap_traits<enum IronMan::Core::SDK::DecryptFunc,std::unique_ptr<IronMan::Core::SDK::UEDecryptBuilder,std::default_delete<IronMan::Core::SDK::UEDecryptBuilder> >,std::_Uhash_compare<enum IronMan::Core::SDK::DecryptFunc,std::hash<enum IronMan::Core::SDK::DecryptFunc>,std::equal_to<enum IronMan::Core::SDK::DecryptFunc> >,std::allocator<std::pair<enum IronMan::Core::SDK::DecryptFunc const ,std::unique_ptr<IronMan::Core::SDK::UEDecryptBuilder,std::default_delete<IronMan::Core::SDK::UEDecryptBuilder> > > >,0> >::~_Hash<std::_Umap_traits<enum IronMan::Core::SDK::DecryptFunc,std::unique_ptr<IronMan::Core::SDK::UEDecryptBuilder,std::default_delete<IronMan::Core::SDK::UEDecryptBuilder> >,std::_Uhash_compare<enum IronMan::Core::SDK::DecryptFunc,std::hash<enum IronMan::Core::SDK::DecryptFunc>,std::equal_to<enum IronMan::Core::SDK::DecryptFunc> >,std::allocator<std::pair<enum IronMan::Core::SDK::DecryptFunc const ,std::unique_ptr<IronMan::Core::SDK::UEDecryptBuilder,std::default_delete<IronMan::Core::SDK::UEDecryptBuilder> > > >,0> >
PUBLIC	??0?$unordered_map@W4DecryptFunc@SDK@Core@IronMan@@V?$unique_ptr@VUEDecryptBuilder@SDK@Core@IronMan@@U?$default_delete@VUEDecryptBuilder@SDK@Core@IronMan@@@std@@@std@@U?$hash@W4DecryptFunc@SDK@Core@IronMan@@@6@U?$equal_to@W4DecryptFunc@SDK@Core@IronMan@@@6@V?$allocator@U?$pair@$$CBW4DecryptFunc@SDK@Core@IronMan@@V?$unique_ptr@VUEDecryptBuilder@SDK@Core@IronMan@@U?$default_delete@VUEDecryptBuilder@SDK@Core@IronMan@@@std@@@std@@@std@@@6@@std@@QEAA@XZ ; std::unordered_map<enum IronMan::Core::SDK::DecryptFunc,std::unique_ptr<IronMan::Core::SDK::UEDecryptBuilder,std::default_delete<IronMan::Core::SDK::UEDecryptBuilder> >,std::hash<enum IronMan::Core::SDK::DecryptFunc>,std::equal_to<enum IronMan::Core::SDK::DecryptFunc>,std::allocator<std::pair<enum IronMan::Core::SDK::DecryptFunc const ,std::unique_ptr<IronMan::Core::SDK::UEDecryptBuilder,std::default_delete<IronMan::Core::SDK::UEDecryptBuilder> > > > >::unordered_map<enum IronMan::Core::SDK::DecryptFunc,std::unique_ptr<IronMan::Core::SDK::UEDecryptBuilder,std::default_delete<IronMan::Core::SDK::UEDecryptBuilder> >,std::hash<enum IronMan::Core::SDK::DecryptFunc>,std::equal_to<enum IronMan::Core::SDK::DecryptFunc>,std::allocator<std::pair<enum IronMan::Core::SDK::DecryptFunc const ,std::unique_ptr<IronMan::Core::SDK::UEDecryptBuilder,std::default_delete<IronMan::Core::SDK::UEDecryptBuilder> > > > >
PUBLIC	??A?$unordered_map@W4DecryptFunc@SDK@Core@IronMan@@V?$unique_ptr@VUEDecryptBuilder@SDK@Core@IronMan@@U?$default_delete@VUEDecryptBuilder@SDK@Core@IronMan@@@std@@@std@@U?$hash@W4DecryptFunc@SDK@Core@IronMan@@@6@U?$equal_to@W4DecryptFunc@SDK@Core@IronMan@@@6@V?$allocator@U?$pair@$$CBW4DecryptFunc@SDK@Core@IronMan@@V?$unique_ptr@VUEDecryptBuilder@SDK@Core@IronMan@@U?$default_delete@VUEDecryptBuilder@SDK@Core@IronMan@@@std@@@std@@@std@@@6@@std@@QEAAAEAV?$unique_ptr@VUEDecryptBuilder@SDK@Core@IronMan@@U?$default_delete@VUEDecryptBuilder@SDK@Core@IronMan@@@std@@@1@$$QEAW4DecryptFunc@SDK@Core@IronMan@@@Z ; std::unordered_map<enum IronMan::Core::SDK::DecryptFunc,std::unique_ptr<IronMan::Core::SDK::UEDecryptBuilder,std::default_delete<IronMan::Core::SDK::UEDecryptBuilder> >,std::hash<enum IronMan::Core::SDK::DecryptFunc>,std::equal_to<enum IronMan::Core::SDK::DecryptFunc>,std::allocator<std::pair<enum IronMan::Core::SDK::DecryptFunc const ,std::unique_ptr<IronMan::Core::SDK::UEDecryptBuilder,std::default_delete<IronMan::Core::SDK::UEDecryptBuilder> > > > >::operator[]
PUBLIC	??1?$unordered_map@W4DecryptFunc@SDK@Core@IronMan@@V?$unique_ptr@VUEDecryptBuilder@SDK@Core@IronMan@@U?$default_delete@VUEDecryptBuilder@SDK@Core@IronMan@@@std@@@std@@U?$hash@W4DecryptFunc@SDK@Core@IronMan@@@6@U?$equal_to@W4DecryptFunc@SDK@Core@IronMan@@@6@V?$allocator@U?$pair@$$CBW4DecryptFunc@SDK@Core@IronMan@@V?$unique_ptr@VUEDecryptBuilder@SDK@Core@IronMan@@U?$default_delete@VUEDecryptBuilder@SDK@Core@IronMan@@@std@@@std@@@std@@@6@@std@@QEAA@XZ ; std::unordered_map<enum IronMan::Core::SDK::DecryptFunc,std::unique_ptr<IronMan::Core::SDK::UEDecryptBuilder,std::default_delete<IronMan::Core::SDK::UEDecryptBuilder> >,std::hash<enum IronMan::Core::SDK::DecryptFunc>,std::equal_to<enum IronMan::Core::SDK::DecryptFunc>,std::allocator<std::pair<enum IronMan::Core::SDK::DecryptFunc const ,std::unique_ptr<IronMan::Core::SDK::UEDecryptBuilder,std::default_delete<IronMan::Core::SDK::UEDecryptBuilder> > > > >::~unordered_map<enum IronMan::Core::SDK::DecryptFunc,std::unique_ptr<IronMan::Core::SDK::UEDecryptBuilder,std::default_delete<IronMan::Core::SDK::UEDecryptBuilder> >,std::hash<enum IronMan::Core::SDK::DecryptFunc>,std::equal_to<enum IronMan::Core::SDK::DecryptFunc>,std::allocator<std::pair<enum IronMan::Core::SDK::DecryptFunc const ,std::unique_ptr<IronMan::Core::SDK::UEDecryptBuilder,std::default_delete<IronMan::Core::SDK::UEDecryptBuilder> > > > >
PUBLIC	??0?$allocator@V?$unique_ptr@VAnalysisBase@Analysis@IronMan@@U?$default_delete@VAnalysisBase@Analysis@IronMan@@@std@@@std@@@std@@QEAA@XZ ; std::allocator<std::unique_ptr<IronMan::Analysis::AnalysisBase,std::default_delete<IronMan::Analysis::AnalysisBase> > >::allocator<std::unique_ptr<IronMan::Analysis::AnalysisBase,std::default_delete<IronMan::Analysis::AnalysisBase> > >
PUBLIC	?deallocate@?$allocator@V?$unique_ptr@VAnalysisBase@Analysis@IronMan@@U?$default_delete@VAnalysisBase@Analysis@IronMan@@@std@@@std@@@std@@QEAAXQEAV?$unique_ptr@VAnalysisBase@Analysis@IronMan@@U?$default_delete@VAnalysisBase@Analysis@IronMan@@@std@@@2@_K@Z ; std::allocator<std::unique_ptr<IronMan::Analysis::AnalysisBase,std::default_delete<IronMan::Analysis::AnalysisBase> > >::deallocate
PUBLIC	?allocate@?$allocator@V?$unique_ptr@VAnalysisBase@Analysis@IronMan@@U?$default_delete@VAnalysisBase@Analysis@IronMan@@@std@@@std@@@std@@QEAAPEAV?$unique_ptr@VAnalysisBase@Analysis@IronMan@@U?$default_delete@VAnalysisBase@Analysis@IronMan@@@std@@@2@_K@Z ; std::allocator<std::unique_ptr<IronMan::Analysis::AnalysisBase,std::default_delete<IronMan::Analysis::AnalysisBase> > >::allocate
PUBLIC	?max_size@?$_Default_allocator_traits@V?$allocator@V?$unique_ptr@VAnalysisBase@Analysis@IronMan@@U?$default_delete@VAnalysisBase@Analysis@IronMan@@@std@@@std@@@std@@@std@@SA_KAEBV?$allocator@V?$unique_ptr@VAnalysisBase@Analysis@IronMan@@U?$default_delete@VAnalysisBase@Analysis@IronMan@@@std@@@std@@@2@@Z ; std::_Default_allocator_traits<std::allocator<std::unique_ptr<IronMan::Analysis::AnalysisBase,std::default_delete<IronMan::Analysis::AnalysisBase> > > >::max_size
PUBLIC	??0?$vector@V?$unique_ptr@VAnalysisBase@Analysis@IronMan@@U?$default_delete@VAnalysisBase@Analysis@IronMan@@@std@@@std@@V?$allocator@V?$unique_ptr@VAnalysisBase@Analysis@IronMan@@U?$default_delete@VAnalysisBase@Analysis@IronMan@@@std@@@std@@@2@@std@@QEAA@XZ ; std::vector<std::unique_ptr<IronMan::Analysis::AnalysisBase,std::default_delete<IronMan::Analysis::AnalysisBase> >,std::allocator<std::unique_ptr<IronMan::Analysis::AnalysisBase,std::default_delete<IronMan::Analysis::AnalysisBase> > > >::vector<std::unique_ptr<IronMan::Analysis::AnalysisBase,std::default_delete<IronMan::Analysis::AnalysisBase> >,std::allocator<std::unique_ptr<IronMan::Analysis::AnalysisBase,std::default_delete<IronMan::Analysis::AnalysisBase> > > >
PUBLIC	??1?$vector@V?$unique_ptr@VAnalysisBase@Analysis@IronMan@@U?$default_delete@VAnalysisBase@Analysis@IronMan@@@std@@@std@@V?$allocator@V?$unique_ptr@VAnalysisBase@Analysis@IronMan@@U?$default_delete@VAnalysisBase@Analysis@IronMan@@@std@@@std@@@2@@std@@QEAA@XZ ; std::vector<std::unique_ptr<IronMan::Analysis::AnalysisBase,std::default_delete<IronMan::Analysis::AnalysisBase> >,std::allocator<std::unique_ptr<IronMan::Analysis::AnalysisBase,std::default_delete<IronMan::Analysis::AnalysisBase> > > >::~vector<std::unique_ptr<IronMan::Analysis::AnalysisBase,std::default_delete<IronMan::Analysis::AnalysisBase> >,std::allocator<std::unique_ptr<IronMan::Analysis::AnalysisBase,std::default_delete<IronMan::Analysis::AnalysisBase> > > >
PUBLIC	?push_back@?$vector@V?$unique_ptr@VAnalysisBase@Analysis@IronMan@@U?$default_delete@VAnalysisBase@Analysis@IronMan@@@std@@@std@@V?$allocator@V?$unique_ptr@VAnalysisBase@Analysis@IronMan@@U?$default_delete@VAnalysisBase@Analysis@IronMan@@@std@@@std@@@2@@std@@QEAAX$$QEAV?$unique_ptr@VAnalysisBase@Analysis@IronMan@@U?$default_delete@VAnalysisBase@Analysis@IronMan@@@std@@@2@@Z ; std::vector<std::unique_ptr<IronMan::Analysis::AnalysisBase,std::default_delete<IronMan::Analysis::AnalysisBase> >,std::allocator<std::unique_ptr<IronMan::Analysis::AnalysisBase,std::default_delete<IronMan::Analysis::AnalysisBase> > > >::push_back
PUBLIC	?clear@?$vector@V?$unique_ptr@VAnalysisBase@Analysis@IronMan@@U?$default_delete@VAnalysisBase@Analysis@IronMan@@@std@@@std@@V?$allocator@V?$unique_ptr@VAnalysisBase@Analysis@IronMan@@U?$default_delete@VAnalysisBase@Analysis@IronMan@@@std@@@std@@@2@@std@@QEAAXXZ ; std::vector<std::unique_ptr<IronMan::Analysis::AnalysisBase,std::default_delete<IronMan::Analysis::AnalysisBase> >,std::allocator<std::unique_ptr<IronMan::Analysis::AnalysisBase,std::default_delete<IronMan::Analysis::AnalysisBase> > > >::clear
PUBLIC	?begin@?$vector@V?$unique_ptr@VAnalysisBase@Analysis@IronMan@@U?$default_delete@VAnalysisBase@Analysis@IronMan@@@std@@@std@@V?$allocator@V?$unique_ptr@VAnalysisBase@Analysis@IronMan@@U?$default_delete@VAnalysisBase@Analysis@IronMan@@@std@@@std@@@2@@std@@QEAA?AV?$_Vector_iterator@V?$_Vector_val@U?$_Simple_types@V?$unique_ptr@VAnalysisBase@Analysis@IronMan@@U?$default_delete@VAnalysisBase@Analysis@IronMan@@@std@@@std@@@std@@@std@@@2@XZ ; std::vector<std::unique_ptr<IronMan::Analysis::AnalysisBase,std::default_delete<IronMan::Analysis::AnalysisBase> >,std::allocator<std::unique_ptr<IronMan::Analysis::AnalysisBase,std::default_delete<IronMan::Analysis::AnalysisBase> > > >::begin
PUBLIC	?end@?$vector@V?$unique_ptr@VAnalysisBase@Analysis@IronMan@@U?$default_delete@VAnalysisBase@Analysis@IronMan@@@std@@@std@@V?$allocator@V?$unique_ptr@VAnalysisBase@Analysis@IronMan@@U?$default_delete@VAnalysisBase@Analysis@IronMan@@@std@@@std@@@2@@std@@QEAA?AV?$_Vector_iterator@V?$_Vector_val@U?$_Simple_types@V?$unique_ptr@VAnalysisBase@Analysis@IronMan@@U?$default_delete@VAnalysisBase@Analysis@IronMan@@@std@@@std@@@std@@@std@@@2@XZ ; std::vector<std::unique_ptr<IronMan::Analysis::AnalysisBase,std::default_delete<IronMan::Analysis::AnalysisBase> >,std::allocator<std::unique_ptr<IronMan::Analysis::AnalysisBase,std::default_delete<IronMan::Analysis::AnalysisBase> > > >::end
PUBLIC	?max_size@?$vector@V?$unique_ptr@VAnalysisBase@Analysis@IronMan@@U?$default_delete@VAnalysisBase@Analysis@IronMan@@@std@@@std@@V?$allocator@V?$unique_ptr@VAnalysisBase@Analysis@IronMan@@U?$default_delete@VAnalysisBase@Analysis@IronMan@@@std@@@std@@@2@@std@@QEBA_KXZ ; std::vector<std::unique_ptr<IronMan::Analysis::AnalysisBase,std::default_delete<IronMan::Analysis::AnalysisBase> >,std::allocator<std::unique_ptr<IronMan::Analysis::AnalysisBase,std::default_delete<IronMan::Analysis::AnalysisBase> > > >::max_size
PUBLIC	?capacity@?$vector@V?$unique_ptr@VAnalysisBase@Analysis@IronMan@@U?$default_delete@VAnalysisBase@Analysis@IronMan@@@std@@@std@@V?$allocator@V?$unique_ptr@VAnalysisBase@Analysis@IronMan@@U?$default_delete@VAnalysisBase@Analysis@IronMan@@@std@@@std@@@2@@std@@QEBA_KXZ ; std::vector<std::unique_ptr<IronMan::Analysis::AnalysisBase,std::default_delete<IronMan::Analysis::AnalysisBase> >,std::allocator<std::unique_ptr<IronMan::Analysis::AnalysisBase,std::default_delete<IronMan::Analysis::AnalysisBase> > > >::capacity
PUBLIC	?_Calculate_growth@?$vector@V?$unique_ptr@VAnalysisBase@Analysis@IronMan@@U?$default_delete@VAnalysisBase@Analysis@IronMan@@@std@@@std@@V?$allocator@V?$unique_ptr@VAnalysisBase@Analysis@IronMan@@U?$default_delete@VAnalysisBase@Analysis@IronMan@@@std@@@std@@@2@@std@@AEBA_K_K@Z ; std::vector<std::unique_ptr<IronMan::Analysis::AnalysisBase,std::default_delete<IronMan::Analysis::AnalysisBase> >,std::allocator<std::unique_ptr<IronMan::Analysis::AnalysisBase,std::default_delete<IronMan::Analysis::AnalysisBase> > > >::_Calculate_growth
PUBLIC	?_Change_array@?$vector@V?$unique_ptr@VAnalysisBase@Analysis@IronMan@@U?$default_delete@VAnalysisBase@Analysis@IronMan@@@std@@@std@@V?$allocator@V?$unique_ptr@VAnalysisBase@Analysis@IronMan@@U?$default_delete@VAnalysisBase@Analysis@IronMan@@@std@@@std@@@2@@std@@AEAAXQEAV?$unique_ptr@VAnalysisBase@Analysis@IronMan@@U?$default_delete@VAnalysisBase@Analysis@IronMan@@@std@@@2@_K1@Z ; std::vector<std::unique_ptr<IronMan::Analysis::AnalysisBase,std::default_delete<IronMan::Analysis::AnalysisBase> >,std::allocator<std::unique_ptr<IronMan::Analysis::AnalysisBase,std::default_delete<IronMan::Analysis::AnalysisBase> > > >::_Change_array
PUBLIC	?_Tidy@?$vector@V?$unique_ptr@VAnalysisBase@Analysis@IronMan@@U?$default_delete@VAnalysisBase@Analysis@IronMan@@@std@@@std@@V?$allocator@V?$unique_ptr@VAnalysisBase@Analysis@IronMan@@U?$default_delete@VAnalysisBase@Analysis@IronMan@@@std@@@std@@@2@@std@@AEAAXXZ ; std::vector<std::unique_ptr<IronMan::Analysis::AnalysisBase,std::default_delete<IronMan::Analysis::AnalysisBase> >,std::allocator<std::unique_ptr<IronMan::Analysis::AnalysisBase,std::default_delete<IronMan::Analysis::AnalysisBase> > > >::_Tidy
PUBLIC	?_Xlength@?$vector@V?$unique_ptr@VAnalysisBase@Analysis@IronMan@@U?$default_delete@VAnalysisBase@Analysis@IronMan@@@std@@@std@@V?$allocator@V?$unique_ptr@VAnalysisBase@Analysis@IronMan@@U?$default_delete@VAnalysisBase@Analysis@IronMan@@@std@@@std@@@2@@std@@CAXXZ ; std::vector<std::unique_ptr<IronMan::Analysis::AnalysisBase,std::default_delete<IronMan::Analysis::AnalysisBase> >,std::allocator<std::unique_ptr<IronMan::Analysis::AnalysisBase,std::default_delete<IronMan::Analysis::AnalysisBase> > > >::_Xlength
PUBLIC	?_Orphan_range@?$vector@V?$unique_ptr@VAnalysisBase@Analysis@IronMan@@U?$default_delete@VAnalysisBase@Analysis@IronMan@@@std@@@std@@V?$allocator@V?$unique_ptr@VAnalysisBase@Analysis@IronMan@@U?$default_delete@VAnalysisBase@Analysis@IronMan@@@std@@@std@@@2@@std@@AEBAXPEAV?$unique_ptr@VAnalysisBase@Analysis@IronMan@@U?$default_delete@VAnalysisBase@Analysis@IronMan@@@std@@@2@0@Z ; std::vector<std::unique_ptr<IronMan::Analysis::AnalysisBase,std::default_delete<IronMan::Analysis::AnalysisBase> >,std::allocator<std::unique_ptr<IronMan::Analysis::AnalysisBase,std::default_delete<IronMan::Analysis::AnalysisBase> > > >::_Orphan_range
PUBLIC	?_Getal@?$vector@V?$unique_ptr@VAnalysisBase@Analysis@IronMan@@U?$default_delete@VAnalysisBase@Analysis@IronMan@@@std@@@std@@V?$allocator@V?$unique_ptr@VAnalysisBase@Analysis@IronMan@@U?$default_delete@VAnalysisBase@Analysis@IronMan@@@std@@@std@@@2@@std@@AEAAAEAV?$allocator@V?$unique_ptr@VAnalysisBase@Analysis@IronMan@@U?$default_delete@VAnalysisBase@Analysis@IronMan@@@std@@@std@@@2@XZ ; std::vector<std::unique_ptr<IronMan::Analysis::AnalysisBase,std::default_delete<IronMan::Analysis::AnalysisBase> >,std::allocator<std::unique_ptr<IronMan::Analysis::AnalysisBase,std::default_delete<IronMan::Analysis::AnalysisBase> > > >::_Getal
PUBLIC	?_Getal@?$vector@V?$unique_ptr@VAnalysisBase@Analysis@IronMan@@U?$default_delete@VAnalysisBase@Analysis@IronMan@@@std@@@std@@V?$allocator@V?$unique_ptr@VAnalysisBase@Analysis@IronMan@@U?$default_delete@VAnalysisBase@Analysis@IronMan@@@std@@@std@@@2@@std@@AEBAAEBV?$allocator@V?$unique_ptr@VAnalysisBase@Analysis@IronMan@@U?$default_delete@VAnalysisBase@Analysis@IronMan@@@std@@@std@@@2@XZ ; std::vector<std::unique_ptr<IronMan::Analysis::AnalysisBase,std::default_delete<IronMan::Analysis::AnalysisBase> >,std::allocator<std::unique_ptr<IronMan::Analysis::AnalysisBase,std::default_delete<IronMan::Analysis::AnalysisBase> > > >::_Getal
PUBLIC	??0?$_Vector_val@U?$_Simple_types@V?$unique_ptr@VAnalysisBase@Analysis@IronMan@@U?$default_delete@VAnalysisBase@Analysis@IronMan@@@std@@@std@@@std@@@std@@QEAA@XZ ; std::_Vector_val<std::_Simple_types<std::unique_ptr<IronMan::Analysis::AnalysisBase,std::default_delete<IronMan::Analysis::AnalysisBase> > > >::_Vector_val<std::_Simple_types<std::unique_ptr<IronMan::Analysis::AnalysisBase,std::default_delete<IronMan::Analysis::AnalysisBase> > > >
PUBLIC	?_Get_first@?$_Compressed_pair@V?$allocator@V?$unique_ptr@VAnalysisBase@Analysis@IronMan@@U?$default_delete@VAnalysisBase@Analysis@IronMan@@@std@@@std@@@std@@V?$_Vector_val@U?$_Simple_types@V?$unique_ptr@VAnalysisBase@Analysis@IronMan@@U?$default_delete@VAnalysisBase@Analysis@IronMan@@@std@@@std@@@std@@@2@$00@std@@QEAAAEAV?$allocator@V?$unique_ptr@VAnalysisBase@Analysis@IronMan@@U?$default_delete@VAnalysisBase@Analysis@IronMan@@@std@@@std@@@2@XZ ; std::_Compressed_pair<std::allocator<std::unique_ptr<IronMan::Analysis::AnalysisBase,std::default_delete<IronMan::Analysis::AnalysisBase> > >,std::_Vector_val<std::_Simple_types<std::unique_ptr<IronMan::Analysis::AnalysisBase,std::default_delete<IronMan::Analysis::AnalysisBase> > > >,1>::_Get_first
PUBLIC	?_Get_first@?$_Compressed_pair@V?$allocator@V?$unique_ptr@VAnalysisBase@Analysis@IronMan@@U?$default_delete@VAnalysisBase@Analysis@IronMan@@@std@@@std@@@std@@V?$_Vector_val@U?$_Simple_types@V?$unique_ptr@VAnalysisBase@Analysis@IronMan@@U?$default_delete@VAnalysisBase@Analysis@IronMan@@@std@@@std@@@std@@@2@$00@std@@QEBAAEBV?$allocator@V?$unique_ptr@VAnalysisBase@Analysis@IronMan@@U?$default_delete@VAnalysisBase@Analysis@IronMan@@@std@@@std@@@2@XZ ; std::_Compressed_pair<std::allocator<std::unique_ptr<IronMan::Analysis::AnalysisBase,std::default_delete<IronMan::Analysis::AnalysisBase> > >,std::_Vector_val<std::_Simple_types<std::unique_ptr<IronMan::Analysis::AnalysisBase,std::default_delete<IronMan::Analysis::AnalysisBase> > > >,1>::_Get_first
PUBLIC	??$emplace@W4DecryptFunc@SDK@Core@IronMan@@PEAVUEDecryptBuilder@234@@?$_Hash@V?$_Umap_traits@W4DecryptFunc@SDK@Core@IronMan@@V?$unique_ptr@VUEDecryptBuilder@SDK@Core@IronMan@@U?$default_delete@VUEDecryptBuilder@SDK@Core@IronMan@@@std@@@std@@V?$_Uhash_compare@W4DecryptFunc@SDK@Core@IronMan@@U?$hash@W4DecryptFunc@SDK@Core@IronMan@@@std@@U?$equal_to@W4DecryptFunc@SDK@Core@IronMan@@@6@@6@V?$allocator@U?$pair@$$CBW4DecryptFunc@SDK@Core@IronMan@@V?$unique_ptr@VUEDecryptBuilder@SDK@Core@IronMan@@U?$default_delete@VUEDecryptBuilder@SDK@Core@IronMan@@@std@@@std@@@std@@@6@$0A@@std@@@std@@QEAA?AU?$pair@V?$_List_iterator@V?$_List_val@U?$_List_simple_types@U?$pair@$$CBW4DecryptFunc@SDK@Core@IronMan@@V?$unique_ptr@VUEDecryptBuilder@SDK@Core@IronMan@@U?$default_delete@VUEDecryptBuilder@SDK@Core@IronMan@@@std@@@std@@@std@@@std@@@std@@@std@@_N@1@$$QEAW4DecryptFunc@SDK@Core@IronMan@@$$QEAPEAVUEDecryptBuilder@456@@Z ; std::_Hash<std::_Umap_traits<enum IronMan::Core::SDK::DecryptFunc,std::unique_ptr<IronMan::Core::SDK::UEDecryptBuilder,std::default_delete<IronMan::Core::SDK::UEDecryptBuilder> >,std::_Uhash_compare<enum IronMan::Core::SDK::DecryptFunc,std::hash<enum IronMan::Core::SDK::DecryptFunc>,std::equal_to<enum IronMan::Core::SDK::DecryptFunc> >,std::allocator<std::pair<enum IronMan::Core::SDK::DecryptFunc const ,std::unique_ptr<IronMan::Core::SDK::UEDecryptBuilder,std::default_delete<IronMan::Core::SDK::UEDecryptBuilder> > > >,0> >::emplace<enum IronMan::Core::SDK::DecryptFunc,IronMan::Core::SDK::UEDecryptBuilder *>
PUBLIC	??0?$_List_unchecked_const_iterator@V?$_List_val@U?$_List_simple_types@U?$pair@$$CBW4DecryptFunc@SDK@Core@IronMan@@V?$unique_ptr@VUEDecryptBuilder@SDK@Core@IronMan@@U?$default_delete@VUEDecryptBuilder@SDK@Core@IronMan@@@std@@@std@@@std@@@std@@@std@@U_Iterator_base0@2@@std@@QEAA@PEAU?$_List_node@U?$pair@$$CBW4DecryptFunc@SDK@Core@IronMan@@V?$unique_ptr@VUEDecryptBuilder@SDK@Core@IronMan@@U?$default_delete@VUEDecryptBuilder@SDK@Core@IronMan@@@std@@@std@@@std@@PEAX@1@PEBV?$_List_val@U?$_List_simple_types@U?$pair@$$CBW4DecryptFunc@SDK@Core@IronMan@@V?$unique_ptr@VUEDecryptBuilder@SDK@Core@IronMan@@U?$default_delete@VUEDecryptBuilder@SDK@Core@IronMan@@@std@@@std@@@std@@@std@@@1@@Z ; std::_List_unchecked_const_iterator<std::_List_val<std::_List_simple_types<std::pair<enum IronMan::Core::SDK::DecryptFunc const ,std::unique_ptr<IronMan::Core::SDK::UEDecryptBuilder,std::default_delete<IronMan::Core::SDK::UEDecryptBuilder> > > > >,std::_Iterator_base0>::_List_unchecked_const_iterator<std::_List_val<std::_List_simple_types<std::pair<enum IronMan::Core::SDK::DecryptFunc const ,std::unique_ptr<IronMan::Core::SDK::UEDecryptBuilder,std::default_delete<IronMan::Core::SDK::UEDecryptBuilder> > > > >,std::_Iterator_base0>
PUBLIC	??D?$_List_unchecked_const_iterator@V?$_List_val@U?$_List_simple_types@U?$pair@$$CBW4DecryptFunc@SDK@Core@IronMan@@V?$unique_ptr@VUEDecryptBuilder@SDK@Core@IronMan@@U?$default_delete@VUEDecryptBuilder@SDK@Core@IronMan@@@std@@@std@@@std@@@std@@@std@@U_Iterator_base0@2@@std@@QEBAAEBU?$pair@$$CBW4DecryptFunc@SDK@Core@IronMan@@V?$unique_ptr@VUEDecryptBuilder@SDK@Core@IronMan@@U?$default_delete@VUEDecryptBuilder@SDK@Core@IronMan@@@std@@@std@@@1@XZ ; std::_List_unchecked_const_iterator<std::_List_val<std::_List_simple_types<std::pair<enum IronMan::Core::SDK::DecryptFunc const ,std::unique_ptr<IronMan::Core::SDK::UEDecryptBuilder,std::default_delete<IronMan::Core::SDK::UEDecryptBuilder> > > > >,std::_Iterator_base0>::operator*
PUBLIC	??E?$_List_unchecked_const_iterator@V?$_List_val@U?$_List_simple_types@U?$pair@$$CBW4DecryptFunc@SDK@Core@IronMan@@V?$unique_ptr@VUEDecryptBuilder@SDK@Core@IronMan@@U?$default_delete@VUEDecryptBuilder@SDK@Core@IronMan@@@std@@@std@@@std@@@std@@@std@@U_Iterator_base0@2@@std@@QEAAAEAV01@XZ ; std::_List_unchecked_const_iterator<std::_List_val<std::_List_simple_types<std::pair<enum IronMan::Core::SDK::DecryptFunc const ,std::unique_ptr<IronMan::Core::SDK::UEDecryptBuilder,std::default_delete<IronMan::Core::SDK::UEDecryptBuilder> > > > >,std::_Iterator_base0>::operator++
PUBLIC	??F?$_List_unchecked_const_iterator@V?$_List_val@U?$_List_simple_types@U?$pair@$$CBW4DecryptFunc@SDK@Core@IronMan@@V?$unique_ptr@VUEDecryptBuilder@SDK@Core@IronMan@@U?$default_delete@VUEDecryptBuilder@SDK@Core@IronMan@@@std@@@std@@@std@@@std@@@std@@U_Iterator_base0@2@@std@@QEAAAEAV01@XZ ; std::_List_unchecked_const_iterator<std::_List_val<std::_List_simple_types<std::pair<enum IronMan::Core::SDK::DecryptFunc const ,std::unique_ptr<IronMan::Core::SDK::UEDecryptBuilder,std::default_delete<IronMan::Core::SDK::UEDecryptBuilder> > > > >,std::_Iterator_base0>::operator--
PUBLIC	??8?$_List_unchecked_const_iterator@V?$_List_val@U?$_List_simple_types@U?$pair@$$CBW4DecryptFunc@SDK@Core@IronMan@@V?$unique_ptr@VUEDecryptBuilder@SDK@Core@IronMan@@U?$default_delete@VUEDecryptBuilder@SDK@Core@IronMan@@@std@@@std@@@std@@@std@@@std@@U_Iterator_base0@2@@std@@QEBA_NAEBV01@@Z ; std::_List_unchecked_const_iterator<std::_List_val<std::_List_simple_types<std::pair<enum IronMan::Core::SDK::DecryptFunc const ,std::unique_ptr<IronMan::Core::SDK::UEDecryptBuilder,std::default_delete<IronMan::Core::SDK::UEDecryptBuilder> > > > >,std::_Iterator_base0>::operator==
PUBLIC	??9?$_List_unchecked_const_iterator@V?$_List_val@U?$_List_simple_types@U?$pair@$$CBW4DecryptFunc@SDK@Core@IronMan@@V?$unique_ptr@VUEDecryptBuilder@SDK@Core@IronMan@@U?$default_delete@VUEDecryptBuilder@SDK@Core@IronMan@@@std@@@std@@@std@@@std@@@std@@U_Iterator_base0@2@@std@@QEBA_NAEBV01@@Z ; std::_List_unchecked_const_iterator<std::_List_val<std::_List_simple_types<std::pair<enum IronMan::Core::SDK::DecryptFunc const ,std::unique_ptr<IronMan::Core::SDK::UEDecryptBuilder,std::default_delete<IronMan::Core::SDK::UEDecryptBuilder> > > > >,std::_Iterator_base0>::operator!=
PUBLIC	??0?$_List_const_iterator@V?$_List_val@U?$_List_simple_types@U?$pair@$$CBW4DecryptFunc@SDK@Core@IronMan@@V?$unique_ptr@VUEDecryptBuilder@SDK@Core@IronMan@@U?$default_delete@VUEDecryptBuilder@SDK@Core@IronMan@@@std@@@std@@@std@@@std@@@std@@@std@@QEAA@PEAU?$_List_node@U?$pair@$$CBW4DecryptFunc@SDK@Core@IronMan@@V?$unique_ptr@VUEDecryptBuilder@SDK@Core@IronMan@@U?$default_delete@VUEDecryptBuilder@SDK@Core@IronMan@@@std@@@std@@@std@@PEAX@1@PEBV?$_List_val@U?$_List_simple_types@U?$pair@$$CBW4DecryptFunc@SDK@Core@IronMan@@V?$unique_ptr@VUEDecryptBuilder@SDK@Core@IronMan@@U?$default_delete@VUEDecryptBuilder@SDK@Core@IronMan@@@std@@@std@@@std@@@std@@@1@@Z ; std::_List_const_iterator<std::_List_val<std::_List_simple_types<std::pair<enum IronMan::Core::SDK::DecryptFunc const ,std::unique_ptr<IronMan::Core::SDK::UEDecryptBuilder,std::default_delete<IronMan::Core::SDK::UEDecryptBuilder> > > > > >::_List_const_iterator<std::_List_val<std::_List_simple_types<std::pair<enum IronMan::Core::SDK::DecryptFunc const ,std::unique_ptr<IronMan::Core::SDK::UEDecryptBuilder,std::default_delete<IronMan::Core::SDK::UEDecryptBuilder> > > > > >
PUBLIC	??0?$_List_iterator@V?$_List_val@U?$_List_simple_types@U?$pair@$$CBW4DecryptFunc@SDK@Core@IronMan@@V?$unique_ptr@VUEDecryptBuilder@SDK@Core@IronMan@@U?$default_delete@VUEDecryptBuilder@SDK@Core@IronMan@@@std@@@std@@@std@@@std@@@std@@@std@@QEAA@PEAU?$_List_node@U?$pair@$$CBW4DecryptFunc@SDK@Core@IronMan@@V?$unique_ptr@VUEDecryptBuilder@SDK@Core@IronMan@@U?$default_delete@VUEDecryptBuilder@SDK@Core@IronMan@@@std@@@std@@@std@@PEAX@1@PEBV?$_List_val@U?$_List_simple_types@U?$pair@$$CBW4DecryptFunc@SDK@Core@IronMan@@V?$unique_ptr@VUEDecryptBuilder@SDK@Core@IronMan@@U?$default_delete@VUEDecryptBuilder@SDK@Core@IronMan@@@std@@@std@@@std@@@std@@@1@@Z ; std::_List_iterator<std::_List_val<std::_List_simple_types<std::pair<enum IronMan::Core::SDK::DecryptFunc const ,std::unique_ptr<IronMan::Core::SDK::UEDecryptBuilder,std::default_delete<IronMan::Core::SDK::UEDecryptBuilder> > > > > >::_List_iterator<std::_List_val<std::_List_simple_types<std::pair<enum IronMan::Core::SDK::DecryptFunc const ,std::unique_ptr<IronMan::Core::SDK::UEDecryptBuilder,std::default_delete<IronMan::Core::SDK::UEDecryptBuilder> > > > > >
PUBLIC	??R?$default_delete@VUEDecryptBuilder@SDK@Core@IronMan@@@std@@QEBAXPEAVUEDecryptBuilder@SDK@Core@IronMan@@@Z ; std::default_delete<IronMan::Core::SDK::UEDecryptBuilder>::operator()
PUBLIC	??1?$unique_ptr@VUEDecryptBuilder@SDK@Core@IronMan@@U?$default_delete@VUEDecryptBuilder@SDK@Core@IronMan@@@std@@@std@@QEAA@XZ ; std::unique_ptr<IronMan::Core::SDK::UEDecryptBuilder,std::default_delete<IronMan::Core::SDK::UEDecryptBuilder> >::~unique_ptr<IronMan::Core::SDK::UEDecryptBuilder,std::default_delete<IronMan::Core::SDK::UEDecryptBuilder> >
PUBLIC	??C?$unique_ptr@VUEDecryptBuilder@SDK@Core@IronMan@@U?$default_delete@VUEDecryptBuilder@SDK@Core@IronMan@@@std@@@std@@QEBAPEAVUEDecryptBuilder@SDK@Core@IronMan@@XZ ; std::unique_ptr<IronMan::Core::SDK::UEDecryptBuilder,std::default_delete<IronMan::Core::SDK::UEDecryptBuilder> >::operator->
PUBLIC	?_Get_first@?$_Compressed_pair@U?$default_delete@VUEDecryptBuilder@SDK@Core@IronMan@@@std@@PEAVUEDecryptBuilder@SDK@Core@IronMan@@$00@std@@QEAAAEAU?$default_delete@VUEDecryptBuilder@SDK@Core@IronMan@@@2@XZ ; std::_Compressed_pair<std::default_delete<IronMan::Core::SDK::UEDecryptBuilder>,IronMan::Core::SDK::UEDecryptBuilder *,1>::_Get_first
PUBLIC	??0?$_Vector_const_iterator@V?$_Vector_val@U?$_Simple_types@V?$unique_ptr@VAnalysisBase@Analysis@IronMan@@U?$default_delete@VAnalysisBase@Analysis@IronMan@@@std@@@std@@@std@@@std@@@std@@QEAA@PEAV?$unique_ptr@VAnalysisBase@Analysis@IronMan@@U?$default_delete@VAnalysisBase@Analysis@IronMan@@@std@@@1@PEBU_Container_base0@1@@Z ; std::_Vector_const_iterator<std::_Vector_val<std::_Simple_types<std::unique_ptr<IronMan::Analysis::AnalysisBase,std::default_delete<IronMan::Analysis::AnalysisBase> > > > >::_Vector_const_iterator<std::_Vector_val<std::_Simple_types<std::unique_ptr<IronMan::Analysis::AnalysisBase,std::default_delete<IronMan::Analysis::AnalysisBase> > > > >
PUBLIC	??D?$_Vector_const_iterator@V?$_Vector_val@U?$_Simple_types@V?$unique_ptr@VAnalysisBase@Analysis@IronMan@@U?$default_delete@VAnalysisBase@Analysis@IronMan@@@std@@@std@@@std@@@std@@@std@@QEBAAEBV?$unique_ptr@VAnalysisBase@Analysis@IronMan@@U?$default_delete@VAnalysisBase@Analysis@IronMan@@@std@@@1@XZ ; std::_Vector_const_iterator<std::_Vector_val<std::_Simple_types<std::unique_ptr<IronMan::Analysis::AnalysisBase,std::default_delete<IronMan::Analysis::AnalysisBase> > > > >::operator*
PUBLIC	?_Verify_offset@?$_Vector_const_iterator@V?$_Vector_val@U?$_Simple_types@V?$unique_ptr@VAnalysisBase@Analysis@IronMan@@U?$default_delete@VAnalysisBase@Analysis@IronMan@@@std@@@std@@@std@@@std@@@std@@QEBAX_J@Z ; std::_Vector_const_iterator<std::_Vector_val<std::_Simple_types<std::unique_ptr<IronMan::Analysis::AnalysisBase,std::default_delete<IronMan::Analysis::AnalysisBase> > > > >::_Verify_offset
PUBLIC	??Y?$_Vector_const_iterator@V?$_Vector_val@U?$_Simple_types@V?$unique_ptr@VAnalysisBase@Analysis@IronMan@@U?$default_delete@VAnalysisBase@Analysis@IronMan@@@std@@@std@@@std@@@std@@@std@@QEAAAEAV01@_J@Z ; std::_Vector_const_iterator<std::_Vector_val<std::_Simple_types<std::unique_ptr<IronMan::Analysis::AnalysisBase,std::default_delete<IronMan::Analysis::AnalysisBase> > > > >::operator+=
PUBLIC	??Z?$_Vector_const_iterator@V?$_Vector_val@U?$_Simple_types@V?$unique_ptr@VAnalysisBase@Analysis@IronMan@@U?$default_delete@VAnalysisBase@Analysis@IronMan@@@std@@@std@@@std@@@std@@@std@@QEAAAEAV01@_J@Z ; std::_Vector_const_iterator<std::_Vector_val<std::_Simple_types<std::unique_ptr<IronMan::Analysis::AnalysisBase,std::default_delete<IronMan::Analysis::AnalysisBase> > > > >::operator-=
PUBLIC	??8?$_Vector_const_iterator@V?$_Vector_val@U?$_Simple_types@V?$unique_ptr@VAnalysisBase@Analysis@IronMan@@U?$default_delete@VAnalysisBase@Analysis@IronMan@@@std@@@std@@@std@@@std@@@std@@QEBA_NAEBV01@@Z ; std::_Vector_const_iterator<std::_Vector_val<std::_Simple_types<std::unique_ptr<IronMan::Analysis::AnalysisBase,std::default_delete<IronMan::Analysis::AnalysisBase> > > > >::operator==
PUBLIC	?_Compat@?$_Vector_const_iterator@V?$_Vector_val@U?$_Simple_types@V?$unique_ptr@VAnalysisBase@Analysis@IronMan@@U?$default_delete@VAnalysisBase@Analysis@IronMan@@@std@@@std@@@std@@@std@@@std@@QEBAXAEBV12@@Z ; std::_Vector_const_iterator<std::_Vector_val<std::_Simple_types<std::unique_ptr<IronMan::Analysis::AnalysisBase,std::default_delete<IronMan::Analysis::AnalysisBase> > > > >::_Compat
PUBLIC	?_Seek_to@?$_Vector_const_iterator@V?$_Vector_val@U?$_Simple_types@V?$unique_ptr@VAnalysisBase@Analysis@IronMan@@U?$default_delete@VAnalysisBase@Analysis@IronMan@@@std@@@std@@@std@@@std@@@std@@QEAAXPEBV?$unique_ptr@VAnalysisBase@Analysis@IronMan@@U?$default_delete@VAnalysisBase@Analysis@IronMan@@@std@@@2@@Z ; std::_Vector_const_iterator<std::_Vector_val<std::_Simple_types<std::unique_ptr<IronMan::Analysis::AnalysisBase,std::default_delete<IronMan::Analysis::AnalysisBase> > > > >::_Seek_to
PUBLIC	??D?$_Vector_iterator@V?$_Vector_val@U?$_Simple_types@V?$unique_ptr@VAnalysisBase@Analysis@IronMan@@U?$default_delete@VAnalysisBase@Analysis@IronMan@@@std@@@std@@@std@@@std@@@std@@QEBAAEAV?$unique_ptr@VAnalysisBase@Analysis@IronMan@@U?$default_delete@VAnalysisBase@Analysis@IronMan@@@std@@@1@XZ ; std::_Vector_iterator<std::_Vector_val<std::_Simple_types<std::unique_ptr<IronMan::Analysis::AnalysisBase,std::default_delete<IronMan::Analysis::AnalysisBase> > > > >::operator*
PUBLIC	??Z?$_Vector_iterator@V?$_Vector_val@U?$_Simple_types@V?$unique_ptr@VAnalysisBase@Analysis@IronMan@@U?$default_delete@VAnalysisBase@Analysis@IronMan@@@std@@@std@@@std@@@std@@@std@@QEAAAEAV01@_J@Z ; std::_Vector_iterator<std::_Vector_val<std::_Simple_types<std::unique_ptr<IronMan::Analysis::AnalysisBase,std::default_delete<IronMan::Analysis::AnalysisBase> > > > >::operator-=
PUBLIC	??G?$_Vector_iterator@V?$_Vector_val@U?$_Simple_types@V?$unique_ptr@VAnalysisBase@Analysis@IronMan@@U?$default_delete@VAnalysisBase@Analysis@IronMan@@@std@@@std@@@std@@@std@@@std@@QEBA?AV01@_J@Z ; std::_Vector_iterator<std::_Vector_val<std::_Simple_types<std::unique_ptr<IronMan::Analysis::AnalysisBase,std::default_delete<IronMan::Analysis::AnalysisBase> > > > >::operator-
PUBLIC	?_Unwrapped@?$_Vector_iterator@V?$_Vector_val@U?$_Simple_types@V?$unique_ptr@VAnalysisBase@Analysis@IronMan@@U?$default_delete@VAnalysisBase@Analysis@IronMan@@@std@@@std@@@std@@@std@@@std@@QEBAPEAV?$unique_ptr@VAnalysisBase@Analysis@IronMan@@U?$default_delete@VAnalysisBase@Analysis@IronMan@@@std@@@2@XZ ; std::_Vector_iterator<std::_Vector_val<std::_Simple_types<std::unique_ptr<IronMan::Analysis::AnalysisBase,std::default_delete<IronMan::Analysis::AnalysisBase> > > > >::_Unwrapped
PUBLIC	??0?$_Vector_iterator@V?$_Vector_val@U?$_Simple_types@V?$unique_ptr@VAnalysisBase@Analysis@IronMan@@U?$default_delete@VAnalysisBase@Analysis@IronMan@@@std@@@std@@@std@@@std@@@std@@QEAA@PEAV?$unique_ptr@VAnalysisBase@Analysis@IronMan@@U?$default_delete@VAnalysisBase@Analysis@IronMan@@@std@@@1@PEBU_Container_base0@1@@Z ; std::_Vector_iterator<std::_Vector_val<std::_Simple_types<std::unique_ptr<IronMan::Analysis::AnalysisBase,std::default_delete<IronMan::Analysis::AnalysisBase> > > > >::_Vector_iterator<std::_Vector_val<std::_Simple_types<std::unique_ptr<IronMan::Analysis::AnalysisBase,std::default_delete<IronMan::Analysis::AnalysisBase> > > > >
PUBLIC	??R?$default_delete@VAnalysisBase@Analysis@IronMan@@@std@@QEBAXPEAVAnalysisBase@Analysis@IronMan@@@Z ; std::default_delete<IronMan::Analysis::AnalysisBase>::operator()
PUBLIC	??1?$unique_ptr@VAnalysisBase@Analysis@IronMan@@U?$default_delete@VAnalysisBase@Analysis@IronMan@@@std@@@std@@QEAA@XZ ; std::unique_ptr<IronMan::Analysis::AnalysisBase,std::default_delete<IronMan::Analysis::AnalysisBase> >::~unique_ptr<IronMan::Analysis::AnalysisBase,std::default_delete<IronMan::Analysis::AnalysisBase> >
PUBLIC	?get_deleter@?$unique_ptr@VAnalysisBase@Analysis@IronMan@@U?$default_delete@VAnalysisBase@Analysis@IronMan@@@std@@@std@@QEAAAEAU?$default_delete@VAnalysisBase@Analysis@IronMan@@@2@XZ ; std::unique_ptr<IronMan::Analysis::AnalysisBase,std::default_delete<IronMan::Analysis::AnalysisBase> >::get_deleter
PUBLIC	??C?$unique_ptr@VAnalysisBase@Analysis@IronMan@@U?$default_delete@VAnalysisBase@Analysis@IronMan@@@std@@@std@@QEBAPEAVAnalysisBase@Analysis@IronMan@@XZ ; std::unique_ptr<IronMan::Analysis::AnalysisBase,std::default_delete<IronMan::Analysis::AnalysisBase> >::operator->
PUBLIC	?release@?$unique_ptr@VAnalysisBase@Analysis@IronMan@@U?$default_delete@VAnalysisBase@Analysis@IronMan@@@std@@@std@@QEAAPEAVAnalysisBase@Analysis@IronMan@@XZ ; std::unique_ptr<IronMan::Analysis::AnalysisBase,std::default_delete<IronMan::Analysis::AnalysisBase> >::release
PUBLIC	?_Get_first@?$_Compressed_pair@U?$default_delete@VAnalysisBase@Analysis@IronMan@@@std@@PEAVAnalysisBase@Analysis@IronMan@@$00@std@@QEAAAEAU?$default_delete@VAnalysisBase@Analysis@IronMan@@@2@XZ ; std::_Compressed_pair<std::default_delete<IronMan::Analysis::AnalysisBase>,IronMan::Analysis::AnalysisBase *,1>::_Get_first
PUBLIC	??_G?$unique_ptr@VAnalysisBase@Analysis@IronMan@@U?$default_delete@VAnalysisBase@Analysis@IronMan@@@std@@@std@@QEAAPEAXI@Z ; std::unique_ptr<IronMan::Analysis::AnalysisBase,std::default_delete<IronMan::Analysis::AnalysisBase> >::`scalar deleting destructor'
PUBLIC	??$move@AEAPEAVAnalysisBase@Analysis@IronMan@@@std@@YA$$QEAPEAVAnalysisBase@Analysis@IronMan@@AEAPEAV123@@Z ; std::move<IronMan::Analysis::AnalysisBase * &>
PUBLIC	??$?0U?$default_delete@VAnalysisBase@Analysis@IronMan@@@std@@$0A@@?$unique_ptr@VAnalysisBase@Analysis@IronMan@@U?$default_delete@VAnalysisBase@Analysis@IronMan@@@std@@@std@@QEAA@PEAVAnalysisBase@Analysis@IronMan@@@Z ; std::unique_ptr<IronMan::Analysis::AnalysisBase,std::default_delete<IronMan::Analysis::AnalysisBase> >::unique_ptr<IronMan::Analysis::AnalysisBase,std::default_delete<IronMan::Analysis::AnalysisBase> ><std::default_delete<IronMan::Analysis::AnalysisBase>,0>
PUBLIC	??$addressof@V?$_Vector_val@U?$_Simple_types@V?$unique_ptr@VAnalysisBase@Analysis@IronMan@@U?$default_delete@VAnalysisBase@Analysis@IronMan@@@std@@@std@@@std@@@std@@@std@@YAPEAV?$_Vector_val@U?$_Simple_types@V?$unique_ptr@VAnalysisBase@Analysis@IronMan@@U?$default_delete@VAnalysisBase@Analysis@IronMan@@@std@@@std@@@std@@@0@AEAV10@@Z ; std::addressof<std::_Vector_val<std::_Simple_types<std::unique_ptr<IronMan::Analysis::AnalysisBase,std::default_delete<IronMan::Analysis::AnalysisBase> > > > >
PUBLIC	??$_Destroy_range@V?$allocator@V?$unique_ptr@VAnalysisBase@Analysis@IronMan@@U?$default_delete@VAnalysisBase@Analysis@IronMan@@@std@@@std@@@std@@@std@@YAXPEAV?$unique_ptr@VAnalysisBase@Analysis@IronMan@@U?$default_delete@VAnalysisBase@Analysis@IronMan@@@std@@@0@QEAV10@AEAV?$allocator@V?$unique_ptr@VAnalysisBase@Analysis@IronMan@@U?$default_delete@VAnalysisBase@Analysis@IronMan@@@std@@@std@@@0@@Z ; std::_Destroy_range<std::allocator<std::unique_ptr<IronMan::Analysis::AnalysisBase,std::default_delete<IronMan::Analysis::AnalysisBase> > > >
PUBLIC	??$move@AEAV?$unique_ptr@VAnalysisBase@Analysis@IronMan@@U?$default_delete@VAnalysisBase@Analysis@IronMan@@@std@@@std@@@std@@YA$$QEAV?$unique_ptr@VAnalysisBase@Analysis@IronMan@@U?$default_delete@VAnalysisBase@Analysis@IronMan@@@std@@@0@AEAV10@@Z ; std::move<std::unique_ptr<IronMan::Analysis::AnalysisBase,std::default_delete<IronMan::Analysis::AnalysisBase> > &>
PUBLIC	??$_Emplace_one_at_back@V?$unique_ptr@VAnalysisBase@Analysis@IronMan@@U?$default_delete@VAnalysisBase@Analysis@IronMan@@@std@@@std@@@?$vector@V?$unique_ptr@VAnalysisBase@Analysis@IronMan@@U?$default_delete@VAnalysisBase@Analysis@IronMan@@@std@@@std@@V?$allocator@V?$unique_ptr@VAnalysisBase@Analysis@IronMan@@U?$default_delete@VAnalysisBase@Analysis@IronMan@@@std@@@std@@@2@@std@@AEAAAEAV?$unique_ptr@VAnalysisBase@Analysis@IronMan@@U?$default_delete@VAnalysisBase@Analysis@IronMan@@@std@@@1@$$QEAV21@@Z ; std::vector<std::unique_ptr<IronMan::Analysis::AnalysisBase,std::default_delete<IronMan::Analysis::AnalysisBase> >,std::allocator<std::unique_ptr<IronMan::Analysis::AnalysisBase,std::default_delete<IronMan::Analysis::AnalysisBase> > > >::_Emplace_one_at_back<std::unique_ptr<IronMan::Analysis::AnalysisBase,std::default_delete<IronMan::Analysis::AnalysisBase> > >
PUBLIC	??$?0$$V@?$_Compressed_pair@V?$allocator@V?$unique_ptr@VAnalysisBase@Analysis@IronMan@@U?$default_delete@VAnalysisBase@Analysis@IronMan@@@std@@@std@@@std@@V?$_Vector_val@U?$_Simple_types@V?$unique_ptr@VAnalysisBase@Analysis@IronMan@@U?$default_delete@VAnalysisBase@Analysis@IronMan@@@std@@@std@@@std@@@2@$00@std@@QEAA@U_Zero_then_variadic_args_t@1@@Z ; std::_Compressed_pair<std::allocator<std::unique_ptr<IronMan::Analysis::AnalysisBase,std::default_delete<IronMan::Analysis::AnalysisBase> > >,std::_Vector_val<std::_Simple_types<std::unique_ptr<IronMan::Analysis::AnalysisBase,std::default_delete<IronMan::Analysis::AnalysisBase> > > >,1>::_Compressed_pair<std::allocator<std::unique_ptr<IronMan::Analysis::AnalysisBase,std::default_delete<IronMan::Analysis::AnalysisBase> > >,std::_Vector_val<std::_Simple_types<std::unique_ptr<IronMan::Analysis::AnalysisBase,std::default_delete<IronMan::Analysis::AnalysisBase> > > >,1><>
PUBLIC	??$move@AEAW4DecryptFunc@SDK@Core@IronMan@@@std@@YA$$QEAW4DecryptFunc@SDK@Core@IronMan@@AEAW41234@@Z ; std::move<enum IronMan::Core::SDK::DecryptFunc &>
PUBLIC	??$_Try_emplace@W4DecryptFunc@SDK@Core@IronMan@@$$V@?$_Hash@V?$_Umap_traits@W4DecryptFunc@SDK@Core@IronMan@@V?$unique_ptr@VUEDecryptBuilder@SDK@Core@IronMan@@U?$default_delete@VUEDecryptBuilder@SDK@Core@IronMan@@@std@@@std@@V?$_Uhash_compare@W4DecryptFunc@SDK@Core@IronMan@@U?$hash@W4DecryptFunc@SDK@Core@IronMan@@@std@@U?$equal_to@W4DecryptFunc@SDK@Core@IronMan@@@6@@6@V?$allocator@U?$pair@$$CBW4DecryptFunc@SDK@Core@IronMan@@V?$unique_ptr@VUEDecryptBuilder@SDK@Core@IronMan@@U?$default_delete@VUEDecryptBuilder@SDK@Core@IronMan@@@std@@@std@@@std@@@6@$0A@@std@@@std@@IEAA?AU?$pair@PEAU?$_List_node@U?$pair@$$CBW4DecryptFunc@SDK@Core@IronMan@@V?$unique_ptr@VUEDecryptBuilder@SDK@Core@IronMan@@U?$default_delete@VUEDecryptBuilder@SDK@Core@IronMan@@@std@@@std@@@std@@PEAX@std@@_N@1@$$QEAW4DecryptFunc@SDK@Core@IronMan@@@Z ; std::_Hash<std::_Umap_traits<enum IronMan::Core::SDK::DecryptFunc,std::unique_ptr<IronMan::Core::SDK::UEDecryptBuilder,std::default_delete<IronMan::Core::SDK::UEDecryptBuilder> >,std::_Uhash_compare<enum IronMan::Core::SDK::DecryptFunc,std::hash<enum IronMan::Core::SDK::DecryptFunc>,std::equal_to<enum IronMan::Core::SDK::DecryptFunc> >,std::allocator<std::pair<enum IronMan::Core::SDK::DecryptFunc const ,std::unique_ptr<IronMan::Core::SDK::UEDecryptBuilder,std::default_delete<IronMan::Core::SDK::UEDecryptBuilder> > > >,0> >::_Try_emplace<enum IronMan::Core::SDK::DecryptFunc>
PUBLIC	??1?$pair@$$CBW4DecryptFunc@SDK@Core@IronMan@@V?$unique_ptr@VUEDecryptBuilder@SDK@Core@IronMan@@U?$default_delete@VUEDecryptBuilder@SDK@Core@IronMan@@@std@@@std@@@std@@QEAA@XZ ; std::pair<enum IronMan::Core::SDK::DecryptFunc const ,std::unique_ptr<IronMan::Core::SDK::UEDecryptBuilder,std::default_delete<IronMan::Core::SDK::UEDecryptBuilder> > >::~pair<enum IronMan::Core::SDK::DecryptFunc const ,std::unique_ptr<IronMan::Core::SDK::UEDecryptBuilder,std::default_delete<IronMan::Core::SDK::UEDecryptBuilder> > >
PUBLIC	??_G?$pair@$$CBW4DecryptFunc@SDK@Core@IronMan@@V?$unique_ptr@VUEDecryptBuilder@SDK@Core@IronMan@@U?$default_delete@VUEDecryptBuilder@SDK@Core@IronMan@@@std@@@std@@@std@@QEAAPEAXI@Z ; std::pair<enum IronMan::Core::SDK::DecryptFunc const ,std::unique_ptr<IronMan::Core::SDK::UEDecryptBuilder,std::default_delete<IronMan::Core::SDK::UEDecryptBuilder> > >::`scalar deleting destructor'
PUBLIC	??$?RW4DecryptFunc@SDK@Core@IronMan@@@?$_Uhash_compare@W4DecryptFunc@SDK@Core@IronMan@@U?$hash@W4DecryptFunc@SDK@Core@IronMan@@@std@@U?$equal_to@W4DecryptFunc@SDK@Core@IronMan@@@6@@std@@QEBA_KAEBW4DecryptFunc@SDK@Core@IronMan@@@Z ; std::_Uhash_compare<enum IronMan::Core::SDK::DecryptFunc,std::hash<enum IronMan::Core::SDK::DecryptFunc>,std::equal_to<enum IronMan::Core::SDK::DecryptFunc> >::operator()<enum IronMan::Core::SDK::DecryptFunc>
PUBLIC	??D?$_List_unchecked_iterator@V?$_List_val@U?$_List_simple_types@U?$pair@$$CBW4DecryptFunc@SDK@Core@IronMan@@V?$unique_ptr@VUEDecryptBuilder@SDK@Core@IronMan@@U?$default_delete@VUEDecryptBuilder@SDK@Core@IronMan@@@std@@@std@@@std@@@std@@@std@@@std@@QEBAAEAU?$pair@$$CBW4DecryptFunc@SDK@Core@IronMan@@V?$unique_ptr@VUEDecryptBuilder@SDK@Core@IronMan@@U?$default_delete@VUEDecryptBuilder@SDK@Core@IronMan@@@std@@@std@@@1@XZ ; std::_List_unchecked_iterator<std::_List_val<std::_List_simple_types<std::pair<enum IronMan::Core::SDK::DecryptFunc const ,std::unique_ptr<IronMan::Core::SDK::UEDecryptBuilder,std::default_delete<IronMan::Core::SDK::UEDecryptBuilder> > > > > >::operator*
PUBLIC	??E?$_List_unchecked_iterator@V?$_List_val@U?$_List_simple_types@U?$pair@$$CBW4DecryptFunc@SDK@Core@IronMan@@V?$unique_ptr@VUEDecryptBuilder@SDK@Core@IronMan@@U?$default_delete@VUEDecryptBuilder@SDK@Core@IronMan@@@std@@@std@@@std@@@std@@@std@@@std@@QEAAAEAV01@XZ ; std::_List_unchecked_iterator<std::_List_val<std::_List_simple_types<std::pair<enum IronMan::Core::SDK::DecryptFunc const ,std::unique_ptr<IronMan::Core::SDK::UEDecryptBuilder,std::default_delete<IronMan::Core::SDK::UEDecryptBuilder> > > > > >::operator++
PUBLIC	??0?$_List_unchecked_iterator@V?$_List_val@U?$_List_simple_types@U?$pair@$$CBW4DecryptFunc@SDK@Core@IronMan@@V?$unique_ptr@VUEDecryptBuilder@SDK@Core@IronMan@@U?$default_delete@VUEDecryptBuilder@SDK@Core@IronMan@@@std@@@std@@@std@@@std@@@std@@@std@@QEAA@PEAU?$_List_node@U?$pair@$$CBW4DecryptFunc@SDK@Core@IronMan@@V?$unique_ptr@VUEDecryptBuilder@SDK@Core@IronMan@@U?$default_delete@VUEDecryptBuilder@SDK@Core@IronMan@@@std@@@std@@@std@@PEAX@1@PEBV?$_List_val@U?$_List_simple_types@U?$pair@$$CBW4DecryptFunc@SDK@Core@IronMan@@V?$unique_ptr@VUEDecryptBuilder@SDK@Core@IronMan@@U?$default_delete@VUEDecryptBuilder@SDK@Core@IronMan@@@std@@@std@@@std@@@std@@@1@@Z ; std::_List_unchecked_iterator<std::_List_val<std::_List_simple_types<std::pair<enum IronMan::Core::SDK::DecryptFunc const ,std::unique_ptr<IronMan::Core::SDK::UEDecryptBuilder,std::default_delete<IronMan::Core::SDK::UEDecryptBuilder> > > > > >::_List_unchecked_iterator<std::_List_val<std::_List_simple_types<std::pair<enum IronMan::Core::SDK::DecryptFunc const ,std::unique_ptr<IronMan::Core::SDK::UEDecryptBuilder,std::default_delete<IronMan::Core::SDK::UEDecryptBuilder> > > > > >
PUBLIC	??$fill@PEAV?$_List_unchecked_iterator@V?$_List_val@U?$_List_simple_types@U?$pair@$$CBW4DecryptFunc@SDK@Core@IronMan@@V?$unique_ptr@VUEDecryptBuilder@SDK@Core@IronMan@@U?$default_delete@VUEDecryptBuilder@SDK@Core@IronMan@@@std@@@std@@@std@@@std@@@std@@@std@@V12@@std@@YAXQEAV?$_List_unchecked_iterator@V?$_List_val@U?$_List_simple_types@U?$pair@$$CBW4DecryptFunc@SDK@Core@IronMan@@V?$unique_ptr@VUEDecryptBuilder@SDK@Core@IronMan@@U?$default_delete@VUEDecryptBuilder@SDK@Core@IronMan@@@std@@@std@@@std@@@std@@@std@@@0@0AEBV10@@Z ; std::fill<std::_List_unchecked_iterator<std::_List_val<std::_List_simple_types<std::pair<enum IronMan::Core::SDK::DecryptFunc const ,std::unique_ptr<IronMan::Core::SDK::UEDecryptBuilder,std::default_delete<IronMan::Core::SDK::UEDecryptBuilder> > > > > > *,std::_List_unchecked_iterator<std::_List_val<std::_List_simple_types<std::pair<enum IronMan::Core::SDK::DecryptFunc const ,std::unique_ptr<IronMan::Core::SDK::UEDecryptBuilder,std::default_delete<IronMan::Core::SDK::UEDecryptBuilder> > > > > > >
PUBLIC	??$forward@_N@std@@YA$$QEA_NAEA_N@Z		; std::forward<bool>
PUBLIC	??$_Unfancy@D@std@@YAPEADPEAD@Z			; std::_Unfancy<char>
PUBLIC	??$max@_K@std@@YAAEB_KAEB_K0@Z			; std::max<unsigned __int64>
PUBLIC	??$_Max_limit@_J@std@@YA_JXZ			; std::_Max_limit<__int64>
PUBLIC	??$_Destroy_range@PEAV?$_List_unchecked_iterator@V?$_List_val@U?$_List_simple_types@U?$pair@$$CBW4DecryptFunc@SDK@Core@IronMan@@V?$unique_ptr@VUEDecryptBuilder@SDK@Core@IronMan@@U?$default_delete@VUEDecryptBuilder@SDK@Core@IronMan@@@std@@@std@@@std@@@std@@@std@@@std@@PEAV12@@std@@YAXPEAV?$_List_unchecked_iterator@V?$_List_val@U?$_List_simple_types@U?$pair@$$CBW4DecryptFunc@SDK@Core@IronMan@@V?$unique_ptr@VUEDecryptBuilder@SDK@Core@IronMan@@U?$default_delete@VUEDecryptBuilder@SDK@Core@IronMan@@@std@@@std@@@std@@@std@@@std@@@0@QEAV10@@Z ; std::_Destroy_range<std::_List_unchecked_iterator<std::_List_val<std::_List_simple_types<std::pair<enum IronMan::Core::SDK::DecryptFunc const ,std::unique_ptr<IronMan::Core::SDK::UEDecryptBuilder,std::default_delete<IronMan::Core::SDK::UEDecryptBuilder> > > > > > *,std::_List_unchecked_iterator<std::_List_val<std::_List_simple_types<std::pair<enum IronMan::Core::SDK::DecryptFunc const ,std::unique_ptr<IronMan::Core::SDK::UEDecryptBuilder,std::default_delete<IronMan::Core::SDK::UEDecryptBuilder> > > > > > *>
PUBLIC	??0_Range_eraser@?$_Hash@V?$_Umap_traits@W4DecryptFunc@SDK@Core@IronMan@@V?$unique_ptr@VUEDecryptBuilder@SDK@Core@IronMan@@U?$default_delete@VUEDecryptBuilder@SDK@Core@IronMan@@@std@@@std@@V?$_Uhash_compare@W4DecryptFunc@SDK@Core@IronMan@@U?$hash@W4DecryptFunc@SDK@Core@IronMan@@@std@@U?$equal_to@W4DecryptFunc@SDK@Core@IronMan@@@6@@6@V?$allocator@U?$pair@$$CBW4DecryptFunc@SDK@Core@IronMan@@V?$unique_ptr@VUEDecryptBuilder@SDK@Core@IronMan@@U?$default_delete@VUEDecryptBuilder@SDK@Core@IronMan@@@std@@@std@@@std@@@6@$0A@@std@@@std@@QEAA@AEAV?$list@U?$pair@$$CBW4DecryptFunc@SDK@Core@IronMan@@V?$unique_ptr@VUEDecryptBuilder@SDK@Core@IronMan@@U?$default_delete@VUEDecryptBuilder@SDK@Core@IronMan@@@std@@@std@@@std@@V?$allocator@U?$pair@$$CBW4DecryptFunc@SDK@Core@IronMan@@V?$unique_ptr@VUEDecryptBuilder@SDK@Core@IronMan@@U?$default_delete@VUEDecryptBuilder@SDK@Core@IronMan@@@std@@@std@@@std@@@2@@2@QEAU?$_List_node@U?$pair@$$CBW4DecryptFunc@SDK@Core@IronMan@@V?$unique_ptr@VUEDecryptBuilder@SDK@Core@IronMan@@U?$default_delete@VUEDecryptBuilder@SDK@Core@IronMan@@@std@@@std@@@std@@PEAX@2@@Z ; std::_Hash<std::_Umap_traits<enum IronMan::Core::SDK::DecryptFunc,std::unique_ptr<IronMan::Core::SDK::UEDecryptBuilder,std::default_delete<IronMan::Core::SDK::UEDecryptBuilder> >,std::_Uhash_compare<enum IronMan::Core::SDK::DecryptFunc,std::hash<enum IronMan::Core::SDK::DecryptFunc>,std::equal_to<enum IronMan::Core::SDK::DecryptFunc> >,std::allocator<std::pair<enum IronMan::Core::SDK::DecryptFunc const ,std::unique_ptr<IronMan::Core::SDK::UEDecryptBuilder,std::default_delete<IronMan::Core::SDK::UEDecryptBuilder> > > >,0> >::_Range_eraser::_Range_eraser
PUBLIC	?_Bump_erased@_Range_eraser@?$_Hash@V?$_Umap_traits@W4DecryptFunc@SDK@Core@IronMan@@V?$unique_ptr@VUEDecryptBuilder@SDK@Core@IronMan@@U?$default_delete@VUEDecryptBuilder@SDK@Core@IronMan@@@std@@@std@@V?$_Uhash_compare@W4DecryptFunc@SDK@Core@IronMan@@U?$hash@W4DecryptFunc@SDK@Core@IronMan@@@std@@U?$equal_to@W4DecryptFunc@SDK@Core@IronMan@@@6@@6@V?$allocator@U?$pair@$$CBW4DecryptFunc@SDK@Core@IronMan@@V?$unique_ptr@VUEDecryptBuilder@SDK@Core@IronMan@@U?$default_delete@VUEDecryptBuilder@SDK@Core@IronMan@@@std@@@std@@@std@@@6@$0A@@std@@@std@@QEAAXXZ ; std::_Hash<std::_Umap_traits<enum IronMan::Core::SDK::DecryptFunc,std::unique_ptr<IronMan::Core::SDK::UEDecryptBuilder,std::default_delete<IronMan::Core::SDK::UEDecryptBuilder> >,std::_Uhash_compare<enum IronMan::Core::SDK::DecryptFunc,std::hash<enum IronMan::Core::SDK::DecryptFunc>,std::equal_to<enum IronMan::Core::SDK::DecryptFunc> >,std::allocator<std::pair<enum IronMan::Core::SDK::DecryptFunc const ,std::unique_ptr<IronMan::Core::SDK::UEDecryptBuilder,std::default_delete<IronMan::Core::SDK::UEDecryptBuilder> > > >,0> >::_Range_eraser::_Bump_erased
PUBLIC	??1_Range_eraser@?$_Hash@V?$_Umap_traits@W4DecryptFunc@SDK@Core@IronMan@@V?$unique_ptr@VUEDecryptBuilder@SDK@Core@IronMan@@U?$default_delete@VUEDecryptBuilder@SDK@Core@IronMan@@@std@@@std@@V?$_Uhash_compare@W4DecryptFunc@SDK@Core@IronMan@@U?$hash@W4DecryptFunc@SDK@Core@IronMan@@@std@@U?$equal_to@W4DecryptFunc@SDK@Core@IronMan@@@6@@6@V?$allocator@U?$pair@$$CBW4DecryptFunc@SDK@Core@IronMan@@V?$unique_ptr@VUEDecryptBuilder@SDK@Core@IronMan@@U?$default_delete@VUEDecryptBuilder@SDK@Core@IronMan@@@std@@@std@@@std@@@6@$0A@@std@@@std@@QEAA@XZ ; std::_Hash<std::_Umap_traits<enum IronMan::Core::SDK::DecryptFunc,std::unique_ptr<IronMan::Core::SDK::UEDecryptBuilder,std::default_delete<IronMan::Core::SDK::UEDecryptBuilder> >,std::_Uhash_compare<enum IronMan::Core::SDK::DecryptFunc,std::hash<enum IronMan::Core::SDK::DecryptFunc>,std::equal_to<enum IronMan::Core::SDK::DecryptFunc> >,std::allocator<std::pair<enum IronMan::Core::SDK::DecryptFunc const ,std::unique_ptr<IronMan::Core::SDK::UEDecryptBuilder,std::default_delete<IronMan::Core::SDK::UEDecryptBuilder> > > >,0> >::_Range_eraser::~_Range_eraser
PUBLIC	??$_Kfn@$$CBW4DecryptFunc@SDK@Core@IronMan@@V?$unique_ptr@VUEDecryptBuilder@SDK@Core@IronMan@@U?$default_delete@VUEDecryptBuilder@SDK@Core@IronMan@@@std@@@std@@@?$_Umap_traits@W4DecryptFunc@SDK@Core@IronMan@@V?$unique_ptr@VUEDecryptBuilder@SDK@Core@IronMan@@U?$default_delete@VUEDecryptBuilder@SDK@Core@IronMan@@@std@@@std@@V?$_Uhash_compare@W4DecryptFunc@SDK@Core@IronMan@@U?$hash@W4DecryptFunc@SDK@Core@IronMan@@@std@@U?$equal_to@W4DecryptFunc@SDK@Core@IronMan@@@6@@6@V?$allocator@U?$pair@$$CBW4DecryptFunc@SDK@Core@IronMan@@V?$unique_ptr@VUEDecryptBuilder@SDK@Core@IronMan@@U?$default_delete@VUEDecryptBuilder@SDK@Core@IronMan@@@std@@@std@@@std@@@6@$0A@@std@@SAAEBW4DecryptFunc@SDK@Core@IronMan@@AEBU?$pair@$$CBW4DecryptFunc@SDK@Core@IronMan@@V?$unique_ptr@VUEDecryptBuilder@SDK@Core@IronMan@@U?$default_delete@VUEDecryptBuilder@SDK@Core@IronMan@@@std@@@std@@@1@@Z ; std::_Umap_traits<enum IronMan::Core::SDK::DecryptFunc,std::unique_ptr<IronMan::Core::SDK::UEDecryptBuilder,std::default_delete<IronMan::Core::SDK::UEDecryptBuilder> >,std::_Uhash_compare<enum IronMan::Core::SDK::DecryptFunc,std::hash<enum IronMan::Core::SDK::DecryptFunc>,std::equal_to<enum IronMan::Core::SDK::DecryptFunc> >,std::allocator<std::pair<enum IronMan::Core::SDK::DecryptFunc const ,std::unique_ptr<IronMan::Core::SDK::UEDecryptBuilder,std::default_delete<IronMan::Core::SDK::UEDecryptBuilder> > > >,0>::_Kfn<enum IronMan::Core::SDK::DecryptFunc const ,std::unique_ptr<IronMan::Core::SDK::UEDecryptBuilder,std::default_delete<IronMan::Core::SDK::UEDecryptBuilder> > >
PUBLIC	??$?0AEBV?$allocator@U?$pair@$$CBW4DecryptFunc@SDK@Core@IronMan@@V?$unique_ptr@VUEDecryptBuilder@SDK@Core@IronMan@@U?$default_delete@VUEDecryptBuilder@SDK@Core@IronMan@@@std@@@std@@@std@@@std@@$0A@@?$_Hash_vec@V?$allocator@V?$_List_unchecked_iterator@V?$_List_val@U?$_List_simple_types@U?$pair@$$CBW4DecryptFunc@SDK@Core@IronMan@@V?$unique_ptr@VUEDecryptBuilder@SDK@Core@IronMan@@U?$default_delete@VUEDecryptBuilder@SDK@Core@IronMan@@@std@@@std@@@std@@@std@@@std@@@std@@@std@@@std@@QEAA@AEBV?$allocator@U?$pair@$$CBW4DecryptFunc@SDK@Core@IronMan@@V?$unique_ptr@VUEDecryptBuilder@SDK@Core@IronMan@@U?$default_delete@VUEDecryptBuilder@SDK@Core@IronMan@@@std@@@std@@@std@@@1@@Z ; std::_Hash_vec<std::allocator<std::_List_unchecked_iterator<std::_List_val<std::_List_simple_types<std::pair<enum IronMan::Core::SDK::DecryptFunc const ,std::unique_ptr<IronMan::Core::SDK::UEDecryptBuilder,std::default_delete<IronMan::Core::SDK::UEDecryptBuilder> > > > > > > >::_Hash_vec<std::allocator<std::_List_unchecked_iterator<std::_List_val<std::_List_simple_types<std::pair<enum IronMan::Core::SDK::DecryptFunc const ,std::unique_ptr<IronMan::Core::SDK::UEDecryptBuilder,std::default_delete<IronMan::Core::SDK::UEDecryptBuilder> > > > > > > ><std::allocator<std::pair<enum IronMan::Core::SDK::DecryptFunc const ,std::unique_ptr<IronMan::Core::SDK::UEDecryptBuilder,std::default_delete<IronMan::Core::SDK::UEDecryptBuilder> > > > const &,0>
PUBLIC	??$_Free_non_head@V?$allocator@U?$_List_node@U?$pair@$$CBW4DecryptFunc@SDK@Core@IronMan@@V?$unique_ptr@VUEDecryptBuilder@SDK@Core@IronMan@@U?$default_delete@VUEDecryptBuilder@SDK@Core@IronMan@@@std@@@std@@@std@@PEAX@std@@@std@@@?$_List_node@U?$pair@$$CBW4DecryptFunc@SDK@Core@IronMan@@V?$unique_ptr@VUEDecryptBuilder@SDK@Core@IronMan@@U?$default_delete@VUEDecryptBuilder@SDK@Core@IronMan@@@std@@@std@@@std@@PEAX@std@@SAXAEAV?$allocator@U?$_List_node@U?$pair@$$CBW4DecryptFunc@SDK@Core@IronMan@@V?$unique_ptr@VUEDecryptBuilder@SDK@Core@IronMan@@U?$default_delete@VUEDecryptBuilder@SDK@Core@IronMan@@@std@@@std@@@std@@PEAX@std@@@1@PEAU01@@Z ; std::_List_node<std::pair<enum IronMan::Core::SDK::DecryptFunc const ,std::unique_ptr<IronMan::Core::SDK::UEDecryptBuilder,std::default_delete<IronMan::Core::SDK::UEDecryptBuilder> > >,void *>::_Free_non_head<std::allocator<std::_List_node<std::pair<enum IronMan::Core::SDK::DecryptFunc const ,std::unique_ptr<IronMan::Core::SDK::UEDecryptBuilder,std::default_delete<IronMan::Core::SDK::UEDecryptBuilder> > >,void *> > >
PUBLIC	??$_Freenode0@V?$allocator@U?$_List_node@U?$pair@$$CBW4DecryptFunc@SDK@Core@IronMan@@V?$unique_ptr@VUEDecryptBuilder@SDK@Core@IronMan@@U?$default_delete@VUEDecryptBuilder@SDK@Core@IronMan@@@std@@@std@@@std@@PEAX@std@@@std@@@?$_List_node@U?$pair@$$CBW4DecryptFunc@SDK@Core@IronMan@@V?$unique_ptr@VUEDecryptBuilder@SDK@Core@IronMan@@U?$default_delete@VUEDecryptBuilder@SDK@Core@IronMan@@@std@@@std@@@std@@PEAX@std@@SAXAEAV?$allocator@U?$_List_node@U?$pair@$$CBW4DecryptFunc@SDK@Core@IronMan@@V?$unique_ptr@VUEDecryptBuilder@SDK@Core@IronMan@@U?$default_delete@VUEDecryptBuilder@SDK@Core@IronMan@@@std@@@std@@@std@@PEAX@std@@@1@PEAU01@@Z ; std::_List_node<std::pair<enum IronMan::Core::SDK::DecryptFunc const ,std::unique_ptr<IronMan::Core::SDK::UEDecryptBuilder,std::default_delete<IronMan::Core::SDK::UEDecryptBuilder> > >,void *>::_Freenode0<std::allocator<std::_List_node<std::pair<enum IronMan::Core::SDK::DecryptFunc const ,std::unique_ptr<IronMan::Core::SDK::UEDecryptBuilder,std::default_delete<IronMan::Core::SDK::UEDecryptBuilder> > >,void *> > >
PUBLIC	??$?0U_Zero_then_variadic_args_t@std@@M@?$_Compressed_pair@U?$hash@W4DecryptFunc@SDK@Core@IronMan@@@std@@V?$_Compressed_pair@U?$equal_to@W4DecryptFunc@SDK@Core@IronMan@@@std@@M$00@2@$00@std@@QEAA@U_Zero_then_variadic_args_t@1@$$QEAU21@$$QEAM@Z ; std::_Compressed_pair<std::hash<enum IronMan::Core::SDK::DecryptFunc>,std::_Compressed_pair<std::equal_to<enum IronMan::Core::SDK::DecryptFunc>,float,1>,1>::_Compressed_pair<std::hash<enum IronMan::Core::SDK::DecryptFunc>,std::_Compressed_pair<std::equal_to<enum IronMan::Core::SDK::DecryptFunc>,float,1>,1><std::_Zero_then_variadic_args_t,float>
PUBLIC	??$?0M@?$_Compressed_pair@U?$equal_to@W4DecryptFunc@SDK@Core@IronMan@@@std@@M$00@std@@QEAA@U_Zero_then_variadic_args_t@1@$$QEAM@Z ; std::_Compressed_pair<std::equal_to<enum IronMan::Core::SDK::DecryptFunc>,float,1>::_Compressed_pair<std::equal_to<enum IronMan::Core::SDK::DecryptFunc>,float,1><float>
PUBLIC	??$_Deallocate@$0BA@@std@@YAXPEAX_K@Z		; std::_Deallocate<16>
PUBLIC	??$_Freenode@V?$allocator@U?$_List_node@U?$pair@$$CBW4DecryptFunc@SDK@Core@IronMan@@V?$unique_ptr@VUEDecryptBuilder@SDK@Core@IronMan@@U?$default_delete@VUEDecryptBuilder@SDK@Core@IronMan@@@std@@@std@@@std@@PEAX@std@@@std@@@?$_List_node@U?$pair@$$CBW4DecryptFunc@SDK@Core@IronMan@@V?$unique_ptr@VUEDecryptBuilder@SDK@Core@IronMan@@U?$default_delete@VUEDecryptBuilder@SDK@Core@IronMan@@@std@@@std@@@std@@PEAX@std@@SAXAEAV?$allocator@U?$_List_node@U?$pair@$$CBW4DecryptFunc@SDK@Core@IronMan@@V?$unique_ptr@VUEDecryptBuilder@SDK@Core@IronMan@@U?$default_delete@VUEDecryptBuilder@SDK@Core@IronMan@@@std@@@std@@@std@@PEAX@std@@@1@PEAU01@@Z ; std::_List_node<std::pair<enum IronMan::Core::SDK::DecryptFunc const ,std::unique_ptr<IronMan::Core::SDK::UEDecryptBuilder,std::default_delete<IronMan::Core::SDK::UEDecryptBuilder> > >,void *>::_Freenode<std::allocator<std::_List_node<std::pair<enum IronMan::Core::SDK::DecryptFunc const ,std::unique_ptr<IronMan::Core::SDK::UEDecryptBuilder,std::default_delete<IronMan::Core::SDK::UEDecryptBuilder> > >,void *> > >
PUBLIC	??$uninitialized_fill@PEAV?$_List_unchecked_iterator@V?$_List_val@U?$_List_simple_types@U?$pair@$$CBW4DecryptFunc@SDK@Core@IronMan@@V?$unique_ptr@VUEDecryptBuilder@SDK@Core@IronMan@@U?$default_delete@VUEDecryptBuilder@SDK@Core@IronMan@@@std@@@std@@@std@@@std@@@std@@@std@@V12@@std@@YAXQEAV?$_List_unchecked_iterator@V?$_List_val@U?$_List_simple_types@U?$pair@$$CBW4DecryptFunc@SDK@Core@IronMan@@V?$unique_ptr@VUEDecryptBuilder@SDK@Core@IronMan@@U?$default_delete@VUEDecryptBuilder@SDK@Core@IronMan@@@std@@@std@@@std@@@std@@@std@@@0@0AEBV10@@Z ; std::uninitialized_fill<std::_List_unchecked_iterator<std::_List_val<std::_List_simple_types<std::pair<enum IronMan::Core::SDK::DecryptFunc const ,std::unique_ptr<IronMan::Core::SDK::UEDecryptBuilder,std::default_delete<IronMan::Core::SDK::UEDecryptBuilder> > > > > > *,std::_List_unchecked_iterator<std::_List_val<std::_List_simple_types<std::pair<enum IronMan::Core::SDK::DecryptFunc const ,std::unique_ptr<IronMan::Core::SDK::UEDecryptBuilder,std::default_delete<IronMan::Core::SDK::UEDecryptBuilder> > > > > > >
PUBLIC	??$?0AEBV?$allocator@U?$pair@$$CBW4DecryptFunc@SDK@Core@IronMan@@V?$unique_ptr@VUEDecryptBuilder@SDK@Core@IronMan@@U?$default_delete@VUEDecryptBuilder@SDK@Core@IronMan@@@std@@@std@@@std@@@std@@$$V@?$_Compressed_pair@V?$allocator@U?$_List_node@U?$pair@$$CBW4DecryptFunc@SDK@Core@IronMan@@V?$unique_ptr@VUEDecryptBuilder@SDK@Core@IronMan@@U?$default_delete@VUEDecryptBuilder@SDK@Core@IronMan@@@std@@@std@@@std@@PEAX@std@@@std@@V?$_List_val@U?$_List_simple_types@U?$pair@$$CBW4DecryptFunc@SDK@Core@IronMan@@V?$unique_ptr@VUEDecryptBuilder@SDK@Core@IronMan@@U?$default_delete@VUEDecryptBuilder@SDK@Core@IronMan@@@std@@@std@@@std@@@std@@@2@$00@std@@QEAA@U_One_then_variadic_args_t@1@AEBV?$allocator@U?$pair@$$CBW4DecryptFunc@SDK@Core@IronMan@@V?$unique_ptr@VUEDecryptBuilder@SDK@Core@IronMan@@U?$default_delete@VUEDecryptBuilder@SDK@Core@IronMan@@@std@@@std@@@std@@@1@@Z ; std::_Compressed_pair<std::allocator<std::_List_node<std::pair<enum IronMan::Core::SDK::DecryptFunc const ,std::unique_ptr<IronMan::Core::SDK::UEDecryptBuilder,std::default_delete<IronMan::Core::SDK::UEDecryptBuilder> > >,void *> >,std::_List_val<std::_List_simple_types<std::pair<enum IronMan::Core::SDK::DecryptFunc const ,std::unique_ptr<IronMan::Core::SDK::UEDecryptBuilder,std::default_delete<IronMan::Core::SDK::UEDecryptBuilder> > > > >,1>::_Compressed_pair<std::allocator<std::_List_node<std::pair<enum IronMan::Core::SDK::DecryptFunc const ,std::unique_ptr<IronMan::Core::SDK::UEDecryptBuilder,std::default_delete<IronMan::Core::SDK::UEDecryptBuilder> > >,void *> >,std::_List_val<std::_List_simple_types<std::pair<enum IronMan::Core::SDK::DecryptFunc const ,std::unique_ptr<IronMan::Core::SDK::UEDecryptBuilder,std::default_delete<IronMan::Core::SDK::UEDecryptBuilder> > > > >,1><std::allocator<std::pair<enum IronMan::Core::SDK::DecryptFunc const ,std::unique_ptr<IronMan::Core::SDK::UEDecryptBuilder,std::default_delete<IronMan::Core::SDK::UEDecryptBuilder> > > > const &>
PUBLIC	??$?0U?$pair@$$CBW4DecryptFunc@SDK@Core@IronMan@@V?$unique_ptr@VUEDecryptBuilder@SDK@Core@IronMan@@U?$default_delete@VUEDecryptBuilder@SDK@Core@IronMan@@@std@@@std@@@std@@@?$allocator@U?$_List_node@U?$pair@$$CBW4DecryptFunc@SDK@Core@IronMan@@V?$unique_ptr@VUEDecryptBuilder@SDK@Core@IronMan@@U?$default_delete@VUEDecryptBuilder@SDK@Core@IronMan@@@std@@@std@@@std@@PEAX@std@@@std@@QEAA@AEBV?$allocator@U?$pair@$$CBW4DecryptFunc@SDK@Core@IronMan@@V?$unique_ptr@VUEDecryptBuilder@SDK@Core@IronMan@@U?$default_delete@VUEDecryptBuilder@SDK@Core@IronMan@@@std@@@std@@@std@@@1@@Z ; std::allocator<std::_List_node<std::pair<enum IronMan::Core::SDK::DecryptFunc const ,std::unique_ptr<IronMan::Core::SDK::UEDecryptBuilder,std::default_delete<IronMan::Core::SDK::UEDecryptBuilder> > >,void *> >::allocator<std::_List_node<std::pair<enum IronMan::Core::SDK::DecryptFunc const ,std::unique_ptr<IronMan::Core::SDK::UEDecryptBuilder,std::default_delete<IronMan::Core::SDK::UEDecryptBuilder> > >,void *> ><std::pair<enum IronMan::Core::SDK::DecryptFunc const ,std::unique_ptr<IronMan::Core::SDK::UEDecryptBuilder,std::default_delete<IronMan::Core::SDK::UEDecryptBuilder> > > >
PUBLIC	??$_Allocate@$0BA@U_Default_allocate_traits@std@@@std@@YAPEAX_K@Z ; std::_Allocate<16,std::_Default_allocate_traits>
PUBLIC	??$_Destroy_in_place@PEAD@std@@YAXAEAPEAD@Z	; std::_Destroy_in_place<char *>
PUBLIC	??$_Get_size_of_n@$07@std@@YA_K_K@Z		; std::_Get_size_of_n<8>
PUBLIC	??$_Construct_in_place@PEAU?$_List_node@U?$pair@$$CBW4DecryptFunc@SDK@Core@IronMan@@V?$unique_ptr@VUEDecryptBuilder@SDK@Core@IronMan@@U?$default_delete@VUEDecryptBuilder@SDK@Core@IronMan@@@std@@@std@@@std@@PEAX@std@@AEAPEAU12@@std@@YAXAEAPEAU?$_List_node@U?$pair@$$CBW4DecryptFunc@SDK@Core@IronMan@@V?$unique_ptr@VUEDecryptBuilder@SDK@Core@IronMan@@U?$default_delete@VUEDecryptBuilder@SDK@Core@IronMan@@@std@@@std@@@std@@PEAX@0@0@Z ; std::_Construct_in_place<std::_List_node<std::pair<enum IronMan::Core::SDK::DecryptFunc const ,std::unique_ptr<IronMan::Core::SDK::UEDecryptBuilder,std::default_delete<IronMan::Core::SDK::UEDecryptBuilder> > >,void *> *,std::_List_node<std::pair<enum IronMan::Core::SDK::DecryptFunc const ,std::unique_ptr<IronMan::Core::SDK::UEDecryptBuilder,std::default_delete<IronMan::Core::SDK::UEDecryptBuilder> > >,void *> * &>
PUBLIC	??$_Get_size_of_n@$0CA@@std@@YA_K_K@Z		; std::_Get_size_of_n<32>
PUBLIC	?_Extract@?$_In_place_key_extract_map_impl@W4DecryptFunc@SDK@Core@IronMan@@W41234@PEAVUEDecryptBuilder@234@@std@@SAAEBW4DecryptFunc@SDK@Core@IronMan@@AEBW43456@AEBQEAVUEDecryptBuilder@456@@Z ; std::_In_place_key_extract_map_impl<enum IronMan::Core::SDK::DecryptFunc,enum IronMan::Core::SDK::DecryptFunc,IronMan::Core::SDK::UEDecryptBuilder *>::_Extract
PUBLIC	??$_Find_last@W4DecryptFunc@SDK@Core@IronMan@@@?$_Hash@V?$_Umap_traits@W4DecryptFunc@SDK@Core@IronMan@@V?$unique_ptr@VUEDecryptBuilder@SDK@Core@IronMan@@U?$default_delete@VUEDecryptBuilder@SDK@Core@IronMan@@@std@@@std@@V?$_Uhash_compare@W4DecryptFunc@SDK@Core@IronMan@@U?$hash@W4DecryptFunc@SDK@Core@IronMan@@@std@@U?$equal_to@W4DecryptFunc@SDK@Core@IronMan@@@6@@6@V?$allocator@U?$pair@$$CBW4DecryptFunc@SDK@Core@IronMan@@V?$unique_ptr@VUEDecryptBuilder@SDK@Core@IronMan@@U?$default_delete@VUEDecryptBuilder@SDK@Core@IronMan@@@std@@@std@@@std@@@6@$0A@@std@@@std@@IEBA?AU?$_Hash_find_last_result@PEAU?$_List_node@U?$pair@$$CBW4DecryptFunc@SDK@Core@IronMan@@V?$unique_ptr@VUEDecryptBuilder@SDK@Core@IronMan@@U?$default_delete@VUEDecryptBuilder@SDK@Core@IronMan@@@std@@@std@@@std@@PEAX@std@@@1@AEBW4DecryptFunc@SDK@Core@IronMan@@_K@Z ; std::_Hash<std::_Umap_traits<enum IronMan::Core::SDK::DecryptFunc,std::unique_ptr<IronMan::Core::SDK::UEDecryptBuilder,std::default_delete<IronMan::Core::SDK::UEDecryptBuilder> >,std::_Uhash_compare<enum IronMan::Core::SDK::DecryptFunc,std::hash<enum IronMan::Core::SDK::DecryptFunc>,std::equal_to<enum IronMan::Core::SDK::DecryptFunc> >,std::allocator<std::pair<enum IronMan::Core::SDK::DecryptFunc const ,std::unique_ptr<IronMan::Core::SDK::UEDecryptBuilder,std::default_delete<IronMan::Core::SDK::UEDecryptBuilder> > > >,0> >::_Find_last<enum IronMan::Core::SDK::DecryptFunc>
PUBLIC	??$?0V?$_List_iterator@V?$_List_val@U?$_List_simple_types@U?$pair@$$CBW4DecryptFunc@SDK@Core@IronMan@@V?$unique_ptr@VUEDecryptBuilder@SDK@Core@IronMan@@U?$default_delete@VUEDecryptBuilder@SDK@Core@IronMan@@@std@@@std@@@std@@@std@@@std@@@std@@_N$0A@@?$pair@V?$_List_iterator@V?$_List_val@U?$_List_simple_types@U?$pair@$$CBW4DecryptFunc@SDK@Core@IronMan@@V?$unique_ptr@VUEDecryptBuilder@SDK@Core@IronMan@@U?$default_delete@VUEDecryptBuilder@SDK@Core@IronMan@@@std@@@std@@@std@@@std@@@std@@@std@@_N@std@@QEAA@$$QEAV?$_List_iterator@V?$_List_val@U?$_List_simple_types@U?$pair@$$CBW4DecryptFunc@SDK@Core@IronMan@@V?$unique_ptr@VUEDecryptBuilder@SDK@Core@IronMan@@U?$default_delete@VUEDecryptBuilder@SDK@Core@IronMan@@@std@@@std@@@std@@@std@@@std@@@1@$$QEA_N@Z ; std::pair<std::_List_iterator<std::_List_val<std::_List_simple_types<std::pair<enum IronMan::Core::SDK::DecryptFunc const ,std::unique_ptr<IronMan::Core::SDK::UEDecryptBuilder,std::default_delete<IronMan::Core::SDK::UEDecryptBuilder> > > > > >,bool>::pair<std::_List_iterator<std::_List_val<std::_List_simple_types<std::pair<enum IronMan::Core::SDK::DecryptFunc const ,std::unique_ptr<IronMan::Core::SDK::UEDecryptBuilder,std::default_delete<IronMan::Core::SDK::UEDecryptBuilder> > > > > >,bool><std::_List_iterator<std::_List_val<std::_List_simple_types<std::pair<enum IronMan::Core::SDK::DecryptFunc const ,std::unique_ptr<IronMan::Core::SDK::UEDecryptBuilder,std::default_delete<IronMan::Core::SDK::UEDecryptBuilder> > > > > >,bool,0>
PUBLIC	??$forward@W4DecryptFunc@SDK@Core@IronMan@@@std@@YA$$QEAW4DecryptFunc@SDK@Core@IronMan@@AEAW41234@@Z ; std::forward<enum IronMan::Core::SDK::DecryptFunc>
PUBLIC	??$forward@PEAVUEDecryptBuilder@SDK@Core@IronMan@@@std@@YA$$QEAPEAVUEDecryptBuilder@SDK@Core@IronMan@@AEAPEAV1234@@Z ; std::forward<IronMan::Core::SDK::UEDecryptBuilder *>
PUBLIC	??0?$_Alloc_construct_ptr@V?$allocator@U?$_List_node@U?$pair@$$CBW4DecryptFunc@SDK@Core@IronMan@@V?$unique_ptr@VUEDecryptBuilder@SDK@Core@IronMan@@U?$default_delete@VUEDecryptBuilder@SDK@Core@IronMan@@@std@@@std@@@std@@PEAX@std@@@std@@@std@@QEAA@AEAV?$allocator@U?$_List_node@U?$pair@$$CBW4DecryptFunc@SDK@Core@IronMan@@V?$unique_ptr@VUEDecryptBuilder@SDK@Core@IronMan@@U?$default_delete@VUEDecryptBuilder@SDK@Core@IronMan@@@std@@@std@@@std@@PEAX@std@@@1@@Z ; std::_Alloc_construct_ptr<std::allocator<std::_List_node<std::pair<enum IronMan::Core::SDK::DecryptFunc const ,std::unique_ptr<IronMan::Core::SDK::UEDecryptBuilder,std::default_delete<IronMan::Core::SDK::UEDecryptBuilder> > >,void *> > >::_Alloc_construct_ptr<std::allocator<std::_List_node<std::pair<enum IronMan::Core::SDK::DecryptFunc const ,std::unique_ptr<IronMan::Core::SDK::UEDecryptBuilder,std::default_delete<IronMan::Core::SDK::UEDecryptBuilder> > >,void *> > >
PUBLIC	?_Release@?$_Alloc_construct_ptr@V?$allocator@U?$_List_node@U?$pair@$$CBW4DecryptFunc@SDK@Core@IronMan@@V?$unique_ptr@VUEDecryptBuilder@SDK@Core@IronMan@@U?$default_delete@VUEDecryptBuilder@SDK@Core@IronMan@@@std@@@std@@@std@@PEAX@std@@@std@@@std@@QEAAPEAU?$_List_node@U?$pair@$$CBW4DecryptFunc@SDK@Core@IronMan@@V?$unique_ptr@VUEDecryptBuilder@SDK@Core@IronMan@@U?$default_delete@VUEDecryptBuilder@SDK@Core@IronMan@@@std@@@std@@@std@@PEAX@2@XZ ; std::_Alloc_construct_ptr<std::allocator<std::_List_node<std::pair<enum IronMan::Core::SDK::DecryptFunc const ,std::unique_ptr<IronMan::Core::SDK::UEDecryptBuilder,std::default_delete<IronMan::Core::SDK::UEDecryptBuilder> > >,void *> > >::_Release
PUBLIC	?_Allocate@?$_Alloc_construct_ptr@V?$allocator@U?$_List_node@U?$pair@$$CBW4DecryptFunc@SDK@Core@IronMan@@V?$unique_ptr@VUEDecryptBuilder@SDK@Core@IronMan@@U?$default_delete@VUEDecryptBuilder@SDK@Core@IronMan@@@std@@@std@@@std@@PEAX@std@@@std@@@std@@QEAAXXZ ; std::_Alloc_construct_ptr<std::allocator<std::_List_node<std::pair<enum IronMan::Core::SDK::DecryptFunc const ,std::unique_ptr<IronMan::Core::SDK::UEDecryptBuilder,std::default_delete<IronMan::Core::SDK::UEDecryptBuilder> > >,void *> > >::_Allocate
PUBLIC	??1?$_Alloc_construct_ptr@V?$allocator@U?$_List_node@U?$pair@$$CBW4DecryptFunc@SDK@Core@IronMan@@V?$unique_ptr@VUEDecryptBuilder@SDK@Core@IronMan@@U?$default_delete@VUEDecryptBuilder@SDK@Core@IronMan@@@std@@@std@@@std@@PEAX@std@@@std@@@std@@QEAA@XZ ; std::_Alloc_construct_ptr<std::allocator<std::_List_node<std::pair<enum IronMan::Core::SDK::DecryptFunc const ,std::unique_ptr<IronMan::Core::SDK::UEDecryptBuilder,std::default_delete<IronMan::Core::SDK::UEDecryptBuilder> > >,void *> > >::~_Alloc_construct_ptr<std::allocator<std::_List_node<std::pair<enum IronMan::Core::SDK::DecryptFunc const ,std::unique_ptr<IronMan::Core::SDK::UEDecryptBuilder,std::default_delete<IronMan::Core::SDK::UEDecryptBuilder> > >,void *> > >
PUBLIC	??1?$_List_node_emplace_op2@V?$allocator@U?$_List_node@U?$pair@$$CBW4DecryptFunc@SDK@Core@IronMan@@V?$unique_ptr@VUEDecryptBuilder@SDK@Core@IronMan@@U?$default_delete@VUEDecryptBuilder@SDK@Core@IronMan@@@std@@@std@@@std@@PEAX@std@@@std@@@std@@QEAA@XZ ; std::_List_node_emplace_op2<std::allocator<std::_List_node<std::pair<enum IronMan::Core::SDK::DecryptFunc const ,std::unique_ptr<IronMan::Core::SDK::UEDecryptBuilder,std::default_delete<IronMan::Core::SDK::UEDecryptBuilder> > >,void *> > >::~_List_node_emplace_op2<std::allocator<std::_List_node<std::pair<enum IronMan::Core::SDK::DecryptFunc const ,std::unique_ptr<IronMan::Core::SDK::UEDecryptBuilder,std::default_delete<IronMan::Core::SDK::UEDecryptBuilder> > >,void *> > >
PUBLIC	??$?0W4DecryptFunc@SDK@Core@IronMan@@PEAVUEDecryptBuilder@123@@?$_List_node_emplace_op2@V?$allocator@U?$_List_node@U?$pair@$$CBW4DecryptFunc@SDK@Core@IronMan@@V?$unique_ptr@VUEDecryptBuilder@SDK@Core@IronMan@@U?$default_delete@VUEDecryptBuilder@SDK@Core@IronMan@@@std@@@std@@@std@@PEAX@std@@@std@@@std@@QEAA@AEAV?$allocator@U?$_List_node@U?$pair@$$CBW4DecryptFunc@SDK@Core@IronMan@@V?$unique_ptr@VUEDecryptBuilder@SDK@Core@IronMan@@U?$default_delete@VUEDecryptBuilder@SDK@Core@IronMan@@@std@@@std@@@std@@PEAX@std@@@1@$$QEAW4DecryptFunc@SDK@Core@IronMan@@$$QEAPEAVUEDecryptBuilder@456@@Z ; std::_List_node_emplace_op2<std::allocator<std::_List_node<std::pair<enum IronMan::Core::SDK::DecryptFunc const ,std::unique_ptr<IronMan::Core::SDK::UEDecryptBuilder,std::default_delete<IronMan::Core::SDK::UEDecryptBuilder> > >,void *> > >::_List_node_emplace_op2<std::allocator<std::_List_node<std::pair<enum IronMan::Core::SDK::DecryptFunc const ,std::unique_ptr<IronMan::Core::SDK::UEDecryptBuilder,std::default_delete<IronMan::Core::SDK::UEDecryptBuilder> > >,void *> > ><enum IronMan::Core::SDK::DecryptFunc,IronMan::Core::SDK::UEDecryptBuilder *>
PUBLIC	??$_Adl_verify_range@V?$_Vector_iterator@V?$_Vector_val@U?$_Simple_types@V?$unique_ptr@VAnalysisBase@Analysis@IronMan@@U?$default_delete@VAnalysisBase@Analysis@IronMan@@@std@@@std@@@std@@@std@@@std@@V12@@std@@YAXAEBV?$_Vector_iterator@V?$_Vector_val@U?$_Simple_types@V?$unique_ptr@VAnalysisBase@Analysis@IronMan@@U?$default_delete@VAnalysisBase@Analysis@IronMan@@@std@@@std@@@std@@@std@@@0@0@Z ; std::_Adl_verify_range<std::_Vector_iterator<std::_Vector_val<std::_Simple_types<std::unique_ptr<IronMan::Analysis::AnalysisBase,std::default_delete<IronMan::Analysis::AnalysisBase> > > > >,std::_Vector_iterator<std::_Vector_val<std::_Simple_types<std::unique_ptr<IronMan::Analysis::AnalysisBase,std::default_delete<IronMan::Analysis::AnalysisBase> > > > > >
PUBLIC	??$_Get_unwrapped@AEAV?$_Vector_iterator@V?$_Vector_val@U?$_Simple_types@V?$unique_ptr@VAnalysisBase@Analysis@IronMan@@U?$default_delete@VAnalysisBase@Analysis@IronMan@@@std@@@std@@@std@@@std@@@std@@@std@@YA?A_TAEAV?$_Vector_iterator@V?$_Vector_val@U?$_Simple_types@V?$unique_ptr@VAnalysisBase@Analysis@IronMan@@U?$default_delete@VAnalysisBase@Analysis@IronMan@@@std@@@std@@@std@@@std@@@0@@Z ; std::_Get_unwrapped<std::_Vector_iterator<std::_Vector_val<std::_Simple_types<std::unique_ptr<IronMan::Analysis::AnalysisBase,std::default_delete<IronMan::Analysis::AnalysisBase> > > > > &>
PUBLIC	??$_Get_unwrapped@AEBV?$_Vector_iterator@V?$_Vector_val@U?$_Simple_types@V?$unique_ptr@VAnalysisBase@Analysis@IronMan@@U?$default_delete@VAnalysisBase@Analysis@IronMan@@@std@@@std@@@std@@@std@@@std@@@std@@YA?A_TAEBV?$_Vector_iterator@V?$_Vector_val@U?$_Simple_types@V?$unique_ptr@VAnalysisBase@Analysis@IronMan@@U?$default_delete@VAnalysisBase@Analysis@IronMan@@@std@@@std@@@std@@@std@@@0@@Z ; std::_Get_unwrapped<std::_Vector_iterator<std::_Vector_val<std::_Simple_types<std::unique_ptr<IronMan::Analysis::AnalysisBase,std::default_delete<IronMan::Analysis::AnalysisBase> > > > > const &>
PUBLIC	??$_Seek_wrapped@V?$_Vector_iterator@V?$_Vector_val@U?$_Simple_types@V?$unique_ptr@VAnalysisBase@Analysis@IronMan@@U?$default_delete@VAnalysisBase@Analysis@IronMan@@@std@@@std@@@std@@@std@@@std@@AEAPEAV?$unique_ptr@VAnalysisBase@Analysis@IronMan@@U?$default_delete@VAnalysisBase@Analysis@IronMan@@@std@@@2@@std@@YAXAEAV?$_Vector_iterator@V?$_Vector_val@U?$_Simple_types@V?$unique_ptr@VAnalysisBase@Analysis@IronMan@@U?$default_delete@VAnalysisBase@Analysis@IronMan@@@std@@@std@@@std@@@std@@@0@AEAPEAV?$unique_ptr@VAnalysisBase@Analysis@IronMan@@U?$default_delete@VAnalysisBase@Analysis@IronMan@@@std@@@0@@Z ; std::_Seek_wrapped<std::_Vector_iterator<std::_Vector_val<std::_Simple_types<std::unique_ptr<IronMan::Analysis::AnalysisBase,std::default_delete<IronMan::Analysis::AnalysisBase> > > > >,std::unique_ptr<IronMan::Analysis::AnalysisBase,std::default_delete<IronMan::Analysis::AnalysisBase> > * &>
PUBLIC	??$?0AEAPEAVAnalysisBase@Analysis@IronMan@@@?$_Compressed_pair@U?$default_delete@VAnalysisBase@Analysis@IronMan@@@std@@PEAVAnalysisBase@Analysis@IronMan@@$00@std@@QEAA@U_Zero_then_variadic_args_t@1@AEAPEAVAnalysisBase@Analysis@IronMan@@@Z ; std::_Compressed_pair<std::default_delete<IronMan::Analysis::AnalysisBase>,IronMan::Analysis::AnalysisBase *,1>::_Compressed_pair<std::default_delete<IronMan::Analysis::AnalysisBase>,IronMan::Analysis::AnalysisBase *,1><IronMan::Analysis::AnalysisBase * &>
PUBLIC	??$_Unfancy@V?$unique_ptr@VAnalysisBase@Analysis@IronMan@@U?$default_delete@VAnalysisBase@Analysis@IronMan@@@std@@@std@@@std@@YAPEAV?$unique_ptr@VAnalysisBase@Analysis@IronMan@@U?$default_delete@VAnalysisBase@Analysis@IronMan@@@std@@@0@PEAV10@@Z ; std::_Unfancy<std::unique_ptr<IronMan::Analysis::AnalysisBase,std::default_delete<IronMan::Analysis::AnalysisBase> > >
PUBLIC	??$destroy@V?$unique_ptr@VAnalysisBase@Analysis@IronMan@@U?$default_delete@VAnalysisBase@Analysis@IronMan@@@std@@@std@@@?$_Default_allocator_traits@V?$allocator@V?$unique_ptr@VAnalysisBase@Analysis@IronMan@@U?$default_delete@VAnalysisBase@Analysis@IronMan@@@std@@@std@@@std@@@std@@SAXAEAV?$allocator@V?$unique_ptr@VAnalysisBase@Analysis@IronMan@@U?$default_delete@VAnalysisBase@Analysis@IronMan@@@std@@@std@@@1@QEAV?$unique_ptr@VAnalysisBase@Analysis@IronMan@@U?$default_delete@VAnalysisBase@Analysis@IronMan@@@std@@@1@@Z ; std::_Default_allocator_traits<std::allocator<std::unique_ptr<IronMan::Analysis::AnalysisBase,std::default_delete<IronMan::Analysis::AnalysisBase> > > >::destroy<std::unique_ptr<IronMan::Analysis::AnalysisBase,std::default_delete<IronMan::Analysis::AnalysisBase> > >
PUBLIC	??$forward@V?$unique_ptr@VAnalysisBase@Analysis@IronMan@@U?$default_delete@VAnalysisBase@Analysis@IronMan@@@std@@@std@@@std@@YA$$QEAV?$unique_ptr@VAnalysisBase@Analysis@IronMan@@U?$default_delete@VAnalysisBase@Analysis@IronMan@@@std@@@0@AEAV10@@Z ; std::forward<std::unique_ptr<IronMan::Analysis::AnalysisBase,std::default_delete<IronMan::Analysis::AnalysisBase> > >
PUBLIC	??$_Emplace_back_with_unused_capacity@V?$unique_ptr@VAnalysisBase@Analysis@IronMan@@U?$default_delete@VAnalysisBase@Analysis@IronMan@@@std@@@std@@@?$vector@V?$unique_ptr@VAnalysisBase@Analysis@IronMan@@U?$default_delete@VAnalysisBase@Analysis@IronMan@@@std@@@std@@V?$allocator@V?$unique_ptr@VAnalysisBase@Analysis@IronMan@@U?$default_delete@VAnalysisBase@Analysis@IronMan@@@std@@@std@@@2@@std@@AEAAAEAV?$unique_ptr@VAnalysisBase@Analysis@IronMan@@U?$default_delete@VAnalysisBase@Analysis@IronMan@@@std@@@1@$$QEAV21@@Z ; std::vector<std::unique_ptr<IronMan::Analysis::AnalysisBase,std::default_delete<IronMan::Analysis::AnalysisBase> >,std::allocator<std::unique_ptr<IronMan::Analysis::AnalysisBase,std::default_delete<IronMan::Analysis::AnalysisBase> > > >::_Emplace_back_with_unused_capacity<std::unique_ptr<IronMan::Analysis::AnalysisBase,std::default_delete<IronMan::Analysis::AnalysisBase> > >
PUBLIC	??$_Emplace_reallocate@V?$unique_ptr@VAnalysisBase@Analysis@IronMan@@U?$default_delete@VAnalysisBase@Analysis@IronMan@@@std@@@std@@@?$vector@V?$unique_ptr@VAnalysisBase@Analysis@IronMan@@U?$default_delete@VAnalysisBase@Analysis@IronMan@@@std@@@std@@V?$allocator@V?$unique_ptr@VAnalysisBase@Analysis@IronMan@@U?$default_delete@VAnalysisBase@Analysis@IronMan@@@std@@@std@@@2@@std@@AEAAPEAV?$unique_ptr@VAnalysisBase@Analysis@IronMan@@U?$default_delete@VAnalysisBase@Analysis@IronMan@@@std@@@1@QEAV21@$$QEAV21@@Z ; std::vector<std::unique_ptr<IronMan::Analysis::AnalysisBase,std::default_delete<IronMan::Analysis::AnalysisBase> >,std::allocator<std::unique_ptr<IronMan::Analysis::AnalysisBase,std::default_delete<IronMan::Analysis::AnalysisBase> > > >::_Emplace_reallocate<std::unique_ptr<IronMan::Analysis::AnalysisBase,std::default_delete<IronMan::Analysis::AnalysisBase> > >
PUBLIC	??$?0AEAPEAU?$_List_node@U?$pair@$$CBW4DecryptFunc@SDK@Core@IronMan@@V?$unique_ptr@VUEDecryptBuilder@SDK@Core@IronMan@@U?$default_delete@VUEDecryptBuilder@SDK@Core@IronMan@@@std@@@std@@@std@@PEAX@std@@_N$0A@@?$pair@PEAU?$_List_node@U?$pair@$$CBW4DecryptFunc@SDK@Core@IronMan@@V?$unique_ptr@VUEDecryptBuilder@SDK@Core@IronMan@@U?$default_delete@VUEDecryptBuilder@SDK@Core@IronMan@@@std@@@std@@@std@@PEAX@std@@_N@std@@QEAA@AEAPEAU?$_List_node@U?$pair@$$CBW4DecryptFunc@SDK@Core@IronMan@@V?$unique_ptr@VUEDecryptBuilder@SDK@Core@IronMan@@U?$default_delete@VUEDecryptBuilder@SDK@Core@IronMan@@@std@@@std@@@std@@PEAX@1@$$QEA_N@Z ; std::pair<std::_List_node<std::pair<enum IronMan::Core::SDK::DecryptFunc const ,std::unique_ptr<IronMan::Core::SDK::UEDecryptBuilder,std::default_delete<IronMan::Core::SDK::UEDecryptBuilder> > >,void *> *,bool>::pair<std::_List_node<std::pair<enum IronMan::Core::SDK::DecryptFunc const ,std::unique_ptr<IronMan::Core::SDK::UEDecryptBuilder,std::default_delete<IronMan::Core::SDK::UEDecryptBuilder> > >,void *> *,bool><std::_List_node<std::pair<enum IronMan::Core::SDK::DecryptFunc const ,std::unique_ptr<IronMan::Core::SDK::UEDecryptBuilder,std::default_delete<IronMan::Core::SDK::UEDecryptBuilder> > >,void *> * &,bool,0>
PUBLIC	??$forward_as_tuple@W4DecryptFunc@SDK@Core@IronMan@@@std@@YA?AV?$tuple@$$QEAW4DecryptFunc@SDK@Core@IronMan@@@0@$$QEAW4DecryptFunc@SDK@Core@IronMan@@@Z ; std::forward_as_tuple<enum IronMan::Core::SDK::DecryptFunc>
PUBLIC	??0?$tuple@$$QEAW4DecryptFunc@SDK@Core@IronMan@@@std@@QEAA@$$QEAV01@@Z ; std::tuple<enum IronMan::Core::SDK::DecryptFunc &&>::tuple<enum IronMan::Core::SDK::DecryptFunc &&>
PUBLIC	??$forward_as_tuple@$$V@std@@YA?AV?$tuple@$$V@0@XZ ; std::forward_as_tuple<>
PUBLIC	??$?0AEBUpiecewise_construct_t@std@@V?$tuple@$$QEAW4DecryptFunc@SDK@Core@IronMan@@@1@V?$tuple@$$V@1@@?$_List_node_emplace_op2@V?$allocator@U?$_List_node@U?$pair@$$CBW4DecryptFunc@SDK@Core@IronMan@@V?$unique_ptr@VUEDecryptBuilder@SDK@Core@IronMan@@U?$default_delete@VUEDecryptBuilder@SDK@Core@IronMan@@@std@@@std@@@std@@PEAX@std@@@std@@@std@@QEAA@AEAV?$allocator@U?$_List_node@U?$pair@$$CBW4DecryptFunc@SDK@Core@IronMan@@V?$unique_ptr@VUEDecryptBuilder@SDK@Core@IronMan@@U?$default_delete@VUEDecryptBuilder@SDK@Core@IronMan@@@std@@@std@@@std@@PEAX@std@@@1@AEBUpiecewise_construct_t@1@$$QEAV?$tuple@$$QEAW4DecryptFunc@SDK@Core@IronMan@@@1@$$QEAV?$tuple@$$V@1@@Z ; std::_List_node_emplace_op2<std::allocator<std::_List_node<std::pair<enum IronMan::Core::SDK::DecryptFunc const ,std::unique_ptr<IronMan::Core::SDK::UEDecryptBuilder,std::default_delete<IronMan::Core::SDK::UEDecryptBuilder> > >,void *> > >::_List_node_emplace_op2<std::allocator<std::_List_node<std::pair<enum IronMan::Core::SDK::DecryptFunc const ,std::unique_ptr<IronMan::Core::SDK::UEDecryptBuilder,std::default_delete<IronMan::Core::SDK::UEDecryptBuilder> > >,void *> > ><std::piecewise_construct_t const &,std::tuple<enum IronMan::Core::SDK::DecryptFunc &&>,std::tuple<> >
PUBLIC	??$?0PEAU?$_List_node@U?$pair@$$CBW4DecryptFunc@SDK@Core@IronMan@@V?$unique_ptr@VUEDecryptBuilder@SDK@Core@IronMan@@U?$default_delete@VUEDecryptBuilder@SDK@Core@IronMan@@@std@@@std@@@std@@PEAX@std@@_N$0A@@?$pair@PEAU?$_List_node@U?$pair@$$CBW4DecryptFunc@SDK@Core@IronMan@@V?$unique_ptr@VUEDecryptBuilder@SDK@Core@IronMan@@U?$default_delete@VUEDecryptBuilder@SDK@Core@IronMan@@@std@@@std@@@std@@PEAX@std@@_N@std@@QEAA@$$QEAPEAU?$_List_node@U?$pair@$$CBW4DecryptFunc@SDK@Core@IronMan@@V?$unique_ptr@VUEDecryptBuilder@SDK@Core@IronMan@@U?$default_delete@VUEDecryptBuilder@SDK@Core@IronMan@@@std@@@std@@@std@@PEAX@1@$$QEA_N@Z ; std::pair<std::_List_node<std::pair<enum IronMan::Core::SDK::DecryptFunc const ,std::unique_ptr<IronMan::Core::SDK::UEDecryptBuilder,std::default_delete<IronMan::Core::SDK::UEDecryptBuilder> > >,void *> *,bool>::pair<std::_List_node<std::pair<enum IronMan::Core::SDK::DecryptFunc const ,std::unique_ptr<IronMan::Core::SDK::UEDecryptBuilder,std::default_delete<IronMan::Core::SDK::UEDecryptBuilder> > >,void *> *,bool><std::_List_node<std::pair<enum IronMan::Core::SDK::DecryptFunc const ,std::unique_ptr<IronMan::Core::SDK::UEDecryptBuilder,std::default_delete<IronMan::Core::SDK::UEDecryptBuilder> > >,void *> *,bool,0>
PUBLIC	??$_Adl_verify_range@PEAV?$_List_unchecked_iterator@V?$_List_val@U?$_List_simple_types@U?$pair@$$CBW4DecryptFunc@SDK@Core@IronMan@@V?$unique_ptr@VUEDecryptBuilder@SDK@Core@IronMan@@U?$default_delete@VUEDecryptBuilder@SDK@Core@IronMan@@@std@@@std@@@std@@@std@@@std@@@std@@PEAV12@@std@@YAXAEBQEAV?$_List_unchecked_iterator@V?$_List_val@U?$_List_simple_types@U?$pair@$$CBW4DecryptFunc@SDK@Core@IronMan@@V?$unique_ptr@VUEDecryptBuilder@SDK@Core@IronMan@@U?$default_delete@VUEDecryptBuilder@SDK@Core@IronMan@@@std@@@std@@@std@@@std@@@std@@@0@0@Z ; std::_Adl_verify_range<std::_List_unchecked_iterator<std::_List_val<std::_List_simple_types<std::pair<enum IronMan::Core::SDK::DecryptFunc const ,std::unique_ptr<IronMan::Core::SDK::UEDecryptBuilder,std::default_delete<IronMan::Core::SDK::UEDecryptBuilder> > > > > > *,std::_List_unchecked_iterator<std::_List_val<std::_List_simple_types<std::pair<enum IronMan::Core::SDK::DecryptFunc const ,std::unique_ptr<IronMan::Core::SDK::UEDecryptBuilder,std::default_delete<IronMan::Core::SDK::UEDecryptBuilder> > > > > > *>
PUBLIC	??$_Get_unwrapped@AEBQEAV?$_List_unchecked_iterator@V?$_List_val@U?$_List_simple_types@U?$pair@$$CBW4DecryptFunc@SDK@Core@IronMan@@V?$unique_ptr@VUEDecryptBuilder@SDK@Core@IronMan@@U?$default_delete@VUEDecryptBuilder@SDK@Core@IronMan@@@std@@@std@@@std@@@std@@@std@@@std@@@std@@YA?A_TAEBQEAV?$_List_unchecked_iterator@V?$_List_val@U?$_List_simple_types@U?$pair@$$CBW4DecryptFunc@SDK@Core@IronMan@@V?$unique_ptr@VUEDecryptBuilder@SDK@Core@IronMan@@U?$default_delete@VUEDecryptBuilder@SDK@Core@IronMan@@@std@@@std@@@std@@@std@@@std@@@0@@Z ; std::_Get_unwrapped<std::_List_unchecked_iterator<std::_List_val<std::_List_simple_types<std::pair<enum IronMan::Core::SDK::DecryptFunc const ,std::unique_ptr<IronMan::Core::SDK::UEDecryptBuilder,std::default_delete<IronMan::Core::SDK::UEDecryptBuilder> > > > > > * const &>
PUBLIC	??$forward@AEBV?$allocator@U?$pair@$$CBW4DecryptFunc@SDK@Core@IronMan@@V?$unique_ptr@VUEDecryptBuilder@SDK@Core@IronMan@@U?$default_delete@VUEDecryptBuilder@SDK@Core@IronMan@@@std@@@std@@@std@@@std@@@std@@YAAEBV?$allocator@U?$pair@$$CBW4DecryptFunc@SDK@Core@IronMan@@V?$unique_ptr@VUEDecryptBuilder@SDK@Core@IronMan@@U?$default_delete@VUEDecryptBuilder@SDK@Core@IronMan@@@std@@@std@@@std@@@0@AEBV10@@Z ; std::forward<std::allocator<std::pair<enum IronMan::Core::SDK::DecryptFunc const ,std::unique_ptr<IronMan::Core::SDK::UEDecryptBuilder,std::default_delete<IronMan::Core::SDK::UEDecryptBuilder> > > > const &>
PUBLIC	??$?0AEBV?$allocator@U?$pair@$$CBW4DecryptFunc@SDK@Core@IronMan@@V?$unique_ptr@VUEDecryptBuilder@SDK@Core@IronMan@@U?$default_delete@VUEDecryptBuilder@SDK@Core@IronMan@@@std@@@std@@@std@@@std@@$$V@?$_Compressed_pair@V?$allocator@V?$_List_unchecked_iterator@V?$_List_val@U?$_List_simple_types@U?$pair@$$CBW4DecryptFunc@SDK@Core@IronMan@@V?$unique_ptr@VUEDecryptBuilder@SDK@Core@IronMan@@U?$default_delete@VUEDecryptBuilder@SDK@Core@IronMan@@@std@@@std@@@std@@@std@@@std@@@std@@@std@@V?$_Vector_val@U?$_Simple_types@V?$_List_unchecked_iterator@V?$_List_val@U?$_List_simple_types@U?$pair@$$CBW4DecryptFunc@SDK@Core@IronMan@@V?$unique_ptr@VUEDecryptBuilder@SDK@Core@IronMan@@U?$default_delete@VUEDecryptBuilder@SDK@Core@IronMan@@@std@@@std@@@std@@@std@@@std@@@std@@@std@@@2@$00@std@@QEAA@U_One_then_variadic_args_t@1@AEBV?$allocator@U?$pair@$$CBW4DecryptFunc@SDK@Core@IronMan@@V?$unique_ptr@VUEDecryptBuilder@SDK@Core@IronMan@@U?$default_delete@VUEDecryptBuilder@SDK@Core@IronMan@@@std@@@std@@@std@@@1@@Z ; std::_Compressed_pair<std::allocator<std::_List_unchecked_iterator<std::_List_val<std::_List_simple_types<std::pair<enum IronMan::Core::SDK::DecryptFunc const ,std::unique_ptr<IronMan::Core::SDK::UEDecryptBuilder,std::default_delete<IronMan::Core::SDK::UEDecryptBuilder> > > > > > >,std::_Vector_val<std::_Simple_types<std::_List_unchecked_iterator<std::_List_val<std::_List_simple_types<std::pair<enum IronMan::Core::SDK::DecryptFunc const ,std::unique_ptr<IronMan::Core::SDK::UEDecryptBuilder,std::default_delete<IronMan::Core::SDK::UEDecryptBuilder> > > > > > > >,1>::_Compressed_pair<std::allocator<std::_List_unchecked_iterator<std::_List_val<std::_List_simple_types<std::pair<enum IronMan::Core::SDK::DecryptFunc const ,std::unique_ptr<IronMan::Core::SDK::UEDecryptBuilder,std::default_delete<IronMan::Core::SDK::UEDecryptBuilder> > > > > > >,std::_Vector_val<std::_Simple_types<std::_List_unchecked_iterator<std::_List_val<std::_List_simple_types<std::pair<enum IronMan::Core::SDK::DecryptFunc const ,std::unique_ptr<IronMan::Core::SDK::UEDecryptBuilder,std::default_delete<IronMan::Core::SDK::UEDecryptBuilder> > > > > > > >,1><std::allocator<std::pair<enum IronMan::Core::SDK::DecryptFunc const ,std::unique_ptr<IronMan::Core::SDK::UEDecryptBuilder,std::default_delete<IronMan::Core::SDK::UEDecryptBuilder> > > > const &>
PUBLIC	??$?0U?$pair@$$CBW4DecryptFunc@SDK@Core@IronMan@@V?$unique_ptr@VUEDecryptBuilder@SDK@Core@IronMan@@U?$default_delete@VUEDecryptBuilder@SDK@Core@IronMan@@@std@@@std@@@std@@@?$allocator@V?$_List_unchecked_iterator@V?$_List_val@U?$_List_simple_types@U?$pair@$$CBW4DecryptFunc@SDK@Core@IronMan@@V?$unique_ptr@VUEDecryptBuilder@SDK@Core@IronMan@@U?$default_delete@VUEDecryptBuilder@SDK@Core@IronMan@@@std@@@std@@@std@@@std@@@std@@@std@@@std@@QEAA@AEBV?$allocator@U?$pair@$$CBW4DecryptFunc@SDK@Core@IronMan@@V?$unique_ptr@VUEDecryptBuilder@SDK@Core@IronMan@@U?$default_delete@VUEDecryptBuilder@SDK@Core@IronMan@@@std@@@std@@@std@@@1@@Z ; std::allocator<std::_List_unchecked_iterator<std::_List_val<std::_List_simple_types<std::pair<enum IronMan::Core::SDK::DecryptFunc const ,std::unique_ptr<IronMan::Core::SDK::UEDecryptBuilder,std::default_delete<IronMan::Core::SDK::UEDecryptBuilder> > > > > > >::allocator<std::_List_unchecked_iterator<std::_List_val<std::_List_simple_types<std::pair<enum IronMan::Core::SDK::DecryptFunc const ,std::unique_ptr<IronMan::Core::SDK::UEDecryptBuilder,std::default_delete<IronMan::Core::SDK::UEDecryptBuilder> > > > > > ><std::pair<enum IronMan::Core::SDK::DecryptFunc const ,std::unique_ptr<IronMan::Core::SDK::UEDecryptBuilder,std::default_delete<IronMan::Core::SDK::UEDecryptBuilder> > > >
PUBLIC	??$_Destroy_in_place@PEAU?$_List_node@U?$pair@$$CBW4DecryptFunc@SDK@Core@IronMan@@V?$unique_ptr@VUEDecryptBuilder@SDK@Core@IronMan@@U?$default_delete@VUEDecryptBuilder@SDK@Core@IronMan@@@std@@@std@@@std@@PEAX@std@@@std@@YAXAEAPEAU?$_List_node@U?$pair@$$CBW4DecryptFunc@SDK@Core@IronMan@@V?$unique_ptr@VUEDecryptBuilder@SDK@Core@IronMan@@U?$default_delete@VUEDecryptBuilder@SDK@Core@IronMan@@@std@@@std@@@std@@PEAX@0@@Z ; std::_Destroy_in_place<std::_List_node<std::pair<enum IronMan::Core::SDK::DecryptFunc const ,std::unique_ptr<IronMan::Core::SDK::UEDecryptBuilder,std::default_delete<IronMan::Core::SDK::UEDecryptBuilder> > >,void *> *>
PUBLIC	??$forward@U_Zero_then_variadic_args_t@std@@@std@@YA$$QEAU_Zero_then_variadic_args_t@0@AEAU10@@Z ; std::forward<std::_Zero_then_variadic_args_t>
PUBLIC	??$forward@M@std@@YA$$QEAMAEAM@Z		; std::forward<float>
PUBLIC	??$addressof@U?$pair@$$CBW4DecryptFunc@SDK@Core@IronMan@@V?$unique_ptr@VUEDecryptBuilder@SDK@Core@IronMan@@U?$default_delete@VUEDecryptBuilder@SDK@Core@IronMan@@@std@@@std@@@std@@@std@@YAPEAU?$pair@$$CBW4DecryptFunc@SDK@Core@IronMan@@V?$unique_ptr@VUEDecryptBuilder@SDK@Core@IronMan@@U?$default_delete@VUEDecryptBuilder@SDK@Core@IronMan@@@std@@@std@@@0@AEAU10@@Z ; std::addressof<std::pair<enum IronMan::Core::SDK::DecryptFunc const ,std::unique_ptr<IronMan::Core::SDK::UEDecryptBuilder,std::default_delete<IronMan::Core::SDK::UEDecryptBuilder> > > >
PUBLIC	??$destroy@U?$pair@$$CBW4DecryptFunc@SDK@Core@IronMan@@V?$unique_ptr@VUEDecryptBuilder@SDK@Core@IronMan@@U?$default_delete@VUEDecryptBuilder@SDK@Core@IronMan@@@std@@@std@@@std@@@?$_Default_allocator_traits@V?$allocator@U?$_List_node@U?$pair@$$CBW4DecryptFunc@SDK@Core@IronMan@@V?$unique_ptr@VUEDecryptBuilder@SDK@Core@IronMan@@U?$default_delete@VUEDecryptBuilder@SDK@Core@IronMan@@@std@@@std@@@std@@PEAX@std@@@std@@@std@@SAXAEAV?$allocator@U?$_List_node@U?$pair@$$CBW4DecryptFunc@SDK@Core@IronMan@@V?$unique_ptr@VUEDecryptBuilder@SDK@Core@IronMan@@U?$default_delete@VUEDecryptBuilder@SDK@Core@IronMan@@@std@@@std@@@std@@PEAX@std@@@1@QEAU?$pair@$$CBW4DecryptFunc@SDK@Core@IronMan@@V?$unique_ptr@VUEDecryptBuilder@SDK@Core@IronMan@@U?$default_delete@VUEDecryptBuilder@SDK@Core@IronMan@@@std@@@std@@@1@@Z ; std::_Default_allocator_traits<std::allocator<std::_List_node<std::pair<enum IronMan::Core::SDK::DecryptFunc const ,std::unique_ptr<IronMan::Core::SDK::UEDecryptBuilder,std::default_delete<IronMan::Core::SDK::UEDecryptBuilder> > >,void *> > >::destroy<std::pair<enum IronMan::Core::SDK::DecryptFunc const ,std::unique_ptr<IronMan::Core::SDK::UEDecryptBuilder,std::default_delete<IronMan::Core::SDK::UEDecryptBuilder> > > >
PUBLIC	??0?$_Uninitialized_backout@PEAV?$_List_unchecked_iterator@V?$_List_val@U?$_List_simple_types@U?$pair@$$CBW4DecryptFunc@SDK@Core@IronMan@@V?$unique_ptr@VUEDecryptBuilder@SDK@Core@IronMan@@U?$default_delete@VUEDecryptBuilder@SDK@Core@IronMan@@@std@@@std@@@std@@@std@@@std@@@std@@@std@@QEAA@PEAV?$_List_unchecked_iterator@V?$_List_val@U?$_List_simple_types@U?$pair@$$CBW4DecryptFunc@SDK@Core@IronMan@@V?$unique_ptr@VUEDecryptBuilder@SDK@Core@IronMan@@U?$default_delete@VUEDecryptBuilder@SDK@Core@IronMan@@@std@@@std@@@std@@@std@@@std@@@1@@Z ; std::_Uninitialized_backout<std::_List_unchecked_iterator<std::_List_val<std::_List_simple_types<std::pair<enum IronMan::Core::SDK::DecryptFunc const ,std::unique_ptr<IronMan::Core::SDK::UEDecryptBuilder,std::default_delete<IronMan::Core::SDK::UEDecryptBuilder> > > > > > *>::_Uninitialized_backout<std::_List_unchecked_iterator<std::_List_val<std::_List_simple_types<std::pair<enum IronMan::Core::SDK::DecryptFunc const ,std::unique_ptr<IronMan::Core::SDK::UEDecryptBuilder,std::default_delete<IronMan::Core::SDK::UEDecryptBuilder> > > > > > *>
PUBLIC	??1?$_Uninitialized_backout@PEAV?$_List_unchecked_iterator@V?$_List_val@U?$_List_simple_types@U?$pair@$$CBW4DecryptFunc@SDK@Core@IronMan@@V?$unique_ptr@VUEDecryptBuilder@SDK@Core@IronMan@@U?$default_delete@VUEDecryptBuilder@SDK@Core@IronMan@@@std@@@std@@@std@@@std@@@std@@@std@@@std@@QEAA@XZ ; std::_Uninitialized_backout<std::_List_unchecked_iterator<std::_List_val<std::_List_simple_types<std::pair<enum IronMan::Core::SDK::DecryptFunc const ,std::unique_ptr<IronMan::Core::SDK::UEDecryptBuilder,std::default_delete<IronMan::Core::SDK::UEDecryptBuilder> > > > > > *>::~_Uninitialized_backout<std::_List_unchecked_iterator<std::_List_val<std::_List_simple_types<std::pair<enum IronMan::Core::SDK::DecryptFunc const ,std::unique_ptr<IronMan::Core::SDK::UEDecryptBuilder,std::default_delete<IronMan::Core::SDK::UEDecryptBuilder> > > > > > *>
PUBLIC	?_Release@?$_Uninitialized_backout@PEAV?$_List_unchecked_iterator@V?$_List_val@U?$_List_simple_types@U?$pair@$$CBW4DecryptFunc@SDK@Core@IronMan@@V?$unique_ptr@VUEDecryptBuilder@SDK@Core@IronMan@@U?$default_delete@VUEDecryptBuilder@SDK@Core@IronMan@@@std@@@std@@@std@@@std@@@std@@@std@@@std@@QEAAPEAV?$_List_unchecked_iterator@V?$_List_val@U?$_List_simple_types@U?$pair@$$CBW4DecryptFunc@SDK@Core@IronMan@@V?$unique_ptr@VUEDecryptBuilder@SDK@Core@IronMan@@U?$default_delete@VUEDecryptBuilder@SDK@Core@IronMan@@@std@@@std@@@std@@@std@@@std@@@2@XZ ; std::_Uninitialized_backout<std::_List_unchecked_iterator<std::_List_val<std::_List_simple_types<std::pair<enum IronMan::Core::SDK::DecryptFunc const ,std::unique_ptr<IronMan::Core::SDK::UEDecryptBuilder,std::default_delete<IronMan::Core::SDK::UEDecryptBuilder> > > > > > *>::_Release
PUBLIC	??$_Emplace_back@AEBV?$_List_unchecked_iterator@V?$_List_val@U?$_List_simple_types@U?$pair@$$CBW4DecryptFunc@SDK@Core@IronMan@@V?$unique_ptr@VUEDecryptBuilder@SDK@Core@IronMan@@U?$default_delete@VUEDecryptBuilder@SDK@Core@IronMan@@@std@@@std@@@std@@@std@@@std@@@std@@@?$_Uninitialized_backout@PEAV?$_List_unchecked_iterator@V?$_List_val@U?$_List_simple_types@U?$pair@$$CBW4DecryptFunc@SDK@Core@IronMan@@V?$unique_ptr@VUEDecryptBuilder@SDK@Core@IronMan@@U?$default_delete@VUEDecryptBuilder@SDK@Core@IronMan@@@std@@@std@@@std@@@std@@@std@@@std@@@std@@QEAAXAEBV?$_List_unchecked_iterator@V?$_List_val@U?$_List_simple_types@U?$pair@$$CBW4DecryptFunc@SDK@Core@IronMan@@V?$unique_ptr@VUEDecryptBuilder@SDK@Core@IronMan@@U?$default_delete@VUEDecryptBuilder@SDK@Core@IronMan@@@std@@@std@@@std@@@std@@@std@@@1@@Z ; std::_Uninitialized_backout<std::_List_unchecked_iterator<std::_List_val<std::_List_simple_types<std::pair<enum IronMan::Core::SDK::DecryptFunc const ,std::unique_ptr<IronMan::Core::SDK::UEDecryptBuilder,std::default_delete<IronMan::Core::SDK::UEDecryptBuilder> > > > > > *>::_Emplace_back<std::_List_unchecked_iterator<std::_List_val<std::_List_simple_types<std::pair<enum IronMan::Core::SDK::DecryptFunc const ,std::unique_ptr<IronMan::Core::SDK::UEDecryptBuilder,std::default_delete<IronMan::Core::SDK::UEDecryptBuilder> > > > > > const &>
PUBLIC	??$_Allocate_manually_vector_aligned@U_Default_allocate_traits@std@@@std@@YAPEAX_K@Z ; std::_Allocate_manually_vector_aligned<std::_Default_allocate_traits>
PUBLIC	??$addressof@PEAU?$_List_node@U?$pair@$$CBW4DecryptFunc@SDK@Core@IronMan@@V?$unique_ptr@VUEDecryptBuilder@SDK@Core@IronMan@@U?$default_delete@VUEDecryptBuilder@SDK@Core@IronMan@@@std@@@std@@@std@@PEAX@std@@@std@@YAPEAPEAU?$_List_node@U?$pair@$$CBW4DecryptFunc@SDK@Core@IronMan@@V?$unique_ptr@VUEDecryptBuilder@SDK@Core@IronMan@@U?$default_delete@VUEDecryptBuilder@SDK@Core@IronMan@@@std@@@std@@@std@@PEAX@0@AEAPEAU10@@Z ; std::addressof<std::_List_node<std::pair<enum IronMan::Core::SDK::DecryptFunc const ,std::unique_ptr<IronMan::Core::SDK::UEDecryptBuilder,std::default_delete<IronMan::Core::SDK::UEDecryptBuilder> > >,void *> *>
PUBLIC	??$forward@AEAPEAU?$_List_node@U?$pair@$$CBW4DecryptFunc@SDK@Core@IronMan@@V?$unique_ptr@VUEDecryptBuilder@SDK@Core@IronMan@@U?$default_delete@VUEDecryptBuilder@SDK@Core@IronMan@@@std@@@std@@@std@@PEAX@std@@@std@@YAAEAPEAU?$_List_node@U?$pair@$$CBW4DecryptFunc@SDK@Core@IronMan@@V?$unique_ptr@VUEDecryptBuilder@SDK@Core@IronMan@@U?$default_delete@VUEDecryptBuilder@SDK@Core@IronMan@@@std@@@std@@@std@@PEAX@0@AEAPEAU10@@Z ; std::forward<std::_List_node<std::pair<enum IronMan::Core::SDK::DecryptFunc const ,std::unique_ptr<IronMan::Core::SDK::UEDecryptBuilder,std::default_delete<IronMan::Core::SDK::UEDecryptBuilder> > >,void *> * &>
PUBLIC	??$exchange@PEAU?$_List_node@U?$pair@$$CBW4DecryptFunc@SDK@Core@IronMan@@V?$unique_ptr@VUEDecryptBuilder@SDK@Core@IronMan@@U?$default_delete@VUEDecryptBuilder@SDK@Core@IronMan@@@std@@@std@@@std@@PEAX@std@@$$T@std@@YAPEAU?$_List_node@U?$pair@$$CBW4DecryptFunc@SDK@Core@IronMan@@V?$unique_ptr@VUEDecryptBuilder@SDK@Core@IronMan@@U?$default_delete@VUEDecryptBuilder@SDK@Core@IronMan@@@std@@@std@@@std@@PEAX@0@AEAPEAU10@$$QEA$$T@Z ; std::exchange<std::_List_node<std::pair<enum IronMan::Core::SDK::DecryptFunc const ,std::unique_ptr<IronMan::Core::SDK::UEDecryptBuilder,std::default_delete<IronMan::Core::SDK::UEDecryptBuilder> > >,void *> *,std::nullptr_t>
PUBLIC	??$_Unfancy_maybe_null@V?$unique_ptr@VAnalysisBase@Analysis@IronMan@@U?$default_delete@VAnalysisBase@Analysis@IronMan@@@std@@@std@@@std@@YAPEAV?$unique_ptr@VAnalysisBase@Analysis@IronMan@@U?$default_delete@VAnalysisBase@Analysis@IronMan@@@std@@@0@PEAV10@@Z ; std::_Unfancy_maybe_null<std::unique_ptr<IronMan::Analysis::AnalysisBase,std::default_delete<IronMan::Analysis::AnalysisBase> > >
PUBLIC	??$_Construct_in_place@PEAU?$_List_node@U?$pair@$$CBW4DecryptFunc@SDK@Core@IronMan@@V?$unique_ptr@VUEDecryptBuilder@SDK@Core@IronMan@@U?$default_delete@VUEDecryptBuilder@SDK@Core@IronMan@@@std@@@std@@@std@@PEAX@std@@AEBQEAU12@@std@@YAXAEAPEAU?$_List_node@U?$pair@$$CBW4DecryptFunc@SDK@Core@IronMan@@V?$unique_ptr@VUEDecryptBuilder@SDK@Core@IronMan@@U?$default_delete@VUEDecryptBuilder@SDK@Core@IronMan@@@std@@@std@@@std@@PEAX@0@AEBQEAU10@@Z ; std::_Construct_in_place<std::_List_node<std::pair<enum IronMan::Core::SDK::DecryptFunc const ,std::unique_ptr<IronMan::Core::SDK::UEDecryptBuilder,std::default_delete<IronMan::Core::SDK::UEDecryptBuilder> > >,void *> *,std::_List_node<std::pair<enum IronMan::Core::SDK::DecryptFunc const ,std::unique_ptr<IronMan::Core::SDK::UEDecryptBuilder,std::default_delete<IronMan::Core::SDK::UEDecryptBuilder> > >,void *> * const &>
PUBLIC	??$addressof@$$CBV?$_List_val@U?$_List_simple_types@U?$pair@$$CBW4DecryptFunc@SDK@Core@IronMan@@V?$unique_ptr@VUEDecryptBuilder@SDK@Core@IronMan@@U?$default_delete@VUEDecryptBuilder@SDK@Core@IronMan@@@std@@@std@@@std@@@std@@@std@@@std@@YAPEBV?$_List_val@U?$_List_simple_types@U?$pair@$$CBW4DecryptFunc@SDK@Core@IronMan@@V?$unique_ptr@VUEDecryptBuilder@SDK@Core@IronMan@@U?$default_delete@VUEDecryptBuilder@SDK@Core@IronMan@@@std@@@std@@@std@@@std@@@0@AEBV10@@Z ; std::addressof<std::_List_val<std::_List_simple_types<std::pair<enum IronMan::Core::SDK::DecryptFunc const ,std::unique_ptr<IronMan::Core::SDK::UEDecryptBuilder,std::default_delete<IronMan::Core::SDK::UEDecryptBuilder> > > > > const >
PUBLIC	??0_Clear_guard@?$_Hash@V?$_Umap_traits@W4DecryptFunc@SDK@Core@IronMan@@V?$unique_ptr@VUEDecryptBuilder@SDK@Core@IronMan@@U?$default_delete@VUEDecryptBuilder@SDK@Core@IronMan@@@std@@@std@@V?$_Uhash_compare@W4DecryptFunc@SDK@Core@IronMan@@U?$hash@W4DecryptFunc@SDK@Core@IronMan@@@std@@U?$equal_to@W4DecryptFunc@SDK@Core@IronMan@@@6@@6@V?$allocator@U?$pair@$$CBW4DecryptFunc@SDK@Core@IronMan@@V?$unique_ptr@VUEDecryptBuilder@SDK@Core@IronMan@@U?$default_delete@VUEDecryptBuilder@SDK@Core@IronMan@@@std@@@std@@@std@@@6@$0A@@std@@@std@@QEAA@QEAV12@@Z ; std::_Hash<std::_Umap_traits<enum IronMan::Core::SDK::DecryptFunc,std::unique_ptr<IronMan::Core::SDK::UEDecryptBuilder,std::default_delete<IronMan::Core::SDK::UEDecryptBuilder> >,std::_Uhash_compare<enum IronMan::Core::SDK::DecryptFunc,std::hash<enum IronMan::Core::SDK::DecryptFunc>,std::equal_to<enum IronMan::Core::SDK::DecryptFunc> >,std::allocator<std::pair<enum IronMan::Core::SDK::DecryptFunc const ,std::unique_ptr<IronMan::Core::SDK::UEDecryptBuilder,std::default_delete<IronMan::Core::SDK::UEDecryptBuilder> > > >,0> >::_Clear_guard::_Clear_guard
PUBLIC	??1_Clear_guard@?$_Hash@V?$_Umap_traits@W4DecryptFunc@SDK@Core@IronMan@@V?$unique_ptr@VUEDecryptBuilder@SDK@Core@IronMan@@U?$default_delete@VUEDecryptBuilder@SDK@Core@IronMan@@@std@@@std@@V?$_Uhash_compare@W4DecryptFunc@SDK@Core@IronMan@@U?$hash@W4DecryptFunc@SDK@Core@IronMan@@@std@@U?$equal_to@W4DecryptFunc@SDK@Core@IronMan@@@6@@6@V?$allocator@U?$pair@$$CBW4DecryptFunc@SDK@Core@IronMan@@V?$unique_ptr@VUEDecryptBuilder@SDK@Core@IronMan@@U?$default_delete@VUEDecryptBuilder@SDK@Core@IronMan@@@std@@@std@@@std@@@6@$0A@@std@@@std@@QEAA@XZ ; std::_Hash<std::_Umap_traits<enum IronMan::Core::SDK::DecryptFunc,std::unique_ptr<IronMan::Core::SDK::UEDecryptBuilder,std::default_delete<IronMan::Core::SDK::UEDecryptBuilder> >,std::_Uhash_compare<enum IronMan::Core::SDK::DecryptFunc,std::hash<enum IronMan::Core::SDK::DecryptFunc>,std::equal_to<enum IronMan::Core::SDK::DecryptFunc> >,std::allocator<std::pair<enum IronMan::Core::SDK::DecryptFunc const ,std::unique_ptr<IronMan::Core::SDK::UEDecryptBuilder,std::default_delete<IronMan::Core::SDK::UEDecryptBuilder> > > >,0> >::_Clear_guard::~_Clear_guard
PUBLIC	??$?RW4DecryptFunc@SDK@Core@IronMan@@W40123@@?$_Uhash_compare@W4DecryptFunc@SDK@Core@IronMan@@U?$hash@W4DecryptFunc@SDK@Core@IronMan@@@std@@U?$equal_to@W4DecryptFunc@SDK@Core@IronMan@@@6@@std@@QEBA_NAEBW4DecryptFunc@SDK@Core@IronMan@@0@Z ; std::_Uhash_compare<enum IronMan::Core::SDK::DecryptFunc,std::hash<enum IronMan::Core::SDK::DecryptFunc>,std::equal_to<enum IronMan::Core::SDK::DecryptFunc> >::operator()<enum IronMan::Core::SDK::DecryptFunc,enum IronMan::Core::SDK::DecryptFunc>
PUBLIC	??$_Hash_representation@W4DecryptFunc@SDK@Core@IronMan@@@std@@YA_KAEBW4DecryptFunc@SDK@Core@IronMan@@@Z ; std::_Hash_representation<enum IronMan::Core::SDK::DecryptFunc>
PUBLIC	??$?0$0A@@id@locale@std@@QEAA@XZ		; std::locale::id::id<0>
PUBLIC	??$forward@V?$_List_iterator@V?$_List_val@U?$_List_simple_types@U?$pair@$$CBW4DecryptFunc@SDK@Core@IronMan@@V?$unique_ptr@VUEDecryptBuilder@SDK@Core@IronMan@@U?$default_delete@VUEDecryptBuilder@SDK@Core@IronMan@@@std@@@std@@@std@@@std@@@std@@@std@@@std@@YA$$QEAV?$_List_iterator@V?$_List_val@U?$_List_simple_types@U?$pair@$$CBW4DecryptFunc@SDK@Core@IronMan@@V?$unique_ptr@VUEDecryptBuilder@SDK@Core@IronMan@@U?$default_delete@VUEDecryptBuilder@SDK@Core@IronMan@@@std@@@std@@@std@@@std@@@std@@@0@AEAV10@@Z ; std::forward<std::_List_iterator<std::_List_val<std::_List_simple_types<std::pair<enum IronMan::Core::SDK::DecryptFunc const ,std::unique_ptr<IronMan::Core::SDK::UEDecryptBuilder,std::default_delete<IronMan::Core::SDK::UEDecryptBuilder> > > > > > >
PUBLIC	??$construct@U?$pair@$$CBW4DecryptFunc@SDK@Core@IronMan@@V?$unique_ptr@VUEDecryptBuilder@SDK@Core@IronMan@@U?$default_delete@VUEDecryptBuilder@SDK@Core@IronMan@@@std@@@std@@@std@@W4DecryptFunc@SDK@Core@IronMan@@PEAVUEDecryptBuilder@456@@?$_Default_allocator_traits@V?$allocator@U?$_List_node@U?$pair@$$CBW4DecryptFunc@SDK@Core@IronMan@@V?$unique_ptr@VUEDecryptBuilder@SDK@Core@IronMan@@U?$default_delete@VUEDecryptBuilder@SDK@Core@IronMan@@@std@@@std@@@std@@PEAX@std@@@std@@@std@@SAXAEAV?$allocator@U?$_List_node@U?$pair@$$CBW4DecryptFunc@SDK@Core@IronMan@@V?$unique_ptr@VUEDecryptBuilder@SDK@Core@IronMan@@U?$default_delete@VUEDecryptBuilder@SDK@Core@IronMan@@@std@@@std@@@std@@PEAX@std@@@1@QEAU?$pair@$$CBW4DecryptFunc@SDK@Core@IronMan@@V?$unique_ptr@VUEDecryptBuilder@SDK@Core@IronMan@@U?$default_delete@VUEDecryptBuilder@SDK@Core@IronMan@@@std@@@std@@@1@$$QEAW4DecryptFunc@SDK@Core@IronMan@@$$QEAPEAVUEDecryptBuilder@567@@Z ; std::_Default_allocator_traits<std::allocator<std::_List_node<std::pair<enum IronMan::Core::SDK::DecryptFunc const ,std::unique_ptr<IronMan::Core::SDK::UEDecryptBuilder,std::default_delete<IronMan::Core::SDK::UEDecryptBuilder> > >,void *> > >::construct<std::pair<enum IronMan::Core::SDK::DecryptFunc const ,std::unique_ptr<IronMan::Core::SDK::UEDecryptBuilder,std::default_delete<IronMan::Core::SDK::UEDecryptBuilder> > >,enum IronMan::Core::SDK::DecryptFunc,IronMan::Core::SDK::UEDecryptBuilder *>
PUBLIC	??$forward@AEAPEAV?$unique_ptr@VAnalysisBase@Analysis@IronMan@@U?$default_delete@VAnalysisBase@Analysis@IronMan@@@std@@@std@@@std@@YAAEAPEAV?$unique_ptr@VAnalysisBase@Analysis@IronMan@@U?$default_delete@VAnalysisBase@Analysis@IronMan@@@std@@@0@AEAPEAV10@@Z ; std::forward<std::unique_ptr<IronMan::Analysis::AnalysisBase,std::default_delete<IronMan::Analysis::AnalysisBase> > * &>
PUBLIC	??$forward@AEAPEAVAnalysisBase@Analysis@IronMan@@@std@@YAAEAPEAVAnalysisBase@Analysis@IronMan@@AEAPEAV123@@Z ; std::forward<IronMan::Analysis::AnalysisBase * &>
PUBLIC	??$?0U?$default_delete@VAnalysisBase@Analysis@IronMan@@@std@@$0A@@?$unique_ptr@VAnalysisBase@Analysis@IronMan@@U?$default_delete@VAnalysisBase@Analysis@IronMan@@@std@@@std@@QEAA@$$QEAV01@@Z ; std::unique_ptr<IronMan::Analysis::AnalysisBase,std::default_delete<IronMan::Analysis::AnalysisBase> >::unique_ptr<IronMan::Analysis::AnalysisBase,std::default_delete<IronMan::Analysis::AnalysisBase> ><std::default_delete<IronMan::Analysis::AnalysisBase>,0>
PUBLIC	??$_Construct_in_place@V?$unique_ptr@VAnalysisBase@Analysis@IronMan@@U?$default_delete@VAnalysisBase@Analysis@IronMan@@@std@@@std@@V12@@std@@YAXAEAV?$unique_ptr@VAnalysisBase@Analysis@IronMan@@U?$default_delete@VAnalysisBase@Analysis@IronMan@@@std@@@0@$$QEAV10@@Z ; std::_Construct_in_place<std::unique_ptr<IronMan::Analysis::AnalysisBase,std::default_delete<IronMan::Analysis::AnalysisBase> >,std::unique_ptr<IronMan::Analysis::AnalysisBase,std::default_delete<IronMan::Analysis::AnalysisBase> > >
PUBLIC	??$_Allocate_at_least_helper@V?$allocator@V?$unique_ptr@VAnalysisBase@Analysis@IronMan@@U?$default_delete@VAnalysisBase@Analysis@IronMan@@@std@@@std@@@std@@@std@@YAPEAV?$unique_ptr@VAnalysisBase@Analysis@IronMan@@U?$default_delete@VAnalysisBase@Analysis@IronMan@@@std@@@0@AEAV?$allocator@V?$unique_ptr@VAnalysisBase@Analysis@IronMan@@U?$default_delete@VAnalysisBase@Analysis@IronMan@@@std@@@std@@@0@AEA_K@Z ; std::_Allocate_at_least_helper<std::allocator<std::unique_ptr<IronMan::Analysis::AnalysisBase,std::default_delete<IronMan::Analysis::AnalysisBase> > > >
PUBLIC	??1_Reallocation_guard@?$vector@V?$unique_ptr@VAnalysisBase@Analysis@IronMan@@U?$default_delete@VAnalysisBase@Analysis@IronMan@@@std@@@std@@V?$allocator@V?$unique_ptr@VAnalysisBase@Analysis@IronMan@@U?$default_delete@VAnalysisBase@Analysis@IronMan@@@std@@@std@@@2@@std@@QEAA@XZ ; std::vector<std::unique_ptr<IronMan::Analysis::AnalysisBase,std::default_delete<IronMan::Analysis::AnalysisBase> >,std::allocator<std::unique_ptr<IronMan::Analysis::AnalysisBase,std::default_delete<IronMan::Analysis::AnalysisBase> > > >::_Reallocation_guard::~_Reallocation_guard
PUBLIC	??$construct@V?$unique_ptr@VAnalysisBase@Analysis@IronMan@@U?$default_delete@VAnalysisBase@Analysis@IronMan@@@std@@@std@@V12@@?$_Default_allocator_traits@V?$allocator@V?$unique_ptr@VAnalysisBase@Analysis@IronMan@@U?$default_delete@VAnalysisBase@Analysis@IronMan@@@std@@@std@@@std@@@std@@SAXAEAV?$allocator@V?$unique_ptr@VAnalysisBase@Analysis@IronMan@@U?$default_delete@VAnalysisBase@Analysis@IronMan@@@std@@@std@@@1@QEAV?$unique_ptr@VAnalysisBase@Analysis@IronMan@@U?$default_delete@VAnalysisBase@Analysis@IronMan@@@std@@@1@$$QEAV31@@Z ; std::_Default_allocator_traits<std::allocator<std::unique_ptr<IronMan::Analysis::AnalysisBase,std::default_delete<IronMan::Analysis::AnalysisBase> > > >::construct<std::unique_ptr<IronMan::Analysis::AnalysisBase,std::default_delete<IronMan::Analysis::AnalysisBase> >,std::unique_ptr<IronMan::Analysis::AnalysisBase,std::default_delete<IronMan::Analysis::AnalysisBase> > >
PUBLIC	??$_Uninitialized_move@PEAV?$unique_ptr@VAnalysisBase@Analysis@IronMan@@U?$default_delete@VAnalysisBase@Analysis@IronMan@@@std@@@std@@V?$allocator@V?$unique_ptr@VAnalysisBase@Analysis@IronMan@@U?$default_delete@VAnalysisBase@Analysis@IronMan@@@std@@@std@@@2@@std@@YAPEAV?$unique_ptr@VAnalysisBase@Analysis@IronMan@@U?$default_delete@VAnalysisBase@Analysis@IronMan@@@std@@@0@QEAV10@0PEAV10@AEAV?$allocator@V?$unique_ptr@VAnalysisBase@Analysis@IronMan@@U?$default_delete@VAnalysisBase@Analysis@IronMan@@@std@@@std@@@0@@Z ; std::_Uninitialized_move<std::unique_ptr<IronMan::Analysis::AnalysisBase,std::default_delete<IronMan::Analysis::AnalysisBase> > *,std::allocator<std::unique_ptr<IronMan::Analysis::AnalysisBase,std::default_delete<IronMan::Analysis::AnalysisBase> > > >
PUBLIC	??$?0W4DecryptFunc@SDK@Core@IronMan@@$$V$0A@@?$tuple@$$QEAW4DecryptFunc@SDK@Core@IronMan@@@std@@QEAA@$$QEAW4DecryptFunc@SDK@Core@IronMan@@@Z ; std::tuple<enum IronMan::Core::SDK::DecryptFunc &&>::tuple<enum IronMan::Core::SDK::DecryptFunc &&><enum IronMan::Core::SDK::DecryptFunc,0>
PUBLIC	??$forward@AEBUpiecewise_construct_t@std@@@std@@YAAEBUpiecewise_construct_t@0@AEBU10@@Z ; std::forward<std::piecewise_construct_t const &>
PUBLIC	??$forward@V?$tuple@$$QEAW4DecryptFunc@SDK@Core@IronMan@@@std@@@std@@YA$$QEAV?$tuple@$$QEAW4DecryptFunc@SDK@Core@IronMan@@@0@AEAV10@@Z ; std::forward<std::tuple<enum IronMan::Core::SDK::DecryptFunc &&> >
PUBLIC	??$forward@V?$tuple@$$V@std@@@std@@YA$$QEAV?$tuple@$$V@0@AEAV10@@Z ; std::forward<std::tuple<> >
PUBLIC	??$construct@U?$pair@$$CBW4DecryptFunc@SDK@Core@IronMan@@V?$unique_ptr@VUEDecryptBuilder@SDK@Core@IronMan@@U?$default_delete@VUEDecryptBuilder@SDK@Core@IronMan@@@std@@@std@@@std@@AEBUpiecewise_construct_t@2@V?$tuple@$$QEAW4DecryptFunc@SDK@Core@IronMan@@@2@V?$tuple@$$V@2@@?$_Default_allocator_traits@V?$allocator@U?$_List_node@U?$pair@$$CBW4DecryptFunc@SDK@Core@IronMan@@V?$unique_ptr@VUEDecryptBuilder@SDK@Core@IronMan@@U?$default_delete@VUEDecryptBuilder@SDK@Core@IronMan@@@std@@@std@@@std@@PEAX@std@@@std@@@std@@SAXAEAV?$allocator@U?$_List_node@U?$pair@$$CBW4DecryptFunc@SDK@Core@IronMan@@V?$unique_ptr@VUEDecryptBuilder@SDK@Core@IronMan@@U?$default_delete@VUEDecryptBuilder@SDK@Core@IronMan@@@std@@@std@@@std@@PEAX@std@@@1@QEAU?$pair@$$CBW4DecryptFunc@SDK@Core@IronMan@@V?$unique_ptr@VUEDecryptBuilder@SDK@Core@IronMan@@U?$default_delete@VUEDecryptBuilder@SDK@Core@IronMan@@@std@@@std@@@1@AEBUpiecewise_construct_t@1@$$QEAV?$tuple@$$QEAW4DecryptFunc@SDK@Core@IronMan@@@1@$$QEAV?$tuple@$$V@1@@Z ; std::_Default_allocator_traits<std::allocator<std::_List_node<std::pair<enum IronMan::Core::SDK::DecryptFunc const ,std::unique_ptr<IronMan::Core::SDK::UEDecryptBuilder,std::default_delete<IronMan::Core::SDK::UEDecryptBuilder> > >,void *> > >::construct<std::pair<enum IronMan::Core::SDK::DecryptFunc const ,std::unique_ptr<IronMan::Core::SDK::UEDecryptBuilder,std::default_delete<IronMan::Core::SDK::UEDecryptBuilder> > >,std::piecewise_construct_t const &,std::tuple<enum IronMan::Core::SDK::DecryptFunc &&>,std::tuple<> >
PUBLIC	??$forward@PEAU?$_List_node@U?$pair@$$CBW4DecryptFunc@SDK@Core@IronMan@@V?$unique_ptr@VUEDecryptBuilder@SDK@Core@IronMan@@U?$default_delete@VUEDecryptBuilder@SDK@Core@IronMan@@@std@@@std@@@std@@PEAX@std@@@std@@YA$$QEAPEAU?$_List_node@U?$pair@$$CBW4DecryptFunc@SDK@Core@IronMan@@V?$unique_ptr@VUEDecryptBuilder@SDK@Core@IronMan@@U?$default_delete@VUEDecryptBuilder@SDK@Core@IronMan@@@std@@@std@@@std@@PEAX@0@AEAPEAU10@@Z ; std::forward<std::_List_node<std::pair<enum IronMan::Core::SDK::DecryptFunc const ,std::unique_ptr<IronMan::Core::SDK::UEDecryptBuilder,std::default_delete<IronMan::Core::SDK::UEDecryptBuilder> > >,void *> *>
PUBLIC	??$forward@AEBV?$_List_unchecked_iterator@V?$_List_val@U?$_List_simple_types@U?$pair@$$CBW4DecryptFunc@SDK@Core@IronMan@@V?$unique_ptr@VUEDecryptBuilder@SDK@Core@IronMan@@U?$default_delete@VUEDecryptBuilder@SDK@Core@IronMan@@@std@@@std@@@std@@@std@@@std@@@std@@@std@@YAAEBV?$_List_unchecked_iterator@V?$_List_val@U?$_List_simple_types@U?$pair@$$CBW4DecryptFunc@SDK@Core@IronMan@@V?$unique_ptr@VUEDecryptBuilder@SDK@Core@IronMan@@U?$default_delete@VUEDecryptBuilder@SDK@Core@IronMan@@@std@@@std@@@std@@@std@@@std@@@0@AEBV10@@Z ; std::forward<std::_List_unchecked_iterator<std::_List_val<std::_List_simple_types<std::pair<enum IronMan::Core::SDK::DecryptFunc const ,std::unique_ptr<IronMan::Core::SDK::UEDecryptBuilder,std::default_delete<IronMan::Core::SDK::UEDecryptBuilder> > > > > > const &>
PUBLIC	??$_Construct_in_place@V?$_List_unchecked_iterator@V?$_List_val@U?$_List_simple_types@U?$pair@$$CBW4DecryptFunc@SDK@Core@IronMan@@V?$unique_ptr@VUEDecryptBuilder@SDK@Core@IronMan@@U?$default_delete@VUEDecryptBuilder@SDK@Core@IronMan@@@std@@@std@@@std@@@std@@@std@@@std@@AEBV12@@std@@YAXAEAV?$_List_unchecked_iterator@V?$_List_val@U?$_List_simple_types@U?$pair@$$CBW4DecryptFunc@SDK@Core@IronMan@@V?$unique_ptr@VUEDecryptBuilder@SDK@Core@IronMan@@U?$default_delete@VUEDecryptBuilder@SDK@Core@IronMan@@@std@@@std@@@std@@@std@@@std@@@0@AEBV10@@Z ; std::_Construct_in_place<std::_List_unchecked_iterator<std::_List_val<std::_List_simple_types<std::pair<enum IronMan::Core::SDK::DecryptFunc const ,std::unique_ptr<IronMan::Core::SDK::UEDecryptBuilder,std::default_delete<IronMan::Core::SDK::UEDecryptBuilder> > > > > >,std::_List_unchecked_iterator<std::_List_val<std::_List_simple_types<std::pair<enum IronMan::Core::SDK::DecryptFunc const ,std::unique_ptr<IronMan::Core::SDK::UEDecryptBuilder,std::default_delete<IronMan::Core::SDK::UEDecryptBuilder> > > > > > const &>
PUBLIC	??$forward@AEBQEAU?$_List_node@U?$pair@$$CBW4DecryptFunc@SDK@Core@IronMan@@V?$unique_ptr@VUEDecryptBuilder@SDK@Core@IronMan@@U?$default_delete@VUEDecryptBuilder@SDK@Core@IronMan@@@std@@@std@@@std@@PEAX@std@@@std@@YAAEBQEAU?$_List_node@U?$pair@$$CBW4DecryptFunc@SDK@Core@IronMan@@V?$unique_ptr@VUEDecryptBuilder@SDK@Core@IronMan@@U?$default_delete@VUEDecryptBuilder@SDK@Core@IronMan@@@std@@@std@@@std@@PEAX@0@AEBQEAU10@@Z ; std::forward<std::_List_node<std::pair<enum IronMan::Core::SDK::DecryptFunc const ,std::unique_ptr<IronMan::Core::SDK::UEDecryptBuilder,std::default_delete<IronMan::Core::SDK::UEDecryptBuilder> > >,void *> * const &>
PUBLIC	??$_Fnv1a_append_value@W4DecryptFunc@SDK@Core@IronMan@@@std@@YA_K_KAEBW4DecryptFunc@SDK@Core@IronMan@@@Z ; std::_Fnv1a_append_value<enum IronMan::Core::SDK::DecryptFunc>
PUBLIC	??$_Refancy_maybe_null@PEAV?$unique_ptr@VAnalysisBase@Analysis@IronMan@@U?$default_delete@VAnalysisBase@Analysis@IronMan@@@std@@@std@@$0A@@std@@YAPEAV?$unique_ptr@VAnalysisBase@Analysis@IronMan@@U?$default_delete@VAnalysisBase@Analysis@IronMan@@@std@@@0@PEAV10@@Z ; std::_Refancy_maybe_null<std::unique_ptr<IronMan::Analysis::AnalysisBase,std::default_delete<IronMan::Analysis::AnalysisBase> > *,0>
PUBLIC	??$?0U?$default_delete@VUEDecryptBuilder@SDK@Core@IronMan@@@std@@$0A@@?$unique_ptr@VUEDecryptBuilder@SDK@Core@IronMan@@U?$default_delete@VUEDecryptBuilder@SDK@Core@IronMan@@@std@@@std@@QEAA@PEAVUEDecryptBuilder@SDK@Core@IronMan@@@Z ; std::unique_ptr<IronMan::Core::SDK::UEDecryptBuilder,std::default_delete<IronMan::Core::SDK::UEDecryptBuilder> >::unique_ptr<IronMan::Core::SDK::UEDecryptBuilder,std::default_delete<IronMan::Core::SDK::UEDecryptBuilder> ><std::default_delete<IronMan::Core::SDK::UEDecryptBuilder>,0>
PUBLIC	??$?0W4DecryptFunc@SDK@Core@IronMan@@PEAVUEDecryptBuilder@123@$0A@@?$pair@$$CBW4DecryptFunc@SDK@Core@IronMan@@V?$unique_ptr@VUEDecryptBuilder@SDK@Core@IronMan@@U?$default_delete@VUEDecryptBuilder@SDK@Core@IronMan@@@std@@@std@@@std@@QEAA@$$QEAW4DecryptFunc@SDK@Core@IronMan@@$$QEAPEAVUEDecryptBuilder@345@@Z ; std::pair<enum IronMan::Core::SDK::DecryptFunc const ,std::unique_ptr<IronMan::Core::SDK::UEDecryptBuilder,std::default_delete<IronMan::Core::SDK::UEDecryptBuilder> > >::pair<enum IronMan::Core::SDK::DecryptFunc const ,std::unique_ptr<IronMan::Core::SDK::UEDecryptBuilder,std::default_delete<IronMan::Core::SDK::UEDecryptBuilder> > ><enum IronMan::Core::SDK::DecryptFunc,IronMan::Core::SDK::UEDecryptBuilder *,0>
PUBLIC	??$addressof@V?$unique_ptr@VAnalysisBase@Analysis@IronMan@@U?$default_delete@VAnalysisBase@Analysis@IronMan@@@std@@@std@@@std@@YAPEAV?$unique_ptr@VAnalysisBase@Analysis@IronMan@@U?$default_delete@VAnalysisBase@Analysis@IronMan@@@std@@@0@AEAV10@@Z ; std::addressof<std::unique_ptr<IronMan::Analysis::AnalysisBase,std::default_delete<IronMan::Analysis::AnalysisBase> > >
PUBLIC	??$_Get_unwrapped@AEBQEAV?$unique_ptr@VAnalysisBase@Analysis@IronMan@@U?$default_delete@VAnalysisBase@Analysis@IronMan@@@std@@@std@@@std@@YA?A_TAEBQEAV?$unique_ptr@VAnalysisBase@Analysis@IronMan@@U?$default_delete@VAnalysisBase@Analysis@IronMan@@@std@@@0@@Z ; std::_Get_unwrapped<std::unique_ptr<IronMan::Analysis::AnalysisBase,std::default_delete<IronMan::Analysis::AnalysisBase> > * const &>
PUBLIC	??0?$_Uninitialized_backout_al@V?$allocator@V?$unique_ptr@VAnalysisBase@Analysis@IronMan@@U?$default_delete@VAnalysisBase@Analysis@IronMan@@@std@@@std@@@std@@@std@@QEAA@PEAV?$unique_ptr@VAnalysisBase@Analysis@IronMan@@U?$default_delete@VAnalysisBase@Analysis@IronMan@@@std@@@1@AEAV?$allocator@V?$unique_ptr@VAnalysisBase@Analysis@IronMan@@U?$default_delete@VAnalysisBase@Analysis@IronMan@@@std@@@std@@@1@@Z ; std::_Uninitialized_backout_al<std::allocator<std::unique_ptr<IronMan::Analysis::AnalysisBase,std::default_delete<IronMan::Analysis::AnalysisBase> > > >::_Uninitialized_backout_al<std::allocator<std::unique_ptr<IronMan::Analysis::AnalysisBase,std::default_delete<IronMan::Analysis::AnalysisBase> > > >
PUBLIC	??1?$_Uninitialized_backout_al@V?$allocator@V?$unique_ptr@VAnalysisBase@Analysis@IronMan@@U?$default_delete@VAnalysisBase@Analysis@IronMan@@@std@@@std@@@std@@@std@@QEAA@XZ ; std::_Uninitialized_backout_al<std::allocator<std::unique_ptr<IronMan::Analysis::AnalysisBase,std::default_delete<IronMan::Analysis::AnalysisBase> > > >::~_Uninitialized_backout_al<std::allocator<std::unique_ptr<IronMan::Analysis::AnalysisBase,std::default_delete<IronMan::Analysis::AnalysisBase> > > >
PUBLIC	?_Release@?$_Uninitialized_backout_al@V?$allocator@V?$unique_ptr@VAnalysisBase@Analysis@IronMan@@U?$default_delete@VAnalysisBase@Analysis@IronMan@@@std@@@std@@@std@@@std@@QEAAPEAV?$unique_ptr@VAnalysisBase@Analysis@IronMan@@U?$default_delete@VAnalysisBase@Analysis@IronMan@@@std@@@2@XZ ; std::_Uninitialized_backout_al<std::allocator<std::unique_ptr<IronMan::Analysis::AnalysisBase,std::default_delete<IronMan::Analysis::AnalysisBase> > > >::_Release
PUBLIC	??$_Emplace_back@V?$unique_ptr@VAnalysisBase@Analysis@IronMan@@U?$default_delete@VAnalysisBase@Analysis@IronMan@@@std@@@std@@@?$_Uninitialized_backout_al@V?$allocator@V?$unique_ptr@VAnalysisBase@Analysis@IronMan@@U?$default_delete@VAnalysisBase@Analysis@IronMan@@@std@@@std@@@std@@@std@@QEAAX$$QEAV?$unique_ptr@VAnalysisBase@Analysis@IronMan@@U?$default_delete@VAnalysisBase@Analysis@IronMan@@@std@@@1@@Z ; std::_Uninitialized_backout_al<std::allocator<std::unique_ptr<IronMan::Analysis::AnalysisBase,std::default_delete<IronMan::Analysis::AnalysisBase> > > >::_Emplace_back<std::unique_ptr<IronMan::Analysis::AnalysisBase,std::default_delete<IronMan::Analysis::AnalysisBase> > >
PUBLIC	??$?0U_Exact_args_t@std@@W4DecryptFunc@SDK@Core@IronMan@@$$V$0A@@?$tuple@$$QEAW4DecryptFunc@SDK@Core@IronMan@@@std@@QEAA@U_Exact_args_t@1@$$QEAW4DecryptFunc@SDK@Core@IronMan@@@Z ; std::tuple<enum IronMan::Core::SDK::DecryptFunc &&>::tuple<enum IronMan::Core::SDK::DecryptFunc &&><std::_Exact_args_t,enum IronMan::Core::SDK::DecryptFunc,0>
PUBLIC	??$?0$$QEAW4DecryptFunc@SDK@Core@IronMan@@$$Z$$V@?$pair@$$CBW4DecryptFunc@SDK@Core@IronMan@@V?$unique_ptr@VUEDecryptBuilder@SDK@Core@IronMan@@U?$default_delete@VUEDecryptBuilder@SDK@Core@IronMan@@@std@@@std@@@std@@QEAA@Upiecewise_construct_t@1@V?$tuple@$$QEAW4DecryptFunc@SDK@Core@IronMan@@@1@V?$tuple@$$V@1@@Z ; std::pair<enum IronMan::Core::SDK::DecryptFunc const ,std::unique_ptr<IronMan::Core::SDK::UEDecryptBuilder,std::default_delete<IronMan::Core::SDK::UEDecryptBuilder> > >::pair<enum IronMan::Core::SDK::DecryptFunc const ,std::unique_ptr<IronMan::Core::SDK::UEDecryptBuilder,std::default_delete<IronMan::Core::SDK::UEDecryptBuilder> > ><enum IronMan::Core::SDK::DecryptFunc &&>
PUBLIC	??$addressof@V?$_List_unchecked_iterator@V?$_List_val@U?$_List_simple_types@U?$pair@$$CBW4DecryptFunc@SDK@Core@IronMan@@V?$unique_ptr@VUEDecryptBuilder@SDK@Core@IronMan@@U?$default_delete@VUEDecryptBuilder@SDK@Core@IronMan@@@std@@@std@@@std@@@std@@@std@@@std@@@std@@YAPEAV?$_List_unchecked_iterator@V?$_List_val@U?$_List_simple_types@U?$pair@$$CBW4DecryptFunc@SDK@Core@IronMan@@V?$unique_ptr@VUEDecryptBuilder@SDK@Core@IronMan@@U?$default_delete@VUEDecryptBuilder@SDK@Core@IronMan@@@std@@@std@@@std@@@std@@@std@@@0@AEAV10@@Z ; std::addressof<std::_List_unchecked_iterator<std::_List_val<std::_List_simple_types<std::pair<enum IronMan::Core::SDK::DecryptFunc const ,std::unique_ptr<IronMan::Core::SDK::UEDecryptBuilder,std::default_delete<IronMan::Core::SDK::UEDecryptBuilder> > > > > > >
PUBLIC	??$forward@U?$default_delete@VAnalysisBase@Analysis@IronMan@@@std@@@std@@YA$$QEAU?$default_delete@VAnalysisBase@Analysis@IronMan@@@0@AEAU10@@Z ; std::forward<std::default_delete<IronMan::Analysis::AnalysisBase> >
PUBLIC	??$?0U?$default_delete@VAnalysisBase@Analysis@IronMan@@@std@@PEAVAnalysisBase@Analysis@IronMan@@@?$_Compressed_pair@U?$default_delete@VAnalysisBase@Analysis@IronMan@@@std@@PEAVAnalysisBase@Analysis@IronMan@@$00@std@@QEAA@U_One_then_variadic_args_t@1@$$QEAU?$default_delete@VAnalysisBase@Analysis@IronMan@@@1@$$QEAPEAVAnalysisBase@Analysis@IronMan@@@Z ; std::_Compressed_pair<std::default_delete<IronMan::Analysis::AnalysisBase>,IronMan::Analysis::AnalysisBase *,1>::_Compressed_pair<std::default_delete<IronMan::Analysis::AnalysisBase>,IronMan::Analysis::AnalysisBase *,1><std::default_delete<IronMan::Analysis::AnalysisBase>,IronMan::Analysis::AnalysisBase *>
PUBLIC	??$?0U?$default_delete@VUEDecryptBuilder@SDK@Core@IronMan@@@std@@$0A@@?$unique_ptr@VUEDecryptBuilder@SDK@Core@IronMan@@U?$default_delete@VUEDecryptBuilder@SDK@Core@IronMan@@@std@@@std@@QEAA@XZ ; std::unique_ptr<IronMan::Core::SDK::UEDecryptBuilder,std::default_delete<IronMan::Core::SDK::UEDecryptBuilder> >::unique_ptr<IronMan::Core::SDK::UEDecryptBuilder,std::default_delete<IronMan::Core::SDK::UEDecryptBuilder> ><std::default_delete<IronMan::Core::SDK::UEDecryptBuilder>,0>
PUBLIC	??$?0U_Exact_args_t@std@@$0A@@?$tuple@$$V@std@@QEAA@U_Exact_args_t@1@@Z ; std::tuple<>::tuple<><std::_Exact_args_t,0>
PUBLIC	??$?0W4DecryptFunc@SDK@Core@IronMan@@@?$_Tuple_val@$$QEAW4DecryptFunc@SDK@Core@IronMan@@@std@@QEAA@$$QEAW4DecryptFunc@SDK@Core@IronMan@@@Z ; std::_Tuple_val<enum IronMan::Core::SDK::DecryptFunc &&>::_Tuple_val<enum IronMan::Core::SDK::DecryptFunc &&><enum IronMan::Core::SDK::DecryptFunc>
PUBLIC	??$?0V?$tuple@$$QEAW4DecryptFunc@SDK@Core@IronMan@@@std@@V?$tuple@$$V@1@$0A@$$Z$S@?$pair@$$CBW4DecryptFunc@SDK@Core@IronMan@@V?$unique_ptr@VUEDecryptBuilder@SDK@Core@IronMan@@U?$default_delete@VUEDecryptBuilder@SDK@Core@IronMan@@@std@@@std@@@std@@AEAA@AEAV?$tuple@$$QEAW4DecryptFunc@SDK@Core@IronMan@@@1@AEAV?$tuple@$$V@1@U?$integer_sequence@_K$0A@@1@U?$integer_sequence@_K$S@1@@Z ; std::pair<enum IronMan::Core::SDK::DecryptFunc const ,std::unique_ptr<IronMan::Core::SDK::UEDecryptBuilder,std::default_delete<IronMan::Core::SDK::UEDecryptBuilder> > >::pair<enum IronMan::Core::SDK::DecryptFunc const ,std::unique_ptr<IronMan::Core::SDK::UEDecryptBuilder,std::default_delete<IronMan::Core::SDK::UEDecryptBuilder> > ><std::tuple<enum IronMan::Core::SDK::DecryptFunc &&>,std::tuple<>,0>
PUBLIC	??$exchange@PEAVAnalysisBase@Analysis@IronMan@@$$T@std@@YAPEAVAnalysisBase@Analysis@IronMan@@AEAPEAV123@$$QEA$$T@Z ; std::exchange<IronMan::Analysis::AnalysisBase *,std::nullptr_t>
PUBLIC	??$?0AEAPEAVUEDecryptBuilder@SDK@Core@IronMan@@@?$_Compressed_pair@U?$default_delete@VUEDecryptBuilder@SDK@Core@IronMan@@@std@@PEAVUEDecryptBuilder@SDK@Core@IronMan@@$00@std@@QEAA@U_Zero_then_variadic_args_t@1@AEAPEAVUEDecryptBuilder@SDK@Core@IronMan@@@Z ; std::_Compressed_pair<std::default_delete<IronMan::Core::SDK::UEDecryptBuilder>,IronMan::Core::SDK::UEDecryptBuilder *,1>::_Compressed_pair<std::default_delete<IronMan::Core::SDK::UEDecryptBuilder>,IronMan::Core::SDK::UEDecryptBuilder *,1><IronMan::Core::SDK::UEDecryptBuilder * &>
PUBLIC	??$forward@PEAVAnalysisBase@Analysis@IronMan@@@std@@YA$$QEAPEAVAnalysisBase@Analysis@IronMan@@AEAPEAV123@@Z ; std::forward<IronMan::Analysis::AnalysisBase *>
PUBLIC	??$move@AEAV?$tuple@$$QEAW4DecryptFunc@SDK@Core@IronMan@@@std@@@std@@YA$$QEAV?$tuple@$$QEAW4DecryptFunc@SDK@Core@IronMan@@@0@AEAV10@@Z ; std::move<std::tuple<enum IronMan::Core::SDK::DecryptFunc &&> &>
PUBLIC	??$_Tuple_get@$0A@$$QEAW4DecryptFunc@SDK@Core@IronMan@@@std@@YA$$QEA_P$$QEAV?$tuple@$$QEAW4DecryptFunc@SDK@Core@IronMan@@@0@@Z ; std::_Tuple_get<0,enum IronMan::Core::SDK::DecryptFunc &&>
PUBLIC	??$?0$$V@?$_Compressed_pair@U?$default_delete@VUEDecryptBuilder@SDK@Core@IronMan@@@std@@PEAVUEDecryptBuilder@SDK@Core@IronMan@@$00@std@@QEAA@U_Zero_then_variadic_args_t@1@@Z ; std::_Compressed_pair<std::default_delete<IronMan::Core::SDK::UEDecryptBuilder>,IronMan::Core::SDK::UEDecryptBuilder *,1>::_Compressed_pair<std::default_delete<IronMan::Core::SDK::UEDecryptBuilder>,IronMan::Core::SDK::UEDecryptBuilder *,1><>
PUBLIC	??$forward@AEAPEAVUEDecryptBuilder@SDK@Core@IronMan@@@std@@YAAEAPEAVUEDecryptBuilder@SDK@Core@IronMan@@AEAPEAV1234@@Z ; std::forward<IronMan::Core::SDK::UEDecryptBuilder * &>
PUBLIC	?piecewise_construct@std@@3Upiecewise_construct_t@1@B ; std::piecewise_construct
PUBLIC	??_7exception@std@@6B@				; std::exception::`vftable'
PUBLIC	??_C@_0BC@EOODALEL@Unknown?5exception@		; `string'
PUBLIC	??_7bad_alloc@std@@6B@				; std::bad_alloc::`vftable'
PUBLIC	??_7bad_array_new_length@std@@6B@		; std::bad_array_new_length::`vftable'
PUBLIC	??_C@_0BF@KINCDENJ@bad?5array?5new?5length@	; `string'
PUBLIC	??_R0?AVexception@std@@@8			; std::exception `RTTI Type Descriptor'
PUBLIC	_CT??_R0?AVexception@std@@@8??0exception@std@@QEAA@AEBV01@@Z24
PUBLIC	_TI3?AVbad_array_new_length@std@@
PUBLIC	_CTA3?AVbad_array_new_length@std@@
PUBLIC	??_R0?AVbad_array_new_length@std@@@8		; std::bad_array_new_length `RTTI Type Descriptor'
PUBLIC	_CT??_R0?AVbad_array_new_length@std@@@8??0bad_array_new_length@std@@QEAA@AEBV01@@Z24
PUBLIC	??_R0?AVbad_alloc@std@@@8			; std::bad_alloc `RTTI Type Descriptor'
PUBLIC	_CT??_R0?AVbad_alloc@std@@@8??0bad_alloc@std@@QEAA@AEBV01@@Z24
PUBLIC	?_Fake_alloc@std@@3U_Fake_allocator@1@B		; std::_Fake_alloc
PUBLIC	?g_DecryptFuncs@SDK@Core@IronMan@@3V?$unordered_map@W4DecryptFunc@SDK@Core@IronMan@@V?$unique_ptr@VUEDecryptBuilder@SDK@Core@IronMan@@U?$default_delete@VUEDecryptBuilder@SDK@Core@IronMan@@@std@@@std@@U?$hash@W4DecryptFunc@SDK@Core@IronMan@@@6@U?$equal_to@W4DecryptFunc@SDK@Core@IronMan@@@6@V?$allocator@U?$pair@$$CBW4DecryptFunc@SDK@Core@IronMan@@V?$unique_ptr@VUEDecryptBuilder@SDK@Core@IronMan@@U?$default_delete@VUEDecryptBuilder@SDK@Core@IronMan@@@std@@@std@@@std@@@6@@std@@A ; IronMan::Core::SDK::g_DecryptFuncs
PUBLIC	?_Min_buckets@?$_Hash@V?$_Umap_traits@W4DecryptFunc@SDK@Core@IronMan@@V?$unique_ptr@VUEDecryptBuilder@SDK@Core@IronMan@@U?$default_delete@VUEDecryptBuilder@SDK@Core@IronMan@@@std@@@std@@V?$_Uhash_compare@W4DecryptFunc@SDK@Core@IronMan@@U?$hash@W4DecryptFunc@SDK@Core@IronMan@@@std@@U?$equal_to@W4DecryptFunc@SDK@Core@IronMan@@@6@@6@V?$allocator@U?$pair@$$CBW4DecryptFunc@SDK@Core@IronMan@@V?$unique_ptr@VUEDecryptBuilder@SDK@Core@IronMan@@U?$default_delete@VUEDecryptBuilder@SDK@Core@IronMan@@@std@@@std@@@std@@@6@$0A@@std@@@std@@2_KB ; std::_Hash<std::_Umap_traits<enum IronMan::Core::SDK::DecryptFunc,std::unique_ptr<IronMan::Core::SDK::UEDecryptBuilder,std::default_delete<IronMan::Core::SDK::UEDecryptBuilder> >,std::_Uhash_compare<enum IronMan::Core::SDK::DecryptFunc,std::hash<enum IronMan::Core::SDK::DecryptFunc>,std::equal_to<enum IronMan::Core::SDK::DecryptFunc> >,std::allocator<std::pair<enum IronMan::Core::SDK::DecryptFunc const ,std::unique_ptr<IronMan::Core::SDK::UEDecryptBuilder,std::default_delete<IronMan::Core::SDK::UEDecryptBuilder> > > >,0> >::_Min_buckets
PUBLIC	?g_DecryptAnalysis@SDK@Core@IronMan@@3V?$vector@V?$unique_ptr@VAnalysisBase@Analysis@IronMan@@U?$default_delete@VAnalysisBase@Analysis@IronMan@@@std@@@std@@V?$allocator@V?$unique_ptr@VAnalysisBase@Analysis@IronMan@@U?$default_delete@VAnalysisBase@Analysis@IronMan@@@std@@@std@@@2@@std@@A ; IronMan::Core::SDK::g_DecryptAnalysis
PUBLIC	??_C@_0CG@HDEDPKLJ@GlobalFunctionBuffer?5Allocate?5F@ ; `string'
PUBLIC	??_C@_0BC@ECCJIJFO@?$FL?h?$LO?$JD?e?$IH?$LK?d?$LP?$KB?f?$IB?$KP?$FN?5?$CFs@ ; `string'
PUBLIC	??_C@_0BI@FDIHNPIJ@GlobalFunctionBuffer?3?$CFp@	; `string'
PUBLIC	??_C@_0BN@MAOCJAGF@g_PatternData?4UObjectSize?3?$CFp@ ; `string'
PUBLIC	??_C@_0CF@IDFMHIPO@g_PatternData?4offset_UObjectFla@ ; `string'
PUBLIC	??_C@_0CK@MGIPKJIE@g_PatternData?4offset_UObjectNam@ ; `string'
PUBLIC	??_C@_0DD@JFJJKCAB@g_PatternData?4offset_UObjectNam@ ; `string'
PUBLIC	??_C@_0CF@FBIMHNDM@g_PatternData?4offset_UObjectCla@ ; `string'
PUBLIC	??_C@_0CF@HGOAAPOP@g_PatternData?4offset_UObjectInd@ ; `string'
PUBLIC	??_C@_0BA@MCOMOIOK@UObjectFlags?3?$CFp@		; `string'
PUBLIC	??_C@_0BF@MCJDPJDG@UObjectNameNumber?3?$CFp@	; `string'
PUBLIC	??_C@_0BO@JNMCANHA@UObjectNameComparisonIndex?3?$CFp@ ; `string'
PUBLIC	??_C@_0BA@EIPFEPGD@UObjectOuter?3?$CFp@		; `string'
PUBLIC	??_C@_0BA@BADMONCI@UObjectClass?3?$CFp@		; `string'
PUBLIC	??_C@_0BA@DHFAJPPL@UObjectIndex?3?$CFp@		; `string'
PUBLIC	??_C@_0L@DKNNBLCL@General?3?$CFp@		; `string'
PUBLIC	??_C@_0BD@IHEDOOEN@DecryptFunction?3?$CFp@	; `string'
PUBLIC	??_C@_0BH@CODJDOPE@Error?3Can?8t?5Build?5Dec?$CB@ ; `string'
PUBLIC	?id@?$num_put@DV?$ostreambuf_iterator@DU?$char_traits@D@std@@@std@@@std@@2V0locale@2@A ; std::num_put<char,std::ostreambuf_iterator<char,std::char_traits<char> > >::id
PUBLIC	?id@?$codecvt@DDU_Mbstatet@@@std@@2V0locale@2@A	; std::codecvt<char,char,_Mbstatet>::id
PUBLIC	?id@?$numpunct@D@std@@2V0locale@2@A		; std::numpunct<char>::id
PUBLIC	??_C@_0BK@OGNNAFAB@invalid?5hash?5bucket?5count@ ; `string'
PUBLIC	?id@?$collate@D@std@@2V0locale@2@A		; std::collate<char>::id
PUBLIC	??_C@_0BL@GOIGLPKN@unordered_map?1set?5too?5long@ ; `string'
PUBLIC	??_C@_0BA@FOIKENOD@vector?5too?5long@		; `string'
PUBLIC	??_R4exception@std@@6B@				; std::exception::`RTTI Complete Object Locator'
PUBLIC	??_R3exception@std@@8				; std::exception::`RTTI Class Hierarchy Descriptor'
PUBLIC	??_R2exception@std@@8				; std::exception::`RTTI Base Class Array'
PUBLIC	??_R1A@?0A@EA@exception@std@@8			; std::exception::`RTTI Base Class Descriptor at (0,-1,0,64)'
PUBLIC	??_R4bad_array_new_length@std@@6B@		; std::bad_array_new_length::`RTTI Complete Object Locator'
PUBLIC	??_R3bad_array_new_length@std@@8		; std::bad_array_new_length::`RTTI Class Hierarchy Descriptor'
PUBLIC	??_R2bad_array_new_length@std@@8		; std::bad_array_new_length::`RTTI Base Class Array'
PUBLIC	??_R1A@?0A@EA@bad_array_new_length@std@@8	; std::bad_array_new_length::`RTTI Base Class Descriptor at (0,-1,0,64)'
PUBLIC	??_R1A@?0A@EA@bad_alloc@std@@8			; std::bad_alloc::`RTTI Base Class Descriptor at (0,-1,0,64)'
PUBLIC	??_R3bad_alloc@std@@8				; std::bad_alloc::`RTTI Class Hierarchy Descriptor'
PUBLIC	??_R2bad_alloc@std@@8				; std::bad_alloc::`RTTI Base Class Array'
PUBLIC	??_R4bad_alloc@std@@6B@				; std::bad_alloc::`RTTI Complete Object Locator'
PUBLIC	__real@3f800000
PUBLIC	__real@5f000000
EXTRN	??2@YAPEAX_K@Z:PROC				; operator new
EXTRN	??3@YAXPEAX_K@Z:PROC				; operator delete
EXTRN	atexit:PROC
EXTRN	_invalid_parameter_noinfo_noreturn:PROC
EXTRN	memset:PROC
EXTRN	ceilf:PROC
EXTRN	?_Xlength_error@std@@YAXPEBD@Z:PROC		; std::_Xlength_error
EXTRN	__std_exception_copy:PROC
EXTRN	__std_exception_destroy:PROC
EXTRN	??_Eexception@std@@UEAAPEAXI@Z:PROC		; std::exception::`vector deleting destructor'
EXTRN	??_Ebad_alloc@std@@UEAAPEAXI@Z:PROC		; std::bad_alloc::`vector deleting destructor'
EXTRN	??_Ebad_array_new_length@std@@UEAAPEAXI@Z:PROC	; std::bad_array_new_length::`vector deleting destructor'
EXTRN	__imp_GetStdHandle:PROC
EXTRN	__imp_Sleep:PROC
EXTRN	__imp_VirtualAlloc:PROC
EXTRN	__imp_VirtualProtect:PROC
EXTRN	__imp_SetConsoleTextAttribute:PROC
EXTRN	?Print@Console@IronMan@@YA_NPEBDZZ:PROC		; IronMan::Console::Print
EXTRN	?FormatString@Utils@IronMan@@YA?AV?$basic_string@DU?$char_traits@D@std@@V?$allocator@D@2@@std@@PEBDZZ:PROC ; IronMan::Utils::FormatString
EXTRN	__imp_WSAStartup:PROC
EXTRN	__imp_WSACleanup:PROC
EXTRN	OPENSSL_init_ssl:PROC
EXTRN	?relocCode@Assembler@asmjit@@QEBA_KPEAX_K@Z:PROC ; asmjit::Assembler::relocCode
EXTRN	?emit@Assembler@asmjit@@QEAAIIH@Z:PROC		; asmjit::Assembler::emit
EXTRN	??0DecryptAnalysis@Analysis@IronMan@@QEAA@_K@Z:PROC ; IronMan::Analysis::DecryptAnalysis::DecryptAnalysis
EXTRN	??0UObjectAnalysis@Analysis@IronMan@@QEAA@_K@Z:PROC ; IronMan::Analysis::UObjectAnalysis::UObjectAnalysis
EXTRN	_CxxThrowException:PROC
EXTRN	__CxxFrameHandler4:PROC
EXTRN	__GSHandlerCheck:PROC
EXTRN	__GSHandlerCheck_EH4:PROC
EXTRN	__security_check_cookie:PROC
EXTRN	??_7type_info@@6B@:BYTE				; type_info::`vftable'
EXTRN	?g_PatternData@Core@IronMan@@3UPatternData@12@A:BYTE ; IronMan::Core::g_PatternData
EXTRN	__security_cookie:QWORD
EXTRN	_fltused:DWORD
_BSS	SEGMENT
?wsinit_@detail@httplib@@3VWSInit@12@A DB 01H DUP (?)	; httplib::detail::wsinit_
	ALIGN	4

?sslinit_@detail@httplib@@3VSSLInit@12@A DB 01H DUP (?)	; httplib::detail::sslinit_
	ALIGN	8

?g_DecryptFuncs@SDK@Core@IronMan@@3V?$unordered_map@W4DecryptFunc@SDK@Core@IronMan@@V?$unique_ptr@VUEDecryptBuilder@SDK@Core@IronMan@@U?$default_delete@VUEDecryptBuilder@SDK@Core@IronMan@@@std@@@std@@U?$hash@W4DecryptFunc@SDK@Core@IronMan@@@6@U?$equal_to@W4DecryptFunc@SDK@Core@IronMan@@@6@V?$allocator@U?$pair@$$CBW4DecryptFunc@SDK@Core@IronMan@@V?$unique_ptr@VUEDecryptBuilder@SDK@Core@IronMan@@U?$default_delete@VUEDecryptBuilder@SDK@Core@IronMan@@@std@@@std@@@std@@@6@@std@@A DB 040H DUP (?) ; IronMan::Core::SDK::g_DecryptFuncs
?g_DecryptAnalysis@SDK@Core@IronMan@@3V?$vector@V?$unique_ptr@VAnalysisBase@Analysis@IronMan@@U?$default_delete@VAnalysisBase@Analysis@IronMan@@@std@@@std@@V?$allocator@V?$unique_ptr@VAnalysisBase@Analysis@IronMan@@U?$default_delete@VAnalysisBase@Analysis@IronMan@@@std@@@std@@@2@@std@@A DB 018H DUP (?) ; IronMan::Core::SDK::g_DecryptAnalysis
_BSS	ENDS
;	COMDAT ?id@?$num_put@DV?$ostreambuf_iterator@DU?$char_traits@D@std@@@std@@@std@@2V0locale@2@A
_BSS	SEGMENT
?id@?$num_put@DV?$ostreambuf_iterator@DU?$char_traits@D@std@@@std@@@std@@2V0locale@2@A DQ 01H DUP (?) ; std::num_put<char,std::ostreambuf_iterator<char,std::char_traits<char> > >::id
_BSS	ENDS
;	COMDAT ?id@?$codecvt@DDU_Mbstatet@@@std@@2V0locale@2@A
_BSS	SEGMENT
?id@?$codecvt@DDU_Mbstatet@@@std@@2V0locale@2@A DQ 01H DUP (?) ; std::codecvt<char,char,_Mbstatet>::id
_BSS	ENDS
;	COMDAT ?id@?$numpunct@D@std@@2V0locale@2@A
_BSS	SEGMENT
?id@?$numpunct@D@std@@2V0locale@2@A DQ 01H DUP (?)	; std::numpunct<char>::id
_BSS	ENDS
;	COMDAT ?id@?$collate@D@std@@2V0locale@2@A
_BSS	SEGMENT
?id@?$collate@D@std@@2V0locale@2@A DQ 01H DUP (?)	; std::collate<char>::id
_BSS	ENDS
;	COMDAT pdata
pdata	SEGMENT
$pdata$??_H@YAXPEAX_K1P6APEAX0@Z@Z DD imagerel $LN5
	DD	imagerel $LN5+102
	DD	imagerel $unwind$??_H@YAXPEAX_K1P6APEAX0@Z@Z
pdata	ENDS
;	COMDAT pdata
pdata	SEGMENT
$pdata$?_Fnv1a_append_bytes@std@@YA_K_KQEBE_K@Z DD imagerel $LN6
	DD	imagerel $LN6+124
	DD	imagerel $unwind$?_Fnv1a_append_bytes@std@@YA_K_KQEBE_K@Z
pdata	ENDS
;	COMDAT pdata
pdata	SEGMENT
$pdata$??0exception@std@@QEAA@QEBDH@Z DD imagerel $LN3
	DD	imagerel $LN3+73
	DD	imagerel $unwind$??0exception@std@@QEAA@QEBDH@Z
pdata	ENDS
;	COMDAT pdata
pdata	SEGMENT
$pdata$??0exception@std@@QEAA@AEBV01@@Z DD imagerel $LN3
	DD	imagerel $LN3+89
	DD	imagerel $unwind$??0exception@std@@QEAA@AEBV01@@Z
pdata	ENDS
;	COMDAT pdata
pdata	SEGMENT
$pdata$??1exception@std@@UEAA@XZ DD imagerel $LN3
	DD	imagerel $LN3+47
	DD	imagerel $unwind$??1exception@std@@UEAA@XZ
pdata	ENDS
;	COMDAT pdata
pdata	SEGMENT
$pdata$?what@exception@std@@UEBAPEBDXZ DD imagerel $LN5
	DD	imagerel $LN5+56
	DD	imagerel $unwind$?what@exception@std@@UEBAPEBDXZ
pdata	ENDS
;	COMDAT pdata
pdata	SEGMENT
$pdata$??_Gexception@std@@UEAAPEAXI@Z DD imagerel $LN4
	DD	imagerel $LN4+60
	DD	imagerel $unwind$??_Gexception@std@@UEAAPEAXI@Z
pdata	ENDS
;	COMDAT pdata
pdata	SEGMENT
$pdata$??0bad_alloc@std@@AEAA@QEBD@Z DD imagerel $LN4
	DD	imagerel $LN4+61
	DD	imagerel $unwind$??0bad_alloc@std@@AEAA@QEBD@Z
pdata	ENDS
;	COMDAT pdata
pdata	SEGMENT
$pdata$?dtor$0@?0???0bad_alloc@std@@AEAA@QEBD@Z@4HA DD imagerel ?dtor$0@?0???0bad_alloc@std@@AEAA@QEBD@Z@4HA
	DD	imagerel ?dtor$0@?0???0bad_alloc@std@@AEAA@QEBD@Z@4HA+24
	DD	imagerel $unwind$?dtor$0@?0???0bad_alloc@std@@AEAA@QEBD@Z@4HA
pdata	ENDS
;	COMDAT pdata
pdata	SEGMENT
$pdata$??1bad_alloc@std@@UEAA@XZ DD imagerel $LN4
	DD	imagerel $LN4+25
	DD	imagerel $unwind$??1bad_alloc@std@@UEAA@XZ
pdata	ENDS
;	COMDAT pdata
pdata	SEGMENT
$pdata$?dtor$0@?0???1bad_alloc@std@@UEAA@XZ@4HA DD imagerel ?dtor$0@?0???1bad_alloc@std@@UEAA@XZ@4HA
	DD	imagerel ?dtor$0@?0???1bad_alloc@std@@UEAA@XZ@4HA+24
	DD	imagerel $unwind$?dtor$0@?0???1bad_alloc@std@@UEAA@XZ@4HA
pdata	ENDS
;	COMDAT pdata
pdata	SEGMENT
$pdata$??0bad_alloc@std@@QEAA@AEBV01@@Z DD imagerel $LN4
	DD	imagerel $LN4+55
	DD	imagerel $unwind$??0bad_alloc@std@@QEAA@AEBV01@@Z
pdata	ENDS
;	COMDAT pdata
pdata	SEGMENT
$pdata$?dtor$0@?0???0bad_alloc@std@@QEAA@AEBV01@@Z@4HA DD imagerel ?dtor$0@?0???0bad_alloc@std@@QEAA@AEBV01@@Z@4HA
	DD	imagerel ?dtor$0@?0???0bad_alloc@std@@QEAA@AEBV01@@Z@4HA+24
	DD	imagerel $unwind$?dtor$0@?0???0bad_alloc@std@@QEAA@AEBV01@@Z@4HA
pdata	ENDS
;	COMDAT pdata
pdata	SEGMENT
$pdata$??_Gbad_alloc@std@@UEAAPEAXI@Z DD imagerel $LN4
	DD	imagerel $LN4+60
	DD	imagerel $unwind$??_Gbad_alloc@std@@UEAAPEAXI@Z
pdata	ENDS
;	COMDAT pdata
pdata	SEGMENT
$pdata$??0bad_array_new_length@std@@QEAA@XZ DD imagerel $LN4
	DD	imagerel $LN4+52
	DD	imagerel $unwind$??0bad_array_new_length@std@@QEAA@XZ
pdata	ENDS
;	COMDAT pdata
pdata	SEGMENT
$pdata$?dtor$0@?0???0bad_array_new_length@std@@QEAA@XZ@4HA DD imagerel ?dtor$0@?0???0bad_array_new_length@std@@QEAA@XZ@4HA
	DD	imagerel ?dtor$0@?0???0bad_array_new_length@std@@QEAA@XZ@4HA+24
	DD	imagerel $unwind$?dtor$0@?0???0bad_array_new_length@std@@QEAA@XZ@4HA
pdata	ENDS
;	COMDAT pdata
pdata	SEGMENT
$pdata$??1bad_array_new_length@std@@UEAA@XZ DD imagerel $LN4
	DD	imagerel $LN4+25
	DD	imagerel $unwind$??1bad_array_new_length@std@@UEAA@XZ
pdata	ENDS
;	COMDAT pdata
pdata	SEGMENT
$pdata$?dtor$0@?0???1bad_array_new_length@std@@UEAA@XZ@4HA DD imagerel ?dtor$0@?0???1bad_array_new_length@std@@UEAA@XZ@4HA
	DD	imagerel ?dtor$0@?0???1bad_array_new_length@std@@UEAA@XZ@4HA+24
	DD	imagerel $unwind$?dtor$0@?0???1bad_array_new_length@std@@UEAA@XZ@4HA
pdata	ENDS
;	COMDAT pdata
pdata	SEGMENT
$pdata$??0bad_array_new_length@std@@QEAA@AEBV01@@Z DD imagerel $LN4
	DD	imagerel $LN4+55
	DD	imagerel $unwind$??0bad_array_new_length@std@@QEAA@AEBV01@@Z
pdata	ENDS
;	COMDAT pdata
pdata	SEGMENT
$pdata$?dtor$0@?0???0bad_array_new_length@std@@QEAA@AEBV01@@Z@4HA DD imagerel ?dtor$0@?0???0bad_array_new_length@std@@QEAA@AEBV01@@Z@4HA
	DD	imagerel ?dtor$0@?0???0bad_array_new_length@std@@QEAA@AEBV01@@Z@4HA+24
	DD	imagerel $unwind$?dtor$0@?0???0bad_array_new_length@std@@QEAA@AEBV01@@Z@4HA
pdata	ENDS
;	COMDAT pdata
pdata	SEGMENT
$pdata$??_Gbad_array_new_length@std@@UEAAPEAXI@Z DD imagerel $LN4
	DD	imagerel $LN4+60
	DD	imagerel $unwind$??_Gbad_array_new_length@std@@UEAAPEAXI@Z
pdata	ENDS
;	COMDAT pdata
pdata	SEGMENT
$pdata$?_Throw_bad_array_new_length@std@@YAXXZ DD imagerel $LN3
	DD	imagerel $LN3+37
	DD	imagerel $unwind$?_Throw_bad_array_new_length@std@@YAXXZ
pdata	ENDS
;	COMDAT pdata
pdata	SEGMENT
$pdata$?_Allocate@_Default_allocate_traits@std@@SAPEAX_K@Z DD imagerel $LN3
	DD	imagerel $LN3+24
	DD	imagerel $unwind$?_Allocate@_Default_allocate_traits@std@@SAPEAX_K@Z
pdata	ENDS
;	COMDAT pdata
pdata	SEGMENT
$pdata$?_Adjust_manually_vector_aligned@std@@YAXAEAPEAXAEA_K@Z DD imagerel $LN11
	DD	imagerel $LN11+154
	DD	imagerel $unwind$?_Adjust_manually_vector_aligned@std@@YAXAEAPEAXAEA_K@Z
pdata	ENDS
;	COMDAT pdata
pdata	SEGMENT
$pdata$?deallocate@?$allocator@D@std@@QEAAXQEAD_K@Z DD imagerel $LN3
	DD	imagerel $LN3+40
	DD	imagerel $unwind$?deallocate@?$allocator@D@std@@QEAAXQEAD_K@Z
pdata	ENDS
;	COMDAT pdata
pdata	SEGMENT
$pdata$?_Myptr@?$_String_val@U?$_Simple_types@D@std@@@std@@QEBAPEBDXZ DD imagerel $LN4
	DD	imagerel $LN4+64
	DD	imagerel $unwind$?_Myptr@?$_String_val@U?$_Simple_types@D@std@@@std@@QEBAPEBDXZ
pdata	ENDS
;	COMDAT pdata
pdata	SEGMENT
$pdata$?_Large_mode_engaged@?$_String_val@U?$_Simple_types@D@std@@@std@@QEBA_NXZ DD imagerel $LN5
	DD	imagerel $LN5+46
	DD	imagerel $unwind$?_Large_mode_engaged@?$_String_val@U?$_Simple_types@D@std@@@std@@QEBA_NXZ
pdata	ENDS
;	COMDAT pdata
pdata	SEGMENT
$pdata$?_Switch_to_buf@_Bxty@?$_String_val@U?$_Simple_types@D@std@@@std@@QEAAXXZ DD imagerel $LN3
	DD	imagerel $LN3+28
	DD	imagerel $unwind$?_Switch_to_buf@_Bxty@?$_String_val@U?$_Simple_types@D@std@@@std@@QEAAXXZ
pdata	ENDS
;	COMDAT pdata
pdata	SEGMENT
$pdata$??1?$_String_val@U?$_Simple_types@D@std@@@std@@QEAA@XZ DD imagerel $LN4
	DD	imagerel $LN4+28
	DD	imagerel $unwind$??1?$_String_val@U?$_Simple_types@D@std@@@std@@QEAA@XZ
pdata	ENDS
;	COMDAT pdata
pdata	SEGMENT
$pdata$?dtor$0@?0???1?$_String_val@U?$_Simple_types@D@std@@@std@@QEAA@XZ@4HA DD imagerel ?dtor$0@?0???1?$_String_val@U?$_Simple_types@D@std@@@std@@QEAA@XZ@4HA
	DD	imagerel ?dtor$0@?0???1?$_String_val@U?$_Simple_types@D@std@@@std@@QEAA@XZ@4HA+24
	DD	imagerel $unwind$?dtor$0@?0???1?$_String_val@U?$_Simple_types@D@std@@@std@@QEAA@XZ@4HA
pdata	ENDS
;	COMDAT pdata
pdata	SEGMENT
$pdata$?_Deallocate_for_capacity@?$basic_string@DU?$char_traits@D@std@@V?$allocator@D@2@@std@@CAXAEAV?$allocator@D@2@QEAD_K@Z DD imagerel $LN3
	DD	imagerel $LN3+51
	DD	imagerel $unwind$?_Deallocate_for_capacity@?$basic_string@DU?$char_traits@D@std@@V?$allocator@D@2@@std@@CAXAEAV?$allocator@D@2@QEAD_K@Z
pdata	ENDS
;	COMDAT pdata
pdata	SEGMENT
$pdata$??1?$basic_string@DU?$char_traits@D@std@@V?$allocator@D@2@@std@@QEAA@XZ DD imagerel $LN4
	DD	imagerel $LN4+39
	DD	imagerel $unwind$??1?$basic_string@DU?$char_traits@D@std@@V?$allocator@D@2@@std@@QEAA@XZ
pdata	ENDS
;	COMDAT pdata
pdata	SEGMENT
$pdata$?dtor$0@?0???1?$basic_string@DU?$char_traits@D@std@@V?$allocator@D@2@@std@@QEAA@XZ@4HA DD imagerel ?dtor$0@?0???1?$basic_string@DU?$char_traits@D@std@@V?$allocator@D@2@@std@@QEAA@XZ@4HA
	DD	imagerel ?dtor$0@?0???1?$basic_string@DU?$char_traits@D@std@@V?$allocator@D@2@@std@@QEAA@XZ@4HA+24
	DD	imagerel $unwind$?dtor$0@?0???1?$basic_string@DU?$char_traits@D@std@@V?$allocator@D@2@@std@@QEAA@XZ@4HA
pdata	ENDS
;	COMDAT pdata
pdata	SEGMENT
$pdata$?c_str@?$basic_string@DU?$char_traits@D@std@@V?$allocator@D@2@@std@@QEBAPEBDXZ DD imagerel $LN3
	DD	imagerel $LN3+27
	DD	imagerel $unwind$?c_str@?$basic_string@DU?$char_traits@D@std@@V?$allocator@D@2@@std@@QEBAPEBDXZ
pdata	ENDS
;	COMDAT pdata
pdata	SEGMENT
$pdata$?_Tidy_deallocate@?$basic_string@DU?$char_traits@D@std@@V?$allocator@D@2@@std@@AEAAXXZ DD imagerel $LN4
	DD	imagerel $LN4+173
	DD	imagerel $unwind$?_Tidy_deallocate@?$basic_string@DU?$char_traits@D@std@@V?$allocator@D@2@@std@@AEAAXXZ
pdata	ENDS
;	COMDAT pdata
pdata	SEGMENT
$pdata$?_Getal@?$basic_string@DU?$char_traits@D@std@@V?$allocator@D@2@@std@@AEAAAEAV?$allocator@D@2@XZ DD imagerel $LN3
	DD	imagerel $LN3+27
	DD	imagerel $unwind$?_Getal@?$basic_string@DU?$char_traits@D@std@@V?$allocator@D@2@@std@@AEAAAEAV?$allocator@D@2@XZ
pdata	ENDS
;	COMDAT pdata
pdata	SEGMENT
$pdata$??1?$_Compressed_pair@V?$allocator@D@std@@V?$_String_val@U?$_Simple_types@D@std@@@2@$00@std@@QEAA@XZ DD imagerel $LN4
	DD	imagerel $LN4+28
	DD	imagerel $unwind$??1?$_Compressed_pair@V?$allocator@D@std@@V?$_String_val@U?$_Simple_types@D@std@@@2@$00@std@@QEAA@XZ
pdata	ENDS
;	COMDAT pdata
pdata	SEGMENT
$pdata$?dtor$0@?0???1?$_Compressed_pair@V?$allocator@D@std@@V?$_String_val@U?$_Simple_types@D@std@@@2@$00@std@@QEAA@XZ@4HA DD imagerel ?dtor$0@?0???1?$_Compressed_pair@V?$allocator@D@std@@V?$_String_val@U?$_Simple_types@D@std@@@2@$00@std@@QEAA@XZ@4HA
	DD	imagerel ?dtor$0@?0???1?$_Compressed_pair@V?$allocator@D@std@@V?$_String_val@U?$_Simple_types@D@std@@@2@$00@std@@QEAA@XZ@4HA+24
	DD	imagerel $unwind$?dtor$0@?0???1?$_Compressed_pair@V?$allocator@D@std@@V?$_String_val@U?$_Simple_types@D@std@@@2@$00@std@@QEAA@XZ@4HA
pdata	ENDS
;	COMDAT pdata
pdata	SEGMENT
$pdata$?_Floor_of_log_2@std@@YAK_K@Z DD imagerel $LN3
	DD	imagerel $LN3+43
	DD	imagerel $unwind$?_Floor_of_log_2@std@@YAK_K@Z
pdata	ENDS
;	COMDAT pdata
pdata	SEGMENT
$pdata$?_Ceiling_of_log_2@std@@YAK_K@Z DD imagerel $LN3
	DD	imagerel $LN3+32
	DD	imagerel $unwind$?_Ceiling_of_log_2@std@@YAK_K@Z
pdata	ENDS
;	COMDAT pdata
pdata	SEGMENT
$pdata$??$min@_K@std@@YAAEB_KAEB_K0@Z DD imagerel $LN5
	DD	imagerel $LN5+71
	DD	imagerel $unwind$??$min@_K@std@@YAAEB_KAEB_K0@Z
pdata	ENDS
;	COMDAT pdata
pdata	SEGMENT
$pdata$??0WSInit@detail@httplib@@QEAA@XZ DD imagerel $LN4
	DD	imagerel $LN4+103
	DD	imagerel $unwind$??0WSInit@detail@httplib@@QEAA@XZ
pdata	ENDS
;	COMDAT pdata
pdata	SEGMENT
$pdata$??1WSInit@detail@httplib@@QEAA@XZ DD imagerel $LN4
	DD	imagerel $LN4+33
	DD	imagerel $unwind$??1WSInit@detail@httplib@@QEAA@XZ
pdata	ENDS
;	COMDAT pdata
pdata	SEGMENT
$pdata$??__Ewsinit_@detail@httplib@@YAXXZ DD imagerel ??__Ewsinit_@detail@httplib@@YAXXZ
	DD	imagerel ??__Ewsinit_@detail@httplib@@YAXXZ+34
	DD	imagerel $unwind$??__Ewsinit_@detail@httplib@@YAXXZ
pdata	ENDS
;	COMDAT pdata
pdata	SEGMENT
$pdata$??__Fwsinit_@detail@httplib@@YAXXZ DD imagerel ??__Fwsinit_@detail@httplib@@YAXXZ
	DD	imagerel ??__Fwsinit_@detail@httplib@@YAXXZ+22
	DD	imagerel $unwind$??__Fwsinit_@detail@httplib@@YAXXZ
pdata	ENDS
;	COMDAT pdata
pdata	SEGMENT
$pdata$??0SSLInit@detail@httplib@@QEAA@XZ DD imagerel $LN3
	DD	imagerel $LN3+32
	DD	imagerel $unwind$??0SSLInit@detail@httplib@@QEAA@XZ
pdata	ENDS
;	COMDAT pdata
pdata	SEGMENT
$pdata$??__Esslinit_@detail@httplib@@YAXXZ DD imagerel ??__Esslinit_@detail@httplib@@YAXXZ
	DD	imagerel ??__Esslinit_@detail@httplib@@YAXXZ+22
	DD	imagerel $unwind$??__Esslinit_@detail@httplib@@YAXXZ
pdata	ENDS
;	COMDAT pdata
pdata	SEGMENT
$pdata$?int_@X86Assembler@asmjit@@QEAAIH@Z DD imagerel $LN3
	DD	imagerel $LN3+38
	DD	imagerel $unwind$?int_@X86Assembler@asmjit@@QEAAIH@Z
pdata	ENDS
;	COMDAT pdata
pdata	SEGMENT
$pdata$?int3@X86Assembler@asmjit@@QEAAIXZ DD imagerel $LN3
	DD	imagerel $LN3+29
	DD	imagerel $unwind$?int3@X86Assembler@asmjit@@QEAAIXZ
pdata	ENDS
;	COMDAT pdata
pdata	SEGMENT
$pdata$?size@?$vector@V?$unique_ptr@VIAsmHelper@IronMan@@U?$default_delete@VIAsmHelper@IronMan@@@std@@@std@@V?$allocator@V?$unique_ptr@VIAsmHelper@IronMan@@U?$default_delete@VIAsmHelper@IronMan@@@std@@@std@@@2@@std@@QEBA_KXZ DD imagerel $LN3
	DD	imagerel $LN3+45
	DD	imagerel $unwind$?size@?$vector@V?$unique_ptr@VIAsmHelper@IronMan@@U?$default_delete@VIAsmHelper@IronMan@@@std@@@std@@V?$allocator@V?$unique_ptr@VIAsmHelper@IronMan@@U?$default_delete@VIAsmHelper@IronMan@@@std@@@std@@@2@@std@@QEBA_KXZ
pdata	ENDS
;	COMDAT pdata
pdata	SEGMENT
$pdata$??A?$vector@V?$unique_ptr@VIAsmHelper@IronMan@@U?$default_delete@VIAsmHelper@IronMan@@@std@@@std@@V?$allocator@V?$unique_ptr@VIAsmHelper@IronMan@@U?$default_delete@VIAsmHelper@IronMan@@@std@@@std@@@2@@std@@QEBAAEBV?$unique_ptr@VIAsmHelper@IronMan@@U?$default_delete@VIAsmHelper@IronMan@@@std@@@1@_K@Z DD imagerel $LN3
	DD	imagerel $LN3+44
	DD	imagerel $unwind$??A?$vector@V?$unique_ptr@VIAsmHelper@IronMan@@U?$default_delete@VIAsmHelper@IronMan@@@std@@@std@@V?$allocator@V?$unique_ptr@VIAsmHelper@IronMan@@U?$default_delete@VIAsmHelper@IronMan@@@std@@@std@@@2@@std@@QEBAAEBV?$unique_ptr@VIAsmHelper@IronMan@@U?$default_delete@VIAsmHelper@IronMan@@@std@@@1@_K@Z
pdata	ENDS
;	COMDAT pdata
pdata	SEGMENT
$pdata$??0?$_Func_class@XPEAX@std@@QEAA@XZ DD imagerel $LN3
	DD	imagerel $LN3+32
	DD	imagerel $unwind$??0?$_Func_class@XPEAX@std@@QEAA@XZ
pdata	ENDS
;	COMDAT pdata
pdata	SEGMENT
$pdata$??1?$_Func_class@XPEAX@std@@QEAA@XZ DD imagerel $LN3
	DD	imagerel $LN3+25
	DD	imagerel $unwind$??1?$_Func_class@XPEAX@std@@QEAA@XZ
pdata	ENDS
;	COMDAT pdata
pdata	SEGMENT
$pdata$?_Empty@?$_Func_class@XPEAX@std@@IEBA_NXZ DD imagerel $LN5
	DD	imagerel $LN5+52
	DD	imagerel $unwind$?_Empty@?$_Func_class@XPEAX@std@@IEBA_NXZ
pdata	ENDS
;	COMDAT pdata
pdata	SEGMENT
$pdata$?_Reset_copy@?$_Func_class@XPEAX@std@@IEAAXAEBV12@@Z DD imagerel $LN4
	DD	imagerel $LN4+98
	DD	imagerel $unwind$?_Reset_copy@?$_Func_class@XPEAX@std@@IEAAXAEBV12@@Z
pdata	ENDS
;	COMDAT pdata
pdata	SEGMENT
$pdata$?_Tidy@?$_Func_class@XPEAX@std@@IEAAXXZ DD imagerel $LN6
	DD	imagerel $LN6+119
	DD	imagerel $unwind$?_Tidy@?$_Func_class@XPEAX@std@@IEAAXXZ
pdata	ENDS
;	COMDAT pdata
pdata	SEGMENT
$pdata$?_Local@?$_Func_class@XPEAX@std@@AEBA_NXZ DD imagerel $LN5
	DD	imagerel $LN5+57
	DD	imagerel $unwind$?_Local@?$_Func_class@XPEAX@std@@AEBA_NXZ
pdata	ENDS
;	COMDAT pdata
pdata	SEGMENT
$pdata$??0?$function@$$A6AXPEAX@Z@std@@QEAA@$$T@Z DD imagerel $LN4
	DD	imagerel $LN4+35
	DD	imagerel $unwind$??0?$function@$$A6AXPEAX@Z@std@@QEAA@$$T@Z
pdata	ENDS
;	COMDAT pdata
pdata	SEGMENT
$pdata$?dtor$0@?0???0?$function@$$A6AXPEAX@Z@std@@QEAA@$$T@Z@4HA DD imagerel ?dtor$0@?0???0?$function@$$A6AXPEAX@Z@std@@QEAA@$$T@Z@4HA
	DD	imagerel ?dtor$0@?0???0?$function@$$A6AXPEAX@Z@std@@QEAA@$$T@Z@4HA+24
	DD	imagerel $unwind$?dtor$0@?0???0?$function@$$A6AXPEAX@Z@std@@QEAA@$$T@Z@4HA
pdata	ENDS
;	COMDAT pdata
pdata	SEGMENT
$pdata$??0?$function@$$A6AXPEAX@Z@std@@QEAA@AEBV01@@Z DD imagerel $LN4
	DD	imagerel $LN4+51
	DD	imagerel $unwind$??0?$function@$$A6AXPEAX@Z@std@@QEAA@AEBV01@@Z
pdata	ENDS
;	COMDAT pdata
pdata	SEGMENT
$pdata$?dtor$0@?0???0?$function@$$A6AXPEAX@Z@std@@QEAA@AEBV01@@Z@4HA DD imagerel ?dtor$0@?0???0?$function@$$A6AXPEAX@Z@std@@QEAA@AEBV01@@Z@4HA
	DD	imagerel ?dtor$0@?0???0?$function@$$A6AXPEAX@Z@std@@QEAA@AEBV01@@Z@4HA+24
	DD	imagerel $unwind$?dtor$0@?0???0?$function@$$A6AXPEAX@Z@std@@QEAA@AEBV01@@Z@4HA
pdata	ENDS
;	COMDAT pdata
pdata	SEGMENT
$pdata$??1?$function@$$A6AXPEAX@Z@std@@QEAA@XZ DD imagerel $LN4
	DD	imagerel $LN4+25
	DD	imagerel $unwind$??1?$function@$$A6AXPEAX@Z@std@@QEAA@XZ
pdata	ENDS
;	COMDAT pdata
pdata	SEGMENT
$pdata$?dtor$0@?0???1?$function@$$A6AXPEAX@Z@std@@QEAA@XZ@4HA DD imagerel ?dtor$0@?0???1?$function@$$A6AXPEAX@Z@std@@QEAA@XZ@4HA
	DD	imagerel ?dtor$0@?0???1?$function@$$A6AXPEAX@Z@std@@QEAA@XZ@4HA+24
	DD	imagerel $unwind$?dtor$0@?0???1?$function@$$A6AXPEAX@Z@std@@QEAA@XZ@4HA
pdata	ENDS
pdata	SEGMENT
$pdata$?Initialize@UEDecryptBuilder@SDK@Core@IronMan@@SA_NXZ DD imagerel $LN48
	DD	imagerel $LN48+4906
	DD	imagerel $unwind$?Initialize@UEDecryptBuilder@SDK@Core@IronMan@@SA_NXZ
pdata	ENDS
pdata	SEGMENT
$pdata$?dtor$0@?0??Initialize@UEDecryptBuilder@SDK@Core@IronMan@@SA_NXZ@4HA DD imagerel ?dtor$0@?0??Initialize@UEDecryptBuilder@SDK@Core@IronMan@@SA_NXZ@4HA
	DD	imagerel ?dtor$0@?0??Initialize@UEDecryptBuilder@SDK@Core@IronMan@@SA_NXZ@4HA+27
	DD	imagerel $unwind$?dtor$0@?0??Initialize@UEDecryptBuilder@SDK@Core@IronMan@@SA_NXZ@4HA
$pdata$?dtor$1@?0??Initialize@UEDecryptBuilder@SDK@Core@IronMan@@SA_NXZ@4HA DD imagerel ?dtor$1@?0??Initialize@UEDecryptBuilder@SDK@Core@IronMan@@SA_NXZ@4HA
	DD	imagerel ?dtor$1@?0??Initialize@UEDecryptBuilder@SDK@Core@IronMan@@SA_NXZ@4HA+27
	DD	imagerel $unwind$?dtor$1@?0??Initialize@UEDecryptBuilder@SDK@Core@IronMan@@SA_NXZ@4HA
$pdata$?dtor$2@?0??Initialize@UEDecryptBuilder@SDK@Core@IronMan@@SA_NXZ@4HA DD imagerel ?dtor$2@?0??Initialize@UEDecryptBuilder@SDK@Core@IronMan@@SA_NXZ@4HA
	DD	imagerel ?dtor$2@?0??Initialize@UEDecryptBuilder@SDK@Core@IronMan@@SA_NXZ@4HA+32
	DD	imagerel $unwind$?dtor$2@?0??Initialize@UEDecryptBuilder@SDK@Core@IronMan@@SA_NXZ@4HA
$pdata$?dtor$3@?0??Initialize@UEDecryptBuilder@SDK@Core@IronMan@@SA_NXZ@4HA DD imagerel ?dtor$3@?0??Initialize@UEDecryptBuilder@SDK@Core@IronMan@@SA_NXZ@4HA
	DD	imagerel ?dtor$3@?0??Initialize@UEDecryptBuilder@SDK@Core@IronMan@@SA_NXZ@4HA+27
	DD	imagerel $unwind$?dtor$3@?0??Initialize@UEDecryptBuilder@SDK@Core@IronMan@@SA_NXZ@4HA
$pdata$?dtor$4@?0??Initialize@UEDecryptBuilder@SDK@Core@IronMan@@SA_NXZ@4HA DD imagerel ?dtor$4@?0??Initialize@UEDecryptBuilder@SDK@Core@IronMan@@SA_NXZ@4HA
	DD	imagerel ?dtor$4@?0??Initialize@UEDecryptBuilder@SDK@Core@IronMan@@SA_NXZ@4HA+32
	DD	imagerel $unwind$?dtor$4@?0??Initialize@UEDecryptBuilder@SDK@Core@IronMan@@SA_NXZ@4HA
$pdata$?dtor$5@?0??Initialize@UEDecryptBuilder@SDK@Core@IronMan@@SA_NXZ@4HA DD imagerel ?dtor$5@?0??Initialize@UEDecryptBuilder@SDK@Core@IronMan@@SA_NXZ@4HA
	DD	imagerel ?dtor$5@?0??Initialize@UEDecryptBuilder@SDK@Core@IronMan@@SA_NXZ@4HA+27
	DD	imagerel $unwind$?dtor$5@?0??Initialize@UEDecryptBuilder@SDK@Core@IronMan@@SA_NXZ@4HA
$pdata$?dtor$6@?0??Initialize@UEDecryptBuilder@SDK@Core@IronMan@@SA_NXZ@4HA DD imagerel ?dtor$6@?0??Initialize@UEDecryptBuilder@SDK@Core@IronMan@@SA_NXZ@4HA
	DD	imagerel ?dtor$6@?0??Initialize@UEDecryptBuilder@SDK@Core@IronMan@@SA_NXZ@4HA+32
	DD	imagerel $unwind$?dtor$6@?0??Initialize@UEDecryptBuilder@SDK@Core@IronMan@@SA_NXZ@4HA
$pdata$?dtor$7@?0??Initialize@UEDecryptBuilder@SDK@Core@IronMan@@SA_NXZ@4HA DD imagerel ?dtor$7@?0??Initialize@UEDecryptBuilder@SDK@Core@IronMan@@SA_NXZ@4HA
	DD	imagerel ?dtor$7@?0??Initialize@UEDecryptBuilder@SDK@Core@IronMan@@SA_NXZ@4HA+27
	DD	imagerel $unwind$?dtor$7@?0??Initialize@UEDecryptBuilder@SDK@Core@IronMan@@SA_NXZ@4HA
$pdata$?dtor$8@?0??Initialize@UEDecryptBuilder@SDK@Core@IronMan@@SA_NXZ@4HA DD imagerel ?dtor$8@?0??Initialize@UEDecryptBuilder@SDK@Core@IronMan@@SA_NXZ@4HA
	DD	imagerel ?dtor$8@?0??Initialize@UEDecryptBuilder@SDK@Core@IronMan@@SA_NXZ@4HA+32
	DD	imagerel $unwind$?dtor$8@?0??Initialize@UEDecryptBuilder@SDK@Core@IronMan@@SA_NXZ@4HA
$pdata$?dtor$9@?0??Initialize@UEDecryptBuilder@SDK@Core@IronMan@@SA_NXZ@4HA DD imagerel ?dtor$9@?0??Initialize@UEDecryptBuilder@SDK@Core@IronMan@@SA_NXZ@4HA
	DD	imagerel ?dtor$9@?0??Initialize@UEDecryptBuilder@SDK@Core@IronMan@@SA_NXZ@4HA+27
	DD	imagerel $unwind$?dtor$9@?0??Initialize@UEDecryptBuilder@SDK@Core@IronMan@@SA_NXZ@4HA
$pdata$?dtor$10@?0??Initialize@UEDecryptBuilder@SDK@Core@IronMan@@SA_NXZ@4HA DD imagerel ?dtor$10@?0??Initialize@UEDecryptBuilder@SDK@Core@IronMan@@SA_NXZ@4HA
	DD	imagerel ?dtor$10@?0??Initialize@UEDecryptBuilder@SDK@Core@IronMan@@SA_NXZ@4HA+32
	DD	imagerel $unwind$?dtor$10@?0??Initialize@UEDecryptBuilder@SDK@Core@IronMan@@SA_NXZ@4HA
$pdata$?dtor$11@?0??Initialize@UEDecryptBuilder@SDK@Core@IronMan@@SA_NXZ@4HA DD imagerel ?dtor$11@?0??Initialize@UEDecryptBuilder@SDK@Core@IronMan@@SA_NXZ@4HA
	DD	imagerel ?dtor$11@?0??Initialize@UEDecryptBuilder@SDK@Core@IronMan@@SA_NXZ@4HA+27
	DD	imagerel $unwind$?dtor$11@?0??Initialize@UEDecryptBuilder@SDK@Core@IronMan@@SA_NXZ@4HA
$pdata$?dtor$12@?0??Initialize@UEDecryptBuilder@SDK@Core@IronMan@@SA_NXZ@4HA DD imagerel ?dtor$12@?0??Initialize@UEDecryptBuilder@SDK@Core@IronMan@@SA_NXZ@4HA
	DD	imagerel ?dtor$12@?0??Initialize@UEDecryptBuilder@SDK@Core@IronMan@@SA_NXZ@4HA+32
	DD	imagerel $unwind$?dtor$12@?0??Initialize@UEDecryptBuilder@SDK@Core@IronMan@@SA_NXZ@4HA
$pdata$?dtor$13@?0??Initialize@UEDecryptBuilder@SDK@Core@IronMan@@SA_NXZ@4HA DD imagerel ?dtor$13@?0??Initialize@UEDecryptBuilder@SDK@Core@IronMan@@SA_NXZ@4HA
	DD	imagerel ?dtor$13@?0??Initialize@UEDecryptBuilder@SDK@Core@IronMan@@SA_NXZ@4HA+27
	DD	imagerel $unwind$?dtor$13@?0??Initialize@UEDecryptBuilder@SDK@Core@IronMan@@SA_NXZ@4HA
$pdata$?dtor$14@?0??Initialize@UEDecryptBuilder@SDK@Core@IronMan@@SA_NXZ@4HA DD imagerel ?dtor$14@?0??Initialize@UEDecryptBuilder@SDK@Core@IronMan@@SA_NXZ@4HA
	DD	imagerel ?dtor$14@?0??Initialize@UEDecryptBuilder@SDK@Core@IronMan@@SA_NXZ@4HA+27
	DD	imagerel $unwind$?dtor$14@?0??Initialize@UEDecryptBuilder@SDK@Core@IronMan@@SA_NXZ@4HA
$pdata$?dtor$15@?0??Initialize@UEDecryptBuilder@SDK@Core@IronMan@@SA_NXZ@4HA DD imagerel ?dtor$15@?0??Initialize@UEDecryptBuilder@SDK@Core@IronMan@@SA_NXZ@4HA
	DD	imagerel ?dtor$15@?0??Initialize@UEDecryptBuilder@SDK@Core@IronMan@@SA_NXZ@4HA+27
	DD	imagerel $unwind$?dtor$15@?0??Initialize@UEDecryptBuilder@SDK@Core@IronMan@@SA_NXZ@4HA
$pdata$?dtor$16@?0??Initialize@UEDecryptBuilder@SDK@Core@IronMan@@SA_NXZ@4HA DD imagerel ?dtor$16@?0??Initialize@UEDecryptBuilder@SDK@Core@IronMan@@SA_NXZ@4HA
	DD	imagerel ?dtor$16@?0??Initialize@UEDecryptBuilder@SDK@Core@IronMan@@SA_NXZ@4HA+27
	DD	imagerel $unwind$?dtor$16@?0??Initialize@UEDecryptBuilder@SDK@Core@IronMan@@SA_NXZ@4HA
$pdata$?dtor$17@?0??Initialize@UEDecryptBuilder@SDK@Core@IronMan@@SA_NXZ@4HA DD imagerel ?dtor$17@?0??Initialize@UEDecryptBuilder@SDK@Core@IronMan@@SA_NXZ@4HA
	DD	imagerel ?dtor$17@?0??Initialize@UEDecryptBuilder@SDK@Core@IronMan@@SA_NXZ@4HA+27
	DD	imagerel $unwind$?dtor$17@?0??Initialize@UEDecryptBuilder@SDK@Core@IronMan@@SA_NXZ@4HA
$pdata$?dtor$18@?0??Initialize@UEDecryptBuilder@SDK@Core@IronMan@@SA_NXZ@4HA DD imagerel ?dtor$18@?0??Initialize@UEDecryptBuilder@SDK@Core@IronMan@@SA_NXZ@4HA
	DD	imagerel ?dtor$18@?0??Initialize@UEDecryptBuilder@SDK@Core@IronMan@@SA_NXZ@4HA+27
	DD	imagerel $unwind$?dtor$18@?0??Initialize@UEDecryptBuilder@SDK@Core@IronMan@@SA_NXZ@4HA
$pdata$?dtor$19@?0??Initialize@UEDecryptBuilder@SDK@Core@IronMan@@SA_NXZ@4HA DD imagerel ?dtor$19@?0??Initialize@UEDecryptBuilder@SDK@Core@IronMan@@SA_NXZ@4HA
	DD	imagerel ?dtor$19@?0??Initialize@UEDecryptBuilder@SDK@Core@IronMan@@SA_NXZ@4HA+27
	DD	imagerel $unwind$?dtor$19@?0??Initialize@UEDecryptBuilder@SDK@Core@IronMan@@SA_NXZ@4HA
$pdata$?dtor$20@?0??Initialize@UEDecryptBuilder@SDK@Core@IronMan@@SA_NXZ@4HA DD imagerel ?dtor$20@?0??Initialize@UEDecryptBuilder@SDK@Core@IronMan@@SA_NXZ@4HA
	DD	imagerel ?dtor$20@?0??Initialize@UEDecryptBuilder@SDK@Core@IronMan@@SA_NXZ@4HA+32
	DD	imagerel $unwind$?dtor$20@?0??Initialize@UEDecryptBuilder@SDK@Core@IronMan@@SA_NXZ@4HA
$pdata$?dtor$21@?0??Initialize@UEDecryptBuilder@SDK@Core@IronMan@@SA_NXZ@4HA DD imagerel ?dtor$21@?0??Initialize@UEDecryptBuilder@SDK@Core@IronMan@@SA_NXZ@4HA
	DD	imagerel ?dtor$21@?0??Initialize@UEDecryptBuilder@SDK@Core@IronMan@@SA_NXZ@4HA+27
	DD	imagerel $unwind$?dtor$21@?0??Initialize@UEDecryptBuilder@SDK@Core@IronMan@@SA_NXZ@4HA
$pdata$?dtor$22@?0??Initialize@UEDecryptBuilder@SDK@Core@IronMan@@SA_NXZ@4HA DD imagerel ?dtor$22@?0??Initialize@UEDecryptBuilder@SDK@Core@IronMan@@SA_NXZ@4HA
	DD	imagerel ?dtor$22@?0??Initialize@UEDecryptBuilder@SDK@Core@IronMan@@SA_NXZ@4HA+27
	DD	imagerel $unwind$?dtor$22@?0??Initialize@UEDecryptBuilder@SDK@Core@IronMan@@SA_NXZ@4HA
$pdata$?dtor$23@?0??Initialize@UEDecryptBuilder@SDK@Core@IronMan@@SA_NXZ@4HA DD imagerel ?dtor$23@?0??Initialize@UEDecryptBuilder@SDK@Core@IronMan@@SA_NXZ@4HA
	DD	imagerel ?dtor$23@?0??Initialize@UEDecryptBuilder@SDK@Core@IronMan@@SA_NXZ@4HA+27
	DD	imagerel $unwind$?dtor$23@?0??Initialize@UEDecryptBuilder@SDK@Core@IronMan@@SA_NXZ@4HA
$pdata$?dtor$24@?0??Initialize@UEDecryptBuilder@SDK@Core@IronMan@@SA_NXZ@4HA DD imagerel ?dtor$24@?0??Initialize@UEDecryptBuilder@SDK@Core@IronMan@@SA_NXZ@4HA
	DD	imagerel ?dtor$24@?0??Initialize@UEDecryptBuilder@SDK@Core@IronMan@@SA_NXZ@4HA+27
	DD	imagerel $unwind$?dtor$24@?0??Initialize@UEDecryptBuilder@SDK@Core@IronMan@@SA_NXZ@4HA
$pdata$?dtor$25@?0??Initialize@UEDecryptBuilder@SDK@Core@IronMan@@SA_NXZ@4HA DD imagerel ?dtor$25@?0??Initialize@UEDecryptBuilder@SDK@Core@IronMan@@SA_NXZ@4HA
	DD	imagerel ?dtor$25@?0??Initialize@UEDecryptBuilder@SDK@Core@IronMan@@SA_NXZ@4HA+27
	DD	imagerel $unwind$?dtor$25@?0??Initialize@UEDecryptBuilder@SDK@Core@IronMan@@SA_NXZ@4HA
$pdata$?dtor$26@?0??Initialize@UEDecryptBuilder@SDK@Core@IronMan@@SA_NXZ@4HA DD imagerel ?dtor$26@?0??Initialize@UEDecryptBuilder@SDK@Core@IronMan@@SA_NXZ@4HA
	DD	imagerel ?dtor$26@?0??Initialize@UEDecryptBuilder@SDK@Core@IronMan@@SA_NXZ@4HA+27
	DD	imagerel $unwind$?dtor$26@?0??Initialize@UEDecryptBuilder@SDK@Core@IronMan@@SA_NXZ@4HA
$pdata$?dtor$27@?0??Initialize@UEDecryptBuilder@SDK@Core@IronMan@@SA_NXZ@4HA DD imagerel ?dtor$27@?0??Initialize@UEDecryptBuilder@SDK@Core@IronMan@@SA_NXZ@4HA
	DD	imagerel ?dtor$27@?0??Initialize@UEDecryptBuilder@SDK@Core@IronMan@@SA_NXZ@4HA+27
	DD	imagerel $unwind$?dtor$27@?0??Initialize@UEDecryptBuilder@SDK@Core@IronMan@@SA_NXZ@4HA
$pdata$?dtor$28@?0??Initialize@UEDecryptBuilder@SDK@Core@IronMan@@SA_NXZ@4HA DD imagerel ?dtor$28@?0??Initialize@UEDecryptBuilder@SDK@Core@IronMan@@SA_NXZ@4HA
	DD	imagerel ?dtor$28@?0??Initialize@UEDecryptBuilder@SDK@Core@IronMan@@SA_NXZ@4HA+27
	DD	imagerel $unwind$?dtor$28@?0??Initialize@UEDecryptBuilder@SDK@Core@IronMan@@SA_NXZ@4HA
pdata	ENDS
pdata	SEGMENT
$pdata$?SetExchange@UEDecryptBuilder@SDK@Core@IronMan@@SA_NXZ DD imagerel $LN3
	DD	imagerel $LN3+337
	DD	imagerel $unwind$?SetExchange@UEDecryptBuilder@SDK@Core@IronMan@@SA_NXZ
$pdata$??0UEDecryptBuilder@SDK@Core@IronMan@@QEAA@_KHW4BuildType@123@V?$function@$$A6AXPEAX@Z@std@@@Z DD imagerel $LN28
	DD	imagerel $LN28+1514
	DD	imagerel $unwind$??0UEDecryptBuilder@SDK@Core@IronMan@@QEAA@_KHW4BuildType@123@V?$function@$$A6AXPEAX@Z@std@@@Z
pdata	ENDS
pdata	SEGMENT
$pdata$?dtor$0@?0???0UEDecryptBuilder@SDK@Core@IronMan@@QEAA@_KHW4BuildType@123@V?$function@$$A6AXPEAX@Z@std@@@Z@4HA DD imagerel ?dtor$0@?0???0UEDecryptBuilder@SDK@Core@IronMan@@QEAA@_KHW4BuildType@123@V?$function@$$A6AXPEAX@Z@std@@@Z@4HA
	DD	imagerel ?dtor$0@?0???0UEDecryptBuilder@SDK@Core@IronMan@@QEAA@_KHW4BuildType@123@V?$function@$$A6AXPEAX@Z@std@@@Z@4HA+27
	DD	imagerel $unwind$?dtor$0@?0???0UEDecryptBuilder@SDK@Core@IronMan@@QEAA@_KHW4BuildType@123@V?$function@$$A6AXPEAX@Z@std@@@Z@4HA
$pdata$?dtor$1@?0???0UEDecryptBuilder@SDK@Core@IronMan@@QEAA@_KHW4BuildType@123@V?$function@$$A6AXPEAX@Z@std@@@Z@4HA DD imagerel ?dtor$1@?0???0UEDecryptBuilder@SDK@Core@IronMan@@QEAA@_KHW4BuildType@123@V?$function@$$A6AXPEAX@Z@std@@@Z@4HA
	DD	imagerel ?dtor$1@?0???0UEDecryptBuilder@SDK@Core@IronMan@@QEAA@_KHW4BuildType@123@V?$function@$$A6AXPEAX@Z@std@@@Z@4HA+29
	DD	imagerel $unwind$?dtor$1@?0???0UEDecryptBuilder@SDK@Core@IronMan@@QEAA@_KHW4BuildType@123@V?$function@$$A6AXPEAX@Z@std@@@Z@4HA
$pdata$?dtor$2@?0???0UEDecryptBuilder@SDK@Core@IronMan@@QEAA@_KHW4BuildType@123@V?$function@$$A6AXPEAX@Z@std@@@Z@4HA DD imagerel ?dtor$2@?0???0UEDecryptBuilder@SDK@Core@IronMan@@QEAA@_KHW4BuildType@123@V?$function@$$A6AXPEAX@Z@std@@@Z@4HA
	DD	imagerel ?dtor$2@?0???0UEDecryptBuilder@SDK@Core@IronMan@@QEAA@_KHW4BuildType@123@V?$function@$$A6AXPEAX@Z@std@@@Z@4HA+29
	DD	imagerel $unwind$?dtor$2@?0???0UEDecryptBuilder@SDK@Core@IronMan@@QEAA@_KHW4BuildType@123@V?$function@$$A6AXPEAX@Z@std@@@Z@4HA
$pdata$?dtor$3@?0???0UEDecryptBuilder@SDK@Core@IronMan@@QEAA@_KHW4BuildType@123@V?$function@$$A6AXPEAX@Z@std@@@Z@4HA DD imagerel ?dtor$3@?0???0UEDecryptBuilder@SDK@Core@IronMan@@QEAA@_KHW4BuildType@123@V?$function@$$A6AXPEAX@Z@std@@@Z@4HA
	DD	imagerel ?dtor$3@?0???0UEDecryptBuilder@SDK@Core@IronMan@@QEAA@_KHW4BuildType@123@V?$function@$$A6AXPEAX@Z@std@@@Z@4HA+27
	DD	imagerel $unwind$?dtor$3@?0???0UEDecryptBuilder@SDK@Core@IronMan@@QEAA@_KHW4BuildType@123@V?$function@$$A6AXPEAX@Z@std@@@Z@4HA
$pdata$?dtor$4@?0???0UEDecryptBuilder@SDK@Core@IronMan@@QEAA@_KHW4BuildType@123@V?$function@$$A6AXPEAX@Z@std@@@Z@4HA DD imagerel ?dtor$4@?0???0UEDecryptBuilder@SDK@Core@IronMan@@QEAA@_KHW4BuildType@123@V?$function@$$A6AXPEAX@Z@std@@@Z@4HA
	DD	imagerel ?dtor$4@?0???0UEDecryptBuilder@SDK@Core@IronMan@@QEAA@_KHW4BuildType@123@V?$function@$$A6AXPEAX@Z@std@@@Z@4HA+27
	DD	imagerel $unwind$?dtor$4@?0???0UEDecryptBuilder@SDK@Core@IronMan@@QEAA@_KHW4BuildType@123@V?$function@$$A6AXPEAX@Z@std@@@Z@4HA
$pdata$?dtor$5@?0???0UEDecryptBuilder@SDK@Core@IronMan@@QEAA@_KHW4BuildType@123@V?$function@$$A6AXPEAX@Z@std@@@Z@4HA DD imagerel ?dtor$5@?0???0UEDecryptBuilder@SDK@Core@IronMan@@QEAA@_KHW4BuildType@123@V?$function@$$A6AXPEAX@Z@std@@@Z@4HA
	DD	imagerel ?dtor$5@?0???0UEDecryptBuilder@SDK@Core@IronMan@@QEAA@_KHW4BuildType@123@V?$function@$$A6AXPEAX@Z@std@@@Z@4HA+27
	DD	imagerel $unwind$?dtor$5@?0???0UEDecryptBuilder@SDK@Core@IronMan@@QEAA@_KHW4BuildType@123@V?$function@$$A6AXPEAX@Z@std@@@Z@4HA
$pdata$?dtor$6@?0???0UEDecryptBuilder@SDK@Core@IronMan@@QEAA@_KHW4BuildType@123@V?$function@$$A6AXPEAX@Z@std@@@Z@4HA DD imagerel ?dtor$6@?0???0UEDecryptBuilder@SDK@Core@IronMan@@QEAA@_KHW4BuildType@123@V?$function@$$A6AXPEAX@Z@std@@@Z@4HA
	DD	imagerel ?dtor$6@?0???0UEDecryptBuilder@SDK@Core@IronMan@@QEAA@_KHW4BuildType@123@V?$function@$$A6AXPEAX@Z@std@@@Z@4HA+27
	DD	imagerel $unwind$?dtor$6@?0???0UEDecryptBuilder@SDK@Core@IronMan@@QEAA@_KHW4BuildType@123@V?$function@$$A6AXPEAX@Z@std@@@Z@4HA
pdata	ENDS
;	COMDAT pdata
pdata	SEGMENT
$pdata$??_GUEDecryptBuilder@SDK@Core@IronMan@@QEAAPEAXI@Z DD imagerel $LN4
	DD	imagerel $LN4+60
	DD	imagerel $unwind$??_GUEDecryptBuilder@SDK@Core@IronMan@@QEAAPEAXI@Z
pdata	ENDS
;	COMDAT pdata
pdata	SEGMENT
$pdata$??0?$_Uhash_compare@W4DecryptFunc@SDK@Core@IronMan@@U?$hash@W4DecryptFunc@SDK@Core@IronMan@@@std@@U?$equal_to@W4DecryptFunc@SDK@Core@IronMan@@@6@@std@@QEAA@XZ DD imagerel $LN3
	DD	imagerel $LN3+64
	DD	imagerel $unwind$??0?$_Uhash_compare@W4DecryptFunc@SDK@Core@IronMan@@U?$hash@W4DecryptFunc@SDK@Core@IronMan@@@std@@U?$equal_to@W4DecryptFunc@SDK@Core@IronMan@@@6@@std@@QEAA@XZ
pdata	ENDS
;	COMDAT pdata
pdata	SEGMENT
$pdata$??R?$equal_to@W4DecryptFunc@SDK@Core@IronMan@@@std@@QEBA_NAEBW4DecryptFunc@SDK@Core@IronMan@@0@Z DD imagerel $LN5
	DD	imagerel $LN5+60
	DD	imagerel $unwind$??R?$equal_to@W4DecryptFunc@SDK@Core@IronMan@@@std@@QEBA_NAEBW4DecryptFunc@SDK@Core@IronMan@@0@Z
pdata	ENDS
;	COMDAT pdata
pdata	SEGMENT
$pdata$??R?$_Conditionally_enabled_hash@W4DecryptFunc@SDK@Core@IronMan@@$00@std@@QEBA_KAEBW4DecryptFunc@SDK@Core@IronMan@@@Z DD imagerel $LN3
	DD	imagerel $LN3+29
	DD	imagerel $unwind$??R?$_Conditionally_enabled_hash@W4DecryptFunc@SDK@Core@IronMan@@$00@std@@QEBA_KAEBW4DecryptFunc@SDK@Core@IronMan@@@Z
pdata	ENDS
;	COMDAT pdata
pdata	SEGMENT
$pdata$?_Do_hash@?$hash@W4DecryptFunc@SDK@Core@IronMan@@@std@@SA_KAEBW4DecryptFunc@SDK@Core@IronMan@@@Z DD imagerel $LN3
	DD	imagerel $LN3+24
	DD	imagerel $unwind$?_Do_hash@?$hash@W4DecryptFunc@SDK@Core@IronMan@@@std@@SA_KAEBW4DecryptFunc@SDK@Core@IronMan@@@Z
pdata	ENDS
;	COMDAT pdata
pdata	SEGMENT
$pdata$?deallocate@?$allocator@U?$_List_node@U?$pair@$$CBW4DecryptFunc@SDK@Core@IronMan@@V?$unique_ptr@VUEDecryptBuilder@SDK@Core@IronMan@@U?$default_delete@VUEDecryptBuilder@SDK@Core@IronMan@@@std@@@std@@@std@@PEAX@std@@@std@@QEAAXQEAU?$_List_node@U?$pair@$$CBW4DecryptFunc@SDK@Core@IronMan@@V?$unique_ptr@VUEDecryptBuilder@SDK@Core@IronMan@@U?$default_delete@VUEDecryptBuilder@SDK@Core@IronMan@@@std@@@std@@@std@@PEAX@2@_K@Z DD imagerel $LN3
	DD	imagerel $LN3+44
	DD	imagerel $unwind$?deallocate@?$allocator@U?$_List_node@U?$pair@$$CBW4DecryptFunc@SDK@Core@IronMan@@V?$unique_ptr@VUEDecryptBuilder@SDK@Core@IronMan@@U?$default_delete@VUEDecryptBuilder@SDK@Core@IronMan@@@std@@@std@@@std@@PEAX@std@@@std@@QEAAXQEAU?$_List_node@U?$pair@$$CBW4DecryptFunc@SDK@Core@IronMan@@V?$unique_ptr@VUEDecryptBuilder@SDK@Core@IronMan@@U?$default_delete@VUEDecryptBuilder@SDK@Core@IronMan@@@std@@@std@@@std@@PEAX@2@_K@Z
pdata	ENDS
;	COMDAT pdata
pdata	SEGMENT
$pdata$?allocate@?$allocator@U?$_List_node@U?$pair@$$CBW4DecryptFunc@SDK@Core@IronMan@@V?$unique_ptr@VUEDecryptBuilder@SDK@Core@IronMan@@U?$default_delete@VUEDecryptBuilder@SDK@Core@IronMan@@@std@@@std@@@std@@PEAX@std@@@std@@QEAAPEAU?$_List_node@U?$pair@$$CBW4DecryptFunc@SDK@Core@IronMan@@V?$unique_ptr@VUEDecryptBuilder@SDK@Core@IronMan@@U?$default_delete@VUEDecryptBuilder@SDK@Core@IronMan@@@std@@@std@@@std@@PEAX@2@_K@Z DD imagerel $LN3
	DD	imagerel $LN3+37
	DD	imagerel $unwind$?allocate@?$allocator@U?$_List_node@U?$pair@$$CBW4DecryptFunc@SDK@Core@IronMan@@V?$unique_ptr@VUEDecryptBuilder@SDK@Core@IronMan@@U?$default_delete@VUEDecryptBuilder@SDK@Core@IronMan@@@std@@@std@@@std@@PEAX@std@@@std@@QEAAPEAU?$_List_node@U?$pair@$$CBW4DecryptFunc@SDK@Core@IronMan@@V?$unique_ptr@VUEDecryptBuilder@SDK@Core@IronMan@@U?$default_delete@VUEDecryptBuilder@SDK@Core@IronMan@@@std@@@std@@@std@@PEAX@2@_K@Z
pdata	ENDS
;	COMDAT pdata
pdata	SEGMENT
$pdata$?deallocate@?$_Default_allocator_traits@V?$allocator@U?$_List_node@U?$pair@$$CBW4DecryptFunc@SDK@Core@IronMan@@V?$unique_ptr@VUEDecryptBuilder@SDK@Core@IronMan@@U?$default_delete@VUEDecryptBuilder@SDK@Core@IronMan@@@std@@@std@@@std@@PEAX@std@@@std@@@std@@SAXAEAV?$allocator@U?$_List_node@U?$pair@$$CBW4DecryptFunc@SDK@Core@IronMan@@V?$unique_ptr@VUEDecryptBuilder@SDK@Core@IronMan@@U?$default_delete@VUEDecryptBuilder@SDK@Core@IronMan@@@std@@@std@@@std@@PEAX@std@@@2@QEAU?$_List_node@U?$pair@$$CBW4DecryptFunc@SDK@Core@IronMan@@V?$unique_ptr@VUEDecryptBuilder@SDK@Core@IronMan@@U?$default_delete@VUEDecryptBuilder@SDK@Core@IronMan@@@std@@@std@@@std@@PEAX@2@_K@Z DD imagerel $LN3
	DD	imagerel $LN3+44
	DD	imagerel $unwind$?deallocate@?$_Default_allocator_traits@V?$allocator@U?$_List_node@U?$pair@$$CBW4DecryptFunc@SDK@Core@IronMan@@V?$unique_ptr@VUEDecryptBuilder@SDK@Core@IronMan@@U?$default_delete@VUEDecryptBuilder@SDK@Core@IronMan@@@std@@@std@@@std@@PEAX@std@@@std@@@std@@SAXAEAV?$allocator@U?$_List_node@U?$pair@$$CBW4DecryptFunc@SDK@Core@IronMan@@V?$unique_ptr@VUEDecryptBuilder@SDK@Core@IronMan@@U?$default_delete@VUEDecryptBuilder@SDK@Core@IronMan@@@std@@@std@@@std@@PEAX@std@@@2@QEAU?$_List_node@U?$pair@$$CBW4DecryptFunc@SDK@Core@IronMan@@V?$unique_ptr@VUEDecryptBuilder@SDK@Core@IronMan@@U?$default_delete@VUEDecryptBuilder@SDK@Core@IronMan@@@std@@@std@@@std@@PEAX@2@_K@Z
pdata	ENDS
;	COMDAT pdata
pdata	SEGMENT
$pdata$??0?$list@U?$pair@$$CBW4DecryptFunc@SDK@Core@IronMan@@V?$unique_ptr@VUEDecryptBuilder@SDK@Core@IronMan@@U?$default_delete@VUEDecryptBuilder@SDK@Core@IronMan@@@std@@@std@@@std@@V?$allocator@U?$pair@$$CBW4DecryptFunc@SDK@Core@IronMan@@V?$unique_ptr@VUEDecryptBuilder@SDK@Core@IronMan@@U?$default_delete@VUEDecryptBuilder@SDK@Core@IronMan@@@std@@@std@@@std@@@2@@std@@QEAA@AEBV?$allocator@U?$pair@$$CBW4DecryptFunc@SDK@Core@IronMan@@V?$unique_ptr@VUEDecryptBuilder@SDK@Core@IronMan@@U?$default_delete@VUEDecryptBuilder@SDK@Core@IronMan@@@std@@@std@@@std@@@1@@Z DD imagerel $LN3
	DD	imagerel $LN3+66
	DD	imagerel $unwind$??0?$list@U?$pair@$$CBW4DecryptFunc@SDK@Core@IronMan@@V?$unique_ptr@VUEDecryptBuilder@SDK@Core@IronMan@@U?$default_delete@VUEDecryptBuilder@SDK@Core@IronMan@@@std@@@std@@@std@@V?$allocator@U?$pair@$$CBW4DecryptFunc@SDK@Core@IronMan@@V?$unique_ptr@VUEDecryptBuilder@SDK@Core@IronMan@@U?$default_delete@VUEDecryptBuilder@SDK@Core@IronMan@@@std@@@std@@@std@@@2@@std@@QEAA@AEBV?$allocator@U?$pair@$$CBW4DecryptFunc@SDK@Core@IronMan@@V?$unique_ptr@VUEDecryptBuilder@SDK@Core@IronMan@@U?$default_delete@VUEDecryptBuilder@SDK@Core@IronMan@@@std@@@std@@@std@@@1@@Z
pdata	ENDS
;	COMDAT pdata
pdata	SEGMENT
$pdata$??1?$list@U?$pair@$$CBW4DecryptFunc@SDK@Core@IronMan@@V?$unique_ptr@VUEDecryptBuilder@SDK@Core@IronMan@@U?$default_delete@VUEDecryptBuilder@SDK@Core@IronMan@@@std@@@std@@@std@@V?$allocator@U?$pair@$$CBW4DecryptFunc@SDK@Core@IronMan@@V?$unique_ptr@VUEDecryptBuilder@SDK@Core@IronMan@@U?$default_delete@VUEDecryptBuilder@SDK@Core@IronMan@@@std@@@std@@@std@@@2@@std@@QEAA@XZ DD imagerel $LN3
	DD	imagerel $LN3+25
	DD	imagerel $unwind$??1?$list@U?$pair@$$CBW4DecryptFunc@SDK@Core@IronMan@@V?$unique_ptr@VUEDecryptBuilder@SDK@Core@IronMan@@U?$default_delete@VUEDecryptBuilder@SDK@Core@IronMan@@@std@@@std@@@std@@V?$allocator@U?$pair@$$CBW4DecryptFunc@SDK@Core@IronMan@@V?$unique_ptr@VUEDecryptBuilder@SDK@Core@IronMan@@U?$default_delete@VUEDecryptBuilder@SDK@Core@IronMan@@@std@@@std@@@std@@@2@@std@@QEAA@XZ
pdata	ENDS
;	COMDAT pdata
pdata	SEGMENT
$pdata$?_Unchecked_begin@?$list@U?$pair@$$CBW4DecryptFunc@SDK@Core@IronMan@@V?$unique_ptr@VUEDecryptBuilder@SDK@Core@IronMan@@U?$default_delete@VUEDecryptBuilder@SDK@Core@IronMan@@@std@@@std@@@std@@V?$allocator@U?$pair@$$CBW4DecryptFunc@SDK@Core@IronMan@@V?$unique_ptr@VUEDecryptBuilder@SDK@Core@IronMan@@U?$default_delete@VUEDecryptBuilder@SDK@Core@IronMan@@@std@@@std@@@std@@@2@@std@@QEAA?AV?$_List_unchecked_iterator@V?$_List_val@U?$_List_simple_types@U?$pair@$$CBW4DecryptFunc@SDK@Core@IronMan@@V?$unique_ptr@VUEDecryptBuilder@SDK@Core@IronMan@@U?$default_delete@VUEDecryptBuilder@SDK@Core@IronMan@@@std@@@std@@@std@@@std@@@std@@@2@XZ DD imagerel $LN3
	DD	imagerel $LN3+48
	DD	imagerel $unwind$?_Unchecked_begin@?$list@U?$pair@$$CBW4DecryptFunc@SDK@Core@IronMan@@V?$unique_ptr@VUEDecryptBuilder@SDK@Core@IronMan@@U?$default_delete@VUEDecryptBuilder@SDK@Core@IronMan@@@std@@@std@@@std@@V?$allocator@U?$pair@$$CBW4DecryptFunc@SDK@Core@IronMan@@V?$unique_ptr@VUEDecryptBuilder@SDK@Core@IronMan@@U?$default_delete@VUEDecryptBuilder@SDK@Core@IronMan@@@std@@@std@@@std@@@2@@std@@QEAA?AV?$_List_unchecked_iterator@V?$_List_val@U?$_List_simple_types@U?$pair@$$CBW4DecryptFunc@SDK@Core@IronMan@@V?$unique_ptr@VUEDecryptBuilder@SDK@Core@IronMan@@U?$default_delete@VUEDecryptBuilder@SDK@Core@IronMan@@@std@@@std@@@std@@@std@@@std@@@2@XZ
pdata	ENDS
;	COMDAT pdata
pdata	SEGMENT
$pdata$?_Unchecked_end@?$list@U?$pair@$$CBW4DecryptFunc@SDK@Core@IronMan@@V?$unique_ptr@VUEDecryptBuilder@SDK@Core@IronMan@@U?$default_delete@VUEDecryptBuilder@SDK@Core@IronMan@@@std@@@std@@@std@@V?$allocator@U?$pair@$$CBW4DecryptFunc@SDK@Core@IronMan@@V?$unique_ptr@VUEDecryptBuilder@SDK@Core@IronMan@@U?$default_delete@VUEDecryptBuilder@SDK@Core@IronMan@@@std@@@std@@@std@@@2@@std@@QEAA?AV?$_List_unchecked_iterator@V?$_List_val@U?$_List_simple_types@U?$pair@$$CBW4DecryptFunc@SDK@Core@IronMan@@V?$unique_ptr@VUEDecryptBuilder@SDK@Core@IronMan@@U?$default_delete@VUEDecryptBuilder@SDK@Core@IronMan@@@std@@@std@@@std@@@std@@@std@@@2@XZ DD imagerel $LN3
	DD	imagerel $LN3+45
	DD	imagerel $unwind$?_Unchecked_end@?$list@U?$pair@$$CBW4DecryptFunc@SDK@Core@IronMan@@V?$unique_ptr@VUEDecryptBuilder@SDK@Core@IronMan@@U?$default_delete@VUEDecryptBuilder@SDK@Core@IronMan@@@std@@@std@@@std@@V?$allocator@U?$pair@$$CBW4DecryptFunc@SDK@Core@IronMan@@V?$unique_ptr@VUEDecryptBuilder@SDK@Core@IronMan@@U?$default_delete@VUEDecryptBuilder@SDK@Core@IronMan@@@std@@@std@@@std@@@2@@std@@QEAA?AV?$_List_unchecked_iterator@V?$_List_val@U?$_List_simple_types@U?$pair@$$CBW4DecryptFunc@SDK@Core@IronMan@@V?$unique_ptr@VUEDecryptBuilder@SDK@Core@IronMan@@U?$default_delete@VUEDecryptBuilder@SDK@Core@IronMan@@@std@@@std@@@std@@@std@@@std@@@2@XZ
pdata	ENDS
;	COMDAT pdata
pdata	SEGMENT
$pdata$?_Make_iter@?$list@U?$pair@$$CBW4DecryptFunc@SDK@Core@IronMan@@V?$unique_ptr@VUEDecryptBuilder@SDK@Core@IronMan@@U?$default_delete@VUEDecryptBuilder@SDK@Core@IronMan@@@std@@@std@@@std@@V?$allocator@U?$pair@$$CBW4DecryptFunc@SDK@Core@IronMan@@V?$unique_ptr@VUEDecryptBuilder@SDK@Core@IronMan@@U?$default_delete@VUEDecryptBuilder@SDK@Core@IronMan@@@std@@@std@@@std@@@2@@std@@QEBA?AV?$_List_iterator@V?$_List_val@U?$_List_simple_types@U?$pair@$$CBW4DecryptFunc@SDK@Core@IronMan@@V?$unique_ptr@VUEDecryptBuilder@SDK@Core@IronMan@@U?$default_delete@VUEDecryptBuilder@SDK@Core@IronMan@@@std@@@std@@@std@@@std@@@std@@@2@PEAU?$_List_node@U?$pair@$$CBW4DecryptFunc@SDK@Core@IronMan@@V?$unique_ptr@VUEDecryptBuilder@SDK@Core@IronMan@@U?$default_delete@VUEDecryptBuilder@SDK@Core@IronMan@@@std@@@std@@@std@@PEAX@2@@Z DD imagerel $LN3
	DD	imagerel $LN3+60
	DD	imagerel $unwind$?_Make_iter@?$list@U?$pair@$$CBW4DecryptFunc@SDK@Core@IronMan@@V?$unique_ptr@VUEDecryptBuilder@SDK@Core@IronMan@@U?$default_delete@VUEDecryptBuilder@SDK@Core@IronMan@@@std@@@std@@@std@@V?$allocator@U?$pair@$$CBW4DecryptFunc@SDK@Core@IronMan@@V?$unique_ptr@VUEDecryptBuilder@SDK@Core@IronMan@@U?$default_delete@VUEDecryptBuilder@SDK@Core@IronMan@@@std@@@std@@@std@@@2@@std@@QEBA?AV?$_List_iterator@V?$_List_val@U?$_List_simple_types@U?$pair@$$CBW4DecryptFunc@SDK@Core@IronMan@@V?$unique_ptr@VUEDecryptBuilder@SDK@Core@IronMan@@U?$default_delete@VUEDecryptBuilder@SDK@Core@IronMan@@@std@@@std@@@std@@@std@@@std@@@2@PEAU?$_List_node@U?$pair@$$CBW4DecryptFunc@SDK@Core@IronMan@@V?$unique_ptr@VUEDecryptBuilder@SDK@Core@IronMan@@U?$default_delete@VUEDecryptBuilder@SDK@Core@IronMan@@@std@@@std@@@std@@PEAX@2@@Z
pdata	ENDS
;	COMDAT pdata
pdata	SEGMENT
$pdata$?max_size@?$list@U?$pair@$$CBW4DecryptFunc@SDK@Core@IronMan@@V?$unique_ptr@VUEDecryptBuilder@SDK@Core@IronMan@@U?$default_delete@VUEDecryptBuilder@SDK@Core@IronMan@@@std@@@std@@@std@@V?$allocator@U?$pair@$$CBW4DecryptFunc@SDK@Core@IronMan@@V?$unique_ptr@VUEDecryptBuilder@SDK@Core@IronMan@@U?$default_delete@VUEDecryptBuilder@SDK@Core@IronMan@@@std@@@std@@@std@@@2@@std@@QEBA_KXZ DD imagerel $LN3
	DD	imagerel $LN3+65
	DD	imagerel $unwind$?max_size@?$list@U?$pair@$$CBW4DecryptFunc@SDK@Core@IronMan@@V?$unique_ptr@VUEDecryptBuilder@SDK@Core@IronMan@@U?$default_delete@VUEDecryptBuilder@SDK@Core@IronMan@@@std@@@std@@@std@@V?$allocator@U?$pair@$$CBW4DecryptFunc@SDK@Core@IronMan@@V?$unique_ptr@VUEDecryptBuilder@SDK@Core@IronMan@@U?$default_delete@VUEDecryptBuilder@SDK@Core@IronMan@@@std@@@std@@@std@@@2@@std@@QEBA_KXZ
pdata	ENDS
;	COMDAT pdata
pdata	SEGMENT
$pdata$?clear@?$list@U?$pair@$$CBW4DecryptFunc@SDK@Core@IronMan@@V?$unique_ptr@VUEDecryptBuilder@SDK@Core@IronMan@@U?$default_delete@VUEDecryptBuilder@SDK@Core@IronMan@@@std@@@std@@@std@@V?$allocator@U?$pair@$$CBW4DecryptFunc@SDK@Core@IronMan@@V?$unique_ptr@VUEDecryptBuilder@SDK@Core@IronMan@@U?$default_delete@VUEDecryptBuilder@SDK@Core@IronMan@@@std@@@std@@@std@@@2@@std@@QEAAXXZ DD imagerel $LN3
	DD	imagerel $LN3+129
	DD	imagerel $unwind$?clear@?$list@U?$pair@$$CBW4DecryptFunc@SDK@Core@IronMan@@V?$unique_ptr@VUEDecryptBuilder@SDK@Core@IronMan@@U?$default_delete@VUEDecryptBuilder@SDK@Core@IronMan@@@std@@@std@@@std@@V?$allocator@U?$pair@$$CBW4DecryptFunc@SDK@Core@IronMan@@V?$unique_ptr@VUEDecryptBuilder@SDK@Core@IronMan@@U?$default_delete@VUEDecryptBuilder@SDK@Core@IronMan@@@std@@@std@@@std@@@2@@std@@QEAAXXZ
pdata	ENDS
;	COMDAT pdata
pdata	SEGMENT
$pdata$?_Tidy@?$list@U?$pair@$$CBW4DecryptFunc@SDK@Core@IronMan@@V?$unique_ptr@VUEDecryptBuilder@SDK@Core@IronMan@@U?$default_delete@VUEDecryptBuilder@SDK@Core@IronMan@@@std@@@std@@@std@@V?$allocator@U?$pair@$$CBW4DecryptFunc@SDK@Core@IronMan@@V?$unique_ptr@VUEDecryptBuilder@SDK@Core@IronMan@@U?$default_delete@VUEDecryptBuilder@SDK@Core@IronMan@@@std@@@std@@@std@@@2@@std@@AEAAXXZ DD imagerel $LN3
	DD	imagerel $LN3+86
	DD	imagerel $unwind$?_Tidy@?$list@U?$pair@$$CBW4DecryptFunc@SDK@Core@IronMan@@V?$unique_ptr@VUEDecryptBuilder@SDK@Core@IronMan@@U?$default_delete@VUEDecryptBuilder@SDK@Core@IronMan@@@std@@@std@@@std@@V?$allocator@U?$pair@$$CBW4DecryptFunc@SDK@Core@IronMan@@V?$unique_ptr@VUEDecryptBuilder@SDK@Core@IronMan@@U?$default_delete@VUEDecryptBuilder@SDK@Core@IronMan@@@std@@@std@@@std@@@2@@std@@AEAAXXZ
pdata	ENDS
;	COMDAT pdata
pdata	SEGMENT
$pdata$?_Alloc_sentinel_and_proxy@?$list@U?$pair@$$CBW4DecryptFunc@SDK@Core@IronMan@@V?$unique_ptr@VUEDecryptBuilder@SDK@Core@IronMan@@U?$default_delete@VUEDecryptBuilder@SDK@Core@IronMan@@@std@@@std@@@std@@V?$allocator@U?$pair@$$CBW4DecryptFunc@SDK@Core@IronMan@@V?$unique_ptr@VUEDecryptBuilder@SDK@Core@IronMan@@U?$default_delete@VUEDecryptBuilder@SDK@Core@IronMan@@@std@@@std@@@std@@@2@@std@@AEAAXXZ DD imagerel $LN3
	DD	imagerel $LN3+148
	DD	imagerel $unwind$?_Alloc_sentinel_and_proxy@?$list@U?$pair@$$CBW4DecryptFunc@SDK@Core@IronMan@@V?$unique_ptr@VUEDecryptBuilder@SDK@Core@IronMan@@U?$default_delete@VUEDecryptBuilder@SDK@Core@IronMan@@@std@@@std@@@std@@V?$allocator@U?$pair@$$CBW4DecryptFunc@SDK@Core@IronMan@@V?$unique_ptr@VUEDecryptBuilder@SDK@Core@IronMan@@U?$default_delete@VUEDecryptBuilder@SDK@Core@IronMan@@@std@@@std@@@std@@@2@@std@@AEAAXXZ
pdata	ENDS
;	COMDAT pdata
pdata	SEGMENT
$pdata$?_Getal@?$list@U?$pair@$$CBW4DecryptFunc@SDK@Core@IronMan@@V?$unique_ptr@VUEDecryptBuilder@SDK@Core@IronMan@@U?$default_delete@VUEDecryptBuilder@SDK@Core@IronMan@@@std@@@std@@@std@@V?$allocator@U?$pair@$$CBW4DecryptFunc@SDK@Core@IronMan@@V?$unique_ptr@VUEDecryptBuilder@SDK@Core@IronMan@@U?$default_delete@VUEDecryptBuilder@SDK@Core@IronMan@@@std@@@std@@@std@@@2@@std@@AEAAAEAV?$allocator@U?$_List_node@U?$pair@$$CBW4DecryptFunc@SDK@Core@IronMan@@V?$unique_ptr@VUEDecryptBuilder@SDK@Core@IronMan@@U?$default_delete@VUEDecryptBuilder@SDK@Core@IronMan@@@std@@@std@@@std@@PEAX@std@@@2@XZ DD imagerel $LN3
	DD	imagerel $LN3+27
	DD	imagerel $unwind$?_Getal@?$list@U?$pair@$$CBW4DecryptFunc@SDK@Core@IronMan@@V?$unique_ptr@VUEDecryptBuilder@SDK@Core@IronMan@@U?$default_delete@VUEDecryptBuilder@SDK@Core@IronMan@@@std@@@std@@@std@@V?$allocator@U?$pair@$$CBW4DecryptFunc@SDK@Core@IronMan@@V?$unique_ptr@VUEDecryptBuilder@SDK@Core@IronMan@@U?$default_delete@VUEDecryptBuilder@SDK@Core@IronMan@@@std@@@std@@@std@@@2@@std@@AEAAAEAV?$allocator@U?$_List_node@U?$pair@$$CBW4DecryptFunc@SDK@Core@IronMan@@V?$unique_ptr@VUEDecryptBuilder@SDK@Core@IronMan@@U?$default_delete@VUEDecryptBuilder@SDK@Core@IronMan@@@std@@@std@@@std@@PEAX@std@@@2@XZ
pdata	ENDS
;	COMDAT pdata
pdata	SEGMENT
$pdata$?_Getal@?$list@U?$pair@$$CBW4DecryptFunc@SDK@Core@IronMan@@V?$unique_ptr@VUEDecryptBuilder@SDK@Core@IronMan@@U?$default_delete@VUEDecryptBuilder@SDK@Core@IronMan@@@std@@@std@@@std@@V?$allocator@U?$pair@$$CBW4DecryptFunc@SDK@Core@IronMan@@V?$unique_ptr@VUEDecryptBuilder@SDK@Core@IronMan@@U?$default_delete@VUEDecryptBuilder@SDK@Core@IronMan@@@std@@@std@@@std@@@2@@std@@AEBAAEBV?$allocator@U?$_List_node@U?$pair@$$CBW4DecryptFunc@SDK@Core@IronMan@@V?$unique_ptr@VUEDecryptBuilder@SDK@Core@IronMan@@U?$default_delete@VUEDecryptBuilder@SDK@Core@IronMan@@@std@@@std@@@std@@PEAX@std@@@2@XZ DD imagerel $LN3
	DD	imagerel $LN3+27
	DD	imagerel $unwind$?_Getal@?$list@U?$pair@$$CBW4DecryptFunc@SDK@Core@IronMan@@V?$unique_ptr@VUEDecryptBuilder@SDK@Core@IronMan@@U?$default_delete@VUEDecryptBuilder@SDK@Core@IronMan@@@std@@@std@@@std@@V?$allocator@U?$pair@$$CBW4DecryptFunc@SDK@Core@IronMan@@V?$unique_ptr@VUEDecryptBuilder@SDK@Core@IronMan@@U?$default_delete@VUEDecryptBuilder@SDK@Core@IronMan@@@std@@@std@@@std@@@2@@std@@AEBAAEBV?$allocator@U?$_List_node@U?$pair@$$CBW4DecryptFunc@SDK@Core@IronMan@@V?$unique_ptr@VUEDecryptBuilder@SDK@Core@IronMan@@U?$default_delete@VUEDecryptBuilder@SDK@Core@IronMan@@@std@@@std@@@std@@PEAX@std@@@2@XZ
pdata	ENDS
;	COMDAT pdata
pdata	SEGMENT
