; Listing generated by Microsoft (R) Optimizing Compiler Version 19.43.34810.0 

include listing.inc

INCLUDELIB LIBCMT
INCLUDELIB OLDNAMES

PUBLIC	?useCache@@3_NA					; useCache
PUBLIC	??_C@_06GLKGGCJO@LcOpen@			; `string'
PUBLIC	??_C@_06GJPHNGFG@LcRead@			; `string'
PUBLIC	??_C@_0O@CBBNAKKC@LcReadScatter@		; `string'
PUBLIC	??_C@_07MBHEMNEL@LcWrite@			; `string'
PUBLIC	??_C@_0P@DAJMPOFM@LcWriteScatter@		; `string'
PUBLIC	??_C@_0M@HBBFEIGD@LcGetOption@			; `string'
PUBLIC	??_C@_0M@FPFAGJPB@LcSetOption@			; `string'
PUBLIC	??_C@_09DCHLEDFD@LcCommand@			; `string'
PUBLIC	??_C@_03HPADHAHE@N?1A@				; `string'
PUBLIC	??_C@_03HDGGCCPD@X86@				; `string'
PUBLIC	??_C@_06IDLKBMKC@X86PAE@			; `string'
PUBLIC	??_C@_03ELMOGNHL@X64@				; `string'
PUBLIC	??_C@_05DKFIPBAL@ARM64@				; `string'
PUBLIC	??_C@_04PCJGBDOP@Zero@				; `string'
PUBLIC	??_C@_04HJMOFLDF@Free@				; `string'
PUBLIC	??_C@_07LNBDIIPN@Standby@			; `string'
PUBLIC	??_C@_07PFEKAJBJ@Modifiy@			; `string'
PUBLIC	??_C@_07DGKCKENG@ModNoWr@			; `string'
PUBLIC	??_C@_03KHCCLPOB@Bad@				; `string'
PUBLIC	??_C@_06MAFFGDO@Active@				; `string'
PUBLIC	??_C@_07KADDEKFE@Transit@			; `string'
PUBLIC	??_C@_01JOAMLHOP@?9@				; `string'
PUBLIC	??_C@_06CGLFEPBO@Unused@			; `string'
PUBLIC	??_C@_08LBAJPEDB@ProcPriv@			; `string'
PUBLIC	??_C@_09BGPMMIPE@PageTable@			; `string'
PUBLIC	??_C@_09MFCNICMF@LargePage@			; `string'
PUBLIC	??_C@_0L@DHBAIELD@DriverLock@			; `string'
PUBLIC	??_C@_09PKFILKGD@Shareable@			; `string'
PUBLIC	??_C@_04PBAHLACE@File@				; `string'
PUBLIC	_Avx2WmemEnabledWeakValue
PUBLIC	?GlobalNames1@SDK@Core@IronMan@@3_KA		; IronMan::Core::SDK::GlobalNames1
PUBLIC	?GlobalNames2@SDK@Core@IronMan@@3_KA		; IronMan::Core::SDK::GlobalNames2
PUBLIC	?GlobalNames3@SDK@Core@IronMan@@3_KA		; IronMan::Core::SDK::GlobalNames3
EXTRN	?x86RegData@asmjit@@3UX86RegData@1@B:BYTE	; asmjit::x86RegData
;	COMDAT _Avx2WmemEnabledWeakValue
_BSS	SEGMENT
_Avx2WmemEnabledWeakValue DD 01H DUP (?)
_BSS	ENDS
_BSS	SEGMENT
?GlobalNames1@SDK@Core@IronMan@@3_KA DQ 01H DUP (?)	; IronMan::Core::SDK::GlobalNames1
?GlobalNames2@SDK@Core@IronMan@@3_KA DQ 01H DUP (?)	; IronMan::Core::SDK::GlobalNames2
?GlobalNames3@SDK@Core@IronMan@@3_KA DQ 01H DUP (?)	; IronMan::Core::SDK::GlobalNames3
_BSS	ENDS
CONST	SEGMENT
?NoInit@asmjit@@3U_NoInit@1@B	ORG $+1			; asmjit::NoInit
CONST	ENDS
;	COMDAT ??_C@_04PBAHLACE@File@
CONST	SEGMENT
??_C@_04PBAHLACE@File@ DB 'File', 00H			; `string'
CONST	ENDS
;	COMDAT ??_C@_09PKFILKGD@Shareable@
CONST	SEGMENT
??_C@_09PKFILKGD@Shareable@ DB 'Shareable', 00H		; `string'
CONST	ENDS
;	COMDAT ??_C@_0L@DHBAIELD@DriverLock@
CONST	SEGMENT
??_C@_0L@DHBAIELD@DriverLock@ DB 'DriverLock', 00H	; `string'
CONST	ENDS
;	COMDAT ??_C@_09MFCNICMF@LargePage@
CONST	SEGMENT
??_C@_09MFCNICMF@LargePage@ DB 'LargePage', 00H		; `string'
CONST	ENDS
;	COMDAT ??_C@_09BGPMMIPE@PageTable@
CONST	SEGMENT
??_C@_09BGPMMIPE@PageTable@ DB 'PageTable', 00H		; `string'
CONST	ENDS
;	COMDAT ??_C@_08LBAJPEDB@ProcPriv@
CONST	SEGMENT
??_C@_08LBAJPEDB@ProcPriv@ DB 'ProcPriv', 00H		; `string'
CONST	ENDS
;	COMDAT ??_C@_06CGLFEPBO@Unused@
CONST	SEGMENT
??_C@_06CGLFEPBO@Unused@ DB 'Unused', 00H		; `string'
CONST	ENDS
;	COMDAT ??_C@_01JOAMLHOP@?9@
CONST	SEGMENT
??_C@_01JOAMLHOP@?9@ DB '-', 00H			; `string'
CONST	ENDS
;	COMDAT ??_C@_07KADDEKFE@Transit@
CONST	SEGMENT
??_C@_07KADDEKFE@Transit@ DB 'Transit', 00H		; `string'
CONST	ENDS
;	COMDAT ??_C@_06MAFFGDO@Active@
CONST	SEGMENT
??_C@_06MAFFGDO@Active@ DB 'Active', 00H		; `string'
CONST	ENDS
;	COMDAT ??_C@_03KHCCLPOB@Bad@
CONST	SEGMENT
??_C@_03KHCCLPOB@Bad@ DB 'Bad', 00H			; `string'
CONST	ENDS
;	COMDAT ??_C@_07DGKCKENG@ModNoWr@
CONST	SEGMENT
??_C@_07DGKCKENG@ModNoWr@ DB 'ModNoWr', 00H		; `string'
CONST	ENDS
;	COMDAT ??_C@_07PFEKAJBJ@Modifiy@
CONST	SEGMENT
??_C@_07PFEKAJBJ@Modifiy@ DB 'Modifiy', 00H		; `string'
CONST	ENDS
;	COMDAT ??_C@_07LNBDIIPN@Standby@
CONST	SEGMENT
??_C@_07LNBDIIPN@Standby@ DB 'Standby', 00H		; `string'
CONST	ENDS
;	COMDAT ??_C@_04HJMOFLDF@Free@
CONST	SEGMENT
??_C@_04HJMOFLDF@Free@ DB 'Free', 00H			; `string'
CONST	ENDS
;	COMDAT ??_C@_04PCJGBDOP@Zero@
CONST	SEGMENT
??_C@_04PCJGBDOP@Zero@ DB 'Zero', 00H			; `string'
CONST	ENDS
;	COMDAT ??_C@_05DKFIPBAL@ARM64@
CONST	SEGMENT
??_C@_05DKFIPBAL@ARM64@ DB 'ARM64', 00H			; `string'
CONST	ENDS
;	COMDAT ??_C@_03ELMOGNHL@X64@
CONST	SEGMENT
??_C@_03ELMOGNHL@X64@ DB 'X64', 00H			; `string'
CONST	ENDS
;	COMDAT ??_C@_06IDLKBMKC@X86PAE@
CONST	SEGMENT
??_C@_06IDLKBMKC@X86PAE@ DB 'X86PAE', 00H		; `string'
CONST	ENDS
;	COMDAT ??_C@_03HDGGCCPD@X86@
CONST	SEGMENT
??_C@_03HDGGCCPD@X86@ DB 'X86', 00H			; `string'
CONST	ENDS
;	COMDAT ??_C@_03HPADHAHE@N?1A@
CONST	SEGMENT
??_C@_03HPADHAHE@N?1A@ DB 'N/A', 00H			; `string'
CONST	ENDS
;	COMDAT ??_C@_09DCHLEDFD@LcCommand@
CONST	SEGMENT
??_C@_09DCHLEDFD@LcCommand@ DB 'LcCommand', 00H		; `string'
CONST	ENDS
;	COMDAT ??_C@_0M@FPFAGJPB@LcSetOption@
CONST	SEGMENT
??_C@_0M@FPFAGJPB@LcSetOption@ DB 'LcSetOption', 00H	; `string'
CONST	ENDS
;	COMDAT ??_C@_0M@HBBFEIGD@LcGetOption@
CONST	SEGMENT
??_C@_0M@HBBFEIGD@LcGetOption@ DB 'LcGetOption', 00H	; `string'
CONST	ENDS
;	COMDAT ??_C@_0P@DAJMPOFM@LcWriteScatter@
CONST	SEGMENT
??_C@_0P@DAJMPOFM@LcWriteScatter@ DB 'LcWriteScatter', 00H ; `string'
CONST	ENDS
;	COMDAT ??_C@_07MBHEMNEL@LcWrite@
CONST	SEGMENT
??_C@_07MBHEMNEL@LcWrite@ DB 'LcWrite', 00H		; `string'
CONST	ENDS
;	COMDAT ??_C@_0O@CBBNAKKC@LcReadScatter@
CONST	SEGMENT
??_C@_0O@CBBNAKKC@LcReadScatter@ DB 'LcReadScatter', 00H ; `string'
CONST	ENDS
;	COMDAT ??_C@_06GJPHNGFG@LcRead@
CONST	SEGMENT
??_C@_06GJPHNGFG@LcRead@ DB 'LcRead', 00H		; `string'
CONST	ENDS
;	COMDAT ??_C@_06GLKGGCJO@LcOpen@
CONST	SEGMENT
??_C@_06GLKGGCJO@LcOpen@ DB 'LcOpen', 00H		; `string'
CONST	ENDS
_DATA	SEGMENT
?useCache@@3_NA DB 01H					; useCache
_DATA	ENDS
PUBLIC	??_H@YAXPEAX_K1P6APEAX0@Z@Z			; `vector constructor iterator'
PUBLIC	??2@YAPEAX_KPEAX@Z				; operator new
PUBLIC	?_Fnv1a_append_bytes@std@@YA_K_KQEBE_K@Z	; std::_Fnv1a_append_bytes
PUBLIC	?copy@?$_Char_traits@DH@std@@SAPEADQEADQEBD_K@Z	; std::_Char_traits<char,int>::copy
PUBLIC	?compare@?$_Narrow_char_traits@DH@std@@SAHQEBD0_K@Z ; std::_Narrow_char_traits<char,int>::compare
PUBLIC	?length@?$_Narrow_char_traits@DH@std@@SA_KQEBD@Z ; std::_Narrow_char_traits<char,int>::length
PUBLIC	?assign@?$_Narrow_char_traits@DH@std@@SAXAEADAEBD@Z ; std::_Narrow_char_traits<char,int>::assign
PUBLIC	??0exception@std@@QEAA@QEBDH@Z			; std::exception::exception
PUBLIC	??0exception@std@@QEAA@AEBV01@@Z		; std::exception::exception
PUBLIC	??1exception@std@@UEAA@XZ			; std::exception::~exception
PUBLIC	?what@exception@std@@UEBAPEBDXZ			; std::exception::what
PUBLIC	??_Gexception@std@@UEAAPEAXI@Z			; std::exception::`scalar deleting destructor'
PUBLIC	??0bad_alloc@std@@AEAA@QEBD@Z			; std::bad_alloc::bad_alloc
PUBLIC	??1bad_alloc@std@@UEAA@XZ			; std::bad_alloc::~bad_alloc
PUBLIC	??0bad_alloc@std@@QEAA@AEBV01@@Z		; std::bad_alloc::bad_alloc
PUBLIC	??_Gbad_alloc@std@@UEAAPEAXI@Z			; std::bad_alloc::`scalar deleting destructor'
PUBLIC	??0bad_array_new_length@std@@QEAA@XZ		; std::bad_array_new_length::bad_array_new_length
PUBLIC	??1bad_array_new_length@std@@UEAA@XZ		; std::bad_array_new_length::~bad_array_new_length
PUBLIC	??0bad_array_new_length@std@@QEAA@AEBV01@@Z	; std::bad_array_new_length::bad_array_new_length
PUBLIC	??_Gbad_array_new_length@std@@UEAAPEAXI@Z	; std::bad_array_new_length::`scalar deleting destructor'
PUBLIC	?_Throw_bad_array_new_length@std@@YAXXZ		; std::_Throw_bad_array_new_length
PUBLIC	?_Allocate@_Default_allocate_traits@std@@SAPEAX_K@Z ; std::_Default_allocate_traits::_Allocate
PUBLIC	?_Adjust_manually_vector_aligned@std@@YAXAEAPEAXAEA_K@Z ; std::_Adjust_manually_vector_aligned
PUBLIC	?_Orphan_all@_Container_base0@std@@QEAAXXZ	; std::_Container_base0::_Orphan_all
PUBLIC	?_Alloc_proxy@_Container_base0@std@@QEAAXAEBU_Fake_allocator@2@@Z ; std::_Container_base0::_Alloc_proxy
PUBLIC	?_Adopt@_Iterator_base0@std@@QEAAXPEBX@Z	; std::_Iterator_base0::_Adopt
PUBLIC	??0_Fake_proxy_ptr_impl@std@@QEAA@AEBU_Fake_allocator@1@AEBU_Container_base0@1@@Z ; std::_Fake_proxy_ptr_impl::_Fake_proxy_ptr_impl
PUBLIC	?_Release@_Fake_proxy_ptr_impl@std@@QEAAXXZ	; std::_Fake_proxy_ptr_impl::_Release
PUBLIC	??0?$tuple@$$V@std@@QEAA@AEBV01@@Z		; std::tuple<>::tuple<>
PUBLIC	?_Xlen_string@std@@YAXXZ			; std::_Xlen_string
PUBLIC	??0?$allocator@D@std@@QEAA@XZ			; std::allocator<char>::allocator<char>
PUBLIC	?deallocate@?$allocator@D@std@@QEAAXQEAD_K@Z	; std::allocator<char>::deallocate
PUBLIC	?allocate@?$allocator@D@std@@QEAAPEAD_K@Z	; std::allocator<char>::allocate
PUBLIC	?max_size@?$_Default_allocator_traits@V?$allocator@D@std@@@std@@SA_KAEBV?$allocator@D@2@@Z ; std::_Default_allocator_traits<std::allocator<char> >::max_size
PUBLIC	??0?$_String_val@U?$_Simple_types@D@std@@@std@@QEAA@XZ ; std::_String_val<std::_Simple_types<char> >::_String_val<std::_Simple_types<char> >
PUBLIC	?_Myptr@?$_String_val@U?$_Simple_types@D@std@@@std@@QEBAPEBDXZ ; std::_String_val<std::_Simple_types<char> >::_Myptr
PUBLIC	?_Large_mode_engaged@?$_String_val@U?$_Simple_types@D@std@@@std@@QEBA_NXZ ; std::_String_val<std::_Simple_types<char> >::_Large_mode_engaged
PUBLIC	?_Activate_SSO_buffer@?$_String_val@U?$_Simple_types@D@std@@@std@@QEAAXXZ ; std::_String_val<std::_Simple_types<char> >::_Activate_SSO_buffer
PUBLIC	??0_Bxty@?$_String_val@U?$_Simple_types@D@std@@@std@@QEAA@XZ ; std::_String_val<std::_Simple_types<char> >::_Bxty::_Bxty
PUBLIC	??1_Bxty@?$_String_val@U?$_Simple_types@D@std@@@std@@QEAA@XZ ; std::_String_val<std::_Simple_types<char> >::_Bxty::~_Bxty
PUBLIC	?_Switch_to_buf@_Bxty@?$_String_val@U?$_Simple_types@D@std@@@std@@QEAAXXZ ; std::_String_val<std::_Simple_types<char> >::_Bxty::_Switch_to_buf
PUBLIC	??1?$_String_val@U?$_Simple_types@D@std@@@std@@QEAA@XZ ; std::_String_val<std::_Simple_types<char> >::~_String_val<std::_Simple_types<char> >
PUBLIC	??0?$basic_string@DU?$char_traits@D@std@@V?$allocator@D@2@@std@@QEAA@XZ ; std::basic_string<char,std::char_traits<char>,std::allocator<char> >::basic_string<char,std::char_traits<char>,std::allocator<char> >
PUBLIC	??0?$basic_string@DU?$char_traits@D@std@@V?$allocator@D@2@@std@@QEAA@QEBD@Z ; std::basic_string<char,std::char_traits<char>,std::allocator<char> >::basic_string<char,std::char_traits<char>,std::allocator<char> >
PUBLIC	?_Deallocate_for_capacity@?$basic_string@DU?$char_traits@D@std@@V?$allocator@D@2@@std@@CAXAEAV?$allocator@D@2@QEAD_K@Z ; std::basic_string<char,std::char_traits<char>,std::allocator<char> >::_Deallocate_for_capacity
PUBLIC	?_Construct_empty@?$basic_string@DU?$char_traits@D@std@@V?$allocator@D@2@@std@@AEAAXXZ ; std::basic_string<char,std::char_traits<char>,std::allocator<char> >::_Construct_empty
PUBLIC	??1?$basic_string@DU?$char_traits@D@std@@V?$allocator@D@2@@std@@QEAA@XZ ; std::basic_string<char,std::char_traits<char>,std::allocator<char> >::~basic_string<char,std::char_traits<char>,std::allocator<char> >
PUBLIC	?c_str@?$basic_string@DU?$char_traits@D@std@@V?$allocator@D@2@@std@@QEBAPEBDXZ ; std::basic_string<char,std::char_traits<char>,std::allocator<char> >::c_str
PUBLIC	?max_size@?$basic_string@DU?$char_traits@D@std@@V?$allocator@D@2@@std@@QEBA_KXZ ; std::basic_string<char,std::char_traits<char>,std::allocator<char> >::max_size
PUBLIC	?_Equal@?$basic_string@DU?$char_traits@D@std@@V?$allocator@D@2@@std@@QEBA_NQEBD@Z ; std::basic_string<char,std::char_traits<char>,std::allocator<char> >::_Equal
PUBLIC	?_Calculate_growth@?$basic_string@DU?$char_traits@D@std@@V?$allocator@D@2@@std@@CA_K_K00@Z ; std::basic_string<char,std::char_traits<char>,std::allocator<char> >::_Calculate_growth
PUBLIC	?_Tidy_deallocate@?$basic_string@DU?$char_traits@D@std@@V?$allocator@D@2@@std@@AEAAXXZ ; std::basic_string<char,std::char_traits<char>,std::allocator<char> >::_Tidy_deallocate
PUBLIC	?_Getal@?$basic_string@DU?$char_traits@D@std@@V?$allocator@D@2@@std@@AEAAAEAV?$allocator@D@2@XZ ; std::basic_string<char,std::char_traits<char>,std::allocator<char> >::_Getal
PUBLIC	?_Getal@?$basic_string@DU?$char_traits@D@std@@V?$allocator@D@2@@std@@AEBAAEBV?$allocator@D@2@XZ ; std::basic_string<char,std::char_traits<char>,std::allocator<char> >::_Getal
PUBLIC	?_Get_first@?$_Compressed_pair@V?$allocator@D@std@@V?$_String_val@U?$_Simple_types@D@std@@@2@$00@std@@QEAAAEAV?$allocator@D@2@XZ ; std::_Compressed_pair<std::allocator<char>,std::_String_val<std::_Simple_types<char> >,1>::_Get_first
PUBLIC	?_Get_first@?$_Compressed_pair@V?$allocator@D@std@@V?$_String_val@U?$_Simple_types@D@std@@@2@$00@std@@QEBAAEBV?$allocator@D@2@XZ ; std::_Compressed_pair<std::allocator<char>,std::_String_val<std::_Simple_types<char> >,1>::_Get_first
PUBLIC	??1?$_Compressed_pair@V?$allocator@D@std@@V?$_String_val@U?$_Simple_types@D@std@@@2@$00@std@@QEAA@XZ ; std::_Compressed_pair<std::allocator<char>,std::_String_val<std::_Simple_types<char> >,1>::~_Compressed_pair<std::allocator<char>,std::_String_val<std::_Simple_types<char> >,1>
PUBLIC	?_Decref@_Ref_count_base@std@@QEAAXXZ		; std::_Ref_count_base::_Decref
PUBLIC	?_Decwref@_Ref_count_base@std@@QEAAXXZ		; std::_Ref_count_base::_Decwref
PUBLIC	?_Floor_of_log_2@std@@YAK_K@Z			; std::_Floor_of_log_2
PUBLIC	?_Ceiling_of_log_2@std@@YAK_K@Z			; std::_Ceiling_of_log_2
PUBLIC	??$min@_K@std@@YAAEB_KAEB_K0@Z			; std::min<unsigned __int64>
PUBLIC	??$?8DU?$char_traits@D@std@@V?$allocator@D@1@@std@@YA_NAEBV?$basic_string@DU?$char_traits@D@std@@V?$allocator@D@2@@0@QEBD@Z ; std::operator==<char,std::char_traits<char>,std::allocator<char> >
PUBLIC	??0WSInit@detail@httplib@@QEAA@XZ		; httplib::detail::WSInit::WSInit
PUBLIC	??1WSInit@detail@httplib@@QEAA@XZ		; httplib::detail::WSInit::~WSInit
PUBLIC	??0SSLInit@detail@httplib@@QEAA@XZ		; httplib::detail::SSLInit::SSLInit
PUBLIC	?now@system_clock@chrono@std@@SA?AV?$time_point@Usystem_clock@chrono@std@@V?$duration@_JU?$ratio@$00$0JIJGIA@@std@@@23@@23@XZ ; std::chrono::system_clock::now
PUBLIC	??0?$time_point@Usystem_clock@chrono@std@@V?$duration@_JU?$ratio@$00$0JIJGIA@@std@@@23@@chrono@std@@QEAA@AEBV?$duration@_JU?$ratio@$00$0JIJGIA@@std@@@12@@Z ; std::chrono::time_point<std::chrono::system_clock,std::chrono::duration<__int64,std::ratio<1,10000000> > >::time_point<std::chrono::system_clock,std::chrono::duration<__int64,std::ratio<1,10000000> > >
PUBLIC	??$?0_J$0A@@?$duration@_JU?$ratio@$00$0JIJGIA@@std@@@chrono@std@@QEAA@AEB_J@Z ; std::chrono::duration<__int64,std::ratio<1,10000000> >::duration<__int64,std::ratio<1,10000000> ><__int64,0>
PUBLIC	??1BaseProcessInfo@IronMan@@QEAA@XZ		; IronMan::BaseProcessInfo::~BaseProcessInfo
PUBLIC	?_Decref@?$_Ptr_base@V?$unordered_map@PEAXV?$vector@UScatterStruct@IronMan@@V?$allocator@UScatterStruct@IronMan@@@std@@@std@@U?$hash@PEAX@2@U?$equal_to@PEAX@2@V?$allocator@U?$pair@QEAXV?$vector@UScatterStruct@IronMan@@V?$allocator@UScatterStruct@IronMan@@@std@@@std@@@std@@@2@@std@@@std@@IEAAXXZ ; std::_Ptr_base<std::unordered_map<void *,std::vector<IronMan::ScatterStruct,std::allocator<IronMan::ScatterStruct> >,std::hash<void *>,std::equal_to<void *>,std::allocator<std::pair<void * const,std::vector<IronMan::ScatterStruct,std::allocator<IronMan::ScatterStruct> > > > > >::_Decref
PUBLIC	??1?$shared_ptr@V?$unordered_map@PEAXV?$vector@UScatterStruct@IronMan@@V?$allocator@UScatterStruct@IronMan@@@std@@@std@@U?$hash@PEAX@2@U?$equal_to@PEAX@2@V?$allocator@U?$pair@QEAXV?$vector@UScatterStruct@IronMan@@V?$allocator@UScatterStruct@IronMan@@@std@@@std@@@std@@@2@@std@@@std@@QEAA@XZ ; std::shared_ptr<std::unordered_map<void *,std::vector<IronMan::ScatterStruct,std::allocator<IronMan::ScatterStruct> >,std::hash<void *>,std::equal_to<void *>,std::allocator<std::pair<void * const,std::vector<IronMan::ScatterStruct,std::allocator<IronMan::ScatterStruct> > > > > >::~shared_ptr<std::unordered_map<void *,std::vector<IronMan::ScatterStruct,std::allocator<IronMan::ScatterStruct> >,std::hash<void *>,std::equal_to<void *>,std::allocator<std::pair<void * const,std::vector<IronMan::ScatterStruct,std::allocator<IronMan::ScatterStruct> > > > > >
PUBLIC	?GetDMA@IronMan@@YAAEAVDMAHandler@1@XZ		; IronMan::GetDMA
PUBLIC	??0?$_Uhash_compare@_KU?$hash@_K@std@@U?$equal_to@_K@2@@std@@QEAA@XZ ; std::_Uhash_compare<unsigned __int64,std::hash<unsigned __int64>,std::equal_to<unsigned __int64> >::_Uhash_compare<unsigned __int64,std::hash<unsigned __int64>,std::equal_to<unsigned __int64> >
PUBLIC	?_Get_max_bucket_size@?$_Uhash_compare@_KU?$hash@_K@std@@U?$equal_to@_K@2@@std@@QEAAAEAMXZ ; std::_Uhash_compare<unsigned __int64,std::hash<unsigned __int64>,std::equal_to<unsigned __int64> >::_Get_max_bucket_size
PUBLIC	??$forward@_K@std@@YA$$QEA_KAEA_K@Z		; std::forward<unsigned __int64>
PUBLIC	?GetFunction@UEDecryptBuilder@SDK@Core@IronMan@@QEAAPEAEXZ ; IronMan::Core::SDK::UEDecryptBuilder::GetFunction
PUBLIC	??_GUEDecryptBuilder@SDK@Core@IronMan@@QEAAPEAXI@Z ; IronMan::Core::SDK::UEDecryptBuilder::`scalar deleting destructor'
PUBLIC	?GetAnsiName@FNameEntry@SDK@Core@IronMan@@QEBAPEBDXZ ; IronMan::Core::SDK::FNameEntry::GetAnsiName
PUBLIC	??0FName@SDK@Core@IronMan@@QEAA@H@Z		; IronMan::Core::SDK::FName::FName
PUBLIC	??0?$UEEncryptedObjectProperty@PEAV?$TStaticIndirectArrayThreadSafeRead@VFNameEntry@SDK@Core@IronMan@@$0CAAAAA@@SDK@Core@IronMan@@$05@SDK@Core@IronMan@@QEAA@_K@Z ; IronMan::Core::SDK::UEEncryptedObjectProperty<IronMan::Core::SDK::TStaticIndirectArrayThreadSafeRead<IronMan::Core::SDK::FNameEntry,2097152> *,6>::UEEncryptedObjectProperty<IronMan::Core::SDK::TStaticIndirectArrayThreadSafeRead<IronMan::Core::SDK::FNameEntry,2097152> *,6>
PUBLIC	?STATIC_Get@?$UEEncryptedObjectProperty@PEAV?$TStaticIndirectArrayThreadSafeRead@VFNameEntry@SDK@Core@IronMan@@$0CAAAAA@@SDK@Core@IronMan@@$05@SDK@Core@IronMan@@SAPEAV?$TStaticIndirectArrayThreadSafeRead@VFNameEntry@SDK@Core@IronMan@@$0CAAAAA@@234@_K@Z ; IronMan::Core::SDK::UEEncryptedObjectProperty<IronMan::Core::SDK::TStaticIndirectArrayThreadSafeRead<IronMan::Core::SDK::FNameEntry,2097152> *,6>::STATIC_Get
PUBLIC	?Get@?$UEEncryptedObjectProperty@PEAV?$TStaticIndirectArrayThreadSafeRead@VFNameEntry@SDK@Core@IronMan@@$0CAAAAA@@SDK@Core@IronMan@@$05@SDK@Core@IronMan@@QEBAPEAV?$TStaticIndirectArrayThreadSafeRead@VFNameEntry@SDK@Core@IronMan@@$0CAAAAA@@234@XZ ; IronMan::Core::SDK::UEEncryptedObjectProperty<IronMan::Core::SDK::TStaticIndirectArrayThreadSafeRead<IronMan::Core::SDK::FNameEntry,2097152> *,6>::Get
PUBLIC	??C?$UEEncryptedObjectProperty@PEAV?$TStaticIndirectArrayThreadSafeRead@VFNameEntry@SDK@Core@IronMan@@$0CAAAAA@@SDK@Core@IronMan@@$05@SDK@Core@IronMan@@QEBAPEAV?$TStaticIndirectArrayThreadSafeRead@VFNameEntry@SDK@Core@IronMan@@$0CAAAAA@@123@XZ ; IronMan::Core::SDK::UEEncryptedObjectProperty<IronMan::Core::SDK::TStaticIndirectArrayThreadSafeRead<IronMan::Core::SDK::FNameEntry,2097152> *,6>::operator->
PUBLIC	?Num@?$TStaticIndirectArrayThreadSafeRead@VFNameEntry@SDK@Core@IronMan@@$0CAAAAA@@SDK@Core@IronMan@@QEBAHXZ ; IronMan::Core::SDK::TStaticIndirectArrayThreadSafeRead<IronMan::Core::SDK::FNameEntry,2097152>::Num
PUBLIC	?IsValidIndex@?$TStaticIndirectArrayThreadSafeRead@VFNameEntry@SDK@Core@IronMan@@$0CAAAAA@@SDK@Core@IronMan@@QEBA_NH@Z ; IronMan::Core::SDK::TStaticIndirectArrayThreadSafeRead<IronMan::Core::SDK::FNameEntry,2097152>::IsValidIndex
PUBLIC	?GetPtrById@?$TStaticIndirectArrayThreadSafeRead@VFNameEntry@SDK@Core@IronMan@@$0CAAAAA@@SDK@Core@IronMan@@QEBAPEAVFNameEntry@234@H@Z ; IronMan::Core::SDK::TStaticIndirectArrayThreadSafeRead<IronMan::Core::SDK::FNameEntry,2097152>::GetPtrById
PUBLIC	?GetById@?$TStaticIndirectArrayThreadSafeRead@VFNameEntry@SDK@Core@IronMan@@$0CAAAAA@@SDK@Core@IronMan@@QEBA?AVFNameEntry@234@H@Z ; IronMan::Core::SDK::TStaticIndirectArrayThreadSafeRead<IronMan::Core::SDK::FNameEntry,2097152>::GetById
PUBLIC	?GetItemPtr@?$TStaticIndirectArrayThreadSafeRead@VFNameEntry@SDK@Core@IronMan@@$0CAAAAA@@SDK@Core@IronMan@@AEBAPEAPEAVFNameEntry@234@H@Z ; IronMan::Core::SDK::TStaticIndirectArrayThreadSafeRead<IronMan::Core::SDK::FNameEntry,2097152>::GetItemPtr
PUBLIC	??0?$UEEncryptedObjectProperty@PEAPEAPEAVFNameEntry@SDK@Core@IronMan@@$05@SDK@Core@IronMan@@QEAA@_K@Z ; IronMan::Core::SDK::UEEncryptedObjectProperty<IronMan::Core::SDK::FNameEntry * * *,6>::UEEncryptedObjectProperty<IronMan::Core::SDK::FNameEntry * * *,6>
PUBLIC	?STATIC_Get@?$UEEncryptedObjectProperty@PEAPEAPEAVFNameEntry@SDK@Core@IronMan@@$05@SDK@Core@IronMan@@SAPEAPEAPEAVFNameEntry@234@_K@Z ; IronMan::Core::SDK::UEEncryptedObjectProperty<IronMan::Core::SDK::FNameEntry * * *,6>::STATIC_Get
PUBLIC	?Get@?$UEEncryptedObjectProperty@PEAPEAPEAVFNameEntry@SDK@Core@IronMan@@$05@SDK@Core@IronMan@@QEBAPEAPEAPEAVFNameEntry@234@XZ ; IronMan::Core::SDK::UEEncryptedObjectProperty<IronMan::Core::SDK::FNameEntry * * *,6>::Get
PUBLIC	??0?$allocator@UStringA@SDK@Core@IronMan@@@std@@QEAA@XZ ; std::allocator<IronMan::Core::SDK::StringA>::allocator<IronMan::Core::SDK::StringA>
PUBLIC	?deallocate@?$allocator@UStringA@SDK@Core@IronMan@@@std@@QEAAXQEAUStringA@SDK@Core@IronMan@@_K@Z ; std::allocator<IronMan::Core::SDK::StringA>::deallocate
PUBLIC	?allocate@?$allocator@UStringA@SDK@Core@IronMan@@@std@@QEAAPEAUStringA@SDK@Core@IronMan@@_K@Z ; std::allocator<IronMan::Core::SDK::StringA>::allocate
PUBLIC	?max_size@?$_Default_allocator_traits@V?$allocator@UStringA@SDK@Core@IronMan@@@std@@@std@@SA_KAEBV?$allocator@UStringA@SDK@Core@IronMan@@@2@@Z ; std::_Default_allocator_traits<std::allocator<IronMan::Core::SDK::StringA> >::max_size
PUBLIC	??0?$vector@UStringA@SDK@Core@IronMan@@V?$allocator@UStringA@SDK@Core@IronMan@@@std@@@std@@QEAA@XZ ; std::vector<IronMan::Core::SDK::StringA,std::allocator<IronMan::Core::SDK::StringA> >::vector<IronMan::Core::SDK::StringA,std::allocator<IronMan::Core::SDK::StringA> >
PUBLIC	??1?$vector@UStringA@SDK@Core@IronMan@@V?$allocator@UStringA@SDK@Core@IronMan@@@std@@@std@@QEAA@XZ ; std::vector<IronMan::Core::SDK::StringA,std::allocator<IronMan::Core::SDK::StringA> >::~vector<IronMan::Core::SDK::StringA,std::allocator<IronMan::Core::SDK::StringA> >
PUBLIC	?resize@?$vector@UStringA@SDK@Core@IronMan@@V?$allocator@UStringA@SDK@Core@IronMan@@@std@@@std@@QEAAX_K@Z ; std::vector<IronMan::Core::SDK::StringA,std::allocator<IronMan::Core::SDK::StringA> >::resize
PUBLIC	?data@?$vector@UStringA@SDK@Core@IronMan@@V?$allocator@UStringA@SDK@Core@IronMan@@@std@@@std@@QEAAPEAUStringA@SDK@Core@IronMan@@XZ ; std::vector<IronMan::Core::SDK::StringA,std::allocator<IronMan::Core::SDK::StringA> >::data
PUBLIC	?max_size@?$vector@UStringA@SDK@Core@IronMan@@V?$allocator@UStringA@SDK@Core@IronMan@@@std@@@std@@QEBA_KXZ ; std::vector<IronMan::Core::SDK::StringA,std::allocator<IronMan::Core::SDK::StringA> >::max_size
PUBLIC	?capacity@?$vector@UStringA@SDK@Core@IronMan@@V?$allocator@UStringA@SDK@Core@IronMan@@@std@@@std@@QEBA_KXZ ; std::vector<IronMan::Core::SDK::StringA,std::allocator<IronMan::Core::SDK::StringA> >::capacity
PUBLIC	??A?$vector@UStringA@SDK@Core@IronMan@@V?$allocator@UStringA@SDK@Core@IronMan@@@std@@@std@@QEAAAEAUStringA@SDK@Core@IronMan@@_K@Z ; std::vector<IronMan::Core::SDK::StringA,std::allocator<IronMan::Core::SDK::StringA> >::operator[]
PUBLIC	?_Calculate_growth@?$vector@UStringA@SDK@Core@IronMan@@V?$allocator@UStringA@SDK@Core@IronMan@@@std@@@std@@AEBA_K_K@Z ; std::vector<IronMan::Core::SDK::StringA,std::allocator<IronMan::Core::SDK::StringA> >::_Calculate_growth
PUBLIC	?_Change_array@?$vector@UStringA@SDK@Core@IronMan@@V?$allocator@UStringA@SDK@Core@IronMan@@@std@@@std@@AEAAXQEAUStringA@SDK@Core@IronMan@@_K1@Z ; std::vector<IronMan::Core::SDK::StringA,std::allocator<IronMan::Core::SDK::StringA> >::_Change_array
PUBLIC	?_Tidy@?$vector@UStringA@SDK@Core@IronMan@@V?$allocator@UStringA@SDK@Core@IronMan@@@std@@@std@@AEAAXXZ ; std::vector<IronMan::Core::SDK::StringA,std::allocator<IronMan::Core::SDK::StringA> >::_Tidy
PUBLIC	?_Xlength@?$vector@UStringA@SDK@Core@IronMan@@V?$allocator@UStringA@SDK@Core@IronMan@@@std@@@std@@CAXXZ ; std::vector<IronMan::Core::SDK::StringA,std::allocator<IronMan::Core::SDK::StringA> >::_Xlength
PUBLIC	?_Orphan_range@?$vector@UStringA@SDK@Core@IronMan@@V?$allocator@UStringA@SDK@Core@IronMan@@@std@@@std@@AEBAXPEAUStringA@SDK@Core@IronMan@@0@Z ; std::vector<IronMan::Core::SDK::StringA,std::allocator<IronMan::Core::SDK::StringA> >::_Orphan_range
PUBLIC	?_Getal@?$vector@UStringA@SDK@Core@IronMan@@V?$allocator@UStringA@SDK@Core@IronMan@@@std@@@std@@AEAAAEAV?$allocator@UStringA@SDK@Core@IronMan@@@2@XZ ; std::vector<IronMan::Core::SDK::StringA,std::allocator<IronMan::Core::SDK::StringA> >::_Getal
PUBLIC	?_Getal@?$vector@UStringA@SDK@Core@IronMan@@V?$allocator@UStringA@SDK@Core@IronMan@@@std@@@std@@AEBAAEBV?$allocator@UStringA@SDK@Core@IronMan@@@2@XZ ; std::vector<IronMan::Core::SDK::StringA,std::allocator<IronMan::Core::SDK::StringA> >::_Getal
PUBLIC	??0?$_Vector_val@U?$_Simple_types@UStringA@SDK@Core@IronMan@@@std@@@std@@QEAA@XZ ; std::_Vector_val<std::_Simple_types<IronMan::Core::SDK::StringA> >::_Vector_val<std::_Simple_types<IronMan::Core::SDK::StringA> >
PUBLIC	?_Get_first@?$_Compressed_pair@V?$allocator@UStringA@SDK@Core@IronMan@@@std@@V?$_Vector_val@U?$_Simple_types@UStringA@SDK@Core@IronMan@@@std@@@2@$00@std@@QEAAAEAV?$allocator@UStringA@SDK@Core@IronMan@@@2@XZ ; std::_Compressed_pair<std::allocator<IronMan::Core::SDK::StringA>,std::_Vector_val<std::_Simple_types<IronMan::Core::SDK::StringA> >,1>::_Get_first
PUBLIC	?_Get_first@?$_Compressed_pair@V?$allocator@UStringA@SDK@Core@IronMan@@@std@@V?$_Vector_val@U?$_Simple_types@UStringA@SDK@Core@IronMan@@@std@@@2@$00@std@@QEBAAEBV?$allocator@UStringA@SDK@Core@IronMan@@@2@XZ ; std::_Compressed_pair<std::allocator<IronMan::Core::SDK::StringA>,std::_Vector_val<std::_Simple_types<IronMan::Core::SDK::StringA> >,1>::_Get_first
PUBLIC	?Initialize@NamesStore@SDK@Core@IronMan@@SA_NXZ	; IronMan::Core::SDK::NamesStore::Initialize
PUBLIC	?GetNameByID@NamesStore@SDK@Core@IronMan@@SAXPEAXH_K0@Z ; IronMan::Core::SDK::NamesStore::GetNameByID
PUBLIC	?GetNameByID1@NamesStore@SDK@Core@IronMan@@SAXPEAXH_K0@Z ; IronMan::Core::SDK::NamesStore::GetNameByID1
PUBLIC	?GetNameByID2@NamesStore@SDK@Core@IronMan@@SAXPEAXH_K0@Z ; IronMan::Core::SDK::NamesStore::GetNameByID2
PUBLIC	?GetNameByID3@NamesStore@SDK@Core@IronMan@@SAXPEAXH_K0@Z ; IronMan::Core::SDK::NamesStore::GetNameByID3
PUBLIC	?GetAddress@NamesStore@SDK@Core@IronMan@@SAPEAXXZ ; IronMan::Core::SDK::NamesStore::GetAddress
PUBLIC	?begin@NamesStore@SDK@Core@IronMan@@QEAA?AVNamesIterator@234@XZ ; IronMan::Core::SDK::NamesStore::begin
PUBLIC	?begin@NamesStore@SDK@Core@IronMan@@QEBA?AVNamesIterator@234@XZ ; IronMan::Core::SDK::NamesStore::begin
PUBLIC	?end@NamesStore@SDK@Core@IronMan@@QEAA?AVNamesIterator@234@XZ ; IronMan::Core::SDK::NamesStore::end
PUBLIC	?end@NamesStore@SDK@Core@IronMan@@QEBA?AVNamesIterator@234@XZ ; IronMan::Core::SDK::NamesStore::end
PUBLIC	?GetNamesNum@NamesStore@SDK@Core@IronMan@@QEBA_KXZ ; IronMan::Core::SDK::NamesStore::GetNamesNum
PUBLIC	?IsValid@NamesStore@SDK@Core@IronMan@@QEBA_N_K@Z ; IronMan::Core::SDK::NamesStore::IsValid
PUBLIC	?GetById@NamesStore@SDK@Core@IronMan@@QEBA?AV?$basic_string@DU?$char_traits@D@std@@V?$allocator@D@2@@std@@_K@Z ; IronMan::Core::SDK::NamesStore::GetById
PUBLIC	??1UENameInfo@SDK@Core@IronMan@@QEAA@XZ		; IronMan::Core::SDK::UENameInfo::~UENameInfo
PUBLIC	??0NamesIterator@SDK@Core@IronMan@@QEAA@AEBVNamesStore@123@@Z ; IronMan::Core::SDK::NamesIterator::NamesIterator
PUBLIC	??0NamesIterator@SDK@Core@IronMan@@QEAA@AEBVNamesStore@123@_K@Z ; IronMan::Core::SDK::NamesIterator::NamesIterator
PUBLIC	?swap@NamesIterator@SDK@Core@IronMan@@QEAAXAEAV1234@@Z ; IronMan::Core::SDK::NamesIterator::swap
PUBLIC	??ENamesIterator@SDK@Core@IronMan@@QEAAAEAV0123@XZ ; IronMan::Core::SDK::NamesIterator::operator++
PUBLIC	??ENamesIterator@SDK@Core@IronMan@@QEAA?AV0123@H@Z ; IronMan::Core::SDK::NamesIterator::operator++
PUBLIC	??8NamesIterator@SDK@Core@IronMan@@QEBA_NAEBV0123@@Z ; IronMan::Core::SDK::NamesIterator::operator==
PUBLIC	??9NamesIterator@SDK@Core@IronMan@@QEBA_NAEBV0123@@Z ; IronMan::Core::SDK::NamesIterator::operator!=
PUBLIC	??DNamesIterator@SDK@Core@IronMan@@QEBA?AUUENameInfo@123@XZ ; IronMan::Core::SDK::NamesIterator::operator*
PUBLIC	??CNamesIterator@SDK@Core@IronMan@@QEBA?AUUENameInfo@123@XZ ; IronMan::Core::SDK::NamesIterator::operator->
PUBLIC	??0?$allocator@U?$pair@$$CB_KH@std@@@std@@QEAA@XZ ; std::allocator<std::pair<unsigned __int64 const ,int> >::allocator<std::pair<unsigned __int64 const ,int> >
PUBLIC	??0?$_Umap_traits@_KHV?$_Uhash_compare@_KU?$hash@_K@std@@U?$equal_to@_K@2@@std@@V?$allocator@U?$pair@$$CB_KH@std@@@2@$0A@@std@@QEAA@AEBV?$_Uhash_compare@_KU?$hash@_K@std@@U?$equal_to@_K@2@@1@@Z ; std::_Umap_traits<unsigned __int64,int,std::_Uhash_compare<unsigned __int64,std::hash<unsigned __int64>,std::equal_to<unsigned __int64> >,std::allocator<std::pair<unsigned __int64 const ,int> >,0>::_Umap_traits<unsigned __int64,int,std::_Uhash_compare<unsigned __int64,std::hash<unsigned __int64>,std::equal_to<unsigned __int64> >,std::allocator<std::pair<unsigned __int64 const ,int> >,0>
PUBLIC	?allocate@?$allocator@U?$_List_node@U?$pair@$$CB_KH@std@@PEAX@std@@@std@@QEAAPEAU?$_List_node@U?$pair@$$CB_KH@std@@PEAX@2@_K@Z ; std::allocator<std::_List_node<std::pair<unsigned __int64 const ,int>,void *> >::allocate
PUBLIC	?deallocate@?$_Default_allocator_traits@V?$allocator@U?$_List_node@U?$pair@$$CB_KH@std@@PEAX@std@@@std@@@std@@SAXAEAV?$allocator@U?$_List_node@U?$pair@$$CB_KH@std@@PEAX@std@@@2@QEAU?$_List_node@U?$pair@$$CB_KH@std@@PEAX@2@_K@Z ; std::_Default_allocator_traits<std::allocator<std::_List_node<std::pair<unsigned __int64 const ,int>,void *> > >::deallocate
PUBLIC	??0?$list@U?$pair@$$CB_KH@std@@V?$allocator@U?$pair@$$CB_KH@std@@@2@@std@@QEAA@AEBV?$allocator@U?$pair@$$CB_KH@std@@@1@@Z ; std::list<std::pair<unsigned __int64 const ,int>,std::allocator<std::pair<unsigned __int64 const ,int> > >::list<std::pair<unsigned __int64 const ,int>,std::allocator<std::pair<unsigned __int64 const ,int> > >
PUBLIC	??1?$list@U?$pair@$$CB_KH@std@@V?$allocator@U?$pair@$$CB_KH@std@@@2@@std@@QEAA@XZ ; std::list<std::pair<unsigned __int64 const ,int>,std::allocator<std::pair<unsigned __int64 const ,int> > >::~list<std::pair<unsigned __int64 const ,int>,std::allocator<std::pair<unsigned __int64 const ,int> > >
PUBLIC	?_Unchecked_end@?$list@U?$pair@$$CB_KH@std@@V?$allocator@U?$pair@$$CB_KH@std@@@2@@std@@QEAA?AV?$_List_unchecked_iterator@V?$_List_val@U?$_List_simple_types@U?$pair@$$CB_KH@std@@@std@@@std@@@2@XZ ; std::list<std::pair<unsigned __int64 const ,int>,std::allocator<std::pair<unsigned __int64 const ,int> > >::_Unchecked_end
PUBLIC	?_Tidy@?$list@U?$pair@$$CB_KH@std@@V?$allocator@U?$pair@$$CB_KH@std@@@2@@std@@AEAAXXZ ; std::list<std::pair<unsigned __int64 const ,int>,std::allocator<std::pair<unsigned __int64 const ,int> > >::_Tidy
PUBLIC	?_Alloc_sentinel_and_proxy@?$list@U?$pair@$$CB_KH@std@@V?$allocator@U?$pair@$$CB_KH@std@@@2@@std@@AEAAXXZ ; std::list<std::pair<unsigned __int64 const ,int>,std::allocator<std::pair<unsigned __int64 const ,int> > >::_Alloc_sentinel_and_proxy
PUBLIC	?_Getal@?$list@U?$pair@$$CB_KH@std@@V?$allocator@U?$pair@$$CB_KH@std@@@2@@std@@AEAAAEAV?$allocator@U?$_List_node@U?$pair@$$CB_KH@std@@PEAX@std@@@2@XZ ; std::list<std::pair<unsigned __int64 const ,int>,std::allocator<std::pair<unsigned __int64 const ,int> > >::_Getal
PUBLIC	??0?$_List_val@U?$_List_simple_types@U?$pair@$$CB_KH@std@@@std@@@std@@QEAA@XZ ; std::_List_val<std::_List_simple_types<std::pair<unsigned __int64 const ,int> > >::_List_val<std::_List_simple_types<std::pair<unsigned __int64 const ,int> > >
PUBLIC	?_Get_first@?$_Compressed_pair@V?$allocator@U?$_List_node@U?$pair@$$CB_KH@std@@PEAX@std@@@std@@V?$_List_val@U?$_List_simple_types@U?$pair@$$CB_KH@std@@@std@@@2@$00@std@@QEAAAEAV?$allocator@U?$_List_node@U?$pair@$$CB_KH@std@@PEAX@std@@@2@XZ ; std::_Compressed_pair<std::allocator<std::_List_node<std::pair<unsigned __int64 const ,int>,void *> >,std::_List_val<std::_List_simple_types<std::pair<unsigned __int64 const ,int> > >,1>::_Get_first
PUBLIC	??0?$_Hash@V?$_Umap_traits@_KHV?$_Uhash_compare@_KU?$hash@_K@std@@U?$equal_to@_K@2@@std@@V?$allocator@U?$pair@$$CB_KH@std@@@2@$0A@@std@@@std@@IEAA@AEBV?$_Uhash_compare@_KU?$hash@_K@std@@U?$equal_to@_K@2@@1@AEBV?$allocator@U?$pair@$$CB_KH@std@@@1@@Z ; std::_Hash<std::_Umap_traits<unsigned __int64,int,std::_Uhash_compare<unsigned __int64,std::hash<unsigned __int64>,std::equal_to<unsigned __int64> >,std::allocator<std::pair<unsigned __int64 const ,int> >,0> >::_Hash<std::_Umap_traits<unsigned __int64,int,std::_Uhash_compare<unsigned __int64,std::hash<unsigned __int64>,std::equal_to<unsigned __int64> >,std::allocator<std::pair<unsigned __int64 const ,int> >,0> >
PUBLIC	?_Max_bucket_size@?$_Hash@V?$_Umap_traits@_KHV?$_Uhash_compare@_KU?$hash@_K@std@@U?$equal_to@_K@2@@std@@V?$allocator@U?$pair@$$CB_KH@std@@@2@$0A@@std@@@std@@IEAAAEAMXZ ; std::_Hash<std::_Umap_traits<unsigned __int64,int,std::_Uhash_compare<unsigned __int64,std::hash<unsigned __int64>,std::equal_to<unsigned __int64> >,std::allocator<std::pair<unsigned __int64 const ,int> >,0> >::_Max_bucket_size
PUBLIC	?deallocate@?$allocator@V?$_List_unchecked_iterator@V?$_List_val@U?$_List_simple_types@U?$pair@$$CB_KH@std@@@std@@@std@@@std@@@std@@QEAAXQEAV?$_List_unchecked_iterator@V?$_List_val@U?$_List_simple_types@U?$pair@$$CB_KH@std@@@std@@@std@@@2@_K@Z ; std::allocator<std::_List_unchecked_iterator<std::_List_val<std::_List_simple_types<std::pair<unsigned __int64 const ,int> > > > >::deallocate
PUBLIC	?allocate@?$allocator@V?$_List_unchecked_iterator@V?$_List_val@U?$_List_simple_types@U?$pair@$$CB_KH@std@@@std@@@std@@@std@@@std@@QEAAPEAV?$_List_unchecked_iterator@V?$_List_val@U?$_List_simple_types@U?$pair@$$CB_KH@std@@@std@@@std@@@2@_K@Z ; std::allocator<std::_List_unchecked_iterator<std::_List_val<std::_List_simple_types<std::pair<unsigned __int64 const ,int> > > > >::allocate
PUBLIC	?size@?$_Hash_vec@V?$allocator@V?$_List_unchecked_iterator@V?$_List_val@U?$_List_simple_types@U?$pair@$$CB_KH@std@@@std@@@std@@@std@@@std@@@std@@QEBA_KXZ ; std::_Hash_vec<std::allocator<std::_List_unchecked_iterator<std::_List_val<std::_List_simple_types<std::pair<unsigned __int64 const ,int> > > > > >::size
PUBLIC	?capacity@?$_Hash_vec@V?$allocator@V?$_List_unchecked_iterator@V?$_List_val@U?$_List_simple_types@U?$pair@$$CB_KH@std@@@std@@@std@@@std@@@std@@@std@@QEBA_KXZ ; std::_Hash_vec<std::allocator<std::_List_unchecked_iterator<std::_List_val<std::_List_simple_types<std::pair<unsigned __int64 const ,int> > > > > >::capacity
PUBLIC	?_Assign_grow@?$_Hash_vec@V?$allocator@V?$_List_unchecked_iterator@V?$_List_val@U?$_List_simple_types@U?$pair@$$CB_KH@std@@@std@@@std@@@std@@@std@@@std@@QEAAX_KV?$_List_unchecked_iterator@V?$_List_val@U?$_List_simple_types@U?$pair@$$CB_KH@std@@@std@@@std@@@2@@Z ; std::_Hash_vec<std::allocator<std::_List_unchecked_iterator<std::_List_val<std::_List_simple_types<std::pair<unsigned __int64 const ,int> > > > > >::_Assign_grow
PUBLIC	?_Tidy@?$_Hash_vec@V?$allocator@V?$_List_unchecked_iterator@V?$_List_val@U?$_List_simple_types@U?$pair@$$CB_KH@std@@@std@@@std@@@std@@@std@@@std@@QEAAXXZ ; std::_Hash_vec<std::allocator<std::_List_unchecked_iterator<std::_List_val<std::_List_simple_types<std::pair<unsigned __int64 const ,int> > > > > >::_Tidy
PUBLIC	??1?$_Hash_vec@V?$allocator@V?$_List_unchecked_iterator@V?$_List_val@U?$_List_simple_types@U?$pair@$$CB_KH@std@@@std@@@std@@@std@@@std@@@std@@QEAA@XZ ; std::_Hash_vec<std::allocator<std::_List_unchecked_iterator<std::_List_val<std::_List_simple_types<std::pair<unsigned __int64 const ,int> > > > > >::~_Hash_vec<std::allocator<std::_List_unchecked_iterator<std::_List_val<std::_List_simple_types<std::pair<unsigned __int64 const ,int> > > > > >
PUBLIC	??0?$_Vector_val@U?$_Simple_types@V?$_List_unchecked_iterator@V?$_List_val@U?$_List_simple_types@U?$pair@$$CB_KH@std@@@std@@@std@@@std@@@std@@@std@@QEAA@XZ ; std::_Vector_val<std::_Simple_types<std::_List_unchecked_iterator<std::_List_val<std::_List_simple_types<std::pair<unsigned __int64 const ,int> > > > > >::_Vector_val<std::_Simple_types<std::_List_unchecked_iterator<std::_List_val<std::_List_simple_types<std::pair<unsigned __int64 const ,int> > > > > >
PUBLIC	?_Get_first@?$_Compressed_pair@V?$allocator@V?$_List_unchecked_iterator@V?$_List_val@U?$_List_simple_types@U?$pair@$$CB_KH@std@@@std@@@std@@@std@@@std@@V?$_Vector_val@U?$_Simple_types@V?$_List_unchecked_iterator@V?$_List_val@U?$_List_simple_types@U?$pair@$$CB_KH@std@@@std@@@std@@@std@@@std@@@2@$00@std@@QEAAAEAV?$allocator@V?$_List_unchecked_iterator@V?$_List_val@U?$_List_simple_types@U?$pair@$$CB_KH@std@@@std@@@std@@@std@@@2@XZ ; std::_Compressed_pair<std::allocator<std::_List_unchecked_iterator<std::_List_val<std::_List_simple_types<std::pair<unsigned __int64 const ,int> > > > >,std::_Vector_val<std::_Simple_types<std::_List_unchecked_iterator<std::_List_val<std::_List_simple_types<std::pair<unsigned __int64 const ,int> > > > > >,1>::_Get_first
PUBLIC	??1?$_Hash@V?$_Umap_traits@_KHV?$_Uhash_compare@_KU?$hash@_K@std@@U?$equal_to@_K@2@@std@@V?$allocator@U?$pair@$$CB_KH@std@@@2@$0A@@std@@@std@@QEAA@XZ ; std::_Hash<std::_Umap_traits<unsigned __int64,int,std::_Uhash_compare<unsigned __int64,std::hash<unsigned __int64>,std::equal_to<unsigned __int64> >,std::allocator<std::pair<unsigned __int64 const ,int> >,0> >::~_Hash<std::_Umap_traits<unsigned __int64,int,std::_Uhash_compare<unsigned __int64,std::hash<unsigned __int64>,std::equal_to<unsigned __int64> >,std::allocator<std::pair<unsigned __int64 const ,int> >,0> >
PUBLIC	??0?$unordered_map@_KHU?$hash@_K@std@@U?$equal_to@_K@2@V?$allocator@U?$pair@$$CB_KH@std@@@2@@std@@QEAA@XZ ; std::unordered_map<unsigned __int64,int,std::hash<unsigned __int64>,std::equal_to<unsigned __int64>,std::allocator<std::pair<unsigned __int64 const ,int> > >::unordered_map<unsigned __int64,int,std::hash<unsigned __int64>,std::equal_to<unsigned __int64>,std::allocator<std::pair<unsigned __int64 const ,int> > >
PUBLIC	??1?$unordered_map@_KHU?$hash@_K@std@@U?$equal_to@_K@2@V?$allocator@U?$pair@$$CB_KH@std@@@2@@std@@QEAA@XZ ; std::unordered_map<unsigned __int64,int,std::hash<unsigned __int64>,std::equal_to<unsigned __int64>,std::allocator<std::pair<unsigned __int64 const ,int> > >::~unordered_map<unsigned __int64,int,std::hash<unsigned __int64>,std::equal_to<unsigned __int64>,std::allocator<std::pair<unsigned __int64 const ,int> > >
PUBLIC	?STATIC_Get@?$UEEncryptedObjectProperty@PEAX$05@SDK@Core@IronMan@@SAPEAX_K@Z ; IronMan::Core::SDK::UEEncryptedObjectProperty<void *,6>::STATIC_Get
PUBLIC	??$Read@_K@DMAHandler@IronMan@@QEAA_K_K@Z	; IronMan::DMAHandler::Read<unsigned __int64>
PUBLIC	??$Read@PEAX@DMAHandler@IronMan@@QEAAPEAX_K@Z	; IronMan::DMAHandler::Read<void *>
PUBLIC	??0?$allocator@_K@std@@QEAA@XZ			; std::allocator<unsigned __int64>::allocator<unsigned __int64>
PUBLIC	?deallocate@?$allocator@_K@std@@QEAAXQEA_K_K@Z	; std::allocator<unsigned __int64>::deallocate
PUBLIC	?allocate@?$allocator@_K@std@@QEAAPEA_K_K@Z	; std::allocator<unsigned __int64>::allocate
PUBLIC	?max_size@?$_Default_allocator_traits@V?$allocator@_K@std@@@std@@SA_KAEBV?$allocator@_K@2@@Z ; std::_Default_allocator_traits<std::allocator<unsigned __int64> >::max_size
PUBLIC	??0?$vector@_KV?$allocator@_K@std@@@std@@QEAA@XZ ; std::vector<unsigned __int64,std::allocator<unsigned __int64> >::vector<unsigned __int64,std::allocator<unsigned __int64> >
PUBLIC	??1?$vector@_KV?$allocator@_K@std@@@std@@QEAA@XZ ; std::vector<unsigned __int64,std::allocator<unsigned __int64> >::~vector<unsigned __int64,std::allocator<unsigned __int64> >
PUBLIC	?resize@?$vector@_KV?$allocator@_K@std@@@std@@QEAAX_K@Z ; std::vector<unsigned __int64,std::allocator<unsigned __int64> >::resize
PUBLIC	?max_size@?$vector@_KV?$allocator@_K@std@@@std@@QEBA_KXZ ; std::vector<unsigned __int64,std::allocator<unsigned __int64> >::max_size
PUBLIC	?capacity@?$vector@_KV?$allocator@_K@std@@@std@@QEBA_KXZ ; std::vector<unsigned __int64,std::allocator<unsigned __int64> >::capacity
PUBLIC	??A?$vector@_KV?$allocator@_K@std@@@std@@QEAAAEA_K_K@Z ; std::vector<unsigned __int64,std::allocator<unsigned __int64> >::operator[]
PUBLIC	?_Calculate_growth@?$vector@_KV?$allocator@_K@std@@@std@@AEBA_K_K@Z ; std::vector<unsigned __int64,std::allocator<unsigned __int64> >::_Calculate_growth
PUBLIC	?_Change_array@?$vector@_KV?$allocator@_K@std@@@std@@AEAAXQEA_K_K1@Z ; std::vector<unsigned __int64,std::allocator<unsigned __int64> >::_Change_array
PUBLIC	?_Tidy@?$vector@_KV?$allocator@_K@std@@@std@@AEAAXXZ ; std::vector<unsigned __int64,std::allocator<unsigned __int64> >::_Tidy
PUBLIC	?_Xlength@?$vector@_KV?$allocator@_K@std@@@std@@CAXXZ ; std::vector<unsigned __int64,std::allocator<unsigned __int64> >::_Xlength
PUBLIC	?_Orphan_range@?$vector@_KV?$allocator@_K@std@@@std@@AEBAXPEA_K0@Z ; std::vector<unsigned __int64,std::allocator<unsigned __int64> >::_Orphan_range
PUBLIC	?_Getal@?$vector@_KV?$allocator@_K@std@@@std@@AEAAAEAV?$allocator@_K@2@XZ ; std::vector<unsigned __int64,std::allocator<unsigned __int64> >::_Getal
PUBLIC	?_Getal@?$vector@_KV?$allocator@_K@std@@@std@@AEBAAEBV?$allocator@_K@2@XZ ; std::vector<unsigned __int64,std::allocator<unsigned __int64> >::_Getal
PUBLIC	??0?$_Vector_val@U?$_Simple_types@_K@std@@@std@@QEAA@XZ ; std::_Vector_val<std::_Simple_types<unsigned __int64> >::_Vector_val<std::_Simple_types<unsigned __int64> >
PUBLIC	?_Get_first@?$_Compressed_pair@V?$allocator@_K@std@@V?$_Vector_val@U?$_Simple_types@_K@std@@@2@$00@std@@QEAAAEAV?$allocator@_K@2@XZ ; std::_Compressed_pair<std::allocator<unsigned __int64>,std::_Vector_val<std::_Simple_types<unsigned __int64> >,1>::_Get_first
PUBLIC	?_Get_first@?$_Compressed_pair@V?$allocator@_K@std@@V?$_Vector_val@U?$_Simple_types@_K@std@@@2@$00@std@@QEBAAEBV?$allocator@_K@2@XZ ; std::_Compressed_pair<std::allocator<unsigned __int64>,std::_Vector_val<std::_Simple_types<unsigned __int64> >,1>::_Get_first
PUBLIC	?STATIC_Get@?$UEEncryptedObjectProperty@_K$05@SDK@Core@IronMan@@SA_K_K@Z ; IronMan::Core::SDK::UEEncryptedObjectProperty<unsigned __int64,6>::STATIC_Get
PUBLIC	??$ReadCache@_K@DMAHandler@IronMan@@QEAA_K_K@Z	; IronMan::DMAHandler::ReadCache<unsigned __int64>
PUBLIC	??$swap@_K$0A@@std@@YAXAEA_K0@Z			; std::swap<unsigned __int64,0>
PUBLIC	?_Get_max_bucket_size@?$_Uhash_compare@W4DecryptFunc@SDK@Core@IronMan@@U?$hash@W4DecryptFunc@SDK@Core@IronMan@@@std@@U?$equal_to@W4DecryptFunc@SDK@Core@IronMan@@@6@@std@@QEBAAEBMXZ ; std::_Uhash_compare<enum IronMan::Core::SDK::DecryptFunc,std::hash<enum IronMan::Core::SDK::DecryptFunc>,std::equal_to<enum IronMan::Core::SDK::DecryptFunc> >::_Get_max_bucket_size
PUBLIC	??R?$equal_to@W4DecryptFunc@SDK@Core@IronMan@@@std@@QEBA_NAEBW4DecryptFunc@SDK@Core@IronMan@@0@Z ; std::equal_to<enum IronMan::Core::SDK::DecryptFunc>::operator()
PUBLIC	??R?$_Conditionally_enabled_hash@W4DecryptFunc@SDK@Core@IronMan@@$00@std@@QEBA_KAEBW4DecryptFunc@SDK@Core@IronMan@@@Z ; std::_Conditionally_enabled_hash<enum IronMan::Core::SDK::DecryptFunc,1>::operator()
PUBLIC	?_Do_hash@?$hash@W4DecryptFunc@SDK@Core@IronMan@@@std@@SA_KAEBW4DecryptFunc@SDK@Core@IronMan@@@Z ; std::hash<enum IronMan::Core::SDK::DecryptFunc>::_Do_hash
PUBLIC	?_Get_first@?$_Compressed_pair@U?$equal_to@W4DecryptFunc@SDK@Core@IronMan@@@std@@M$00@std@@QEBAAEBU?$equal_to@W4DecryptFunc@SDK@Core@IronMan@@@2@XZ ; std::_Compressed_pair<std::equal_to<enum IronMan::Core::SDK::DecryptFunc>,float,1>::_Get_first
PUBLIC	?_Get_first@?$_Compressed_pair@U?$hash@W4DecryptFunc@SDK@Core@IronMan@@@std@@V?$_Compressed_pair@U?$equal_to@W4DecryptFunc@SDK@Core@IronMan@@@std@@M$00@2@$00@std@@QEBAAEBU?$hash@W4DecryptFunc@SDK@Core@IronMan@@@2@XZ ; std::_Compressed_pair<std::hash<enum IronMan::Core::SDK::DecryptFunc>,std::_Compressed_pair<std::equal_to<enum IronMan::Core::SDK::DecryptFunc>,float,1>,1>::_Get_first
PUBLIC	?deallocate@?$allocator@U?$_List_node@U?$pair@$$CBW4DecryptFunc@SDK@Core@IronMan@@V?$unique_ptr@VUEDecryptBuilder@SDK@Core@IronMan@@U?$default_delete@VUEDecryptBuilder@SDK@Core@IronMan@@@std@@@std@@@std@@PEAX@std@@@std@@QEAAXQEAU?$_List_node@U?$pair@$$CBW4DecryptFunc@SDK@Core@IronMan@@V?$unique_ptr@VUEDecryptBuilder@SDK@Core@IronMan@@U?$default_delete@VUEDecryptBuilder@SDK@Core@IronMan@@@std@@@std@@@std@@PEAX@2@_K@Z ; std::allocator<std::_List_node<std::pair<enum IronMan::Core::SDK::DecryptFunc const ,std::unique_ptr<IronMan::Core::SDK::UEDecryptBuilder,std::default_delete<IronMan::Core::SDK::UEDecryptBuilder> > >,void *> >::deallocate
PUBLIC	?allocate@?$allocator@U?$_List_node@U?$pair@$$CBW4DecryptFunc@SDK@Core@IronMan@@V?$unique_ptr@VUEDecryptBuilder@SDK@Core@IronMan@@U?$default_delete@VUEDecryptBuilder@SDK@Core@IronMan@@@std@@@std@@@std@@PEAX@std@@@std@@QEAAPEAU?$_List_node@U?$pair@$$CBW4DecryptFunc@SDK@Core@IronMan@@V?$unique_ptr@VUEDecryptBuilder@SDK@Core@IronMan@@U?$default_delete@VUEDecryptBuilder@SDK@Core@IronMan@@@std@@@std@@@std@@PEAX@2@_K@Z ; std::allocator<std::_List_node<std::pair<enum IronMan::Core::SDK::DecryptFunc const ,std::unique_ptr<IronMan::Core::SDK::UEDecryptBuilder,std::default_delete<IronMan::Core::SDK::UEDecryptBuilder> > >,void *> >::allocate
PUBLIC	?deallocate@?$_Default_allocator_traits@V?$allocator@U?$_List_node@U?$pair@$$CBW4DecryptFunc@SDK@Core@IronMan@@V?$unique_ptr@VUEDecryptBuilder@SDK@Core@IronMan@@U?$default_delete@VUEDecryptBuilder@SDK@Core@IronMan@@@std@@@std@@@std@@PEAX@std@@@std@@@std@@SAXAEAV?$allocator@U?$_List_node@U?$pair@$$CBW4DecryptFunc@SDK@Core@IronMan@@V?$unique_ptr@VUEDecryptBuilder@SDK@Core@IronMan@@U?$default_delete@VUEDecryptBuilder@SDK@Core@IronMan@@@std@@@std@@@std@@PEAX@std@@@2@QEAU?$_List_node@U?$pair@$$CBW4DecryptFunc@SDK@Core@IronMan@@V?$unique_ptr@VUEDecryptBuilder@SDK@Core@IronMan@@U?$default_delete@VUEDecryptBuilder@SDK@Core@IronMan@@@std@@@std@@@std@@PEAX@2@_K@Z ; std::_Default_allocator_traits<std::allocator<std::_List_node<std::pair<enum IronMan::Core::SDK::DecryptFunc const ,std::unique_ptr<IronMan::Core::SDK::UEDecryptBuilder,std::default_delete<IronMan::Core::SDK::UEDecryptBuilder> > >,void *> > >::deallocate
PUBLIC	?max_size@?$_Default_allocator_traits@V?$allocator@U?$_List_node@U?$pair@$$CBW4DecryptFunc@SDK@Core@IronMan@@V?$unique_ptr@VUEDecryptBuilder@SDK@Core@IronMan@@U?$default_delete@VUEDecryptBuilder@SDK@Core@IronMan@@@std@@@std@@@std@@PEAX@std@@@std@@@std@@SA_KAEBV?$allocator@U?$_List_node@U?$pair@$$CBW4DecryptFunc@SDK@Core@IronMan@@V?$unique_ptr@VUEDecryptBuilder@SDK@Core@IronMan@@U?$default_delete@VUEDecryptBuilder@SDK@Core@IronMan@@@std@@@std@@@std@@PEAX@std@@@2@@Z ; std::_Default_allocator_traits<std::allocator<std::_List_node<std::pair<enum IronMan::Core::SDK::DecryptFunc const ,std::unique_ptr<IronMan::Core::SDK::UEDecryptBuilder,std::default_delete<IronMan::Core::SDK::UEDecryptBuilder> > >,void *> > >::max_size
PUBLIC	?_Unchecked_begin@?$list@U?$pair@$$CBW4DecryptFunc@SDK@Core@IronMan@@V?$unique_ptr@VUEDecryptBuilder@SDK@Core@IronMan@@U?$default_delete@VUEDecryptBuilder@SDK@Core@IronMan@@@std@@@std@@@std@@V?$allocator@U?$pair@$$CBW4DecryptFunc@SDK@Core@IronMan@@V?$unique_ptr@VUEDecryptBuilder@SDK@Core@IronMan@@U?$default_delete@VUEDecryptBuilder@SDK@Core@IronMan@@@std@@@std@@@std@@@2@@std@@QEAA?AV?$_List_unchecked_iterator@V?$_List_val@U?$_List_simple_types@U?$pair@$$CBW4DecryptFunc@SDK@Core@IronMan@@V?$unique_ptr@VUEDecryptBuilder@SDK@Core@IronMan@@U?$default_delete@VUEDecryptBuilder@SDK@Core@IronMan@@@std@@@std@@@std@@@std@@@std@@@2@XZ ; std::list<std::pair<enum IronMan::Core::SDK::DecryptFunc const ,std::unique_ptr<IronMan::Core::SDK::UEDecryptBuilder,std::default_delete<IronMan::Core::SDK::UEDecryptBuilder> > >,std::allocator<std::pair<enum IronMan::Core::SDK::DecryptFunc const ,std::unique_ptr<IronMan::Core::SDK::UEDecryptBuilder,std::default_delete<IronMan::Core::SDK::UEDecryptBuilder> > > > >::_Unchecked_begin
PUBLIC	?_Unchecked_end@?$list@U?$pair@$$CBW4DecryptFunc@SDK@Core@IronMan@@V?$unique_ptr@VUEDecryptBuilder@SDK@Core@IronMan@@U?$default_delete@VUEDecryptBuilder@SDK@Core@IronMan@@@std@@@std@@@std@@V?$allocator@U?$pair@$$CBW4DecryptFunc@SDK@Core@IronMan@@V?$unique_ptr@VUEDecryptBuilder@SDK@Core@IronMan@@U?$default_delete@VUEDecryptBuilder@SDK@Core@IronMan@@@std@@@std@@@std@@@2@@std@@QEAA?AV?$_List_unchecked_iterator@V?$_List_val@U?$_List_simple_types@U?$pair@$$CBW4DecryptFunc@SDK@Core@IronMan@@V?$unique_ptr@VUEDecryptBuilder@SDK@Core@IronMan@@U?$default_delete@VUEDecryptBuilder@SDK@Core@IronMan@@@std@@@std@@@std@@@std@@@std@@@2@XZ ; std::list<std::pair<enum IronMan::Core::SDK::DecryptFunc const ,std::unique_ptr<IronMan::Core::SDK::UEDecryptBuilder,std::default_delete<IronMan::Core::SDK::UEDecryptBuilder> > >,std::allocator<std::pair<enum IronMan::Core::SDK::DecryptFunc const ,std::unique_ptr<IronMan::Core::SDK::UEDecryptBuilder,std::default_delete<IronMan::Core::SDK::UEDecryptBuilder> > > > >::_Unchecked_end
PUBLIC	?max_size@?$list@U?$pair@$$CBW4DecryptFunc@SDK@Core@IronMan@@V?$unique_ptr@VUEDecryptBuilder@SDK@Core@IronMan@@U?$default_delete@VUEDecryptBuilder@SDK@Core@IronMan@@@std@@@std@@@std@@V?$allocator@U?$pair@$$CBW4DecryptFunc@SDK@Core@IronMan@@V?$unique_ptr@VUEDecryptBuilder@SDK@Core@IronMan@@U?$default_delete@VUEDecryptBuilder@SDK@Core@IronMan@@@std@@@std@@@std@@@2@@std@@QEBA_KXZ ; std::list<std::pair<enum IronMan::Core::SDK::DecryptFunc const ,std::unique_ptr<IronMan::Core::SDK::UEDecryptBuilder,std::default_delete<IronMan::Core::SDK::UEDecryptBuilder> > >,std::allocator<std::pair<enum IronMan::Core::SDK::DecryptFunc const ,std::unique_ptr<IronMan::Core::SDK::UEDecryptBuilder,std::default_delete<IronMan::Core::SDK::UEDecryptBuilder> > > > >::max_size
PUBLIC	?clear@?$list@U?$pair@$$CBW4DecryptFunc@SDK@Core@IronMan@@V?$unique_ptr@VUEDecryptBuilder@SDK@Core@IronMan@@U?$default_delete@VUEDecryptBuilder@SDK@Core@IronMan@@@std@@@std@@@std@@V?$allocator@U?$pair@$$CBW4DecryptFunc@SDK@Core@IronMan@@V?$unique_ptr@VUEDecryptBuilder@SDK@Core@IronMan@@U?$default_delete@VUEDecryptBuilder@SDK@Core@IronMan@@@std@@@std@@@std@@@2@@std@@QEAAXXZ ; std::list<std::pair<enum IronMan::Core::SDK::DecryptFunc const ,std::unique_ptr<IronMan::Core::SDK::UEDecryptBuilder,std::default_delete<IronMan::Core::SDK::UEDecryptBuilder> > >,std::allocator<std::pair<enum IronMan::Core::SDK::DecryptFunc const ,std::unique_ptr<IronMan::Core::SDK::UEDecryptBuilder,std::default_delete<IronMan::Core::SDK::UEDecryptBuilder> > > > >::clear
PUBLIC	?_Getal@?$list@U?$pair@$$CBW4DecryptFunc@SDK@Core@IronMan@@V?$unique_ptr@VUEDecryptBuilder@SDK@Core@IronMan@@U?$default_delete@VUEDecryptBuilder@SDK@Core@IronMan@@@std@@@std@@@std@@V?$allocator@U?$pair@$$CBW4DecryptFunc@SDK@Core@IronMan@@V?$unique_ptr@VUEDecryptBuilder@SDK@Core@IronMan@@U?$default_delete@VUEDecryptBuilder@SDK@Core@IronMan@@@std@@@std@@@std@@@2@@std@@AEAAAEAV?$allocator@U?$_List_node@U?$pair@$$CBW4DecryptFunc@SDK@Core@IronMan@@V?$unique_ptr@VUEDecryptBuilder@SDK@Core@IronMan@@U?$default_delete@VUEDecryptBuilder@SDK@Core@IronMan@@@std@@@std@@@std@@PEAX@std@@@2@XZ ; std::list<std::pair<enum IronMan::Core::SDK::DecryptFunc const ,std::unique_ptr<IronMan::Core::SDK::UEDecryptBuilder,std::default_delete<IronMan::Core::SDK::UEDecryptBuilder> > >,std::allocator<std::pair<enum IronMan::Core::SDK::DecryptFunc const ,std::unique_ptr<IronMan::Core::SDK::UEDecryptBuilder,std::default_delete<IronMan::Core::SDK::UEDecryptBuilder> > > > >::_Getal
PUBLIC	?_Getal@?$list@U?$pair@$$CBW4DecryptFunc@SDK@Core@IronMan@@V?$unique_ptr@VUEDecryptBuilder@SDK@Core@IronMan@@U?$default_delete@VUEDecryptBuilder@SDK@Core@IronMan@@@std@@@std@@@std@@V?$allocator@U?$pair@$$CBW4DecryptFunc@SDK@Core@IronMan@@V?$unique_ptr@VUEDecryptBuilder@SDK@Core@IronMan@@U?$default_delete@VUEDecryptBuilder@SDK@Core@IronMan@@@std@@@std@@@std@@@2@@std@@AEBAAEBV?$allocator@U?$_List_node@U?$pair@$$CBW4DecryptFunc@SDK@Core@IronMan@@V?$unique_ptr@VUEDecryptBuilder@SDK@Core@IronMan@@U?$default_delete@VUEDecryptBuilder@SDK@Core@IronMan@@@std@@@std@@@std@@PEAX@std@@@2@XZ ; std::list<std::pair<enum IronMan::Core::SDK::DecryptFunc const ,std::unique_ptr<IronMan::Core::SDK::UEDecryptBuilder,std::default_delete<IronMan::Core::SDK::UEDecryptBuilder> > >,std::allocator<std::pair<enum IronMan::Core::SDK::DecryptFunc const ,std::unique_ptr<IronMan::Core::SDK::UEDecryptBuilder,std::default_delete<IronMan::Core::SDK::UEDecryptBuilder> > > > >::_Getal
PUBLIC	?_Orphan_non_end@?$_List_val@U?$_List_simple_types@U?$pair@$$CBW4DecryptFunc@SDK@Core@IronMan@@V?$unique_ptr@VUEDecryptBuilder@SDK@Core@IronMan@@U?$default_delete@VUEDecryptBuilder@SDK@Core@IronMan@@@std@@@std@@@std@@@std@@@std@@QEAAXXZ ; std::_List_val<std::_List_simple_types<std::pair<enum IronMan::Core::SDK::DecryptFunc const ,std::unique_ptr<IronMan::Core::SDK::UEDecryptBuilder,std::default_delete<IronMan::Core::SDK::UEDecryptBuilder> > > > >::_Orphan_non_end
PUBLIC	?_Unchecked_splice@?$_List_val@U?$_List_simple_types@U?$pair@$$CBW4DecryptFunc@SDK@Core@IronMan@@V?$unique_ptr@VUEDecryptBuilder@SDK@Core@IronMan@@U?$default_delete@VUEDecryptBuilder@SDK@Core@IronMan@@@std@@@std@@@std@@@std@@@std@@SAPEAU?$_List_node@U?$pair@$$CBW4DecryptFunc@SDK@Core@IronMan@@V?$unique_ptr@VUEDecryptBuilder@SDK@Core@IronMan@@U?$default_delete@VUEDecryptBuilder@SDK@Core@IronMan@@@std@@@std@@@std@@PEAX@2@QEAU32@00@Z ; std::_List_val<std::_List_simple_types<std::pair<enum IronMan::Core::SDK::DecryptFunc const ,std::unique_ptr<IronMan::Core::SDK::UEDecryptBuilder,std::default_delete<IronMan::Core::SDK::UEDecryptBuilder> > > > >::_Unchecked_splice
PUBLIC	?_Get_first@?$_Compressed_pair@V?$allocator@U?$_List_node@U?$pair@$$CBW4DecryptFunc@SDK@Core@IronMan@@V?$unique_ptr@VUEDecryptBuilder@SDK@Core@IronMan@@U?$default_delete@VUEDecryptBuilder@SDK@Core@IronMan@@@std@@@std@@@std@@PEAX@std@@@std@@V?$_List_val@U?$_List_simple_types@U?$pair@$$CBW4DecryptFunc@SDK@Core@IronMan@@V?$unique_ptr@VUEDecryptBuilder@SDK@Core@IronMan@@U?$default_delete@VUEDecryptBuilder@SDK@Core@IronMan@@@std@@@std@@@std@@@std@@@2@$00@std@@QEAAAEAV?$allocator@U?$_List_node@U?$pair@$$CBW4DecryptFunc@SDK@Core@IronMan@@V?$unique_ptr@VUEDecryptBuilder@SDK@Core@IronMan@@U?$default_delete@VUEDecryptBuilder@SDK@Core@IronMan@@@std@@@std@@@std@@PEAX@std@@@2@XZ ; std::_Compressed_pair<std::allocator<std::_List_node<std::pair<enum IronMan::Core::SDK::DecryptFunc const ,std::unique_ptr<IronMan::Core::SDK::UEDecryptBuilder,std::default_delete<IronMan::Core::SDK::UEDecryptBuilder> > >,void *> >,std::_List_val<std::_List_simple_types<std::pair<enum IronMan::Core::SDK::DecryptFunc const ,std::unique_ptr<IronMan::Core::SDK::UEDecryptBuilder,std::default_delete<IronMan::Core::SDK::UEDecryptBuilder> > > > >,1>::_Get_first
PUBLIC	?_Get_first@?$_Compressed_pair@V?$allocator@U?$_List_node@U?$pair@$$CBW4DecryptFunc@SDK@Core@IronMan@@V?$unique_ptr@VUEDecryptBuilder@SDK@Core@IronMan@@U?$default_delete@VUEDecryptBuilder@SDK@Core@IronMan@@@std@@@std@@@std@@PEAX@std@@@std@@V?$_List_val@U?$_List_simple_types@U?$pair@$$CBW4DecryptFunc@SDK@Core@IronMan@@V?$unique_ptr@VUEDecryptBuilder@SDK@Core@IronMan@@U?$default_delete@VUEDecryptBuilder@SDK@Core@IronMan@@@std@@@std@@@std@@@std@@@2@$00@std@@QEBAAEBV?$allocator@U?$_List_node@U?$pair@$$CBW4DecryptFunc@SDK@Core@IronMan@@V?$unique_ptr@VUEDecryptBuilder@SDK@Core@IronMan@@U?$default_delete@VUEDecryptBuilder@SDK@Core@IronMan@@@std@@@std@@@std@@PEAX@std@@@2@XZ ; std::_Compressed_pair<std::allocator<std::_List_node<std::pair<enum IronMan::Core::SDK::DecryptFunc const ,std::unique_ptr<IronMan::Core::SDK::UEDecryptBuilder,std::default_delete<IronMan::Core::SDK::UEDecryptBuilder> > >,void *> >,std::_List_val<std::_List_simple_types<std::pair<enum IronMan::Core::SDK::DecryptFunc const ,std::unique_ptr<IronMan::Core::SDK::UEDecryptBuilder,std::default_delete<IronMan::Core::SDK::UEDecryptBuilder> > > > >,1>::_Get_first
PUBLIC	?_Unchecked_begin@?$_Hash@V?$_Umap_traits@W4DecryptFunc@SDK@Core@IronMan@@V?$unique_ptr@VUEDecryptBuilder@SDK@Core@IronMan@@U?$default_delete@VUEDecryptBuilder@SDK@Core@IronMan@@@std@@@std@@V?$_Uhash_compare@W4DecryptFunc@SDK@Core@IronMan@@U?$hash@W4DecryptFunc@SDK@Core@IronMan@@@std@@U?$equal_to@W4DecryptFunc@SDK@Core@IronMan@@@6@@6@V?$allocator@U?$pair@$$CBW4DecryptFunc@SDK@Core@IronMan@@V?$unique_ptr@VUEDecryptBuilder@SDK@Core@IronMan@@U?$default_delete@VUEDecryptBuilder@SDK@Core@IronMan@@@std@@@std@@@std@@@6@$0A@@std@@@std@@QEAA?AV?$_List_unchecked_iterator@V?$_List_val@U?$_List_simple_types@U?$pair@$$CBW4DecryptFunc@SDK@Core@IronMan@@V?$unique_ptr@VUEDecryptBuilder@SDK@Core@IronMan@@U?$default_delete@VUEDecryptBuilder@SDK@Core@IronMan@@@std@@@std@@@std@@@std@@@std@@@2@XZ ; std::_Hash<std::_Umap_traits<enum IronMan::Core::SDK::DecryptFunc,std::unique_ptr<IronMan::Core::SDK::UEDecryptBuilder,std::default_delete<IronMan::Core::SDK::UEDecryptBuilder> >,std::_Uhash_compare<enum IronMan::Core::SDK::DecryptFunc,std::hash<enum IronMan::Core::SDK::DecryptFunc>,std::equal_to<enum IronMan::Core::SDK::DecryptFunc> >,std::allocator<std::pair<enum IronMan::Core::SDK::DecryptFunc const ,std::unique_ptr<IronMan::Core::SDK::UEDecryptBuilder,std::default_delete<IronMan::Core::SDK::UEDecryptBuilder> > > >,0> >::_Unchecked_begin
PUBLIC	?_Unchecked_end@?$_Hash@V?$_Umap_traits@W4DecryptFunc@SDK@Core@IronMan@@V?$unique_ptr@VUEDecryptBuilder@SDK@Core@IronMan@@U?$default_delete@VUEDecryptBuilder@SDK@Core@IronMan@@@std@@@std@@V?$_Uhash_compare@W4DecryptFunc@SDK@Core@IronMan@@U?$hash@W4DecryptFunc@SDK@Core@IronMan@@@std@@U?$equal_to@W4DecryptFunc@SDK@Core@IronMan@@@6@@6@V?$allocator@U?$pair@$$CBW4DecryptFunc@SDK@Core@IronMan@@V?$unique_ptr@VUEDecryptBuilder@SDK@Core@IronMan@@U?$default_delete@VUEDecryptBuilder@SDK@Core@IronMan@@@std@@@std@@@std@@@6@$0A@@std@@@std@@QEAA?AV?$_List_unchecked_iterator@V?$_List_val@U?$_List_simple_types@U?$pair@$$CBW4DecryptFunc@SDK@Core@IronMan@@V?$unique_ptr@VUEDecryptBuilder@SDK@Core@IronMan@@U?$default_delete@VUEDecryptBuilder@SDK@Core@IronMan@@@std@@@std@@@std@@@std@@@std@@@2@XZ ; std::_Hash<std::_Umap_traits<enum IronMan::Core::SDK::DecryptFunc,std::unique_ptr<IronMan::Core::SDK::UEDecryptBuilder,std::default_delete<IronMan::Core::SDK::UEDecryptBuilder> >,std::_Uhash_compare<enum IronMan::Core::SDK::DecryptFunc,std::hash<enum IronMan::Core::SDK::DecryptFunc>,std::equal_to<enum IronMan::Core::SDK::DecryptFunc> >,std::allocator<std::pair<enum IronMan::Core::SDK::DecryptFunc const ,std::unique_ptr<IronMan::Core::SDK::UEDecryptBuilder,std::default_delete<IronMan::Core::SDK::UEDecryptBuilder> > > >,0> >::_Unchecked_end
PUBLIC	?bucket_count@?$_Hash@V?$_Umap_traits@W4DecryptFunc@SDK@Core@IronMan@@V?$unique_ptr@VUEDecryptBuilder@SDK@Core@IronMan@@U?$default_delete@VUEDecryptBuilder@SDK@Core@IronMan@@@std@@@std@@V?$_Uhash_compare@W4DecryptFunc@SDK@Core@IronMan@@U?$hash@W4DecryptFunc@SDK@Core@IronMan@@@std@@U?$equal_to@W4DecryptFunc@SDK@Core@IronMan@@@6@@6@V?$allocator@U?$pair@$$CBW4DecryptFunc@SDK@Core@IronMan@@V?$unique_ptr@VUEDecryptBuilder@SDK@Core@IronMan@@U?$default_delete@VUEDecryptBuilder@SDK@Core@IronMan@@@std@@@std@@@std@@@6@$0A@@std@@@std@@QEBA_KXZ ; std::_Hash<std::_Umap_traits<enum IronMan::Core::SDK::DecryptFunc,std::unique_ptr<IronMan::Core::SDK::UEDecryptBuilder,std::default_delete<IronMan::Core::SDK::UEDecryptBuilder> >,std::_Uhash_compare<enum IronMan::Core::SDK::DecryptFunc,std::hash<enum IronMan::Core::SDK::DecryptFunc>,std::equal_to<enum IronMan::Core::SDK::DecryptFunc> >,std::allocator<std::pair<enum IronMan::Core::SDK::DecryptFunc const ,std::unique_ptr<IronMan::Core::SDK::UEDecryptBuilder,std::default_delete<IronMan::Core::SDK::UEDecryptBuilder> > > >,0> >::bucket_count
PUBLIC	?bucket@?$_Hash@V?$_Umap_traits@W4DecryptFunc@SDK@Core@IronMan@@V?$unique_ptr@VUEDecryptBuilder@SDK@Core@IronMan@@U?$default_delete@VUEDecryptBuilder@SDK@Core@IronMan@@@std@@@std@@V?$_Uhash_compare@W4DecryptFunc@SDK@Core@IronMan@@U?$hash@W4DecryptFunc@SDK@Core@IronMan@@@std@@U?$equal_to@W4DecryptFunc@SDK@Core@IronMan@@@6@@6@V?$allocator@U?$pair@$$CBW4DecryptFunc@SDK@Core@IronMan@@V?$unique_ptr@VUEDecryptBuilder@SDK@Core@IronMan@@U?$default_delete@VUEDecryptBuilder@SDK@Core@IronMan@@@std@@@std@@@std@@@6@$0A@@std@@@std@@QEBA_KAEBW4DecryptFunc@SDK@Core@IronMan@@@Z ; std::_Hash<std::_Umap_traits<enum IronMan::Core::SDK::DecryptFunc,std::unique_ptr<IronMan::Core::SDK::UEDecryptBuilder,std::default_delete<IronMan::Core::SDK::UEDecryptBuilder> >,std::_Uhash_compare<enum IronMan::Core::SDK::DecryptFunc,std::hash<enum IronMan::Core::SDK::DecryptFunc>,std::equal_to<enum IronMan::Core::SDK::DecryptFunc> >,std::allocator<std::pair<enum IronMan::Core::SDK::DecryptFunc const ,std::unique_ptr<IronMan::Core::SDK::UEDecryptBuilder,std::default_delete<IronMan::Core::SDK::UEDecryptBuilder> > > >,0> >::bucket
PUBLIC	?max_load_factor@?$_Hash@V?$_Umap_traits@W4DecryptFunc@SDK@Core@IronMan@@V?$unique_ptr@VUEDecryptBuilder@SDK@Core@IronMan@@U?$default_delete@VUEDecryptBuilder@SDK@Core@IronMan@@@std@@@std@@V?$_Uhash_compare@W4DecryptFunc@SDK@Core@IronMan@@U?$hash@W4DecryptFunc@SDK@Core@IronMan@@@std@@U?$equal_to@W4DecryptFunc@SDK@Core@IronMan@@@6@@6@V?$allocator@U?$pair@$$CBW4DecryptFunc@SDK@Core@IronMan@@V?$unique_ptr@VUEDecryptBuilder@SDK@Core@IronMan@@U?$default_delete@VUEDecryptBuilder@SDK@Core@IronMan@@@std@@@std@@@std@@@6@$0A@@std@@@std@@QEBAMXZ ; std::_Hash<std::_Umap_traits<enum IronMan::Core::SDK::DecryptFunc,std::unique_ptr<IronMan::Core::SDK::UEDecryptBuilder,std::default_delete<IronMan::Core::SDK::UEDecryptBuilder> >,std::_Uhash_compare<enum IronMan::Core::SDK::DecryptFunc,std::hash<enum IronMan::Core::SDK::DecryptFunc>,std::equal_to<enum IronMan::Core::SDK::DecryptFunc> >,std::allocator<std::pair<enum IronMan::Core::SDK::DecryptFunc const ,std::unique_ptr<IronMan::Core::SDK::UEDecryptBuilder,std::default_delete<IronMan::Core::SDK::UEDecryptBuilder> > > >,0> >::max_load_factor
PUBLIC	?_Unchecked_erase@?$_Hash@V?$_Umap_traits@W4DecryptFunc@SDK@Core@IronMan@@V?$unique_ptr@VUEDecryptBuilder@SDK@Core@IronMan@@U?$default_delete@VUEDecryptBuilder@SDK@Core@IronMan@@@std@@@std@@V?$_Uhash_compare@W4DecryptFunc@SDK@Core@IronMan@@U?$hash@W4DecryptFunc@SDK@Core@IronMan@@@std@@U?$equal_to@W4DecryptFunc@SDK@Core@IronMan@@@6@@6@V?$allocator@U?$pair@$$CBW4DecryptFunc@SDK@Core@IronMan@@V?$unique_ptr@VUEDecryptBuilder@SDK@Core@IronMan@@U?$default_delete@VUEDecryptBuilder@SDK@Core@IronMan@@@std@@@std@@@std@@@6@$0A@@std@@@std@@AEAAPEAU?$_List_node@U?$pair@$$CBW4DecryptFunc@SDK@Core@IronMan@@V?$unique_ptr@VUEDecryptBuilder@SDK@Core@IronMan@@U?$default_delete@VUEDecryptBuilder@SDK@Core@IronMan@@@std@@@std@@@std@@PEAX@2@PEAU32@QEAU32@@Z ; std::_Hash<std::_Umap_traits<enum IronMan::Core::SDK::DecryptFunc,std::unique_ptr<IronMan::Core::SDK::UEDecryptBuilder,std::default_delete<IronMan::Core::SDK::UEDecryptBuilder> >,std::_Uhash_compare<enum IronMan::Core::SDK::DecryptFunc,std::hash<enum IronMan::Core::SDK::DecryptFunc>,std::equal_to<enum IronMan::Core::SDK::DecryptFunc> >,std::allocator<std::pair<enum IronMan::Core::SDK::DecryptFunc const ,std::unique_ptr<IronMan::Core::SDK::UEDecryptBuilder,std::default_delete<IronMan::Core::SDK::UEDecryptBuilder> > > >,0> >::_Unchecked_erase
PUBLIC	?clear@?$_Hash@V?$_Umap_traits@W4DecryptFunc@SDK@Core@IronMan@@V?$unique_ptr@VUEDecryptBuilder@SDK@Core@IronMan@@U?$default_delete@VUEDecryptBuilder@SDK@Core@IronMan@@@std@@@std@@V?$_Uhash_compare@W4DecryptFunc@SDK@Core@IronMan@@U?$hash@W4DecryptFunc@SDK@Core@IronMan@@@std@@U?$equal_to@W4DecryptFunc@SDK@Core@IronMan@@@6@@6@V?$allocator@U?$pair@$$CBW4DecryptFunc@SDK@Core@IronMan@@V?$unique_ptr@VUEDecryptBuilder@SDK@Core@IronMan@@U?$default_delete@VUEDecryptBuilder@SDK@Core@IronMan@@@std@@@std@@@std@@@6@$0A@@std@@@std@@QEAAXXZ ; std::_Hash<std::_Umap_traits<enum IronMan::Core::SDK::DecryptFunc,std::unique_ptr<IronMan::Core::SDK::UEDecryptBuilder,std::default_delete<IronMan::Core::SDK::UEDecryptBuilder> >,std::_Uhash_compare<enum IronMan::Core::SDK::DecryptFunc,std::hash<enum IronMan::Core::SDK::DecryptFunc>,std::equal_to<enum IronMan::Core::SDK::DecryptFunc> >,std::allocator<std::pair<enum IronMan::Core::SDK::DecryptFunc const ,std::unique_ptr<IronMan::Core::SDK::UEDecryptBuilder,std::default_delete<IronMan::Core::SDK::UEDecryptBuilder> > > >,0> >::clear
PUBLIC	?_Insert_new_node_before@?$_Hash@V?$_Umap_traits@W4DecryptFunc@SDK@Core@IronMan@@V?$unique_ptr@VUEDecryptBuilder@SDK@Core@IronMan@@U?$default_delete@VUEDecryptBuilder@SDK@Core@IronMan@@@std@@@std@@V?$_Uhash_compare@W4DecryptFunc@SDK@Core@IronMan@@U?$hash@W4DecryptFunc@SDK@Core@IronMan@@@std@@U?$equal_to@W4DecryptFunc@SDK@Core@IronMan@@@6@@6@V?$allocator@U?$pair@$$CBW4DecryptFunc@SDK@Core@IronMan@@V?$unique_ptr@VUEDecryptBuilder@SDK@Core@IronMan@@U?$default_delete@VUEDecryptBuilder@SDK@Core@IronMan@@@std@@@std@@@std@@@6@$0A@@std@@@std@@IEAAPEAU?$_List_node@U?$pair@$$CBW4DecryptFunc@SDK@Core@IronMan@@V?$unique_ptr@VUEDecryptBuilder@SDK@Core@IronMan@@U?$default_delete@VUEDecryptBuilder@SDK@Core@IronMan@@@std@@@std@@@std@@PEAX@2@_KQEAU32@1@Z ; std::_Hash<std::_Umap_traits<enum IronMan::Core::SDK::DecryptFunc,std::unique_ptr<IronMan::Core::SDK::UEDecryptBuilder,std::default_delete<IronMan::Core::SDK::UEDecryptBuilder> >,std::_Uhash_compare<enum IronMan::Core::SDK::DecryptFunc,std::hash<enum IronMan::Core::SDK::DecryptFunc>,std::equal_to<enum IronMan::Core::SDK::DecryptFunc> >,std::allocator<std::pair<enum IronMan::Core::SDK::DecryptFunc const ,std::unique_ptr<IronMan::Core::SDK::UEDecryptBuilder,std::default_delete<IronMan::Core::SDK::UEDecryptBuilder> > > >,0> >::_Insert_new_node_before
PUBLIC	?_Check_max_size@?$_Hash@V?$_Umap_traits@W4DecryptFunc@SDK@Core@IronMan@@V?$unique_ptr@VUEDecryptBuilder@SDK@Core@IronMan@@U?$default_delete@VUEDecryptBuilder@SDK@Core@IronMan@@@std@@@std@@V?$_Uhash_compare@W4DecryptFunc@SDK@Core@IronMan@@U?$hash@W4DecryptFunc@SDK@Core@IronMan@@@std@@U?$equal_to@W4DecryptFunc@SDK@Core@IronMan@@@6@@6@V?$allocator@U?$pair@$$CBW4DecryptFunc@SDK@Core@IronMan@@V?$unique_ptr@VUEDecryptBuilder@SDK@Core@IronMan@@U?$default_delete@VUEDecryptBuilder@SDK@Core@IronMan@@@std@@@std@@@std@@@6@$0A@@std@@@std@@IEBAXXZ ; std::_Hash<std::_Umap_traits<enum IronMan::Core::SDK::DecryptFunc,std::unique_ptr<IronMan::Core::SDK::UEDecryptBuilder,std::default_delete<IronMan::Core::SDK::UEDecryptBuilder> >,std::_Uhash_compare<enum IronMan::Core::SDK::DecryptFunc,std::hash<enum IronMan::Core::SDK::DecryptFunc>,std::equal_to<enum IronMan::Core::SDK::DecryptFunc> >,std::allocator<std::pair<enum IronMan::Core::SDK::DecryptFunc const ,std::unique_ptr<IronMan::Core::SDK::UEDecryptBuilder,std::default_delete<IronMan::Core::SDK::UEDecryptBuilder> > > >,0> >::_Check_max_size
PUBLIC	?_Check_rehash_required_1@?$_Hash@V?$_Umap_traits@W4DecryptFunc@SDK@Core@IronMan@@V?$unique_ptr@VUEDecryptBuilder@SDK@Core@IronMan@@U?$default_delete@VUEDecryptBuilder@SDK@Core@IronMan@@@std@@@std@@V?$_Uhash_compare@W4DecryptFunc@SDK@Core@IronMan@@U?$hash@W4DecryptFunc@SDK@Core@IronMan@@@std@@U?$equal_to@W4DecryptFunc@SDK@Core@IronMan@@@6@@6@V?$allocator@U?$pair@$$CBW4DecryptFunc@SDK@Core@IronMan@@V?$unique_ptr@VUEDecryptBuilder@SDK@Core@IronMan@@U?$default_delete@VUEDecryptBuilder@SDK@Core@IronMan@@@std@@@std@@@std@@@6@$0A@@std@@@std@@IEBA_NXZ ; std::_Hash<std::_Umap_traits<enum IronMan::Core::SDK::DecryptFunc,std::unique_ptr<IronMan::Core::SDK::UEDecryptBuilder,std::default_delete<IronMan::Core::SDK::UEDecryptBuilder> >,std::_Uhash_compare<enum IronMan::Core::SDK::DecryptFunc,std::hash<enum IronMan::Core::SDK::DecryptFunc>,std::equal_to<enum IronMan::Core::SDK::DecryptFunc> >,std::allocator<std::pair<enum IronMan::Core::SDK::DecryptFunc const ,std::unique_ptr<IronMan::Core::SDK::UEDecryptBuilder,std::default_delete<IronMan::Core::SDK::UEDecryptBuilder> > > >,0> >::_Check_rehash_required_1
PUBLIC	?_Rehash_for_1@?$_Hash@V?$_Umap_traits@W4DecryptFunc@SDK@Core@IronMan@@V?$unique_ptr@VUEDecryptBuilder@SDK@Core@IronMan@@U?$default_delete@VUEDecryptBuilder@SDK@Core@IronMan@@@std@@@std@@V?$_Uhash_compare@W4DecryptFunc@SDK@Core@IronMan@@U?$hash@W4DecryptFunc@SDK@Core@IronMan@@@std@@U?$equal_to@W4DecryptFunc@SDK@Core@IronMan@@@6@@6@V?$allocator@U?$pair@$$CBW4DecryptFunc@SDK@Core@IronMan@@V?$unique_ptr@VUEDecryptBuilder@SDK@Core@IronMan@@U?$default_delete@VUEDecryptBuilder@SDK@Core@IronMan@@@std@@@std@@@std@@@6@$0A@@std@@@std@@IEAAXXZ ; std::_Hash<std::_Umap_traits<enum IronMan::Core::SDK::DecryptFunc,std::unique_ptr<IronMan::Core::SDK::UEDecryptBuilder,std::default_delete<IronMan::Core::SDK::UEDecryptBuilder> >,std::_Uhash_compare<enum IronMan::Core::SDK::DecryptFunc,std::hash<enum IronMan::Core::SDK::DecryptFunc>,std::equal_to<enum IronMan::Core::SDK::DecryptFunc> >,std::allocator<std::pair<enum IronMan::Core::SDK::DecryptFunc const ,std::unique_ptr<IronMan::Core::SDK::UEDecryptBuilder,std::default_delete<IronMan::Core::SDK::UEDecryptBuilder> > > >,0> >::_Rehash_for_1
PUBLIC	?_Min_load_factor_buckets@?$_Hash@V?$_Umap_traits@W4DecryptFunc@SDK@Core@IronMan@@V?$unique_ptr@VUEDecryptBuilder@SDK@Core@IronMan@@U?$default_delete@VUEDecryptBuilder@SDK@Core@IronMan@@@std@@@std@@V?$_Uhash_compare@W4DecryptFunc@SDK@Core@IronMan@@U?$hash@W4DecryptFunc@SDK@Core@IronMan@@@std@@U?$equal_to@W4DecryptFunc@SDK@Core@IronMan@@@6@@6@V?$allocator@U?$pair@$$CBW4DecryptFunc@SDK@Core@IronMan@@V?$unique_ptr@VUEDecryptBuilder@SDK@Core@IronMan@@U?$default_delete@VUEDecryptBuilder@SDK@Core@IronMan@@@std@@@std@@@std@@@6@$0A@@std@@@std@@IEBA_K_K@Z ; std::_Hash<std::_Umap_traits<enum IronMan::Core::SDK::DecryptFunc,std::unique_ptr<IronMan::Core::SDK::UEDecryptBuilder,std::default_delete<IronMan::Core::SDK::UEDecryptBuilder> >,std::_Uhash_compare<enum IronMan::Core::SDK::DecryptFunc,std::hash<enum IronMan::Core::SDK::DecryptFunc>,std::equal_to<enum IronMan::Core::SDK::DecryptFunc> >,std::allocator<std::pair<enum IronMan::Core::SDK::DecryptFunc const ,std::unique_ptr<IronMan::Core::SDK::UEDecryptBuilder,std::default_delete<IronMan::Core::SDK::UEDecryptBuilder> > > >,0> >::_Min_load_factor_buckets
PUBLIC	?_Desired_grow_bucket_count@?$_Hash@V?$_Umap_traits@W4DecryptFunc@SDK@Core@IronMan@@V?$unique_ptr@VUEDecryptBuilder@SDK@Core@IronMan@@U?$default_delete@VUEDecryptBuilder@SDK@Core@IronMan@@@std@@@std@@V?$_Uhash_compare@W4DecryptFunc@SDK@Core@IronMan@@U?$hash@W4DecryptFunc@SDK@Core@IronMan@@@std@@U?$equal_to@W4DecryptFunc@SDK@Core@IronMan@@@6@@6@V?$allocator@U?$pair@$$CBW4DecryptFunc@SDK@Core@IronMan@@V?$unique_ptr@VUEDecryptBuilder@SDK@Core@IronMan@@U?$default_delete@VUEDecryptBuilder@SDK@Core@IronMan@@@std@@@std@@@std@@@6@$0A@@std@@@std@@IEBA_K_K@Z ; std::_Hash<std::_Umap_traits<enum IronMan::Core::SDK::DecryptFunc,std::unique_ptr<IronMan::Core::SDK::UEDecryptBuilder,std::default_delete<IronMan::Core::SDK::UEDecryptBuilder> >,std::_Uhash_compare<enum IronMan::Core::SDK::DecryptFunc,std::hash<enum IronMan::Core::SDK::DecryptFunc>,std::equal_to<enum IronMan::Core::SDK::DecryptFunc> >,std::allocator<std::pair<enum IronMan::Core::SDK::DecryptFunc const ,std::unique_ptr<IronMan::Core::SDK::UEDecryptBuilder,std::default_delete<IronMan::Core::SDK::UEDecryptBuilder> > > >,0> >::_Desired_grow_bucket_count
PUBLIC	?_Forced_rehash@?$_Hash@V?$_Umap_traits@W4DecryptFunc@SDK@Core@IronMan@@V?$unique_ptr@VUEDecryptBuilder@SDK@Core@IronMan@@U?$default_delete@VUEDecryptBuilder@SDK@Core@IronMan@@@std@@@std@@V?$_Uhash_compare@W4DecryptFunc@SDK@Core@IronMan@@U?$hash@W4DecryptFunc@SDK@Core@IronMan@@@std@@U?$equal_to@W4DecryptFunc@SDK@Core@IronMan@@@6@@6@V?$allocator@U?$pair@$$CBW4DecryptFunc@SDK@Core@IronMan@@V?$unique_ptr@VUEDecryptBuilder@SDK@Core@IronMan@@U?$default_delete@VUEDecryptBuilder@SDK@Core@IronMan@@@std@@@std@@@std@@@6@$0A@@std@@@std@@IEAAX_K@Z ; std::_Hash<std::_Umap_traits<enum IronMan::Core::SDK::DecryptFunc,std::unique_ptr<IronMan::Core::SDK::UEDecryptBuilder,std::default_delete<IronMan::Core::SDK::UEDecryptBuilder> >,std::_Uhash_compare<enum IronMan::Core::SDK::DecryptFunc,std::hash<enum IronMan::Core::SDK::DecryptFunc>,std::equal_to<enum IronMan::Core::SDK::DecryptFunc> >,std::allocator<std::pair<enum IronMan::Core::SDK::DecryptFunc const ,std::unique_ptr<IronMan::Core::SDK::UEDecryptBuilder,std::default_delete<IronMan::Core::SDK::UEDecryptBuilder> > > >,0> >::_Forced_rehash
PUBLIC	?_Max_bucket_size@?$_Hash@V?$_Umap_traits@W4DecryptFunc@SDK@Core@IronMan@@V?$unique_ptr@VUEDecryptBuilder@SDK@Core@IronMan@@U?$default_delete@VUEDecryptBuilder@SDK@Core@IronMan@@@std@@@std@@V?$_Uhash_compare@W4DecryptFunc@SDK@Core@IronMan@@U?$hash@W4DecryptFunc@SDK@Core@IronMan@@@std@@U?$equal_to@W4DecryptFunc@SDK@Core@IronMan@@@6@@6@V?$allocator@U?$pair@$$CBW4DecryptFunc@SDK@Core@IronMan@@V?$unique_ptr@VUEDecryptBuilder@SDK@Core@IronMan@@U?$default_delete@VUEDecryptBuilder@SDK@Core@IronMan@@@std@@@std@@@std@@@6@$0A@@std@@@std@@IEBAAEBMXZ ; std::_Hash<std::_Umap_traits<enum IronMan::Core::SDK::DecryptFunc,std::unique_ptr<IronMan::Core::SDK::UEDecryptBuilder,std::default_delete<IronMan::Core::SDK::UEDecryptBuilder> >,std::_Uhash_compare<enum IronMan::Core::SDK::DecryptFunc,std::hash<enum IronMan::Core::SDK::DecryptFunc>,std::equal_to<enum IronMan::Core::SDK::DecryptFunc> >,std::allocator<std::pair<enum IronMan::Core::SDK::DecryptFunc const ,std::unique_ptr<IronMan::Core::SDK::UEDecryptBuilder,std::default_delete<IronMan::Core::SDK::UEDecryptBuilder> > > >,0> >::_Max_bucket_size
PUBLIC	?deallocate@?$allocator@V?$_List_unchecked_iterator@V?$_List_val@U?$_List_simple_types@U?$pair@$$CBW4DecryptFunc@SDK@Core@IronMan@@V?$unique_ptr@VUEDecryptBuilder@SDK@Core@IronMan@@U?$default_delete@VUEDecryptBuilder@SDK@Core@IronMan@@@std@@@std@@@std@@@std@@@std@@@std@@@std@@QEAAXQEAV?$_List_unchecked_iterator@V?$_List_val@U?$_List_simple_types@U?$pair@$$CBW4DecryptFunc@SDK@Core@IronMan@@V?$unique_ptr@VUEDecryptBuilder@SDK@Core@IronMan@@U?$default_delete@VUEDecryptBuilder@SDK@Core@IronMan@@@std@@@std@@@std@@@std@@@std@@@2@_K@Z ; std::allocator<std::_List_unchecked_iterator<std::_List_val<std::_List_simple_types<std::pair<enum IronMan::Core::SDK::DecryptFunc const ,std::unique_ptr<IronMan::Core::SDK::UEDecryptBuilder,std::default_delete<IronMan::Core::SDK::UEDecryptBuilder> > > > > > >::deallocate
PUBLIC	?allocate@?$allocator@V?$_List_unchecked_iterator@V?$_List_val@U?$_List_simple_types@U?$pair@$$CBW4DecryptFunc@SDK@Core@IronMan@@V?$unique_ptr@VUEDecryptBuilder@SDK@Core@IronMan@@U?$default_delete@VUEDecryptBuilder@SDK@Core@IronMan@@@std@@@std@@@std@@@std@@@std@@@std@@@std@@QEAAPEAV?$_List_unchecked_iterator@V?$_List_val@U?$_List_simple_types@U?$pair@$$CBW4DecryptFunc@SDK@Core@IronMan@@V?$unique_ptr@VUEDecryptBuilder@SDK@Core@IronMan@@U?$default_delete@VUEDecryptBuilder@SDK@Core@IronMan@@@std@@@std@@@std@@@std@@@std@@@2@_K@Z ; std::allocator<std::_List_unchecked_iterator<std::_List_val<std::_List_simple_types<std::pair<enum IronMan::Core::SDK::DecryptFunc const ,std::unique_ptr<IronMan::Core::SDK::UEDecryptBuilder,std::default_delete<IronMan::Core::SDK::UEDecryptBuilder> > > > > > >::allocate
PUBLIC	?max_size@?$_Default_allocator_traits@V?$allocator@V?$_List_unchecked_iterator@V?$_List_val@U?$_List_simple_types@U?$pair@$$CBW4DecryptFunc@SDK@Core@IronMan@@V?$unique_ptr@VUEDecryptBuilder@SDK@Core@IronMan@@U?$default_delete@VUEDecryptBuilder@SDK@Core@IronMan@@@std@@@std@@@std@@@std@@@std@@@std@@@std@@@std@@SA_KAEBV?$allocator@V?$_List_unchecked_iterator@V?$_List_val@U?$_List_simple_types@U?$pair@$$CBW4DecryptFunc@SDK@Core@IronMan@@V?$unique_ptr@VUEDecryptBuilder@SDK@Core@IronMan@@U?$default_delete@VUEDecryptBuilder@SDK@Core@IronMan@@@std@@@std@@@std@@@std@@@std@@@std@@@2@@Z ; std::_Default_allocator_traits<std::allocator<std::_List_unchecked_iterator<std::_List_val<std::_List_simple_types<std::pair<enum IronMan::Core::SDK::DecryptFunc const ,std::unique_ptr<IronMan::Core::SDK::UEDecryptBuilder,std::default_delete<IronMan::Core::SDK::UEDecryptBuilder> > > > > > > >::max_size
PUBLIC	?size@?$_Hash_vec@V?$allocator@V?$_List_unchecked_iterator@V?$_List_val@U?$_List_simple_types@U?$pair@$$CBW4DecryptFunc@SDK@Core@IronMan@@V?$unique_ptr@VUEDecryptBuilder@SDK@Core@IronMan@@U?$default_delete@VUEDecryptBuilder@SDK@Core@IronMan@@@std@@@std@@@std@@@std@@@std@@@std@@@std@@@std@@QEBA_KXZ ; std::_Hash_vec<std::allocator<std::_List_unchecked_iterator<std::_List_val<std::_List_simple_types<std::pair<enum IronMan::Core::SDK::DecryptFunc const ,std::unique_ptr<IronMan::Core::SDK::UEDecryptBuilder,std::default_delete<IronMan::Core::SDK::UEDecryptBuilder> > > > > > > >::size
PUBLIC	?max_size@?$_Hash_vec@V?$allocator@V?$_List_unchecked_iterator@V?$_List_val@U?$_List_simple_types@U?$pair@$$CBW4DecryptFunc@SDK@Core@IronMan@@V?$unique_ptr@VUEDecryptBuilder@SDK@Core@IronMan@@U?$default_delete@VUEDecryptBuilder@SDK@Core@IronMan@@@std@@@std@@@std@@@std@@@std@@@std@@@std@@@std@@QEBA_KXZ ; std::_Hash_vec<std::allocator<std::_List_unchecked_iterator<std::_List_val<std::_List_simple_types<std::pair<enum IronMan::Core::SDK::DecryptFunc const ,std::unique_ptr<IronMan::Core::SDK::UEDecryptBuilder,std::default_delete<IronMan::Core::SDK::UEDecryptBuilder> > > > > > > >::max_size
PUBLIC	?capacity@?$_Hash_vec@V?$allocator@V?$_List_unchecked_iterator@V?$_List_val@U?$_List_simple_types@U?$pair@$$CBW4DecryptFunc@SDK@Core@IronMan@@V?$unique_ptr@VUEDecryptBuilder@SDK@Core@IronMan@@U?$default_delete@VUEDecryptBuilder@SDK@Core@IronMan@@@std@@@std@@@std@@@std@@@std@@@std@@@std@@@std@@QEBA_KXZ ; std::_Hash_vec<std::allocator<std::_List_unchecked_iterator<std::_List_val<std::_List_simple_types<std::pair<enum IronMan::Core::SDK::DecryptFunc const ,std::unique_ptr<IronMan::Core::SDK::UEDecryptBuilder,std::default_delete<IronMan::Core::SDK::UEDecryptBuilder> > > > > > > >::capacity
PUBLIC	?_Assign_grow@?$_Hash_vec@V?$allocator@V?$_List_unchecked_iterator@V?$_List_val@U?$_List_simple_types@U?$pair@$$CBW4DecryptFunc@SDK@Core@IronMan@@V?$unique_ptr@VUEDecryptBuilder@SDK@Core@IronMan@@U?$default_delete@VUEDecryptBuilder@SDK@Core@IronMan@@@std@@@std@@@std@@@std@@@std@@@std@@@std@@@std@@QEAAX_KV?$_List_unchecked_iterator@V?$_List_val@U?$_List_simple_types@U?$pair@$$CBW4DecryptFunc@SDK@Core@IronMan@@V?$unique_ptr@VUEDecryptBuilder@SDK@Core@IronMan@@U?$default_delete@VUEDecryptBuilder@SDK@Core@IronMan@@@std@@@std@@@std@@@std@@@std@@@2@@Z ; std::_Hash_vec<std::allocator<std::_List_unchecked_iterator<std::_List_val<std::_List_simple_types<std::pair<enum IronMan::Core::SDK::DecryptFunc const ,std::unique_ptr<IronMan::Core::SDK::UEDecryptBuilder,std::default_delete<IronMan::Core::SDK::UEDecryptBuilder> > > > > > > >::_Assign_grow
PUBLIC	?_Get_first@?$_Compressed_pair@V?$allocator@V?$_List_unchecked_iterator@V?$_List_val@U?$_List_simple_types@U?$pair@$$CBW4DecryptFunc@SDK@Core@IronMan@@V?$unique_ptr@VUEDecryptBuilder@SDK@Core@IronMan@@U?$default_delete@VUEDecryptBuilder@SDK@Core@IronMan@@@std@@@std@@@std@@@std@@@std@@@std@@@std@@V?$_Vector_val@U?$_Simple_types@V?$_List_unchecked_iterator@V?$_List_val@U?$_List_simple_types@U?$pair@$$CBW4DecryptFunc@SDK@Core@IronMan@@V?$unique_ptr@VUEDecryptBuilder@SDK@Core@IronMan@@U?$default_delete@VUEDecryptBuilder@SDK@Core@IronMan@@@std@@@std@@@std@@@std@@@std@@@std@@@std@@@2@$00@std@@QEAAAEAV?$allocator@V?$_List_unchecked_iterator@V?$_List_val@U?$_List_simple_types@U?$pair@$$CBW4DecryptFunc@SDK@Core@IronMan@@V?$unique_ptr@VUEDecryptBuilder@SDK@Core@IronMan@@U?$default_delete@VUEDecryptBuilder@SDK@Core@IronMan@@@std@@@std@@@std@@@std@@@std@@@std@@@2@XZ ; std::_Compressed_pair<std::allocator<std::_List_unchecked_iterator<std::_List_val<std::_List_simple_types<std::pair<enum IronMan::Core::SDK::DecryptFunc const ,std::unique_ptr<IronMan::Core::SDK::UEDecryptBuilder,std::default_delete<IronMan::Core::SDK::UEDecryptBuilder> > > > > > >,std::_Vector_val<std::_Simple_types<std::_List_unchecked_iterator<std::_List_val<std::_List_simple_types<std::pair<enum IronMan::Core::SDK::DecryptFunc const ,std::unique_ptr<IronMan::Core::SDK::UEDecryptBuilder,std::default_delete<IronMan::Core::SDK::UEDecryptBuilder> > > > > > > >,1>::_Get_first
PUBLIC	?_Get_first@?$_Compressed_pair@V?$allocator@V?$_List_unchecked_iterator@V?$_List_val@U?$_List_simple_types@U?$pair@$$CBW4DecryptFunc@SDK@Core@IronMan@@V?$unique_ptr@VUEDecryptBuilder@SDK@Core@IronMan@@U?$default_delete@VUEDecryptBuilder@SDK@Core@IronMan@@@std@@@std@@@std@@@std@@@std@@@std@@@std@@V?$_Vector_val@U?$_Simple_types@V?$_List_unchecked_iterator@V?$_List_val@U?$_List_simple_types@U?$pair@$$CBW4DecryptFunc@SDK@Core@IronMan@@V?$unique_ptr@VUEDecryptBuilder@SDK@Core@IronMan@@U?$default_delete@VUEDecryptBuilder@SDK@Core@IronMan@@@std@@@std@@@std@@@std@@@std@@@std@@@std@@@2@$00@std@@QEBAAEBV?$allocator@V?$_List_unchecked_iterator@V?$_List_val@U?$_List_simple_types@U?$pair@$$CBW4DecryptFunc@SDK@Core@IronMan@@V?$unique_ptr@VUEDecryptBuilder@SDK@Core@IronMan@@U?$default_delete@VUEDecryptBuilder@SDK@Core@IronMan@@@std@@@std@@@std@@@std@@@std@@@std@@@2@XZ ; std::_Compressed_pair<std::allocator<std::_List_unchecked_iterator<std::_List_val<std::_List_simple_types<std::pair<enum IronMan::Core::SDK::DecryptFunc const ,std::unique_ptr<IronMan::Core::SDK::UEDecryptBuilder,std::default_delete<IronMan::Core::SDK::UEDecryptBuilder> > > > > > >,std::_Vector_val<std::_Simple_types<std::_List_unchecked_iterator<std::_List_val<std::_List_simple_types<std::pair<enum IronMan::Core::SDK::DecryptFunc const ,std::unique_ptr<IronMan::Core::SDK::UEDecryptBuilder,std::default_delete<IronMan::Core::SDK::UEDecryptBuilder> > > > > > > >,1>::_Get_first
PUBLIC	??A?$unordered_map@W4DecryptFunc@SDK@Core@IronMan@@V?$unique_ptr@VUEDecryptBuilder@SDK@Core@IronMan@@U?$default_delete@VUEDecryptBuilder@SDK@Core@IronMan@@@std@@@std@@U?$hash@W4DecryptFunc@SDK@Core@IronMan@@@6@U?$equal_to@W4DecryptFunc@SDK@Core@IronMan@@@6@V?$allocator@U?$pair@$$CBW4DecryptFunc@SDK@Core@IronMan@@V?$unique_ptr@VUEDecryptBuilder@SDK@Core@IronMan@@U?$default_delete@VUEDecryptBuilder@SDK@Core@IronMan@@@std@@@std@@@std@@@6@@std@@QEAAAEAV?$unique_ptr@VUEDecryptBuilder@SDK@Core@IronMan@@U?$default_delete@VUEDecryptBuilder@SDK@Core@IronMan@@@std@@@1@$$QEAW4DecryptFunc@SDK@Core@IronMan@@@Z ; std::unordered_map<enum IronMan::Core::SDK::DecryptFunc,std::unique_ptr<IronMan::Core::SDK::UEDecryptBuilder,std::default_delete<IronMan::Core::SDK::UEDecryptBuilder> >,std::hash<enum IronMan::Core::SDK::DecryptFunc>,std::equal_to<enum IronMan::Core::SDK::DecryptFunc>,std::allocator<std::pair<enum IronMan::Core::SDK::DecryptFunc const ,std::unique_ptr<IronMan::Core::SDK::UEDecryptBuilder,std::default_delete<IronMan::Core::SDK::UEDecryptBuilder> > > > >::operator[]
PUBLIC	??R?$default_delete@VUEDecryptBuilder@SDK@Core@IronMan@@@std@@QEBAXPEAVUEDecryptBuilder@SDK@Core@IronMan@@@Z ; std::default_delete<IronMan::Core::SDK::UEDecryptBuilder>::operator()
PUBLIC	??1?$unique_ptr@VUEDecryptBuilder@SDK@Core@IronMan@@U?$default_delete@VUEDecryptBuilder@SDK@Core@IronMan@@@std@@@std@@QEAA@XZ ; std::unique_ptr<IronMan::Core::SDK::UEDecryptBuilder,std::default_delete<IronMan::Core::SDK::UEDecryptBuilder> >::~unique_ptr<IronMan::Core::SDK::UEDecryptBuilder,std::default_delete<IronMan::Core::SDK::UEDecryptBuilder> >
PUBLIC	??C?$unique_ptr@VUEDecryptBuilder@SDK@Core@IronMan@@U?$default_delete@VUEDecryptBuilder@SDK@Core@IronMan@@@std@@@std@@QEBAPEAVUEDecryptBuilder@SDK@Core@IronMan@@XZ ; std::unique_ptr<IronMan::Core::SDK::UEDecryptBuilder,std::default_delete<IronMan::Core::SDK::UEDecryptBuilder> >::operator->
PUBLIC	?_Get_first@?$_Compressed_pair@U?$default_delete@VUEDecryptBuilder@SDK@Core@IronMan@@@std@@PEAVUEDecryptBuilder@SDK@Core@IronMan@@$00@std@@QEAAAEAU?$default_delete@VUEDecryptBuilder@SDK@Core@IronMan@@@2@XZ ; std::_Compressed_pair<std::default_delete<IronMan::Core::SDK::UEDecryptBuilder>,IronMan::Core::SDK::UEDecryptBuilder *,1>::_Get_first
PUBLIC	??$_Resize@U_Value_init_tag@std@@@?$vector@_KV?$allocator@_K@std@@@std@@AEAAX_KAEBU_Value_init_tag@1@@Z ; std::vector<unsigned __int64,std::allocator<unsigned __int64> >::_Resize<std::_Value_init_tag>
PUBLIC	??$?0$$V@?$_Compressed_pair@V?$allocator@_K@std@@V?$_Vector_val@U?$_Simple_types@_K@std@@@2@$00@std@@QEAA@U_Zero_then_variadic_args_t@1@@Z ; std::_Compressed_pair<std::allocator<unsigned __int64>,std::_Vector_val<std::_Simple_types<unsigned __int64> >,1>::_Compressed_pair<std::allocator<unsigned __int64>,std::_Vector_val<std::_Simple_types<unsigned __int64> >,1><>
PUBLIC	??$_Unfancy_maybe_null@UStringA@SDK@Core@IronMan@@@std@@YAPEAUStringA@SDK@Core@IronMan@@PEAU1234@@Z ; std::_Unfancy_maybe_null<IronMan::Core::SDK::StringA>
PUBLIC	??$_Resize@U_Value_init_tag@std@@@?$vector@UStringA@SDK@Core@IronMan@@V?$allocator@UStringA@SDK@Core@IronMan@@@std@@@std@@AEAAX_KAEBU_Value_init_tag@1@@Z ; std::vector<IronMan::Core::SDK::StringA,std::allocator<IronMan::Core::SDK::StringA> >::_Resize<std::_Value_init_tag>
PUBLIC	??$?0$$V@?$_Compressed_pair@V?$allocator@UStringA@SDK@Core@IronMan@@@std@@V?$_Vector_val@U?$_Simple_types@UStringA@SDK@Core@IronMan@@@std@@@2@$00@std@@QEAA@U_Zero_then_variadic_args_t@1@@Z ; std::_Compressed_pair<std::allocator<IronMan::Core::SDK::StringA>,std::_Vector_val<std::_Simple_types<IronMan::Core::SDK::StringA> >,1>::_Compressed_pair<std::allocator<IronMan::Core::SDK::StringA>,std::_Vector_val<std::_Simple_types<IronMan::Core::SDK::StringA> >,1><>
PUBLIC	??$ReadCache@VFNameEntry@SDK@Core@IronMan@@@DMAHandler@IronMan@@QEAA?AVFNameEntry@SDK@Core@1@_K@Z ; IronMan::DMAHandler::ReadCache<IronMan::Core::SDK::FNameEntry>
PUBLIC	??$Read@VFNameEntry@SDK@Core@IronMan@@@DMAHandler@IronMan@@QEAA?AVFNameEntry@SDK@Core@1@_K@Z ; IronMan::DMAHandler::Read<IronMan::Core::SDK::FNameEntry>
PUBLIC	??$ReadCache@PEAVFNameEntry@SDK@Core@IronMan@@@DMAHandler@IronMan@@QEAAPEAVFNameEntry@SDK@Core@1@_K@Z ; IronMan::DMAHandler::ReadCache<IronMan::Core::SDK::FNameEntry *>
PUBLIC	??$Read@PEAVFNameEntry@SDK@Core@IronMan@@@DMAHandler@IronMan@@QEAAPEAVFNameEntry@SDK@Core@1@_K@Z ; IronMan::DMAHandler::Read<IronMan::Core::SDK::FNameEntry *>
PUBLIC	?STATIC_Get@?$UEEncryptedObjectProperty@H$05@SDK@Core@IronMan@@SAH_K@Z ; IronMan::Core::SDK::UEEncryptedObjectProperty<int,6>::STATIC_Get
PUBLIC	??$forward@_N@std@@YA$$QEA_NAEA_N@Z		; std::forward<bool>
PUBLIC	??$_Allocate_at_least_helper@V?$allocator@D@std@@@std@@YAPEADAEAV?$allocator@D@0@AEA_K@Z ; std::_Allocate_at_least_helper<std::allocator<char> >
PUBLIC	??$_Unfancy@D@std@@YAPEADPEAD@Z			; std::_Unfancy<char>
PUBLIC	??$max@_K@std@@YAAEB_KAEB_K0@Z			; std::max<unsigned __int64>
PUBLIC	??$_Max_limit@_J@std@@YA_JXZ			; std::_Max_limit<__int64>
PUBLIC	??$_Convert_size@_K_K@std@@YA_K_K@Z		; std::_Convert_size<unsigned __int64,unsigned __int64>
PUBLIC	??$?0$$V@?$_Compressed_pair@V?$allocator@D@std@@V?$_String_val@U?$_Simple_types@D@std@@@2@$00@std@@QEAA@U_Zero_then_variadic_args_t@1@@Z ; std::_Compressed_pair<std::allocator<char>,std::_String_val<std::_Simple_types<char> >,1>::_Compressed_pair<std::allocator<char>,std::_String_val<std::_Simple_types<char> >,1><>
PUBLIC	??$_Construct@$00PEBD@?$basic_string@DU?$char_traits@D@std@@V?$allocator@D@2@@std@@AEAAXQEBD_K@Z ; std::basic_string<char,std::char_traits<char>,std::allocator<char> >::_Construct<1,char const *>
PUBLIC	??$move@AEAW4DecryptFunc@SDK@Core@IronMan@@@std@@YA$$QEAW4DecryptFunc@SDK@Core@IronMan@@AEAW41234@@Z ; std::move<enum IronMan::Core::SDK::DecryptFunc &>
PUBLIC	??$_Try_emplace@W4DecryptFunc@SDK@Core@IronMan@@$$V@?$_Hash@V?$_Umap_traits@W4DecryptFunc@SDK@Core@IronMan@@V?$unique_ptr@VUEDecryptBuilder@SDK@Core@IronMan@@U?$default_delete@VUEDecryptBuilder@SDK@Core@IronMan@@@std@@@std@@V?$_Uhash_compare@W4DecryptFunc@SDK@Core@IronMan@@U?$hash@W4DecryptFunc@SDK@Core@IronMan@@@std@@U?$equal_to@W4DecryptFunc@SDK@Core@IronMan@@@6@@6@V?$allocator@U?$pair@$$CBW4DecryptFunc@SDK@Core@IronMan@@V?$unique_ptr@VUEDecryptBuilder@SDK@Core@IronMan@@U?$default_delete@VUEDecryptBuilder@SDK@Core@IronMan@@@std@@@std@@@std@@@6@$0A@@std@@@std@@IEAA?AU?$pair@PEAU?$_List_node@U?$pair@$$CBW4DecryptFunc@SDK@Core@IronMan@@V?$unique_ptr@VUEDecryptBuilder@SDK@Core@IronMan@@U?$default_delete@VUEDecryptBuilder@SDK@Core@IronMan@@@std@@@std@@@std@@PEAX@std@@_N@1@$$QEAW4DecryptFunc@SDK@Core@IronMan@@@Z ; std::_Hash<std::_Umap_traits<enum IronMan::Core::SDK::DecryptFunc,std::unique_ptr<IronMan::Core::SDK::UEDecryptBuilder,std::default_delete<IronMan::Core::SDK::UEDecryptBuilder> >,std::_Uhash_compare<enum IronMan::Core::SDK::DecryptFunc,std::hash<enum IronMan::Core::SDK::DecryptFunc>,std::equal_to<enum IronMan::Core::SDK::DecryptFunc> >,std::allocator<std::pair<enum IronMan::Core::SDK::DecryptFunc const ,std::unique_ptr<IronMan::Core::SDK::UEDecryptBuilder,std::default_delete<IronMan::Core::SDK::UEDecryptBuilder> > > >,0> >::_Try_emplace<enum IronMan::Core::SDK::DecryptFunc>
PUBLIC	??1?$pair@$$CBW4DecryptFunc@SDK@Core@IronMan@@V?$unique_ptr@VUEDecryptBuilder@SDK@Core@IronMan@@U?$default_delete@VUEDecryptBuilder@SDK@Core@IronMan@@@std@@@std@@@std@@QEAA@XZ ; std::pair<enum IronMan::Core::SDK::DecryptFunc const ,std::unique_ptr<IronMan::Core::SDK::UEDecryptBuilder,std::default_delete<IronMan::Core::SDK::UEDecryptBuilder> > >::~pair<enum IronMan::Core::SDK::DecryptFunc const ,std::unique_ptr<IronMan::Core::SDK::UEDecryptBuilder,std::default_delete<IronMan::Core::SDK::UEDecryptBuilder> > >
PUBLIC	??_G?$pair@$$CBW4DecryptFunc@SDK@Core@IronMan@@V?$unique_ptr@VUEDecryptBuilder@SDK@Core@IronMan@@U?$default_delete@VUEDecryptBuilder@SDK@Core@IronMan@@@std@@@std@@@std@@QEAAPEAXI@Z ; std::pair<enum IronMan::Core::SDK::DecryptFunc const ,std::unique_ptr<IronMan::Core::SDK::UEDecryptBuilder,std::default_delete<IronMan::Core::SDK::UEDecryptBuilder> > >::`scalar deleting destructor'
PUBLIC	??$_Destroy_range@V?$allocator@_K@std@@@std@@YAXPEA_KQEA_KAEAV?$allocator@_K@0@@Z ; std::_Destroy_range<std::allocator<unsigned __int64> >
PUBLIC	??0?$_List_unchecked_const_iterator@V?$_List_val@U?$_List_simple_types@U?$pair@$$CB_KH@std@@@std@@@std@@U_Iterator_base0@2@@std@@QEAA@PEAU?$_List_node@U?$pair@$$CB_KH@std@@PEAX@1@PEBV?$_List_val@U?$_List_simple_types@U?$pair@$$CB_KH@std@@@std@@@1@@Z ; std::_List_unchecked_const_iterator<std::_List_val<std::_List_simple_types<std::pair<unsigned __int64 const ,int> > >,std::_Iterator_base0>::_List_unchecked_const_iterator<std::_List_val<std::_List_simple_types<std::pair<unsigned __int64 const ,int> > >,std::_Iterator_base0>
PUBLIC	??0?$_List_unchecked_iterator@V?$_List_val@U?$_List_simple_types@U?$pair@$$CB_KH@std@@@std@@@std@@@std@@QEAA@PEAU?$_List_node@U?$pair@$$CB_KH@std@@PEAX@1@PEBV?$_List_val@U?$_List_simple_types@U?$pair@$$CB_KH@std@@@std@@@1@@Z ; std::_List_unchecked_iterator<std::_List_val<std::_List_simple_types<std::pair<unsigned __int64 const ,int> > > >::_List_unchecked_iterator<std::_List_val<std::_List_simple_types<std::pair<unsigned __int64 const ,int> > > >
PUBLIC	??$_Destroy_range@PEAV?$_List_unchecked_iterator@V?$_List_val@U?$_List_simple_types@U?$pair@$$CB_KH@std@@@std@@@std@@@std@@PEAV12@@std@@YAXPEAV?$_List_unchecked_iterator@V?$_List_val@U?$_List_simple_types@U?$pair@$$CB_KH@std@@@std@@@std@@@0@QEAV10@@Z ; std::_Destroy_range<std::_List_unchecked_iterator<std::_List_val<std::_List_simple_types<std::pair<unsigned __int64 const ,int> > > > *,std::_List_unchecked_iterator<std::_List_val<std::_List_simple_types<std::pair<unsigned __int64 const ,int> > > > *>
PUBLIC	??$?0AEBV?$allocator@U?$pair@$$CB_KH@std@@@std@@$0A@@?$_Hash_vec@V?$allocator@V?$_List_unchecked_iterator@V?$_List_val@U?$_List_simple_types@U?$pair@$$CB_KH@std@@@std@@@std@@@std@@@std@@@std@@QEAA@AEBV?$allocator@U?$pair@$$CB_KH@std@@@1@@Z ; std::_Hash_vec<std::allocator<std::_List_unchecked_iterator<std::_List_val<std::_List_simple_types<std::pair<unsigned __int64 const ,int> > > > > >::_Hash_vec<std::allocator<std::_List_unchecked_iterator<std::_List_val<std::_List_simple_types<std::pair<unsigned __int64 const ,int> > > > > ><std::allocator<std::pair<unsigned __int64 const ,int> > const &,0>
PUBLIC	??$_Free_non_head@V?$allocator@U?$_List_node@U?$pair@$$CB_KH@std@@PEAX@std@@@std@@@?$_List_node@U?$pair@$$CB_KH@std@@PEAX@std@@SAXAEAV?$allocator@U?$_List_node@U?$pair@$$CB_KH@std@@PEAX@std@@@1@PEAU01@@Z ; std::_List_node<std::pair<unsigned __int64 const ,int>,void *>::_Free_non_head<std::allocator<std::_List_node<std::pair<unsigned __int64 const ,int>,void *> > >
PUBLIC	??$_Freenode0@V?$allocator@U?$_List_node@U?$pair@$$CB_KH@std@@PEAX@std@@@std@@@?$_List_node@U?$pair@$$CB_KH@std@@PEAX@std@@SAXAEAV?$allocator@U?$_List_node@U?$pair@$$CB_KH@std@@PEAX@std@@@1@PEAU01@@Z ; std::_List_node<std::pair<unsigned __int64 const ,int>,void *>::_Freenode0<std::allocator<std::_List_node<std::pair<unsigned __int64 const ,int>,void *> > >
PUBLIC	??$_Destroy_range@V?$allocator@UStringA@SDK@Core@IronMan@@@std@@@std@@YAXPEAUStringA@SDK@Core@IronMan@@QEAU1234@AEAV?$allocator@UStringA@SDK@Core@IronMan@@@0@@Z ; std::_Destroy_range<std::allocator<IronMan::Core::SDK::StringA> >
PUBLIC	??$?0U_Zero_then_variadic_args_t@std@@M@?$_Compressed_pair@U?$hash@_K@std@@V?$_Compressed_pair@U?$equal_to@_K@std@@M$00@2@$00@std@@QEAA@U_Zero_then_variadic_args_t@1@$$QEAU21@$$QEAM@Z ; std::_Compressed_pair<std::hash<unsigned __int64>,std::_Compressed_pair<std::equal_to<unsigned __int64>,float,1>,1>::_Compressed_pair<std::hash<unsigned __int64>,std::_Compressed_pair<std::equal_to<unsigned __int64>,float,1>,1><std::_Zero_then_variadic_args_t,float>
PUBLIC	??$?0M@?$_Compressed_pair@U?$equal_to@_K@std@@M$00@std@@QEAA@U_Zero_then_variadic_args_t@1@$$QEAM@Z ; std::_Compressed_pair<std::equal_to<unsigned __int64>,float,1>::_Compressed_pair<std::equal_to<unsigned __int64>,float,1><float>
PUBLIC	??$_Deallocate@$0BA@@std@@YAXPEAX_K@Z		; std::_Deallocate<16>
PUBLIC	??$uninitialized_fill@PEAV?$_List_unchecked_iterator@V?$_List_val@U?$_List_simple_types@U?$pair@$$CB_KH@std@@@std@@@std@@@std@@V12@@std@@YAXQEAV?$_List_unchecked_iterator@V?$_List_val@U?$_List_simple_types@U?$pair@$$CB_KH@std@@@std@@@std@@@0@0AEBV10@@Z ; std::uninitialized_fill<std::_List_unchecked_iterator<std::_List_val<std::_List_simple_types<std::pair<unsigned __int64 const ,int> > > > *,std::_List_unchecked_iterator<std::_List_val<std::_List_simple_types<std::pair<unsigned __int64 const ,int> > > > >
PUBLIC	??$fill@PEAV?$_List_unchecked_iterator@V?$_List_val@U?$_List_simple_types@U?$pair@$$CB_KH@std@@@std@@@std@@@std@@V12@@std@@YAXQEAV?$_List_unchecked_iterator@V?$_List_val@U?$_List_simple_types@U?$pair@$$CB_KH@std@@@std@@@std@@@0@0AEBV10@@Z ; std::fill<std::_List_unchecked_iterator<std::_List_val<std::_List_simple_types<std::pair<unsigned __int64 const ,int> > > > *,std::_List_unchecked_iterator<std::_List_val<std::_List_simple_types<std::pair<unsigned __int64 const ,int> > > > >
PUBLIC	??$?0AEBV?$allocator@U?$pair@$$CB_KH@std@@@std@@$$V@?$_Compressed_pair@V?$allocator@U?$_List_node@U?$pair@$$CB_KH@std@@PEAX@std@@@std@@V?$_List_val@U?$_List_simple_types@U?$pair@$$CB_KH@std@@@std@@@2@$00@std@@QEAA@U_One_then_variadic_args_t@1@AEBV?$allocator@U?$pair@$$CB_KH@std@@@1@@Z ; std::_Compressed_pair<std::allocator<std::_List_node<std::pair<unsigned __int64 const ,int>,void *> >,std::_List_val<std::_List_simple_types<std::pair<unsigned __int64 const ,int> > >,1>::_Compressed_pair<std::allocator<std::_List_node<std::pair<unsigned __int64 const ,int>,void *> >,std::_List_val<std::_List_simple_types<std::pair<unsigned __int64 const ,int> > >,1><std::allocator<std::pair<unsigned __int64 const ,int> > const &>
PUBLIC	??$?0U?$pair@$$CB_KH@std@@@?$allocator@U?$_List_node@U?$pair@$$CB_KH@std@@PEAX@std@@@std@@QEAA@AEBV?$allocator@U?$pair@$$CB_KH@std@@@1@@Z ; std::allocator<std::_List_node<std::pair<unsigned __int64 const ,int>,void *> >::allocator<std::_List_node<std::pair<unsigned __int64 const ,int>,void *> ><std::pair<unsigned __int64 const ,int> >
PUBLIC	??$_Allocate@$0BA@U_Default_allocate_traits@std@@@std@@YAPEAX_K@Z ; std::_Allocate<16,std::_Default_allocate_traits>
PUBLIC	??$_Construct_in_place@PEADAEBQEAD@std@@YAXAEAPEADAEBQEAD@Z ; std::_Construct_in_place<char *,char * const &>
PUBLIC	??$_Destroy_in_place@PEAD@std@@YAXAEAPEAD@Z	; std::_Destroy_in_place<char *>
PUBLIC	??$_Get_size_of_n@$07@std@@YA_K_K@Z		; std::_Get_size_of_n<8>
PUBLIC	??$_Construct_in_place@PEAU?$_List_node@U?$pair@$$CB_KH@std@@PEAX@std@@AEAPEAU12@@std@@YAXAEAPEAU?$_List_node@U?$pair@$$CB_KH@std@@PEAX@0@0@Z ; std::_Construct_in_place<std::_List_node<std::pair<unsigned __int64 const ,int>,void *> *,std::_List_node<std::pair<unsigned __int64 const ,int>,void *> * &>
PUBLIC	??$_Get_size_of_n@$0CA@@std@@YA_K_K@Z		; std::_Get_size_of_n<32>
PUBLIC	??$move@AEA_K@std@@YA$$QEA_KAEA_K@Z		; std::move<unsigned __int64 &>
PUBLIC	??$_Resize_reallocate@U_Value_init_tag@std@@@?$vector@_KV?$allocator@_K@std@@@std@@AEAAX_KAEBU_Value_init_tag@1@@Z ; std::vector<unsigned __int64,std::allocator<unsigned __int64> >::_Resize_reallocate<std::_Value_init_tag>
PUBLIC	??$_Uninitialized_value_construct_n@V?$allocator@_K@std@@@std@@YAPEA_KPEA_K_KAEAV?$allocator@_K@0@@Z ; std::_Uninitialized_value_construct_n<std::allocator<unsigned __int64> >
PUBLIC	??$_Resize_reallocate@U_Value_init_tag@std@@@?$vector@UStringA@SDK@Core@IronMan@@V?$allocator@UStringA@SDK@Core@IronMan@@@std@@@std@@AEAAX_KAEBU_Value_init_tag@1@@Z ; std::vector<IronMan::Core::SDK::StringA,std::allocator<IronMan::Core::SDK::StringA> >::_Resize_reallocate<std::_Value_init_tag>
PUBLIC	??$_Uninitialized_value_construct_n@V?$allocator@UStringA@SDK@Core@IronMan@@@std@@@std@@YAPEAUStringA@SDK@Core@IronMan@@PEAU1234@_KAEAV?$allocator@UStringA@SDK@Core@IronMan@@@0@@Z ; std::_Uninitialized_value_construct_n<std::allocator<IronMan::Core::SDK::StringA> >
PUBLIC	??$forward_as_tuple@$$V@std@@YA?AV?$tuple@$$V@0@XZ ; std::forward_as_tuple<>
PUBLIC	??$_Allocate_for_capacity@$0A@@?$basic_string@DU?$char_traits@D@std@@V?$allocator@D@2@@std@@CAPEADAEAV?$allocator@D@1@AEA_K@Z ; std::basic_string<char,std::char_traits<char>,std::allocator<char> >::_Allocate_for_capacity<0>
PUBLIC	??$?RW4DecryptFunc@SDK@Core@IronMan@@@?$_Uhash_compare@W4DecryptFunc@SDK@Core@IronMan@@U?$hash@W4DecryptFunc@SDK@Core@IronMan@@@std@@U?$equal_to@W4DecryptFunc@SDK@Core@IronMan@@@6@@std@@QEBA_KAEBW4DecryptFunc@SDK@Core@IronMan@@@Z ; std::_Uhash_compare<enum IronMan::Core::SDK::DecryptFunc,std::hash<enum IronMan::Core::SDK::DecryptFunc>,std::equal_to<enum IronMan::Core::SDK::DecryptFunc> >::operator()<enum IronMan::Core::SDK::DecryptFunc>
PUBLIC	??$_Find_last@W4DecryptFunc@SDK@Core@IronMan@@@?$_Hash@V?$_Umap_traits@W4DecryptFunc@SDK@Core@IronMan@@V?$unique_ptr@VUEDecryptBuilder@SDK@Core@IronMan@@U?$default_delete@VUEDecryptBuilder@SDK@Core@IronMan@@@std@@@std@@V?$_Uhash_compare@W4DecryptFunc@SDK@Core@IronMan@@U?$hash@W4DecryptFunc@SDK@Core@IronMan@@@std@@U?$equal_to@W4DecryptFunc@SDK@Core@IronMan@@@6@@6@V?$allocator@U?$pair@$$CBW4DecryptFunc@SDK@Core@IronMan@@V?$unique_ptr@VUEDecryptBuilder@SDK@Core@IronMan@@U?$default_delete@VUEDecryptBuilder@SDK@Core@IronMan@@@std@@@std@@@std@@@6@$0A@@std@@@std@@IEBA?AU?$_Hash_find_last_result@PEAU?$_List_node@U?$pair@$$CBW4DecryptFunc@SDK@Core@IronMan@@V?$unique_ptr@VUEDecryptBuilder@SDK@Core@IronMan@@U?$default_delete@VUEDecryptBuilder@SDK@Core@IronMan@@@std@@@std@@@std@@PEAX@std@@@1@AEBW4DecryptFunc@SDK@Core@IronMan@@_K@Z ; std::_Hash<std::_Umap_traits<enum IronMan::Core::SDK::DecryptFunc,std::unique_ptr<IronMan::Core::SDK::UEDecryptBuilder,std::default_delete<IronMan::Core::SDK::UEDecryptBuilder> >,std::_Uhash_compare<enum IronMan::Core::SDK::DecryptFunc,std::hash<enum IronMan::Core::SDK::DecryptFunc>,std::equal_to<enum IronMan::Core::SDK::DecryptFunc> >,std::allocator<std::pair<enum IronMan::Core::SDK::DecryptFunc const ,std::unique_ptr<IronMan::Core::SDK::UEDecryptBuilder,std::default_delete<IronMan::Core::SDK::UEDecryptBuilder> > > >,0> >::_Find_last<enum IronMan::Core::SDK::DecryptFunc>
PUBLIC	??$?0AEAPEAU?$_List_node@U?$pair@$$CBW4DecryptFunc@SDK@Core@IronMan@@V?$unique_ptr@VUEDecryptBuilder@SDK@Core@IronMan@@U?$default_delete@VUEDecryptBuilder@SDK@Core@IronMan@@@std@@@std@@@std@@PEAX@std@@_N$0A@@?$pair@PEAU?$_List_node@U?$pair@$$CBW4DecryptFunc@SDK@Core@IronMan@@V?$unique_ptr@VUEDecryptBuilder@SDK@Core@IronMan@@U?$default_delete@VUEDecryptBuilder@SDK@Core@IronMan@@@std@@@std@@@std@@PEAX@std@@_N@std@@QEAA@AEAPEAU?$_List_node@U?$pair@$$CBW4DecryptFunc@SDK@Core@IronMan@@V?$unique_ptr@VUEDecryptBuilder@SDK@Core@IronMan@@U?$default_delete@VUEDecryptBuilder@SDK@Core@IronMan@@@std@@@std@@@std@@PEAX@1@$$QEA_N@Z ; std::pair<std::_List_node<std::pair<enum IronMan::Core::SDK::DecryptFunc const ,std::unique_ptr<IronMan::Core::SDK::UEDecryptBuilder,std::default_delete<IronMan::Core::SDK::UEDecryptBuilder> > >,void *> *,bool>::pair<std::_List_node<std::pair<enum IronMan::Core::SDK::DecryptFunc const ,std::unique_ptr<IronMan::Core::SDK::UEDecryptBuilder,std::default_delete<IronMan::Core::SDK::UEDecryptBuilder> > >,void *> *,bool><std::_List_node<std::pair<enum IronMan::Core::SDK::DecryptFunc const ,std::unique_ptr<IronMan::Core::SDK::UEDecryptBuilder,std::default_delete<IronMan::Core::SDK::UEDecryptBuilder> > >,void *> * &,bool,0>
PUBLIC	??$forward@W4DecryptFunc@SDK@Core@IronMan@@@std@@YA$$QEAW4DecryptFunc@SDK@Core@IronMan@@AEAW41234@@Z ; std::forward<enum IronMan::Core::SDK::DecryptFunc>
PUBLIC	??$forward_as_tuple@W4DecryptFunc@SDK@Core@IronMan@@@std@@YA?AV?$tuple@$$QEAW4DecryptFunc@SDK@Core@IronMan@@@0@$$QEAW4DecryptFunc@SDK@Core@IronMan@@@Z ; std::forward_as_tuple<enum IronMan::Core::SDK::DecryptFunc>
PUBLIC	??0?$tuple@$$QEAW4DecryptFunc@SDK@Core@IronMan@@@std@@QEAA@$$QEAV01@@Z ; std::tuple<enum IronMan::Core::SDK::DecryptFunc &&>::tuple<enum IronMan::Core::SDK::DecryptFunc &&>
PUBLIC	??0?$_Alloc_construct_ptr@V?$allocator@U?$_List_node@U?$pair@$$CBW4DecryptFunc@SDK@Core@IronMan@@V?$unique_ptr@VUEDecryptBuilder@SDK@Core@IronMan@@U?$default_delete@VUEDecryptBuilder@SDK@Core@IronMan@@@std@@@std@@@std@@PEAX@std@@@std@@@std@@QEAA@AEAV?$allocator@U?$_List_node@U?$pair@$$CBW4DecryptFunc@SDK@Core@IronMan@@V?$unique_ptr@VUEDecryptBuilder@SDK@Core@IronMan@@U?$default_delete@VUEDecryptBuilder@SDK@Core@IronMan@@@std@@@std@@@std@@PEAX@std@@@1@@Z ; std::_Alloc_construct_ptr<std::allocator<std::_List_node<std::pair<enum IronMan::Core::SDK::DecryptFunc const ,std::unique_ptr<IronMan::Core::SDK::UEDecryptBuilder,std::default_delete<IronMan::Core::SDK::UEDecryptBuilder> > >,void *> > >::_Alloc_construct_ptr<std::allocator<std::_List_node<std::pair<enum IronMan::Core::SDK::DecryptFunc const ,std::unique_ptr<IronMan::Core::SDK::UEDecryptBuilder,std::default_delete<IronMan::Core::SDK::UEDecryptBuilder> > >,void *> > >
PUBLIC	?_Release@?$_Alloc_construct_ptr@V?$allocator@U?$_List_node@U?$pair@$$CBW4DecryptFunc@SDK@Core@IronMan@@V?$unique_ptr@VUEDecryptBuilder@SDK@Core@IronMan@@U?$default_delete@VUEDecryptBuilder@SDK@Core@IronMan@@@std@@@std@@@std@@PEAX@std@@@std@@@std@@QEAAPEAU?$_List_node@U?$pair@$$CBW4DecryptFunc@SDK@Core@IronMan@@V?$unique_ptr@VUEDecryptBuilder@SDK@Core@IronMan@@U?$default_delete@VUEDecryptBuilder@SDK@Core@IronMan@@@std@@@std@@@std@@PEAX@2@XZ ; std::_Alloc_construct_ptr<std::allocator<std::_List_node<std::pair<enum IronMan::Core::SDK::DecryptFunc const ,std::unique_ptr<IronMan::Core::SDK::UEDecryptBuilder,std::default_delete<IronMan::Core::SDK::UEDecryptBuilder> > >,void *> > >::_Release
PUBLIC	?_Allocate@?$_Alloc_construct_ptr@V?$allocator@U?$_List_node@U?$pair@$$CBW4DecryptFunc@SDK@Core@IronMan@@V?$unique_ptr@VUEDecryptBuilder@SDK@Core@IronMan@@U?$default_delete@VUEDecryptBuilder@SDK@Core@IronMan@@@std@@@std@@@std@@PEAX@std@@@std@@@std@@QEAAXXZ ; std::_Alloc_construct_ptr<std::allocator<std::_List_node<std::pair<enum IronMan::Core::SDK::DecryptFunc const ,std::unique_ptr<IronMan::Core::SDK::UEDecryptBuilder,std::default_delete<IronMan::Core::SDK::UEDecryptBuilder> > >,void *> > >::_Allocate
PUBLIC	??1?$_Alloc_construct_ptr@V?$allocator@U?$_List_node@U?$pair@$$CBW4DecryptFunc@SDK@Core@IronMan@@V?$unique_ptr@VUEDecryptBuilder@SDK@Core@IronMan@@U?$default_delete@VUEDecryptBuilder@SDK@Core@IronMan@@@std@@@std@@@std@@PEAX@std@@@std@@@std@@QEAA@XZ ; std::_Alloc_construct_ptr<std::allocator<std::_List_node<std::pair<enum IronMan::Core::SDK::DecryptFunc const ,std::unique_ptr<IronMan::Core::SDK::UEDecryptBuilder,std::default_delete<IronMan::Core::SDK::UEDecryptBuilder> > >,void *> > >::~_Alloc_construct_ptr<std::allocator<std::_List_node<std::pair<enum IronMan::Core::SDK::DecryptFunc const ,std::unique_ptr<IronMan::Core::SDK::UEDecryptBuilder,std::default_delete<IronMan::Core::SDK::UEDecryptBuilder> > >,void *> > >
PUBLIC	??1?$_List_node_emplace_op2@V?$allocator@U?$_List_node@U?$pair@$$CBW4DecryptFunc@SDK@Core@IronMan@@V?$unique_ptr@VUEDecryptBuilder@SDK@Core@IronMan@@U?$default_delete@VUEDecryptBuilder@SDK@Core@IronMan@@@std@@@std@@@std@@PEAX@std@@@std@@@std@@QEAA@XZ ; std::_List_node_emplace_op2<std::allocator<std::_List_node<std::pair<enum IronMan::Core::SDK::DecryptFunc const ,std::unique_ptr<IronMan::Core::SDK::UEDecryptBuilder,std::default_delete<IronMan::Core::SDK::UEDecryptBuilder> > >,void *> > >::~_List_node_emplace_op2<std::allocator<std::_List_node<std::pair<enum IronMan::Core::SDK::DecryptFunc const ,std::unique_ptr<IronMan::Core::SDK::UEDecryptBuilder,std::default_delete<IronMan::Core::SDK::UEDecryptBuilder> > >,void *> > >
PUBLIC	??$?0AEBUpiecewise_construct_t@std@@V?$tuple@$$QEAW4DecryptFunc@SDK@Core@IronMan@@@1@V?$tuple@$$V@1@@?$_List_node_emplace_op2@V?$allocator@U?$_List_node@U?$pair@$$CBW4DecryptFunc@SDK@Core@IronMan@@V?$unique_ptr@VUEDecryptBuilder@SDK@Core@IronMan@@U?$default_delete@VUEDecryptBuilder@SDK@Core@IronMan@@@std@@@std@@@std@@PEAX@std@@@std@@@std@@QEAA@AEAV?$allocator@U?$_List_node@U?$pair@$$CBW4DecryptFunc@SDK@Core@IronMan@@V?$unique_ptr@VUEDecryptBuilder@SDK@Core@IronMan@@U?$default_delete@VUEDecryptBuilder@SDK@Core@IronMan@@@std@@@std@@@std@@PEAX@std@@@1@AEBUpiecewise_construct_t@1@$$QEAV?$tuple@$$QEAW4DecryptFunc@SDK@Core@IronMan@@@1@$$QEAV?$tuple@$$V@1@@Z ; std::_List_node_emplace_op2<std::allocator<std::_List_node<std::pair<enum IronMan::Core::SDK::DecryptFunc const ,std::unique_ptr<IronMan::Core::SDK::UEDecryptBuilder,std::default_delete<IronMan::Core::SDK::UEDecryptBuilder> > >,void *> > >::_List_node_emplace_op2<std::allocator<std::_List_node<std::pair<enum IronMan::Core::SDK::DecryptFunc const ,std::unique_ptr<IronMan::Core::SDK::UEDecryptBuilder,std::default_delete<IronMan::Core::SDK::UEDecryptBuilder> > >,void *> > ><std::piecewise_construct_t const &,std::tuple<enum IronMan::Core::SDK::DecryptFunc &&>,std::tuple<> >
PUBLIC	??$_Kfn@$$CBW4DecryptFunc@SDK@Core@IronMan@@V?$unique_ptr@VUEDecryptBuilder@SDK@Core@IronMan@@U?$default_delete@VUEDecryptBuilder@SDK@Core@IronMan@@@std@@@std@@@?$_Umap_traits@W4DecryptFunc@SDK@Core@IronMan@@V?$unique_ptr@VUEDecryptBuilder@SDK@Core@IronMan@@U?$default_delete@VUEDecryptBuilder@SDK@Core@IronMan@@@std@@@std@@V?$_Uhash_compare@W4DecryptFunc@SDK@Core@IronMan@@U?$hash@W4DecryptFunc@SDK@Core@IronMan@@@std@@U?$equal_to@W4DecryptFunc@SDK@Core@IronMan@@@6@@6@V?$allocator@U?$pair@$$CBW4DecryptFunc@SDK@Core@IronMan@@V?$unique_ptr@VUEDecryptBuilder@SDK@Core@IronMan@@U?$default_delete@VUEDecryptBuilder@SDK@Core@IronMan@@@std@@@std@@@std@@@6@$0A@@std@@SAAEBW4DecryptFunc@SDK@Core@IronMan@@AEBU?$pair@$$CBW4DecryptFunc@SDK@Core@IronMan@@V?$unique_ptr@VUEDecryptBuilder@SDK@Core@IronMan@@U?$default_delete@VUEDecryptBuilder@SDK@Core@IronMan@@@std@@@std@@@1@@Z ; std::_Umap_traits<enum IronMan::Core::SDK::DecryptFunc,std::unique_ptr<IronMan::Core::SDK::UEDecryptBuilder,std::default_delete<IronMan::Core::SDK::UEDecryptBuilder> >,std::_Uhash_compare<enum IronMan::Core::SDK::DecryptFunc,std::hash<enum IronMan::Core::SDK::DecryptFunc>,std::equal_to<enum IronMan::Core::SDK::DecryptFunc> >,std::allocator<std::pair<enum IronMan::Core::SDK::DecryptFunc const ,std::unique_ptr<IronMan::Core::SDK::UEDecryptBuilder,std::default_delete<IronMan::Core::SDK::UEDecryptBuilder> > > >,0>::_Kfn<enum IronMan::Core::SDK::DecryptFunc const ,std::unique_ptr<IronMan::Core::SDK::UEDecryptBuilder,std::default_delete<IronMan::Core::SDK::UEDecryptBuilder> > >
PUBLIC	??$?0PEAU?$_List_node@U?$pair@$$CBW4DecryptFunc@SDK@Core@IronMan@@V?$unique_ptr@VUEDecryptBuilder@SDK@Core@IronMan@@U?$default_delete@VUEDecryptBuilder@SDK@Core@IronMan@@@std@@@std@@@std@@PEAX@std@@_N$0A@@?$pair@PEAU?$_List_node@U?$pair@$$CBW4DecryptFunc@SDK@Core@IronMan@@V?$unique_ptr@VUEDecryptBuilder@SDK@Core@IronMan@@U?$default_delete@VUEDecryptBuilder@SDK@Core@IronMan@@@std@@@std@@@std@@PEAX@std@@_N@std@@QEAA@$$QEAPEAU?$_List_node@U?$pair@$$CBW4DecryptFunc@SDK@Core@IronMan@@V?$unique_ptr@VUEDecryptBuilder@SDK@Core@IronMan@@U?$default_delete@VUEDecryptBuilder@SDK@Core@IronMan@@@std@@@std@@@std@@PEAX@1@$$QEA_N@Z ; std::pair<std::_List_node<std::pair<enum IronMan::Core::SDK::DecryptFunc const ,std::unique_ptr<IronMan::Core::SDK::UEDecryptBuilder,std::default_delete<IronMan::Core::SDK::UEDecryptBuilder> > >,void *> *,bool>::pair<std::_List_node<std::pair<enum IronMan::Core::SDK::DecryptFunc const ,std::unique_ptr<IronMan::Core::SDK::UEDecryptBuilder,std::default_delete<IronMan::Core::SDK::UEDecryptBuilder> > >,void *> *,bool><std::_List_node<std::pair<enum IronMan::Core::SDK::DecryptFunc const ,std::unique_ptr<IronMan::Core::SDK::UEDecryptBuilder,std::default_delete<IronMan::Core::SDK::UEDecryptBuilder> > >,void *> *,bool,0>
PUBLIC	??$forward@AEBV?$allocator@U?$pair@$$CB_KH@std@@@std@@@std@@YAAEBV?$allocator@U?$pair@$$CB_KH@std@@@0@AEBV10@@Z ; std::forward<std::allocator<std::pair<unsigned __int64 const ,int> > const &>
PUBLIC	??$?0AEBV?$allocator@U?$pair@$$CB_KH@std@@@std@@$$V@?$_Compressed_pair@V?$allocator@V?$_List_unchecked_iterator@V?$_List_val@U?$_List_simple_types@U?$pair@$$CB_KH@std@@@std@@@std@@@std@@@std@@V?$_Vector_val@U?$_Simple_types@V?$_List_unchecked_iterator@V?$_List_val@U?$_List_simple_types@U?$pair@$$CB_KH@std@@@std@@@std@@@std@@@std@@@2@$00@std@@QEAA@U_One_then_variadic_args_t@1@AEBV?$allocator@U?$pair@$$CB_KH@std@@@1@@Z ; std::_Compressed_pair<std::allocator<std::_List_unchecked_iterator<std::_List_val<std::_List_simple_types<std::pair<unsigned __int64 const ,int> > > > >,std::_Vector_val<std::_Simple_types<std::_List_unchecked_iterator<std::_List_val<std::_List_simple_types<std::pair<unsigned __int64 const ,int> > > > > >,1>::_Compressed_pair<std::allocator<std::_List_unchecked_iterator<std::_List_val<std::_List_simple_types<std::pair<unsigned __int64 const ,int> > > > >,std::_Vector_val<std::_Simple_types<std::_List_unchecked_iterator<std::_List_val<std::_List_simple_types<std::pair<unsigned __int64 const ,int> > > > > >,1><std::allocator<std::pair<unsigned __int64 const ,int> > const &>
PUBLIC	??$?0U?$pair@$$CB_KH@std@@@?$allocator@V?$_List_unchecked_iterator@V?$_List_val@U?$_List_simple_types@U?$pair@$$CB_KH@std@@@std@@@std@@@std@@@std@@QEAA@AEBV?$allocator@U?$pair@$$CB_KH@std@@@1@@Z ; std::allocator<std::_List_unchecked_iterator<std::_List_val<std::_List_simple_types<std::pair<unsigned __int64 const ,int> > > > >::allocator<std::_List_unchecked_iterator<std::_List_val<std::_List_simple_types<std::pair<unsigned __int64 const ,int> > > > ><std::pair<unsigned __int64 const ,int> >
PUBLIC	??$_Freenode@V?$allocator@U?$_List_node@U?$pair@$$CB_KH@std@@PEAX@std@@@std@@@?$_List_node@U?$pair@$$CB_KH@std@@PEAX@std@@SAXAEAV?$allocator@U?$_List_node@U?$pair@$$CB_KH@std@@PEAX@std@@@1@PEAU01@@Z ; std::_List_node<std::pair<unsigned __int64 const ,int>,void *>::_Freenode<std::allocator<std::_List_node<std::pair<unsigned __int64 const ,int>,void *> > >
PUBLIC	??$_Destroy_in_place@PEAU?$_List_node@U?$pair@$$CB_KH@std@@PEAX@std@@@std@@YAXAEAPEAU?$_List_node@U?$pair@$$CB_KH@std@@PEAX@0@@Z ; std::_Destroy_in_place<std::_List_node<std::pair<unsigned __int64 const ,int>,void *> *>
PUBLIC	??$forward@U_Zero_then_variadic_args_t@std@@@std@@YA$$QEAU_Zero_then_variadic_args_t@0@AEAU10@@Z ; std::forward<std::_Zero_then_variadic_args_t>
PUBLIC	??$forward@M@std@@YA$$QEAMAEAM@Z		; std::forward<float>
PUBLIC	??$addressof@PEAD@std@@YAPEAPEADAEAPEAD@Z	; std::addressof<char *>
PUBLIC	??$_Adl_verify_range@PEAV?$_List_unchecked_iterator@V?$_List_val@U?$_List_simple_types@U?$pair@$$CB_KH@std@@@std@@@std@@@std@@PEAV12@@std@@YAXAEBQEAV?$_List_unchecked_iterator@V?$_List_val@U?$_List_simple_types@U?$pair@$$CB_KH@std@@@std@@@std@@@0@0@Z ; std::_Adl_verify_range<std::_List_unchecked_iterator<std::_List_val<std::_List_simple_types<std::pair<unsigned __int64 const ,int> > > > *,std::_List_unchecked_iterator<std::_List_val<std::_List_simple_types<std::pair<unsigned __int64 const ,int> > > > *>
PUBLIC	??$_Get_unwrapped@AEBQEAV?$_List_unchecked_iterator@V?$_List_val@U?$_List_simple_types@U?$pair@$$CB_KH@std@@@std@@@std@@@std@@@std@@YA?A_TAEBQEAV?$_List_unchecked_iterator@V?$_List_val@U?$_List_simple_types@U?$pair@$$CB_KH@std@@@std@@@std@@@0@@Z ; std::_Get_unwrapped<std::_List_unchecked_iterator<std::_List_val<std::_List_simple_types<std::pair<unsigned __int64 const ,int> > > > * const &>
PUBLIC	??0?$_Uninitialized_backout@PEAV?$_List_unchecked_iterator@V?$_List_val@U?$_List_simple_types@U?$pair@$$CB_KH@std@@@std@@@std@@@std@@@std@@QEAA@PEAV?$_List_unchecked_iterator@V?$_List_val@U?$_List_simple_types@U?$pair@$$CB_KH@std@@@std@@@std@@@1@@Z ; std::_Uninitialized_backout<std::_List_unchecked_iterator<std::_List_val<std::_List_simple_types<std::pair<unsigned __int64 const ,int> > > > *>::_Uninitialized_backout<std::_List_unchecked_iterator<std::_List_val<std::_List_simple_types<std::pair<unsigned __int64 const ,int> > > > *>
PUBLIC	??1?$_Uninitialized_backout@PEAV?$_List_unchecked_iterator@V?$_List_val@U?$_List_simple_types@U?$pair@$$CB_KH@std@@@std@@@std@@@std@@@std@@QEAA@XZ ; std::_Uninitialized_backout<std::_List_unchecked_iterator<std::_List_val<std::_List_simple_types<std::pair<unsigned __int64 const ,int> > > > *>::~_Uninitialized_backout<std::_List_unchecked_iterator<std::_List_val<std::_List_simple_types<std::pair<unsigned __int64 const ,int> > > > *>
PUBLIC	?_Release@?$_Uninitialized_backout@PEAV?$_List_unchecked_iterator@V?$_List_val@U?$_List_simple_types@U?$pair@$$CB_KH@std@@@std@@@std@@@std@@@std@@QEAAPEAV?$_List_unchecked_iterator@V?$_List_val@U?$_List_simple_types@U?$pair@$$CB_KH@std@@@std@@@std@@@2@XZ ; std::_Uninitialized_backout<std::_List_unchecked_iterator<std::_List_val<std::_List_simple_types<std::pair<unsigned __int64 const ,int> > > > *>::_Release
PUBLIC	??$_Emplace_back@AEBV?$_List_unchecked_iterator@V?$_List_val@U?$_List_simple_types@U?$pair@$$CB_KH@std@@@std@@@std@@@std@@@?$_Uninitialized_backout@PEAV?$_List_unchecked_iterator@V?$_List_val@U?$_List_simple_types@U?$pair@$$CB_KH@std@@@std@@@std@@@std@@@std@@QEAAXAEBV?$_List_unchecked_iterator@V?$_List_val@U?$_List_simple_types@U?$pair@$$CB_KH@std@@@std@@@std@@@1@@Z ; std::_Uninitialized_backout<std::_List_unchecked_iterator<std::_List_val<std::_List_simple_types<std::pair<unsigned __int64 const ,int> > > > *>::_Emplace_back<std::_List_unchecked_iterator<std::_List_val<std::_List_simple_types<std::pair<unsigned __int64 const ,int> > > > const &>
PUBLIC	??$_Allocate_manually_vector_aligned@U_Default_allocate_traits@std@@@std@@YAPEAX_K@Z ; std::_Allocate_manually_vector_aligned<std::_Default_allocate_traits>
PUBLIC	??$forward@AEBQEAD@std@@YAAEBQEADAEBQEAD@Z	; std::forward<char * const &>
PUBLIC	??$addressof@PEAU?$_List_node@U?$pair@$$CB_KH@std@@PEAX@std@@@std@@YAPEAPEAU?$_List_node@U?$pair@$$CB_KH@std@@PEAX@0@AEAPEAU10@@Z ; std::addressof<std::_List_node<std::pair<unsigned __int64 const ,int>,void *> *>
PUBLIC	??$forward@AEAPEAU?$_List_node@U?$pair@$$CB_KH@std@@PEAX@std@@@std@@YAAEAPEAU?$_List_node@U?$pair@$$CB_KH@std@@PEAX@0@AEAPEAU10@@Z ; std::forward<std::_List_node<std::pair<unsigned __int64 const ,int>,void *> * &>
PUBLIC	??$addressof@U?$pair@$$CBW4DecryptFunc@SDK@Core@IronMan@@V?$unique_ptr@VUEDecryptBuilder@SDK@Core@IronMan@@U?$default_delete@VUEDecryptBuilder@SDK@Core@IronMan@@@std@@@std@@@std@@@std@@YAPEAU?$pair@$$CBW4DecryptFunc@SDK@Core@IronMan@@V?$unique_ptr@VUEDecryptBuilder@SDK@Core@IronMan@@U?$default_delete@VUEDecryptBuilder@SDK@Core@IronMan@@@std@@@std@@@0@AEAU10@@Z ; std::addressof<std::pair<enum IronMan::Core::SDK::DecryptFunc const ,std::unique_ptr<IronMan::Core::SDK::UEDecryptBuilder,std::default_delete<IronMan::Core::SDK::UEDecryptBuilder> > > >
PUBLIC	??$destroy@U?$pair@$$CBW4DecryptFunc@SDK@Core@IronMan@@V?$unique_ptr@VUEDecryptBuilder@SDK@Core@IronMan@@U?$default_delete@VUEDecryptBuilder@SDK@Core@IronMan@@@std@@@std@@@std@@@?$_Default_allocator_traits@V?$allocator@U?$_List_node@U?$pair@$$CBW4DecryptFunc@SDK@Core@IronMan@@V?$unique_ptr@VUEDecryptBuilder@SDK@Core@IronMan@@U?$default_delete@VUEDecryptBuilder@SDK@Core@IronMan@@@std@@@std@@@std@@PEAX@std@@@std@@@std@@SAXAEAV?$allocator@U?$_List_node@U?$pair@$$CBW4DecryptFunc@SDK@Core@IronMan@@V?$unique_ptr@VUEDecryptBuilder@SDK@Core@IronMan@@U?$default_delete@VUEDecryptBuilder@SDK@Core@IronMan@@@std@@@std@@@std@@PEAX@std@@@1@QEAU?$pair@$$CBW4DecryptFunc@SDK@Core@IronMan@@V?$unique_ptr@VUEDecryptBuilder@SDK@Core@IronMan@@U?$default_delete@VUEDecryptBuilder@SDK@Core@IronMan@@@std@@@std@@@1@@Z ; std::_Default_allocator_traits<std::allocator<std::_List_node<std::pair<enum IronMan::Core::SDK::DecryptFunc const ,std::unique_ptr<IronMan::Core::SDK::UEDecryptBuilder,std::default_delete<IronMan::Core::SDK::UEDecryptBuilder> > >,void *> > >::destroy<std::pair<enum IronMan::Core::SDK::DecryptFunc const ,std::unique_ptr<IronMan::Core::SDK::UEDecryptBuilder,std::default_delete<IronMan::Core::SDK::UEDecryptBuilder> > > >
PUBLIC	??$exchange@PEAU?$_List_node@U?$pair@$$CBW4DecryptFunc@SDK@Core@IronMan@@V?$unique_ptr@VUEDecryptBuilder@SDK@Core@IronMan@@U?$default_delete@VUEDecryptBuilder@SDK@Core@IronMan@@@std@@@std@@@std@@PEAX@std@@$$T@std@@YAPEAU?$_List_node@U?$pair@$$CBW4DecryptFunc@SDK@Core@IronMan@@V?$unique_ptr@VUEDecryptBuilder@SDK@Core@IronMan@@U?$default_delete@VUEDecryptBuilder@SDK@Core@IronMan@@@std@@@std@@@std@@PEAX@0@AEAPEAU10@$$QEA$$T@Z ; std::exchange<std::_List_node<std::pair<enum IronMan::Core::SDK::DecryptFunc const ,std::unique_ptr<IronMan::Core::SDK::UEDecryptBuilder,std::default_delete<IronMan::Core::SDK::UEDecryptBuilder> > >,void *> *,std::nullptr_t>
PUBLIC	??$_Construct_in_place@PEAU?$_List_node@U?$pair@$$CBW4DecryptFunc@SDK@Core@IronMan@@V?$unique_ptr@VUEDecryptBuilder@SDK@Core@IronMan@@U?$default_delete@VUEDecryptBuilder@SDK@Core@IronMan@@@std@@@std@@@std@@PEAX@std@@AEBQEAU12@@std@@YAXAEAPEAU?$_List_node@U?$pair@$$CBW4DecryptFunc@SDK@Core@IronMan@@V?$unique_ptr@VUEDecryptBuilder@SDK@Core@IronMan@@U?$default_delete@VUEDecryptBuilder@SDK@Core@IronMan@@@std@@@std@@@std@@PEAX@0@AEBQEAU10@@Z ; std::_Construct_in_place<std::_List_node<std::pair<enum IronMan::Core::SDK::DecryptFunc const ,std::unique_ptr<IronMan::Core::SDK::UEDecryptBuilder,std::default_delete<IronMan::Core::SDK::UEDecryptBuilder> > >,void *> *,std::_List_node<std::pair<enum IronMan::Core::SDK::DecryptFunc const ,std::unique_ptr<IronMan::Core::SDK::UEDecryptBuilder,std::default_delete<IronMan::Core::SDK::UEDecryptBuilder> > >,void *> * const &>
PUBLIC	??0?$_List_unchecked_const_iterator@V?$_List_val@U?$_List_simple_types@U?$pair@$$CBW4DecryptFunc@SDK@Core@IronMan@@V?$unique_ptr@VUEDecryptBuilder@SDK@Core@IronMan@@U?$default_delete@VUEDecryptBuilder@SDK@Core@IronMan@@@std@@@std@@@std@@@std@@@std@@U_Iterator_base0@2@@std@@QEAA@PEAU?$_List_node@U?$pair@$$CBW4DecryptFunc@SDK@Core@IronMan@@V?$unique_ptr@VUEDecryptBuilder@SDK@Core@IronMan@@U?$default_delete@VUEDecryptBuilder@SDK@Core@IronMan@@@std@@@std@@@std@@PEAX@1@PEBV?$_List_val@U?$_List_simple_types@U?$pair@$$CBW4DecryptFunc@SDK@Core@IronMan@@V?$unique_ptr@VUEDecryptBuilder@SDK@Core@IronMan@@U?$default_delete@VUEDecryptBuilder@SDK@Core@IronMan@@@std@@@std@@@std@@@std@@@1@@Z ; std::_List_unchecked_const_iterator<std::_List_val<std::_List_simple_types<std::pair<enum IronMan::Core::SDK::DecryptFunc const ,std::unique_ptr<IronMan::Core::SDK::UEDecryptBuilder,std::default_delete<IronMan::Core::SDK::UEDecryptBuilder> > > > >,std::_Iterator_base0>::_List_unchecked_const_iterator<std::_List_val<std::_List_simple_types<std::pair<enum IronMan::Core::SDK::DecryptFunc const ,std::unique_ptr<IronMan::Core::SDK::UEDecryptBuilder,std::default_delete<IronMan::Core::SDK::UEDecryptBuilder> > > > >,std::_Iterator_base0>
PUBLIC	??D?$_List_unchecked_const_iterator@V?$_List_val@U?$_List_simple_types@U?$pair@$$CBW4DecryptFunc@SDK@Core@IronMan@@V?$unique_ptr@VUEDecryptBuilder@SDK@Core@IronMan@@U?$default_delete@VUEDecryptBuilder@SDK@Core@IronMan@@@std@@@std@@@std@@@std@@@std@@U_Iterator_base0@2@@std@@QEBAAEBU?$pair@$$CBW4DecryptFunc@SDK@Core@IronMan@@V?$unique_ptr@VUEDecryptBuilder@SDK@Core@IronMan@@U?$default_delete@VUEDecryptBuilder@SDK@Core@IronMan@@@std@@@std@@@1@XZ ; std::_List_unchecked_const_iterator<std::_List_val<std::_List_simple_types<std::pair<enum IronMan::Core::SDK::DecryptFunc const ,std::unique_ptr<IronMan::Core::SDK::UEDecryptBuilder,std::default_delete<IronMan::Core::SDK::UEDecryptBuilder> > > > >,std::_Iterator_base0>::operator*
PUBLIC	??E?$_List_unchecked_const_iterator@V?$_List_val@U?$_List_simple_types@U?$pair@$$CBW4DecryptFunc@SDK@Core@IronMan@@V?$unique_ptr@VUEDecryptBuilder@SDK@Core@IronMan@@U?$default_delete@VUEDecryptBuilder@SDK@Core@IronMan@@@std@@@std@@@std@@@std@@@std@@U_Iterator_base0@2@@std@@QEAAAEAV01@XZ ; std::_List_unchecked_const_iterator<std::_List_val<std::_List_simple_types<std::pair<enum IronMan::Core::SDK::DecryptFunc const ,std::unique_ptr<IronMan::Core::SDK::UEDecryptBuilder,std::default_delete<IronMan::Core::SDK::UEDecryptBuilder> > > > >,std::_Iterator_base0>::operator++
PUBLIC	??F?$_List_unchecked_const_iterator@V?$_List_val@U?$_List_simple_types@U?$pair@$$CBW4DecryptFunc@SDK@Core@IronMan@@V?$unique_ptr@VUEDecryptBuilder@SDK@Core@IronMan@@U?$default_delete@VUEDecryptBuilder@SDK@Core@IronMan@@@std@@@std@@@std@@@std@@@std@@U_Iterator_base0@2@@std@@QEAAAEAV01@XZ ; std::_List_unchecked_const_iterator<std::_List_val<std::_List_simple_types<std::pair<enum IronMan::Core::SDK::DecryptFunc const ,std::unique_ptr<IronMan::Core::SDK::UEDecryptBuilder,std::default_delete<IronMan::Core::SDK::UEDecryptBuilder> > > > >,std::_Iterator_base0>::operator--
PUBLIC	??8?$_List_unchecked_const_iterator@V?$_List_val@U?$_List_simple_types@U?$pair@$$CBW4DecryptFunc@SDK@Core@IronMan@@V?$unique_ptr@VUEDecryptBuilder@SDK@Core@IronMan@@U?$default_delete@VUEDecryptBuilder@SDK@Core@IronMan@@@std@@@std@@@std@@@std@@@std@@U_Iterator_base0@2@@std@@QEBA_NAEBV01@@Z ; std::_List_unchecked_const_iterator<std::_List_val<std::_List_simple_types<std::pair<enum IronMan::Core::SDK::DecryptFunc const ,std::unique_ptr<IronMan::Core::SDK::UEDecryptBuilder,std::default_delete<IronMan::Core::SDK::UEDecryptBuilder> > > > >,std::_Iterator_base0>::operator==
PUBLIC	??9?$_List_unchecked_const_iterator@V?$_List_val@U?$_List_simple_types@U?$pair@$$CBW4DecryptFunc@SDK@Core@IronMan@@V?$unique_ptr@VUEDecryptBuilder@SDK@Core@IronMan@@U?$default_delete@VUEDecryptBuilder@SDK@Core@IronMan@@@std@@@std@@@std@@@std@@@std@@U_Iterator_base0@2@@std@@QEBA_NAEBV01@@Z ; std::_List_unchecked_const_iterator<std::_List_val<std::_List_simple_types<std::pair<enum IronMan::Core::SDK::DecryptFunc const ,std::unique_ptr<IronMan::Core::SDK::UEDecryptBuilder,std::default_delete<IronMan::Core::SDK::UEDecryptBuilder> > > > >,std::_Iterator_base0>::operator!=
PUBLIC	??D?$_List_unchecked_iterator@V?$_List_val@U?$_List_simple_types@U?$pair@$$CBW4DecryptFunc@SDK@Core@IronMan@@V?$unique_ptr@VUEDecryptBuilder@SDK@Core@IronMan@@U?$default_delete@VUEDecryptBuilder@SDK@Core@IronMan@@@std@@@std@@@std@@@std@@@std@@@std@@QEBAAEAU?$pair@$$CBW4DecryptFunc@SDK@Core@IronMan@@V?$unique_ptr@VUEDecryptBuilder@SDK@Core@IronMan@@U?$default_delete@VUEDecryptBuilder@SDK@Core@IronMan@@@std@@@std@@@1@XZ ; std::_List_unchecked_iterator<std::_List_val<std::_List_simple_types<std::pair<enum IronMan::Core::SDK::DecryptFunc const ,std::unique_ptr<IronMan::Core::SDK::UEDecryptBuilder,std::default_delete<IronMan::Core::SDK::UEDecryptBuilder> > > > > >::operator*
PUBLIC	??E?$_List_unchecked_iterator@V?$_List_val@U?$_List_simple_types@U?$pair@$$CBW4DecryptFunc@SDK@Core@IronMan@@V?$unique_ptr@VUEDecryptBuilder@SDK@Core@IronMan@@U?$default_delete@VUEDecryptBuilder@SDK@Core@IronMan@@@std@@@std@@@std@@@std@@@std@@@std@@QEAAAEAV01@XZ ; std::_List_unchecked_iterator<std::_List_val<std::_List_simple_types<std::pair<enum IronMan::Core::SDK::DecryptFunc const ,std::unique_ptr<IronMan::Core::SDK::UEDecryptBuilder,std::default_delete<IronMan::Core::SDK::UEDecryptBuilder> > > > > >::operator++
PUBLIC	??0?$_List_unchecked_iterator@V?$_List_val@U?$_List_simple_types@U?$pair@$$CBW4DecryptFunc@SDK@Core@IronMan@@V?$unique_ptr@VUEDecryptBuilder@SDK@Core@IronMan@@U?$default_delete@VUEDecryptBuilder@SDK@Core@IronMan@@@std@@@std@@@std@@@std@@@std@@@std@@QEAA@PEAU?$_List_node@U?$pair@$$CBW4DecryptFunc@SDK@Core@IronMan@@V?$unique_ptr@VUEDecryptBuilder@SDK@Core@IronMan@@U?$default_delete@VUEDecryptBuilder@SDK@Core@IronMan@@@std@@@std@@@std@@PEAX@1@PEBV?$_List_val@U?$_List_simple_types@U?$pair@$$CBW4DecryptFunc@SDK@Core@IronMan@@V?$unique_ptr@VUEDecryptBuilder@SDK@Core@IronMan@@U?$default_delete@VUEDecryptBuilder@SDK@Core@IronMan@@@std@@@std@@@std@@@std@@@1@@Z ; std::_List_unchecked_iterator<std::_List_val<std::_List_simple_types<std::pair<enum IronMan::Core::SDK::DecryptFunc const ,std::unique_ptr<IronMan::Core::SDK::UEDecryptBuilder,std::default_delete<IronMan::Core::SDK::UEDecryptBuilder> > > > > >::_List_unchecked_iterator<std::_List_val<std::_List_simple_types<std::pair<enum IronMan::Core::SDK::DecryptFunc const ,std::unique_ptr<IronMan::Core::SDK::UEDecryptBuilder,std::default_delete<IronMan::Core::SDK::UEDecryptBuilder> > > > > >
PUBLIC	??$_Traits_equal@U?$char_traits@D@std@@@std@@YA_NQEBD_K01@Z ; std::_Traits_equal<std::char_traits<char> >
PUBLIC	??$_Get_size_of_n@$00@std@@YA_K_K@Z		; std::_Get_size_of_n<1>
PUBLIC	??0_Clear_guard@?$_Hash@V?$_Umap_traits@W4DecryptFunc@SDK@Core@IronMan@@V?$unique_ptr@VUEDecryptBuilder@SDK@Core@IronMan@@U?$default_delete@VUEDecryptBuilder@SDK@Core@IronMan@@@std@@@std@@V?$_Uhash_compare@W4DecryptFunc@SDK@Core@IronMan@@U?$hash@W4DecryptFunc@SDK@Core@IronMan@@@std@@U?$equal_to@W4DecryptFunc@SDK@Core@IronMan@@@6@@6@V?$allocator@U?$pair@$$CBW4DecryptFunc@SDK@Core@IronMan@@V?$unique_ptr@VUEDecryptBuilder@SDK@Core@IronMan@@U?$default_delete@VUEDecryptBuilder@SDK@Core@IronMan@@@std@@@std@@@std@@@6@$0A@@std@@@std@@QEAA@QEAV12@@Z ; std::_Hash<std::_Umap_traits<enum IronMan::Core::SDK::DecryptFunc,std::unique_ptr<IronMan::Core::SDK::UEDecryptBuilder,std::default_delete<IronMan::Core::SDK::UEDecryptBuilder> >,std::_Uhash_compare<enum IronMan::Core::SDK::DecryptFunc,std::hash<enum IronMan::Core::SDK::DecryptFunc>,std::equal_to<enum IronMan::Core::SDK::DecryptFunc> >,std::allocator<std::pair<enum IronMan::Core::SDK::DecryptFunc const ,std::unique_ptr<IronMan::Core::SDK::UEDecryptBuilder,std::default_delete<IronMan::Core::SDK::UEDecryptBuilder> > > >,0> >::_Clear_guard::_Clear_guard
PUBLIC	??1_Clear_guard@?$_Hash@V?$_Umap_traits@W4DecryptFunc@SDK@Core@IronMan@@V?$unique_ptr@VUEDecryptBuilder@SDK@Core@IronMan@@U?$default_delete@VUEDecryptBuilder@SDK@Core@IronMan@@@std@@@std@@V?$_Uhash_compare@W4DecryptFunc@SDK@Core@IronMan@@U?$hash@W4DecryptFunc@SDK@Core@IronMan@@@std@@U?$equal_to@W4DecryptFunc@SDK@Core@IronMan@@@6@@6@V?$allocator@U?$pair@$$CBW4DecryptFunc@SDK@Core@IronMan@@V?$unique_ptr@VUEDecryptBuilder@SDK@Core@IronMan@@U?$default_delete@VUEDecryptBuilder@SDK@Core@IronMan@@@std@@@std@@@std@@@6@$0A@@std@@@std@@QEAA@XZ ; std::_Hash<std::_Umap_traits<enum IronMan::Core::SDK::DecryptFunc,std::unique_ptr<IronMan::Core::SDK::UEDecryptBuilder,std::default_delete<IronMan::Core::SDK::UEDecryptBuilder> >,std::_Uhash_compare<enum IronMan::Core::SDK::DecryptFunc,std::hash<enum IronMan::Core::SDK::DecryptFunc>,std::equal_to<enum IronMan::Core::SDK::DecryptFunc> >,std::allocator<std::pair<enum IronMan::Core::SDK::DecryptFunc const ,std::unique_ptr<IronMan::Core::SDK::UEDecryptBuilder,std::default_delete<IronMan::Core::SDK::UEDecryptBuilder> > > >,0> >::_Clear_guard::~_Clear_guard
PUBLIC	??$?RW4DecryptFunc@SDK@Core@IronMan@@W40123@@?$_Uhash_compare@W4DecryptFunc@SDK@Core@IronMan@@U?$hash@W4DecryptFunc@SDK@Core@IronMan@@@std@@U?$equal_to@W4DecryptFunc@SDK@Core@IronMan@@@6@@std@@QEBA_NAEBW4DecryptFunc@SDK@Core@IronMan@@0@Z ; std::_Uhash_compare<enum IronMan::Core::SDK::DecryptFunc,std::hash<enum IronMan::Core::SDK::DecryptFunc>,std::equal_to<enum IronMan::Core::SDK::DecryptFunc> >::operator()<enum IronMan::Core::SDK::DecryptFunc,enum IronMan::Core::SDK::DecryptFunc>
PUBLIC	??$_Destroy_range@PEAV?$_List_unchecked_iterator@V?$_List_val@U?$_List_simple_types@U?$pair@$$CBW4DecryptFunc@SDK@Core@IronMan@@V?$unique_ptr@VUEDecryptBuilder@SDK@Core@IronMan@@U?$default_delete@VUEDecryptBuilder@SDK@Core@IronMan@@@std@@@std@@@std@@@std@@@std@@@std@@PEAV12@@std@@YAXPEAV?$_List_unchecked_iterator@V?$_List_val@U?$_List_simple_types@U?$pair@$$CBW4DecryptFunc@SDK@Core@IronMan@@V?$unique_ptr@VUEDecryptBuilder@SDK@Core@IronMan@@U?$default_delete@VUEDecryptBuilder@SDK@Core@IronMan@@@std@@@std@@@std@@@std@@@std@@@0@QEAV10@@Z ; std::_Destroy_range<std::_List_unchecked_iterator<std::_List_val<std::_List_simple_types<std::pair<enum IronMan::Core::SDK::DecryptFunc const ,std::unique_ptr<IronMan::Core::SDK::UEDecryptBuilder,std::default_delete<IronMan::Core::SDK::UEDecryptBuilder> > > > > > *,std::_List_unchecked_iterator<std::_List_val<std::_List_simple_types<std::pair<enum IronMan::Core::SDK::DecryptFunc const ,std::unique_ptr<IronMan::Core::SDK::UEDecryptBuilder,std::default_delete<IronMan::Core::SDK::UEDecryptBuilder> > > > > > *>
PUBLIC	??$uninitialized_fill@PEAV?$_List_unchecked_iterator@V?$_List_val@U?$_List_simple_types@U?$pair@$$CBW4DecryptFunc@SDK@Core@IronMan@@V?$unique_ptr@VUEDecryptBuilder@SDK@Core@IronMan@@U?$default_delete@VUEDecryptBuilder@SDK@Core@IronMan@@@std@@@std@@@std@@@std@@@std@@@std@@V12@@std@@YAXQEAV?$_List_unchecked_iterator@V?$_List_val@U?$_List_simple_types@U?$pair@$$CBW4DecryptFunc@SDK@Core@IronMan@@V?$unique_ptr@VUEDecryptBuilder@SDK@Core@IronMan@@U?$default_delete@VUEDecryptBuilder@SDK@Core@IronMan@@@std@@@std@@@std@@@std@@@std@@@0@0AEBV10@@Z ; std::uninitialized_fill<std::_List_unchecked_iterator<std::_List_val<std::_List_simple_types<std::pair<enum IronMan::Core::SDK::DecryptFunc const ,std::unique_ptr<IronMan::Core::SDK::UEDecryptBuilder,std::default_delete<IronMan::Core::SDK::UEDecryptBuilder> > > > > > *,std::_List_unchecked_iterator<std::_List_val<std::_List_simple_types<std::pair<enum IronMan::Core::SDK::DecryptFunc const ,std::unique_ptr<IronMan::Core::SDK::UEDecryptBuilder,std::default_delete<IronMan::Core::SDK::UEDecryptBuilder> > > > > > >
PUBLIC	??$fill@PEAV?$_List_unchecked_iterator@V?$_List_val@U?$_List_simple_types@U?$pair@$$CBW4DecryptFunc@SDK@Core@IronMan@@V?$unique_ptr@VUEDecryptBuilder@SDK@Core@IronMan@@U?$default_delete@VUEDecryptBuilder@SDK@Core@IronMan@@@std@@@std@@@std@@@std@@@std@@@std@@V12@@std@@YAXQEAV?$_List_unchecked_iterator@V?$_List_val@U?$_List_simple_types@U?$pair@$$CBW4DecryptFunc@SDK@Core@IronMan@@V?$unique_ptr@VUEDecryptBuilder@SDK@Core@IronMan@@U?$default_delete@VUEDecryptBuilder@SDK@Core@IronMan@@@std@@@std@@@std@@@std@@@std@@@0@0AEBV10@@Z ; std::fill<std::_List_unchecked_iterator<std::_List_val<std::_List_simple_types<std::pair<enum IronMan::Core::SDK::DecryptFunc const ,std::unique_ptr<IronMan::Core::SDK::UEDecryptBuilder,std::default_delete<IronMan::Core::SDK::UEDecryptBuilder> > > > > > *,std::_List_unchecked_iterator<std::_List_val<std::_List_simple_types<std::pair<enum IronMan::Core::SDK::DecryptFunc const ,std::unique_ptr<IronMan::Core::SDK::UEDecryptBuilder,std::default_delete<IronMan::Core::SDK::UEDecryptBuilder> > > > > > >
PUBLIC	??0_Range_eraser@?$_Hash@V?$_Umap_traits@W4DecryptFunc@SDK@Core@IronMan@@V?$unique_ptr@VUEDecryptBuilder@SDK@Core@IronMan@@U?$default_delete@VUEDecryptBuilder@SDK@Core@IronMan@@@std@@@std@@V?$_Uhash_compare@W4DecryptFunc@SDK@Core@IronMan@@U?$hash@W4DecryptFunc@SDK@Core@IronMan@@@std@@U?$equal_to@W4DecryptFunc@SDK@Core@IronMan@@@6@@6@V?$allocator@U?$pair@$$CBW4DecryptFunc@SDK@Core@IronMan@@V?$unique_ptr@VUEDecryptBuilder@SDK@Core@IronMan@@U?$default_delete@VUEDecryptBuilder@SDK@Core@IronMan@@@std@@@std@@@std@@@6@$0A@@std@@@std@@QEAA@AEAV?$list@U?$pair@$$CBW4DecryptFunc@SDK@Core@IronMan@@V?$unique_ptr@VUEDecryptBuilder@SDK@Core@IronMan@@U?$default_delete@VUEDecryptBuilder@SDK@Core@IronMan@@@std@@@std@@@std@@V?$allocator@U?$pair@$$CBW4DecryptFunc@SDK@Core@IronMan@@V?$unique_ptr@VUEDecryptBuilder@SDK@Core@IronMan@@U?$default_delete@VUEDecryptBuilder@SDK@Core@IronMan@@@std@@@std@@@std@@@2@@2@QEAU?$_List_node@U?$pair@$$CBW4DecryptFunc@SDK@Core@IronMan@@V?$unique_ptr@VUEDecryptBuilder@SDK@Core@IronMan@@U?$default_delete@VUEDecryptBuilder@SDK@Core@IronMan@@@std@@@std@@@std@@PEAX@2@@Z ; std::_Hash<std::_Umap_traits<enum IronMan::Core::SDK::DecryptFunc,std::unique_ptr<IronMan::Core::SDK::UEDecryptBuilder,std::default_delete<IronMan::Core::SDK::UEDecryptBuilder> >,std::_Uhash_compare<enum IronMan::Core::SDK::DecryptFunc,std::hash<enum IronMan::Core::SDK::DecryptFunc>,std::equal_to<enum IronMan::Core::SDK::DecryptFunc> >,std::allocator<std::pair<enum IronMan::Core::SDK::DecryptFunc const ,std::unique_ptr<IronMan::Core::SDK::UEDecryptBuilder,std::default_delete<IronMan::Core::SDK::UEDecryptBuilder> > > >,0> >::_Range_eraser::_Range_eraser
PUBLIC	?_Bump_erased@_Range_eraser@?$_Hash@V?$_Umap_traits@W4DecryptFunc@SDK@Core@IronMan@@V?$unique_ptr@VUEDecryptBuilder@SDK@Core@IronMan@@U?$default_delete@VUEDecryptBuilder@SDK@Core@IronMan@@@std@@@std@@V?$_Uhash_compare@W4DecryptFunc@SDK@Core@IronMan@@U?$hash@W4DecryptFunc@SDK@Core@IronMan@@@std@@U?$equal_to@W4DecryptFunc@SDK@Core@IronMan@@@6@@6@V?$allocator@U?$pair@$$CBW4DecryptFunc@SDK@Core@IronMan@@V?$unique_ptr@VUEDecryptBuilder@SDK@Core@IronMan@@U?$default_delete@VUEDecryptBuilder@SDK@Core@IronMan@@@std@@@std@@@std@@@6@$0A@@std@@@std@@QEAAXXZ ; std::_Hash<std::_Umap_traits<enum IronMan::Core::SDK::DecryptFunc,std::unique_ptr<IronMan::Core::SDK::UEDecryptBuilder,std::default_delete<IronMan::Core::SDK::UEDecryptBuilder> >,std::_Uhash_compare<enum IronMan::Core::SDK::DecryptFunc,std::hash<enum IronMan::Core::SDK::DecryptFunc>,std::equal_to<enum IronMan::Core::SDK::DecryptFunc> >,std::allocator<std::pair<enum IronMan::Core::SDK::DecryptFunc const ,std::unique_ptr<IronMan::Core::SDK::UEDecryptBuilder,std::default_delete<IronMan::Core::SDK::UEDecryptBuilder> > > >,0> >::_Range_eraser::_Bump_erased
PUBLIC	??1_Range_eraser@?$_Hash@V?$_Umap_traits@W4DecryptFunc@SDK@Core@IronMan@@V?$unique_ptr@VUEDecryptBuilder@SDK@Core@IronMan@@U?$default_delete@VUEDecryptBuilder@SDK@Core@IronMan@@@std@@@std@@V?$_Uhash_compare@W4DecryptFunc@SDK@Core@IronMan@@U?$hash@W4DecryptFunc@SDK@Core@IronMan@@@std@@U?$equal_to@W4DecryptFunc@SDK@Core@IronMan@@@6@@6@V?$allocator@U?$pair@$$CBW4DecryptFunc@SDK@Core@IronMan@@V?$unique_ptr@VUEDecryptBuilder@SDK@Core@IronMan@@U?$default_delete@VUEDecryptBuilder@SDK@Core@IronMan@@@std@@@std@@@std@@@6@$0A@@std@@@std@@QEAA@XZ ; std::_Hash<std::_Umap_traits<enum IronMan::Core::SDK::DecryptFunc,std::unique_ptr<IronMan::Core::SDK::UEDecryptBuilder,std::default_delete<IronMan::Core::SDK::UEDecryptBuilder> >,std::_Uhash_compare<enum IronMan::Core::SDK::DecryptFunc,std::hash<enum IronMan::Core::SDK::DecryptFunc>,std::equal_to<enum IronMan::Core::SDK::DecryptFunc> >,std::allocator<std::pair<enum IronMan::Core::SDK::DecryptFunc const ,std::unique_ptr<IronMan::Core::SDK::UEDecryptBuilder,std::default_delete<IronMan::Core::SDK::UEDecryptBuilder> > > >,0> >::_Range_eraser::~_Range_eraser
PUBLIC	??$_Free_non_head@V?$allocator@U?$_List_node@U?$pair@$$CBW4DecryptFunc@SDK@Core@IronMan@@V?$unique_ptr@VUEDecryptBuilder@SDK@Core@IronMan@@U?$default_delete@VUEDecryptBuilder@SDK@Core@IronMan@@@std@@@std@@@std@@PEAX@std@@@std@@@?$_List_node@U?$pair@$$CBW4DecryptFunc@SDK@Core@IronMan@@V?$unique_ptr@VUEDecryptBuilder@SDK@Core@IronMan@@U?$default_delete@VUEDecryptBuilder@SDK@Core@IronMan@@@std@@@std@@@std@@PEAX@std@@SAXAEAV?$allocator@U?$_List_node@U?$pair@$$CBW4DecryptFunc@SDK@Core@IronMan@@V?$unique_ptr@VUEDecryptBuilder@SDK@Core@IronMan@@U?$default_delete@VUEDecryptBuilder@SDK@Core@IronMan@@@std@@@std@@@std@@PEAX@std@@@1@PEAU01@@Z ; std::_List_node<std::pair<enum IronMan::Core::SDK::DecryptFunc const ,std::unique_ptr<IronMan::Core::SDK::UEDecryptBuilder,std::default_delete<IronMan::Core::SDK::UEDecryptBuilder> > >,void *>::_Free_non_head<std::allocator<std::_List_node<std::pair<enum IronMan::Core::SDK::DecryptFunc const ,std::unique_ptr<IronMan::Core::SDK::UEDecryptBuilder,std::default_delete<IronMan::Core::SDK::UEDecryptBuilder> > >,void *> > >
PUBLIC	??$_Freenode@V?$allocator@U?$_List_node@U?$pair@$$CBW4DecryptFunc@SDK@Core@IronMan@@V?$unique_ptr@VUEDecryptBuilder@SDK@Core@IronMan@@U?$default_delete@VUEDecryptBuilder@SDK@Core@IronMan@@@std@@@std@@@std@@PEAX@std@@@std@@@?$_List_node@U?$pair@$$CBW4DecryptFunc@SDK@Core@IronMan@@V?$unique_ptr@VUEDecryptBuilder@SDK@Core@IronMan@@U?$default_delete@VUEDecryptBuilder@SDK@Core@IronMan@@@std@@@std@@@std@@PEAX@std@@SAXAEAV?$allocator@U?$_List_node@U?$pair@$$CBW4DecryptFunc@SDK@Core@IronMan@@V?$unique_ptr@VUEDecryptBuilder@SDK@Core@IronMan@@U?$default_delete@VUEDecryptBuilder@SDK@Core@IronMan@@@std@@@std@@@std@@PEAX@std@@@1@PEAU01@@Z ; std::_List_node<std::pair<enum IronMan::Core::SDK::DecryptFunc const ,std::unique_ptr<IronMan::Core::SDK::UEDecryptBuilder,std::default_delete<IronMan::Core::SDK::UEDecryptBuilder> > >,void *>::_Freenode<std::allocator<std::_List_node<std::pair<enum IronMan::Core::SDK::DecryptFunc const ,std::unique_ptr<IronMan::Core::SDK::UEDecryptBuilder,std::default_delete<IronMan::Core::SDK::UEDecryptBuilder> > >,void *> > >
PUBLIC	??$?0$0A@@id@locale@std@@QEAA@XZ		; std::locale::id::id<0>
PUBLIC	??$_Allocate_at_least_helper@V?$allocator@_K@std@@@std@@YAPEA_KAEAV?$allocator@_K@0@AEA_K@Z ; std::_Allocate_at_least_helper<std::allocator<unsigned __int64> >
PUBLIC	??1_Reallocation_guard@?$vector@_KV?$allocator@_K@std@@@std@@QEAA@XZ ; std::vector<unsigned __int64,std::allocator<unsigned __int64> >::_Reallocation_guard::~_Reallocation_guard
PUBLIC	??$_Uninitialized_move@PEA_KV?$allocator@_K@std@@@std@@YAPEA_KQEA_K0PEA_KAEAV?$allocator@_K@0@@Z ; std::_Uninitialized_move<unsigned __int64 *,std::allocator<unsigned __int64> >
PUBLIC	??$_Unfancy@_K@std@@YAPEA_KPEA_K@Z		; std::_Unfancy<unsigned __int64>
PUBLIC	??$_Zero_range@PEA_K@std@@YAPEA_KQEA_K0@Z	; std::_Zero_range<unsigned __int64 *>
PUBLIC	??0?$_Uninitialized_backout_al@V?$allocator@_K@std@@@std@@QEAA@PEA_KAEAV?$allocator@_K@1@@Z ; std::_Uninitialized_backout_al<std::allocator<unsigned __int64> >::_Uninitialized_backout_al<std::allocator<unsigned __int64> >
PUBLIC	??1?$_Uninitialized_backout_al@V?$allocator@_K@std@@@std@@QEAA@XZ ; std::_Uninitialized_backout_al<std::allocator<unsigned __int64> >::~_Uninitialized_backout_al<std::allocator<unsigned __int64> >
PUBLIC	?_Release@?$_Uninitialized_backout_al@V?$allocator@_K@std@@@std@@QEAAPEA_KXZ ; std::_Uninitialized_backout_al<std::allocator<unsigned __int64> >::_Release
PUBLIC	??$_Emplace_back@$$V@?$_Uninitialized_backout_al@V?$allocator@_K@std@@@std@@QEAAXXZ ; std::_Uninitialized_backout_al<std::allocator<unsigned __int64> >::_Emplace_back<>
PUBLIC	??$_Allocate_at_least_helper@V?$allocator@UStringA@SDK@Core@IronMan@@@std@@@std@@YAPEAUStringA@SDK@Core@IronMan@@AEAV?$allocator@UStringA@SDK@Core@IronMan@@@0@AEA_K@Z ; std::_Allocate_at_least_helper<std::allocator<IronMan::Core::SDK::StringA> >
PUBLIC	??1_Reallocation_guard@?$vector@UStringA@SDK@Core@IronMan@@V?$allocator@UStringA@SDK@Core@IronMan@@@std@@@std@@QEAA@XZ ; std::vector<IronMan::Core::SDK::StringA,std::allocator<IronMan::Core::SDK::StringA> >::_Reallocation_guard::~_Reallocation_guard
PUBLIC	??$_Uninitialized_move@PEAUStringA@SDK@Core@IronMan@@V?$allocator@UStringA@SDK@Core@IronMan@@@std@@@std@@YAPEAUStringA@SDK@Core@IronMan@@QEAU1234@0PEAU1234@AEAV?$allocator@UStringA@SDK@Core@IronMan@@@0@@Z ; std::_Uninitialized_move<IronMan::Core::SDK::StringA *,std::allocator<IronMan::Core::SDK::StringA> >
PUBLIC	??0?$_Uninitialized_backout_al@V?$allocator@UStringA@SDK@Core@IronMan@@@std@@@std@@QEAA@PEAUStringA@SDK@Core@IronMan@@AEAV?$allocator@UStringA@SDK@Core@IronMan@@@1@@Z ; std::_Uninitialized_backout_al<std::allocator<IronMan::Core::SDK::StringA> >::_Uninitialized_backout_al<std::allocator<IronMan::Core::SDK::StringA> >
PUBLIC	??1?$_Uninitialized_backout_al@V?$allocator@UStringA@SDK@Core@IronMan@@@std@@@std@@QEAA@XZ ; std::_Uninitialized_backout_al<std::allocator<IronMan::Core::SDK::StringA> >::~_Uninitialized_backout_al<std::allocator<IronMan::Core::SDK::StringA> >
PUBLIC	?_Release@?$_Uninitialized_backout_al@V?$allocator@UStringA@SDK@Core@IronMan@@@std@@@std@@QEAAPEAUStringA@SDK@Core@IronMan@@XZ ; std::_Uninitialized_backout_al<std::allocator<IronMan::Core::SDK::StringA> >::_Release
PUBLIC	??$_Emplace_back@$$V@?$_Uninitialized_backout_al@V?$allocator@UStringA@SDK@Core@IronMan@@@std@@@std@@QEAAXXZ ; std::_Uninitialized_backout_al<std::allocator<IronMan::Core::SDK::StringA> >::_Emplace_back<>
PUBLIC	??$forward@AEBUpiecewise_construct_t@std@@@std@@YAAEBUpiecewise_construct_t@0@AEBU10@@Z ; std::forward<std::piecewise_construct_t const &>
PUBLIC	??$forward@V?$tuple@$$V@std@@@std@@YA$$QEAV?$tuple@$$V@0@AEAV10@@Z ; std::forward<std::tuple<> >
PUBLIC	??$forward@AEAPEAU?$_List_node@U?$pair@$$CBW4DecryptFunc@SDK@Core@IronMan@@V?$unique_ptr@VUEDecryptBuilder@SDK@Core@IronMan@@U?$default_delete@VUEDecryptBuilder@SDK@Core@IronMan@@@std@@@std@@@std@@PEAX@std@@@std@@YAAEAPEAU?$_List_node@U?$pair@$$CBW4DecryptFunc@SDK@Core@IronMan@@V?$unique_ptr@VUEDecryptBuilder@SDK@Core@IronMan@@U?$default_delete@VUEDecryptBuilder@SDK@Core@IronMan@@@std@@@std@@@std@@PEAX@0@AEAPEAU10@@Z ; std::forward<std::_List_node<std::pair<enum IronMan::Core::SDK::DecryptFunc const ,std::unique_ptr<IronMan::Core::SDK::UEDecryptBuilder,std::default_delete<IronMan::Core::SDK::UEDecryptBuilder> > >,void *> * &>
PUBLIC	??$?0W4DecryptFunc@SDK@Core@IronMan@@$$V$0A@@?$tuple@$$QEAW4DecryptFunc@SDK@Core@IronMan@@@std@@QEAA@$$QEAW4DecryptFunc@SDK@Core@IronMan@@@Z ; std::tuple<enum IronMan::Core::SDK::DecryptFunc &&>::tuple<enum IronMan::Core::SDK::DecryptFunc &&><enum IronMan::Core::SDK::DecryptFunc,0>
PUBLIC	??$forward@V?$tuple@$$QEAW4DecryptFunc@SDK@Core@IronMan@@@std@@@std@@YA$$QEAV?$tuple@$$QEAW4DecryptFunc@SDK@Core@IronMan@@@0@AEAV10@@Z ; std::forward<std::tuple<enum IronMan::Core::SDK::DecryptFunc &&> >
PUBLIC	??$construct@U?$pair@$$CBW4DecryptFunc@SDK@Core@IronMan@@V?$unique_ptr@VUEDecryptBuilder@SDK@Core@IronMan@@U?$default_delete@VUEDecryptBuilder@SDK@Core@IronMan@@@std@@@std@@@std@@AEBUpiecewise_construct_t@2@V?$tuple@$$QEAW4DecryptFunc@SDK@Core@IronMan@@@2@V?$tuple@$$V@2@@?$_Default_allocator_traits@V?$allocator@U?$_List_node@U?$pair@$$CBW4DecryptFunc@SDK@Core@IronMan@@V?$unique_ptr@VUEDecryptBuilder@SDK@Core@IronMan@@U?$default_delete@VUEDecryptBuilder@SDK@Core@IronMan@@@std@@@std@@@std@@PEAX@std@@@std@@@std@@SAXAEAV?$allocator@U?$_List_node@U?$pair@$$CBW4DecryptFunc@SDK@Core@IronMan@@V?$unique_ptr@VUEDecryptBuilder@SDK@Core@IronMan@@U?$default_delete@VUEDecryptBuilder@SDK@Core@IronMan@@@std@@@std@@@std@@PEAX@std@@@1@QEAU?$pair@$$CBW4DecryptFunc@SDK@Core@IronMan@@V?$unique_ptr@VUEDecryptBuilder@SDK@Core@IronMan@@U?$default_delete@VUEDecryptBuilder@SDK@Core@IronMan@@@std@@@std@@@1@AEBUpiecewise_construct_t@1@$$QEAV?$tuple@$$QEAW4DecryptFunc@SDK@Core@IronMan@@@1@$$QEAV?$tuple@$$V@1@@Z ; std::_Default_allocator_traits<std::allocator<std::_List_node<std::pair<enum IronMan::Core::SDK::DecryptFunc const ,std::unique_ptr<IronMan::Core::SDK::UEDecryptBuilder,std::default_delete<IronMan::Core::SDK::UEDecryptBuilder> > >,void *> > >::construct<std::pair<enum IronMan::Core::SDK::DecryptFunc const ,std::unique_ptr<IronMan::Core::SDK::UEDecryptBuilder,std::default_delete<IronMan::Core::SDK::UEDecryptBuilder> > >,std::piecewise_construct_t const &,std::tuple<enum IronMan::Core::SDK::DecryptFunc &&>,std::tuple<> >
PUBLIC	??$forward@PEAU?$_List_node@U?$pair@$$CBW4DecryptFunc@SDK@Core@IronMan@@V?$unique_ptr@VUEDecryptBuilder@SDK@Core@IronMan@@U?$default_delete@VUEDecryptBuilder@SDK@Core@IronMan@@@std@@@std@@@std@@PEAX@std@@@std@@YA$$QEAPEAU?$_List_node@U?$pair@$$CBW4DecryptFunc@SDK@Core@IronMan@@V?$unique_ptr@VUEDecryptBuilder@SDK@Core@IronMan@@U?$default_delete@VUEDecryptBuilder@SDK@Core@IronMan@@@std@@@std@@@std@@PEAX@0@AEAPEAU10@@Z ; std::forward<std::_List_node<std::pair<enum IronMan::Core::SDK::DecryptFunc const ,std::unique_ptr<IronMan::Core::SDK::UEDecryptBuilder,std::default_delete<IronMan::Core::SDK::UEDecryptBuilder> > >,void *> *>
PUBLIC	??$addressof@U?$pair@$$CB_KH@std@@@std@@YAPEAU?$pair@$$CB_KH@0@AEAU10@@Z ; std::addressof<std::pair<unsigned __int64 const ,int> >
PUBLIC	??$destroy@U?$pair@$$CB_KH@std@@@?$_Default_allocator_traits@V?$allocator@U?$_List_node@U?$pair@$$CB_KH@std@@PEAX@std@@@std@@@std@@SAXAEAV?$allocator@U?$_List_node@U?$pair@$$CB_KH@std@@PEAX@std@@@1@QEAU?$pair@$$CB_KH@1@@Z ; std::_Default_allocator_traits<std::allocator<std::_List_node<std::pair<unsigned __int64 const ,int>,void *> > >::destroy<std::pair<unsigned __int64 const ,int> >
PUBLIC	??$forward@AEBV?$_List_unchecked_iterator@V?$_List_val@U?$_List_simple_types@U?$pair@$$CB_KH@std@@@std@@@std@@@std@@@std@@YAAEBV?$_List_unchecked_iterator@V?$_List_val@U?$_List_simple_types@U?$pair@$$CB_KH@std@@@std@@@std@@@0@AEBV10@@Z ; std::forward<std::_List_unchecked_iterator<std::_List_val<std::_List_simple_types<std::pair<unsigned __int64 const ,int> > > > const &>
PUBLIC	??$_Construct_in_place@V?$_List_unchecked_iterator@V?$_List_val@U?$_List_simple_types@U?$pair@$$CB_KH@std@@@std@@@std@@@std@@AEBV12@@std@@YAXAEAV?$_List_unchecked_iterator@V?$_List_val@U?$_List_simple_types@U?$pair@$$CB_KH@std@@@std@@@std@@@0@AEBV10@@Z ; std::_Construct_in_place<std::_List_unchecked_iterator<std::_List_val<std::_List_simple_types<std::pair<unsigned __int64 const ,int> > > >,std::_List_unchecked_iterator<std::_List_val<std::_List_simple_types<std::pair<unsigned __int64 const ,int> > > > const &>
PUBLIC	??$addressof@PEAU?$_List_node@U?$pair@$$CBW4DecryptFunc@SDK@Core@IronMan@@V?$unique_ptr@VUEDecryptBuilder@SDK@Core@IronMan@@U?$default_delete@VUEDecryptBuilder@SDK@Core@IronMan@@@std@@@std@@@std@@PEAX@std@@@std@@YAPEAPEAU?$_List_node@U?$pair@$$CBW4DecryptFunc@SDK@Core@IronMan@@V?$unique_ptr@VUEDecryptBuilder@SDK@Core@IronMan@@U?$default_delete@VUEDecryptBuilder@SDK@Core@IronMan@@@std@@@std@@@std@@PEAX@0@AEAPEAU10@@Z ; std::addressof<std::_List_node<std::pair<enum IronMan::Core::SDK::DecryptFunc const ,std::unique_ptr<IronMan::Core::SDK::UEDecryptBuilder,std::default_delete<IronMan::Core::SDK::UEDecryptBuilder> > >,void *> *>
PUBLIC	??$forward@AEBQEAU?$_List_node@U?$pair@$$CBW4DecryptFunc@SDK@Core@IronMan@@V?$unique_ptr@VUEDecryptBuilder@SDK@Core@IronMan@@U?$default_delete@VUEDecryptBuilder@SDK@Core@IronMan@@@std@@@std@@@std@@PEAX@std@@@std@@YAAEBQEAU?$_List_node@U?$pair@$$CBW4DecryptFunc@SDK@Core@IronMan@@V?$unique_ptr@VUEDecryptBuilder@SDK@Core@IronMan@@U?$default_delete@VUEDecryptBuilder@SDK@Core@IronMan@@@std@@@std@@@std@@PEAX@0@AEBQEAU10@@Z ; std::forward<std::_List_node<std::pair<enum IronMan::Core::SDK::DecryptFunc const ,std::unique_ptr<IronMan::Core::SDK::UEDecryptBuilder,std::default_delete<IronMan::Core::SDK::UEDecryptBuilder> > >,void *> * const &>
PUBLIC	??$_Adl_verify_range@PEAV?$_List_unchecked_iterator@V?$_List_val@U?$_List_simple_types@U?$pair@$$CBW4DecryptFunc@SDK@Core@IronMan@@V?$unique_ptr@VUEDecryptBuilder@SDK@Core@IronMan@@U?$default_delete@VUEDecryptBuilder@SDK@Core@IronMan@@@std@@@std@@@std@@@std@@@std@@@std@@PEAV12@@std@@YAXAEBQEAV?$_List_unchecked_iterator@V?$_List_val@U?$_List_simple_types@U?$pair@$$CBW4DecryptFunc@SDK@Core@IronMan@@V?$unique_ptr@VUEDecryptBuilder@SDK@Core@IronMan@@U?$default_delete@VUEDecryptBuilder@SDK@Core@IronMan@@@std@@@std@@@std@@@std@@@std@@@0@0@Z ; std::_Adl_verify_range<std::_List_unchecked_iterator<std::_List_val<std::_List_simple_types<std::pair<enum IronMan::Core::SDK::DecryptFunc const ,std::unique_ptr<IronMan::Core::SDK::UEDecryptBuilder,std::default_delete<IronMan::Core::SDK::UEDecryptBuilder> > > > > > *,std::_List_unchecked_iterator<std::_List_val<std::_List_simple_types<std::pair<enum IronMan::Core::SDK::DecryptFunc const ,std::unique_ptr<IronMan::Core::SDK::UEDecryptBuilder,std::default_delete<IronMan::Core::SDK::UEDecryptBuilder> > > > > > *>
PUBLIC	??$_Get_unwrapped@AEBQEAV?$_List_unchecked_iterator@V?$_List_val@U?$_List_simple_types@U?$pair@$$CBW4DecryptFunc@SDK@Core@IronMan@@V?$unique_ptr@VUEDecryptBuilder@SDK@Core@IronMan@@U?$default_delete@VUEDecryptBuilder@SDK@Core@IronMan@@@std@@@std@@@std@@@std@@@std@@@std@@@std@@YA?A_TAEBQEAV?$_List_unchecked_iterator@V?$_List_val@U?$_List_simple_types@U?$pair@$$CBW4DecryptFunc@SDK@Core@IronMan@@V?$unique_ptr@VUEDecryptBuilder@SDK@Core@IronMan@@U?$default_delete@VUEDecryptBuilder@SDK@Core@IronMan@@@std@@@std@@@std@@@std@@@std@@@0@@Z ; std::_Get_unwrapped<std::_List_unchecked_iterator<std::_List_val<std::_List_simple_types<std::pair<enum IronMan::Core::SDK::DecryptFunc const ,std::unique_ptr<IronMan::Core::SDK::UEDecryptBuilder,std::default_delete<IronMan::Core::SDK::UEDecryptBuilder> > > > > > * const &>
PUBLIC	??0?$_Uninitialized_backout@PEAV?$_List_unchecked_iterator@V?$_List_val@U?$_List_simple_types@U?$pair@$$CBW4DecryptFunc@SDK@Core@IronMan@@V?$unique_ptr@VUEDecryptBuilder@SDK@Core@IronMan@@U?$default_delete@VUEDecryptBuilder@SDK@Core@IronMan@@@std@@@std@@@std@@@std@@@std@@@std@@@std@@QEAA@PEAV?$_List_unchecked_iterator@V?$_List_val@U?$_List_simple_types@U?$pair@$$CBW4DecryptFunc@SDK@Core@IronMan@@V?$unique_ptr@VUEDecryptBuilder@SDK@Core@IronMan@@U?$default_delete@VUEDecryptBuilder@SDK@Core@IronMan@@@std@@@std@@@std@@@std@@@std@@@1@@Z ; std::_Uninitialized_backout<std::_List_unchecked_iterator<std::_List_val<std::_List_simple_types<std::pair<enum IronMan::Core::SDK::DecryptFunc const ,std::unique_ptr<IronMan::Core::SDK::UEDecryptBuilder,std::default_delete<IronMan::Core::SDK::UEDecryptBuilder> > > > > > *>::_Uninitialized_backout<std::_List_unchecked_iterator<std::_List_val<std::_List_simple_types<std::pair<enum IronMan::Core::SDK::DecryptFunc const ,std::unique_ptr<IronMan::Core::SDK::UEDecryptBuilder,std::default_delete<IronMan::Core::SDK::UEDecryptBuilder> > > > > > *>
PUBLIC	??1?$_Uninitialized_backout@PEAV?$_List_unchecked_iterator@V?$_List_val@U?$_List_simple_types@U?$pair@$$CBW4DecryptFunc@SDK@Core@IronMan@@V?$unique_ptr@VUEDecryptBuilder@SDK@Core@IronMan@@U?$default_delete@VUEDecryptBuilder@SDK@Core@IronMan@@@std@@@std@@@std@@@std@@@std@@@std@@@std@@QEAA@XZ ; std::_Uninitialized_backout<std::_List_unchecked_iterator<std::_List_val<std::_List_simple_types<std::pair<enum IronMan::Core::SDK::DecryptFunc const ,std::unique_ptr<IronMan::Core::SDK::UEDecryptBuilder,std::default_delete<IronMan::Core::SDK::UEDecryptBuilder> > > > > > *>::~_Uninitialized_backout<std::_List_unchecked_iterator<std::_List_val<std::_List_simple_types<std::pair<enum IronMan::Core::SDK::DecryptFunc const ,std::unique_ptr<IronMan::Core::SDK::UEDecryptBuilder,std::default_delete<IronMan::Core::SDK::UEDecryptBuilder> > > > > > *>
PUBLIC	?_Release@?$_Uninitialized_backout@PEAV?$_List_unchecked_iterator@V?$_List_val@U?$_List_simple_types@U?$pair@$$CBW4DecryptFunc@SDK@Core@IronMan@@V?$unique_ptr@VUEDecryptBuilder@SDK@Core@IronMan@@U?$default_delete@VUEDecryptBuilder@SDK@Core@IronMan@@@std@@@std@@@std@@@std@@@std@@@std@@@std@@QEAAPEAV?$_List_unchecked_iterator@V?$_List_val@U?$_List_simple_types@U?$pair@$$CBW4DecryptFunc@SDK@Core@IronMan@@V?$unique_ptr@VUEDecryptBuilder@SDK@Core@IronMan@@U?$default_delete@VUEDecryptBuilder@SDK@Core@IronMan@@@std@@@std@@@std@@@std@@@std@@@2@XZ ; std::_Uninitialized_backout<std::_List_unchecked_iterator<std::_List_val<std::_List_simple_types<std::pair<enum IronMan::Core::SDK::DecryptFunc const ,std::unique_ptr<IronMan::Core::SDK::UEDecryptBuilder,std::default_delete<IronMan::Core::SDK::UEDecryptBuilder> > > > > > *>::_Release
PUBLIC	??$_Emplace_back@AEBV?$_List_unchecked_iterator@V?$_List_val@U?$_List_simple_types@U?$pair@$$CBW4DecryptFunc@SDK@Core@IronMan@@V?$unique_ptr@VUEDecryptBuilder@SDK@Core@IronMan@@U?$default_delete@VUEDecryptBuilder@SDK@Core@IronMan@@@std@@@std@@@std@@@std@@@std@@@std@@@?$_Uninitialized_backout@PEAV?$_List_unchecked_iterator@V?$_List_val@U?$_List_simple_types@U?$pair@$$CBW4DecryptFunc@SDK@Core@IronMan@@V?$unique_ptr@VUEDecryptBuilder@SDK@Core@IronMan@@U?$default_delete@VUEDecryptBuilder@SDK@Core@IronMan@@@std@@@std@@@std@@@std@@@std@@@std@@@std@@QEAAXAEBV?$_List_unchecked_iterator@V?$_List_val@U?$_List_simple_types@U?$pair@$$CBW4DecryptFunc@SDK@Core@IronMan@@V?$unique_ptr@VUEDecryptBuilder@SDK@Core@IronMan@@U?$default_delete@VUEDecryptBuilder@SDK@Core@IronMan@@@std@@@std@@@std@@@std@@@std@@@1@@Z ; std::_Uninitialized_backout<std::_List_unchecked_iterator<std::_List_val<std::_List_simple_types<std::pair<enum IronMan::Core::SDK::DecryptFunc const ,std::unique_ptr<IronMan::Core::SDK::UEDecryptBuilder,std::default_delete<IronMan::Core::SDK::UEDecryptBuilder> > > > > > *>::_Emplace_back<std::_List_unchecked_iterator<std::_List_val<std::_List_simple_types<std::pair<enum IronMan::Core::SDK::DecryptFunc const ,std::unique_ptr<IronMan::Core::SDK::UEDecryptBuilder,std::default_delete<IronMan::Core::SDK::UEDecryptBuilder> > > > > > const &>
PUBLIC	??$_Freenode0@V?$allocator@U?$_List_node@U?$pair@$$CBW4DecryptFunc@SDK@Core@IronMan@@V?$unique_ptr@VUEDecryptBuilder@SDK@Core@IronMan@@U?$default_delete@VUEDecryptBuilder@SDK@Core@IronMan@@@std@@@std@@@std@@PEAX@std@@@std@@@?$_List_node@U?$pair@$$CBW4DecryptFunc@SDK@Core@IronMan@@V?$unique_ptr@VUEDecryptBuilder@SDK@Core@IronMan@@U?$default_delete@VUEDecryptBuilder@SDK@Core@IronMan@@@std@@@std@@@std@@PEAX@std@@SAXAEAV?$allocator@U?$_List_node@U?$pair@$$CBW4DecryptFunc@SDK@Core@IronMan@@V?$unique_ptr@VUEDecryptBuilder@SDK@Core@IronMan@@U?$default_delete@VUEDecryptBuilder@SDK@Core@IronMan@@@std@@@std@@@std@@PEAX@std@@@1@PEAU01@@Z ; std::_List_node<std::pair<enum IronMan::Core::SDK::DecryptFunc const ,std::unique_ptr<IronMan::Core::SDK::UEDecryptBuilder,std::default_delete<IronMan::Core::SDK::UEDecryptBuilder> > >,void *>::_Freenode0<std::allocator<std::_List_node<std::pair<enum IronMan::Core::SDK::DecryptFunc const ,std::unique_ptr<IronMan::Core::SDK::UEDecryptBuilder,std::default_delete<IronMan::Core::SDK::UEDecryptBuilder> > >,void *> > >
PUBLIC	??$_Hash_representation@W4DecryptFunc@SDK@Core@IronMan@@@std@@YA_KAEBW4DecryptFunc@SDK@Core@IronMan@@@Z ; std::_Hash_representation<enum IronMan::Core::SDK::DecryptFunc>
PUBLIC	??$_Get_unwrapped@AEBQEA_K@std@@YA?A_TAEBQEA_K@Z ; std::_Get_unwrapped<unsigned __int64 * const &>
PUBLIC	??$_Copy_memmove@PEA_KPEA_K@std@@YAPEA_KPEA_K00@Z ; std::_Copy_memmove<unsigned __int64 *,unsigned __int64 *>
PUBLIC	??$_Emplace_back@_K@?$_Uninitialized_backout_al@V?$allocator@_K@std@@@std@@QEAAX$$QEA_K@Z ; std::_Uninitialized_backout_al<std::allocator<unsigned __int64> >::_Emplace_back<unsigned __int64>
PUBLIC	??$_To_address@PEA_K@std@@YA?A_PAEBQEA_K@Z	; std::_To_address<unsigned __int64 *>
PUBLIC	??$construct@_K$$V@?$_Default_allocator_traits@V?$allocator@_K@std@@@std@@SAXAEAV?$allocator@_K@1@QEA_K@Z ; std::_Default_allocator_traits<std::allocator<unsigned __int64> >::construct<unsigned __int64>
PUBLIC	??$_Get_unwrapped@AEBQEAUStringA@SDK@Core@IronMan@@@std@@YA?A_TAEBQEAUStringA@SDK@Core@IronMan@@@Z ; std::_Get_unwrapped<IronMan::Core::SDK::StringA * const &>
PUBLIC	??$move@AEAUStringA@SDK@Core@IronMan@@@std@@YA$$QEAUStringA@SDK@Core@IronMan@@AEAU1234@@Z ; std::move<IronMan::Core::SDK::StringA &>
PUBLIC	??$_Unfancy@UStringA@SDK@Core@IronMan@@@std@@YAPEAUStringA@SDK@Core@IronMan@@PEAU1234@@Z ; std::_Unfancy<IronMan::Core::SDK::StringA>
PUBLIC	??$_Copy_memmove@PEAUStringA@SDK@Core@IronMan@@PEAU1234@@std@@YAPEAUStringA@SDK@Core@IronMan@@PEAU1234@00@Z ; std::_Copy_memmove<IronMan::Core::SDK::StringA *,IronMan::Core::SDK::StringA *>
PUBLIC	??$_Emplace_back@UStringA@SDK@Core@IronMan@@@?$_Uninitialized_backout_al@V?$allocator@UStringA@SDK@Core@IronMan@@@std@@@std@@QEAAX$$QEAUStringA@SDK@Core@IronMan@@@Z ; std::_Uninitialized_backout_al<std::allocator<IronMan::Core::SDK::StringA> >::_Emplace_back<IronMan::Core::SDK::StringA>
PUBLIC	??$construct@UStringA@SDK@Core@IronMan@@$$V@?$_Default_allocator_traits@V?$allocator@UStringA@SDK@Core@IronMan@@@std@@@std@@SAXAEAV?$allocator@UStringA@SDK@Core@IronMan@@@1@QEAUStringA@SDK@Core@IronMan@@@Z ; std::_Default_allocator_traits<std::allocator<IronMan::Core::SDK::StringA> >::construct<IronMan::Core::SDK::StringA>
PUBLIC	??$?0U_Exact_args_t@std@@W4DecryptFunc@SDK@Core@IronMan@@$$V$0A@@?$tuple@$$QEAW4DecryptFunc@SDK@Core@IronMan@@@std@@QEAA@U_Exact_args_t@1@$$QEAW4DecryptFunc@SDK@Core@IronMan@@@Z ; std::tuple<enum IronMan::Core::SDK::DecryptFunc &&>::tuple<enum IronMan::Core::SDK::DecryptFunc &&><std::_Exact_args_t,enum IronMan::Core::SDK::DecryptFunc,0>
PUBLIC	??$?0$$QEAW4DecryptFunc@SDK@Core@IronMan@@$$Z$$V@?$pair@$$CBW4DecryptFunc@SDK@Core@IronMan@@V?$unique_ptr@VUEDecryptBuilder@SDK@Core@IronMan@@U?$default_delete@VUEDecryptBuilder@SDK@Core@IronMan@@@std@@@std@@@std@@QEAA@Upiecewise_construct_t@1@V?$tuple@$$QEAW4DecryptFunc@SDK@Core@IronMan@@@1@V?$tuple@$$V@1@@Z ; std::pair<enum IronMan::Core::SDK::DecryptFunc const ,std::unique_ptr<IronMan::Core::SDK::UEDecryptBuilder,std::default_delete<IronMan::Core::SDK::UEDecryptBuilder> > >::pair<enum IronMan::Core::SDK::DecryptFunc const ,std::unique_ptr<IronMan::Core::SDK::UEDecryptBuilder,std::default_delete<IronMan::Core::SDK::UEDecryptBuilder> > ><enum IronMan::Core::SDK::DecryptFunc &&>
PUBLIC	??$addressof@V?$_List_unchecked_iterator@V?$_List_val@U?$_List_simple_types@U?$pair@$$CB_KH@std@@@std@@@std@@@std@@@std@@YAPEAV?$_List_unchecked_iterator@V?$_List_val@U?$_List_simple_types@U?$pair@$$CB_KH@std@@@std@@@std@@@0@AEAV10@@Z ; std::addressof<std::_List_unchecked_iterator<std::_List_val<std::_List_simple_types<std::pair<unsigned __int64 const ,int> > > > >
PUBLIC	??$forward@AEBV?$_List_unchecked_iterator@V?$_List_val@U?$_List_simple_types@U?$pair@$$CBW4DecryptFunc@SDK@Core@IronMan@@V?$unique_ptr@VUEDecryptBuilder@SDK@Core@IronMan@@U?$default_delete@VUEDecryptBuilder@SDK@Core@IronMan@@@std@@@std@@@std@@@std@@@std@@@std@@@std@@YAAEBV?$_List_unchecked_iterator@V?$_List_val@U?$_List_simple_types@U?$pair@$$CBW4DecryptFunc@SDK@Core@IronMan@@V?$unique_ptr@VUEDecryptBuilder@SDK@Core@IronMan@@U?$default_delete@VUEDecryptBuilder@SDK@Core@IronMan@@@std@@@std@@@std@@@std@@@std@@@0@AEBV10@@Z ; std::forward<std::_List_unchecked_iterator<std::_List_val<std::_List_simple_types<std::pair<enum IronMan::Core::SDK::DecryptFunc const ,std::unique_ptr<IronMan::Core::SDK::UEDecryptBuilder,std::default_delete<IronMan::Core::SDK::UEDecryptBuilder> > > > > > const &>
PUBLIC	??$_Construct_in_place@V?$_List_unchecked_iterator@V?$_List_val@U?$_List_simple_types@U?$pair@$$CBW4DecryptFunc@SDK@Core@IronMan@@V?$unique_ptr@VUEDecryptBuilder@SDK@Core@IronMan@@U?$default_delete@VUEDecryptBuilder@SDK@Core@IronMan@@@std@@@std@@@std@@@std@@@std@@@std@@AEBV12@@std@@YAXAEAV?$_List_unchecked_iterator@V?$_List_val@U?$_List_simple_types@U?$pair@$$CBW4DecryptFunc@SDK@Core@IronMan@@V?$unique_ptr@VUEDecryptBuilder@SDK@Core@IronMan@@U?$default_delete@VUEDecryptBuilder@SDK@Core@IronMan@@@std@@@std@@@std@@@std@@@std@@@0@AEBV10@@Z ; std::_Construct_in_place<std::_List_unchecked_iterator<std::_List_val<std::_List_simple_types<std::pair<enum IronMan::Core::SDK::DecryptFunc const ,std::unique_ptr<IronMan::Core::SDK::UEDecryptBuilder,std::default_delete<IronMan::Core::SDK::UEDecryptBuilder> > > > > >,std::_List_unchecked_iterator<std::_List_val<std::_List_simple_types<std::pair<enum IronMan::Core::SDK::DecryptFunc const ,std::unique_ptr<IronMan::Core::SDK::UEDecryptBuilder,std::default_delete<IronMan::Core::SDK::UEDecryptBuilder> > > > > > const &>
PUBLIC	??$_Destroy_in_place@PEAU?$_List_node@U?$pair@$$CBW4DecryptFunc@SDK@Core@IronMan@@V?$unique_ptr@VUEDecryptBuilder@SDK@Core@IronMan@@U?$default_delete@VUEDecryptBuilder@SDK@Core@IronMan@@@std@@@std@@@std@@PEAX@std@@@std@@YAXAEAPEAU?$_List_node@U?$pair@$$CBW4DecryptFunc@SDK@Core@IronMan@@V?$unique_ptr@VUEDecryptBuilder@SDK@Core@IronMan@@U?$default_delete@VUEDecryptBuilder@SDK@Core@IronMan@@@std@@@std@@@std@@PEAX@0@@Z ; std::_Destroy_in_place<std::_List_node<std::pair<enum IronMan::Core::SDK::DecryptFunc const ,std::unique_ptr<IronMan::Core::SDK::UEDecryptBuilder,std::default_delete<IronMan::Core::SDK::UEDecryptBuilder> > >,void *> *>
PUBLIC	??$_Fnv1a_append_value@W4DecryptFunc@SDK@Core@IronMan@@@std@@YA_K_KAEBW4DecryptFunc@SDK@Core@IronMan@@@Z ; std::_Fnv1a_append_value<enum IronMan::Core::SDK::DecryptFunc>
PUBLIC	??$_Get_size_of_n@$0IA@@std@@YA_K_K@Z		; std::_Get_size_of_n<128>
PUBLIC	??$move@AEAPEA_K@std@@YA$$QEAPEA_KAEAPEA_K@Z	; std::move<unsigned __int64 * &>
PUBLIC	??$_Copy_memmove_tail@PEA_K@std@@YAPEA_KQEBDQEA_K_K2@Z ; std::_Copy_memmove_tail<unsigned __int64 *>
PUBLIC	??$construct@_K_K@?$_Default_allocator_traits@V?$allocator@_K@std@@@std@@SAXAEAV?$allocator@_K@1@QEA_K$$QEA_K@Z ; std::_Default_allocator_traits<std::allocator<unsigned __int64> >::construct<unsigned __int64,unsigned __int64>
PUBLIC	??$_To_address@PEAUStringA@SDK@Core@IronMan@@@std@@YA?A_PAEBQEAUStringA@SDK@Core@IronMan@@@Z ; std::_To_address<IronMan::Core::SDK::StringA *>
PUBLIC	??$move@AEAPEAUStringA@SDK@Core@IronMan@@@std@@YA$$QEAPEAUStringA@SDK@Core@IronMan@@AEAPEAU1234@@Z ; std::move<IronMan::Core::SDK::StringA * &>
PUBLIC	??$_Copy_memmove_tail@PEAUStringA@SDK@Core@IronMan@@@std@@YAPEAUStringA@SDK@Core@IronMan@@QEBDQEAU1234@_K2@Z ; std::_Copy_memmove_tail<IronMan::Core::SDK::StringA *>
PUBLIC	??$forward@UStringA@SDK@Core@IronMan@@@std@@YA$$QEAUStringA@SDK@Core@IronMan@@AEAU1234@@Z ; std::forward<IronMan::Core::SDK::StringA>
PUBLIC	??$construct@UStringA@SDK@Core@IronMan@@U1234@@?$_Default_allocator_traits@V?$allocator@UStringA@SDK@Core@IronMan@@@std@@@std@@SAXAEAV?$allocator@UStringA@SDK@Core@IronMan@@@1@QEAUStringA@SDK@Core@IronMan@@$$QEAU3456@@Z ; std::_Default_allocator_traits<std::allocator<IronMan::Core::SDK::StringA> >::construct<IronMan::Core::SDK::StringA,IronMan::Core::SDK::StringA>
PUBLIC	??$?0U_Exact_args_t@std@@$0A@@?$tuple@$$V@std@@QEAA@U_Exact_args_t@1@@Z ; std::tuple<>::tuple<><std::_Exact_args_t,0>
PUBLIC	??$?0W4DecryptFunc@SDK@Core@IronMan@@@?$_Tuple_val@$$QEAW4DecryptFunc@SDK@Core@IronMan@@@std@@QEAA@$$QEAW4DecryptFunc@SDK@Core@IronMan@@@Z ; std::_Tuple_val<enum IronMan::Core::SDK::DecryptFunc &&>::_Tuple_val<enum IronMan::Core::SDK::DecryptFunc &&><enum IronMan::Core::SDK::DecryptFunc>
PUBLIC	??$?0V?$tuple@$$QEAW4DecryptFunc@SDK@Core@IronMan@@@std@@V?$tuple@$$V@1@$0A@$$Z$S@?$pair@$$CBW4DecryptFunc@SDK@Core@IronMan@@V?$unique_ptr@VUEDecryptBuilder@SDK@Core@IronMan@@U?$default_delete@VUEDecryptBuilder@SDK@Core@IronMan@@@std@@@std@@@std@@AEAA@AEAV?$tuple@$$QEAW4DecryptFunc@SDK@Core@IronMan@@@1@AEAV?$tuple@$$V@1@U?$integer_sequence@_K$0A@@1@U?$integer_sequence@_K$S@1@@Z ; std::pair<enum IronMan::Core::SDK::DecryptFunc const ,std::unique_ptr<IronMan::Core::SDK::UEDecryptBuilder,std::default_delete<IronMan::Core::SDK::UEDecryptBuilder> > >::pair<enum IronMan::Core::SDK::DecryptFunc const ,std::unique_ptr<IronMan::Core::SDK::UEDecryptBuilder,std::default_delete<IronMan::Core::SDK::UEDecryptBuilder> > ><std::tuple<enum IronMan::Core::SDK::DecryptFunc &&>,std::tuple<>,0>
PUBLIC	??$addressof@V?$_List_unchecked_iterator@V?$_List_val@U?$_List_simple_types@U?$pair@$$CBW4DecryptFunc@SDK@Core@IronMan@@V?$unique_ptr@VUEDecryptBuilder@SDK@Core@IronMan@@U?$default_delete@VUEDecryptBuilder@SDK@Core@IronMan@@@std@@@std@@@std@@@std@@@std@@@std@@@std@@YAPEAV?$_List_unchecked_iterator@V?$_List_val@U?$_List_simple_types@U?$pair@$$CBW4DecryptFunc@SDK@Core@IronMan@@V?$unique_ptr@VUEDecryptBuilder@SDK@Core@IronMan@@U?$default_delete@VUEDecryptBuilder@SDK@Core@IronMan@@@std@@@std@@@std@@@std@@@std@@@0@AEAV10@@Z ; std::addressof<std::_List_unchecked_iterator<std::_List_val<std::_List_simple_types<std::pair<enum IronMan::Core::SDK::DecryptFunc const ,std::unique_ptr<IronMan::Core::SDK::UEDecryptBuilder,std::default_delete<IronMan::Core::SDK::UEDecryptBuilder> > > > > > >
PUBLIC	??$move@AEAV?$tuple@$$QEAW4DecryptFunc@SDK@Core@IronMan@@@std@@@std@@YA$$QEAV?$tuple@$$QEAW4DecryptFunc@SDK@Core@IronMan@@@0@AEAV10@@Z ; std::move<std::tuple<enum IronMan::Core::SDK::DecryptFunc &&> &>
PUBLIC	??$_Tuple_get@$0A@$$QEAW4DecryptFunc@SDK@Core@IronMan@@@std@@YA$$QEA_P$$QEAV?$tuple@$$QEAW4DecryptFunc@SDK@Core@IronMan@@@0@@Z ; std::_Tuple_get<0,enum IronMan::Core::SDK::DecryptFunc &&>
PUBLIC	??$?0U?$default_delete@VUEDecryptBuilder@SDK@Core@IronMan@@@std@@$0A@@?$unique_ptr@VUEDecryptBuilder@SDK@Core@IronMan@@U?$default_delete@VUEDecryptBuilder@SDK@Core@IronMan@@@std@@@std@@QEAA@XZ ; std::unique_ptr<IronMan::Core::SDK::UEDecryptBuilder,std::default_delete<IronMan::Core::SDK::UEDecryptBuilder> >::unique_ptr<IronMan::Core::SDK::UEDecryptBuilder,std::default_delete<IronMan::Core::SDK::UEDecryptBuilder> ><std::default_delete<IronMan::Core::SDK::UEDecryptBuilder>,0>
PUBLIC	??$?0$$V@?$_Compressed_pair@U?$default_delete@VUEDecryptBuilder@SDK@Core@IronMan@@@std@@PEAVUEDecryptBuilder@SDK@Core@IronMan@@$00@std@@QEAA@U_Zero_then_variadic_args_t@1@@Z ; std::_Compressed_pair<std::default_delete<IronMan::Core::SDK::UEDecryptBuilder>,IronMan::Core::SDK::UEDecryptBuilder *,1>::_Compressed_pair<std::default_delete<IronMan::Core::SDK::UEDecryptBuilder>,IronMan::Core::SDK::UEDecryptBuilder *,1><>
PUBLIC	?piecewise_construct@std@@3Upiecewise_construct_t@1@B ; std::piecewise_construct
PUBLIC	??_7exception@std@@6B@				; std::exception::`vftable'
PUBLIC	??_C@_0BC@EOODALEL@Unknown?5exception@		; `string'
PUBLIC	??_7bad_alloc@std@@6B@				; std::bad_alloc::`vftable'
PUBLIC	??_7bad_array_new_length@std@@6B@		; std::bad_array_new_length::`vftable'
PUBLIC	??_C@_0BF@KINCDENJ@bad?5array?5new?5length@	; `string'
PUBLIC	??_R0?AVexception@std@@@8			; std::exception `RTTI Type Descriptor'
PUBLIC	_CT??_R0?AVexception@std@@@8??0exception@std@@QEAA@AEBV01@@Z24
PUBLIC	_TI3?AVbad_array_new_length@std@@
PUBLIC	_CTA3?AVbad_array_new_length@std@@
PUBLIC	??_R0?AVbad_array_new_length@std@@@8		; std::bad_array_new_length `RTTI Type Descriptor'
PUBLIC	_CT??_R0?AVbad_array_new_length@std@@@8??0bad_array_new_length@std@@QEAA@AEBV01@@Z24
PUBLIC	??_R0?AVbad_alloc@std@@@8			; std::bad_alloc `RTTI Type Descriptor'
PUBLIC	_CT??_R0?AVbad_alloc@std@@@8??0bad_alloc@std@@QEAA@AEBV01@@Z24
PUBLIC	?_Fake_alloc@std@@3U_Fake_allocator@1@B		; std::_Fake_alloc
PUBLIC	??_C@_0BA@JFNIOLAK@string?5too?5long@		; `string'
PUBLIC	?UpdateStartTime@DMAHandler@IronMan@@0V?$time_point@Usystem_clock@chrono@std@@V?$duration@_JU?$ratio@$00$0JIJGIA@@std@@@23@@chrono@std@@A ; IronMan::DMAHandler::UpdateStartTime
PUBLIC	?ScatterWriteArray@DMAHandler@IronMan@@0V?$shared_ptr@V?$unordered_map@PEAXV?$vector@UScatterStruct@IronMan@@V?$allocator@UScatterStruct@IronMan@@@std@@@std@@U?$hash@PEAX@2@U?$equal_to@PEAX@2@V?$allocator@U?$pair@QEAXV?$vector@UScatterStruct@IronMan@@V?$allocator@UScatterStruct@IronMan@@@std@@@std@@@std@@@2@@std@@@std@@A ; IronMan::DMAHandler::ScatterWriteArray
PUBLIC	?ScatterReadArray@DMAHandler@IronMan@@0V?$shared_ptr@V?$unordered_map@PEAXV?$vector@UScatterStruct@IronMan@@V?$allocator@UScatterStruct@IronMan@@@std@@@std@@U?$hash@PEAX@2@U?$equal_to@PEAX@2@V?$allocator@U?$pair@QEAXV?$vector@UScatterStruct@IronMan@@V?$allocator@UScatterStruct@IronMan@@@std@@@std@@@std@@@2@@std@@@std@@A ; IronMan::DMAHandler::ScatterReadArray
PUBLIC	?processInfo@DMAHandler@IronMan@@0UBaseProcessInfo@2@A ; IronMan::DMAHandler::processInfo
PUBLIC	?ScatterNameArray@SDK@Core@IronMan@@3V?$vector@UStringA@SDK@Core@IronMan@@V?$allocator@UStringA@SDK@Core@IronMan@@@std@@@std@@A ; IronMan::Core::SDK::ScatterNameArray
PUBLIC	?GlobalNames@SDK@Core@IronMan@@3U?$UEEncryptedObjectProperty@PEAV?$TStaticIndirectArrayThreadSafeRead@VFNameEntry@SDK@Core@IronMan@@$0CAAAAA@@SDK@Core@IronMan@@$05@123@A ; IronMan::Core::SDK::GlobalNames
PUBLIC	?GNameStore@SDK@Core@IronMan@@3V?$unordered_map@_KHU?$hash@_K@std@@U?$equal_to@_K@2@V?$allocator@U?$pair@$$CB_KH@std@@@2@@std@@A ; IronMan::Core::SDK::GNameStore
PUBLIC	??_C@_0BE@NGAALGCH@?h?$IO?$LH?e?$IP?$JG?f?$JF?$LA?f?$IN?$KO?e?$KE?$LB?h?$LE?$KF?$CB@ ; `string'
PUBLIC	??_C@_0BA@EFNENICH@NameStoreEnd?3?$CFd@		; `string'
PUBLIC	??_C@_0BC@ECCJIJFO@?$FL?h?$LO?$JD?e?$IH?$LK?d?$LP?$KB?f?$IB?$KP?$FN?5?$CFs@ ; `string'
PUBLIC	??_C@_04OHJIHAFH@None@				; `string'
PUBLIC	?_Min_buckets@?$_Hash@V?$_Umap_traits@W4DecryptFunc@SDK@Core@IronMan@@V?$unique_ptr@VUEDecryptBuilder@SDK@Core@IronMan@@U?$default_delete@VUEDecryptBuilder@SDK@Core@IronMan@@@std@@@std@@V?$_Uhash_compare@W4DecryptFunc@SDK@Core@IronMan@@U?$hash@W4DecryptFunc@SDK@Core@IronMan@@@std@@U?$equal_to@W4DecryptFunc@SDK@Core@IronMan@@@6@@6@V?$allocator@U?$pair@$$CBW4DecryptFunc@SDK@Core@IronMan@@V?$unique_ptr@VUEDecryptBuilder@SDK@Core@IronMan@@U?$default_delete@VUEDecryptBuilder@SDK@Core@IronMan@@@std@@@std@@@std@@@6@$0A@@std@@@std@@2_KB ; std::_Hash<std::_Umap_traits<enum IronMan::Core::SDK::DecryptFunc,std::unique_ptr<IronMan::Core::SDK::UEDecryptBuilder,std::default_delete<IronMan::Core::SDK::UEDecryptBuilder> >,std::_Uhash_compare<enum IronMan::Core::SDK::DecryptFunc,std::hash<enum IronMan::Core::SDK::DecryptFunc>,std::equal_to<enum IronMan::Core::SDK::DecryptFunc> >,std::allocator<std::pair<enum IronMan::Core::SDK::DecryptFunc const ,std::unique_ptr<IronMan::Core::SDK::UEDecryptBuilder,std::default_delete<IronMan::Core::SDK::UEDecryptBuilder> > > >,0> >::_Min_buckets
PUBLIC	?id@?$num_put@DV?$ostreambuf_iterator@DU?$char_traits@D@std@@@std@@@std@@2V0locale@2@A ; std::num_put<char,std::ostreambuf_iterator<char,std::char_traits<char> > >::id
PUBLIC	?id@?$codecvt@DDU_Mbstatet@@@std@@2V0locale@2@A	; std::codecvt<char,char,_Mbstatet>::id
PUBLIC	?id@?$numpunct@D@std@@2V0locale@2@A		; std::numpunct<char>::id
PUBLIC	??_C@_0BA@FOIKENOD@vector?5too?5long@		; `string'
PUBLIC	??_C@_0BK@OGNNAFAB@invalid?5hash?5bucket?5count@ ; `string'
PUBLIC	?id@?$collate@D@std@@2V0locale@2@A		; std::collate<char>::id
PUBLIC	??_C@_0BL@GOIGLPKN@unordered_map?1set?5too?5long@ ; `string'
PUBLIC	??_R4exception@std@@6B@				; std::exception::`RTTI Complete Object Locator'
PUBLIC	??_R3exception@std@@8				; std::exception::`RTTI Class Hierarchy Descriptor'
PUBLIC	??_R2exception@std@@8				; std::exception::`RTTI Base Class Array'
PUBLIC	??_R1A@?0A@EA@exception@std@@8			; std::exception::`RTTI Base Class Descriptor at (0,-1,0,64)'
PUBLIC	??_R4bad_array_new_length@std@@6B@		; std::bad_array_new_length::`RTTI Complete Object Locator'
PUBLIC	??_R3bad_array_new_length@std@@8		; std::bad_array_new_length::`RTTI Class Hierarchy Descriptor'
PUBLIC	??_R2bad_array_new_length@std@@8		; std::bad_array_new_length::`RTTI Base Class Array'
PUBLIC	??_R1A@?0A@EA@bad_array_new_length@std@@8	; std::bad_array_new_length::`RTTI Base Class Descriptor at (0,-1,0,64)'
PUBLIC	??_R1A@?0A@EA@bad_alloc@std@@8			; std::bad_alloc::`RTTI Base Class Descriptor at (0,-1,0,64)'
PUBLIC	??_R3bad_alloc@std@@8				; std::bad_alloc::`RTTI Class Hierarchy Descriptor'
PUBLIC	??_R2bad_alloc@std@@8				; std::bad_alloc::`RTTI Base Class Array'
PUBLIC	??_R4bad_alloc@std@@6B@				; std::bad_alloc::`RTTI Complete Object Locator'
PUBLIC	__real@3f800000
PUBLIC	__real@5f000000
EXTRN	??2@YAPEAX_K@Z:PROC				; operator new
EXTRN	??3@YAXPEAX_K@Z:PROC				; operator delete
EXTRN	atexit:PROC
EXTRN	_invalid_parameter_noinfo_noreturn:PROC
EXTRN	memcpy:PROC
EXTRN	memmove:PROC
EXTRN	memset:PROC
EXTRN	strnlen:PROC
EXTRN	ceilf:PROC
EXTRN	?_Xlength_error@std@@YAXPEBD@Z:PROC		; std::_Xlength_error
EXTRN	__std_exception_copy:PROC
EXTRN	__std_exception_destroy:PROC
EXTRN	??_Eexception@std@@UEAAPEAXI@Z:PROC		; std::exception::`vector deleting destructor'
EXTRN	??_Ebad_alloc@std@@UEAAPEAXI@Z:PROC		; std::bad_alloc::`vector deleting destructor'
EXTRN	??_Ebad_array_new_length@std@@UEAAPEAXI@Z:PROC	; std::bad_array_new_length::`vector deleting destructor'
EXTRN	__imp_GetStdHandle:PROC
EXTRN	__imp_GetTickCount64:PROC
EXTRN	__imp_MessageBoxA:PROC
EXTRN	__imp_SetConsoleTextAttribute:PROC
EXTRN	_Xtime_get_ticks:PROC
EXTRN	?Print@Console@IronMan@@YA_NPEBDZZ:PROC		; IronMan::Console::Print
EXTRN	?FormatString@Utils@IronMan@@YA?AV?$basic_string@DU?$char_traits@D@std@@V?$allocator@D@2@@std@@PEBDZZ:PROC ; IronMan::Utils::FormatString
EXTRN	?IsSafeReadPtr@Utils@IronMan@@YA_NPEAX_K@Z:PROC	; IronMan::Utils::IsSafeReadPtr
EXTRN	__imp_WSAStartup:PROC
EXTRN	__imp_WSACleanup:PROC
EXTRN	OPENSSL_init_ssl:PROC
EXTRN	?Instance@DMAHandler@IronMan@@SAAEAV12@XZ:PROC	; IronMan::DMAHandler::Instance
EXTRN	?Read@DMAHandler@IronMan@@QEBAH_K00@Z:PROC	; IronMan::DMAHandler::Read
EXTRN	?ReadCache@DMAHandler@IronMan@@QEBAH_K00@Z:PROC	; IronMan::DMAHandler::ReadCache
EXTRN	?queueScatterReadEx@DMAHandler@IronMan@@QEAAXPEAX_K01@Z:PROC ; IronMan::DMAHandler::queueScatterReadEx
EXTRN	?executeScatterRead@DMAHandler@IronMan@@QEAAHPEAX@Z:PROC ; IronMan::DMAHandler::executeScatterRead
EXTRN	?createScatterHandle@DMAHandler@IronMan@@QEAAPEAXXZ:PROC ; IronMan::DMAHandler::createScatterHandle
EXTRN	?closeScatterHandle@DMAHandler@IronMan@@QEAAXAEAPEAX@Z:PROC ; IronMan::DMAHandler::closeScatterHandle
EXTRN	??1UEDecryptBuilder@SDK@Core@IronMan@@QEAA@XZ:PROC ; IronMan::Core::SDK::UEDecryptBuilder::~UEDecryptBuilder
EXTRN	_CxxThrowException:PROC
EXTRN	__CxxFrameHandler4:PROC
EXTRN	__GSHandlerCheck:PROC
EXTRN	__GSHandlerCheck_EH4:PROC
EXTRN	__security_check_cookie:PROC
EXTRN	memcmp:PROC
EXTRN	??_7type_info@@6B@:BYTE				; type_info::`vftable'
EXTRN	?g_PatternData@Core@IronMan@@3UPatternData@12@A:BYTE ; IronMan::Core::g_PatternData
EXTRN	?g_DecryptFuncs@SDK@Core@IronMan@@3V?$unordered_map@W4DecryptFunc@SDK@Core@IronMan@@V?$unique_ptr@VUEDecryptBuilder@SDK@Core@IronMan@@U?$default_delete@VUEDecryptBuilder@SDK@Core@IronMan@@@std@@@std@@U?$hash@W4DecryptFunc@SDK@Core@IronMan@@@6@U?$equal_to@W4DecryptFunc@SDK@Core@IronMan@@@6@V?$allocator@U?$pair@$$CBW4DecryptFunc@SDK@Core@IronMan@@V?$unique_ptr@VUEDecryptBuilder@SDK@Core@IronMan@@U?$default_delete@VUEDecryptBuilder@SDK@Core@IronMan@@@std@@@std@@@std@@@6@@std@@A:ZWORD ; IronMan::Core::SDK::g_DecryptFuncs
EXTRN	__security_cookie:QWORD
EXTRN	_fltused:DWORD
_BSS	SEGMENT
?wsinit_@detail@httplib@@3VWSInit@12@A DB 01H DUP (?)	; httplib::detail::wsinit_
	ALIGN	4

?sslinit_@detail@httplib@@3VSSLInit@12@A DB 01H DUP (?)	; httplib::detail::sslinit_
_BSS	ENDS
;	COMDAT ?UpdateStartTime@DMAHandler@IronMan@@0V?$time_point@Usystem_clock@chrono@std@@V?$duration@_JU?$ratio@$00$0JIJGIA@@std@@@23@@chrono@std@@A
_BSS	SEGMENT
?UpdateStartTime@DMAHandler@IronMan@@0V?$time_point@Usystem_clock@chrono@std@@V?$duration@_JU?$ratio@$00$0JIJGIA@@std@@@23@@chrono@std@@A DQ 01H DUP (?) ; IronMan::DMAHandler::UpdateStartTime
_BSS	ENDS
;	COMDAT ?processInfo@DMAHandler@IronMan@@0UBaseProcessInfo@2@A
_BSS	SEGMENT
?processInfo@DMAHandler@IronMan@@0UBaseProcessInfo@2@A DB 038H DUP (?) ; IronMan::DMAHandler::processInfo
_BSS	ENDS
_BSS	SEGMENT
	ALIGN	4

?ScatterNameArray@SDK@Core@IronMan@@3V?$vector@UStringA@SDK@Core@IronMan@@V?$allocator@UStringA@SDK@Core@IronMan@@@std@@@std@@A DB 018H DUP (?) ; IronMan::Core::SDK::ScatterNameArray
?GlobalNames@SDK@Core@IronMan@@3U?$UEEncryptedObjectProperty@PEAV?$TStaticIndirectArrayThreadSafeRead@VFNameEntry@SDK@Core@IronMan@@$0CAAAAA@@SDK@Core@IronMan@@$05@123@A DQ 01H DUP (?) ; IronMan::Core::SDK::GlobalNames
?NAME_None@SDK@Core@IronMan@@3UFName@123@A DQ 01H DUP (?) ; IronMan::Core::SDK::NAME_None
?GNameStore@SDK@Core@IronMan@@3V?$unordered_map@_KHU?$hash@_K@std@@U?$equal_to@_K@2@V?$allocator@U?$pair@$$CB_KH@std@@@2@@std@@A DB 040H DUP (?) ; IronMan::Core::SDK::GNameStore
_BSS	ENDS
;	COMDAT ?bInitNameFirst@?1??Initialize@NamesStore@SDK@Core@IronMan@@SA_NXZ@4_NA
_BSS	SEGMENT
?bInitNameFirst@?1??Initialize@NamesStore@SDK@Core@IronMan@@SA_NXZ@4_NA DB 01H DUP (?) ; `IronMan::Core::SDK::NamesStore::Initialize'::`2'::bInitNameFirst
_BSS	ENDS
;	COMDAT ?id@?$num_put@DV?$ostreambuf_iterator@DU?$char_traits@D@std@@@std@@@std@@2V0locale@2@A
_BSS	SEGMENT
?id@?$num_put@DV?$ostreambuf_iterator@DU?$char_traits@D@std@@@std@@@std@@2V0locale@2@A DQ 01H DUP (?) ; std::num_put<char,std::ostreambuf_iterator<char,std::char_traits<char> > >::id
_BSS	ENDS
;	COMDAT ?id@?$codecvt@DDU_Mbstatet@@@std@@2V0locale@2@A
_BSS	SEGMENT
?id@?$codecvt@DDU_Mbstatet@@@std@@2V0locale@2@A DQ 01H DUP (?) ; std::codecvt<char,char,_Mbstatet>::id
_BSS	ENDS
;	COMDAT ?id@?$numpunct@D@std@@2V0locale@2@A
_BSS	SEGMENT
?id@?$numpunct@D@std@@2V0locale@2@A DQ 01H DUP (?)	; std::numpunct<char>::id
_BSS	ENDS
;	COMDAT ?id@?$collate@D@std@@2V0locale@2@A
_BSS	SEGMENT
?id@?$collate@D@std@@2V0locale@2@A DQ 01H DUP (?)	; std::collate<char>::id
_BSS	ENDS
;	COMDAT pdata
pdata	SEGMENT
$pdata$??_H@YAXPEAX_K1P6APEAX0@Z@Z DD imagerel $LN5
	DD	imagerel $LN5+102
	DD	imagerel $unwind$??_H@YAXPEAX_K1P6APEAX0@Z@Z
pdata	ENDS
;	COMDAT pdata
pdata	SEGMENT
$pdata$?_Fnv1a_append_bytes@std@@YA_K_KQEBE_K@Z DD imagerel $LN6
	DD	imagerel $LN6+124
	DD	imagerel $unwind$?_Fnv1a_append_bytes@std@@YA_K_KQEBE_K@Z
pdata	ENDS
;	COMDAT pdata
pdata	SEGMENT
$pdata$?copy@?$_Char_traits@DH@std@@SAPEADQEADQEBD_K@Z DD imagerel $LN3
	DD	imagerel $LN3+49
	DD	imagerel $unwind$?copy@?$_Char_traits@DH@std@@SAPEADQEADQEBD_K@Z
pdata	ENDS
;	COMDAT pdata
pdata	SEGMENT
$pdata$?compare@?$_Narrow_char_traits@DH@std@@SAHQEBD0_K@Z DD imagerel $LN3
	DD	imagerel $LN3+44
	DD	imagerel $unwind$?compare@?$_Narrow_char_traits@DH@std@@SAHQEBD0_K@Z
pdata	ENDS
;	COMDAT pdata
pdata	SEGMENT
$pdata$?length@?$_Narrow_char_traits@DH@std@@SA_KQEBD@Z DD imagerel $LN4
	DD	imagerel $LN4+55
	DD	imagerel $unwind$?length@?$_Narrow_char_traits@DH@std@@SA_KQEBD@Z
pdata	ENDS
;	COMDAT pdata
pdata	SEGMENT
$pdata$??0exception@std@@QEAA@QEBDH@Z DD imagerel $LN3
	DD	imagerel $LN3+73
	DD	imagerel $unwind$??0exception@std@@QEAA@QEBDH@Z
pdata	ENDS
;	COMDAT pdata
pdata	SEGMENT
$pdata$??0exception@std@@QEAA@AEBV01@@Z DD imagerel $LN3
	DD	imagerel $LN3+89
	DD	imagerel $unwind$??0exception@std@@QEAA@AEBV01@@Z
pdata	ENDS
;	COMDAT pdata
pdata	SEGMENT
$pdata$??1exception@std@@UEAA@XZ DD imagerel $LN3
	DD	imagerel $LN3+47
	DD	imagerel $unwind$??1exception@std@@UEAA@XZ
pdata	ENDS
;	COMDAT pdata
pdata	SEGMENT
$pdata$?what@exception@std@@UEBAPEBDXZ DD imagerel $LN5
	DD	imagerel $LN5+56
	DD	imagerel $unwind$?what@exception@std@@UEBAPEBDXZ
pdata	ENDS
;	COMDAT pdata
pdata	SEGMENT
$pdata$??_Gexception@std@@UEAAPEAXI@Z DD imagerel $LN4
	DD	imagerel $LN4+60
	DD	imagerel $unwind$??_Gexception@std@@UEAAPEAXI@Z
pdata	ENDS
;	COMDAT pdata
pdata	SEGMENT
$pdata$??0bad_alloc@std@@AEAA@QEBD@Z DD imagerel $LN4
	DD	imagerel $LN4+61
	DD	imagerel $unwind$??0bad_alloc@std@@AEAA@QEBD@Z
pdata	ENDS
;	COMDAT pdata
pdata	SEGMENT
$pdata$?dtor$0@?0???0bad_alloc@std@@AEAA@QEBD@Z@4HA DD imagerel ?dtor$0@?0???0bad_alloc@std@@AEAA@QEBD@Z@4HA
	DD	imagerel ?dtor$0@?0???0bad_alloc@std@@AEAA@QEBD@Z@4HA+24
	DD	imagerel $unwind$?dtor$0@?0???0bad_alloc@std@@AEAA@QEBD@Z@4HA
pdata	ENDS
;	COMDAT pdata
pdata	SEGMENT
$pdata$??1bad_alloc@std@@UEAA@XZ DD imagerel $LN4
	DD	imagerel $LN4+25
	DD	imagerel $unwind$??1bad_alloc@std@@UEAA@XZ
pdata	ENDS
;	COMDAT pdata
pdata	SEGMENT
$pdata$?dtor$0@?0???1bad_alloc@std@@UEAA@XZ@4HA DD imagerel ?dtor$0@?0???1bad_alloc@std@@UEAA@XZ@4HA
	DD	imagerel ?dtor$0@?0???1bad_alloc@std@@UEAA@XZ@4HA+24
	DD	imagerel $unwind$?dtor$0@?0???1bad_alloc@std@@UEAA@XZ@4HA
pdata	ENDS
;	COMDAT pdata
pdata	SEGMENT
$pdata$??0bad_alloc@std@@QEAA@AEBV01@@Z DD imagerel $LN4
	DD	imagerel $LN4+55
	DD	imagerel $unwind$??0bad_alloc@std@@QEAA@AEBV01@@Z
pdata	ENDS
;	COMDAT pdata
pdata	SEGMENT
$pdata$?dtor$0@?0???0bad_alloc@std@@QEAA@AEBV01@@Z@4HA DD imagerel ?dtor$0@?0???0bad_alloc@std@@QEAA@AEBV01@@Z@4HA
	DD	imagerel ?dtor$0@?0???0bad_alloc@std@@QEAA@AEBV01@@Z@4HA+24
	DD	imagerel $unwind$?dtor$0@?0???0bad_alloc@std@@QEAA@AEBV01@@Z@4HA
pdata	ENDS
;	COMDAT pdata
pdata	SEGMENT
$pdata$??_Gbad_alloc@std@@UEAAPEAXI@Z DD imagerel $LN4
	DD	imagerel $LN4+60
	DD	imagerel $unwind$??_Gbad_alloc@std@@UEAAPEAXI@Z
pdata	ENDS
;	COMDAT pdata
pdata	SEGMENT
$pdata$??0bad_array_new_length@std@@QEAA@XZ DD imagerel $LN4
	DD	imagerel $LN4+52
	DD	imagerel $unwind$??0bad_array_new_length@std@@QEAA@XZ
pdata	ENDS
;	COMDAT pdata
pdata	SEGMENT
$pdata$?dtor$0@?0???0bad_array_new_length@std@@QEAA@XZ@4HA DD imagerel ?dtor$0@?0???0bad_array_new_length@std@@QEAA@XZ@4HA
	DD	imagerel ?dtor$0@?0???0bad_array_new_length@std@@QEAA@XZ@4HA+24
	DD	imagerel $unwind$?dtor$0@?0???0bad_array_new_length@std@@QEAA@XZ@4HA
pdata	ENDS
;	COMDAT pdata
pdata	SEGMENT
$pdata$??1bad_array_new_length@std@@UEAA@XZ DD imagerel $LN4
	DD	imagerel $LN4+25
	DD	imagerel $unwind$??1bad_array_new_length@std@@UEAA@XZ
pdata	ENDS
;	COMDAT pdata
pdata	SEGMENT
$pdata$?dtor$0@?0???1bad_array_new_length@std@@UEAA@XZ@4HA DD imagerel ?dtor$0@?0???1bad_array_new_length@std@@UEAA@XZ@4HA
	DD	imagerel ?dtor$0@?0???1bad_array_new_length@std@@UEAA@XZ@4HA+24
	DD	imagerel $unwind$?dtor$0@?0???1bad_array_new_length@std@@UEAA@XZ@4HA
pdata	ENDS
;	COMDAT pdata
pdata	SEGMENT
$pdata$??0bad_array_new_length@std@@QEAA@AEBV01@@Z DD imagerel $LN4
	DD	imagerel $LN4+55
	DD	imagerel $unwind$??0bad_array_new_length@std@@QEAA@AEBV01@@Z
pdata	ENDS
;	COMDAT pdata
pdata	SEGMENT
$pdata$?dtor$0@?0???0bad_array_new_length@std@@QEAA@AEBV01@@Z@4HA DD imagerel ?dtor$0@?0???0bad_array_new_length@std@@QEAA@AEBV01@@Z@4HA
	DD	imagerel ?dtor$0@?0???0bad_array_new_length@std@@QEAA@AEBV01@@Z@4HA+24
	DD	imagerel $unwind$?dtor$0@?0???0bad_array_new_length@std@@QEAA@AEBV01@@Z@4HA
pdata	ENDS
;	COMDAT pdata
pdata	SEGMENT
$pdata$??_Gbad_array_new_length@std@@UEAAPEAXI@Z DD imagerel $LN4
	DD	imagerel $LN4+60
	DD	imagerel $unwind$??_Gbad_array_new_length@std@@UEAAPEAXI@Z
pdata	ENDS
;	COMDAT pdata
pdata	SEGMENT
$pdata$?_Throw_bad_array_new_length@std@@YAXXZ DD imagerel $LN3
	DD	imagerel $LN3+37
	DD	imagerel $unwind$?_Throw_bad_array_new_length@std@@YAXXZ
pdata	ENDS
;	COMDAT pdata
pdata	SEGMENT
$pdata$?_Allocate@_Default_allocate_traits@std@@SAPEAX_K@Z DD imagerel $LN3
	DD	imagerel $LN3+24
	DD	imagerel $unwind$?_Allocate@_Default_allocate_traits@std@@SAPEAX_K@Z
pdata	ENDS
;	COMDAT pdata
pdata	SEGMENT
$pdata$?_Adjust_manually_vector_aligned@std@@YAXAEAPEAXAEA_K@Z DD imagerel $LN11
	DD	imagerel $LN11+154
	DD	imagerel $unwind$?_Adjust_manually_vector_aligned@std@@YAXAEAPEAXAEA_K@Z
pdata	ENDS
;	COMDAT pdata
pdata	SEGMENT
$pdata$?_Xlen_string@std@@YAXXZ DD imagerel $LN3
	DD	imagerel $LN3+22
	DD	imagerel $unwind$?_Xlen_string@std@@YAXXZ
pdata	ENDS
;	COMDAT pdata
pdata	SEGMENT
$pdata$?deallocate@?$allocator@D@std@@QEAAXQEAD_K@Z DD imagerel $LN3
	DD	imagerel $LN3+40
	DD	imagerel $unwind$?deallocate@?$allocator@D@std@@QEAAXQEAD_K@Z
pdata	ENDS
;	COMDAT pdata
pdata	SEGMENT
$pdata$?allocate@?$allocator@D@std@@QEAAPEAD_K@Z DD imagerel $LN3
	DD	imagerel $LN3+37
	DD	imagerel $unwind$?allocate@?$allocator@D@std@@QEAAPEAD_K@Z
pdata	ENDS
;	COMDAT pdata
pdata	SEGMENT
$pdata$??0?$_String_val@U?$_Simple_types@D@std@@@std@@QEAA@XZ DD imagerel $LN4
	DD	imagerel $LN4+59
	DD	imagerel $unwind$??0?$_String_val@U?$_Simple_types@D@std@@@std@@QEAA@XZ
pdata	ENDS
;	COMDAT pdata
pdata	SEGMENT
$pdata$?dtor$0@?0???0?$_String_val@U?$_Simple_types@D@std@@@std@@QEAA@XZ@4HA DD imagerel ?dtor$0@?0???0?$_String_val@U?$_Simple_types@D@std@@@std@@QEAA@XZ@4HA
	DD	imagerel ?dtor$0@?0???0?$_String_val@U?$_Simple_types@D@std@@@std@@QEAA@XZ@4HA+24
	DD	imagerel $unwind$?dtor$0@?0???0?$_String_val@U?$_Simple_types@D@std@@@std@@QEAA@XZ@4HA
pdata	ENDS
;	COMDAT pdata
pdata	SEGMENT
$pdata$?_Myptr@?$_String_val@U?$_Simple_types@D@std@@@std@@QEBAPEBDXZ DD imagerel $LN4
	DD	imagerel $LN4+64
	DD	imagerel $unwind$?_Myptr@?$_String_val@U?$_Simple_types@D@std@@@std@@QEBAPEBDXZ
pdata	ENDS
;	COMDAT pdata
pdata	SEGMENT
$pdata$?_Large_mode_engaged@?$_String_val@U?$_Simple_types@D@std@@@std@@QEBA_NXZ DD imagerel $LN5
	DD	imagerel $LN5+46
	DD	imagerel $unwind$?_Large_mode_engaged@?$_String_val@U?$_Simple_types@D@std@@@std@@QEBA_NXZ
pdata	ENDS
;	COMDAT pdata
pdata	SEGMENT
$pdata$??0_Bxty@?$_String_val@U?$_Simple_types@D@std@@@std@@QEAA@XZ DD imagerel $LN3
	DD	imagerel $LN3+32
	DD	imagerel $unwind$??0_Bxty@?$_String_val@U?$_Simple_types@D@std@@@std@@QEAA@XZ
pdata	ENDS
;	COMDAT pdata
pdata	SEGMENT
$pdata$?_Switch_to_buf@_Bxty@?$_String_val@U?$_Simple_types@D@std@@@std@@QEAAXXZ DD imagerel $LN3
	DD	imagerel $LN3+28
	DD	imagerel $unwind$?_Switch_to_buf@_Bxty@?$_String_val@U?$_Simple_types@D@std@@@std@@QEAAXXZ
pdata	ENDS
;	COMDAT pdata
pdata	SEGMENT
$pdata$??1?$_String_val@U?$_Simple_types@D@std@@@std@@QEAA@XZ DD imagerel $LN4
	DD	imagerel $LN4+28
	DD	imagerel $unwind$??1?$_String_val@U?$_Simple_types@D@std@@@std@@QEAA@XZ
pdata	ENDS
;	COMDAT pdata
pdata	SEGMENT
$pdata$?dtor$0@?0???1?$_String_val@U?$_Simple_types@D@std@@@std@@QEAA@XZ@4HA DD imagerel ?dtor$0@?0???1?$_String_val@U?$_Simple_types@D@std@@@std@@QEAA@XZ@4HA
	DD	imagerel ?dtor$0@?0???1?$_String_val@U?$_Simple_types@D@std@@@std@@QEAA@XZ@4HA+24
	DD	imagerel $unwind$?dtor$0@?0???1?$_String_val@U?$_Simple_types@D@std@@@std@@QEAA@XZ@4HA
pdata	ENDS
;	COMDAT pdata
pdata	SEGMENT
$pdata$??0?$basic_string@DU?$char_traits@D@std@@V?$allocator@D@2@@std@@QEAA@XZ DD imagerel $LN4
	DD	imagerel $LN4+56
	DD	imagerel $unwind$??0?$basic_string@DU?$char_traits@D@std@@V?$allocator@D@2@@std@@QEAA@XZ
pdata	ENDS
;	COMDAT pdata
pdata	SEGMENT
$pdata$?dtor$0@?0???0?$basic_string@DU?$char_traits@D@std@@V?$allocator@D@2@@std@@QEAA@XZ@4HA DD imagerel ?dtor$0@?0???0?$basic_string@DU?$char_traits@D@std@@V?$allocator@D@2@@std@@QEAA@XZ@4HA
	DD	imagerel ?dtor$0@?0???0?$basic_string@DU?$char_traits@D@std@@V?$allocator@D@2@@std@@QEAA@XZ@4HA+24
	DD	imagerel $unwind$?dtor$0@?0???0?$basic_string@DU?$char_traits@D@std@@V?$allocator@D@2@@std@@QEAA@XZ@4HA
pdata	ENDS
;	COMDAT pdata
pdata	SEGMENT
$pdata$??0?$basic_string@DU?$char_traits@D@std@@V?$allocator@D@2@@std@@QEAA@QEBD@Z DD imagerel $LN4
	DD	imagerel $LN4+87
	DD	imagerel $unwind$??0?$basic_string@DU?$char_traits@D@std@@V?$allocator@D@2@@std@@QEAA@QEBD@Z
pdata	ENDS
;	COMDAT pdata
pdata	SEGMENT
$pdata$?dtor$0@?0???0?$basic_string@DU?$char_traits@D@std@@V?$allocator@D@2@@std@@QEAA@QEBD@Z@4HA DD imagerel ?dtor$0@?0???0?$basic_string@DU?$char_traits@D@std@@V?$allocator@D@2@@std@@QEAA@QEBD@Z@4HA
	DD	imagerel ?dtor$0@?0???0?$basic_string@DU?$char_traits@D@std@@V?$allocator@D@2@@std@@QEAA@QEBD@Z@4HA+24
	DD	imagerel $unwind$?dtor$0@?0???0?$basic_string@DU?$char_traits@D@std@@V?$allocator@D@2@@std@@QEAA@QEBD@Z@4HA
pdata	ENDS
;	COMDAT pdata
pdata	SEGMENT
$pdata$?_Deallocate_for_capacity@?$basic_string@DU?$char_traits@D@std@@V?$allocator@D@2@@std@@CAXAEAV?$allocator@D@2@QEAD_K@Z DD imagerel $LN3
	DD	imagerel $LN3+51
	DD	imagerel $unwind$?_Deallocate_for_capacity@?$basic_string@DU?$char_traits@D@std@@V?$allocator@D@2@@std@@CAXAEAV?$allocator@D@2@QEAD_K@Z
pdata	ENDS
;	COMDAT pdata
pdata	SEGMENT
$pdata$?_Construct_empty@?$basic_string@DU?$char_traits@D@std@@V?$allocator@D@2@@std@@AEAAXXZ DD imagerel $LN3
	DD	imagerel $LN3+117
	DD	imagerel $unwind$?_Construct_empty@?$basic_string@DU?$char_traits@D@std@@V?$allocator@D@2@@std@@AEAAXXZ
pdata	ENDS
;	COMDAT pdata
pdata	SEGMENT
$pdata$??1?$basic_string@DU?$char_traits@D@std@@V?$allocator@D@2@@std@@QEAA@XZ DD imagerel $LN4
	DD	imagerel $LN4+39
	DD	imagerel $unwind$??1?$basic_string@DU?$char_traits@D@std@@V?$allocator@D@2@@std@@QEAA@XZ
pdata	ENDS
;	COMDAT pdata
pdata	SEGMENT
$pdata$?dtor$0@?0???1?$basic_string@DU?$char_traits@D@std@@V?$allocator@D@2@@std@@QEAA@XZ@4HA DD imagerel ?dtor$0@?0???1?$basic_string@DU?$char_traits@D@std@@V?$allocator@D@2@@std@@QEAA@XZ@4HA
	DD	imagerel ?dtor$0@?0???1?$basic_string@DU?$char_traits@D@std@@V?$allocator@D@2@@std@@QEAA@XZ@4HA+24
	DD	imagerel $unwind$?dtor$0@?0???1?$basic_string@DU?$char_traits@D@std@@V?$allocator@D@2@@std@@QEAA@XZ@4HA
pdata	ENDS
;	COMDAT pdata
pdata	SEGMENT
$pdata$?c_str@?$basic_string@DU?$char_traits@D@std@@V?$allocator@D@2@@std@@QEBAPEBDXZ DD imagerel $LN3
	DD	imagerel $LN3+27
	DD	imagerel $unwind$?c_str@?$basic_string@DU?$char_traits@D@std@@V?$allocator@D@2@@std@@QEBAPEBDXZ
pdata	ENDS
;	COMDAT pdata
pdata	SEGMENT
$pdata$?max_size@?$basic_string@DU?$char_traits@D@std@@V?$allocator@D@2@@std@@QEBA_KXZ DD imagerel $LN3
	DD	imagerel $LN3+110
	DD	imagerel $unwind$?max_size@?$basic_string@DU?$char_traits@D@std@@V?$allocator@D@2@@std@@QEBA_KXZ
pdata	ENDS
;	COMDAT pdata
pdata	SEGMENT
$pdata$?_Equal@?$basic_string@DU?$char_traits@D@std@@V?$allocator@D@2@@std@@QEBA_NQEBD@Z DD imagerel $LN3
	DD	imagerel $LN3+91
	DD	imagerel $unwind$?_Equal@?$basic_string@DU?$char_traits@D@std@@V?$allocator@D@2@@std@@QEBA_NQEBD@Z
pdata	ENDS
;	COMDAT pdata
pdata	SEGMENT
$pdata$?_Calculate_growth@?$basic_string@DU?$char_traits@D@std@@V?$allocator@D@2@@std@@CA_K_K00@Z DD imagerel $LN5
	DD	imagerel $LN5+146
	DD	imagerel $unwind$?_Calculate_growth@?$basic_string@DU?$char_traits@D@std@@V?$allocator@D@2@@std@@CA_K_K00@Z
pdata	ENDS
;	COMDAT pdata
pdata	SEGMENT
$pdata$?_Tidy_deallocate@?$basic_string@DU?$char_traits@D@std@@V?$allocator@D@2@@std@@AEAAXXZ DD imagerel $LN4
	DD	imagerel $LN4+173
	DD	imagerel $unwind$?_Tidy_deallocate@?$basic_string@DU?$char_traits@D@std@@V?$allocator@D@2@@std@@AEAAXXZ
pdata	ENDS
;	COMDAT pdata
pdata	SEGMENT
$pdata$?_Getal@?$basic_string@DU?$char_traits@D@std@@V?$allocator@D@2@@std@@AEAAAEAV?$allocator@D@2@XZ DD imagerel $LN3
	DD	imagerel $LN3+27
	DD	imagerel $unwind$?_Getal@?$basic_string@DU?$char_traits@D@std@@V?$allocator@D@2@@std@@AEAAAEAV?$allocator@D@2@XZ
pdata	ENDS
;	COMDAT pdata
pdata	SEGMENT
$pdata$?_Getal@?$basic_string@DU?$char_traits@D@std@@V?$allocator@D@2@@std@@AEBAAEBV?$allocator@D@2@XZ DD imagerel $LN3
	DD	imagerel $LN3+27
	DD	imagerel $unwind$?_Getal@?$basic_string@DU?$char_traits@D@std@@V?$allocator@D@2@@std@@AEBAAEBV?$allocator@D@2@XZ
pdata	ENDS
;	COMDAT pdata
pdata	SEGMENT
$pdata$??1?$_Compressed_pair@V?$allocator@D@std@@V?$_String_val@U?$_Simple_types@D@std@@@2@$00@std@@QEAA@XZ DD imagerel $LN4
	DD	imagerel $LN4+28
	DD	imagerel $unwind$??1?$_Compressed_pair@V?$allocator@D@std@@V?$_String_val@U?$_Simple_types@D@std@@@2@$00@std@@QEAA@XZ
pdata	ENDS
;	COMDAT pdata
pdata	SEGMENT
$pdata$?dtor$0@?0???1?$_Compressed_pair@V?$allocator@D@std@@V?$_String_val@U?$_Simple_types@D@std@@@2@$00@std@@QEAA@XZ@4HA DD imagerel ?dtor$0@?0???1?$_Compressed_pair@V?$allocator@D@std@@V?$_String_val@U?$_Simple_types@D@std@@@2@$00@std@@QEAA@XZ@4HA
	DD	imagerel ?dtor$0@?0???1?$_Compressed_pair@V?$allocator@D@std@@V?$_String_val@U?$_Simple_types@D@std@@@2@$00@std@@QEAA@XZ@4HA+24
	DD	imagerel $unwind$?dtor$0@?0???1?$_Compressed_pair@V?$allocator@D@std@@V?$_String_val@U?$_Simple_types@D@std@@@2@$00@std@@QEAA@XZ@4HA
pdata	ENDS
;	COMDAT pdata
pdata	SEGMENT
$pdata$?_Decref@_Ref_count_base@std@@QEAAXXZ DD imagerel $LN4
	DD	imagerel $LN4+66
	DD	imagerel $unwind$?_Decref@_Ref_count_base@std@@QEAAXXZ
pdata	ENDS
;	COMDAT pdata
pdata	SEGMENT
$pdata$?_Decwref@_Ref_count_base@std@@QEAAXXZ DD imagerel $LN4
	DD	imagerel $LN4+57
	DD	imagerel $unwind$?_Decwref@_Ref_count_base@std@@QEAAXXZ
pdata	ENDS
;	COMDAT pdata
pdata	SEGMENT
$pdata$?_Floor_of_log_2@std@@YAK_K@Z DD imagerel $LN3
	DD	imagerel $LN3+43
	DD	imagerel $unwind$?_Floor_of_log_2@std@@YAK_K@Z
pdata	ENDS
;	COMDAT pdata
pdata	SEGMENT
$pdata$?_Ceiling_of_log_2@std@@YAK_K@Z DD imagerel $LN3
	DD	imagerel $LN3+32
	DD	imagerel $unwind$?_Ceiling_of_log_2@std@@YAK_K@Z
pdata	ENDS
;	COMDAT pdata
pdata	SEGMENT
$pdata$??$min@_K@std@@YAAEB_KAEB_K0@Z DD imagerel $LN5
	DD	imagerel $LN5+71
	DD	imagerel $unwind$??$min@_K@std@@YAAEB_KAEB_K0@Z
pdata	ENDS
;	COMDAT pdata
pdata	SEGMENT
$pdata$??$?8DU?$char_traits@D@std@@V?$allocator@D@1@@std@@YA_NAEBV?$basic_string@DU?$char_traits@D@std@@V?$allocator@D@2@@0@QEBD@Z DD imagerel $LN3
	DD	imagerel $LN3+34
	DD	imagerel $unwind$??$?8DU?$char_traits@D@std@@V?$allocator@D@1@@std@@YA_NAEBV?$basic_string@DU?$char_traits@D@std@@V?$allocator@D@2@@0@QEBD@Z
pdata	ENDS
;	COMDAT pdata
pdata	SEGMENT
$pdata$??0WSInit@detail@httplib@@QEAA@XZ DD imagerel $LN4
	DD	imagerel $LN4+103
	DD	imagerel $unwind$??0WSInit@detail@httplib@@QEAA@XZ
pdata	ENDS
;	COMDAT pdata
pdata	SEGMENT
$pdata$??1WSInit@detail@httplib@@QEAA@XZ DD imagerel $LN4
	DD	imagerel $LN4+33
	DD	imagerel $unwind$??1WSInit@detail@httplib@@QEAA@XZ
pdata	ENDS
;	COMDAT pdata
pdata	SEGMENT
$pdata$??__Ewsinit_@detail@httplib@@YAXXZ DD imagerel ??__Ewsinit_@detail@httplib@@YAXXZ
	DD	imagerel ??__Ewsinit_@detail@httplib@@YAXXZ+34
	DD	imagerel $unwind$??__Ewsinit_@detail@httplib@@YAXXZ
pdata	ENDS
;	COMDAT pdata
pdata	SEGMENT
$pdata$??__Fwsinit_@detail@httplib@@YAXXZ DD imagerel ??__Fwsinit_@detail@httplib@@YAXXZ
	DD	imagerel ??__Fwsinit_@detail@httplib@@YAXXZ+22
	DD	imagerel $unwind$??__Fwsinit_@detail@httplib@@YAXXZ
pdata	ENDS
;	COMDAT pdata
pdata	SEGMENT
$pdata$??0SSLInit@detail@httplib@@QEAA@XZ DD imagerel $LN3
	DD	imagerel $LN3+32
	DD	imagerel $unwind$??0SSLInit@detail@httplib@@QEAA@XZ
pdata	ENDS
;	COMDAT pdata
pdata	SEGMENT
$pdata$??__Esslinit_@detail@httplib@@YAXXZ DD imagerel ??__Esslinit_@detail@httplib@@YAXXZ
	DD	imagerel ??__Esslinit_@detail@httplib@@YAXXZ+22
	DD	imagerel $unwind$??__Esslinit_@detail@httplib@@YAXXZ
pdata	ENDS
;	COMDAT pdata
pdata	SEGMENT
$pdata$?now@system_clock@chrono@std@@SA?AV?$time_point@Usystem_clock@chrono@std@@V?$duration@_JU?$ratio@$00$0JIJGIA@@std@@@23@@23@XZ DD imagerel $LN3
	DD	imagerel $LN3+58
	DD	imagerel $unwind$?now@system_clock@chrono@std@@SA?AV?$time_point@Usystem_clock@chrono@std@@V?$duration@_JU?$ratio@$00$0JIJGIA@@std@@@23@@23@XZ
pdata	ENDS
;	COMDAT pdata
pdata	SEGMENT
$pdata$??1BaseProcessInfo@IronMan@@QEAA@XZ DD imagerel $LN4
	DD	imagerel $LN4+32
	DD	imagerel $unwind$??1BaseProcessInfo@IronMan@@QEAA@XZ
pdata	ENDS
;	COMDAT pdata
pdata	SEGMENT
$pdata$?dtor$0@?0???1BaseProcessInfo@IronMan@@QEAA@XZ@4HA DD imagerel ?dtor$0@?0???1BaseProcessInfo@IronMan@@QEAA@XZ@4HA
	DD	imagerel ?dtor$0@?0???1BaseProcessInfo@IronMan@@QEAA@XZ@4HA+28
	DD	imagerel $unwind$?dtor$0@?0???1BaseProcessInfo@IronMan@@QEAA@XZ@4HA
pdata	ENDS
;	COMDAT pdata
pdata	SEGMENT
$pdata$??__E?UpdateStartTime@DMAHandler@IronMan@@0V?$time_point@Usystem_clock@chrono@std@@V?$duration@_JU?$ratio@$00$0JIJGIA@@std@@@23@@chrono@std@@A@@YAXXZ DD imagerel ??__E?UpdateStartTime@DMAHandler@IronMan@@0V?$time_point@Usystem_clock@chrono@std@@V?$duration@_JU?$ratio@$00$0JIJGIA@@std@@@23@@chrono@std@@A@@YAXXZ
	DD	imagerel ??__E?UpdateStartTime@DMAHandler@IronMan@@0V?$time_point@Usystem_clock@chrono@std@@V?$duration@_JU?$ratio@$00$0JIJGIA@@std@@@23@@chrono@std@@A@@YAXXZ+22
	DD	imagerel $unwind$??__E?UpdateStartTime@DMAHandler@IronMan@@0V?$time_point@Usystem_clock@chrono@std@@V?$duration@_JU?$ratio@$00$0JIJGIA@@std@@@23@@chrono@std@@A@@YAXXZ
pdata	ENDS
;	COMDAT pdata
pdata	SEGMENT
$pdata$?_Decref@?$_Ptr_base@V?$unordered_map@PEAXV?$vector@UScatterStruct@IronMan@@V?$allocator@UScatterStruct@IronMan@@@std@@@std@@U?$hash@PEAX@2@U?$equal_to@PEAX@2@V?$allocator@U?$pair@QEAXV?$vector@UScatterStruct@IronMan@@V?$allocator@UScatterStruct@IronMan@@@std@@@std@@@std@@@2@@std@@@std@@IEAAXXZ DD imagerel $LN4
	DD	imagerel $LN4+41
	DD	imagerel $unwind$?_Decref@?$_Ptr_base@V?$unordered_map@PEAXV?$vector@UScatterStruct@IronMan@@V?$allocator@UScatterStruct@IronMan@@@std@@@std@@U?$hash@PEAX@2@U?$equal_to@PEAX@2@V?$allocator@U?$pair@QEAXV?$vector@UScatterStruct@IronMan@@V?$allocator@UScatterStruct@IronMan@@@std@@@std@@@std@@@2@@std@@@std@@IEAAXXZ
pdata	ENDS
;	COMDAT pdata
pdata	SEGMENT
$pdata$??1?$shared_ptr@V?$unordered_map@PEAXV?$vector@UScatterStruct@IronMan@@V?$allocator@UScatterStruct@IronMan@@@std@@@std@@U?$hash@PEAX@2@U?$equal_to@PEAX@2@V?$allocator@U?$pair@QEAXV?$vector@UScatterStruct@IronMan@@V?$allocator@UScatterStruct@IronMan@@@std@@@std@@@std@@@2@@std@@@std@@QEAA@XZ DD imagerel $LN3
	DD	imagerel $LN3+25
	DD	imagerel $unwind$??1?$shared_ptr@V?$unordered_map@PEAXV?$vector@UScatterStruct@IronMan@@V?$allocator@UScatterStruct@IronMan@@@std@@@std@@U?$hash@PEAX@2@U?$equal_to@PEAX@2@V?$allocator@U?$pair@QEAXV?$vector@UScatterStruct@IronMan@@V?$allocator@UScatterStruct@IronMan@@@std@@@std@@@std@@@2@@std@@@std@@QEAA@XZ
pdata	ENDS
;	COMDAT pdata
pdata	SEGMENT
$pdata$??__E?ScatterWriteArray@DMAHandler@IronMan@@0V?$shared_ptr@V?$unordered_map@PEAXV?$vector@UScatterStruct@IronMan@@V?$allocator@UScatterStruct@IronMan@@@std@@@std@@U?$hash@PEAX@2@U?$equal_to@PEAX@2@V?$allocator@U?$pair@QEAXV?$vector@UScatterStruct@IronMan@@V?$allocator@UScatterStruct@IronMan@@@std@@@std@@@std@@@2@@std@@@std@@A@@YAXXZ DD imagerel ??__E?ScatterWriteArray@DMAHandler@IronMan@@0V?$shared_ptr@V?$unordered_map@PEAXV?$vector@UScatterStruct@IronMan@@V?$allocator@UScatterStruct@IronMan@@@std@@@std@@U?$hash@PEAX@2@U?$equal_to@PEAX@2@V?$allocator@U?$pair@QEAXV?$vector@UScatterStruct@IronMan@@V?$allocator@UScatterStruct@IronMan@@@std@@@std@@@std@@@2@@std@@@std@@A@@YAXXZ
	DD	imagerel ??__E?ScatterWriteArray@DMAHandler@IronMan@@0V?$shared_ptr@V?$unordered_map@PEAXV?$vector@UScatterStruct@IronMan@@V?$allocator@UScatterStruct@IronMan@@@std@@@std@@U?$hash@PEAX@2@U?$equal_to@PEAX@2@V?$allocator@U?$pair@QEAXV?$vector@UScatterStruct@IronMan@@V?$allocator@UScatterStruct@IronMan@@@std@@@std@@@std@@@2@@std@@@std@@A@@YAXXZ+22
	DD	imagerel $unwind$??__E?ScatterWriteArray@DMAHandler@IronMan@@0V?$shared_ptr@V?$unordered_map@PEAXV?$vector@UScatterStruct@IronMan@@V?$allocator@UScatterStruct@IronMan@@@std@@@std@@U?$hash@PEAX@2@U?$equal_to@PEAX@2@V?$allocator@U?$pair@QEAXV?$vector@UScatterStruct@IronMan@@V?$allocator@UScatterStruct@IronMan@@@std@@@std@@@std@@@2@@std@@@std@@A@@YAXXZ
pdata	ENDS
;	COMDAT pdata
pdata	SEGMENT
$pdata$??__F?ScatterWriteArray@DMAHandler@IronMan@@0V?$shared_ptr@V?$unordered_map@PEAXV?$vector@UScatterStruct@IronMan@@V?$allocator@UScatterStruct@IronMan@@@std@@@std@@U?$hash@PEAX@2@U?$equal_to@PEAX@2@V?$allocator@U?$pair@QEAXV?$vector@UScatterStruct@IronMan@@V?$allocator@UScatterStruct@IronMan@@@std@@@std@@@std@@@2@@std@@@std@@A@@YAXXZ DD imagerel ??__F?ScatterWriteArray@DMAHandler@IronMan@@0V?$shared_ptr@V?$unordered_map@PEAXV?$vector@UScatterStruct@IronMan@@V?$allocator@UScatterStruct@IronMan@@@std@@@std@@U?$hash@PEAX@2@U?$equal_to@PEAX@2@V?$allocator@U?$pair@QEAXV?$vector@UScatterStruct@IronMan@@V?$allocator@UScatterStruct@IronMan@@@std@@@std@@@std@@@2@@std@@@std@@A@@YAXXZ
	DD	imagerel ??__F?ScatterWriteArray@DMAHandler@IronMan@@0V?$shared_ptr@V?$unordered_map@PEAXV?$vector@UScatterStruct@IronMan@@V?$allocator@UScatterStruct@IronMan@@@std@@@std@@U?$hash@PEAX@2@U?$equal_to@PEAX@2@V?$allocator@U?$pair@QEAXV?$vector@UScatterStruct@IronMan@@V?$allocator@UScatterStruct@IronMan@@@std@@@std@@@std@@@2@@std@@@std@@A@@YAXXZ+22
	DD	imagerel $unwind$??__F?ScatterWriteArray@DMAHandler@IronMan@@0V?$shared_ptr@V?$unordered_map@PEAXV?$vector@UScatterStruct@IronMan@@V?$allocator@UScatterStruct@IronMan@@@std@@@std@@U?$hash@PEAX@2@U?$equal_to@PEAX@2@V?$allocator@U?$pair@QEAXV?$vector@UScatterStruct@IronMan@@V?$allocator@UScatterStruct@IronMan@@@std@@@std@@@std@@@2@@std@@@std@@A@@YAXXZ
pdata	ENDS
;	COMDAT pdata
pdata	SEGMENT
$pdata$??__E?ScatterReadArray@DMAHandler@IronMan@@0V?$shared_ptr@V?$unordered_map@PEAXV?$vector@UScatterStruct@IronMan@@V?$allocator@UScatterStruct@IronMan@@@std@@@std@@U?$hash@PEAX@2@U?$equal_to@PEAX@2@V?$allocator@U?$pair@QEAXV?$vector@UScatterStruct@IronMan@@V?$allocator@UScatterStruct@IronMan@@@std@@@std@@@std@@@2@@std@@@std@@A@@YAXXZ DD imagerel ??__E?ScatterReadArray@DMAHandler@IronMan@@0V?$shared_ptr@V?$unordered_map@PEAXV?$vector@UScatterStruct@IronMan@@V?$allocator@UScatterStruct@IronMan@@@std@@@std@@U?$hash@PEAX@2@U?$equal_to@PEAX@2@V?$allocator@U?$pair@QEAXV?$vector@UScatterStruct@IronMan@@V?$allocator@UScatterStruct@IronMan@@@std@@@std@@@std@@@2@@std@@@std@@A@@YAXXZ
	DD	imagerel ??__E?ScatterReadArray@DMAHandler@IronMan@@0V?$shared_ptr@V?$unordered_map@PEAXV?$vector@UScatterStruct@IronMan@@V?$allocator@UScatterStruct@IronMan@@@std@@@std@@U?$hash@PEAX@2@U?$equal_to@PEAX@2@V?$allocator@U?$pair@QEAXV?$vector@UScatterStruct@IronMan@@V?$allocator@UScatterStruct@IronMan@@@std@@@std@@@std@@@2@@std@@@std@@A@@YAXXZ+22
	DD	imagerel $unwind$??__E?ScatterReadArray@DMAHandler@IronMan@@0V?$shared_ptr@V?$unordered_map@PEAXV?$vector@UScatterStruct@IronMan@@V?$allocator@UScatterStruct@IronMan@@@std@@@std@@U?$hash@PEAX@2@U?$equal_to@PEAX@2@V?$allocator@U?$pair@QEAXV?$vector@UScatterStruct@IronMan@@V?$allocator@UScatterStruct@IronMan@@@std@@@std@@@std@@@2@@std@@@std@@A@@YAXXZ
pdata	ENDS
;	COMDAT pdata
pdata	SEGMENT
$pdata$??__F?ScatterReadArray@DMAHandler@IronMan@@0V?$shared_ptr@V?$unordered_map@PEAXV?$vector@UScatterStruct@IronMan@@V?$allocator@UScatterStruct@IronMan@@@std@@@std@@U?$hash@PEAX@2@U?$equal_to@PEAX@2@V?$allocator@U?$pair@QEAXV?$vector@UScatterStruct@IronMan@@V?$allocator@UScatterStruct@IronMan@@@std@@@std@@@std@@@2@@std@@@std@@A@@YAXXZ DD imagerel ??__F?ScatterReadArray@DMAHandler@IronMan@@0V?$shared_ptr@V?$unordered_map@PEAXV?$vector@UScatterStruct@IronMan@@V?$allocator@UScatterStruct@IronMan@@@std@@@std@@U?$hash@PEAX@2@U?$equal_to@PEAX@2@V?$allocator@U?$pair@QEAXV?$vector@UScatterStruct@IronMan@@V?$allocator@UScatterStruct@IronMan@@@std@@@std@@@std@@@2@@std@@@std@@A@@YAXXZ
	DD	imagerel ??__F?ScatterReadArray@DMAHandler@IronMan@@0V?$shared_ptr@V?$unordered_map@PEAXV?$vector@UScatterStruct@IronMan@@V?$allocator@UScatterStruct@IronMan@@@std@@@std@@U?$hash@PEAX@2@U?$equal_to@PEAX@2@V?$allocator@U?$pair@QEAXV?$vector@UScatterStruct@IronMan@@V?$allocator@UScatterStruct@IronMan@@@std@@@std@@@std@@@2@@std@@@std@@A@@YAXXZ+22
	DD	imagerel $unwind$??__F?ScatterReadArray@DMAHandler@IronMan@@0V?$shared_ptr@V?$unordered_map@PEAXV?$vector@UScatterStruct@IronMan@@V?$allocator@UScatterStruct@IronMan@@@std@@@std@@U?$hash@PEAX@2@U?$equal_to@PEAX@2@V?$allocator@U?$pair@QEAXV?$vector@UScatterStruct@IronMan@@V?$allocator@UScatterStruct@IronMan@@@std@@@std@@@std@@@2@@std@@@std@@A@@YAXXZ
pdata	ENDS
;	COMDAT pdata
pdata	SEGMENT
$pdata$??__E?processInfo@DMAHandler@IronMan@@0UBaseProcessInfo@2@A@@YAXXZ DD imagerel ??__E?processInfo@DMAHandler@IronMan@@0UBaseProcessInfo@2@A@@YAXXZ
	DD	imagerel ??__E?processInfo@DMAHandler@IronMan@@0UBaseProcessInfo@2@A@@YAXXZ+78
	DD	imagerel $unwind$??__E?processInfo@DMAHandler@IronMan@@0UBaseProcessInfo@2@A@@YAXXZ
pdata	ENDS
;	COMDAT pdata
pdata	SEGMENT
$pdata$?dtor$0@?0???__E?processInfo@DMAHandler@IronMan@@0UBaseProcessInfo@2@A@@YAXXZ@4HA DD imagerel ?dtor$0@?0???__E?processInfo@DMAHandler@IronMan@@0UBaseProcessInfo@2@A@@YAXXZ@4HA
	DD	imagerel ?dtor$0@?0???__E?processInfo@DMAHandler@IronMan@@0UBaseProcessInfo@2@A@@YAXXZ@4HA+27
	DD	imagerel $unwind$?dtor$0@?0???__E?processInfo@DMAHandler@IronMan@@0UBaseProcessInfo@2@A@@YAXXZ@4HA
pdata	ENDS
;	COMDAT pdata
pdata	SEGMENT
$pdata$??__F?processInfo@DMAHandler@IronMan@@0UBaseProcessInfo@2@A@@YAXXZ DD imagerel ??__F?processInfo@DMAHandler@IronMan@@0UBaseProcessInfo@2@A@@YAXXZ
	DD	imagerel ??__F?processInfo@DMAHandler@IronMan@@0UBaseProcessInfo@2@A@@YAXXZ+22
	DD	imagerel $unwind$??__F?processInfo@DMAHandler@IronMan@@0UBaseProcessInfo@2@A@@YAXXZ
pdata	ENDS
;	COMDAT pdata
pdata	SEGMENT
$pdata$?GetDMA@IronMan@@YAAEAVDMAHandler@1@XZ DD imagerel $LN3
	DD	imagerel $LN3+14
	DD	imagerel $unwind$?GetDMA@IronMan@@YAAEAVDMAHandler@1@XZ
pdata	ENDS
;	COMDAT pdata
pdata	SEGMENT
$pdata$??0?$_Uhash_compare@_KU?$hash@_K@std@@U?$equal_to@_K@2@@std@@QEAA@XZ DD imagerel $LN3
	DD	imagerel $LN3+64
	DD	imagerel $unwind$??0?$_Uhash_compare@_KU?$hash@_K@std@@U?$equal_to@_K@2@@std@@QEAA@XZ
pdata	ENDS
;	COMDAT pdata
pdata	SEGMENT
$pdata$??_GUEDecryptBuilder@SDK@Core@IronMan@@QEAAPEAXI@Z DD imagerel $LN4
	DD	imagerel $LN4+60
	DD	imagerel $unwind$??_GUEDecryptBuilder@SDK@Core@IronMan@@QEAAPEAXI@Z
pdata	ENDS
;	COMDAT pdata
pdata	SEGMENT
$pdata$?STATIC_Get@?$UEEncryptedObjectProperty@PEAV?$TStaticIndirectArrayThreadSafeRead@VFNameEntry@SDK@Core@IronMan@@$0CAAAAA@@SDK@Core@IronMan@@$05@SDK@Core@IronMan@@SAPEAV?$TStaticIndirectArrayThreadSafeRead@VFNameEntry@SDK@Core@IronMan@@$0CAAAAA@@234@_K@Z DD imagerel $LN5
	DD	imagerel $LN5+121
	DD	imagerel $unwind$?STATIC_Get@?$UEEncryptedObjectProperty@PEAV?$TStaticIndirectArrayThreadSafeRead@VFNameEntry@SDK@Core@IronMan@@$0CAAAAA@@SDK@Core@IronMan@@$05@SDK@Core@IronMan@@SAPEAV?$TStaticIndirectArrayThreadSafeRead@VFNameEntry@SDK@Core@IronMan@@$0CAAAAA@@234@_K@Z
pdata	ENDS
;	COMDAT pdata
pdata	SEGMENT
$pdata$?Get@?$UEEncryptedObjectProperty@PEAV?$TStaticIndirectArrayThreadSafeRead@VFNameEntry@SDK@Core@IronMan@@$0CAAAAA@@SDK@Core@IronMan@@$05@SDK@Core@IronMan@@QEBAPEAV?$TStaticIndirectArrayThreadSafeRead@VFNameEntry@SDK@Core@IronMan@@$0CAAAAA@@234@XZ DD imagerel $LN3
	DD	imagerel $LN3+27
	DD	imagerel $unwind$?Get@?$UEEncryptedObjectProperty@PEAV?$TStaticIndirectArrayThreadSafeRead@VFNameEntry@SDK@Core@IronMan@@$0CAAAAA@@SDK@Core@IronMan@@$05@SDK@Core@IronMan@@QEBAPEAV?$TStaticIndirectArrayThreadSafeRead@VFNameEntry@SDK@Core@IronMan@@$0CAAAAA@@234@XZ
pdata	ENDS
;	COMDAT pdata
pdata	SEGMENT
$pdata$??C?$UEEncryptedObjectProperty@PEAV?$TStaticIndirectArrayThreadSafeRead@VFNameEntry@SDK@Core@IronMan@@$0CAAAAA@@SDK@Core@IronMan@@$05@SDK@Core@IronMan@@QEBAPEAV?$TStaticIndirectArrayThreadSafeRead@VFNameEntry@SDK@Core@IronMan@@$0CAAAAA@@123@XZ DD imagerel $LN3
	DD	imagerel $LN3+24
	DD	imagerel $unwind$??C?$UEEncryptedObjectProperty@PEAV?$TStaticIndirectArrayThreadSafeRead@VFNameEntry@SDK@Core@IronMan@@$0CAAAAA@@SDK@Core@IronMan@@$05@SDK@Core@IronMan@@QEBAPEAV?$TStaticIndirectArrayThreadSafeRead@VFNameEntry@SDK@Core@IronMan@@$0CAAAAA@@123@XZ
pdata	ENDS
;	COMDAT pdata
pdata	SEGMENT
$pdata$?Num@?$TStaticIndirectArrayThreadSafeRead@VFNameEntry@SDK@Core@IronMan@@$0CAAAAA@@SDK@Core@IronMan@@QEBAHXZ DD imagerel $LN3
	DD	imagerel $LN3+75
	DD	imagerel $unwind$?Num@?$TStaticIndirectArrayThreadSafeRead@VFNameEntry@SDK@Core@IronMan@@$0CAAAAA@@SDK@Core@IronMan@@QEBAHXZ
pdata	ENDS
;	COMDAT pdata
pdata	SEGMENT
$pdata$?IsValidIndex@?$TStaticIndirectArrayThreadSafeRead@VFNameEntry@SDK@Core@IronMan@@$0CAAAAA@@SDK@Core@IronMan@@QEBA_NH@Z DD imagerel $LN5
	DD	imagerel $LN5+83
	DD	imagerel $unwind$?IsValidIndex@?$TStaticIndirectArrayThreadSafeRead@VFNameEntry@SDK@Core@IronMan@@$0CAAAAA@@SDK@Core@IronMan@@QEBA_NH@Z
pdata	ENDS
;	COMDAT pdata
pdata	SEGMENT
$pdata$?GetPtrById@?$TStaticIndirectArrayThreadSafeRead@VFNameEntry@SDK@Core@IronMan@@$0CAAAAA@@SDK@Core@IronMan@@QEBAPEAVFNameEntry@234@H@Z DD imagerel $LN5
	DD	imagerel $LN5+134
	DD	imagerel $unwind$?GetPtrById@?$TStaticIndirectArrayThreadSafeRead@VFNameEntry@SDK@Core@IronMan@@$0CAAAAA@@SDK@Core@IronMan@@QEBAPEAVFNameEntry@234@H@Z
pdata	ENDS
;	COMDAT pdata
pdata	SEGMENT
$pdata$?GetById@?$TStaticIndirectArrayThreadSafeRead@VFNameEntry@SDK@Core@IronMan@@$0CAAAAA@@SDK@Core@IronMan@@QEBA?AVFNameEntry@234@H@Z DD imagerel $LN5
	DD	imagerel $LN5+242
	DD	imagerel $unwind$?GetById@?$TStaticIndirectArrayThreadSafeRead@VFNameEntry@SDK@Core@IronMan@@$0CAAAAA@@SDK@Core@IronMan@@QEBA?AVFNameEntry@234@H@Z
pdata	ENDS
;	COMDAT pdata
pdata	SEGMENT
$pdata$?GetItemPtr@?$TStaticIndirectArrayThreadSafeRead@VFNameEntry@SDK@Core@IronMan@@$0CAAAAA@@SDK@Core@IronMan@@AEBAPEAPEAVFNameEntry@234@H@Z DD imagerel $LN15
	DD	imagerel $LN15+631
	DD	imagerel $unwind$?GetItemPtr@?$TStaticIndirectArrayThreadSafeRead@VFNameEntry@SDK@Core@IronMan@@$0CAAAAA@@SDK@Core@IronMan@@AEBAPEAPEAVFNameEntry@234@H@Z
pdata	ENDS
;	COMDAT pdata
pdata	SEGMENT
$pdata$?STATIC_Get@?$UEEncryptedObjectProperty@PEAPEAPEAVFNameEntry@SDK@Core@IronMan@@$05@SDK@Core@IronMan@@SAPEAPEAPEAVFNameEntry@234@_K@Z DD imagerel $LN5
	DD	imagerel $LN5+121
	DD	imagerel $unwind$?STATIC_Get@?$UEEncryptedObjectProperty@PEAPEAPEAVFNameEntry@SDK@Core@IronMan@@$05@SDK@Core@IronMan@@SAPEAPEAPEAVFNameEntry@234@_K@Z
pdata	ENDS
;	COMDAT pdata
pdata	SEGMENT
$pdata$?Get@?$UEEncryptedObjectProperty@PEAPEAPEAVFNameEntry@SDK@Core@IronMan@@$05@SDK@Core@IronMan@@QEBAPEAPEAPEAVFNameEntry@234@XZ DD imagerel $LN3
	DD	imagerel $LN3+27
	DD	imagerel $unwind$?Get@?$UEEncryptedObjectProperty@PEAPEAPEAVFNameEntry@SDK@Core@IronMan@@$05@SDK@Core@IronMan@@QEBAPEAPEAPEAVFNameEntry@234@XZ
pdata	ENDS
;	COMDAT pdata
pdata	SEGMENT
$pdata$?deallocate@?$allocator@UStringA@SDK@Core@IronMan@@@std@@QEAAXQEAUStringA@SDK@Core@IronMan@@_K@Z DD imagerel $LN3
	DD	imagerel $LN3+47
	DD	imagerel $unwind$?deallocate@?$allocator@UStringA@SDK@Core@IronMan@@@std@@QEAAXQEAUStringA@SDK@Core@IronMan@@_K@Z
pdata	ENDS
;	COMDAT pdata
pdata	SEGMENT
$pdata$?allocate@?$allocator@UStringA@SDK@Core@IronMan@@@std@@QEAAPEAUStringA@SDK@Core@IronMan@@_K@Z DD imagerel $LN3
	DD	imagerel $LN3+37
	DD	imagerel $unwind$?allocate@?$allocator@UStringA@SDK@Core@IronMan@@@std@@QEAAPEAUStringA@SDK@Core@IronMan@@_K@Z
pdata	ENDS
;	COMDAT pdata
pdata	SEGMENT
$pdata$??0?$vector@UStringA@SDK@Core@IronMan@@V?$allocator@UStringA@SDK@Core@IronMan@@@std@@@std@@QEAA@XZ DD imagerel $LN3
	DD	imagerel $LN3+73
	DD	imagerel $unwind$??0?$vector@UStringA@SDK@Core@IronMan@@V?$allocator@UStringA@SDK@Core@IronMan@@@std@@@std@@QEAA@XZ
pdata	ENDS
;	COMDAT pdata
pdata	SEGMENT
$pdata$??1?$vector@UStringA@SDK@Core@IronMan@@V?$allocator@UStringA@SDK@Core@IronMan@@@std@@@std@@QEAA@XZ DD imagerel $LN3
	DD	imagerel $LN3+25
	DD	imagerel $unwind$??1?$vector@UStringA@SDK@Core@IronMan@@V?$allocator@UStringA@SDK@Core@IronMan@@@std@@@std@@QEAA@XZ
pdata	ENDS
;	COMDAT pdata
pdata	SEGMENT
$pdata$?resize@?$vector@UStringA@SDK@Core@IronMan@@V?$allocator@UStringA@SDK@Core@IronMan@@@std@@@std@@QEAAX_K@Z DD imagerel $LN3
	DD	imagerel $LN3+40
	DD	imagerel $unwind$?resize@?$vector@UStringA@SDK@Core@IronMan@@V?$allocator@UStringA@SDK@Core@IronMan@@@std@@@std@@QEAAX_K@Z
pdata	ENDS
;	COMDAT pdata
pdata	SEGMENT
$pdata$?data@?$vector@UStringA@SDK@Core@IronMan@@V?$allocator@UStringA@SDK@Core@IronMan@@@std@@@std@@QEAAPEAUStringA@SDK@Core@IronMan@@XZ DD imagerel $LN3
	DD	imagerel $LN3+27
	DD	imagerel $unwind$?data@?$vector@UStringA@SDK@Core@IronMan@@V?$allocator@UStringA@SDK@Core@IronMan@@@std@@@std@@QEAAPEAUStringA@SDK@Core@IronMan@@XZ
pdata	ENDS
;	COMDAT pdata
pdata	SEGMENT
$pdata$?max_size@?$vector@UStringA@SDK@Core@IronMan@@V?$allocator@UStringA@SDK@Core@IronMan@@@std@@@std@@QEBA_KXZ DD imagerel $LN3
	DD	imagerel $LN3+65
	DD	imagerel $unwind$?max_size@?$vector@UStringA@SDK@Core@IronMan@@V?$allocator@UStringA@SDK@Core@IronMan@@@std@@@std@@QEBA_KXZ
pdata	ENDS
;	COMDAT pdata
pdata	SEGMENT
$pdata$?capacity@?$vector@UStringA@SDK@Core@IronMan@@V?$allocator@UStringA@SDK@Core@IronMan@@@std@@@std@@QEBA_KXZ DD imagerel $LN3
	DD	imagerel $LN3+45
	DD	imagerel $unwind$?capacity@?$vector@UStringA@SDK@Core@IronMan@@V?$allocator@UStringA@SDK@Core@IronMan@@@std@@@std@@QEBA_KXZ
pdata	ENDS
;	COMDAT pdata
pdata	SEGMENT
$pdata$??A?$vector@UStringA@SDK@Core@IronMan@@V?$allocator@UStringA@SDK@Core@IronMan@@@std@@@std@@QEAAAEAUStringA@SDK@Core@IronMan@@_K@Z DD imagerel $LN3
	DD	imagerel $LN3+44
	DD	imagerel $unwind$??A?$vector@UStringA@SDK@Core@IronMan@@V?$allocator@UStringA@SDK@Core@IronMan@@@std@@@std@@QEAAAEAUStringA@SDK@Core@IronMan@@_K@Z
pdata	ENDS
;	COMDAT pdata
pdata	SEGMENT
$pdata$?_Calculate_growth@?$vector@UStringA@SDK@Core@IronMan@@V?$allocator@UStringA@SDK@Core@IronMan@@@std@@@std@@AEBA_K_K@Z DD imagerel $LN5
	DD	imagerel $LN5+144
	DD	imagerel $unwind$?_Calculate_growth@?$vector@UStringA@SDK@Core@IronMan@@V?$allocator@UStringA@SDK@Core@IronMan@@@std@@@std@@AEBA_K_K@Z
pdata	ENDS
;	COMDAT pdata
pdata	SEGMENT
$pdata$?_Change_array@?$vector@UStringA@SDK@Core@IronMan@@V?$allocator@UStringA@SDK@Core@IronMan@@@std@@@std@@AEAAXQEAUStringA@SDK@Core@IronMan@@_K1@Z DD imagerel $LN4
	DD	imagerel $LN4+254
	DD	imagerel $unwind$?_Change_array@?$vector@UStringA@SDK@Core@IronMan@@V?$allocator@UStringA@SDK@Core@IronMan@@@std@@@std@@AEAAXQEAUStringA@SDK@Core@IronMan@@_K1@Z
pdata	ENDS
;	COMDAT pdata
pdata	SEGMENT
$pdata$?_Tidy@?$vector@UStringA@SDK@Core@IronMan@@V?$allocator@UStringA@SDK@Core@IronMan@@@std@@@std@@AEAAXXZ DD imagerel $LN4
	DD	imagerel $LN4+205
	DD	imagerel $unwind$?_Tidy@?$vector@UStringA@SDK@Core@IronMan@@V?$allocator@UStringA@SDK@Core@IronMan@@@std@@@std@@AEAAXXZ
pdata	ENDS
;	COMDAT pdata
pdata	SEGMENT
$pdata$?_Xlength@?$vector@UStringA@SDK@Core@IronMan@@V?$allocator@UStringA@SDK@Core@IronMan@@@std@@@std@@CAXXZ DD imagerel $LN3
	DD	imagerel $LN3+22
	DD	imagerel $unwind$?_Xlength@?$vector@UStringA@SDK@Core@IronMan@@V?$allocator@UStringA@SDK@Core@IronMan@@@std@@@std@@CAXXZ
pdata	ENDS
;	COMDAT pdata
pdata	SEGMENT
$pdata$?_Getal@?$vector@UStringA@SDK@Core@IronMan@@V?$allocator@UStringA@SDK@Core@IronMan@@@std@@@std@@AEAAAEAV?$allocator@UStringA@SDK@Core@IronMan@@@2@XZ DD imagerel $LN3
	DD	imagerel $LN3+27
	DD	imagerel $unwind$?_Getal@?$vector@UStringA@SDK@Core@IronMan@@V?$allocator@UStringA@SDK@Core@IronMan@@@std@@@std@@AEAAAEAV?$allocator@UStringA@SDK@Core@IronMan@@@2@XZ
pdata	ENDS
;	COMDAT pdata
pdata	SEGMENT
$pdata$?_Getal@?$vector@UStringA@SDK@Core@IronMan@@V?$allocator@UStringA@SDK@Core@IronMan@@@std@@@std@@AEBAAEBV?$allocator@UStringA@SDK@Core@IronMan@@@2@XZ DD imagerel $LN3
	DD	imagerel $LN3+27
	DD	imagerel $unwind$?_Getal@?$vector@UStringA@SDK@Core@IronMan@@V?$allocator@UStringA@SDK@Core@IronMan@@@std@@@std@@AEBAAEBV?$allocator@UStringA@SDK@Core@IronMan@@@2@XZ
pdata	ENDS
;	COMDAT pdata
pdata	SEGMENT
$pdata$??__ENAME_None@SDK@Core@IronMan@@YAXXZ DD imagerel ??__ENAME_None@SDK@Core@IronMan@@YAXXZ
	DD	imagerel ??__ENAME_None@SDK@Core@IronMan@@YAXXZ+24
	DD	imagerel $unwind$??__ENAME_None@SDK@Core@IronMan@@YAXXZ
pdata	ENDS
pdata	SEGMENT
$pdata$?Initialize@NamesStore@SDK@Core@IronMan@@SA_NXZ DD imagerel $LN33
	DD	imagerel $LN33+1759
	DD	imagerel $unwind$?Initialize@NamesStore@SDK@Core@IronMan@@SA_NXZ
pdata	ENDS
pdata	SEGMENT
$pdata$?dtor$0@?0??Initialize@NamesStore@SDK@Core@IronMan@@SA_NXZ@4HA DD imagerel ?dtor$0@?0??Initialize@NamesStore@SDK@Core@IronMan@@SA_NXZ@4HA
	DD	imagerel ?dtor$0@?0??Initialize@NamesStore@SDK@Core@IronMan@@SA_NXZ@4HA+27
	DD	imagerel $unwind$?dtor$0@?0??Initialize@NamesStore@SDK@Core@IronMan@@SA_NXZ@4HA
$pdata$?dtor$1@?0??Initialize@NamesStore@SDK@Core@IronMan@@SA_NXZ@4HA DD imagerel ?dtor$1@?0??Initialize@NamesStore@SDK@Core@IronMan@@SA_NXZ@4HA
	DD	imagerel ?dtor$1@?0??Initialize@NamesStore@SDK@Core@IronMan@@SA_NXZ@4HA+27
	DD	imagerel $unwind$?dtor$1@?0??Initialize@NamesStore@SDK@Core@IronMan@@SA_NXZ@4HA
$pdata$?dtor$2@?0??Initialize@NamesStore@SDK@Core@IronMan@@SA_NXZ@4HA DD imagerel ?dtor$2@?0??Initialize@NamesStore@SDK@Core@IronMan@@SA_NXZ@4HA
	DD	imagerel ?dtor$2@?0??Initialize@NamesStore@SDK@Core@IronMan@@SA_NXZ@4HA+27
	DD	imagerel $unwind$?dtor$2@?0??Initialize@NamesStore@SDK@Core@IronMan@@SA_NXZ@4HA
$pdata$?dtor$3@?0??Initialize@NamesStore@SDK@Core@IronMan@@SA_NXZ@4HA DD imagerel ?dtor$3@?0??Initialize@NamesStore@SDK@Core@IronMan@@SA_NXZ@4HA
	DD	imagerel ?dtor$3@?0??Initialize@NamesStore@SDK@Core@IronMan@@SA_NXZ@4HA+27
	DD	imagerel $unwind$?dtor$3@?0??Initialize@NamesStore@SDK@Core@IronMan@@SA_NXZ@4HA
pdata	ENDS
pdata	SEGMENT
$pdata$?GetNameByID@NamesStore@SDK@Core@IronMan@@SAXPEAXH_K0@Z DD imagerel $LN5
	DD	imagerel $LN5+241
	DD	imagerel $unwind$?GetNameByID@NamesStore@SDK@Core@IronMan@@SAXPEAXH_K0@Z
$pdata$?GetNameByID1@NamesStore@SDK@Core@IronMan@@SAXPEAXH_K0@Z DD imagerel $LN3
	DD	imagerel $LN3+130
	DD	imagerel $unwind$?GetNameByID1@NamesStore@SDK@Core@IronMan@@SAXPEAXH_K0@Z
$pdata$?GetNameByID2@NamesStore@SDK@Core@IronMan@@SAXPEAXH_K0@Z DD imagerel $LN5
	DD	imagerel $LN5+157
	DD	imagerel $unwind$?GetNameByID2@NamesStore@SDK@Core@IronMan@@SAXPEAXH_K0@Z
$pdata$?GetNameByID3@NamesStore@SDK@Core@IronMan@@SAXPEAXH_K0@Z DD imagerel $LN5
	DD	imagerel $LN5+107
	DD	imagerel $unwind$?GetNameByID3@NamesStore@SDK@Core@IronMan@@SAXPEAXH_K0@Z
$pdata$?GetAddress@NamesStore@SDK@Core@IronMan@@SAPEAXXZ DD imagerel $LN3
	DD	imagerel $LN3+21
	DD	imagerel $unwind$?GetAddress@NamesStore@SDK@Core@IronMan@@SAPEAXXZ
$pdata$?begin@NamesStore@SDK@Core@IronMan@@QEAA?AVNamesIterator@234@XZ DD imagerel $LN3
	DD	imagerel $LN3+42
	DD	imagerel $unwind$?begin@NamesStore@SDK@Core@IronMan@@QEAA?AVNamesIterator@234@XZ
$pdata$?begin@NamesStore@SDK@Core@IronMan@@QEBA?AVNamesIterator@234@XZ DD imagerel $LN3
	DD	imagerel $LN3+42
	DD	imagerel $unwind$?begin@NamesStore@SDK@Core@IronMan@@QEBA?AVNamesIterator@234@XZ
$pdata$?end@NamesStore@SDK@Core@IronMan@@QEAA?AVNamesIterator@234@XZ DD imagerel $LN3
	DD	imagerel $LN3+39
	DD	imagerel $unwind$?end@NamesStore@SDK@Core@IronMan@@QEAA?AVNamesIterator@234@XZ
$pdata$?end@NamesStore@SDK@Core@IronMan@@QEBA?AVNamesIterator@234@XZ DD imagerel $LN3
	DD	imagerel $LN3+39
	DD	imagerel $unwind$?end@NamesStore@SDK@Core@IronMan@@QEBA?AVNamesIterator@234@XZ
$pdata$?GetNamesNum@NamesStore@SDK@Core@IronMan@@QEBA_KXZ DD imagerel $LN3
	DD	imagerel $LN3+36
	DD	imagerel $unwind$?GetNamesNum@NamesStore@SDK@Core@IronMan@@QEBA_KXZ
$pdata$?IsValid@NamesStore@SDK@Core@IronMan@@QEBA_N_K@Z DD imagerel $LN3
	DD	imagerel $LN3+50
	DD	imagerel $unwind$?IsValid@NamesStore@SDK@Core@IronMan@@QEBA_N_K@Z
$pdata$?GetById@NamesStore@SDK@Core@IronMan@@QEBA?AV?$basic_string@DU?$char_traits@D@std@@V?$allocator@D@2@@std@@_K@Z DD imagerel $LN5
	DD	imagerel $LN5+157
	DD	imagerel $unwind$?GetById@NamesStore@SDK@Core@IronMan@@QEBA?AV?$basic_string@DU?$char_traits@D@std@@V?$allocator@D@2@@std@@_K@Z
pdata	ENDS
pdata	SEGMENT
$pdata$?dtor$0@?0??GetById@NamesStore@SDK@Core@IronMan@@QEBA?AV?$basic_string@DU?$char_traits@D@std@@V?$allocator@D@2@@std@@_K@Z@4HA DD imagerel ?dtor$0@?0??GetById@NamesStore@SDK@Core@IronMan@@QEBA?AV?$basic_string@DU?$char_traits@D@std@@V?$allocator@D@2@@std@@_K@Z@4HA
	DD	imagerel ?dtor$0@?0??GetById@NamesStore@SDK@Core@IronMan@@QEBA?AV?$basic_string@DU?$char_traits@D@std@@V?$allocator@D@2@@std@@_K@Z@4HA+41
	DD	imagerel $unwind$?dtor$0@?0??GetById@NamesStore@SDK@Core@IronMan@@QEBA?AV?$basic_string@DU?$char_traits@D@std@@V?$allocator@D@2@@std@@_K@Z@4HA
pdata	ENDS
;	COMDAT pdata
pdata	SEGMENT
$pdata$??1UENameInfo@SDK@Core@IronMan@@QEAA@XZ DD imagerel $LN4
	DD	imagerel $LN4+32
	DD	imagerel $unwind$??1UENameInfo@SDK@Core@IronMan@@QEAA@XZ
pdata	ENDS
;	COMDAT pdata
pdata	SEGMENT
$pdata$?dtor$0@?0???1UENameInfo@SDK@Core@IronMan@@QEAA@XZ@4HA DD imagerel ?dtor$0@?0???1UENameInfo@SDK@Core@IronMan@@QEAA@XZ@4HA
	DD	imagerel ?dtor$0@?0???1UENameInfo@SDK@Core@IronMan@@QEAA@XZ@4HA+28
	DD	imagerel $unwind$?dtor$0@?0???1UENameInfo@SDK@Core@IronMan@@QEAA@XZ@4HA
pdata	ENDS
pdata	SEGMENT
$pdata$??0NamesIterator@SDK@Core@IronMan@@QEAA@AEBVNamesStore@123@@Z DD imagerel $LN3
	DD	imagerel $LN3+56
	DD	imagerel $unwind$??0NamesIterator@SDK@Core@IronMan@@QEAA@AEBVNamesStore@123@@Z
$pdata$?swap@NamesIterator@SDK@Core@IronMan@@QEAAXAEAV1234@@Z DD imagerel $LN3
	DD	imagerel $LN3+46
	DD	imagerel $unwind$?swap@NamesIterator@SDK@Core@IronMan@@QEAAXAEAV1234@@Z
$pdata$??ENamesIterator@SDK@Core@IronMan@@QEAAAEAV0123@XZ DD imagerel $LN7
	DD	imagerel $LN7+130
	DD	imagerel $unwind$??ENamesIterator@SDK@Core@IronMan@@QEAAAEAV0123@XZ
$pdata$??ENamesIterator@SDK@Core@IronMan@@QEAA?AV0123@H@Z DD imagerel $LN3
	DD	imagerel $LN3+83
	DD	imagerel $unwind$??ENamesIterator@SDK@Core@IronMan@@QEAA?AV0123@H@Z
$pdata$??8NamesIterator@SDK@Core@IronMan@@QEBA_NAEBV0123@@Z DD imagerel $LN5
	DD	imagerel $LN5+59
	DD	imagerel $unwind$??8NamesIterator@SDK@Core@IronMan@@QEBA_NAEBV0123@@Z
$pdata$??9NamesIterator@SDK@Core@IronMan@@QEBA_NAEBV0123@@Z DD imagerel $LN5
	DD	imagerel $LN5+59
	DD	imagerel $unwind$??9NamesIterator@SDK@Core@IronMan@@QEBA_NAEBV0123@@Z
$pdata$??DNamesIterator@SDK@Core@IronMan@@QEBA?AUUENameInfo@123@XZ DD imagerel $LN6
	DD	imagerel $LN6+106
	DD	imagerel $unwind$??DNamesIterator@SDK@Core@IronMan@@QEBA?AUUENameInfo@123@XZ
pdata	ENDS
pdata	SEGMENT
$pdata$?dtor$1@?0???DNamesIterator@SDK@Core@IronMan@@QEBA?AUUENameInfo@123@XZ@4HA DD imagerel ?dtor$1@?0???DNamesIterator@SDK@Core@IronMan@@QEBA?AUUENameInfo@123@XZ@4HA
	DD	imagerel ?dtor$1@?0???DNamesIterator@SDK@Core@IronMan@@QEBA?AUUENameInfo@123@XZ@4HA+38
	DD	imagerel $unwind$?dtor$1@?0???DNamesIterator@SDK@Core@IronMan@@QEBA?AUUENameInfo@123@XZ@4HA
pdata	ENDS
pdata	SEGMENT
$pdata$??CNamesIterator@SDK@Core@IronMan@@QEBA?AUUENameInfo@123@XZ DD imagerel $LN6
	DD	imagerel $LN6+106
	DD	imagerel $unwind$??CNamesIterator@SDK@Core@IronMan@@QEBA?AUUENameInfo@123@XZ
pdata	ENDS
pdata	SEGMENT
$pdata$?dtor$1@?0???CNamesIterator@SDK@Core@IronMan@@QEBA?AUUENameInfo@123@XZ@4HA DD imagerel ?dtor$1@?0???CNamesIterator@SDK@Core@IronMan@@QEBA?AUUENameInfo@123@XZ@4HA
	DD	imagerel ?dtor$1@?0???CNamesIterator@SDK@Core@IronMan@@QEBA?AUUENameInfo@123@XZ@4HA+38
	DD	imagerel $unwind$?dtor$1@?0???CNamesIterator@SDK@Core@IronMan@@QEBA?AUUENameInfo@123@XZ@4HA
pdata	ENDS
;	COMDAT pdata
pdata	SEGMENT
$pdata$??__EGlobalNames@SDK@Core@IronMan@@YAXXZ DD imagerel ??__EGlobalNames@SDK@Core@IronMan@@YAXXZ
	DD	imagerel ??__EGlobalNames@SDK@Core@IronMan@@YAXXZ+24
	DD	imagerel $unwind$??__EGlobalNames@SDK@Core@IronMan@@YAXXZ
pdata	ENDS
;	COMDAT pdata
pdata	SEGMENT
$pdata$?allocate@?$allocator@U?$_List_node@U?$pair@$$CB_KH@std@@PEAX@std@@@std@@QEAAPEAU?$_List_node@U?$pair@$$CB_KH@std@@PEAX@2@_K@Z DD imagerel $LN3
	DD	imagerel $LN3+37
	DD	imagerel $unwind$?allocate@?$allocator@U?$_List_node@U?$pair@$$CB_KH@std@@PEAX@std@@@std@@QEAAPEAU?$_List_node@U?$pair@$$CB_KH@std@@PEAX@2@_K@Z
pdata	ENDS
;	COMDAT pdata
pdata	SEGMENT
$pdata$?deallocate@?$_Default_allocator_traits@V?$allocator@U?$_List_node@U?$pair@$$CB_KH@std@@PEAX@std@@@std@@@std@@SAXAEAV?$allocator@U?$_List_node@U?$pair@$$CB_KH@std@@PEAX@std@@@2@QEAU?$_List_node@U?$pair@$$CB_KH@std@@PEAX@2@_K@Z DD imagerel $LN3
	DD	imagerel $LN3+44
	DD	imagerel $unwind$?deallocate@?$_Default_allocator_traits@V?$allocator@U?$_List_node@U?$pair@$$CB_KH@std@@PEAX@std@@@std@@@std@@SAXAEAV?$allocator@U?$_List_node@U?$pair@$$CB_KH@std@@PEAX@std@@@2@QEAU?$_List_node@U?$pair@$$CB_KH@std@@PEAX@2@_K@Z
pdata	ENDS
;	COMDAT pdata
pdata	SEGMENT
$pdata$??0?$list@U?$pair@$$CB_KH@std@@V?$allocator@U?$pair@$$CB_KH@std@@@2@@std@@QEAA@AEBV?$allocator@U?$pair@$$CB_KH@std@@@1@@Z DD imagerel $LN3
	DD	imagerel $LN3+66
	DD	imagerel $unwind$??0?$list@U?$pair@$$CB_KH@std@@V?$allocator@U?$pair@$$CB_KH@std@@@2@@std@@QEAA@AEBV?$allocator@U?$pair@$$CB_KH@std@@@1@@Z
pdata	ENDS
;	COMDAT pdata
pdata	SEGMENT
$pdata$??1?$list@U?$pair@$$CB_KH@std@@V?$allocator@U?$pair@$$CB_KH@std@@@2@@std@@QEAA@XZ DD imagerel $LN3
	DD	imagerel $LN3+25
	DD	imagerel $unwind$??1?$list@U?$pair@$$CB_KH@std@@V?$allocator@U?$pair@$$CB_KH@std@@@2@@std@@QEAA@XZ
pdata	ENDS
;	COMDAT pdata
pdata	SEGMENT
$pdata$?_Unchecked_end@?$list@U?$pair@$$CB_KH@std@@V?$allocator@U?$pair@$$CB_KH@std@@@2@@std@@QEAA?AV?$_List_unchecked_iterator@V?$_List_val@U?$_List_simple_types@U?$pair@$$CB_KH@std@@@std@@@std@@@2@XZ DD imagerel $LN3
	DD	imagerel $LN3+45
	DD	imagerel $unwind$?_Unchecked_end@?$list@U?$pair@$$CB_KH@std@@V?$allocator@U?$pair@$$CB_KH@std@@@2@@std@@QEAA?AV?$_List_unchecked_iterator@V?$_List_val@U?$_List_simple_types@U?$pair@$$CB_KH@std@@@std@@@std@@@2@XZ
pdata	ENDS
;	COMDAT pdata
pdata	SEGMENT
$pdata$?_Tidy@?$list@U?$pair@$$CB_KH@std@@V?$allocator@U?$pair@$$CB_KH@std@@@2@@std@@AEAAXXZ DD imagerel $LN3
	DD	imagerel $LN3+86
	DD	imagerel $unwind$?_Tidy@?$list@U?$pair@$$CB_KH@std@@V?$allocator@U?$pair@$$CB_KH@std@@@2@@std@@AEAAXXZ
pdata	ENDS
;	COMDAT pdata
pdata	SEGMENT
$pdata$?_Alloc_sentinel_and_proxy@?$list@U?$pair@$$CB_KH@std@@V?$allocator@U?$pair@$$CB_KH@std@@@2@@std@@AEAAXXZ DD imagerel $LN3
	DD	imagerel $LN3+148
	DD	imagerel $unwind$?_Alloc_sentinel_and_proxy@?$list@U?$pair@$$CB_KH@std@@V?$allocator@U?$pair@$$CB_KH@std@@@2@@std@@AEAAXXZ
pdata	ENDS
;	COMDAT pdata
pdata	SEGMENT
$pdata$?_Getal@?$list@U?$pair@$$CB_KH@std@@V?$allocator@U?$pair@$$CB_KH@std@@@2@@std@@AEAAAEAV?$allocator@U?$_List_node@U?$pair@$$CB_KH@std@@PEAX@std@@@2@XZ DD imagerel $LN3
	DD	imagerel $LN3+27
	DD	imagerel $unwind$?_Getal@?$list@U?$pair@$$CB_KH@std@@V?$allocator@U?$pair@$$CB_KH@std@@@2@@std@@AEAAAEAV?$allocator@U?$_List_node@U?$pair@$$CB_KH@std@@PEAX@std@@@2@XZ
pdata	ENDS
;	COMDAT pdata
pdata	SEGMENT
$pdata$??0?$_Hash@V?$_Umap_traits@_KHV?$_Uhash_compare@_KU?$hash@_K@std@@U?$equal_to@_K@2@@std@@V?$allocator@U?$pair@$$CB_KH@std@@@2@$0A@@std@@@std@@IEAA@AEBV?$_Uhash_compare@_KU?$hash@_K@std@@U?$equal_to@_K@2@@1@AEBV?$allocator@U?$pair@$$CB_KH@std@@@1@@Z DD imagerel $LN5
	DD	imagerel $LN5+224
	DD	imagerel $unwind$??0?$_Hash@V?$_Umap_traits@_KHV?$_Uhash_compare@_KU?$hash@_K@std@@U?$equal_to@_K@2@@std@@V?$allocator@U?$pair@$$CB_KH@std@@@2@$0A@@std@@@std@@IEAA@AEBV?$_Uhash_compare@_KU?$hash@_K@std@@U?$equal_to@_K@2@@1@AEBV?$allocator@U?$pair@$$CB_KH@std@@@1@@Z
pdata	ENDS
;	COMDAT pdata
pdata	SEGMENT
$pdata$?dtor$0@?0???0?$_Hash@V?$_Umap_traits@_KHV?$_Uhash_compare@_KU?$hash@_K@std@@U?$equal_to@_K@2@@std@@V?$allocator@U?$pair@$$CB_KH@std@@@2@$0A@@std@@@std@@IEAA@AEBV?$_Uhash_compare@_KU?$hash@_K@std@@U?$equal_to@_K@2@@1@AEBV?$allocator@U?$pair@$$CB_KH@std@@@1@@Z@4HA DD imagerel ?dtor$0@?0???0?$_Hash@V?$_Umap_traits@_KHV?$_Uhash_compare@_KU?$hash@_K@std@@U?$equal_to@_K@2@@std@@V?$allocator@U?$pair@$$CB_KH@std@@@2@$0A@@std@@@std@@IEAA@AEBV?$_Uhash_compare@_KU?$hash@_K@std@@U?$equal_to@_K@2@@1@AEBV?$allocator@U?$pair@$$CB_KH@std@@@1@@Z@4HA
	DD	imagerel ?dtor$0@?0???0?$_Hash@V?$_Umap_traits@_KHV?$_Uhash_compare@_KU?$hash@_K@std@@U?$equal_to@_K@2@@std@@V?$allocator@U?$pair@$$CB_KH@std@@@2@$0A@@std@@@std@@IEAA@AEBV?$_Uhash_compare@_KU?$hash@_K@std@@U?$equal_to@_K@2@@1@AEBV?$allocator@U?$pair@$$CB_KH@std@@@1@@Z@4HA+28
	DD	imagerel $unwind$?dtor$0@?0???0?$_Hash@V?$_Umap_traits@_KHV?$_Uhash_compare@_KU?$hash@_K@std@@U?$equal_to@_K@2@@std@@V?$allocator@U?$pair@$$CB_KH@std@@@2@$0A@@std@@@std@@IEAA@AEBV?$_Uhash_compare@_KU?$hash@_K@std@@U?$equal_to@_K@2@@1@AEBV?$allocator@U?$pair@$$CB_KH@std@@@1@@Z@4HA
pdata	ENDS
;	COMDAT pdata
pdata	SEGMENT
$pdata$?dtor$1@?0???0?$_Hash@V?$_Umap_traits@_KHV?$_Uhash_compare@_KU?$hash@_K@std@@U?$equal_to@_K@2@@std@@V?$allocator@U?$pair@$$CB_KH@std@@@2@$0A@@std@@@std@@IEAA@AEBV?$_Uhash_compare@_KU?$hash@_K@std@@U?$equal_to@_K@2@@1@AEBV?$allocator@U?$pair@$$CB_KH@std@@@1@@Z@4HA DD imagerel ?dtor$1@?0???0?$_Hash@V?$_Umap_traits@_KHV?$_Uhash_compare@_KU?$hash@_K@std@@U?$equal_to@_K@2@@std@@V?$allocator@U?$pair@$$CB_KH@std@@@2@$0A@@std@@@std@@IEAA@AEBV?$_Uhash_compare@_KU?$hash@_K@std@@U?$equal_to@_K@2@@1@AEBV?$allocator@U?$pair@$$CB_KH@std@@@1@@Z@4HA
	DD	imagerel ?dtor$1@?0???0?$_Hash@V?$_Umap_traits@_KHV?$_Uhash_compare@_KU?$hash@_K@std@@U?$equal_to@_K@2@@std@@V?$allocator@U?$pair@$$CB_KH@std@@@2@$0A@@std@@@std@@IEAA@AEBV?$_Uhash_compare@_KU?$hash@_K@std@@U?$equal_to@_K@2@@1@AEBV?$allocator@U?$pair@$$CB_KH@std@@@1@@Z@4HA+28
	DD	imagerel $unwind$?dtor$1@?0???0?$_Hash@V?$_Umap_traits@_KHV?$_Uhash_compare@_KU?$hash@_K@std@@U?$equal_to@_K@2@@std@@V?$allocator@U?$pair@$$CB_KH@std@@@2@$0A@@std@@@std@@IEAA@AEBV?$_Uhash_compare@_KU?$hash@_K@std@@U?$equal_to@_K@2@@1@AEBV?$allocator@U?$pair@$$CB_KH@std@@@1@@Z@4HA
pdata	ENDS
;	COMDAT pdata
pdata	SEGMENT
$pdata$?_Max_bucket_size@?$_Hash@V?$_Umap_traits@_KHV?$_Uhash_compare@_KU?$hash@_K@std@@U?$equal_to@_K@2@@std@@V?$allocator@U?$pair@$$CB_KH@std@@@2@$0A@@std@@@std@@IEAAAEAMXZ DD imagerel $LN3
	DD	imagerel $LN3+27
	DD	imagerel $unwind$?_Max_bucket_size@?$_Hash@V?$_Umap_traits@_KHV?$_Uhash_compare@_KU?$hash@_K@std@@U?$equal_to@_K@2@@std@@V?$allocator@U?$pair@$$CB_KH@std@@@2@$0A@@std@@@std@@IEAAAEAMXZ
pdata	ENDS
;	COMDAT pdata
pdata	SEGMENT
$pdata$?deallocate@?$allocator@V?$_List_unchecked_iterator@V?$_List_val@U?$_List_simple_types@U?$pair@$$CB_KH@std@@@std@@@std@@@std@@@std@@QEAAXQEAV?$_List_unchecked_iterator@V?$_List_val@U?$_List_simple_types@U?$pair@$$CB_KH@std@@@std@@@std@@@2@_K@Z DD imagerel $LN3
	DD	imagerel $LN3+47
	DD	imagerel $unwind$?deallocate@?$allocator@V?$_List_unchecked_iterator@V?$_List_val@U?$_List_simple_types@U?$pair@$$CB_KH@std@@@std@@@std@@@std@@@std@@QEAAXQEAV?$_List_unchecked_iterator@V?$_List_val@U?$_List_simple_types@U?$pair@$$CB_KH@std@@@std@@@std@@@2@_K@Z
pdata	ENDS
;	COMDAT pdata
pdata	SEGMENT
$pdata$?allocate@?$allocator@V?$_List_unchecked_iterator@V?$_List_val@U?$_List_simple_types@U?$pair@$$CB_KH@std@@@std@@@std@@@std@@@std@@QEAAPEAV?$_List_unchecked_iterator@V?$_List_val@U?$_List_simple_types@U?$pair@$$CB_KH@std@@@std@@@std@@@2@_K@Z DD imagerel $LN3
	DD	imagerel $LN3+37
	DD	imagerel $unwind$?allocate@?$allocator@V?$_List_unchecked_iterator@V?$_List_val@U?$_List_simple_types@U?$pair@$$CB_KH@std@@@std@@@std@@@std@@@std@@QEAAPEAV?$_List_unchecked_iterator@V?$_List_val@U?$_List_simple_types@U?$pair@$$CB_KH@std@@@std@@@std@@@2@_K@Z
pdata	ENDS
;	COMDAT pdata
pdata	SEGMENT
$pdata$?_Assign_grow@?$_Hash_vec@V?$allocator@V?$_List_unchecked_iterator@V?$_List_val@U?$_List_simple_types@U?$pair@$$CB_KH@std@@@std@@@std@@@std@@@std@@@std@@QEAAX_KV?$_List_unchecked_iterator@V?$_List_val@U?$_List_simple_types@U?$pair@$$CB_KH@std@@@std@@@std@@@2@@Z DD imagerel $LN6
	DD	imagerel $LN6+273
	DD	imagerel $unwind$?_Assign_grow@?$_Hash_vec@V?$allocator@V?$_List_unchecked_iterator@V?$_List_val@U?$_List_simple_types@U?$pair@$$CB_KH@std@@@std@@@std@@@std@@@std@@@std@@QEAAX_KV?$_List_unchecked_iterator@V?$_List_val@U?$_List_simple_types@U?$pair@$$CB_KH@std@@@std@@@std@@@2@@Z
pdata	ENDS
;	COMDAT pdata
pdata	SEGMENT
$pdata$?_Tidy@?$_Hash_vec@V?$allocator@V?$_List_unchecked_iterator@V?$_List_val@U?$_List_simple_types@U?$pair@$$CB_KH@std@@@std@@@std@@@std@@@std@@@std@@QEAAXXZ DD imagerel $LN4
	DD	imagerel $LN4+151
	DD	imagerel $unwind$?_Tidy@?$_Hash_vec@V?$allocator@V?$_List_unchecked_iterator@V?$_List_val@U?$_List_simple_types@U?$pair@$$CB_KH@std@@@std@@@std@@@std@@@std@@@std@@QEAAXXZ
pdata	ENDS
;	COMDAT pdata
pdata	SEGMENT
$pdata$??1?$_Hash_vec@V?$allocator@V?$_List_unchecked_iterator@V?$_List_val@U?$_List_simple_types@U?$pair@$$CB_KH@std@@@std@@@std@@@std@@@std@@@std@@QEAA@XZ DD imagerel $LN3
	DD	imagerel $LN3+25
	DD	imagerel $unwind$??1?$_Hash_vec@V?$allocator@V?$_List_unchecked_iterator@V?$_List_val@U?$_List_simple_types@U?$pair@$$CB_KH@std@@@std@@@std@@@std@@@std@@@std@@QEAA@XZ
pdata	ENDS
;	COMDAT pdata
pdata	SEGMENT
$pdata$??1?$_Hash@V?$_Umap_traits@_KHV?$_Uhash_compare@_KU?$hash@_K@std@@U?$equal_to@_K@2@@std@@V?$allocator@U?$pair@$$CB_KH@std@@@2@$0A@@std@@@std@@QEAA@XZ DD imagerel $LN5
	DD	imagerel $LN5+50
	DD	imagerel $unwind$??1?$_Hash@V?$_Umap_traits@_KHV?$_Uhash_compare@_KU?$hash@_K@std@@U?$equal_to@_K@2@@std@@V?$allocator@U?$pair@$$CB_KH@std@@@2@$0A@@std@@@std@@QEAA@XZ
pdata	ENDS
;	COMDAT pdata
pdata	SEGMENT
$pdata$?dtor$0@?0???1?$_Hash@V?$_Umap_traits@_KHV?$_Uhash_compare@_KU?$hash@_K@std@@U?$equal_to@_K@2@@std@@V?$allocator@U?$pair@$$CB_KH@std@@@2@$0A@@std@@@std@@QEAA@XZ@4HA DD imagerel ?dtor$0@?0???1?$_Hash@V?$_Umap_traits@_KHV?$_Uhash_compare@_KU?$hash@_K@std@@U?$equal_to@_K@2@@std@@V?$allocator@U?$pair@$$CB_KH@std@@@2@$0A@@std@@@std@@QEAA@XZ@4HA
	DD	imagerel ?dtor$0@?0???1?$_Hash@V?$_Umap_traits@_KHV?$_Uhash_compare@_KU?$hash@_K@std@@U?$equal_to@_K@2@@std@@V?$allocator@U?$pair@$$CB_KH@std@@@2@$0A@@std@@@std@@QEAA@XZ@4HA+28
	DD	imagerel $unwind$?dtor$0@?0???1?$_Hash@V?$_Umap_traits@_KHV?$_Uhash_compare@_KU?$hash@_K@std@@U?$equal_to@_K@2@@std@@V?$allocator@U?$pair@$$CB_KH@std@@@2@$0A@@std@@@std@@QEAA@XZ@4HA
pdata	ENDS
;	COMDAT pdata
pdata	SEGMENT
$pdata$?dtor$1@?0???1?$_Hash@V?$_Umap_traits@_KHV?$_Uhash_compare@_KU?$hash@_K@std@@U?$equal_to@_K@2@@std@@V?$allocator@U?$pair@$$CB_KH@std@@@2@$0A@@std@@@std@@QEAA@XZ@4HA DD imagerel ?dtor$1@?0???1?$_Hash@V?$_Umap_traits@_KHV?$_Uhash_compare@_KU?$hash@_K@std@@U?$equal_to@_K@2@@std@@V?$allocator@U?$pair@$$CB_KH@std@@@2@$0A@@std@@@std@@QEAA@XZ@4HA
	DD	imagerel ?dtor$1@?0???1?$_Hash@V?$_Umap_traits@_KHV?$_Uhash_compare@_KU?$hash@_K@std@@U?$equal_to@_K@2@@std@@V?$allocator@U?$pair@$$CB_KH@std@@@2@$0A@@std@@@std@@QEAA@XZ@4HA+28
	DD	imagerel $unwind$?dtor$1@?0???1?$_Hash@V?$_Umap_traits@_KHV?$_Uhash_compare@_KU?$hash@_K@std@@U?$equal_to@_K@2@@std@@V?$allocator@U?$pair@$$CB_KH@std@@@2@$0A@@std@@@std@@QEAA@XZ@4HA
pdata	ENDS
;	COMDAT pdata
pdata	SEGMENT
$pdata$??0?$unordered_map@_KHU?$hash@_K@std@@U?$equal_to@_K@2@V?$allocator@U?$pair@$$CB_KH@std@@@2@@std@@QEAA@XZ DD imagerel $LN4
	DD	imagerel $LN4+70
	DD	imagerel $unwind$??0?$unordered_map@_KHU?$hash@_K@std@@U?$equal_to@_K@2@V?$allocator@U?$pair@$$CB_KH@std@@@2@@std@@QEAA@XZ
pdata	ENDS
;	COMDAT pdata
pdata	SEGMENT
$pdata$?dtor$0@?0???0?$unordered_map@_KHU?$hash@_K@std@@U?$equal_to@_K@2@V?$allocator@U?$pair@$$CB_KH@std@@@2@@std@@QEAA@XZ@4HA DD imagerel ?dtor$0@?0???0?$unordered_map@_KHU?$hash@_K@std@@U?$equal_to@_K@2@V?$allocator@U?$pair@$$CB_KH@std@@@2@@std@@QEAA@XZ@4HA
	DD	imagerel ?dtor$0@?0???0?$unordered_map@_KHU?$hash@_K@std@@U?$equal_to@_K@2@V?$allocator@U?$pair@$$CB_KH@std@@@2@@std@@QEAA@XZ@4HA+24
	DD	imagerel $unwind$?dtor$0@?0???0?$unordered_map@_KHU?$hash@_K@std@@U?$equal_to@_K@2@V?$allocator@U?$pair@$$CB_KH@std@@@2@@std@@QEAA@XZ@4HA
pdata	ENDS
;	COMDAT pdata
pdata	SEGMENT
$pdata$??1?$unordered_map@_KHU?$hash@_K@std@@U?$equal_to@_K@2@V?$allocator@U?$pair@$$CB_KH@std@@@2@@std@@QEAA@XZ DD imagerel $LN4
	DD	imagerel $LN4+25
	DD	imagerel $unwind$??1?$unordered_map@_KHU?$hash@_K@std@@U?$equal_to@_K@2@V?$allocator@U?$pair@$$CB_KH@std@@@2@@std@@QEAA@XZ
pdata	ENDS
;	COMDAT pdata
pdata	SEGMENT
$pdata$?dtor$0@?0???1?$unordered_map@_KHU?$hash@_K@std@@U?$equal_to@_K@2@V?$allocator@U?$pair@$$CB_KH@std@@@2@@std@@QEAA@XZ@4HA DD imagerel ?dtor$0@?0???1?$unordered_map@_KHU?$hash@_K@std@@U?$equal_to@_K@2@V?$allocator@U?$pair@$$CB_KH@std@@@2@@std@@QEAA@XZ@4HA
	DD	imagerel ?dtor$0@?0???1?$unordered_map@_KHU?$hash@_K@std@@U?$equal_to@_K@2@V?$allocator@U?$pair@$$CB_KH@std@@@2@@std@@QEAA@XZ@4HA+24
	DD	imagerel $unwind$?dtor$0@?0???1?$unordered_map@_KHU?$hash@_K@std@@U?$equal_to@_K@2@V?$allocator@U?$pair@$$CB_KH@std@@@2@@std@@QEAA@XZ@4HA
pdata	ENDS
;	COMDAT pdata
pdata	SEGMENT
$pdata$??__EGNameStore@SDK@Core@IronMan@@YAXXZ DD imagerel ??__EGNameStore@SDK@Core@IronMan@@YAXXZ
	DD	imagerel ??__EGNameStore@SDK@Core@IronMan@@YAXXZ+34
	DD	imagerel $unwind$??__EGNameStore@SDK@Core@IronMan@@YAXXZ
pdata	ENDS
;	COMDAT pdata
pdata	SEGMENT
$pdata$??__FGNameStore@SDK@Core@IronMan@@YAXXZ DD imagerel ??__FGNameStore@SDK@Core@IronMan@@YAXXZ
	DD	imagerel ??__FGNameStore@SDK@Core@IronMan@@YAXXZ+22
	DD	imagerel $unwind$??__FGNameStore@SDK@Core@IronMan@@YAXXZ
pdata	ENDS
;	COMDAT pdata
pdata	SEGMENT
$pdata$??__EScatterNameArray@SDK@Core@IronMan@@YAXXZ DD imagerel ??__EScatterNameArray@SDK@Core@IronMan@@YAXXZ
	DD	imagerel ??__EScatterNameArray@SDK@Core@IronMan@@YAXXZ+34
	DD	imagerel $unwind$??__EScatterNameArray@SDK@Core@IronMan@@YAXXZ
pdata	ENDS
;	COMDAT pdata
pdata	SEGMENT
$pdata$??__FScatterNameArray@SDK@Core@IronMan@@YAXXZ DD imagerel ??__FScatterNameArray@SDK@Core@IronMan@@YAXXZ
	DD	imagerel ??__FScatterNameArray@SDK@Core@IronMan@@YAXXZ+22
	DD	imagerel $unwind$??__FScatterNameArray@SDK@Core@IronMan@@YAXXZ
pdata	ENDS
;	COMDAT pdata
pdata	SEGMENT
$pdata$?STATIC_Get@?$UEEncryptedObjectProperty@PEAX$05@SDK@Core@IronMan@@SAPEAX_K@Z DD imagerel $LN5
	DD	imagerel $LN5+121
	DD	imagerel $unwind$?STATIC_Get@?$UEEncryptedObjectProperty@PEAX$05@SDK@Core@IronMan@@SAPEAX_K@Z
pdata	ENDS
;	COMDAT pdata
pdata	SEGMENT
$pdata$??$Read@_K@DMAHandler@IronMan@@QEAA_K_K@Z DD imagerel $LN3
	DD	imagerel $LN3+77
	DD	imagerel $unwind$??$Read@_K@DMAHandler@IronMan@@QEAA_K_K@Z
pdata	ENDS
;	COMDAT pdata
pdata	SEGMENT
$pdata$??$Read@PEAX@DMAHandler@IronMan@@QEAAPEAX_K@Z DD imagerel $LN3
	DD	imagerel $LN3+77
	DD	imagerel $unwind$??$Read@PEAX@DMAHandler@IronMan@@QEAAPEAX_K@Z
pdata	ENDS
;	COMDAT pdata
pdata	SEGMENT
$pdata$?deallocate@?$allocator@_K@std@@QEAAXQEA_K_K@Z DD imagerel $LN3
	DD	imagerel $LN3+47
	DD	imagerel $unwind$?deallocate@?$allocator@_K@std@@QEAAXQEA_K_K@Z
pdata	ENDS
;	COMDAT pdata
pdata	SEGMENT
$pdata$?allocate@?$allocator@_K@std@@QEAAPEA_K_K@Z DD imagerel $LN3
	DD	imagerel $LN3+37
	DD	imagerel $unwind$?allocate@?$allocator@_K@std@@QEAAPEA_K_K@Z
pdata	ENDS
;	COMDAT pdata
pdata	SEGMENT
$pdata$??0?$vector@_KV?$allocator@_K@std@@@std@@QEAA@XZ DD imagerel $LN3
	DD	imagerel $LN3+73
	DD	imagerel $unwind$??0?$vector@_KV?$allocator@_K@std@@@std@@QEAA@XZ
pdata	ENDS
;	COMDAT pdata
pdata	SEGMENT
$pdata$??1?$vector@_KV?$allocator@_K@std@@@std@@QEAA@XZ DD imagerel $LN3
	DD	imagerel $LN3+25
	DD	imagerel $unwind$??1?$vector@_KV?$allocator@_K@std@@@std@@QEAA@XZ
pdata	ENDS
;	COMDAT pdata
pdata	SEGMENT
$pdata$?resize@?$vector@_KV?$allocator@_K@std@@@std@@QEAAX_K@Z DD imagerel $LN3
	DD	imagerel $LN3+40
	DD	imagerel $unwind$?resize@?$vector@_KV?$allocator@_K@std@@@std@@QEAAX_K@Z
pdata	ENDS
;	COMDAT pdata
pdata	SEGMENT
$pdata$?max_size@?$vector@_KV?$allocator@_K@std@@@std@@QEBA_KXZ DD imagerel $LN3
	DD	imagerel $LN3+65
	DD	imagerel $unwind$?max_size@?$vector@_KV?$allocator@_K@std@@@std@@QEBA_KXZ
pdata	ENDS
;	COMDAT pdata
pdata	SEGMENT
$pdata$?capacity@?$vector@_KV?$allocator@_K@std@@@std@@QEBA_KXZ DD imagerel $LN3
	DD	imagerel $LN3+45
	DD	imagerel $unwind$?capacity@?$vector@_KV?$allocator@_K@std@@@std@@QEBA_KXZ
pdata	ENDS
;	COMDAT pdata
pdata	SEGMENT
$pdata$??A?$vector@_KV?$allocator@_K@std@@@std@@QEAAAEA_K_K@Z DD imagerel $LN3
	DD	imagerel $LN3+44
	DD	imagerel $unwind$??A?$vector@_KV?$allocator@_K@std@@@std@@QEAAAEA_K_K@Z
pdata	ENDS
;	COMDAT pdata
pdata	SEGMENT
$pdata$?_Calculate_growth@?$vector@_KV?$allocator@_K@std@@@std@@AEBA_K_K@Z DD imagerel $LN5
	DD	imagerel $LN5+144
	DD	imagerel $unwind$?_Calculate_growth@?$vector@_KV?$allocator@_K@std@@@std@@AEBA_K_K@Z
pdata	ENDS
;	COMDAT pdata
pdata	SEGMENT
$pdata$?_Change_array@?$vector@_KV?$allocator@_K@std@@@std@@AEAAXQEA_K_K1@Z DD imagerel $LN4
	DD	imagerel $LN4+242
	DD	imagerel $unwind$?_Change_array@?$vector@_KV?$allocator@_K@std@@@std@@AEAAXQEA_K_K1@Z
pdata	ENDS
;	COMDAT pdata
pdata	SEGMENT
$pdata$?_Tidy@?$vector@_KV?$allocator@_K@std@@@std@@AEAAXXZ DD imagerel $LN4
	DD	imagerel $LN4+205
	DD	imagerel $unwind$?_Tidy@?$vector@_KV?$allocator@_K@std@@@std@@AEAAXXZ
pdata	ENDS
;	COMDAT pdata
pdata	SEGMENT
$pdata$?_Xlength@?$vector@_KV?$allocator@_K@std@@@std@@CAXXZ DD imagerel $LN3
	DD	imagerel $LN3+22
	DD	imagerel $unwind$?_Xlength@?$vector@_KV?$allocator@_K@std@@@std@@CAXXZ
pdata	ENDS
;	COMDAT pdata
pdata	SEGMENT
$pdata$?_Getal@?$vector@_KV?$allocator@_K@std@@@std@@AEAAAEAV?$allocator@_K@2@XZ DD imagerel $LN3
	DD	imagerel $LN3+27
	DD	imagerel $unwind$?_Getal@?$vector@_KV?$allocator@_K@std@@@std@@AEAAAEAV?$allocator@_K@2@XZ
pdata	ENDS
;	COMDAT pdata
pdata	SEGMENT
$pdata$?_Getal@?$vector@_KV?$allocator@_K@std@@@std@@AEBAAEBV?$allocator@_K@2@XZ DD imagerel $LN3
	DD	imagerel $LN3+27
	DD	imagerel $unwind$?_Getal@?$vector@_KV?$allocator@_K@std@@@std@@AEBAAEBV?$allocator@_K@2@XZ
pdata	ENDS
;	COMDAT pdata
pdata	SEGMENT
$pdata$?STATIC_Get@?$UEEncryptedObjectProperty@_K$05@SDK@Core@IronMan@@SA_K_K@Z DD imagerel $LN5
	DD	imagerel $LN5+121
	DD	imagerel $unwind$?STATIC_Get@?$UEEncryptedObjectProperty@_K$05@SDK@Core@IronMan@@SA_K_K@Z
pdata	ENDS
pdata	SEGMENT
$pdata$??R<lambda_f063a2ce6c7fa06dfaf25446d7e0d7cc>@@QEBA@PEAUStringA@SDK@Core@IronMan@@@Z DD imagerel ??R<lambda_f063a2ce6c7fa06dfaf25446d7e0d7cc>@@QEBA@PEAUStringA@SDK@Core@IronMan@@@Z
	DD	imagerel ??R<lambda_f063a2ce6c7fa06dfaf25446d7e0d7cc>@@QEBA@PEAUStringA@SDK@Core@IronMan@@@Z+114
	DD	imagerel $unwind$??R<lambda_f063a2ce6c7fa06dfaf25446d7e0d7cc>@@QEBA@PEAUStringA@SDK@Core@IronMan@@@Z
pdata	ENDS
;	COMDAT pdata
pdata	SEGMENT
$pdata$??$ReadCache@_K@DMAHandler@IronMan@@QEAA_K_K@Z DD imagerel $LN3
	DD	imagerel $LN3+77
	DD	imagerel $unwind$??$ReadCache@_K@DMAHandler@IronMan@@QEAA_K_K@Z
pdata	ENDS
;	COMDAT pdata
pdata	SEGMENT
$pdata$??$swap@_K$0A@@std@@YAXAEA_K0@Z DD imagerel $LN3
	DD	imagerel $LN3+79
	DD	imagerel $unwind$??$swap@_K$0A@@std@@YAXAEA_K0@Z
pdata	ENDS
;	COMDAT pdata
pdata	SEGMENT
$pdata$??R?$equal_to@W4DecryptFunc@SDK@Core@IronMan@@@std@@QEBA_NAEBW4DecryptFunc@SDK@Core@IronMan@@0@Z DD imagerel $LN5
	DD	imagerel $LN5+60
	DD	imagerel $unwind$??R?$equal_to@W4DecryptFunc@SDK@Core@IronMan@@@std@@QEBA_NAEBW4DecryptFunc@SDK@Core@IronMan@@0@Z
pdata	ENDS
;	COMDAT pdata
pdata	SEGMENT
$pdata$??R?$_Conditionally_enabled_hash@W4DecryptFunc@SDK@Core@IronMan@@$00@std@@QEBA_KAEBW4DecryptFunc@SDK@Core@IronMan@@@Z DD imagerel $LN3
	DD	imagerel $LN3+29
	DD	imagerel $unwind$??R?$_Conditionally_enabled_hash@W4DecryptFunc@SDK@Core@IronMan@@$00@std@@QEBA_KAEBW4DecryptFunc@SDK@Core@IronMan@@@Z
pdata	ENDS
;	COMDAT pdata
pdata	SEGMENT
$pdata$?_Do_hash@?$hash@W4DecryptFunc@SDK@Core@IronMan@@@std@@SA_KAEBW4DecryptFunc@SDK@Core@IronMan@@@Z DD imagerel $LN3
	DD	imagerel $LN3+24
	DD	imagerel $unwind$?_Do_hash@?$hash@W4DecryptFunc@SDK@Core@IronMan@@@std@@SA_KAEBW4DecryptFunc@SDK@Core@IronMan@@@Z
pdata	ENDS
;	COMDAT pdata
pdata	SEGMENT
$pdata$?deallocate@?$allocator@U?$_List_node@U?$pair@$$CBW4DecryptFunc@SDK@Core@IronMan@@V?$unique_ptr@VUEDecryptBuilder@SDK@Core@IronMan@@U?$default_delete@VUEDecryptBuilder@SDK@Core@IronMan@@@std@@@std@@@std@@PEAX@std@@@std@@QEAAXQEAU?$_List_node@U?$pair@$$CBW4DecryptFunc@SDK@Core@IronMan@@V?$unique_ptr@VUEDecryptBuilder@SDK@Core@IronMan@@U?$default_delete@VUEDecryptBuilder@SDK@Core@IronMan@@@std@@@std@@@std@@PEAX@2@_K@Z DD imagerel $LN3
	DD	imagerel $LN3+44
	DD	imagerel $unwind$?deallocate@?$allocator@U?$_List_node@U?$pair@$$CBW4DecryptFunc@SDK@Core@IronMan@@V?$unique_ptr@VUEDecryptBuilder@SDK@Core@IronMan@@U?$default_delete@VUEDecryptBuilder@SDK@Core@IronMan@@@std@@@std@@@std@@PEAX@std@@@std@@QEAAXQEAU?$_List_node@U?$pair@$$CBW4DecryptFunc@SDK@Core@IronMan@@V?$unique_ptr@VUEDecryptBuilder@SDK@Core@IronMan@@U?$default_delete@VUEDecryptBuilder@SDK@Core@IronMan@@@std@@@std@@@std@@PEAX@2@_K@Z
pdata	ENDS
;	COMDAT pdata
pdata	SEGMENT
$pdata$?allocate@?$allocator@U?$_List_node@U?$pair@$$CBW4DecryptFunc@SDK@Core@IronMan@@V?$unique_ptr@VUEDecryptBuilder@SDK@Core@IronMan@@U?$default_delete@VUEDecryptBuilder@SDK@Core@IronMan@@@std@@@std@@@std@@PEAX@std@@@std@@QEAAPEAU?$_List_node@U?$pair@$$CBW4DecryptFunc@SDK@Core@IronMan@@V?$unique_ptr@VUEDecryptBuilder@SDK@Core@IronMan@@U?$default_delete@VUEDecryptBuilder@SDK@Core@IronMan@@@std@@@std@@@std@@PEAX@2@_K@Z DD imagerel $LN3
	DD	imagerel $LN3+37
	DD	imagerel $unwind$?allocate@?$allocator@U?$_List_node@U?$pair@$$CBW4DecryptFunc@SDK@Core@IronMan@@V?$unique_ptr@VUEDecryptBuilder@SDK@Core@IronMan@@U?$default_delete@VUEDecryptBuilder@SDK@Core@IronMan@@@std@@@std@@@std@@PEAX@std@@@std@@QEAAPEAU?$_List_node@U?$pair@$$CBW4DecryptFunc@SDK@Core@IronMan@@V?$unique_ptr@VUEDecryptBuilder@SDK@Core@IronMan@@U?$default_delete@VUEDecryptBuilder@SDK@Core@IronMan@@@std@@@std@@@std@@PEAX@2@_K@Z
pdata	ENDS
;	COMDAT pdata
pdata	SEGMENT
$pdata$?deallocate@?$_Default_allocator_traits@V?$allocator@U?$_List_node@U?$pair@$$CBW4DecryptFunc@SDK@Core@IronMan@@V?$unique_ptr@VUEDecryptBuilder@SDK@Core@IronMan@@U?$default_delete@VUEDecryptBuilder@SDK@Core@IronMan@@@std@@@std@@@std@@PEAX@std@@@std@@@std@@SAXAEAV?$allocator@U?$_List_node@U?$pair@$$CBW4DecryptFunc@SDK@Core@IronMan@@V?$unique_ptr@VUEDecryptBuilder@SDK@Core@IronMan@@U?$default_delete@VUEDecryptBuilder@SDK@Core@IronMan@@@std@@@std@@@std@@PEAX@std@@@2@QEAU?$_List_node@U?$pair@$$CBW4DecryptFunc@SDK@Core@IronMan@@V?$unique_ptr@VUEDecryptBuilder@SDK@Core@IronMan@@U?$default_delete@VUEDecryptBuilder@SDK@Core@IronMan@@@std@@@std@@@std@@PEAX@2@_K@Z DD imagerel $LN3
	DD	imagerel $LN3+44
	DD	imagerel $unwind$?deallocate@?$_Default_allocator_traits@V?$allocator@U?$_List_node@U?$pair@$$CBW4DecryptFunc@SDK@Core@IronMan@@V?$unique_ptr@VUEDecryptBuilder@SDK@Core@IronMan@@U?$default_delete@VUEDecryptBuilder@SDK@Core@IronMan@@@std@@@std@@@std@@PEAX@std@@@std@@@std@@SAXAEAV?$allocator@U?$_List_node@U?$pair@$$CBW4DecryptFunc@SDK@Core@IronMan@@V?$unique_ptr@VUEDecryptBuilder@SDK@Core@IronMan@@U?$default_delete@VUEDecryptBuilder@SDK@Core@IronMan@@@std@@@std@@@std@@PEAX@std@@@2@QEAU?$_List_node@U?$pair@$$CBW4DecryptFunc@SDK@Core@IronMan@@V?$unique_ptr@VUEDecryptBuilder@SDK@Core@IronMan@@U?$default_delete@VUEDecryptBuilder@SDK@Core@IronMan@@@std@@@std@@@std@@PEAX@2@_K@Z
pdata	ENDS
;	COMDAT pdata
pdata	SEGMENT
$pdata$?_Unchecked_begin@?$list@U?$pair@$$CBW4DecryptFunc@SDK@Core@IronMan@@V?$unique_ptr@VUEDecryptBuilder@SDK@Core@IronMan@@U?$default_delete@VUEDecryptBuilder@SDK@Core@IronMan@@@std@@@std@@@std@@V?$allocator@U?$pair@$$CBW4DecryptFunc@SDK@Core@IronMan@@V?$unique_ptr@VUEDecryptBuilder@SDK@Core@IronMan@@U?$default_delete@VUEDecryptBuilder@SDK@Core@IronMan@@@std@@@std@@@std@@@2@@std@@QEAA?AV?$_List_unchecked_iterator@V?$_List_val@U?$_List_simple_types@U?$pair@$$CBW4DecryptFunc@SDK@Core@IronMan@@V?$unique_ptr@VUEDecryptBuilder@SDK@Core@IronMan@@U?$default_delete@VUEDecryptBuilder@SDK@Core@IronMan@@@std@@@std@@@std@@@std@@@std@@@2@XZ DD imagerel $LN3
	DD	imagerel $LN3+48
	DD	imagerel $unwind$?_Unchecked_begin@?$list@U?$pair@$$CBW4DecryptFunc@SDK@Core@IronMan@@V?$unique_ptr@VUEDecryptBuilder@SDK@Core@IronMan@@U?$default_delete@VUEDecryptBuilder@SDK@Core@IronMan@@@std@@@std@@@std@@V?$allocator@U?$pair@$$CBW4DecryptFunc@SDK@Core@IronMan@@V?$unique_ptr@VUEDecryptBuilder@SDK@Core@IronMan@@U?$default_delete@VUEDecryptBuilder@SDK@Core@IronMan@@@std@@@std@@@std@@@2@@std@@QEAA?AV?$_List_unchecked_iterator@V?$_List_val@U?$_List_simple_types@U?$pair@$$CBW4DecryptFunc@SDK@Core@IronMan@@V?$unique_ptr@VUEDecryptBuilder@SDK@Core@IronMan@@U?$default_delete@VUEDecryptBuilder@SDK@Core@IronMan@@@std@@@std@@@std@@@std@@@std@@@2@XZ
pdata	ENDS
;	COMDAT pdata
pdata	SEGMENT
$pdata$?_Unchecked_end@?$list@U?$pair@$$CBW4DecryptFunc@SDK@Core@IronMan@@V?$unique_ptr@VUEDecryptBuilder@SDK@Core@IronMan@@U?$default_delete@VUEDecryptBuilder@SDK@Core@IronMan@@@std@@@std@@@std@@V?$allocator@U?$pair@$$CBW4DecryptFunc@SDK@Core@IronMan@@V?$unique_ptr@VUEDecryptBuilder@SDK@Core@IronMan@@U?$default_delete@VUEDecryptBuilder@SDK@Core@IronMan@@@std@@@std@@@std@@@2@@std@@QEAA?AV?$_List_unchecked_iterator@V?$_List_val@U?$_List_simple_types@U?$pair@$$CBW4DecryptFunc@SDK@Core@IronMan@@V?$unique_ptr@VUEDecryptBuilder@SDK@Core@IronMan@@U?$default_delete@VUEDecryptBuilder@SDK@Core@IronMan@@@std@@@std@@@std@@@std@@@std@@@2@XZ DD imagerel $LN3
	DD	imagerel $LN3+45
	DD	imagerel $unwind$?_Unchecked_end@?$list@U?$pair@$$CBW4DecryptFunc@SDK@Core@IronMan@@V?$unique_ptr@VUEDecryptBuilder@SDK@Core@IronMan@@U?$default_delete@VUEDecryptBuilder@SDK@Core@IronMan@@@std@@@std@@@std@@V?$allocator@U?$pair@$$CBW4DecryptFunc@SDK@Core@IronMan@@V?$unique_ptr@VUEDecryptBuilder@SDK@Core@IronMan@@U?$default_delete@VUEDecryptBuilder@SDK@Core@IronMan@@@std@@@std@@@std@@@2@@std@@QEAA?AV?$_List_unchecked_iterator@V?$_List_val@U?$_List_simple_types@U?$pair@$$CBW4DecryptFunc@SDK@Core@IronMan@@V?$unique_ptr@VUEDecryptBuilder@SDK@Core@IronMan@@U?$default_delete@VUEDecryptBuilder@SDK@Core@IronMan@@@std@@@std@@@std@@@std@@@std@@@2@XZ
pdata	ENDS
;	COMDAT pdata
pdata	SEGMENT
$pdata$?max_size@?$list@U?$pair@$$CBW4DecryptFunc@SDK@Core@IronMan@@V?$unique_ptr@VUEDecryptBuilder@SDK@Core@IronMan@@U?$default_delete@VUEDecryptBuilder@SDK@Core@IronMan@@@std@@@std@@@std@@V?$allocator@U?$pair@$$CBW4DecryptFunc@SDK@Core@IronMan@@V?$unique_ptr@VUEDecryptBuilder@SDK@Core@IronMan@@U?$default_delete@VUEDecryptBuilder@SDK@Core@IronMan@@@std@@@std@@@std@@@2@@std@@QEBA_KXZ DD imagerel $LN3
	DD	imagerel $LN3+65
	DD	imagerel $unwind$?max_size@?$list@U?$pair@$$CBW4DecryptFunc@SDK@Core@IronMan@@V?$unique_ptr@VUEDecryptBuilder@SDK@Core@IronMan@@U?$default_delete@VUEDecryptBuilder@SDK@Core@IronMan@@@std@@@std@@@std@@V?$allocator@U?$pair@$$CBW4DecryptFunc@SDK@Core@IronMan@@V?$unique_ptr@VUEDecryptBuilder@SDK@Core@IronMan@@U?$default_delete@VUEDecryptBuilder@SDK@Core@IronMan@@@std@@@std@@@std@@@2@@std@@QEBA_KXZ
pdata	ENDS
;	COMDAT pdata
pdata	SEGMENT
$pdata$?clear@?$list@U?$pair@$$CBW4DecryptFunc@SDK@Core@IronMan@@V?$unique_ptr@VUEDecryptBuilder@SDK@Core@IronMan@@U?$default_delete@VUEDecryptBuilder@SDK@Core@IronMan@@@std@@@std@@@std@@V?$allocator@U?$pair@$$CBW4DecryptFunc@SDK@Core@IronMan@@V?$unique_ptr@VUEDecryptBuilder@SDK@Core@IronMan@@U?$default_delete@VUEDecryptBuilder@SDK@Core@IronMan@@@std@@@std@@@std@@@2@@std@@QEAAXXZ DD imagerel $LN3
	DD	imagerel $LN3+129
	DD	imagerel $unwind$?clear@?$list@U?$pair@$$CBW4DecryptFunc@SDK@Core@IronMan@@V?$unique_ptr@VUEDecryptBuilder@SDK@Core@IronMan@@U?$default_delete@VUEDecryptBuilder@SDK@Core@IronMan@@@std@@@std@@@std@@V?$allocator@U?$pair@$$CBW4DecryptFunc@SDK@Core@IronMan@@V?$unique_ptr@VUEDecryptBuilder@SDK@Core@IronMan@@U?$default_delete@VUEDecryptBuilder@SDK@Core@IronMan@@@std@@@std@@@std@@@2@@std@@QEAAXXZ
pdata	ENDS
;	COMDAT pdata
pdata	SEGMENT
$pdata$?_Getal@?$list@U?$pair@$$CBW4DecryptFunc@SDK@Core@IronMan@@V?$unique_ptr@VUEDecryptBuilder@SDK@Core@IronMan@@U?$default_delete@VUEDecryptBuilder@SDK@Core@IronMan@@@std@@@std@@@std@@V?$allocator@U?$pair@$$CBW4DecryptFunc@SDK@Core@IronMan@@V?$unique_ptr@VUEDecryptBuilder@SDK@Core@IronMan@@U?$default_delete@VUEDecryptBuilder@SDK@Core@IronMan@@@std@@@std@@@std@@@2@@std@@AEAAAEAV?$allocator@U?$_List_node@U?$pair@$$CBW4DecryptFunc@SDK@Core@IronMan@@V?$unique_ptr@VUEDecryptBuilder@SDK@Core@IronMan@@U?$default_delete@VUEDecryptBuilder@SDK@Core@IronMan@@@std@@@std@@@std@@PEAX@std@@@2@XZ DD imagerel $LN3
	DD	imagerel $LN3+27
	DD	imagerel $unwind$?_Getal@?$list@U?$pair@$$CBW4DecryptFunc@SDK@Core@IronMan@@V?$unique_ptr@VUEDecryptBuilder@SDK@Core@IronMan@@U?$default_delete@VUEDecryptBuilder@SDK@Core@IronMan@@@std@@@std@@@std@@V?$allocator@U?$pair@$$CBW4DecryptFunc@SDK@Core@IronMan@@V?$unique_ptr@VUEDecryptBuilder@SDK@Core@IronMan@@U?$default_delete@VUEDecryptBuilder@SDK@Core@IronMan@@@std@@@std@@@std@@@2@@std@@AEAAAEAV?$allocator@U?$_List_node@U?$pair@$$CBW4DecryptFunc@SDK@Core@IronMan@@V?$unique_ptr@VUEDecryptBuilder@SDK@Core@IronMan@@U?$default_delete@VUEDecryptBuilder@SDK@Core@IronMan@@@std@@@std@@@std@@PEAX@std@@@2@XZ
pdata	ENDS
;	COMDAT pdata
pdata	SEGMENT
$pdata$?_Getal@?$list@U?$pair@$$CBW4DecryptFunc@SDK@Core@IronMan@@V?$unique_ptr@VUEDecryptBuilder@SDK@Core@IronMan@@U?$default_delete@VUEDecryptBuilder@SDK@Core@IronMan@@@std@@@std@@@std@@V?$allocator@U?$pair@$$CBW4DecryptFunc@SDK@Core@IronMan@@V?$unique_ptr@VUEDecryptBuilder@SDK@Core@IronMan@@U?$default_delete@VUEDecryptBuilder@SDK@Core@IronMan@@@std@@@std@@@std@@@2@@std@@AEBAAEBV?$allocator@U?$_List_node@U?$pair@$$CBW4DecryptFunc@SDK@Core@IronMan@@V?$unique_ptr@VUEDecryptBuilder@SDK@Core@IronMan@@U?$default_delete@VUEDecryptBuilder@SDK@Core@IronMan@@@std@@@std@@@std@@PEAX@std@@@2@XZ DD imagerel $LN3
	DD	imagerel $LN3+27
	DD	imagerel $unwind$?_Getal@?$list@U?$pair@$$CBW4DecryptFunc@SDK@Core@IronMan@@V?$unique_ptr@VUEDecryptBuilder@SDK@Core@IronMan@@U?$default_delete@VUEDecryptBuilder@SDK@Core@IronMan@@@std@@@std@@@std@@V?$allocator@U?$pair@$$CBW4DecryptFunc@SDK@Core@IronMan@@V?$unique_ptr@VUEDecryptBuilder@SDK@Core@IronMan@@U?$default_delete@VUEDecryptBuilder@SDK@Core@IronMan@@@std@@@std@@@std@@@2@@std@@AEBAAEBV?$allocator@U?$_List_node@U?$pair@$$CBW4DecryptFunc@SDK@Core@IronMan@@V?$unique_ptr@VUEDecryptBuilder@SDK@Core@IronMan@@U?$default_delete@VUEDecryptBuilder@SDK@Core@IronMan@@@std@@@std@@@std@@PEAX@std@@@2@XZ
pdata	ENDS
;	COMDAT pdata
pdata	SEGMENT
