; Listing generated by Microsoft (R) Optimizing Compiler Version 19.43.34810.0 

include listing.inc

INCLUDELIB LIBCMT
INCLUDELIB OLDNAMES

EXTRN	?x86RegData@asmjit@@3UX86RegData@1@B:BYTE	; asmjit::x86RegData
CONST	SEGMENT
?x86OpCodePP@asmjit@@3QBEB DB 00H			; asmjit::x86OpCodePP
	DB	066H
	DB	0f3H
	DB	0f2H
	DB	00H
	DB	00H
	DB	00H
	DB	09bH
?NoInit@asmjit@@3U_NoInit@1@B	ORG $+1			; asmjit::NoInit
	ORG $+7
?x86OpCodeMM@asmjit@@3QBUX86OpCodeMM@1@B DB 00H		; asmjit::x86OpCodeMM
	DB	00H
	DB	00H
	DB	00H
	DB	01H
	DB	0fH
	DB	00H
	DB	00H
	DB	02H
	DB	0fH
	DB	038H
	DB	00H
	DB	02H
	DB	0fH
	DB	03aH
	DB	00H
	DB	00H
	DB	00H
	DB	00H
	DB	00H
	DB	00H
	DB	00H
	DB	00H
	DB	00H
	DB	00H
	DB	00H
	DB	00H
	DB	00H
	DB	00H
	DB	00H
	DB	00H
	DB	00H
	DB	00H
	DB	00H
	DB	00H
	DB	00H
	DB	00H
	DB	00H
	DB	00H
	DB	00H
	DB	00H
	DB	00H
	DB	00H
	DB	00H
	DB	00H
	DB	00H
	DB	00H
	DB	00H
	DB	00H
	DB	00H
	DB	00H
	DB	00H
	DB	00H
	DB	00H
	DB	00H
	DB	00H
	DB	00H
	DB	00H
	DB	00H
	DB	00H
	DB	02H
	DB	0fH
	DB	01H
	DB	00H
?x86SegmentPrefix@asmjit@@3QBEB DB 00H			; asmjit::x86SegmentPrefix
	DB	026H
	DB	02eH
	DB	036H
	DB	03eH
	DB	064H
	DB	065H
	ORG $+1
?x86OpCodePushSeg@asmjit@@3QBEB DB 00H			; asmjit::x86OpCodePushSeg
	DB	06H
	DB	0eH
	DB	016H
	DB	01eH
	DB	0a0H
	DB	0a8H
	ORG $+1
?x86OpCodePopSeg@asmjit@@3QBEB DB 00H			; asmjit::x86OpCodePopSeg
	DB	07H
	DB	00H
	DB	017H
	DB	01fH
	DB	0a1H
	DB	0a9H
	ORG $+1
	ORG $+8
?x86PatchedHiRegs@asmjit@@3QBUVRegOp@Operand@1@B DB 01H	; asmjit::x86PatchedHiRegs
	DB	01H
	DW	0304H
	DD	0ffffffffH
	DD	00H
	DD	00H
	DB	01H
	DB	01H
	DW	0305H
	DD	0ffffffffH
	DD	00H
	DD	00H
	DB	01H
	DB	01H
	DW	0306H
	DD	0ffffffffH
	DD	00H
	DD	00H
	DB	01H
	DB	01H
	DW	0307H
	DD	0ffffffffH
	DD	00H
	DD	00H
CONST	ENDS
PUBLIC	?pack32_2x8_1x16@IntUtil@asmjit@@SAIIII@Z	; asmjit::IntUtil::pack32_2x8_1x16
PUBLIC	?pack32_4x8@IntUtil@asmjit@@SAIIIII@Z		; asmjit::IntUtil::pack32_4x8
PUBLIC	?getRuntime@CodeGen@asmjit@@QEBAPEAURuntime@2@XZ ; asmjit::CodeGen::getRuntime
PUBLIC	?getArch@CodeGen@asmjit@@QEBAIXZ		; asmjit::CodeGen::getArch
PUBLIC	?getBaseAddress@CodeGen@asmjit@@QEBA_KXZ	; asmjit::CodeGen::getBaseAddress
PUBLIC	?hasFeature@CodeGen@asmjit@@QEBA_NI@Z		; asmjit::CodeGen::hasFeature
PUBLIC	?getInstOptionsAndReset@CodeGen@asmjit@@QEAAIXZ	; asmjit::CodeGen::getInstOptionsAndReset
PUBLIC	?getData@PodVectorData@asmjit@@QEBAPEAXXZ	; asmjit::PodVectorData::getData
PUBLIC	??0Operand@asmjit@@QEAA@AEBU_NoInit@1@@Z	; asmjit::Operand::Operand
PUBLIC	?getOp@Operand@asmjit@@QEBAIXZ			; asmjit::Operand::getOp
PUBLIC	?isReg@Operand@asmjit@@QEBA_NXZ			; asmjit::Operand::isReg
PUBLIC	?isMem@Operand@asmjit@@QEBA_NXZ			; asmjit::Operand::isMem
PUBLIC	?isImm@Operand@asmjit@@QEBA_NXZ			; asmjit::Operand::isImm
PUBLIC	?isRegType@Operand@asmjit@@QEBA_NI@Z		; asmjit::Operand::isRegType
PUBLIC	?getSize@Operand@asmjit@@QEBAIXZ		; asmjit::Operand::getSize
PUBLIC	?getId@Operand@asmjit@@QEBAIXZ			; asmjit::Operand::getId
PUBLIC	??0Reg@asmjit@@QEAA@AEBU_NoInit@1@@Z		; asmjit::Reg::Reg
PUBLIC	?isRegType@Reg@asmjit@@QEBA_NI@Z		; asmjit::Reg::isRegType
PUBLIC	?getRegIndex@Reg@asmjit@@QEBAIXZ		; asmjit::Reg::getRegIndex
PUBLIC	?getMemType@BaseMem@asmjit@@QEBAIXZ		; asmjit::BaseMem::getMemType
PUBLIC	?isBaseIndexType@BaseMem@asmjit@@QEBA_NXZ	; asmjit::BaseMem::isBaseIndexType
PUBLIC	?getUInt8@Imm@asmjit@@QEBAEXZ			; asmjit::Imm::getUInt8
PUBLIC	?getUInt16@Imm@asmjit@@QEBAGXZ			; asmjit::Imm::getUInt16
PUBLIC	?getUInt32@Imm@asmjit@@QEBAIXZ			; asmjit::Imm::getUInt32
PUBLIC	?getInt64@Imm@asmjit@@QEBA_JXZ			; asmjit::Imm::getInt64
PUBLIC	??$isInt8@_J@IntUtil@asmjit@@SA_N_J@Z		; asmjit::IntUtil::isInt8<__int64>
PUBLIC	??$isInt32@_J@IntUtil@asmjit@@SA_N_J@Z		; asmjit::IntUtil::isInt32<__int64>
PUBLIC	?getRemainingSpace@Assembler@asmjit@@QEBA_KXZ	; asmjit::Assembler::getRemainingSpace
PUBLIC	?getCursor@Assembler@asmjit@@QEBAPEAEXZ		; asmjit::Assembler::getCursor
PUBLIC	?setCursor@Assembler@asmjit@@QEAAXPEAE@Z	; asmjit::Assembler::setCursor
PUBLIC	?getOffset@Assembler@asmjit@@QEBA_KXZ		; asmjit::Assembler::getOffset
PUBLIC	?getCodeSize@Assembler@asmjit@@QEBA_KXZ		; asmjit::Assembler::getCodeSize
PUBLIC	?getTrampolineSize@Assembler@asmjit@@QEBA_KXZ	; asmjit::Assembler::getTrampolineSize
PUBLIC	?getLabelData@Assembler@asmjit@@QEBAPEAULabelData@2@I@Z ; asmjit::Assembler::getLabelData
PUBLIC	?getData@?$PodVector@ULabelData@asmjit@@@asmjit@@QEBAPEBULabelData@2@XZ ; asmjit::PodVector<asmjit::LabelData>::getData
PUBLIC	??A?$PodVector@ULabelData@asmjit@@@asmjit@@QEBAAEBULabelData@1@_K@Z ; asmjit::PodVector<asmjit::LabelData>::operator[]
PUBLIC	?getLength@?$PodVector@URelocData@asmjit@@@asmjit@@QEBA_KXZ ; asmjit::PodVector<asmjit::RelocData>::getLength
PUBLIC	?getData@?$PodVector@URelocData@asmjit@@@asmjit@@QEAAPEAURelocData@2@XZ ; asmjit::PodVector<asmjit::RelocData>::getData
PUBLIC	?getData@?$PodVector@URelocData@asmjit@@@asmjit@@QEBAPEBURelocData@2@XZ ; asmjit::PodVector<asmjit::RelocData>::getData
PUBLIC	?_grow@?$PodVector@URelocData@asmjit@@@asmjit@@QEAAI_K@Z ; asmjit::PodVector<asmjit::RelocData>::_grow
PUBLIC	?append@?$PodVector@URelocData@asmjit@@@asmjit@@QEAAIAEBURelocData@2@@Z ; asmjit::PodVector<asmjit::RelocData>::append
PUBLIC	??A?$PodVector@URelocData@asmjit@@@asmjit@@QEAAAEAURelocData@1@_K@Z ; asmjit::PodVector<asmjit::RelocData>::operator[]
PUBLIC	?getEncodingId@X86InstExtendedInfo@asmjit@@QEBAIXZ ; asmjit::X86InstExtendedInfo::getEncodingId
PUBLIC	?getInstFlags@X86InstExtendedInfo@asmjit@@QEBAIXZ ; asmjit::X86InstExtendedInfo::getInstFlags
PUBLIC	?isLockable@X86InstExtendedInfo@asmjit@@QEBA_NXZ ; asmjit::X86InstExtendedInfo::isLockable
PUBLIC	?getSecondaryOpCode@X86InstExtendedInfo@asmjit@@QEBAIXZ ; asmjit::X86InstExtendedInfo::getSecondaryOpCode
PUBLIC	?getExtendedInfo@X86InstInfo@asmjit@@QEBAAEBUX86InstExtendedInfo@2@XZ ; asmjit::X86InstInfo::getExtendedInfo
PUBLIC	?getEncodingId@X86InstInfo@asmjit@@QEBAIXZ	; asmjit::X86InstInfo::getEncodingId
PUBLIC	?getInstFlags@X86InstInfo@asmjit@@QEBAIXZ	; asmjit::X86InstInfo::getInstFlags
PUBLIC	?hasInstFlag@X86InstInfo@asmjit@@QEBA_NI@Z	; asmjit::X86InstInfo::hasInstFlag
PUBLIC	?getPrimaryOpCode@X86InstInfo@asmjit@@QEBAIXZ	; asmjit::X86InstInfo::getPrimaryOpCode
PUBLIC	?reset@X86RegCount@asmjit@@QEAAXXZ		; asmjit::X86RegCount::reset
PUBLIC	??0X86Reg@asmjit@@QEAA@AEBU_NoInit@1@@Z		; asmjit::X86Reg::X86Reg
PUBLIC	?isGp@X86Reg@asmjit@@QEBA_NXZ			; asmjit::X86Reg::isGp
PUBLIC	?isGpbLo@X86Reg@asmjit@@QEBA_NXZ		; asmjit::X86Reg::isGpbLo
PUBLIC	?isGpq@X86Reg@asmjit@@QEBA_NXZ			; asmjit::X86Reg::isGpq
PUBLIC	?isMm@X86Reg@asmjit@@QEBA_NXZ			; asmjit::X86Reg::isMm
PUBLIC	?isXmm@X86Reg@asmjit@@QEBA_NXZ			; asmjit::X86Reg::isXmm
PUBLIC	?isYmm@X86Reg@asmjit@@QEBA_NXZ			; asmjit::X86Reg::isYmm
PUBLIC	?isSeg@X86Reg@asmjit@@QEBA_NXZ			; asmjit::X86Reg::isSeg
PUBLIC	?isGpbReg@X86Reg@asmjit@@SA_NAEBUOperand@2@@Z	; asmjit::X86Reg::isGpbReg
PUBLIC	??0X86GpReg@asmjit@@QEAA@AEBU_NoInit@1@@Z	; asmjit::X86GpReg::X86GpReg
PUBLIC	?hasSegment@X86Mem@asmjit@@QEBA_NXZ		; asmjit::X86Mem::hasSegment
PUBLIC	?getSegment@X86Mem@asmjit@@QEBAIXZ		; asmjit::X86Mem::getSegment
PUBLIC	?hasGpdBase@X86Mem@asmjit@@QEBA_NXZ		; asmjit::X86Mem::hasGpdBase
PUBLIC	?getVSib@X86Mem@asmjit@@QEBAIXZ			; asmjit::X86Mem::getVSib
PUBLIC	?getBase@X86Mem@asmjit@@QEBAIXZ			; asmjit::X86Mem::getBase
PUBLIC	?getIndex@X86Mem@asmjit@@QEBAIXZ		; asmjit::X86Mem::getIndex
PUBLIC	?hasBaseOrIndex@X86Mem@asmjit@@QEBA_NXZ		; asmjit::X86Mem::hasBaseOrIndex
PUBLIC	?getShift@X86Mem@asmjit@@QEBAIXZ		; asmjit::X86Mem::getShift
PUBLIC	?getDisplacement@X86Mem@asmjit@@QEBAHXZ		; asmjit::X86Mem::getDisplacement
PUBLIC	??0X86Assembler@asmjit@@QEAA@PEAURuntime@1@I@Z	; asmjit::X86Assembler::X86Assembler
PUBLIC	??1X86Assembler@asmjit@@UEAA@XZ			; asmjit::X86Assembler::~X86Assembler
PUBLIC	?setArch@X86Assembler@asmjit@@QEAAII@Z		; asmjit::X86Assembler::setArch
PUBLIC	?embedLabel@X86Assembler@asmjit@@QEAAIAEBULabel@2@@Z ; asmjit::X86Assembler::embedLabel
PUBLIC	?align@X86Assembler@asmjit@@UEAAIII@Z		; asmjit::X86Assembler::align
PUBLIC	?_relocCode@X86Assembler@asmjit@@UEBA_KPEAX_K@Z	; asmjit::X86Assembler::_relocCode
PUBLIC	?_emit@X86Assembler@asmjit@@UEAAIIAEBUOperand@2@000@Z ; asmjit::X86Assembler::_emit
PUBLIC	??_GX86Assembler@asmjit@@UEAAPEAXI@Z		; asmjit::X86Assembler::`scalar deleting destructor'
PUBLIC	?getVendorId@CpuInfo@asmjit@@QEBAIXZ		; asmjit::CpuInfo::getVendorId
PUBLIC	?getFamily@CpuInfo@asmjit@@QEBAIXZ		; asmjit::CpuInfo::getFamily
PUBLIC	??$isPowerOf2@I@IntUtil@asmjit@@SA_NI@Z		; asmjit::IntUtil::isPowerOf2<unsigned int>
PUBLIC	??$deltaTo@_K@IntUtil@asmjit@@SA_K_K0@Z		; asmjit::IntUtil::deltaTo<unsigned __int64>
PUBLIC	??$alignTo@_K@IntUtil@asmjit@@SA_K_K0@Z		; asmjit::IntUtil::alignTo<unsigned __int64>
PUBLIC	??$iMin@I@IntUtil@asmjit@@SAIAEBI0@Z		; asmjit::IntUtil::iMin<unsigned int>
PUBLIC	??$isInt8@H@IntUtil@asmjit@@SA_NH@Z		; asmjit::IntUtil::isInt8<int>
PUBLIC	??_7X86Assembler@asmjit@@6B@			; asmjit::X86Assembler::`vftable'
PUBLIC	??_R4X86Assembler@asmjit@@6B@			; asmjit::X86Assembler::`RTTI Complete Object Locator'
PUBLIC	??_R0?AUX86Assembler@asmjit@@@8			; asmjit::X86Assembler `RTTI Type Descriptor'
PUBLIC	??_R3X86Assembler@asmjit@@8			; asmjit::X86Assembler::`RTTI Class Hierarchy Descriptor'
PUBLIC	??_R2X86Assembler@asmjit@@8			; asmjit::X86Assembler::`RTTI Base Class Array'
PUBLIC	??_R1A@?0A@EA@X86Assembler@asmjit@@8		; asmjit::X86Assembler::`RTTI Base Class Descriptor at (0,-1,0,64)'
PUBLIC	??_R1A@?0A@EA@Assembler@asmjit@@8		; asmjit::Assembler::`RTTI Base Class Descriptor at (0,-1,0,64)'
PUBLIC	??_R0?AUAssembler@asmjit@@@8			; asmjit::Assembler `RTTI Type Descriptor'
PUBLIC	??_R3Assembler@asmjit@@8			; asmjit::Assembler::`RTTI Class Hierarchy Descriptor'
PUBLIC	??_R2Assembler@asmjit@@8			; asmjit::Assembler::`RTTI Base Class Array'
PUBLIC	??_R1A@?0A@EA@CodeGen@asmjit@@8			; asmjit::CodeGen::`RTTI Base Class Descriptor at (0,-1,0,64)'
PUBLIC	??_R0?AUCodeGen@asmjit@@@8			; asmjit::CodeGen `RTTI Type Descriptor'
PUBLIC	??_R3CodeGen@asmjit@@8				; asmjit::CodeGen::`RTTI Class Hierarchy Descriptor'
PUBLIC	??_R2CodeGen@asmjit@@8				; asmjit::CodeGen::`RTTI Base Class Array'
EXTRN	??3@YAXPEAX_K@Z:PROC				; operator delete
EXTRN	memcpy:PROC
EXTRN	?setError@CodeGen@asmjit@@QEAAIIPEBD@Z:PROC	; asmjit::CodeGen::setError
EXTRN	?_grow@PodVectorBase@asmjit@@IEAAI_K0@Z:PROC	; asmjit::PodVectorBase::_grow
EXTRN	??0Assembler@asmjit@@QEAA@PEAURuntime@1@@Z:PROC	; asmjit::Assembler::Assembler
EXTRN	??1Assembler@asmjit@@UEAA@XZ:PROC		; asmjit::Assembler::~Assembler
EXTRN	?_grow@Assembler@asmjit@@QEAAI_K@Z:PROC		; asmjit::Assembler::_grow
EXTRN	?_newLabelLink@Assembler@asmjit@@QEAAPEAULabelLink@2@XZ:PROC ; asmjit::Assembler::_newLabelLink
EXTRN	?bind@Assembler@asmjit@@UEAAIAEBULabel@2@@Z:PROC ; asmjit::Assembler::bind
EXTRN	?embed@Assembler@asmjit@@UEAAIPEBXI@Z:PROC	; asmjit::Assembler::embed
EXTRN	?make@Assembler@asmjit@@UEAAPEAXXZ:PROC		; asmjit::Assembler::make
EXTRN	??_EX86Assembler@asmjit@@UEAAPEAXI@Z:PROC	; asmjit::X86Assembler::`vector deleting destructor'
EXTRN	__CxxFrameHandler4:PROC
EXTRN	__GSHandlerCheck:PROC
EXTRN	__security_check_cookie:PROC
EXTRN	??_7type_info@@6B@:BYTE				; type_info::`vftable'
EXTRN	?_x86InstExtendedInfo@asmjit@@3QBUX86InstExtendedInfo@1@B:BYTE ; asmjit::_x86InstExtendedInfo
EXTRN	?_x86InstInfo@asmjit@@3QBUX86InstInfo@1@B:BYTE	; asmjit::_x86InstInfo
EXTRN	__ImageBase:BYTE
EXTRN	__security_cookie:QWORD
;	COMDAT pdata
pdata	SEGMENT
$pdata$?hasFeature@CodeGen@asmjit@@QEBA_NI@Z DD imagerel $LN5
	DD	imagerel $LN5+76
	DD	imagerel $unwind$?hasFeature@CodeGen@asmjit@@QEBA_NI@Z
pdata	ENDS
;	COMDAT pdata
pdata	SEGMENT
$pdata$?getInstOptionsAndReset@CodeGen@asmjit@@QEAAIXZ DD imagerel $LN3
	DD	imagerel $LN3+40
	DD	imagerel $unwind$?getInstOptionsAndReset@CodeGen@asmjit@@QEAAIXZ
pdata	ENDS
;	COMDAT pdata
pdata	SEGMENT
$pdata$?isReg@Operand@asmjit@@QEBA_NXZ DD imagerel $LN5
	DD	imagerel $LN5+47
	DD	imagerel $unwind$?isReg@Operand@asmjit@@QEBA_NXZ
pdata	ENDS
;	COMDAT pdata
pdata	SEGMENT
$pdata$?isMem@Operand@asmjit@@QEBA_NXZ DD imagerel $LN5
	DD	imagerel $LN5+47
	DD	imagerel $unwind$?isMem@Operand@asmjit@@QEBA_NXZ
pdata	ENDS
;	COMDAT pdata
pdata	SEGMENT
$pdata$?isImm@Operand@asmjit@@QEBA_NXZ DD imagerel $LN5
	DD	imagerel $LN5+47
	DD	imagerel $unwind$?isImm@Operand@asmjit@@QEBA_NXZ
pdata	ENDS
;	COMDAT pdata
pdata	SEGMENT
$pdata$?isRegType@Operand@asmjit@@QEBA_NI@Z DD imagerel $LN5
	DD	imagerel $LN5+145
	DD	imagerel $unwind$?isRegType@Operand@asmjit@@QEBA_NI@Z
pdata	ENDS
;	COMDAT pdata
pdata	SEGMENT
$pdata$??0Reg@asmjit@@QEAA@AEBU_NoInit@1@@Z DD imagerel $LN3
	DD	imagerel $LN3+42
	DD	imagerel $unwind$??0Reg@asmjit@@QEAA@AEBU_NoInit@1@@Z
pdata	ENDS
;	COMDAT pdata
pdata	SEGMENT
$pdata$?isRegType@Reg@asmjit@@QEBA_NI@Z DD imagerel $LN5
	DD	imagerel $LN5+53
	DD	imagerel $unwind$?isRegType@Reg@asmjit@@QEBA_NI@Z
pdata	ENDS
;	COMDAT pdata
pdata	SEGMENT
$pdata$?isBaseIndexType@BaseMem@asmjit@@QEBA_NXZ DD imagerel $LN5
	DD	imagerel $LN5+48
	DD	imagerel $unwind$?isBaseIndexType@BaseMem@asmjit@@QEBA_NXZ
pdata	ENDS
;	COMDAT pdata
pdata	SEGMENT
$pdata$??$isInt8@_J@IntUtil@asmjit@@SA_N_J@Z DD imagerel $LN11
	DD	imagerel $LN11+116
	DD	imagerel $unwind$??$isInt8@_J@IntUtil@asmjit@@SA_N_J@Z
pdata	ENDS
;	COMDAT pdata
pdata	SEGMENT
$pdata$??$isInt32@_J@IntUtil@asmjit@@SA_N_J@Z DD imagerel $LN15
	DD	imagerel $LN15+182
	DD	imagerel $unwind$??$isInt32@_J@IntUtil@asmjit@@SA_N_J@Z
pdata	ENDS
;	COMDAT pdata
pdata	SEGMENT
$pdata$?getCodeSize@Assembler@asmjit@@QEBA_KXZ DD imagerel $LN3
	DD	imagerel $LN3+50
	DD	imagerel $unwind$?getCodeSize@Assembler@asmjit@@QEBA_KXZ
pdata	ENDS
;	COMDAT pdata
pdata	SEGMENT
$pdata$?getLabelData@Assembler@asmjit@@QEBAPEAULabelData@2@I@Z DD imagerel $LN3
	DD	imagerel $LN3+48
	DD	imagerel $unwind$?getLabelData@Assembler@asmjit@@QEBAPEAULabelData@2@I@Z
pdata	ENDS
;	COMDAT pdata
pdata	SEGMENT
$pdata$?getData@?$PodVector@ULabelData@asmjit@@@asmjit@@QEBAPEBULabelData@2@XZ DD imagerel $LN3
	DD	imagerel $LN3+27
	DD	imagerel $unwind$?getData@?$PodVector@ULabelData@asmjit@@@asmjit@@QEBAPEBULabelData@2@XZ
pdata	ENDS
;	COMDAT pdata
pdata	SEGMENT
$pdata$??A?$PodVector@ULabelData@asmjit@@@asmjit@@QEBAAEBULabelData@1@_K@Z DD imagerel $LN3
	DD	imagerel $LN3+38
	DD	imagerel $unwind$??A?$PodVector@ULabelData@asmjit@@@asmjit@@QEBAAEBULabelData@1@_K@Z
pdata	ENDS
;	COMDAT pdata
pdata	SEGMENT
$pdata$?getData@?$PodVector@URelocData@asmjit@@@asmjit@@QEAAPEAURelocData@2@XZ DD imagerel $LN3
	DD	imagerel $LN3+27
	DD	imagerel $unwind$?getData@?$PodVector@URelocData@asmjit@@@asmjit@@QEAAPEAURelocData@2@XZ
pdata	ENDS
;	COMDAT pdata
pdata	SEGMENT
$pdata$?getData@?$PodVector@URelocData@asmjit@@@asmjit@@QEBAPEBURelocData@2@XZ DD imagerel $LN3
	DD	imagerel $LN3+27
	DD	imagerel $unwind$?getData@?$PodVector@URelocData@asmjit@@@asmjit@@QEBAPEBURelocData@2@XZ
pdata	ENDS
;	COMDAT pdata
pdata	SEGMENT
$pdata$?_grow@?$PodVector@URelocData@asmjit@@@asmjit@@QEAAI_K@Z DD imagerel $LN3
	DD	imagerel $LN3+40
	DD	imagerel $unwind$?_grow@?$PodVector@URelocData@asmjit@@@asmjit@@QEAAI_K@Z
pdata	ENDS
;	COMDAT pdata
pdata	SEGMENT
$pdata$?append@?$PodVector@URelocData@asmjit@@@asmjit@@QEAAIAEBURelocData@2@@Z DD imagerel $LN8
	DD	imagerel $LN8+167
	DD	imagerel $unwind$?append@?$PodVector@URelocData@asmjit@@@asmjit@@QEAAIAEBURelocData@2@@Z
pdata	ENDS
;	COMDAT pdata
pdata	SEGMENT
$pdata$??A?$PodVector@URelocData@asmjit@@@asmjit@@QEAAAEAURelocData@1@_K@Z DD imagerel $LN3
	DD	imagerel $LN3+38
	DD	imagerel $unwind$??A?$PodVector@URelocData@asmjit@@@asmjit@@QEAAAEAURelocData@1@_K@Z
pdata	ENDS
;	COMDAT pdata
pdata	SEGMENT
$pdata$?isLockable@X86InstExtendedInfo@asmjit@@QEBA_NXZ DD imagerel $LN5
	DD	imagerel $LN5+54
	DD	imagerel $unwind$?isLockable@X86InstExtendedInfo@asmjit@@QEBA_NXZ
pdata	ENDS
;	COMDAT pdata
pdata	SEGMENT
$pdata$?getEncodingId@X86InstInfo@asmjit@@QEBAIXZ DD imagerel $LN3
	DD	imagerel $LN3+32
	DD	imagerel $unwind$?getEncodingId@X86InstInfo@asmjit@@QEBAIXZ
pdata	ENDS
;	COMDAT pdata
pdata	SEGMENT
$pdata$?getInstFlags@X86InstInfo@asmjit@@QEBAIXZ DD imagerel $LN3
	DD	imagerel $LN3+32
	DD	imagerel $unwind$?getInstFlags@X86InstInfo@asmjit@@QEBAIXZ
pdata	ENDS
;	COMDAT pdata
pdata	SEGMENT
$pdata$?hasInstFlag@X86InstInfo@asmjit@@QEBA_NI@Z DD imagerel $LN5
	DD	imagerel $LN5+59
	DD	imagerel $unwind$?hasInstFlag@X86InstInfo@asmjit@@QEBA_NI@Z
pdata	ENDS
;	COMDAT pdata
pdata	SEGMENT
$pdata$??0X86Reg@asmjit@@QEAA@AEBU_NoInit@1@@Z DD imagerel $LN3
	DD	imagerel $LN3+42
	DD	imagerel $unwind$??0X86Reg@asmjit@@QEAA@AEBU_NoInit@1@@Z
pdata	ENDS
;	COMDAT pdata
pdata	SEGMENT
$pdata$?isGp@X86Reg@asmjit@@QEBA_NXZ DD imagerel $LN5
	DD	imagerel $LN5+48
	DD	imagerel $unwind$?isGp@X86Reg@asmjit@@QEBA_NXZ
pdata	ENDS
;	COMDAT pdata
pdata	SEGMENT
$pdata$?isGpbLo@X86Reg@asmjit@@QEBA_NXZ DD imagerel $LN5
	DD	imagerel $LN5+48
	DD	imagerel $unwind$?isGpbLo@X86Reg@asmjit@@QEBA_NXZ
pdata	ENDS
;	COMDAT pdata
pdata	SEGMENT
$pdata$?isGpq@X86Reg@asmjit@@QEBA_NXZ DD imagerel $LN5
	DD	imagerel $LN5+48
	DD	imagerel $unwind$?isGpq@X86Reg@asmjit@@QEBA_NXZ
pdata	ENDS
;	COMDAT pdata
pdata	SEGMENT
$pdata$?isMm@X86Reg@asmjit@@QEBA_NXZ DD imagerel $LN5
	DD	imagerel $LN5+48
	DD	imagerel $unwind$?isMm@X86Reg@asmjit@@QEBA_NXZ
pdata	ENDS
;	COMDAT pdata
pdata	SEGMENT
$pdata$?isXmm@X86Reg@asmjit@@QEBA_NXZ DD imagerel $LN5
	DD	imagerel $LN5+48
	DD	imagerel $unwind$?isXmm@X86Reg@asmjit@@QEBA_NXZ
pdata	ENDS
;	COMDAT pdata
pdata	SEGMENT
$pdata$?isYmm@X86Reg@asmjit@@QEBA_NXZ DD imagerel $LN5
	DD	imagerel $LN5+50
	DD	imagerel $unwind$?isYmm@X86Reg@asmjit@@QEBA_NXZ
pdata	ENDS
;	COMDAT pdata
pdata	SEGMENT
$pdata$?isSeg@X86Reg@asmjit@@QEBA_NXZ DD imagerel $LN5
	DD	imagerel $LN5+50
	DD	imagerel $unwind$?isSeg@X86Reg@asmjit@@QEBA_NXZ
pdata	ENDS
;	COMDAT pdata
pdata	SEGMENT
$pdata$?isGpbReg@X86Reg@asmjit@@SA_NAEBUOperand@2@@Z DD imagerel $LN5
	DD	imagerel $LN5+130
	DD	imagerel $unwind$?isGpbReg@X86Reg@asmjit@@SA_NAEBUOperand@2@@Z
pdata	ENDS
;	COMDAT pdata
pdata	SEGMENT
$pdata$??0X86GpReg@asmjit@@QEAA@AEBU_NoInit@1@@Z DD imagerel $LN3
	DD	imagerel $LN3+42
	DD	imagerel $unwind$??0X86GpReg@asmjit@@QEAA@AEBU_NoInit@1@@Z
pdata	ENDS
;	COMDAT pdata
pdata	SEGMENT
$pdata$?hasSegment@X86Mem@asmjit@@QEBA_NXZ DD imagerel $LN5
	DD	imagerel $LN5+50
	DD	imagerel $unwind$?hasSegment@X86Mem@asmjit@@QEBA_NXZ
pdata	ENDS
;	COMDAT pdata
pdata	SEGMENT
$pdata$?hasGpdBase@X86Mem@asmjit@@QEBA_NXZ DD imagerel $LN5
	DD	imagerel $LN5+111
	DD	imagerel $unwind$?hasGpdBase@X86Mem@asmjit@@QEBA_NXZ
pdata	ENDS
;	COMDAT pdata
pdata	SEGMENT
$pdata$?hasBaseOrIndex@X86Mem@asmjit@@QEBA_NXZ DD imagerel $LN5
	DD	imagerel $LN5+56
	DD	imagerel $unwind$?hasBaseOrIndex@X86Mem@asmjit@@QEBA_NXZ
pdata	ENDS
pdata	SEGMENT
$pdata$??0X86Assembler@asmjit@@QEAA@PEAURuntime@1@I@Z DD imagerel $LN4
	DD	imagerel $LN4+342
	DD	imagerel $unwind$??0X86Assembler@asmjit@@QEAA@PEAURuntime@1@I@Z
pdata	ENDS
pdata	SEGMENT
$pdata$?dtor$0@?0???0X86Assembler@asmjit@@QEAA@PEAURuntime@1@I@Z@4HA DD imagerel ?dtor$0@?0???0X86Assembler@asmjit@@QEAA@PEAURuntime@1@I@Z@4HA
	DD	imagerel ?dtor$0@?0???0X86Assembler@asmjit@@QEAA@PEAURuntime@1@I@Z@4HA+24
	DD	imagerel $unwind$?dtor$0@?0???0X86Assembler@asmjit@@QEAA@PEAURuntime@1@I@Z@4HA
pdata	ENDS
pdata	SEGMENT
$pdata$??1X86Assembler@asmjit@@UEAA@XZ DD imagerel $LN4
	DD	imagerel $LN4+40
	DD	imagerel $unwind$??1X86Assembler@asmjit@@UEAA@XZ
pdata	ENDS
pdata	SEGMENT
$pdata$?dtor$0@?0???1X86Assembler@asmjit@@UEAA@XZ@4HA DD imagerel ?dtor$0@?0???1X86Assembler@asmjit@@UEAA@XZ@4HA
	DD	imagerel ?dtor$0@?0???1X86Assembler@asmjit@@UEAA@XZ@4HA+24
	DD	imagerel $unwind$?dtor$0@?0???1X86Assembler@asmjit@@UEAA@XZ@4HA
pdata	ENDS
pdata	SEGMENT
$pdata$?setArch@X86Assembler@asmjit@@QEAAII@Z DD imagerel $LN4
	DD	imagerel $LN4+151
	DD	imagerel $unwind$?setArch@X86Assembler@asmjit@@QEAAII@Z
$pdata$?embedLabel@X86Assembler@asmjit@@QEAAIAEBULabel@2@@Z DD imagerel $LN19
	DD	imagerel $LN19+538
	DD	imagerel $unwind$?embedLabel@X86Assembler@asmjit@@QEAAIAEBULabel@2@@Z
$pdata$?align@X86Assembler@asmjit@@UEAAIII@Z DD imagerel $LN66
	DD	imagerel $LN66+1360
	DD	imagerel $unwind$?align@X86Assembler@asmjit@@UEAAIII@Z
$pdata$?_relocCode@X86Assembler@asmjit@@UEBA_KPEAX_K@Z DD imagerel $LN25
	DD	imagerel $LN25+818
	DD	imagerel $unwind$?_relocCode@X86Assembler@asmjit@@UEBA_KPEAX_K@Z
$pdata$?_emit@X86Assembler@asmjit@@UEAAIIAEBUOperand@2@000@Z DD imagerel $LN3
	DD	imagerel $LN3+72
	DD	imagerel $unwind$?_emit@X86Assembler@asmjit@@UEAAIIAEBUOperand@2@000@Z
pdata	ENDS
;	COMDAT pdata
pdata	SEGMENT
$pdata$??_GX86Assembler@asmjit@@UEAAPEAXI@Z DD imagerel $LN4
	DD	imagerel $LN4+60
	DD	imagerel $unwind$??_GX86Assembler@asmjit@@UEAAPEAXI@Z
pdata	ENDS
pdata	SEGMENT
$pdata$?x86RexFromOpCodeAndOptions@asmjit@@YAIII@Z DD imagerel ?x86RexFromOpCodeAndOptions@asmjit@@YAIII@Z
	DD	imagerel ?x86RexFromOpCodeAndOptions@asmjit@@YAIII@Z+43
	DD	imagerel $unwind$?x86RexFromOpCodeAndOptions@asmjit@@YAIII@Z
$pdata$?x86RexIsInvalid@asmjit@@YA_NI@Z DD imagerel ?x86RexIsInvalid@asmjit@@YA_NI@Z
	DD	imagerel ?x86RexIsInvalid@asmjit@@YA_NI@Z+43
	DD	imagerel $unwind$?x86RexIsInvalid@asmjit@@YA_NI@Z
$pdata$?x64IsRelative@asmjit@@YA_N_K0@Z DD imagerel ?x64IsRelative@asmjit@@YA_N_K0@Z
	DD	imagerel ?x64IsRelative@asmjit@@YA_N_K0@Z+50
	DD	imagerel $unwind$?x64IsRelative@asmjit@@YA_N_K0@Z
$pdata$?x86OpReg@asmjit@@YAIPEBUOperand@1@@Z DD imagerel ?x86OpReg@asmjit@@YAIPEBUOperand@1@@Z
	DD	imagerel ?x86OpReg@asmjit@@YAIPEBUOperand@1@@Z+24
	DD	imagerel $unwind$?x86OpReg@asmjit@@YAIPEBUOperand@1@@Z
pdata	ENDS
;	COMDAT pdata
pdata	SEGMENT
$pdata$??$isPowerOf2@I@IntUtil@asmjit@@SA_NI@Z DD imagerel $LN5
	DD	imagerel $LN5+58
	DD	imagerel $unwind$??$isPowerOf2@I@IntUtil@asmjit@@SA_NI@Z
pdata	ENDS
;	COMDAT pdata
pdata	SEGMENT
$pdata$??$deltaTo@_K@IntUtil@asmjit@@SA_K_K0@Z DD imagerel $LN3
	DD	imagerel $LN3+39
	DD	imagerel $unwind$??$deltaTo@_K@IntUtil@asmjit@@SA_K_K0@Z
pdata	ENDS
pdata	SEGMENT
$pdata$??$X86Assembler_emit@$01@asmjit@@YAIPEAUAssembler@0@IPEBUOperand@0@111@Z DD imagerel ??$X86Assembler_emit@$01@asmjit@@YAIPEAUAssembler@0@IPEBUOperand@0@111@Z
	DD	imagerel ??$X86Assembler_emit@$01@asmjit@@YAIPEAUAssembler@0@IPEBUOperand@0@111@Z+40956
	DD	imagerel $unwind$??$X86Assembler_emit@$01@asmjit@@YAIPEAUAssembler@0@IPEBUOperand@0@111@Z
pdata	ENDS
;	COMDAT pdata
pdata	SEGMENT
$pdata$??$iMin@I@IntUtil@asmjit@@SAIAEBI0@Z DD imagerel $LN5
	DD	imagerel $LN5+60
	DD	imagerel $unwind$??$iMin@I@IntUtil@asmjit@@SAIAEBI0@Z
pdata	ENDS
;	COMDAT pdata
pdata	SEGMENT
$pdata$??$isInt8@H@IntUtil@asmjit@@SA_NH@Z DD imagerel $LN11
	DD	imagerel $LN11+112
	DD	imagerel $unwind$??$isInt8@H@IntUtil@asmjit@@SA_NH@Z
pdata	ENDS
;	COMDAT ??_R2CodeGen@asmjit@@8
rdata$r	SEGMENT
??_R2CodeGen@asmjit@@8 DD imagerel ??_R1A@?0A@EA@CodeGen@asmjit@@8 ; asmjit::CodeGen::`RTTI Base Class Array'
	ORG $+3
rdata$r	ENDS
;	COMDAT ??_R3CodeGen@asmjit@@8
rdata$r	SEGMENT
??_R3CodeGen@asmjit@@8 DD 00H				; asmjit::CodeGen::`RTTI Class Hierarchy Descriptor'
	DD	00H
	DD	01H
	DD	imagerel ??_R2CodeGen@asmjit@@8
rdata$r	ENDS
;	COMDAT ??_R0?AUCodeGen@asmjit@@@8
data$rs	SEGMENT
??_R0?AUCodeGen@asmjit@@@8 DQ FLAT:??_7type_info@@6B@	; asmjit::CodeGen `RTTI Type Descriptor'
	DQ	0000000000000000H
	DB	'.?AUCodeGen@asmjit@@', 00H
data$rs	ENDS
;	COMDAT ??_R1A@?0A@EA@CodeGen@asmjit@@8
rdata$r	SEGMENT
??_R1A@?0A@EA@CodeGen@asmjit@@8 DD imagerel ??_R0?AUCodeGen@asmjit@@@8 ; asmjit::CodeGen::`RTTI Base Class Descriptor at (0,-1,0,64)'
	DD	00H
	DD	00H
	DD	0ffffffffH
	DD	00H
	DD	040H
	DD	imagerel ??_R3CodeGen@asmjit@@8
rdata$r	ENDS
;	COMDAT ??_R2Assembler@asmjit@@8
rdata$r	SEGMENT
??_R2Assembler@asmjit@@8 DD imagerel ??_R1A@?0A@EA@Assembler@asmjit@@8 ; asmjit::Assembler::`RTTI Base Class Array'
	DD	imagerel ??_R1A@?0A@EA@CodeGen@asmjit@@8
	ORG $+3
rdata$r	ENDS
;	COMDAT ??_R3Assembler@asmjit@@8
rdata$r	SEGMENT
??_R3Assembler@asmjit@@8 DD 00H				; asmjit::Assembler::`RTTI Class Hierarchy Descriptor'
	DD	00H
	DD	02H
	DD	imagerel ??_R2Assembler@asmjit@@8
rdata$r	ENDS
;	COMDAT ??_R0?AUAssembler@asmjit@@@8
data$rs	SEGMENT
??_R0?AUAssembler@asmjit@@@8 DQ FLAT:??_7type_info@@6B@	; asmjit::Assembler `RTTI Type Descriptor'
	DQ	0000000000000000H
	DB	'.?AUAssembler@asmjit@@', 00H
data$rs	ENDS
;	COMDAT ??_R1A@?0A@EA@Assembler@asmjit@@8
rdata$r	SEGMENT
??_R1A@?0A@EA@Assembler@asmjit@@8 DD imagerel ??_R0?AUAssembler@asmjit@@@8 ; asmjit::Assembler::`RTTI Base Class Descriptor at (0,-1,0,64)'
	DD	01H
	DD	00H
	DD	0ffffffffH
	DD	00H
	DD	040H
	DD	imagerel ??_R3Assembler@asmjit@@8
rdata$r	ENDS
;	COMDAT ??_R1A@?0A@EA@X86Assembler@asmjit@@8
rdata$r	SEGMENT
??_R1A@?0A@EA@X86Assembler@asmjit@@8 DD imagerel ??_R0?AUX86Assembler@asmjit@@@8 ; asmjit::X86Assembler::`RTTI Base Class Descriptor at (0,-1,0,64)'
	DD	02H
	DD	00H
	DD	0ffffffffH
	DD	00H
	DD	040H
	DD	imagerel ??_R3X86Assembler@asmjit@@8
rdata$r	ENDS
;	COMDAT ??_R2X86Assembler@asmjit@@8
rdata$r	SEGMENT
??_R2X86Assembler@asmjit@@8 DD imagerel ??_R1A@?0A@EA@X86Assembler@asmjit@@8 ; asmjit::X86Assembler::`RTTI Base Class Array'
	DD	imagerel ??_R1A@?0A@EA@Assembler@asmjit@@8
	DD	imagerel ??_R1A@?0A@EA@CodeGen@asmjit@@8
	ORG $+3
rdata$r	ENDS
;	COMDAT ??_R3X86Assembler@asmjit@@8
rdata$r	SEGMENT
??_R3X86Assembler@asmjit@@8 DD 00H			; asmjit::X86Assembler::`RTTI Class Hierarchy Descriptor'
	DD	00H
	DD	03H
	DD	imagerel ??_R2X86Assembler@asmjit@@8
rdata$r	ENDS
;	COMDAT ??_R0?AUX86Assembler@asmjit@@@8
data$rs	SEGMENT
??_R0?AUX86Assembler@asmjit@@@8 DQ FLAT:??_7type_info@@6B@ ; asmjit::X86Assembler `RTTI Type Descriptor'
	DQ	0000000000000000H
	DB	'.?AUX86Assembler@asmjit@@', 00H
data$rs	ENDS
;	COMDAT ??_R4X86Assembler@asmjit@@6B@
rdata$r	SEGMENT
??_R4X86Assembler@asmjit@@6B@ DD 01H			; asmjit::X86Assembler::`RTTI Complete Object Locator'
	DD	00H
	DD	00H
	DD	imagerel ??_R0?AUX86Assembler@asmjit@@@8
	DD	imagerel ??_R3X86Assembler@asmjit@@8
	DD	imagerel ??_R4X86Assembler@asmjit@@6B@
rdata$r	ENDS
;	COMDAT ?nop11@?BC@??align@X86Assembler@asmjit@@UEAAIII@Z@4QBEB
CONST	SEGMENT
?nop11@?BC@??align@X86Assembler@asmjit@@UEAAIII@Z@4QBEB DB 066H ; `asmjit::X86Assembler::align'::`18'::nop11
	DB	066H
	DB	066H
	DB	0fH
	DB	01fH
	DB	084H
	DB	00H
	DB	00H
	DB	00H
	DB	00H
	DB	00H
CONST	ENDS
;	COMDAT ?nop10@?BC@??align@X86Assembler@asmjit@@UEAAIII@Z@4QBEB
CONST	SEGMENT
?nop10@?BC@??align@X86Assembler@asmjit@@UEAAIII@Z@4QBEB DB 066H ; `asmjit::X86Assembler::align'::`18'::nop10
	DB	066H
	DB	0fH
	DB	01fH
	DB	084H
	DB	00H
	DB	00H
	DB	00H
	DB	00H
	DB	00H
CONST	ENDS
;	COMDAT ?nop9@?BC@??align@X86Assembler@asmjit@@UEAAIII@Z@4QBEB
CONST	SEGMENT
?nop9@?BC@??align@X86Assembler@asmjit@@UEAAIII@Z@4QBEB DB 066H ; `asmjit::X86Assembler::align'::`18'::nop9
	DB	0fH
	DB	01fH
	DB	084H
	DB	00H
	DB	00H
	DB	00H
	DB	00H
	DB	00H
CONST	ENDS
;	COMDAT ?nop8@?BC@??align@X86Assembler@asmjit@@UEAAIII@Z@4QBEB
CONST	SEGMENT
?nop8@?BC@??align@X86Assembler@asmjit@@UEAAIII@Z@4QBEB DB 0fH ; `asmjit::X86Assembler::align'::`18'::nop8
	DB	01fH
	DB	084H
	DB	00H
	DB	00H
	DB	00H
	DB	00H
	DB	00H
CONST	ENDS
;	COMDAT ?nop7@?BC@??align@X86Assembler@asmjit@@UEAAIII@Z@4QBEB
CONST	SEGMENT
?nop7@?BC@??align@X86Assembler@asmjit@@UEAAIII@Z@4QBEB DB 0fH ; `asmjit::X86Assembler::align'::`18'::nop7
	DB	01fH
	DB	080H
	DB	00H
	DB	00H
	DB	00H
	DB	00H
CONST	ENDS
;	COMDAT ?nop6@?BC@??align@X86Assembler@asmjit@@UEAAIII@Z@4QBEB
CONST	SEGMENT
?nop6@?BC@??align@X86Assembler@asmjit@@UEAAIII@Z@4QBEB DB 066H ; `asmjit::X86Assembler::align'::`18'::nop6
	DB	0fH
	DB	01fH
	DB	044H
	DB	00H
	DB	00H
CONST	ENDS
;	COMDAT ?nop5@?BC@??align@X86Assembler@asmjit@@UEAAIII@Z@4QBEB
CONST	SEGMENT
?nop5@?BC@??align@X86Assembler@asmjit@@UEAAIII@Z@4QBEB DB 0fH ; `asmjit::X86Assembler::align'::`18'::nop5
	DB	01fH
	DB	044H
	DB	00H
	DB	00H
CONST	ENDS
;	COMDAT ?nop4@?BC@??align@X86Assembler@asmjit@@UEAAIII@Z@4QBEB
CONST	SEGMENT
?nop4@?BC@??align@X86Assembler@asmjit@@UEAAIII@Z@4QBEB DB 0fH ; `asmjit::X86Assembler::align'::`18'::nop4
	DB	01fH
	DB	040H
	DB	00H
CONST	ENDS
;	COMDAT ?nop3@?BC@??align@X86Assembler@asmjit@@UEAAIII@Z@4QBEB
CONST	SEGMENT
?nop3@?BC@??align@X86Assembler@asmjit@@UEAAIII@Z@4QBEB DB 0fH ; `asmjit::X86Assembler::align'::`18'::nop3
	DB	01fH
	DB	00H
CONST	ENDS
;	COMDAT ?nop2@?BC@??align@X86Assembler@asmjit@@UEAAIII@Z@4QBEB
CONST	SEGMENT
?nop2@?BC@??align@X86Assembler@asmjit@@UEAAIII@Z@4QBEB DB 066H ; `asmjit::X86Assembler::align'::`18'::nop2
	DB	090H
CONST	ENDS
;	COMDAT ?nop1@?BC@??align@X86Assembler@asmjit@@UEAAIII@Z@4QBEB
CONST	SEGMENT
?nop1@?BC@??align@X86Assembler@asmjit@@UEAAIII@Z@4QBEB DB 090H ; `asmjit::X86Assembler::align'::`18'::nop1
CONST	ENDS
;	COMDAT ??_7X86Assembler@asmjit@@6B@
CONST	SEGMENT
??_7X86Assembler@asmjit@@6B@ DQ FLAT:??_R4X86Assembler@asmjit@@6B@ ; asmjit::X86Assembler::`vftable'
	DQ	FLAT:??_EX86Assembler@asmjit@@UEAAPEAXI@Z
	DQ	FLAT:?make@Assembler@asmjit@@UEAAPEAXXZ
	DQ	FLAT:?bind@Assembler@asmjit@@UEAAIAEBULabel@2@@Z
	DQ	FLAT:?embed@Assembler@asmjit@@UEAAIPEBXI@Z
	DQ	FLAT:?align@X86Assembler@asmjit@@UEAAIII@Z
	DQ	FLAT:?_relocCode@X86Assembler@asmjit@@UEBA_KPEAX_K@Z
	DQ	FLAT:?_emit@X86Assembler@asmjit@@UEAAIIAEBUOperand@2@000@Z
CONST	ENDS
;	COMDAT xdata
xdata	SEGMENT
$unwind$??$isInt8@H@IntUtil@asmjit@@SA_NH@Z DD 010801H
	DD	02208H
xdata	ENDS
;	COMDAT xdata
xdata	SEGMENT
$unwind$??$iMin@I@IntUtil@asmjit@@SAIAEBI0@Z DD 010e01H
	DD	0220eH
xdata	ENDS
;	COMDAT xdata
xdata	SEGMENT
$unwind$??$deltaTo@_K@IntUtil@asmjit@@SA_K_K0@Z DD 010e01H
	DD	0420eH
xdata	ENDS
;	COMDAT xdata
xdata	SEGMENT
$unwind$??$isPowerOf2@I@IntUtil@asmjit@@SA_NI@Z DD 010801H
	DD	02208H
xdata	ENDS
;	COMDAT xdata
xdata	SEGMENT
$unwind$??_GX86Assembler@asmjit@@UEAAPEAXI@Z DD 010d01H
	DD	0420dH
xdata	ENDS
voltbl	SEGMENT
_volmd	DD	0ffffffffH
	DDSymXIndex: 	FLAT:??$X86Assembler_emit@$01@asmjit@@YAIPEAUAssembler@0@IPEBUOperand@0@111@Z
	DD	024H
	DD	09e2dH
_volmd	DD	0ffffffffH
	DDSymXIndex: 	FLAT:?embedLabel@X86Assembler@asmjit@@QEAAIAEBULabel@2@@Z
	DD	018H
	DD	0208H
voltbl	ENDS
xdata	SEGMENT
$unwind$??0X86Assembler@asmjit@@QEAA@PEAURuntime@1@I@Z DD 011311H
	DD	0c213H
	DD	imagerel __CxxFrameHandler4
	DD	imagerel $cppxdata$??0X86Assembler@asmjit@@QEAA@PEAURuntime@1@I@Z
$cppxdata$??0X86Assembler@asmjit@@QEAA@PEAURuntime@1@I@Z DB 08H
	DD	imagerel $stateUnwindMap$??0X86Assembler@asmjit@@QEAA@PEAURuntime@1@I@Z
	DD	imagerel $ip2state$??0X86Assembler@asmjit@@QEAA@PEAURuntime@1@I@Z
$stateUnwindMap$??0X86Assembler@asmjit@@QEAA@PEAURuntime@1@I@Z DB 02H
	DB	0eH
	DD	imagerel ?dtor$0@?0???0X86Assembler@asmjit@@QEAA@PEAURuntime@1@I@Z@4HA
$ip2state$??0X86Assembler@asmjit@@QEAA@PEAURuntime@1@I@Z DB 06H
	DB	00H
	DB	00H
	DB	'F'
	DB	02H
	DB	0a5H, 04H
	DB	00H
	ORG $+1
$unwind$?dtor$0@?0???0X86Assembler@asmjit@@QEAA@PEAURuntime@1@I@Z@4HA DD 020601H
	DD	050023206H
$unwind$??1X86Assembler@asmjit@@UEAA@XZ DD 010911H
	DD	04209H
	DD	imagerel __CxxFrameHandler4
	DD	imagerel $cppxdata$??1X86Assembler@asmjit@@UEAA@XZ
$cppxdata$??1X86Assembler@asmjit@@UEAA@XZ DB 048H
	DD	imagerel $stateUnwindMap$??1X86Assembler@asmjit@@UEAA@XZ
	DD	imagerel $ip2state$??1X86Assembler@asmjit@@UEAA@XZ
$stateUnwindMap$??1X86Assembler@asmjit@@UEAA@XZ DB 02H
	DB	0eH
	DD	imagerel ?dtor$0@?0???1X86Assembler@asmjit@@UEAA@XZ@4HA
$ip2state$??1X86Assembler@asmjit@@UEAA@XZ DB 02H
	DB	00H
	DB	00H
	ORG $+2
$unwind$?dtor$0@?0???1X86Assembler@asmjit@@UEAA@XZ@4HA DD 020601H
	DD	050023206H
$unwind$?setArch@X86Assembler@asmjit@@QEAAII@Z DD 010d01H
	DD	0420dH
$unwind$?embedLabel@X86Assembler@asmjit@@QEAAIAEBULabel@2@@Z DD 011d19H
	DD	0e20eH
	DD	imagerel __GSHandlerCheck
	DD	068H
$unwind$?align@X86Assembler@asmjit@@UEAAIII@Z DD 011201H
	DD	0e212H
$unwind$?_relocCode@X86Assembler@asmjit@@UEBA_KPEAX_K@Z DD 021601H
	DD	0130116H
$unwind$?_emit@X86Assembler@asmjit@@UEAAIIAEBUOperand@2@000@Z DD 011701H
	DD	06217H
$unwind$?x86RexFromOpCodeAndOptions@asmjit@@YAIII@Z DD 010c01H
	DD	0220cH
$unwind$?x86RexIsInvalid@asmjit@@YA_NI@Z DD 010801H
	DD	02208H
$unwind$?x64IsRelative@asmjit@@YA_N_K0@Z DD 010e01H
	DD	0620eH
$unwind$?x86OpReg@asmjit@@YAIPEBUOperand@1@@Z DD 010901H
	DD	04209H
$unwind$??$X86Assembler_emit@$01@asmjit@@YAIPEAUAssembler@0@IPEBUOperand@0@111@Z DD 022c19H
	DD	0b1011aH
	DD	imagerel __GSHandlerCheck
	DD	0570H
xdata	ENDS
;	COMDAT xdata
xdata	SEGMENT
$unwind$?hasBaseOrIndex@X86Mem@asmjit@@QEBA_NXZ DD 010901H
	DD	02209H
xdata	ENDS
;	COMDAT xdata
xdata	SEGMENT
$unwind$?hasGpdBase@X86Mem@asmjit@@QEBA_NXZ DD 010901H
	DD	06209H
xdata	ENDS
;	COMDAT xdata
xdata	SEGMENT
$unwind$?hasSegment@X86Mem@asmjit@@QEBA_NXZ DD 010901H
	DD	02209H
xdata	ENDS
;	COMDAT xdata
xdata	SEGMENT
$unwind$??0X86GpReg@asmjit@@QEAA@AEBU_NoInit@1@@Z DD 010e01H
	DD	0420eH
xdata	ENDS
;	COMDAT xdata
xdata	SEGMENT
$unwind$?isGpbReg@X86Reg@asmjit@@SA_NAEBUOperand@2@@Z DD 010901H
	DD	06209H
xdata	ENDS
;	COMDAT xdata
xdata	SEGMENT
$unwind$?isSeg@X86Reg@asmjit@@QEBA_NXZ DD 010901H
	DD	02209H
xdata	ENDS
;	COMDAT xdata
xdata	SEGMENT
$unwind$?isYmm@X86Reg@asmjit@@QEBA_NXZ DD 010901H
	DD	02209H
xdata	ENDS
;	COMDAT xdata
xdata	SEGMENT
$unwind$?isXmm@X86Reg@asmjit@@QEBA_NXZ DD 010901H
	DD	02209H
xdata	ENDS
;	COMDAT xdata
xdata	SEGMENT
$unwind$?isMm@X86Reg@asmjit@@QEBA_NXZ DD 010901H
	DD	02209H
xdata	ENDS
;	COMDAT xdata
xdata	SEGMENT
$unwind$?isGpq@X86Reg@asmjit@@QEBA_NXZ DD 010901H
	DD	02209H
xdata	ENDS
;	COMDAT xdata
xdata	SEGMENT
$unwind$?isGpbLo@X86Reg@asmjit@@QEBA_NXZ DD 010901H
	DD	02209H
xdata	ENDS
;	COMDAT xdata
xdata	SEGMENT
$unwind$?isGp@X86Reg@asmjit@@QEBA_NXZ DD 010901H
	DD	02209H
xdata	ENDS
;	COMDAT xdata
xdata	SEGMENT
$unwind$??0X86Reg@asmjit@@QEAA@AEBU_NoInit@1@@Z DD 010e01H
	DD	0420eH
xdata	ENDS
;	COMDAT xdata
xdata	SEGMENT
$unwind$?hasInstFlag@X86InstInfo@asmjit@@QEBA_NI@Z DD 010d01H
	DD	0620dH
xdata	ENDS
;	COMDAT xdata
xdata	SEGMENT
$unwind$?getInstFlags@X86InstInfo@asmjit@@QEBAIXZ DD 010901H
	DD	04209H
xdata	ENDS
;	COMDAT xdata
xdata	SEGMENT
$unwind$?getEncodingId@X86InstInfo@asmjit@@QEBAIXZ DD 010901H
	DD	04209H
xdata	ENDS
;	COMDAT xdata
xdata	SEGMENT
$unwind$?isLockable@X86InstExtendedInfo@asmjit@@QEBA_NXZ DD 010901H
	DD	06209H
xdata	ENDS
;	COMDAT xdata
xdata	SEGMENT
$unwind$??A?$PodVector@URelocData@asmjit@@@asmjit@@QEAAAEAURelocData@1@_K@Z DD 010e01H
	DD	0420eH
xdata	ENDS
;	COMDAT xdata
xdata	SEGMENT
$unwind$?append@?$PodVector@URelocData@asmjit@@@asmjit@@QEAAIAEBURelocData@2@@Z DD 010e01H
	DD	0620eH
xdata	ENDS
;	COMDAT xdata
xdata	SEGMENT
$unwind$?_grow@?$PodVector@URelocData@asmjit@@@asmjit@@QEAAI_K@Z DD 010e01H
	DD	0420eH
xdata	ENDS
;	COMDAT xdata
xdata	SEGMENT
$unwind$?getData@?$PodVector@URelocData@asmjit@@@asmjit@@QEBAPEBURelocData@2@XZ DD 010901H
	DD	04209H
xdata	ENDS
;	COMDAT xdata
xdata	SEGMENT
$unwind$?getData@?$PodVector@URelocData@asmjit@@@asmjit@@QEAAPEAURelocData@2@XZ DD 010901H
	DD	04209H
xdata	ENDS
;	COMDAT xdata
xdata	SEGMENT
$unwind$??A?$PodVector@ULabelData@asmjit@@@asmjit@@QEBAAEBULabelData@1@_K@Z DD 010e01H
	DD	0420eH
xdata	ENDS
;	COMDAT xdata
xdata	SEGMENT
$unwind$?getData@?$PodVector@ULabelData@asmjit@@@asmjit@@QEBAPEBULabelData@2@XZ DD 010901H
	DD	04209H
xdata	ENDS
;	COMDAT xdata
xdata	SEGMENT
$unwind$?getLabelData@Assembler@asmjit@@QEBAPEAULabelData@2@I@Z DD 010d01H
	DD	0620dH
xdata	ENDS
;	COMDAT xdata
xdata	SEGMENT
$unwind$?getCodeSize@Assembler@asmjit@@QEBA_KXZ DD 010901H
	DD	06209H
xdata	ENDS
;	COMDAT xdata
xdata	SEGMENT
$unwind$??$isInt32@_J@IntUtil@asmjit@@SA_N_J@Z DD 010901H
	DD	04209H
xdata	ENDS
;	COMDAT xdata
xdata	SEGMENT
$unwind$??$isInt8@_J@IntUtil@asmjit@@SA_N_J@Z DD 010901H
	DD	02209H
xdata	ENDS
;	COMDAT xdata
xdata	SEGMENT
$unwind$?isBaseIndexType@BaseMem@asmjit@@QEBA_NXZ DD 010901H
	DD	02209H
xdata	ENDS
;	COMDAT xdata
xdata	SEGMENT
$unwind$?isRegType@Reg@asmjit@@QEBA_NI@Z DD 010d01H
	DD	0220dH
xdata	ENDS
;	COMDAT xdata
xdata	SEGMENT
$unwind$??0Reg@asmjit@@QEAA@AEBU_NoInit@1@@Z DD 010e01H
	DD	0420eH
xdata	ENDS
;	COMDAT xdata
xdata	SEGMENT
$unwind$?isRegType@Operand@asmjit@@QEBA_NI@Z DD 010d01H
	DD	0620dH
xdata	ENDS
;	COMDAT xdata
xdata	SEGMENT
$unwind$?isImm@Operand@asmjit@@QEBA_NXZ DD 010901H
	DD	02209H
xdata	ENDS
;	COMDAT xdata
xdata	SEGMENT
$unwind$?isMem@Operand@asmjit@@QEBA_NXZ DD 010901H
	DD	02209H
xdata	ENDS
;	COMDAT xdata
xdata	SEGMENT
$unwind$?isReg@Operand@asmjit@@QEBA_NXZ DD 010901H
	DD	02209H
xdata	ENDS
;	COMDAT xdata
xdata	SEGMENT
$unwind$?getInstOptionsAndReset@CodeGen@asmjit@@QEAAIXZ DD 010901H
	DD	02209H
xdata	ENDS
;	COMDAT xdata
xdata	SEGMENT
$unwind$?hasFeature@CodeGen@asmjit@@QEBA_NI@Z DD 010d01H
	DD	0220dH
xdata	ENDS
; Function compile flags: /Odtp
; File D:\c++\paoda\ThirdParty\AsmJit\base\intutil.h
;	COMDAT ??$isInt8@H@IntUtil@asmjit@@SA_NH@Z
_TEXT	SEGMENT
tv67 = 0
tv69 = 4
tv72 = 8
x$ = 32
??$isInt8@H@IntUtil@asmjit@@SA_NH@Z PROC		; asmjit::IntUtil::isInt8<int>, COMDAT

; 149  :   static ASMJIT_INLINE bool isInt8(T x) {

$LN11:
	mov	DWORD PTR [rsp+8], ecx
	sub	rsp, 24

; 150  :     if (IntTraits<T>::kIsSigned)

	xor	eax, eax
	cmp	eax, 1
	je	SHORT $LN2@isInt8

; 151  :       return sizeof(T) <= sizeof(int8_t) ? true : x >= T(-128) && x <= T(127);

	xor	eax, eax
	test	eax, eax
	je	SHORT $LN7@isInt8
	mov	DWORD PTR tv69[rsp], 1
	jmp	SHORT $LN8@isInt8
$LN7@isInt8:
	cmp	DWORD PTR x$[rsp], -128			; ffffffffffffff80H
	jl	SHORT $LN5@isInt8
	cmp	DWORD PTR x$[rsp], 127			; 0000007fH
	jg	SHORT $LN5@isInt8
	mov	DWORD PTR tv67[rsp], 1
	jmp	SHORT $LN6@isInt8
$LN5@isInt8:
	mov	DWORD PTR tv67[rsp], 0
$LN6@isInt8:
	mov	eax, DWORD PTR tv67[rsp]
	mov	DWORD PTR tv69[rsp], eax
$LN8@isInt8:
	movzx	eax, BYTE PTR tv69[rsp]
	jmp	SHORT $LN1@isInt8
	jmp	SHORT $LN3@isInt8
$LN2@isInt8:

; 152  :     else
; 153  :       return x <= T(127);

	cmp	DWORD PTR x$[rsp], 127			; 0000007fH
	jg	SHORT $LN9@isInt8
	mov	DWORD PTR tv72[rsp], 1
	jmp	SHORT $LN10@isInt8
$LN9@isInt8:
	mov	DWORD PTR tv72[rsp], 0
$LN10@isInt8:
	movzx	eax, BYTE PTR tv72[rsp]
$LN3@isInt8:
$LN1@isInt8:

; 154  :   }

	add	rsp, 24
	ret	0
??$isInt8@H@IntUtil@asmjit@@SA_NH@Z ENDP		; asmjit::IntUtil::isInt8<int>
_TEXT	ENDS
; Function compile flags: /Odtp
; File D:\c++\paoda\ThirdParty\AsmJit\base\intutil.h
;	COMDAT ??$iMin@I@IntUtil@asmjit@@SAIAEBI0@Z
_TEXT	SEGMENT
tv65 = 0
a$ = 32
b$ = 40
??$iMin@I@IntUtil@asmjit@@SAIAEBI0@Z PROC		; asmjit::IntUtil::iMin<unsigned int>, COMDAT

; 119  :   static ASMJIT_INLINE T iMin(const T& a, const T& b) { return a < b ? a : b; }

$LN5:
	mov	QWORD PTR [rsp+16], rdx
	mov	QWORD PTR [rsp+8], rcx
	sub	rsp, 24
	mov	rax, QWORD PTR a$[rsp]
	mov	rcx, QWORD PTR b$[rsp]
	mov	ecx, DWORD PTR [rcx]
	cmp	DWORD PTR [rax], ecx
	jae	SHORT $LN3@iMin
	mov	rax, QWORD PTR a$[rsp]
	mov	eax, DWORD PTR [rax]
	mov	DWORD PTR tv65[rsp], eax
	jmp	SHORT $LN4@iMin
$LN3@iMin:
	mov	rax, QWORD PTR b$[rsp]
	mov	eax, DWORD PTR [rax]
	mov	DWORD PTR tv65[rsp], eax
$LN4@iMin:
	mov	eax, DWORD PTR tv65[rsp]
	add	rsp, 24
	ret	0
??$iMin@I@IntUtil@asmjit@@SAIAEBI0@Z ENDP		; asmjit::IntUtil::iMin<unsigned int>
_TEXT	ENDS
; Function compile flags: /Odtp
; File D:\c++\paoda\ThirdParty\AsmJit\base\intutil.h
;	COMDAT ??$alignTo@_K@IntUtil@asmjit@@SA_K_K0@Z
_TEXT	SEGMENT
base$ = 8
alignment$ = 16
??$alignTo@_K@IntUtil@asmjit@@SA_K_K0@Z PROC		; asmjit::IntUtil::alignTo<unsigned __int64>, COMDAT

; 401  :   static ASMJIT_INLINE T alignTo(T base, T alignment) {

	mov	QWORD PTR [rsp+16], rdx
	mov	QWORD PTR [rsp+8], rcx

; 402  :     return (base + (alignment - 1)) & ~(alignment - 1);

	mov	rax, QWORD PTR base$[rsp]
	mov	rcx, QWORD PTR alignment$[rsp]
	lea	rax, QWORD PTR [rax+rcx-1]
	mov	rcx, QWORD PTR alignment$[rsp]
	dec	rcx
	not	rcx
	and	rax, rcx

; 403  :   }

	ret	0
??$alignTo@_K@IntUtil@asmjit@@SA_K_K0@Z ENDP		; asmjit::IntUtil::alignTo<unsigned __int64>
_TEXT	ENDS
; Function compile flags: /Odtp
; File D:\c++\paoda\ThirdParty\AsmJit\x86\x86assembler.cpp
_TEXT	SEGMENT
opCode$ = 32
cursor$ = 40
opReg$ = 48
encoded$ = 52
$S1$ = 56
imLen$ = 64
dispOffset$ = 68
imVal$ = 72
options$ = 80
mBase$ = 84
mIndex$ = 88
self$ = 96
vex_XvvvvLpp$1 = 104
vex_XvvvvLpp$2 = 108
vex_XvvvvLpp$3 = 112
extendedInfo$ = 120
imm8$4 = 128
rex$5 = 132
label$ = 136
vex_rxbmmmmm$6 = 144
vex_rxbmmmmm$7 = 148
dispSize$ = 152
xop_XvvvvLpp$8 = 156
vex_rxbmmmmm$9 = 160
vex_XvvvvLpp$10 = 164
rex$11 = 168
vex_rxbmmmmm$12 = 172
rex$13 = 176
xop_rxbmmmmm$14 = 180
ppCode$15 = 184
ppCode$16 = 185
ppCode$17 = 186
ppCode$18 = 187
ppCode$19 = 188
vex_XvvvvLpp$20 = 192
info$ = 200
memSize$21 = 208
memSize$22 = 212
rex$23 = 216
relocId$ = 224
tv4829 = 232
shift$24 = 236
shift$25 = 240
tv329 = 244
tv353 = 248
tv376 = 252
tv410 = 256
tv435 = 260
tv449 = 264
tv450 = 268
tv469 = 272
tv472 = 276
tv473 = 280
tv667 = 284
tv678 = 288
tv713 = 292
tv732 = 296
tv753 = 300
tv784 = 304
tv790 = 308
tv1163 = 312
tv1211 = 316
tv1253 = 320
tv1291 = 324
tv1312 = 328
tv1328 = 332
tv1351 = 336
tv1390 = 340
tv1422 = 344
segment$26 = 348
tv1479 = 352
tv1483 = 356
segment$27 = 360
tv1556 = 364
tv1588 = 368
tv1606 = 372
tv1705 = 376
tv1728 = 380
tv1751 = 384
tv1786 = 388
tv1825 = 392
tv1875 = 396
tv1881 = 400
tv1919 = 404
tv2036 = 408
tv2047 = 412
tv2136 = 416
tv2152 = 420
tv2174 = 424
tv2197 = 428
tv2431 = 432
tv2453 = 436
vSib$28 = 440
tv3611 = 444
ppIndex$29 = 448
mmIndex$30 = 452
ppIndex$31 = 456
mmIndex$32 = 460
ppIndex$33 = 464
mmIndex$34 = 468
ppIndex$35 = 472
tv4392 = 476
tv4397 = 480
mmIndex$36 = 484
ppIndex$37 = 488
tv5054 = 492
tv5059 = 496
tv5174 = 500
tv5179 = 504
tv5512 = 508
tv5517 = 512
trampolineSize$38 = 516
errval_$39 = 520
tv188 = 524
index$40 = 528
tv209 = 532
index$41 = 536
tv227 = 540
tv233 = 544
tv258 = 548
tv281 = 552
link$42 = 560
$T43 = 568
$T44 = 572
$T45 = 576
$T46 = 580
tv2484 = 584
tv2486 = 588
tv2552 = 592
tv2554 = 596
tv2642 = 600
tv2644 = 604
tv2683 = 608
tv2714 = 612
tv2753 = 616
tv2755 = 620
tv2786 = 624
tv2788 = 628
tv2825 = 632
tv2827 = 636
tv2858 = 640
tv2860 = 644
tv2897 = 648
tv2899 = 652
tv2915 = 656
tv2913 = 660
tv2930 = 664
tv2928 = 668
tv2948 = 672
tv2950 = 676
tv2974 = 680
tv2972 = 684
tv2989 = 688
tv2987 = 692
tv3007 = 696
tv3009 = 700
tv3035 = 704
tv3033 = 708
tv3050 = 712
tv3048 = 716
tv3064 = 720
tv3062 = 724
tv3079 = 728
tv3077 = 732
tv3103 = 736
tv3101 = 740
tv3118 = 744
tv3116 = 748
tv3136 = 752
tv3138 = 756
tv3178 = 760
tv3180 = 764
tv3196 = 768
tv3194 = 772
tv3211 = 776
tv3209 = 780
tv3246 = 784
tv3244 = 788
tv3261 = 792
tv3259 = 796
tv3292 = 800
tv3294 = 804
tv3310 = 808
tv3308 = 812
tv3325 = 816
tv3323 = 820
tv3343 = 824
tv3341 = 828
tv3361 = 832
tv3363 = 836
tv3379 = 840
tv3377 = 844
tv3394 = 848
tv3392 = 852
tv3458 = 856
tv3460 = 860
tv3503 = 864
tv3505 = 868
tv3529 = 872
tv3527 = 876
tv3552 = 880
tv3550 = 884
tv3576 = 888
tv3574 = 892
tv3604 = 896
tv3602 = 900
tv3626 = 904
tv3624 = 908
vSib$47 = 912
tv3647 = 916
tv3649 = 920
tv3669 = 924
tv3671 = 928
tv3695 = 932
tv3693 = 936
tv3718 = 940
tv3716 = 944
tv3742 = 948
tv3740 = 952
tv3760 = 956
tv3762 = 960
tv3789 = 964
tv3787 = 968
tv3804 = 972
tv3802 = 976
tv3818 = 980
tv3816 = 984
tv3834 = 988
tv3832 = 992
tv3849 = 996
tv3847 = 1000
tv3863 = 1004
tv3861 = 1008
tv3902 = 1012
tv3904 = 1016
tv3928 = 1020
tv3926 = 1024
tv3943 = 1028
tv3941 = 1032
tv3961 = 1036
tv3963 = 1040
tv3989 = 1044
tv3987 = 1048
tv4004 = 1052
tv4002 = 1056
tv4022 = 1060
tv4024 = 1064
tv4048 = 1068
tv4046 = 1072
tv4071 = 1076
tv4069 = 1080
tv4095 = 1084
tv4093 = 1088
shift$48 = 1092
shift$49 = 1096
vex_rxbmmmmm$50 = 1100
shift$51 = 1104
tv75 = 1108
tv79 = 1112
$T52 = 1116
$T53 = 1120
tv438 = 1124
$T54 = 1128
$T55 = 1132
$T56 = 1136
$T57 = 1140
offs$58 = 1144
offs$59 = 1152
mmCode$60 = 1160
mmCode$61 = 1168
mmCode$62 = 1176
mmCode$63 = 1184
offs$64 = 1192
tv4727 = 1200
tv5402 = 1208
baseAddress$65 = 1216
offs$66 = 1224
tv4703 = 1232
tv4724 = 1240
tv4731 = 1248
tv4729 = 1256
tv5378 = 1264
tv5399 = 1272
tv5406 = 1280
tv5404 = 1288
tv5593 = 1296
kRel8Size$67 = 1304
kRel32Size$68 = 1312
rd$69 = 1320
rd$70 = 1344
rd$71 = 1368
__$ArrayPad$ = 1392
self_$ = 1424
code$ = 1432
o0$ = 1440
o1$ = 1448
o2$ = 1456
o3$ = 1464
??$X86Assembler_emit@$01@asmjit@@YAIPEAUAssembler@0@IPEBUOperand@0@111@Z PROC ; asmjit::X86Assembler_emit<2>

; 985  : static Error ASMJIT_CDECL X86Assembler_emit(Assembler* self_, uint32_t code, const Operand* o0, const Operand* o1, const Operand* o2, const Operand* o3) {

	mov	QWORD PTR [rsp+32], r9
	mov	QWORD PTR [rsp+24], r8
	mov	DWORD PTR [rsp+16], edx
	mov	QWORD PTR [rsp+8], rcx
	sub	rsp, 1416				; 00000588H
	mov	rax, QWORD PTR __security_cookie
	xor	rax, rsp
	mov	QWORD PTR __$ArrayPad$[rsp], rax

; 986  :   X86Assembler* self = static_cast<X86Assembler*>(self_);

	mov	rax, QWORD PTR self_$[rsp]
	mov	QWORD PTR self$[rsp], rax

; 987  : 
; 988  :   uint8_t* cursor = self->getCursor();

	mov	rcx, QWORD PTR self$[rsp]
	call	?getCursor@Assembler@asmjit@@QEBAPEAEXZ	; asmjit::Assembler::getCursor
	mov	QWORD PTR cursor$[rsp], rax

; 989  :   uint32_t encoded = o0->getOp() + (o1->getOp() << 3) + (o2->getOp() << 6);

	mov	rcx, QWORD PTR o0$[rsp]
	call	?getOp@Operand@asmjit@@QEBAIXZ		; asmjit::Operand::getOp
	mov	DWORD PTR tv75[rsp], eax
	mov	rcx, QWORD PTR o1$[rsp]
	call	?getOp@Operand@asmjit@@QEBAIXZ		; asmjit::Operand::getOp
	mov	ecx, DWORD PTR tv75[rsp]
	lea	eax, DWORD PTR [rcx+rax*8]
	mov	DWORD PTR tv79[rsp], eax
	mov	rcx, QWORD PTR o2$[rsp]
	call	?getOp@Operand@asmjit@@QEBAIXZ		; asmjit::Operand::getOp
	shl	eax, 6
	mov	ecx, DWORD PTR tv79[rsp]
	add	ecx, eax
	mov	eax, ecx
	mov	DWORD PTR encoded$[rsp], eax

; 990  :   uint32_t options = self->getInstOptionsAndReset();

	mov	rcx, QWORD PTR self$[rsp]
	call	?getInstOptionsAndReset@CodeGen@asmjit@@QEAAIXZ ; asmjit::CodeGen::getInstOptionsAndReset
	mov	DWORD PTR options$[rsp], eax

; 991  : 
; 992  :   // Invalid instruction.
; 993  :   if (code >= _kX86InstIdCount) {

	cmp	DWORD PTR code$[rsp], 1062		; 00000426H
	jb	SHORT $LN996@X86Assembl

; 994  :     self->_comment = NULL;

	mov	rax, QWORD PTR self$[rsp]
	mov	QWORD PTR [rax+104], 0

; 995  :     return self->setError(kErrorUnknownInst);

	xor	r8d, r8d
	mov	edx, 8
	mov	rcx, QWORD PTR self$[rsp]
	call	?setError@CodeGen@asmjit@@QEAAIIPEBD@Z	; asmjit::CodeGen::setError
	jmp	$LN1@X86Assembl
$LN996@X86Assembl:

; 996  :   }
; 997  : 
; 998  :   // Instruction opcode.
; 999  :   uint32_t opCode;
; 1000 :   // ModR/M opcode or register code.
; 1001 :   uint32_t opReg;
; 1002 : 
; 1003 :   // ModR/M, both rmReg and rmMem should refer to the same variable since they
; 1004 :   // are never used together - either `rmReg` or `rmMem`.
; 1005 :   union {
; 1006 :     // ModR/M - register code.
; 1007 :     uintptr_t rmReg;
; 1008 :     // ModR/M - Memory operand.
; 1009 :     const X86Mem* rmMem;
; 1010 :   };
; 1011 : 
; 1012 :   // Immediate value.
; 1013 :   int64_t imVal = 0;

	mov	QWORD PTR imVal$[rsp], 0

; 1014 :   // Immediate length.
; 1015 :   uint32_t imLen = 0;

	mov	DWORD PTR imLen$[rsp], 0

; 1016 : 
; 1017 :   // Memory operand base register index.
; 1018 :   uint32_t mBase;
; 1019 :   // Memory operand index register index.
; 1020 :   uint32_t mIndex;
; 1021 : 
; 1022 :   // Label.
; 1023 :   LabelData* label;
; 1024 :   // Displacement offset
; 1025 :   int32_t dispOffset;
; 1026 :   // Displacement size.
; 1027 :   uint32_t dispSize = 0;

	mov	DWORD PTR dispSize$[rsp], 0

; 1028 :   // Displacement relocation id.
; 1029 :   intptr_t relocId;
; 1030 : 
; 1031 : #if defined(ASMJIT_DEBUG)
; 1032 :   bool assertIllegal = false;
; 1033 : #endif // ASMJIT_DEBUG
; 1034 : 
; 1035 :   const X86InstInfo& info = _x86InstInfo[code];

	mov	eax, DWORD PTR code$[rsp]
	lea	rcx, OFFSET FLAT:?_x86InstInfo@asmjit@@3QBUX86InstInfo@1@B ; asmjit::_x86InstInfo
	lea	rax, QWORD PTR [rcx+rax*8]
	mov	QWORD PTR info$[rsp], rax

; 1036 :   const X86InstExtendedInfo& extendedInfo = info.getExtendedInfo();

	mov	rcx, QWORD PTR info$[rsp]
	call	?getExtendedInfo@X86InstInfo@asmjit@@QEBAAEBUX86InstExtendedInfo@2@XZ ; asmjit::X86InstInfo::getExtendedInfo
	mov	QWORD PTR extendedInfo$[rsp], rax

; 1037 : 
; 1038 :   // Grow request happens rarely. C++ compiler generates better code if it is
; 1039 :   // handled at the end of the function.
; 1040 :   if ((size_t)(self->_end - cursor) < 16)

	mov	rax, QWORD PTR self$[rsp]
	mov	rcx, QWORD PTR cursor$[rsp]
	mov	rax, QWORD PTR [rax+80]
	sub	rax, rcx
	cmp	rax, 16
	jae	SHORT $LN997@X86Assembl

; 1041 :     goto _GrowBuffer;

	jmp	$LN998@X86Assembl
	jmp	$_GrowBuffer$1948
$LN997@X86Assembl:
$_Prepare$1949:

; 1042 : 
; 1043 :   // --------------------------------------------------------------------------
; 1044 :   // [Prepare]
; 1045 :   // --------------------------------------------------------------------------
; 1046 : 
; 1047 : _Prepare:
; 1048 :   opCode = info.getPrimaryOpCode();

	mov	rcx, QWORD PTR info$[rsp]
	call	?getPrimaryOpCode@X86InstInfo@asmjit@@QEBAIXZ ; asmjit::X86InstInfo::getPrimaryOpCode
	mov	DWORD PTR opCode$[rsp], eax

; 1049 :   opReg = x86ExtractO(opCode);

	mov	ecx, DWORD PTR opCode$[rsp]
	call	?x86ExtractO@asmjit@@YAII@Z		; asmjit::x86ExtractO
	mov	DWORD PTR opReg$[rsp], eax

; 1050 : 
; 1051 :   if (Arch == kArchX86) {

	xor	eax, eax
	test	eax, eax
	je	$LN999@X86Assembl

; 1052 :     // Check if one or more register operand is one of AH, BH, CH, or DH and
; 1053 :     // patch them to ensure that the binary code with correct byte-index (4-7)
; 1054 :     // is generated.
; 1055 :     if (o0->isRegType(kX86RegTypeGpbHi))

	mov	edx, 2
	mov	rcx, QWORD PTR o0$[rsp]
	call	?isRegType@Operand@asmjit@@QEBA_NI@Z	; asmjit::Operand::isRegType
	movzx	eax, al
	test	eax, eax
	je	SHORT $LN1001@X86Assembl

; 1056 :       o0 = (const Operand*)(&x86PatchedHiRegs[x86OpReg(o0)]);

	mov	rcx, QWORD PTR o0$[rsp]
	call	?x86OpReg@asmjit@@YAIPEBUOperand@1@@Z	; asmjit::x86OpReg
	mov	eax, eax
	imul	rax, rax, 16
	lea	rcx, OFFSET FLAT:?x86PatchedHiRegs@asmjit@@3QBUVRegOp@Operand@1@B
	add	rcx, rax
	mov	rax, rcx
	mov	QWORD PTR o0$[rsp], rax
$LN1001@X86Assembl:

; 1057 : 
; 1058 :     if (o1->isRegType(kX86RegTypeGpbHi))

	mov	edx, 2
	mov	rcx, QWORD PTR o1$[rsp]
	call	?isRegType@Operand@asmjit@@QEBA_NI@Z	; asmjit::Operand::isRegType
	movzx	eax, al
	test	eax, eax
	je	SHORT $LN1002@X86Assembl

; 1059 :       o1 = (const Operand*)(&x86PatchedHiRegs[x86OpReg(o1)]);

	mov	rcx, QWORD PTR o1$[rsp]
	call	?x86OpReg@asmjit@@YAIPEBUOperand@1@@Z	; asmjit::x86OpReg
	mov	eax, eax
	imul	rax, rax, 16
	lea	rcx, OFFSET FLAT:?x86PatchedHiRegs@asmjit@@3QBUVRegOp@Operand@1@B
	add	rcx, rax
	mov	rax, rcx
	mov	QWORD PTR o1$[rsp], rax
$LN1002@X86Assembl:

; 1060 :   }

	jmp	$LN1000@X86Assembl
$LN999@X86Assembl:

; 1061 :   else {
; 1062 :     // `W` field.
; 1063 :     ASMJIT_ASSERT(static_cast<uint32_t>(kX86InstOptionRex) ==
; 1064 :                   static_cast<uint32_t>(kX86ByteRex));
; 1065 : 
; 1066 :     // Check if one or more register operand is one of BPL, SPL, SIL, DIL and
; 1067 :     // force a REX prefix to be emitted in such case.
; 1068 :     if (X86Reg::isGpbReg(*o0)) {

	mov	rcx, QWORD PTR o0$[rsp]
	call	?isGpbReg@X86Reg@asmjit@@SA_NAEBUOperand@2@@Z ; asmjit::X86Reg::isGpbReg
	movzx	eax, al
	test	eax, eax
	je	$LN1003@X86Assembl

; 1069 :       uint32_t index = x86OpReg(o0);

	mov	rcx, QWORD PTR o0$[rsp]
	call	?x86OpReg@asmjit@@YAIPEBUOperand@1@@Z	; asmjit::x86OpReg
	mov	DWORD PTR index$40[rsp], eax

; 1070 :       if (static_cast<const X86Reg*>(o0)->isGpbLo()) {

	mov	rcx, QWORD PTR o0$[rsp]
	call	?isGpbLo@X86Reg@asmjit@@QEBA_NXZ	; asmjit::X86Reg::isGpbLo
	movzx	eax, al
	test	eax, eax
	je	SHORT $LN1004@X86Assembl

; 1071 :         options |= (index >= 4) ? kX86InstOptionRex : 0;

	cmp	DWORD PTR index$40[rsp], 4
	jb	SHORT $LN1824@X86Assembl
	mov	DWORD PTR tv188[rsp], 64		; 00000040H
	jmp	SHORT $LN1825@X86Assembl
$LN1824@X86Assembl:
	mov	DWORD PTR tv188[rsp], 0
$LN1825@X86Assembl:
	mov	eax, DWORD PTR tv188[rsp]
	mov	ecx, DWORD PTR options$[rsp]
	or	ecx, eax
	mov	eax, ecx
	mov	DWORD PTR options$[rsp], eax

; 1072 :       }

	jmp	SHORT $LN1005@X86Assembl
$LN1004@X86Assembl:

; 1073 :       else {
; 1074 :         options |= _kX86InstOptionNoRex;

	mov	eax, DWORD PTR options$[rsp]
	bts	eax, 7
	mov	DWORD PTR options$[rsp], eax

; 1075 :         o0 = reinterpret_cast<const Operand*>(&x86PatchedHiRegs[index]);

	mov	eax, DWORD PTR index$40[rsp]
	imul	rax, rax, 16
	lea	rcx, OFFSET FLAT:?x86PatchedHiRegs@asmjit@@3QBUVRegOp@Operand@1@B
	add	rcx, rax
	mov	rax, rcx
	mov	QWORD PTR o0$[rsp], rax
$LN1005@X86Assembl:
$LN1003@X86Assembl:

; 1076 :       }
; 1077 :     }
; 1078 : 
; 1079 :     if (X86Reg::isGpbReg(*o1)) {

	mov	rcx, QWORD PTR o1$[rsp]
	call	?isGpbReg@X86Reg@asmjit@@SA_NAEBUOperand@2@@Z ; asmjit::X86Reg::isGpbReg
	movzx	eax, al
	test	eax, eax
	je	$LN1006@X86Assembl

; 1080 :       uint32_t index = x86OpReg(o1);

	mov	rcx, QWORD PTR o1$[rsp]
	call	?x86OpReg@asmjit@@YAIPEBUOperand@1@@Z	; asmjit::x86OpReg
	mov	DWORD PTR index$41[rsp], eax

; 1081 :       if (static_cast<const X86Reg*>(o1)->isGpbLo()) {

	mov	rcx, QWORD PTR o1$[rsp]
	call	?isGpbLo@X86Reg@asmjit@@QEBA_NXZ	; asmjit::X86Reg::isGpbLo
	movzx	eax, al
	test	eax, eax
	je	SHORT $LN1007@X86Assembl

; 1082 :         options |= (index >= 4) ? kX86InstOptionRex : 0;

	cmp	DWORD PTR index$41[rsp], 4
	jb	SHORT $LN1826@X86Assembl
	mov	DWORD PTR tv209[rsp], 64		; 00000040H
	jmp	SHORT $LN1827@X86Assembl
$LN1826@X86Assembl:
	mov	DWORD PTR tv209[rsp], 0
$LN1827@X86Assembl:
	mov	eax, DWORD PTR tv209[rsp]
	mov	ecx, DWORD PTR options$[rsp]
	or	ecx, eax
	mov	eax, ecx
	mov	DWORD PTR options$[rsp], eax

; 1083 :       }

	jmp	SHORT $LN1008@X86Assembl
$LN1007@X86Assembl:

; 1084 :       else {
; 1085 :         options |= _kX86InstOptionNoRex;

	mov	eax, DWORD PTR options$[rsp]
	bts	eax, 7
	mov	DWORD PTR options$[rsp], eax

; 1086 :         o1 = reinterpret_cast<const Operand*>(&x86PatchedHiRegs[index]);

	mov	eax, DWORD PTR index$41[rsp]
	imul	rax, rax, 16
	lea	rcx, OFFSET FLAT:?x86PatchedHiRegs@asmjit@@3QBUVRegOp@Operand@1@B
	add	rcx, rax
	mov	rax, rcx
	mov	QWORD PTR o1$[rsp], rax
$LN1008@X86Assembl:
$LN1006@X86Assembl:
$LN1000@X86Assembl:

; 1087 :       }
; 1088 :     }
; 1089 :   }
; 1090 : 
; 1091 :   // --------------------------------------------------------------------------
; 1092 :   // [Lock-Prefix]
; 1093 :   // --------------------------------------------------------------------------
; 1094 : 
; 1095 :   if (options & kX86InstOptionLock) {

	mov	eax, DWORD PTR options$[rsp]
	and	eax, 16
	test	eax, eax
	je	SHORT $LN1009@X86Assembl

; 1096 :     if (!extendedInfo.isLockable())

	mov	rcx, QWORD PTR extendedInfo$[rsp]
	call	?isLockable@X86InstExtendedInfo@asmjit@@QEBA_NXZ ; asmjit::X86InstExtendedInfo::isLockable
	movzx	eax, al
	test	eax, eax
	jne	SHORT $LN1010@X86Assembl

; 1097 :       goto _IllegalInst;

	jmp	$LN1011@X86Assembl
	jmp	$_IllegalInst$1950
$LN1010@X86Assembl:
$LN4@X86Assembl:

; 1098 :     EMIT_BYTE(0xF0);

	mov	eax, 1
	imul	rax, rax, 0
	mov	rcx, QWORD PTR cursor$[rsp]
	mov	BYTE PTR [rcx+rax], 240			; 000000f0H
	mov	rax, QWORD PTR cursor$[rsp]
	inc	rax
	mov	QWORD PTR cursor$[rsp], rax
	xor	eax, eax
	test	eax, eax
	jne	SHORT $LN4@X86Assembl
$LN1009@X86Assembl:

; 1099 :   }
; 1100 : 
; 1101 :   // --------------------------------------------------------------------------
; 1102 :   // [Group]
; 1103 :   // --------------------------------------------------------------------------
; 1104 : 
; 1105 :   switch (info.getEncodingId()) {

	mov	rcx, QWORD PTR info$[rsp]
	call	?getEncodingId@X86InstInfo@asmjit@@QEBAIXZ ; asmjit::X86InstInfo::getEncodingId
	mov	DWORD PTR tv227[rsp], eax
	cmp	DWORD PTR tv227[rsp], 108		; 0000006cH
	ja	$LN5@X86Assembl
	mov	eax, DWORD PTR tv227[rsp]
	lea	rcx, OFFSET FLAT:__ImageBase
	mov	eax, DWORD PTR $LN1947@X86Assembl[rcx+rax*4]
	add	rax, rcx
	jmp	rax
$LN1012@X86Assembl:

; 1106 :     // ------------------------------------------------------------------------
; 1107 :     // [None]
; 1108 :     // ------------------------------------------------------------------------
; 1109 : 
; 1110 :     case kX86InstEncodingIdNone:
; 1111 :       goto _EmitDone;

	jmp	$LN1013@X86Assembl
	jmp	$_EmitDone$1951
$LN1014@X86Assembl:
$LN9@X86Assembl:

; 1112 : 
; 1113 :     // ------------------------------------------------------------------------
; 1114 :     // [X86]
; 1115 :     // ------------------------------------------------------------------------
; 1116 : 
; 1117 :     case kX86InstEncodingIdX86Op_66H:
; 1118 :       ADD_66H_P(true);

	mov	eax, DWORD PTR opCode$[rsp]
	bts	eax, 20
	mov	DWORD PTR opCode$[rsp], eax
	xor	eax, eax
	test	eax, eax
	jne	SHORT $LN9@X86Assembl
$LN1015@X86Assembl:

; 1119 :       // ... Fall through ...
; 1120 : 
; 1121 :     case kX86InstEncodingIdX86Op:
; 1122 :       goto _EmitX86Op;

	jmp	$LN1016@X86Assembl
	jmp	$_EmitX86Op$1952
$LN1017@X86Assembl:

; 1123 : 
; 1124 :     case kX86InstEncodingIdX86Rm_B:
; 1125 :       opCode += o0->getSize() != 1;

	mov	rcx, QWORD PTR o0$[rsp]
	call	?getSize@Operand@asmjit@@QEBAIXZ	; asmjit::Operand::getSize
	cmp	eax, 1
	je	SHORT $LN1828@X86Assembl
	mov	DWORD PTR tv233[rsp], 1
	jmp	SHORT $LN1829@X86Assembl
$LN1828@X86Assembl:
	mov	DWORD PTR tv233[rsp], 0
$LN1829@X86Assembl:
	mov	eax, DWORD PTR tv233[rsp]
	mov	ecx, DWORD PTR opCode$[rsp]
	add	ecx, eax
	mov	eax, ecx
	mov	DWORD PTR opCode$[rsp], eax
$LN1018@X86Assembl:
$LN12@X86Assembl:

; 1126 :       // ... Fall through ...
; 1127 : 
; 1128 :     case kX86InstEncodingIdX86Rm:
; 1129 :       ADD_66H_P_BY_SIZE(o0->getSize());

	mov	rcx, QWORD PTR o0$[rsp]
	call	?getSize@Operand@asmjit@@QEBAIXZ	; asmjit::Operand::getSize
	and	eax, 2
	shl	eax, 19
	mov	ecx, DWORD PTR opCode$[rsp]
	or	ecx, eax
	mov	eax, ecx
	mov	DWORD PTR opCode$[rsp], eax
	xor	eax, eax
	test	eax, eax
	jne	SHORT $LN12@X86Assembl
$LN15@X86Assembl:

; 1130 :       ADD_REX_W_BY_SIZE(o0->getSize());

	xor	eax, eax
	cmp	eax, 1
	je	SHORT $LN1019@X86Assembl
	mov	rcx, QWORD PTR o0$[rsp]
	call	?getSize@Operand@asmjit@@QEBAIXZ	; asmjit::Operand::getSize
	cmp	eax, 8
	jne	SHORT $LN1019@X86Assembl
	mov	eax, DWORD PTR opCode$[rsp]
	bts	eax, 31
	mov	DWORD PTR opCode$[rsp], eax
$LN1019@X86Assembl:
	xor	eax, eax
	test	eax, eax
	jne	SHORT $LN15@X86Assembl

; 1131 : 
; 1132 :       if (encoded == ENC_OPS(Reg, None, None)) {

	cmp	DWORD PTR encoded$[rsp], 1
	jne	SHORT $LN1020@X86Assembl

; 1133 :         rmReg = x86OpReg(o0);

	mov	rcx, QWORD PTR o0$[rsp]
	call	?x86OpReg@asmjit@@YAIPEBUOperand@1@@Z	; asmjit::x86OpReg
	mov	eax, eax
	mov	QWORD PTR $S1$[rsp], rax

; 1134 :         goto _EmitX86R;

	jmp	$LN1021@X86Assembl
	jmp	$_EmitX86R$1953
$LN1020@X86Assembl:

; 1135 :       }
; 1136 : 
; 1137 :       if (encoded == ENC_OPS(Mem, None, None)) {

	cmp	DWORD PTR encoded$[rsp], 3
	jne	SHORT $LN1022@X86Assembl

; 1138 :         rmMem = x86OpMem(o0);

	mov	rcx, QWORD PTR o0$[rsp]
	call	?x86OpMem@asmjit@@YAPEBUX86Mem@1@PEBUOperand@1@@Z ; asmjit::x86OpMem
	mov	QWORD PTR $S1$[rsp], rax

; 1139 :         goto _EmitX86M;

	jmp	$LN1023@X86Assembl
	jmp	$_EmitX86M$1954
$LN1022@X86Assembl:

; 1140 :       }
; 1141 :       break;

	jmp	$LN5@X86Assembl
$LN1024@X86Assembl:

; 1142 : 
; 1143 :     case kX86InstEncodingIdX86RmReg:
; 1144 :       if (encoded == ENC_OPS(Reg, Reg, None)) {

	cmp	DWORD PTR encoded$[rsp], 9
	jne	$LN1025@X86Assembl

; 1145 :         opCode += o0->getSize() != 1;

	mov	rcx, QWORD PTR o0$[rsp]
	call	?getSize@Operand@asmjit@@QEBAIXZ	; asmjit::Operand::getSize
	cmp	eax, 1
	je	SHORT $LN1830@X86Assembl
	mov	DWORD PTR tv258[rsp], 1
	jmp	SHORT $LN1831@X86Assembl
$LN1830@X86Assembl:
	mov	DWORD PTR tv258[rsp], 0
$LN1831@X86Assembl:
	mov	eax, DWORD PTR tv258[rsp]
	mov	ecx, DWORD PTR opCode$[rsp]
	add	ecx, eax
	mov	eax, ecx
	mov	DWORD PTR opCode$[rsp], eax
$LN18@X86Assembl:

; 1146 :         ADD_66H_P_BY_SIZE(o0->getSize());

	mov	rcx, QWORD PTR o0$[rsp]
	call	?getSize@Operand@asmjit@@QEBAIXZ	; asmjit::Operand::getSize
	and	eax, 2
	shl	eax, 19
	mov	ecx, DWORD PTR opCode$[rsp]
	or	ecx, eax
	mov	eax, ecx
	mov	DWORD PTR opCode$[rsp], eax
	xor	eax, eax
	test	eax, eax
	jne	SHORT $LN18@X86Assembl
$LN21@X86Assembl:

; 1147 :         ADD_REX_W_BY_SIZE(o0->getSize());

	xor	eax, eax
	cmp	eax, 1
	je	SHORT $LN1026@X86Assembl
	mov	rcx, QWORD PTR o0$[rsp]
	call	?getSize@Operand@asmjit@@QEBAIXZ	; asmjit::Operand::getSize
	cmp	eax, 8
	jne	SHORT $LN1026@X86Assembl
	mov	eax, DWORD PTR opCode$[rsp]
	bts	eax, 31
	mov	DWORD PTR opCode$[rsp], eax
$LN1026@X86Assembl:
	xor	eax, eax
	test	eax, eax
	jne	SHORT $LN21@X86Assembl

; 1148 : 
; 1149 :         opReg = x86OpReg(o1);

	mov	rcx, QWORD PTR o1$[rsp]
	call	?x86OpReg@asmjit@@YAIPEBUOperand@1@@Z	; asmjit::x86OpReg
	mov	DWORD PTR opReg$[rsp], eax

; 1150 :         rmReg = x86OpReg(o0);

	mov	rcx, QWORD PTR o0$[rsp]
	call	?x86OpReg@asmjit@@YAIPEBUOperand@1@@Z	; asmjit::x86OpReg
	mov	eax, eax
	mov	QWORD PTR $S1$[rsp], rax

; 1151 :         goto _EmitX86R;

	jmp	$LN1027@X86Assembl
	jmp	$_EmitX86R$1953
$LN1025@X86Assembl:

; 1152 :       }
; 1153 : 
; 1154 :       if (encoded == ENC_OPS(Mem, Reg, None)) {

	cmp	DWORD PTR encoded$[rsp], 11
	jne	$LN1028@X86Assembl

; 1155 :         opCode += o1->getSize() != 1;

	mov	rcx, QWORD PTR o1$[rsp]
	call	?getSize@Operand@asmjit@@QEBAIXZ	; asmjit::Operand::getSize
	cmp	eax, 1
	je	SHORT $LN1832@X86Assembl
	mov	DWORD PTR tv281[rsp], 1
	jmp	SHORT $LN1833@X86Assembl
$LN1832@X86Assembl:
	mov	DWORD PTR tv281[rsp], 0
$LN1833@X86Assembl:
	mov	eax, DWORD PTR tv281[rsp]
	mov	ecx, DWORD PTR opCode$[rsp]
	add	ecx, eax
	mov	eax, ecx
	mov	DWORD PTR opCode$[rsp], eax
$LN24@X86Assembl:

; 1156 :         ADD_66H_P_BY_SIZE(o1->getSize());

	mov	rcx, QWORD PTR o1$[rsp]
	call	?getSize@Operand@asmjit@@QEBAIXZ	; asmjit::Operand::getSize
	and	eax, 2
	shl	eax, 19
	mov	ecx, DWORD PTR opCode$[rsp]
	or	ecx, eax
	mov	eax, ecx
	mov	DWORD PTR opCode$[rsp], eax
	xor	eax, eax
	test	eax, eax
	jne	SHORT $LN24@X86Assembl
$LN27@X86Assembl:

; 1157 :         ADD_REX_W_BY_SIZE(o1->getSize());

	xor	eax, eax
	cmp	eax, 1
	je	SHORT $LN1029@X86Assembl
	mov	rcx, QWORD PTR o1$[rsp]
	call	?getSize@Operand@asmjit@@QEBAIXZ	; asmjit::Operand::getSize
	cmp	eax, 8
	jne	SHORT $LN1029@X86Assembl
	mov	eax, DWORD PTR opCode$[rsp]
	bts	eax, 31
	mov	DWORD PTR opCode$[rsp], eax
$LN1029@X86Assembl:
	xor	eax, eax
	test	eax, eax
	jne	SHORT $LN27@X86Assembl

; 1158 : 
; 1159 :         opReg = x86OpReg(o1);

	mov	rcx, QWORD PTR o1$[rsp]
	call	?x86OpReg@asmjit@@YAIPEBUOperand@1@@Z	; asmjit::x86OpReg
	mov	DWORD PTR opReg$[rsp], eax

; 1160 :         rmMem = x86OpMem(o0);

	mov	rcx, QWORD PTR o0$[rsp]
	call	?x86OpMem@asmjit@@YAPEBUX86Mem@1@PEBUOperand@1@@Z ; asmjit::x86OpMem
	mov	QWORD PTR $S1$[rsp], rax

; 1161 :         goto _EmitX86M;

	jmp	$LN1030@X86Assembl
	jmp	$_EmitX86M$1954
$LN1028@X86Assembl:

; 1162 :       }
; 1163 :       break;

	jmp	$LN5@X86Assembl
$LN1031@X86Assembl:
$LN30@X86Assembl:

; 1164 : 
; 1165 :     case kX86InstEncodingIdX86RegRm:
; 1166 :       ADD_66H_P_BY_SIZE(o0->getSize());

	mov	rcx, QWORD PTR o0$[rsp]
	call	?getSize@Operand@asmjit@@QEBAIXZ	; asmjit::Operand::getSize
	and	eax, 2
	shl	eax, 19
	mov	ecx, DWORD PTR opCode$[rsp]
	or	ecx, eax
	mov	eax, ecx
	mov	DWORD PTR opCode$[rsp], eax
	xor	eax, eax
	test	eax, eax
	jne	SHORT $LN30@X86Assembl
$LN33@X86Assembl:

; 1167 :       ADD_REX_W_BY_SIZE(o0->getSize());

	xor	eax, eax
	cmp	eax, 1
	je	SHORT $LN1032@X86Assembl
	mov	rcx, QWORD PTR o0$[rsp]
	call	?getSize@Operand@asmjit@@QEBAIXZ	; asmjit::Operand::getSize
	cmp	eax, 8
	jne	SHORT $LN1032@X86Assembl
	mov	eax, DWORD PTR opCode$[rsp]
	bts	eax, 31
	mov	DWORD PTR opCode$[rsp], eax
$LN1032@X86Assembl:
	xor	eax, eax
	test	eax, eax
	jne	SHORT $LN33@X86Assembl

; 1168 : 
; 1169 :       if (encoded == ENC_OPS(Reg, Reg, None)) {

	cmp	DWORD PTR encoded$[rsp], 9
	jne	SHORT $LN1033@X86Assembl

; 1170 :         ASMJIT_ASSERT(o0->getSize() != 1);
; 1171 : 
; 1172 :         opReg = x86OpReg(o0);

	mov	rcx, QWORD PTR o0$[rsp]
	call	?x86OpReg@asmjit@@YAIPEBUOperand@1@@Z	; asmjit::x86OpReg
	mov	DWORD PTR opReg$[rsp], eax

; 1173 :         rmReg = x86OpReg(o1);

	mov	rcx, QWORD PTR o1$[rsp]
	call	?x86OpReg@asmjit@@YAIPEBUOperand@1@@Z	; asmjit::x86OpReg
	mov	eax, eax
	mov	QWORD PTR $S1$[rsp], rax

; 1174 :         goto _EmitX86R;

	jmp	$LN1034@X86Assembl
	jmp	$_EmitX86R$1953
$LN1033@X86Assembl:

; 1175 :       }
; 1176 : 
; 1177 :       if (encoded == ENC_OPS(Reg, Mem, None)) {

	cmp	DWORD PTR encoded$[rsp], 25
	jne	SHORT $LN1035@X86Assembl

; 1178 :         ASMJIT_ASSERT(o0->getSize() != 1);
; 1179 : 
; 1180 :         opReg = x86OpReg(o0);

	mov	rcx, QWORD PTR o0$[rsp]
	call	?x86OpReg@asmjit@@YAIPEBUOperand@1@@Z	; asmjit::x86OpReg
	mov	DWORD PTR opReg$[rsp], eax

; 1181 :         rmMem = x86OpMem(o1);

	mov	rcx, QWORD PTR o1$[rsp]
	call	?x86OpMem@asmjit@@YAPEBUX86Mem@1@PEBUOperand@1@@Z ; asmjit::x86OpMem
	mov	QWORD PTR $S1$[rsp], rax

; 1182 :         goto _EmitX86M;

	jmp	$LN1036@X86Assembl
	jmp	$_EmitX86M$1954
$LN1035@X86Assembl:

; 1183 :       }
; 1184 :       break;

	jmp	$LN5@X86Assembl
$LN1037@X86Assembl:

; 1185 : 
; 1186 :     case kX86InstEncodingIdX86M:
; 1187 :       if (encoded == ENC_OPS(Mem, None, None)) {

	cmp	DWORD PTR encoded$[rsp], 3
	jne	SHORT $LN1038@X86Assembl

; 1188 :         rmMem = x86OpMem(o0);

	mov	rcx, QWORD PTR o0$[rsp]
	call	?x86OpMem@asmjit@@YAPEBUX86Mem@1@PEBUOperand@1@@Z ; asmjit::x86OpMem
	mov	QWORD PTR $S1$[rsp], rax

; 1189 :         goto _EmitX86M;

	jmp	$LN1039@X86Assembl
	jmp	$_EmitX86M$1954
$LN1038@X86Assembl:

; 1190 :       }
; 1191 :       break;

	jmp	$LN5@X86Assembl
$LN1040@X86Assembl:

; 1192 : 
; 1193 :     case kX86InstEncodingIdX86Arith:
; 1194 :       if (encoded == ENC_OPS(Reg, Reg, None)) {

	cmp	DWORD PTR encoded$[rsp], 9
	jne	$LN1041@X86Assembl

; 1195 :         opCode +=(o0->getSize() != 1) + 2;

	mov	rcx, QWORD PTR o0$[rsp]
	call	?getSize@Operand@asmjit@@QEBAIXZ	; asmjit::Operand::getSize
	cmp	eax, 1
	je	SHORT $LN1834@X86Assembl
	mov	DWORD PTR tv329[rsp], 1
	jmp	SHORT $LN1835@X86Assembl
$LN1834@X86Assembl:
	mov	DWORD PTR tv329[rsp], 0
$LN1835@X86Assembl:
	mov	eax, DWORD PTR opCode$[rsp]
	mov	ecx, DWORD PTR tv329[rsp]
	lea	eax, DWORD PTR [rax+rcx+2]
	mov	DWORD PTR opCode$[rsp], eax
$LN36@X86Assembl:

; 1196 :         ADD_66H_P_BY_SIZE(o0->getSize());

	mov	rcx, QWORD PTR o0$[rsp]
	call	?getSize@Operand@asmjit@@QEBAIXZ	; asmjit::Operand::getSize
	and	eax, 2
	shl	eax, 19
	mov	ecx, DWORD PTR opCode$[rsp]
	or	ecx, eax
	mov	eax, ecx
	mov	DWORD PTR opCode$[rsp], eax
	xor	eax, eax
	test	eax, eax
	jne	SHORT $LN36@X86Assembl
$LN39@X86Assembl:

; 1197 :         ADD_REX_W_BY_SIZE(o0->getSize());

	xor	eax, eax
	cmp	eax, 1
	je	SHORT $LN1042@X86Assembl
	mov	rcx, QWORD PTR o0$[rsp]
	call	?getSize@Operand@asmjit@@QEBAIXZ	; asmjit::Operand::getSize
	cmp	eax, 8
	jne	SHORT $LN1042@X86Assembl
	mov	eax, DWORD PTR opCode$[rsp]
	bts	eax, 31
	mov	DWORD PTR opCode$[rsp], eax
$LN1042@X86Assembl:
	xor	eax, eax
	test	eax, eax
	jne	SHORT $LN39@X86Assembl

; 1198 : 
; 1199 :         opReg = x86OpReg(o0);

	mov	rcx, QWORD PTR o0$[rsp]
	call	?x86OpReg@asmjit@@YAIPEBUOperand@1@@Z	; asmjit::x86OpReg
	mov	DWORD PTR opReg$[rsp], eax

; 1200 :         rmReg = x86OpReg(o1);

	mov	rcx, QWORD PTR o1$[rsp]
	call	?x86OpReg@asmjit@@YAIPEBUOperand@1@@Z	; asmjit::x86OpReg
	mov	eax, eax
	mov	QWORD PTR $S1$[rsp], rax

; 1201 :         goto _EmitX86R;

	jmp	$LN1043@X86Assembl
	jmp	$_EmitX86R$1953
$LN1041@X86Assembl:

; 1202 :       }
; 1203 : 
; 1204 :       if (encoded == ENC_OPS(Reg, Mem, None)) {

	cmp	DWORD PTR encoded$[rsp], 25
	jne	$LN1044@X86Assembl

; 1205 :         opCode +=(o0->getSize() != 1) + 2;

	mov	rcx, QWORD PTR o0$[rsp]
	call	?getSize@Operand@asmjit@@QEBAIXZ	; asmjit::Operand::getSize
	cmp	eax, 1
	je	SHORT $LN1836@X86Assembl
	mov	DWORD PTR tv353[rsp], 1
	jmp	SHORT $LN1837@X86Assembl
$LN1836@X86Assembl:
	mov	DWORD PTR tv353[rsp], 0
$LN1837@X86Assembl:
	mov	eax, DWORD PTR opCode$[rsp]
	mov	ecx, DWORD PTR tv353[rsp]
	lea	eax, DWORD PTR [rax+rcx+2]
	mov	DWORD PTR opCode$[rsp], eax
$LN42@X86Assembl:

; 1206 :         ADD_66H_P_BY_SIZE(o0->getSize());

	mov	rcx, QWORD PTR o0$[rsp]
	call	?getSize@Operand@asmjit@@QEBAIXZ	; asmjit::Operand::getSize
	and	eax, 2
	shl	eax, 19
	mov	ecx, DWORD PTR opCode$[rsp]
	or	ecx, eax
	mov	eax, ecx
	mov	DWORD PTR opCode$[rsp], eax
	xor	eax, eax
	test	eax, eax
	jne	SHORT $LN42@X86Assembl
$LN45@X86Assembl:

; 1207 :         ADD_REX_W_BY_SIZE(o0->getSize());

	xor	eax, eax
	cmp	eax, 1
	je	SHORT $LN1045@X86Assembl
	mov	rcx, QWORD PTR o0$[rsp]
	call	?getSize@Operand@asmjit@@QEBAIXZ	; asmjit::Operand::getSize
	cmp	eax, 8
	jne	SHORT $LN1045@X86Assembl
	mov	eax, DWORD PTR opCode$[rsp]
	bts	eax, 31
	mov	DWORD PTR opCode$[rsp], eax
$LN1045@X86Assembl:
	xor	eax, eax
	test	eax, eax
	jne	SHORT $LN45@X86Assembl

; 1208 : 
; 1209 :         opReg = x86OpReg(o0);

	mov	rcx, QWORD PTR o0$[rsp]
	call	?x86OpReg@asmjit@@YAIPEBUOperand@1@@Z	; asmjit::x86OpReg
	mov	DWORD PTR opReg$[rsp], eax

; 1210 :         rmMem = x86OpMem(o1);

	mov	rcx, QWORD PTR o1$[rsp]
	call	?x86OpMem@asmjit@@YAPEBUX86Mem@1@PEBUOperand@1@@Z ; asmjit::x86OpMem
	mov	QWORD PTR $S1$[rsp], rax

; 1211 :         goto _EmitX86M;

	jmp	$LN1046@X86Assembl
	jmp	$_EmitX86M$1954
$LN1044@X86Assembl:

; 1212 :       }
; 1213 : 
; 1214 :       if (encoded == ENC_OPS(Mem, Reg, None)) {

	cmp	DWORD PTR encoded$[rsp], 11
	jne	$LN1047@X86Assembl

; 1215 :         opCode += o1->getSize() != 1;

	mov	rcx, QWORD PTR o1$[rsp]
	call	?getSize@Operand@asmjit@@QEBAIXZ	; asmjit::Operand::getSize
	cmp	eax, 1
	je	SHORT $LN1838@X86Assembl
	mov	DWORD PTR tv376[rsp], 1
	jmp	SHORT $LN1839@X86Assembl
$LN1838@X86Assembl:
	mov	DWORD PTR tv376[rsp], 0
$LN1839@X86Assembl:
	mov	eax, DWORD PTR tv376[rsp]
	mov	ecx, DWORD PTR opCode$[rsp]
	add	ecx, eax
	mov	eax, ecx
	mov	DWORD PTR opCode$[rsp], eax
$LN48@X86Assembl:

; 1216 :         ADD_66H_P_BY_SIZE(o1->getSize());

	mov	rcx, QWORD PTR o1$[rsp]
	call	?getSize@Operand@asmjit@@QEBAIXZ	; asmjit::Operand::getSize
	and	eax, 2
	shl	eax, 19
	mov	ecx, DWORD PTR opCode$[rsp]
	or	ecx, eax
	mov	eax, ecx
	mov	DWORD PTR opCode$[rsp], eax
	xor	eax, eax
	test	eax, eax
	jne	SHORT $LN48@X86Assembl
$LN51@X86Assembl:

; 1217 :         ADD_REX_W_BY_SIZE(o1->getSize());

	xor	eax, eax
	cmp	eax, 1
	je	SHORT $LN1048@X86Assembl
	mov	rcx, QWORD PTR o1$[rsp]
	call	?getSize@Operand@asmjit@@QEBAIXZ	; asmjit::Operand::getSize
	cmp	eax, 8
	jne	SHORT $LN1048@X86Assembl
	mov	eax, DWORD PTR opCode$[rsp]
	bts	eax, 31
	mov	DWORD PTR opCode$[rsp], eax
$LN1048@X86Assembl:
	xor	eax, eax
	test	eax, eax
	jne	SHORT $LN51@X86Assembl

; 1218 : 
; 1219 :         opReg = x86OpReg(o1);

	mov	rcx, QWORD PTR o1$[rsp]
	call	?x86OpReg@asmjit@@YAIPEBUOperand@1@@Z	; asmjit::x86OpReg
	mov	DWORD PTR opReg$[rsp], eax

; 1220 :         rmMem = x86OpMem(o0);

	mov	rcx, QWORD PTR o0$[rsp]
	call	?x86OpMem@asmjit@@YAPEBUX86Mem@1@PEBUOperand@1@@Z ; asmjit::x86OpMem
	mov	QWORD PTR $S1$[rsp], rax

; 1221 :         goto _EmitX86M;

	jmp	$LN1049@X86Assembl
	jmp	$_EmitX86M$1954
$LN1047@X86Assembl:

; 1222 :       }
; 1223 : 
; 1224 :       // The remaining instructions use 0x80 opcode.
; 1225 :       opCode = 0x80;

	mov	DWORD PTR opCode$[rsp], 128		; 00000080H

; 1226 : 
; 1227 :       if (encoded == ENC_OPS(Reg, Imm, None)) {

	cmp	DWORD PTR encoded$[rsp], 33		; 00000021H
	jne	$LN1050@X86Assembl

; 1228 :         imVal = static_cast<const Imm*>(o1)->getInt64();

	mov	rcx, QWORD PTR o1$[rsp]
	call	?getInt64@Imm@asmjit@@QEBA_JXZ		; asmjit::Imm::getInt64
	mov	QWORD PTR imVal$[rsp], rax

; 1229 :         imLen = IntUtil::isInt8(imVal) ? static_cast<uint32_t>(1) : IntUtil::iMin<uint32_t>(o0->getSize(), 4);

	mov	rcx, QWORD PTR imVal$[rsp]
	call	??$isInt8@_J@IntUtil@asmjit@@SA_N_J@Z	; asmjit::IntUtil::isInt8<__int64>
	movzx	eax, al
	test	eax, eax
	je	SHORT $LN1840@X86Assembl
	mov	DWORD PTR tv410[rsp], 1
	jmp	SHORT $LN1841@X86Assembl
$LN1840@X86Assembl:
	mov	DWORD PTR $T52[rsp], 4
	mov	rcx, QWORD PTR o0$[rsp]
	call	?getSize@Operand@asmjit@@QEBAIXZ	; asmjit::Operand::getSize
	mov	DWORD PTR $T53[rsp], eax
	lea	rdx, QWORD PTR $T52[rsp]
	lea	rcx, QWORD PTR $T53[rsp]
	call	??$iMin@I@IntUtil@asmjit@@SAIAEBI0@Z	; asmjit::IntUtil::iMin<unsigned int>
	mov	DWORD PTR tv410[rsp], eax
$LN1841@X86Assembl:
	mov	eax, DWORD PTR tv410[rsp]
	mov	DWORD PTR imLen$[rsp], eax

; 1230 :         rmReg = x86OpReg(o0);

	mov	rcx, QWORD PTR o0$[rsp]
	call	?x86OpReg@asmjit@@YAIPEBUOperand@1@@Z	; asmjit::x86OpReg
	mov	eax, eax
	mov	QWORD PTR $S1$[rsp], rax
$LN54@X86Assembl:

; 1231 : 
; 1232 :         ADD_66H_P_BY_SIZE(o0->getSize());

	mov	rcx, QWORD PTR o0$[rsp]
	call	?getSize@Operand@asmjit@@QEBAIXZ	; asmjit::Operand::getSize
	and	eax, 2
	shl	eax, 19
	mov	ecx, DWORD PTR opCode$[rsp]
	or	ecx, eax
	mov	eax, ecx
	mov	DWORD PTR opCode$[rsp], eax
	xor	eax, eax
	test	eax, eax
	jne	SHORT $LN54@X86Assembl
$LN57@X86Assembl:

; 1233 :         ADD_REX_W_BY_SIZE(o0->getSize());

	xor	eax, eax
	cmp	eax, 1
	je	SHORT $LN1051@X86Assembl
	mov	rcx, QWORD PTR o0$[rsp]
	call	?getSize@Operand@asmjit@@QEBAIXZ	; asmjit::Operand::getSize
	cmp	eax, 8
	jne	SHORT $LN1051@X86Assembl
	mov	eax, DWORD PTR opCode$[rsp]
	bts	eax, 31
	mov	DWORD PTR opCode$[rsp], eax
$LN1051@X86Assembl:
	xor	eax, eax
	test	eax, eax
	jne	SHORT $LN57@X86Assembl

; 1234 : 
; 1235 :         // Alternate Form - AL, AX, EAX, RAX.
; 1236 :         if (rmReg == 0 && (o0->getSize() == 1 || imLen != 1)) {

	cmp	QWORD PTR $S1$[rsp], 0
	jne	$LN1052@X86Assembl
	mov	rcx, QWORD PTR o0$[rsp]
	call	?getSize@Operand@asmjit@@QEBAIXZ	; asmjit::Operand::getSize
	cmp	eax, 1
	je	SHORT $LN1053@X86Assembl
	cmp	DWORD PTR imLen$[rsp], 1
	je	$LN1052@X86Assembl
$LN1053@X86Assembl:

; 1237 :           opCode = ((opReg << 3) | (0x04 + (o0->getSize() != 1)));

	mov	eax, DWORD PTR opReg$[rsp]
	shl	eax, 3
	mov	DWORD PTR tv438[rsp], eax
	mov	rcx, QWORD PTR o0$[rsp]
	call	?getSize@Operand@asmjit@@QEBAIXZ	; asmjit::Operand::getSize
	cmp	eax, 1
	je	SHORT $LN1842@X86Assembl
	mov	DWORD PTR tv435[rsp], 1
	jmp	SHORT $LN1843@X86Assembl
$LN1842@X86Assembl:
	mov	DWORD PTR tv435[rsp], 0
$LN1843@X86Assembl:
	mov	eax, DWORD PTR tv435[rsp]
	add	eax, 4
	mov	ecx, DWORD PTR tv438[rsp]
	or	ecx, eax
	mov	eax, ecx
	mov	DWORD PTR opCode$[rsp], eax

; 1238 :           imLen = IntUtil::iMin<uint32_t>(o0->getSize(), 4);

	mov	DWORD PTR $T54[rsp], 4
	mov	rcx, QWORD PTR o0$[rsp]
	call	?getSize@Operand@asmjit@@QEBAIXZ	; asmjit::Operand::getSize
	mov	DWORD PTR $T55[rsp], eax
	lea	rdx, QWORD PTR $T54[rsp]
	lea	rcx, QWORD PTR $T55[rsp]
	call	??$iMin@I@IntUtil@asmjit@@SAIAEBI0@Z	; asmjit::IntUtil::iMin<unsigned int>
	mov	DWORD PTR imLen$[rsp], eax

; 1239 :           goto _EmitX86Op;

	jmp	$LN1054@X86Assembl
	jmp	$_EmitX86Op$1952
$LN1052@X86Assembl:

; 1240 :         }
; 1241 : 
; 1242 :         opCode += o0->getSize() != 1 ? (imLen != 1 ? 1 : 3) : 0;

	mov	rcx, QWORD PTR o0$[rsp]
	call	?getSize@Operand@asmjit@@QEBAIXZ	; asmjit::Operand::getSize
	cmp	eax, 1
	je	SHORT $LN1846@X86Assembl
	cmp	DWORD PTR imLen$[rsp], 1
	je	SHORT $LN1844@X86Assembl
	mov	DWORD PTR tv449[rsp], 1
	jmp	SHORT $LN1845@X86Assembl
$LN1844@X86Assembl:
	mov	DWORD PTR tv449[rsp], 3
$LN1845@X86Assembl:
	mov	eax, DWORD PTR tv449[rsp]
	mov	DWORD PTR tv450[rsp], eax
	jmp	SHORT $LN1847@X86Assembl
$LN1846@X86Assembl:
	mov	DWORD PTR tv450[rsp], 0
$LN1847@X86Assembl:
	mov	eax, DWORD PTR tv450[rsp]
	mov	ecx, DWORD PTR opCode$[rsp]
	add	ecx, eax
	mov	eax, ecx
	mov	DWORD PTR opCode$[rsp], eax

; 1243 :         goto _EmitX86R;

	jmp	$LN1055@X86Assembl
	jmp	$_EmitX86R$1953
$LN1050@X86Assembl:

; 1244 :       }
; 1245 : 
; 1246 :       if (encoded == ENC_OPS(Mem, Imm, None)) {

	cmp	DWORD PTR encoded$[rsp], 35		; 00000023H
	jne	$LN1056@X86Assembl

; 1247 :         uint32_t memSize = o0->getSize();

	mov	rcx, QWORD PTR o0$[rsp]
	call	?getSize@Operand@asmjit@@QEBAIXZ	; asmjit::Operand::getSize
	mov	DWORD PTR memSize$21[rsp], eax

; 1248 : 
; 1249 :         if (memSize == 0)

	cmp	DWORD PTR memSize$21[rsp], 0
	jne	SHORT $LN1057@X86Assembl

; 1250 :           goto _IllegalInst;

	jmp	$LN1058@X86Assembl
	jmp	$_IllegalInst$1950
$LN1057@X86Assembl:

; 1251 : 
; 1252 :         imVal = static_cast<const Imm*>(o1)->getInt64();

	mov	rcx, QWORD PTR o1$[rsp]
	call	?getInt64@Imm@asmjit@@QEBA_JXZ		; asmjit::Imm::getInt64
	mov	QWORD PTR imVal$[rsp], rax

; 1253 :         imLen = IntUtil::isInt8(imVal) ? static_cast<uint32_t>(1) : IntUtil::iMin<uint32_t>(memSize, 4);

	mov	rcx, QWORD PTR imVal$[rsp]
	call	??$isInt8@_J@IntUtil@asmjit@@SA_N_J@Z	; asmjit::IntUtil::isInt8<__int64>
	movzx	eax, al
	test	eax, eax
	je	SHORT $LN1848@X86Assembl
	mov	DWORD PTR tv469[rsp], 1
	jmp	SHORT $LN1849@X86Assembl
$LN1848@X86Assembl:
	mov	DWORD PTR $T56[rsp], 4
	lea	rdx, QWORD PTR $T56[rsp]
	lea	rcx, QWORD PTR memSize$21[rsp]
	call	??$iMin@I@IntUtil@asmjit@@SAIAEBI0@Z	; asmjit::IntUtil::iMin<unsigned int>
	mov	DWORD PTR tv469[rsp], eax
$LN1849@X86Assembl:
	mov	eax, DWORD PTR tv469[rsp]
	mov	DWORD PTR imLen$[rsp], eax

; 1254 : 
; 1255 :         opCode += memSize != 1 ? (imLen != 1 ? 1 : 3) : 0;

	cmp	DWORD PTR memSize$21[rsp], 1
	je	SHORT $LN1852@X86Assembl
	cmp	DWORD PTR imLen$[rsp], 1
	je	SHORT $LN1850@X86Assembl
	mov	DWORD PTR tv472[rsp], 1
	jmp	SHORT $LN1851@X86Assembl
$LN1850@X86Assembl:
	mov	DWORD PTR tv472[rsp], 3
$LN1851@X86Assembl:
	mov	eax, DWORD PTR tv472[rsp]
	mov	DWORD PTR tv473[rsp], eax
	jmp	SHORT $LN1853@X86Assembl
$LN1852@X86Assembl:
	mov	DWORD PTR tv473[rsp], 0
$LN1853@X86Assembl:
	mov	eax, DWORD PTR tv473[rsp]
	mov	ecx, DWORD PTR opCode$[rsp]
	add	ecx, eax
	mov	eax, ecx
	mov	DWORD PTR opCode$[rsp], eax
$LN60@X86Assembl:

; 1256 :         ADD_66H_P_BY_SIZE(memSize);

	mov	eax, DWORD PTR memSize$21[rsp]
	and	eax, 2
	shl	eax, 19
	mov	ecx, DWORD PTR opCode$[rsp]
	or	ecx, eax
	mov	eax, ecx
	mov	DWORD PTR opCode$[rsp], eax
	xor	eax, eax
	test	eax, eax
	jne	SHORT $LN60@X86Assembl
$LN63@X86Assembl:

; 1257 :         ADD_REX_W_BY_SIZE(memSize);

	xor	eax, eax
	cmp	eax, 1
	je	SHORT $LN1059@X86Assembl
	cmp	DWORD PTR memSize$21[rsp], 8
	jne	SHORT $LN1059@X86Assembl
	mov	eax, DWORD PTR opCode$[rsp]
	bts	eax, 31
	mov	DWORD PTR opCode$[rsp], eax
$LN1059@X86Assembl:
	xor	eax, eax
	test	eax, eax
	jne	SHORT $LN63@X86Assembl

; 1258 : 
; 1259 :         rmMem = x86OpMem(o0);

	mov	rcx, QWORD PTR o0$[rsp]
	call	?x86OpMem@asmjit@@YAPEBUX86Mem@1@PEBUOperand@1@@Z ; asmjit::x86OpMem
	mov	QWORD PTR $S1$[rsp], rax

; 1260 :         goto _EmitX86M;

	jmp	$LN1060@X86Assembl
	jmp	$_EmitX86M$1954
$LN1056@X86Assembl:

; 1261 :       }
; 1262 :       break;

	jmp	$LN5@X86Assembl
$LN1061@X86Assembl:

; 1263 : 
; 1264 :     case kX86InstEncodingIdX86BSwap:
; 1265 :       if (encoded == ENC_OPS(Reg, None, None)) {

	cmp	DWORD PTR encoded$[rsp], 1
	jne	SHORT $LN1062@X86Assembl

; 1266 :         opReg = x86OpReg(o0);

	mov	rcx, QWORD PTR o0$[rsp]
	call	?x86OpReg@asmjit@@YAIPEBUOperand@1@@Z	; asmjit::x86OpReg
	mov	DWORD PTR opReg$[rsp], eax
$LN66@X86Assembl:

; 1267 :         ADD_REX_W_BY_SIZE(o0->getSize());

	xor	eax, eax
	cmp	eax, 1
	je	SHORT $LN1063@X86Assembl
	mov	rcx, QWORD PTR o0$[rsp]
	call	?getSize@Operand@asmjit@@QEBAIXZ	; asmjit::Operand::getSize
	cmp	eax, 8
	jne	SHORT $LN1063@X86Assembl
	mov	eax, DWORD PTR opCode$[rsp]
	bts	eax, 31
	mov	DWORD PTR opCode$[rsp], eax
$LN1063@X86Assembl:
	xor	eax, eax
	test	eax, eax
	jne	SHORT $LN66@X86Assembl

; 1268 :         goto _EmitX86OpWithOpReg;

	jmp	$LN1064@X86Assembl
	jmp	$_EmitX86OpWithOpReg$1955
$LN1062@X86Assembl:

; 1269 :       }
; 1270 :       break;

	jmp	$LN5@X86Assembl
$LN1065@X86Assembl:

; 1271 : 
; 1272 :     case kX86InstEncodingIdX86BTest:
; 1273 :       if (encoded == ENC_OPS(Reg, Reg, None)) {

	cmp	DWORD PTR encoded$[rsp], 9
	jne	SHORT $LN1066@X86Assembl
$LN69@X86Assembl:

; 1274 :         ADD_66H_P_BY_SIZE(o1->getSize());

	mov	rcx, QWORD PTR o1$[rsp]
	call	?getSize@Operand@asmjit@@QEBAIXZ	; asmjit::Operand::getSize
	and	eax, 2
	shl	eax, 19
	mov	ecx, DWORD PTR opCode$[rsp]
	or	ecx, eax
	mov	eax, ecx
	mov	DWORD PTR opCode$[rsp], eax
	xor	eax, eax
	test	eax, eax
	jne	SHORT $LN69@X86Assembl
$LN72@X86Assembl:

; 1275 :         ADD_REX_W_BY_SIZE(o1->getSize());

	xor	eax, eax
	cmp	eax, 1
	je	SHORT $LN1067@X86Assembl
	mov	rcx, QWORD PTR o1$[rsp]
	call	?getSize@Operand@asmjit@@QEBAIXZ	; asmjit::Operand::getSize
	cmp	eax, 8
	jne	SHORT $LN1067@X86Assembl
	mov	eax, DWORD PTR opCode$[rsp]
	bts	eax, 31
	mov	DWORD PTR opCode$[rsp], eax
$LN1067@X86Assembl:
	xor	eax, eax
	test	eax, eax
	jne	SHORT $LN72@X86Assembl

; 1276 : 
; 1277 :         opReg = x86OpReg(o1);

	mov	rcx, QWORD PTR o1$[rsp]
	call	?x86OpReg@asmjit@@YAIPEBUOperand@1@@Z	; asmjit::x86OpReg
	mov	DWORD PTR opReg$[rsp], eax

; 1278 :         rmReg = x86OpReg(o0);

	mov	rcx, QWORD PTR o0$[rsp]
	call	?x86OpReg@asmjit@@YAIPEBUOperand@1@@Z	; asmjit::x86OpReg
	mov	eax, eax
	mov	QWORD PTR $S1$[rsp], rax

; 1279 :         goto _EmitX86R;

	jmp	$LN1068@X86Assembl
	jmp	$_EmitX86R$1953
$LN1066@X86Assembl:

; 1280 :       }
; 1281 : 
; 1282 :       if (encoded == ENC_OPS(Mem, Reg, None)) {

	cmp	DWORD PTR encoded$[rsp], 11
	jne	SHORT $LN1069@X86Assembl
$LN75@X86Assembl:

; 1283 :         ADD_66H_P_BY_SIZE(o1->getSize());

	mov	rcx, QWORD PTR o1$[rsp]
	call	?getSize@Operand@asmjit@@QEBAIXZ	; asmjit::Operand::getSize
	and	eax, 2
	shl	eax, 19
	mov	ecx, DWORD PTR opCode$[rsp]
	or	ecx, eax
	mov	eax, ecx
	mov	DWORD PTR opCode$[rsp], eax
	xor	eax, eax
	test	eax, eax
	jne	SHORT $LN75@X86Assembl
$LN78@X86Assembl:

; 1284 :         ADD_REX_W_BY_SIZE(o1->getSize());

	xor	eax, eax
	cmp	eax, 1
	je	SHORT $LN1070@X86Assembl
	mov	rcx, QWORD PTR o1$[rsp]
	call	?getSize@Operand@asmjit@@QEBAIXZ	; asmjit::Operand::getSize
	cmp	eax, 8
	jne	SHORT $LN1070@X86Assembl
	mov	eax, DWORD PTR opCode$[rsp]
	bts	eax, 31
	mov	DWORD PTR opCode$[rsp], eax
$LN1070@X86Assembl:
	xor	eax, eax
	test	eax, eax
	jne	SHORT $LN78@X86Assembl

; 1285 : 
; 1286 :         opReg = x86OpReg(o1);

	mov	rcx, QWORD PTR o1$[rsp]
	call	?x86OpReg@asmjit@@YAIPEBUOperand@1@@Z	; asmjit::x86OpReg
	mov	DWORD PTR opReg$[rsp], eax

; 1287 :         rmMem = x86OpMem(o0);

	mov	rcx, QWORD PTR o0$[rsp]
	call	?x86OpMem@asmjit@@YAPEBUX86Mem@1@PEBUOperand@1@@Z ; asmjit::x86OpMem
	mov	QWORD PTR $S1$[rsp], rax

; 1288 :         goto _EmitX86M;

	jmp	$LN1071@X86Assembl
	jmp	$_EmitX86M$1954
$LN1069@X86Assembl:

; 1289 :       }
; 1290 : 
; 1291 :       // The remaining instructions use the secondary opcode/r.
; 1292 :       imVal = static_cast<const Imm*>(o1)->getInt64();

	mov	rcx, QWORD PTR o1$[rsp]
	call	?getInt64@Imm@asmjit@@QEBA_JXZ		; asmjit::Imm::getInt64
	mov	QWORD PTR imVal$[rsp], rax

; 1293 :       imLen = 1;

	mov	DWORD PTR imLen$[rsp], 1

; 1294 : 
; 1295 :       opCode = extendedInfo.getSecondaryOpCode();

	mov	rcx, QWORD PTR extendedInfo$[rsp]
	call	?getSecondaryOpCode@X86InstExtendedInfo@asmjit@@QEBAIXZ ; asmjit::X86InstExtendedInfo::getSecondaryOpCode
	mov	DWORD PTR opCode$[rsp], eax

; 1296 :       opReg = x86ExtractO(opCode);

	mov	ecx, DWORD PTR opCode$[rsp]
	call	?x86ExtractO@asmjit@@YAII@Z		; asmjit::x86ExtractO
	mov	DWORD PTR opReg$[rsp], eax
$LN81@X86Assembl:

; 1297 : 
; 1298 :       ADD_66H_P_BY_SIZE(o0->getSize());

	mov	rcx, QWORD PTR o0$[rsp]
	call	?getSize@Operand@asmjit@@QEBAIXZ	; asmjit::Operand::getSize
	and	eax, 2
	shl	eax, 19
	mov	ecx, DWORD PTR opCode$[rsp]
	or	ecx, eax
	mov	eax, ecx
	mov	DWORD PTR opCode$[rsp], eax
	xor	eax, eax
	test	eax, eax
	jne	SHORT $LN81@X86Assembl
$LN84@X86Assembl:

; 1299 :       ADD_REX_W_BY_SIZE(o0->getSize());

	xor	eax, eax
	cmp	eax, 1
	je	SHORT $LN1072@X86Assembl
	mov	rcx, QWORD PTR o0$[rsp]
	call	?getSize@Operand@asmjit@@QEBAIXZ	; asmjit::Operand::getSize
	cmp	eax, 8
	jne	SHORT $LN1072@X86Assembl
	mov	eax, DWORD PTR opCode$[rsp]
	bts	eax, 31
	mov	DWORD PTR opCode$[rsp], eax
$LN1072@X86Assembl:
	xor	eax, eax
	test	eax, eax
	jne	SHORT $LN84@X86Assembl

; 1300 : 
; 1301 :       if (encoded == ENC_OPS(Reg, Imm, None)) {

	cmp	DWORD PTR encoded$[rsp], 33		; 00000021H
	jne	SHORT $LN1073@X86Assembl

; 1302 :         rmReg = x86OpReg(o0);

	mov	rcx, QWORD PTR o0$[rsp]
	call	?x86OpReg@asmjit@@YAIPEBUOperand@1@@Z	; asmjit::x86OpReg
	mov	eax, eax
	mov	QWORD PTR $S1$[rsp], rax

; 1303 :         goto _EmitX86R;

	jmp	$LN1074@X86Assembl
	jmp	$_EmitX86R$1953
$LN1073@X86Assembl:

; 1304 :       }
; 1305 : 
; 1306 :       if (encoded == ENC_OPS(Mem, Imm, None)) {

	cmp	DWORD PTR encoded$[rsp], 35		; 00000023H
	jne	SHORT $LN1075@X86Assembl

; 1307 :         if (o0->getSize() == 0)

	mov	rcx, QWORD PTR o0$[rsp]
	call	?getSize@Operand@asmjit@@QEBAIXZ	; asmjit::Operand::getSize
	test	eax, eax
	jne	SHORT $LN1076@X86Assembl

; 1308 :           goto _IllegalInst;

	jmp	$LN1077@X86Assembl
	jmp	$_IllegalInst$1950
$LN1076@X86Assembl:

; 1309 : 
; 1310 :         rmMem = x86OpMem(o0);

	mov	rcx, QWORD PTR o0$[rsp]
	call	?x86OpMem@asmjit@@YAPEBUX86Mem@1@PEBUOperand@1@@Z ; asmjit::x86OpMem
	mov	QWORD PTR $S1$[rsp], rax

; 1311 :         goto _EmitX86M;

	jmp	$LN1078@X86Assembl
	jmp	$_EmitX86M$1954
$LN1075@X86Assembl:

; 1312 :       }
; 1313 :       break;

	jmp	$LN5@X86Assembl
$LN1079@X86Assembl:

; 1314 : 
; 1315 :     case kX86InstEncodingIdX86Call:
; 1316 :       if (encoded == ENC_OPS(Reg, None, None)) {

	cmp	DWORD PTR encoded$[rsp], 1
	jne	SHORT $LN1080@X86Assembl

; 1317 :         rmReg = x86OpReg(o0);

	mov	rcx, QWORD PTR o0$[rsp]
	call	?x86OpReg@asmjit@@YAIPEBUOperand@1@@Z	; asmjit::x86OpReg
	mov	eax, eax
	mov	QWORD PTR $S1$[rsp], rax

; 1318 :         goto _EmitX86R;

	jmp	$LN1081@X86Assembl
	jmp	$_EmitX86R$1953
$LN1080@X86Assembl:

; 1319 :       }
; 1320 : 
; 1321 :       if (encoded == ENC_OPS(Mem, None, None)) {

	cmp	DWORD PTR encoded$[rsp], 3
	jne	SHORT $LN1082@X86Assembl

; 1322 :         rmMem = x86OpMem(o0);

	mov	rcx, QWORD PTR o0$[rsp]
	call	?x86OpMem@asmjit@@YAPEBUX86Mem@1@PEBUOperand@1@@Z ; asmjit::x86OpMem
	mov	QWORD PTR $S1$[rsp], rax

; 1323 :         goto _EmitX86M;

	jmp	$LN1083@X86Assembl
	jmp	$_EmitX86M$1954
$LN1082@X86Assembl:

; 1324 :       }
; 1325 : 
; 1326 :       // The following instructions use the secondary opcode.
; 1327 :       opCode = extendedInfo.getSecondaryOpCode();

	mov	rcx, QWORD PTR extendedInfo$[rsp]
	call	?getSecondaryOpCode@X86InstExtendedInfo@asmjit@@QEBAIXZ ; asmjit::X86InstExtendedInfo::getSecondaryOpCode
	mov	DWORD PTR opCode$[rsp], eax

; 1328 : 
; 1329 :       if (encoded == ENC_OPS(Imm, None, None)) {

	cmp	DWORD PTR encoded$[rsp], 4
	jne	SHORT $LN1084@X86Assembl

; 1330 :         imVal = static_cast<const Imm*>(o0)->getInt64();

	mov	rcx, QWORD PTR o0$[rsp]
	call	?getInt64@Imm@asmjit@@QEBA_JXZ		; asmjit::Imm::getInt64
	mov	QWORD PTR imVal$[rsp], rax

; 1331 :         goto _EmitJmpOrCallAbs;

	jmp	$LN1085@X86Assembl
	jmp	$_EmitJmpOrCallAbs$1956
$LN1084@X86Assembl:

; 1332 :       }
; 1333 : 
; 1334 :       if (encoded == ENC_OPS(Label, None, None)) {

	cmp	DWORD PTR encoded$[rsp], 5
	jne	$LN1086@X86Assembl

; 1335 :         label = self->getLabelData(static_cast<const Label*>(o0)->getId());

	mov	rcx, QWORD PTR o0$[rsp]
	call	?getId@Operand@asmjit@@QEBAIXZ		; asmjit::Operand::getId
	mov	edx, eax
	mov	rcx, QWORD PTR self$[rsp]
	call	?getLabelData@Assembler@asmjit@@QEBAPEAULabelData@2@I@Z ; asmjit::Assembler::getLabelData
	mov	QWORD PTR label$[rsp], rax

; 1336 :         if (label->offset != -1) {

	mov	rax, QWORD PTR label$[rsp]
	cmp	QWORD PTR [rax], -1
	je	$LN1087@X86Assembl

; 1337 :           // Bound label.
; 1338 :           static const intptr_t kRel32Size = 5;
; 1339 :           intptr_t offs = label->offset - (intptr_t)(cursor - self->_buffer);

	mov	rax, QWORD PTR self$[rsp]
	mov	rax, QWORD PTR [rax+72]
	mov	rcx, QWORD PTR cursor$[rsp]
	sub	rcx, rax
	mov	rax, rcx
	mov	rcx, QWORD PTR label$[rsp]
	mov	rcx, QWORD PTR [rcx]
	sub	rcx, rax
	mov	rax, rcx
	mov	QWORD PTR offs$66[rsp], rax
$LN87@X86Assembl:
$LN90@X86Assembl:

; 1340 : 
; 1341 :           ASMJIT_ASSERT(offs <= 0);
; 1342 :           EMIT_OP(opCode);

	mov	eax, DWORD PTR opCode$[rsp]
	and	eax, 255				; 000000ffH
	mov	ecx, 1
	imul	rcx, rcx, 0
	mov	rdx, QWORD PTR cursor$[rsp]
	mov	BYTE PTR [rdx+rcx], al
	mov	rax, QWORD PTR cursor$[rsp]
	inc	rax
	mov	QWORD PTR cursor$[rsp], rax
	xor	eax, eax
	test	eax, eax
	jne	SHORT $LN90@X86Assembl
	xor	eax, eax
	test	eax, eax
	jne	SHORT $LN87@X86Assembl
$LN93@X86Assembl:

; 1343 :           EMIT_DWORD(static_cast<int32_t>(offs - kRel32Size));

	mov	rax, QWORD PTR offs$66[rsp]
	sub	rax, 5
	mov	ecx, 4
	imul	rcx, rcx, 0
	mov	rdx, QWORD PTR cursor$[rsp]
	mov	DWORD PTR [rdx+rcx], eax
	mov	rax, QWORD PTR cursor$[rsp]
	add	rax, 4
	mov	QWORD PTR cursor$[rsp], rax
	xor	eax, eax
	test	eax, eax
	jne	SHORT $LN93@X86Assembl

; 1344 :         }

	jmp	SHORT $LN1088@X86Assembl
$LN1087@X86Assembl:
$LN96@X86Assembl:
$LN99@X86Assembl:

; 1345 :         else {
; 1346 :           // Non-bound label.
; 1347 :           EMIT_OP(opCode);

	mov	eax, DWORD PTR opCode$[rsp]
	and	eax, 255				; 000000ffH
	mov	ecx, 1
	imul	rcx, rcx, 0
	mov	rdx, QWORD PTR cursor$[rsp]
	mov	BYTE PTR [rdx+rcx], al
	mov	rax, QWORD PTR cursor$[rsp]
	inc	rax
	mov	QWORD PTR cursor$[rsp], rax
	xor	eax, eax
	test	eax, eax
	jne	SHORT $LN99@X86Assembl
	xor	eax, eax
	test	eax, eax
	jne	SHORT $LN96@X86Assembl

; 1348 :           dispOffset = -4;

	mov	DWORD PTR dispOffset$[rsp], -4

; 1349 :           dispSize = 4;

	mov	DWORD PTR dispSize$[rsp], 4

; 1350 :           relocId = -1;

	mov	QWORD PTR relocId$[rsp], -1

; 1351 :           goto _EmitDisplacement;

	jmp	$LN1089@X86Assembl
	jmp	$_EmitDisplacement$1957
$LN1088@X86Assembl:

; 1352 :         }
; 1353 :         goto _EmitDone;

	jmp	$LN1090@X86Assembl
	jmp	$_EmitDone$1951
$LN1086@X86Assembl:

; 1354 :       }
; 1355 :       break;

	jmp	$LN5@X86Assembl
$LN1091@X86Assembl:

; 1356 : 
; 1357 :     case kX86InstEncodingIdX86Enter:
; 1358 :       if (encoded == ENC_OPS(Imm, Imm, None)) {

	cmp	DWORD PTR encoded$[rsp], 36		; 00000024H
	jne	$LN1092@X86Assembl
$LN102@X86Assembl:

; 1359 :         EMIT_BYTE(0xC8);

	mov	eax, 1
	imul	rax, rax, 0
	mov	rcx, QWORD PTR cursor$[rsp]
	mov	BYTE PTR [rcx+rax], 200			; 000000c8H
	mov	rax, QWORD PTR cursor$[rsp]
	inc	rax
	mov	QWORD PTR cursor$[rsp], rax
	xor	eax, eax
	test	eax, eax
	jne	SHORT $LN102@X86Assembl
$LN105@X86Assembl:

; 1360 :         EMIT_WORD(static_cast<const Imm*>(o1)->getUInt16());

	mov	rcx, QWORD PTR o1$[rsp]
	call	?getUInt16@Imm@asmjit@@QEBAGXZ		; asmjit::Imm::getUInt16
	mov	ecx, 2
	imul	rcx, rcx, 0
	mov	rdx, QWORD PTR cursor$[rsp]
	mov	WORD PTR [rdx+rcx], ax
	mov	rax, QWORD PTR cursor$[rsp]
	add	rax, 2
	mov	QWORD PTR cursor$[rsp], rax
	xor	eax, eax
	test	eax, eax
	jne	SHORT $LN105@X86Assembl
$LN108@X86Assembl:

; 1361 :         EMIT_BYTE(static_cast<const Imm*>(o0)->getUInt8());

	mov	rcx, QWORD PTR o0$[rsp]
	call	?getUInt8@Imm@asmjit@@QEBAEXZ		; asmjit::Imm::getUInt8
	mov	ecx, 1
	imul	rcx, rcx, 0
	mov	rdx, QWORD PTR cursor$[rsp]
	mov	BYTE PTR [rdx+rcx], al
	mov	rax, QWORD PTR cursor$[rsp]
	inc	rax
	mov	QWORD PTR cursor$[rsp], rax
	xor	eax, eax
	test	eax, eax
	jne	SHORT $LN108@X86Assembl

; 1362 :         goto _EmitDone;

	jmp	$LN1093@X86Assembl
	jmp	$_EmitDone$1951
$LN1092@X86Assembl:

; 1363 :       }
; 1364 :       break;

	jmp	$LN5@X86Assembl
$LN1094@X86Assembl:
$LN111@X86Assembl:

; 1365 : 
; 1366 :     case kX86InstEncodingIdX86Imul:
; 1367 :       ADD_66H_P_BY_SIZE(o0->getSize());

	mov	rcx, QWORD PTR o0$[rsp]
	call	?getSize@Operand@asmjit@@QEBAIXZ	; asmjit::Operand::getSize
	and	eax, 2
	shl	eax, 19
	mov	ecx, DWORD PTR opCode$[rsp]
	or	ecx, eax
	mov	eax, ecx
	mov	DWORD PTR opCode$[rsp], eax
	xor	eax, eax
	test	eax, eax
	jne	SHORT $LN111@X86Assembl
$LN114@X86Assembl:

; 1368 :       ADD_REX_W_BY_SIZE(o0->getSize());

	xor	eax, eax
	cmp	eax, 1
	je	SHORT $LN1095@X86Assembl
	mov	rcx, QWORD PTR o0$[rsp]
	call	?getSize@Operand@asmjit@@QEBAIXZ	; asmjit::Operand::getSize
	cmp	eax, 8
	jne	SHORT $LN1095@X86Assembl
	mov	eax, DWORD PTR opCode$[rsp]
	bts	eax, 31
	mov	DWORD PTR opCode$[rsp], eax
$LN1095@X86Assembl:
	xor	eax, eax
	test	eax, eax
	jne	SHORT $LN114@X86Assembl

; 1369 : 
; 1370 :       if (encoded == ENC_OPS(Reg, None, None)) {

	cmp	DWORD PTR encoded$[rsp], 1
	jne	SHORT $LN1096@X86Assembl

; 1371 :         opCode &= kX86InstOpCode_PP_66 | kX86InstOpCode_W;

	mov	eax, DWORD PTR opCode$[rsp]
	and	eax, -2146435072			; 80100000H
	mov	DWORD PTR opCode$[rsp], eax

; 1372 :         opCode |= 0xF6 + (o0->getSize() != 1);

	mov	rcx, QWORD PTR o0$[rsp]
	call	?getSize@Operand@asmjit@@QEBAIXZ	; asmjit::Operand::getSize
	cmp	eax, 1
	je	SHORT $LN1854@X86Assembl
	mov	DWORD PTR tv667[rsp], 1
	jmp	SHORT $LN1855@X86Assembl
$LN1854@X86Assembl:
	mov	DWORD PTR tv667[rsp], 0
$LN1855@X86Assembl:
	mov	eax, DWORD PTR tv667[rsp]
	add	eax, 246				; 000000f6H
	mov	ecx, DWORD PTR opCode$[rsp]
	or	ecx, eax
	mov	eax, ecx
	mov	DWORD PTR opCode$[rsp], eax

; 1373 : 
; 1374 :         opReg = 5;

	mov	DWORD PTR opReg$[rsp], 5

; 1375 :         rmReg = x86OpReg(o0);

	mov	rcx, QWORD PTR o0$[rsp]
	call	?x86OpReg@asmjit@@YAIPEBUOperand@1@@Z	; asmjit::x86OpReg
	mov	eax, eax
	mov	QWORD PTR $S1$[rsp], rax

; 1376 :         goto _EmitX86R;

	jmp	$LN1097@X86Assembl
	jmp	$_EmitX86R$1953
$LN1096@X86Assembl:

; 1377 :       }
; 1378 : 
; 1379 :       if (encoded == ENC_OPS(Mem, None, None)) {

	cmp	DWORD PTR encoded$[rsp], 3
	jne	SHORT $LN1098@X86Assembl

; 1380 :         opCode &= kX86InstOpCode_PP_66 | kX86InstOpCode_W;

	mov	eax, DWORD PTR opCode$[rsp]
	and	eax, -2146435072			; 80100000H
	mov	DWORD PTR opCode$[rsp], eax

; 1381 :         opCode |= 0xF6 + (o0->getSize() != 1);

	mov	rcx, QWORD PTR o0$[rsp]
	call	?getSize@Operand@asmjit@@QEBAIXZ	; asmjit::Operand::getSize
	cmp	eax, 1
	je	SHORT $LN1856@X86Assembl
	mov	DWORD PTR tv678[rsp], 1
	jmp	SHORT $LN1857@X86Assembl
$LN1856@X86Assembl:
	mov	DWORD PTR tv678[rsp], 0
$LN1857@X86Assembl:
	mov	eax, DWORD PTR tv678[rsp]
	add	eax, 246				; 000000f6H
	mov	ecx, DWORD PTR opCode$[rsp]
	or	ecx, eax
	mov	eax, ecx
	mov	DWORD PTR opCode$[rsp], eax

; 1382 : 
; 1383 :         opReg = 5;

	mov	DWORD PTR opReg$[rsp], 5

; 1384 :         rmMem = x86OpMem(o0);

	mov	rcx, QWORD PTR o0$[rsp]
	call	?x86OpMem@asmjit@@YAPEBUX86Mem@1@PEBUOperand@1@@Z ; asmjit::x86OpMem
	mov	QWORD PTR $S1$[rsp], rax

; 1385 :         goto _EmitX86M;

	jmp	$LN1099@X86Assembl
	jmp	$_EmitX86M$1954
$LN1098@X86Assembl:

; 1386 :       }
; 1387 : 
; 1388 :       // The following instructions use 0x0FAF opcode.
; 1389 :       opCode &= kX86InstOpCode_PP_66 | kX86InstOpCode_W;

	mov	eax, DWORD PTR opCode$[rsp]
	and	eax, -2146435072			; 80100000H
	mov	DWORD PTR opCode$[rsp], eax

; 1390 :       opCode |= kX86InstOpCode_MM_0F | 0xAF;

	mov	eax, DWORD PTR opCode$[rsp]
	or	eax, 65711				; 000100afH
	mov	DWORD PTR opCode$[rsp], eax

; 1391 : 
; 1392 :       if (encoded == ENC_OPS(Reg, Reg, None)) {

	cmp	DWORD PTR encoded$[rsp], 9
	jne	SHORT $LN1100@X86Assembl

; 1393 :         ASMJIT_ASSERT(o0->getSize() != 1);
; 1394 : 
; 1395 :         opReg = x86OpReg(o0);

	mov	rcx, QWORD PTR o0$[rsp]
	call	?x86OpReg@asmjit@@YAIPEBUOperand@1@@Z	; asmjit::x86OpReg
	mov	DWORD PTR opReg$[rsp], eax

; 1396 :         rmReg = x86OpReg(o1);

	mov	rcx, QWORD PTR o1$[rsp]
	call	?x86OpReg@asmjit@@YAIPEBUOperand@1@@Z	; asmjit::x86OpReg
	mov	eax, eax
	mov	QWORD PTR $S1$[rsp], rax

; 1397 : 
; 1398 :         goto _EmitX86R;

	jmp	$LN1101@X86Assembl
	jmp	$_EmitX86R$1953
$LN1100@X86Assembl:

; 1399 :       }
; 1400 : 
; 1401 :       if (encoded == ENC_OPS(Reg, Mem, None)) {

	cmp	DWORD PTR encoded$[rsp], 25
	jne	SHORT $LN1102@X86Assembl

; 1402 :         ASMJIT_ASSERT(o0->getSize() != 1);
; 1403 : 
; 1404 :         opReg = x86OpReg(o0);

	mov	rcx, QWORD PTR o0$[rsp]
	call	?x86OpReg@asmjit@@YAIPEBUOperand@1@@Z	; asmjit::x86OpReg
	mov	DWORD PTR opReg$[rsp], eax

; 1405 :         rmMem = x86OpMem(o1);

	mov	rcx, QWORD PTR o1$[rsp]
	call	?x86OpMem@asmjit@@YAPEBUX86Mem@1@PEBUOperand@1@@Z ; asmjit::x86OpMem
	mov	QWORD PTR $S1$[rsp], rax

; 1406 : 
; 1407 :         goto _EmitX86M;

	jmp	$LN1103@X86Assembl
	jmp	$_EmitX86M$1954
$LN1102@X86Assembl:

; 1408 :       }
; 1409 : 
; 1410 :       // The following instructions use 0x69/0x6B opcode.
; 1411 :       opCode &= kX86InstOpCode_PP_66 | kX86InstOpCode_W;

	mov	eax, DWORD PTR opCode$[rsp]
	and	eax, -2146435072			; 80100000H
	mov	DWORD PTR opCode$[rsp], eax

; 1412 :       opCode |= 0x6B;

	mov	eax, DWORD PTR opCode$[rsp]
	or	eax, 107				; 0000006bH
	mov	DWORD PTR opCode$[rsp], eax

; 1413 : 
; 1414 :       if (encoded == ENC_OPS(Reg, Imm, None)) {

	cmp	DWORD PTR encoded$[rsp], 33		; 00000021H
	jne	$LN1104@X86Assembl

; 1415 :         ASMJIT_ASSERT(o0->getSize() != 1);
; 1416 : 
; 1417 :         imVal = static_cast<const Imm*>(o1)->getInt64();

	mov	rcx, QWORD PTR o1$[rsp]
	call	?getInt64@Imm@asmjit@@QEBA_JXZ		; asmjit::Imm::getInt64
	mov	QWORD PTR imVal$[rsp], rax

; 1418 :         imLen = 1;

	mov	DWORD PTR imLen$[rsp], 1

; 1419 : 
; 1420 :         if (!IntUtil::isInt8(imVal)) {

	mov	rcx, QWORD PTR imVal$[rsp]
	call	??$isInt8@_J@IntUtil@asmjit@@SA_N_J@Z	; asmjit::IntUtil::isInt8<__int64>
	movzx	eax, al
	test	eax, eax
	jne	SHORT $LN1105@X86Assembl

; 1421 :           opCode -= 2;

	mov	eax, DWORD PTR opCode$[rsp]
	sub	eax, 2
	mov	DWORD PTR opCode$[rsp], eax

; 1422 :           imLen = o0->getSize() == 2 ? 2 : 4;

	mov	rcx, QWORD PTR o0$[rsp]
	call	?getSize@Operand@asmjit@@QEBAIXZ	; asmjit::Operand::getSize
	cmp	eax, 2
	jne	SHORT $LN1858@X86Assembl
	mov	DWORD PTR tv713[rsp], 2
	jmp	SHORT $LN1859@X86Assembl
$LN1858@X86Assembl:
	mov	DWORD PTR tv713[rsp], 4
$LN1859@X86Assembl:
	mov	eax, DWORD PTR tv713[rsp]
	mov	DWORD PTR imLen$[rsp], eax
$LN1105@X86Assembl:

; 1423 :         }
; 1424 : 
; 1425 :         opReg = x86OpReg(o0);

	mov	rcx, QWORD PTR o0$[rsp]
	call	?x86OpReg@asmjit@@YAIPEBUOperand@1@@Z	; asmjit::x86OpReg
	mov	DWORD PTR opReg$[rsp], eax

; 1426 :         rmReg = opReg;

	mov	eax, DWORD PTR opReg$[rsp]
	mov	QWORD PTR $S1$[rsp], rax

; 1427 :         goto _EmitX86R;

	jmp	$LN1106@X86Assembl
	jmp	$_EmitX86R$1953
$LN1104@X86Assembl:

; 1428 :       }
; 1429 : 
; 1430 :       if (encoded == ENC_OPS(Reg, Reg, Imm)) {

	cmp	DWORD PTR encoded$[rsp], 265		; 00000109H
	jne	$LN1107@X86Assembl

; 1431 :         ASMJIT_ASSERT(o0->getSize() != 1);
; 1432 : 
; 1433 :         imVal = static_cast<const Imm*>(o2)->getInt64();

	mov	rcx, QWORD PTR o2$[rsp]
	call	?getInt64@Imm@asmjit@@QEBA_JXZ		; asmjit::Imm::getInt64
	mov	QWORD PTR imVal$[rsp], rax

; 1434 :         imLen = 1;

	mov	DWORD PTR imLen$[rsp], 1

; 1435 : 
; 1436 :         if (!IntUtil::isInt8(imVal)) {

	mov	rcx, QWORD PTR imVal$[rsp]
	call	??$isInt8@_J@IntUtil@asmjit@@SA_N_J@Z	; asmjit::IntUtil::isInt8<__int64>
	movzx	eax, al
	test	eax, eax
	jne	SHORT $LN1108@X86Assembl

; 1437 :           opCode -= 2;

	mov	eax, DWORD PTR opCode$[rsp]
	sub	eax, 2
	mov	DWORD PTR opCode$[rsp], eax

; 1438 :           imLen = o0->getSize() == 2 ? 2 : 4;

	mov	rcx, QWORD PTR o0$[rsp]
	call	?getSize@Operand@asmjit@@QEBAIXZ	; asmjit::Operand::getSize
	cmp	eax, 2
	jne	SHORT $LN1860@X86Assembl
	mov	DWORD PTR tv732[rsp], 2
	jmp	SHORT $LN1861@X86Assembl
$LN1860@X86Assembl:
	mov	DWORD PTR tv732[rsp], 4
$LN1861@X86Assembl:
	mov	eax, DWORD PTR tv732[rsp]
	mov	DWORD PTR imLen$[rsp], eax
$LN1108@X86Assembl:

; 1439 :         }
; 1440 : 
; 1441 :         opReg = x86OpReg(o0);

	mov	rcx, QWORD PTR o0$[rsp]
	call	?x86OpReg@asmjit@@YAIPEBUOperand@1@@Z	; asmjit::x86OpReg
	mov	DWORD PTR opReg$[rsp], eax

; 1442 :         rmReg = x86OpReg(o1);

	mov	rcx, QWORD PTR o1$[rsp]
	call	?x86OpReg@asmjit@@YAIPEBUOperand@1@@Z	; asmjit::x86OpReg
	mov	eax, eax
	mov	QWORD PTR $S1$[rsp], rax

; 1443 :         goto _EmitX86R;

	jmp	$LN1109@X86Assembl
	jmp	$_EmitX86R$1953
$LN1107@X86Assembl:

; 1444 :       }
; 1445 : 
; 1446 :       if (encoded == ENC_OPS(Reg, Mem, Imm)) {

	cmp	DWORD PTR encoded$[rsp], 281		; 00000119H
	jne	$LN1110@X86Assembl

; 1447 :         ASMJIT_ASSERT(o0->getSize() != 1);
; 1448 : 
; 1449 :         imVal = static_cast<const Imm*>(o2)->getInt64();

	mov	rcx, QWORD PTR o2$[rsp]
	call	?getInt64@Imm@asmjit@@QEBA_JXZ		; asmjit::Imm::getInt64
	mov	QWORD PTR imVal$[rsp], rax

; 1450 :         imLen = 1;

	mov	DWORD PTR imLen$[rsp], 1

; 1451 : 
; 1452 :         if (!IntUtil::isInt8(imVal)) {

	mov	rcx, QWORD PTR imVal$[rsp]
	call	??$isInt8@_J@IntUtil@asmjit@@SA_N_J@Z	; asmjit::IntUtil::isInt8<__int64>
	movzx	eax, al
	test	eax, eax
	jne	SHORT $LN1111@X86Assembl

; 1453 :           opCode -= 2;

	mov	eax, DWORD PTR opCode$[rsp]
	sub	eax, 2
	mov	DWORD PTR opCode$[rsp], eax

; 1454 :           imLen = o0->getSize() == 2 ? 2 : 4;

	mov	rcx, QWORD PTR o0$[rsp]
	call	?getSize@Operand@asmjit@@QEBAIXZ	; asmjit::Operand::getSize
	cmp	eax, 2
	jne	SHORT $LN1862@X86Assembl
	mov	DWORD PTR tv753[rsp], 2
	jmp	SHORT $LN1863@X86Assembl
$LN1862@X86Assembl:
	mov	DWORD PTR tv753[rsp], 4
$LN1863@X86Assembl:
	mov	eax, DWORD PTR tv753[rsp]
	mov	DWORD PTR imLen$[rsp], eax
$LN1111@X86Assembl:

; 1455 :         }
; 1456 : 
; 1457 :         opReg = x86OpReg(o0);

	mov	rcx, QWORD PTR o0$[rsp]
	call	?x86OpReg@asmjit@@YAIPEBUOperand@1@@Z	; asmjit::x86OpReg
	mov	DWORD PTR opReg$[rsp], eax

; 1458 :         rmMem = x86OpMem(o1);

	mov	rcx, QWORD PTR o1$[rsp]
	call	?x86OpMem@asmjit@@YAPEBUX86Mem@1@PEBUOperand@1@@Z ; asmjit::x86OpMem
	mov	QWORD PTR $S1$[rsp], rax

; 1459 :         goto _EmitX86M;

	jmp	$LN1112@X86Assembl
	jmp	$_EmitX86M$1954
$LN1110@X86Assembl:

; 1460 :       }
; 1461 :       break;

	jmp	$LN5@X86Assembl
$LN1113@X86Assembl:
$LN117@X86Assembl:

; 1462 : 
; 1463 :     case kX86InstEncodingIdX86IncDec:
; 1464 :       ADD_66H_P_BY_SIZE(o0->getSize());

	mov	rcx, QWORD PTR o0$[rsp]
	call	?getSize@Operand@asmjit@@QEBAIXZ	; asmjit::Operand::getSize
	and	eax, 2
	shl	eax, 19
	mov	ecx, DWORD PTR opCode$[rsp]
	or	ecx, eax
	mov	eax, ecx
	mov	DWORD PTR opCode$[rsp], eax
	xor	eax, eax
	test	eax, eax
	jne	SHORT $LN117@X86Assembl
$LN120@X86Assembl:

; 1465 :       ADD_REX_W_BY_SIZE(o0->getSize());

	xor	eax, eax
	cmp	eax, 1
	je	SHORT $LN1114@X86Assembl
	mov	rcx, QWORD PTR o0$[rsp]
	call	?getSize@Operand@asmjit@@QEBAIXZ	; asmjit::Operand::getSize
	cmp	eax, 8
	jne	SHORT $LN1114@X86Assembl
	mov	eax, DWORD PTR opCode$[rsp]
	bts	eax, 31
	mov	DWORD PTR opCode$[rsp], eax
$LN1114@X86Assembl:
	xor	eax, eax
	test	eax, eax
	jne	SHORT $LN120@X86Assembl

; 1466 : 
; 1467 :       if (encoded == ENC_OPS(Reg, None, None)) {

	cmp	DWORD PTR encoded$[rsp], 1
	jne	$LN1115@X86Assembl

; 1468 :         rmReg = x86OpReg(o0);

	mov	rcx, QWORD PTR o0$[rsp]
	call	?x86OpReg@asmjit@@YAIPEBUOperand@1@@Z	; asmjit::x86OpReg
	mov	eax, eax
	mov	QWORD PTR $S1$[rsp], rax

; 1469 : 
; 1470 :         // INC r16|r32 is not encodable in 64-bit mode.
; 1471 :         if (Arch == kArchX86 && (o0->getSize() == 2 || o0->getSize() == 4)) {

	xor	eax, eax
	test	eax, eax
	je	SHORT $LN1116@X86Assembl

; 1472 :           opCode &= kX86InstOpCode_PP_66 | kX86InstOpCode_W;

	mov	eax, DWORD PTR opCode$[rsp]
	and	eax, -2146435072			; 80100000H
	mov	DWORD PTR opCode$[rsp], eax

; 1473 :           opCode |= extendedInfo.getSecondaryOpCode() + (static_cast<uint32_t>(rmReg) & 0x7);

	mov	rcx, QWORD PTR extendedInfo$[rsp]
	call	?getSecondaryOpCode@X86InstExtendedInfo@asmjit@@QEBAIXZ ; asmjit::X86InstExtendedInfo::getSecondaryOpCode
	mov	ecx, DWORD PTR $S1$[rsp]
	and	ecx, 7
	add	eax, ecx
	mov	ecx, DWORD PTR opCode$[rsp]
	or	ecx, eax
	mov	eax, ecx
	mov	DWORD PTR opCode$[rsp], eax

; 1474 :           goto _EmitX86Op;

	jmp	$LN1118@X86Assembl
	jmp	$_EmitX86Op$1952

; 1475 :         }

	jmp	SHORT $LN1117@X86Assembl
$LN1116@X86Assembl:

; 1476 :         else {
; 1477 :           opCode += o0->getSize() != 1;

	mov	rcx, QWORD PTR o0$[rsp]
	call	?getSize@Operand@asmjit@@QEBAIXZ	; asmjit::Operand::getSize
	cmp	eax, 1
	je	SHORT $LN1864@X86Assembl
	mov	DWORD PTR tv784[rsp], 1
	jmp	SHORT $LN1865@X86Assembl
$LN1864@X86Assembl:
	mov	DWORD PTR tv784[rsp], 0
$LN1865@X86Assembl:
	mov	eax, DWORD PTR tv784[rsp]
	mov	ecx, DWORD PTR opCode$[rsp]
	add	ecx, eax
	mov	eax, ecx
	mov	DWORD PTR opCode$[rsp], eax

; 1478 :           goto _EmitX86R;

	jmp	$LN1119@X86Assembl
	jmp	$_EmitX86R$1953
$LN1117@X86Assembl:
$LN1115@X86Assembl:

; 1479 :         }
; 1480 :       }
; 1481 : 
; 1482 :       if (encoded == ENC_OPS(Mem, None, None)) {

	cmp	DWORD PTR encoded$[rsp], 3
	jne	SHORT $LN1120@X86Assembl

; 1483 :         opCode += o0->getSize() != 1;

	mov	rcx, QWORD PTR o0$[rsp]
	call	?getSize@Operand@asmjit@@QEBAIXZ	; asmjit::Operand::getSize
	cmp	eax, 1
	je	SHORT $LN1866@X86Assembl
	mov	DWORD PTR tv790[rsp], 1
	jmp	SHORT $LN1867@X86Assembl
$LN1866@X86Assembl:
	mov	DWORD PTR tv790[rsp], 0
$LN1867@X86Assembl:
	mov	eax, DWORD PTR tv790[rsp]
	mov	ecx, DWORD PTR opCode$[rsp]
	add	ecx, eax
	mov	eax, ecx
	mov	DWORD PTR opCode$[rsp], eax

; 1484 :         rmMem = x86OpMem(o0);

	mov	rcx, QWORD PTR o0$[rsp]
	call	?x86OpMem@asmjit@@YAPEBUX86Mem@1@PEBUOperand@1@@Z ; asmjit::x86OpMem
	mov	QWORD PTR $S1$[rsp], rax

; 1485 :         goto _EmitX86M;

	jmp	$LN1121@X86Assembl
	jmp	$_EmitX86M$1954
$LN1120@X86Assembl:

; 1486 :       }
; 1487 :       break;

	jmp	$LN5@X86Assembl
$LN1122@X86Assembl:

; 1488 : 
; 1489 :     case kX86InstEncodingIdX86Int:
; 1490 :       if (encoded == ENC_OPS(Imm, None, None)) {

	cmp	DWORD PTR encoded$[rsp], 4
	jne	$LN1123@X86Assembl

; 1491 :         imVal = static_cast<const Imm*>(o0)->getInt64();

	mov	rcx, QWORD PTR o0$[rsp]
	call	?getInt64@Imm@asmjit@@QEBA_JXZ		; asmjit::Imm::getInt64
	mov	QWORD PTR imVal$[rsp], rax

; 1492 :         uint8_t imm8 = static_cast<uint8_t>(imVal & 0xFF);

	mov	rax, QWORD PTR imVal$[rsp]
	and	rax, 255				; 000000ffH
	mov	BYTE PTR imm8$4[rsp], al

; 1493 : 
; 1494 :         if (imm8 == 0x03) {

	movzx	eax, BYTE PTR imm8$4[rsp]
	cmp	eax, 3
	jne	SHORT $LN1124@X86Assembl
$LN123@X86Assembl:
$LN126@X86Assembl:

; 1495 :           EMIT_OP(opCode);

	mov	eax, DWORD PTR opCode$[rsp]
	and	eax, 255				; 000000ffH
	mov	ecx, 1
	imul	rcx, rcx, 0
	mov	rdx, QWORD PTR cursor$[rsp]
	mov	BYTE PTR [rdx+rcx], al
	mov	rax, QWORD PTR cursor$[rsp]
	inc	rax
	mov	QWORD PTR cursor$[rsp], rax
	xor	eax, eax
	test	eax, eax
	jne	SHORT $LN126@X86Assembl
	xor	eax, eax
	test	eax, eax
	jne	SHORT $LN123@X86Assembl

; 1496 :         }

	jmp	SHORT $LN1125@X86Assembl
$LN1124@X86Assembl:
$LN129@X86Assembl:
$LN132@X86Assembl:

; 1497 :         else {
; 1498 :           EMIT_OP(opCode + 1);

	mov	eax, DWORD PTR opCode$[rsp]
	inc	eax
	and	eax, 255				; 000000ffH
	mov	ecx, 1
	imul	rcx, rcx, 0
	mov	rdx, QWORD PTR cursor$[rsp]
	mov	BYTE PTR [rdx+rcx], al
	mov	rax, QWORD PTR cursor$[rsp]
	inc	rax
	mov	QWORD PTR cursor$[rsp], rax
	xor	eax, eax
	test	eax, eax
	jne	SHORT $LN132@X86Assembl
	xor	eax, eax
	test	eax, eax
	jne	SHORT $LN129@X86Assembl
$LN135@X86Assembl:

; 1499 :           EMIT_BYTE(imm8);

	mov	eax, 1
	imul	rax, rax, 0
	mov	rcx, QWORD PTR cursor$[rsp]
	movzx	edx, BYTE PTR imm8$4[rsp]
	mov	BYTE PTR [rcx+rax], dl
	mov	rax, QWORD PTR cursor$[rsp]
	inc	rax
	mov	QWORD PTR cursor$[rsp], rax
	xor	eax, eax
	test	eax, eax
	jne	SHORT $LN135@X86Assembl
$LN1125@X86Assembl:

; 1500 :         }
; 1501 :         goto _EmitDone;

	jmp	$LN1126@X86Assembl
	jmp	$_EmitDone$1951
$LN1123@X86Assembl:

; 1502 :       }
; 1503 :       break;

	jmp	$LN5@X86Assembl
$LN1127@X86Assembl:

; 1504 : 
; 1505 :     case kX86InstEncodingIdX86Jcc:
; 1506 :       if (encoded == ENC_OPS(Label, None, None)) {

	cmp	DWORD PTR encoded$[rsp], 5
	jne	$LN1128@X86Assembl

; 1507 :         label = self->getLabelData(static_cast<const Label*>(o0)->getId());

	mov	rcx, QWORD PTR o0$[rsp]
	call	?getId@Operand@asmjit@@QEBAIXZ		; asmjit::Operand::getId
	mov	edx, eax
	mov	rcx, QWORD PTR self$[rsp]
	call	?getLabelData@Assembler@asmjit@@QEBAPEAULabelData@2@I@Z ; asmjit::Assembler::getLabelData
	mov	QWORD PTR label$[rsp], rax

; 1508 : 
; 1509 :         if (self->hasFeature(kCodeGenPredictedJumps)) {

	mov	edx, 1
	mov	rcx, QWORD PTR self$[rsp]
	call	?hasFeature@CodeGen@asmjit@@QEBA_NI@Z	; asmjit::CodeGen::hasFeature
	movzx	eax, al
	test	eax, eax
	je	SHORT $LN1129@X86Assembl

; 1510 :           if (options & kInstOptionTaken)

	mov	eax, DWORD PTR options$[rsp]
	and	eax, 4
	test	eax, eax
	je	SHORT $LN1130@X86Assembl
$LN138@X86Assembl:

; 1511 :             EMIT_BYTE(0x3E);

	mov	eax, 1
	imul	rax, rax, 0
	mov	rcx, QWORD PTR cursor$[rsp]
	mov	BYTE PTR [rcx+rax], 62			; 0000003eH
	mov	rax, QWORD PTR cursor$[rsp]
	inc	rax
	mov	QWORD PTR cursor$[rsp], rax
	xor	eax, eax
	test	eax, eax
	jne	SHORT $LN138@X86Assembl
$LN1130@X86Assembl:

; 1512 :           if (options & kInstOptionNotTaken)

	mov	eax, DWORD PTR options$[rsp]
	and	eax, 8
	test	eax, eax
	je	SHORT $LN1131@X86Assembl
$LN141@X86Assembl:

; 1513 :             EMIT_BYTE(0x2E);

	mov	eax, 1
	imul	rax, rax, 0
	mov	rcx, QWORD PTR cursor$[rsp]
	mov	BYTE PTR [rcx+rax], 46			; 0000002eH
	mov	rax, QWORD PTR cursor$[rsp]
	inc	rax
	mov	QWORD PTR cursor$[rsp], rax
	xor	eax, eax
	test	eax, eax
	jne	SHORT $LN141@X86Assembl
$LN1131@X86Assembl:
$LN1129@X86Assembl:

; 1514 :         }
; 1515 : 
; 1516 :         if (label->offset != -1) {

	mov	rax, QWORD PTR label$[rsp]
	cmp	QWORD PTR [rax], -1
	je	$LN1132@X86Assembl

; 1517 :           // Bound label.
; 1518 :           static const intptr_t kRel8Size = 2;
; 1519 :           static const intptr_t kRel32Size = 6;
; 1520 : 
; 1521 :           intptr_t offs = label->offset - (intptr_t)(cursor - self->_buffer);

	mov	rax, QWORD PTR self$[rsp]
	mov	rax, QWORD PTR [rax+72]
	mov	rcx, QWORD PTR cursor$[rsp]
	sub	rcx, rax
	mov	rax, rcx
	mov	rcx, QWORD PTR label$[rsp]
	mov	rcx, QWORD PTR [rcx]
	sub	rcx, rax
	mov	rax, rcx
	mov	QWORD PTR offs$58[rsp], rax

; 1522 :           ASMJIT_ASSERT(offs <= 0);
; 1523 : 
; 1524 :           if ((options & kInstOptionLongForm) == 0 && IntUtil::isInt8(offs - kRel8Size)) {

	mov	eax, DWORD PTR options$[rsp]
	and	eax, 2
	test	eax, eax
	jne	$LN1134@X86Assembl
	mov	rax, QWORD PTR offs$58[rsp]
	sub	rax, 2
	mov	rcx, rax
	call	??$isInt8@_J@IntUtil@asmjit@@SA_N_J@Z	; asmjit::IntUtil::isInt8<__int64>
	movzx	eax, al
	test	eax, eax
	je	SHORT $LN1134@X86Assembl
$LN144@X86Assembl:
$LN147@X86Assembl:

; 1525 :             EMIT_OP(opCode);

	mov	eax, DWORD PTR opCode$[rsp]
	and	eax, 255				; 000000ffH
	mov	ecx, 1
	imul	rcx, rcx, 0
	mov	rdx, QWORD PTR cursor$[rsp]
	mov	BYTE PTR [rdx+rcx], al
	mov	rax, QWORD PTR cursor$[rsp]
	inc	rax
	mov	QWORD PTR cursor$[rsp], rax
	xor	eax, eax
	test	eax, eax
	jne	SHORT $LN147@X86Assembl
	xor	eax, eax
	test	eax, eax
	jne	SHORT $LN144@X86Assembl
$LN150@X86Assembl:

; 1526 :             EMIT_BYTE(offs - kRel8Size);

	mov	rax, QWORD PTR offs$58[rsp]
	sub	rax, 2
	mov	ecx, 1
	imul	rcx, rcx, 0
	mov	rdx, QWORD PTR cursor$[rsp]
	mov	BYTE PTR [rdx+rcx], al
	mov	rax, QWORD PTR cursor$[rsp]
	inc	rax
	mov	QWORD PTR cursor$[rsp], rax
	xor	eax, eax
	test	eax, eax
	jne	SHORT $LN150@X86Assembl

; 1527 : 
; 1528 :             options |= kInstOptionShortForm;

	mov	eax, DWORD PTR options$[rsp]
	or	eax, 1
	mov	DWORD PTR options$[rsp], eax

; 1529 :             goto _EmitDone;

	jmp	$LN1136@X86Assembl
	jmp	$_EmitDone$1951

; 1530 :           }

	jmp	$LN1135@X86Assembl
$LN1134@X86Assembl:
$LN153@X86Assembl:

; 1531 :           else {
; 1532 :             EMIT_BYTE(0x0F);

	mov	eax, 1
	imul	rax, rax, 0
	mov	rcx, QWORD PTR cursor$[rsp]
	mov	BYTE PTR [rcx+rax], 15
	mov	rax, QWORD PTR cursor$[rsp]
	inc	rax
	mov	QWORD PTR cursor$[rsp], rax
	xor	eax, eax
	test	eax, eax
	jne	SHORT $LN153@X86Assembl
$LN156@X86Assembl:
$LN159@X86Assembl:

; 1533 :             EMIT_OP(opCode + 0x10);

	mov	eax, DWORD PTR opCode$[rsp]
	add	eax, 16
	and	eax, 255				; 000000ffH
	mov	ecx, 1
	imul	rcx, rcx, 0
	mov	rdx, QWORD PTR cursor$[rsp]
	mov	BYTE PTR [rdx+rcx], al
	mov	rax, QWORD PTR cursor$[rsp]
	inc	rax
	mov	QWORD PTR cursor$[rsp], rax
	xor	eax, eax
	test	eax, eax
	jne	SHORT $LN159@X86Assembl
	xor	eax, eax
	test	eax, eax
	jne	SHORT $LN156@X86Assembl
$LN162@X86Assembl:

; 1534 :             EMIT_DWORD(static_cast<int32_t>(offs - kRel32Size));

	mov	rax, QWORD PTR offs$58[rsp]
	sub	rax, 6
	mov	ecx, 4
	imul	rcx, rcx, 0
	mov	rdx, QWORD PTR cursor$[rsp]
	mov	DWORD PTR [rdx+rcx], eax
	mov	rax, QWORD PTR cursor$[rsp]
	add	rax, 4
	mov	QWORD PTR cursor$[rsp], rax
	xor	eax, eax
	test	eax, eax
	jne	SHORT $LN162@X86Assembl

; 1535 : 
; 1536 :             options &= ~kInstOptionShortForm;

	mov	eax, DWORD PTR options$[rsp]
	and	eax, -2					; fffffffeH
	mov	DWORD PTR options$[rsp], eax

; 1537 :             goto _EmitDone;

	jmp	$LN1137@X86Assembl
	jmp	$_EmitDone$1951
$LN1135@X86Assembl:

; 1538 :           }
; 1539 :         }

	jmp	$LN1133@X86Assembl
$LN1132@X86Assembl:

; 1540 :         else {
; 1541 :           // Non-bound label.
; 1542 :           if (options & kInstOptionShortForm) {

	mov	eax, DWORD PTR options$[rsp]
	and	eax, 1
	test	eax, eax
	je	SHORT $LN1138@X86Assembl
$LN165@X86Assembl:
$LN168@X86Assembl:

; 1543 :             EMIT_OP(opCode);

	mov	eax, DWORD PTR opCode$[rsp]
	and	eax, 255				; 000000ffH
	mov	ecx, 1
	imul	rcx, rcx, 0
	mov	rdx, QWORD PTR cursor$[rsp]
	mov	BYTE PTR [rdx+rcx], al
	mov	rax, QWORD PTR cursor$[rsp]
	inc	rax
	mov	QWORD PTR cursor$[rsp], rax
	xor	eax, eax
	test	eax, eax
	jne	SHORT $LN168@X86Assembl
	xor	eax, eax
	test	eax, eax
	jne	SHORT $LN165@X86Assembl

; 1544 :             dispOffset = -1;

	mov	DWORD PTR dispOffset$[rsp], -1

; 1545 :             dispSize = 1;

	mov	DWORD PTR dispSize$[rsp], 1

; 1546 :             relocId = -1;

	mov	QWORD PTR relocId$[rsp], -1

; 1547 :             goto _EmitDisplacement;

	jmp	$LN1140@X86Assembl
	jmp	$_EmitDisplacement$1957

; 1548 :           }

	jmp	$LN1139@X86Assembl
$LN1138@X86Assembl:
$LN171@X86Assembl:

; 1549 :           else {
; 1550 :             EMIT_BYTE(0x0F);

	mov	eax, 1
	imul	rax, rax, 0
	mov	rcx, QWORD PTR cursor$[rsp]
	mov	BYTE PTR [rcx+rax], 15
	mov	rax, QWORD PTR cursor$[rsp]
	inc	rax
	mov	QWORD PTR cursor$[rsp], rax
	xor	eax, eax
	test	eax, eax
	jne	SHORT $LN171@X86Assembl
$LN174@X86Assembl:
$LN177@X86Assembl:

; 1551 :             EMIT_OP(opCode + 0x10);

	mov	eax, DWORD PTR opCode$[rsp]
	add	eax, 16
	and	eax, 255				; 000000ffH
	mov	ecx, 1
	imul	rcx, rcx, 0
	mov	rdx, QWORD PTR cursor$[rsp]
	mov	BYTE PTR [rdx+rcx], al
	mov	rax, QWORD PTR cursor$[rsp]
	inc	rax
	mov	QWORD PTR cursor$[rsp], rax
	xor	eax, eax
	test	eax, eax
	jne	SHORT $LN177@X86Assembl
	xor	eax, eax
	test	eax, eax
	jne	SHORT $LN174@X86Assembl

; 1552 :             dispOffset = -4;

	mov	DWORD PTR dispOffset$[rsp], -4

; 1553 :             dispSize = 4;

	mov	DWORD PTR dispSize$[rsp], 4

; 1554 :             relocId = -1;

	mov	QWORD PTR relocId$[rsp], -1

; 1555 :             goto _EmitDisplacement;

	jmp	$LN1141@X86Assembl
	jmp	$_EmitDisplacement$1957
$LN1139@X86Assembl:
$LN1133@X86Assembl:
$LN1128@X86Assembl:

; 1556 :           }
; 1557 :         }
; 1558 :       }
; 1559 :       break;

	jmp	$LN5@X86Assembl
$LN1142@X86Assembl:

; 1560 : 
; 1561 :     case kX86InstEncodingIdX86Jecxz:
; 1562 :       if (encoded == ENC_OPS(Reg, Label, None)) {

	cmp	DWORD PTR encoded$[rsp], 41		; 00000029H
	jne	$LN1143@X86Assembl

; 1563 :         ASMJIT_ASSERT(x86OpReg(o0) == kX86RegIndexCx);
; 1564 : 
; 1565 :         if ((Arch == kArchX86 && o0->getSize() == 2) ||

	xor	eax, eax
	test	eax, eax
	jne	SHORT $LN1145@X86Assembl
	xor	eax, eax
	cmp	eax, 1
	je	SHORT $LN1144@X86Assembl
	mov	rcx, QWORD PTR o0$[rsp]
	call	?getSize@Operand@asmjit@@QEBAIXZ	; asmjit::Operand::getSize
	cmp	eax, 4
	jne	SHORT $LN1144@X86Assembl
$LN1145@X86Assembl:
$LN180@X86Assembl:

; 1566 :             (Arch == kArchX64 && o0->getSize() == 4)) {
; 1567 :           EMIT_BYTE(0x67);

	mov	eax, 1
	imul	rax, rax, 0
	mov	rcx, QWORD PTR cursor$[rsp]
	mov	BYTE PTR [rcx+rax], 103			; 00000067H
	mov	rax, QWORD PTR cursor$[rsp]
	inc	rax
	mov	QWORD PTR cursor$[rsp], rax
	xor	eax, eax
	test	eax, eax
	jne	SHORT $LN180@X86Assembl
$LN1144@X86Assembl:
$LN183@X86Assembl:

; 1568 :         }
; 1569 : 
; 1570 :         EMIT_BYTE(0xE3);

	mov	eax, 1
	imul	rax, rax, 0
	mov	rcx, QWORD PTR cursor$[rsp]
	mov	BYTE PTR [rcx+rax], 227			; 000000e3H
	mov	rax, QWORD PTR cursor$[rsp]
	inc	rax
	mov	QWORD PTR cursor$[rsp], rax
	xor	eax, eax
	test	eax, eax
	jne	SHORT $LN183@X86Assembl

; 1571 :         label = self->getLabelData(static_cast<const Label*>(o1)->getId());

	mov	rcx, QWORD PTR o1$[rsp]
	call	?getId@Operand@asmjit@@QEBAIXZ		; asmjit::Operand::getId
	mov	edx, eax
	mov	rcx, QWORD PTR self$[rsp]
	call	?getLabelData@Assembler@asmjit@@QEBAPEAULabelData@2@I@Z ; asmjit::Assembler::getLabelData
	mov	QWORD PTR label$[rsp], rax

; 1572 : 
; 1573 :         if (label->offset != -1) {

	mov	rax, QWORD PTR label$[rsp]
	cmp	QWORD PTR [rax], -1
	je	$LN1146@X86Assembl

; 1574 :           // Bound label.
; 1575 :           intptr_t offs = label->offset - (intptr_t)(cursor - self->_buffer) - 1;

	mov	rax, QWORD PTR self$[rsp]
	mov	rax, QWORD PTR [rax+72]
	mov	rcx, QWORD PTR cursor$[rsp]
	sub	rcx, rax
	mov	rax, rcx
	mov	rcx, QWORD PTR label$[rsp]
	mov	rcx, QWORD PTR [rcx]
	sub	rcx, rax
	mov	rax, rcx
	dec	rax
	mov	QWORD PTR offs$64[rsp], rax

; 1576 :           if (!IntUtil::isInt8(offs))

	mov	rcx, QWORD PTR offs$64[rsp]
	call	??$isInt8@_J@IntUtil@asmjit@@SA_N_J@Z	; asmjit::IntUtil::isInt8<__int64>
	movzx	eax, al
	test	eax, eax
	jne	SHORT $LN1148@X86Assembl

; 1577 :             goto _IllegalInst;

	jmp	$LN1149@X86Assembl
	jmp	$_IllegalInst$1950
$LN1148@X86Assembl:
$LN186@X86Assembl:

; 1578 : 
; 1579 :           EMIT_BYTE(offs);

	mov	eax, 1
	imul	rax, rax, 0
	mov	rcx, QWORD PTR cursor$[rsp]
	movzx	edx, BYTE PTR offs$64[rsp]
	mov	BYTE PTR [rcx+rax], dl
	mov	rax, QWORD PTR cursor$[rsp]
	inc	rax
	mov	QWORD PTR cursor$[rsp], rax
	xor	eax, eax
	test	eax, eax
	jne	SHORT $LN186@X86Assembl

; 1580 :           goto _EmitDone;

	jmp	$LN1150@X86Assembl
	jmp	$_EmitDone$1951

; 1581 :         }

	jmp	SHORT $LN1147@X86Assembl
$LN1146@X86Assembl:

; 1582 :         else {
; 1583 :           // Non-bound label.
; 1584 :           dispOffset = -1;

	mov	DWORD PTR dispOffset$[rsp], -1

; 1585 :           dispSize = 1;

	mov	DWORD PTR dispSize$[rsp], 1

; 1586 :           relocId = -1;

	mov	QWORD PTR relocId$[rsp], -1

; 1587 :           goto _EmitDisplacement;

	jmp	$LN1151@X86Assembl
	jmp	$_EmitDisplacement$1957
$LN1147@X86Assembl:
$LN1143@X86Assembl:

; 1588 :         }
; 1589 :       }
; 1590 :       break;

	jmp	$LN5@X86Assembl
$LN1152@X86Assembl:

; 1591 : 
; 1592 :     case kX86InstEncodingIdX86Jmp:
; 1593 :       if (encoded == ENC_OPS(Reg, None, None)) {

	cmp	DWORD PTR encoded$[rsp], 1
	jne	SHORT $LN1153@X86Assembl

; 1594 :         rmReg = x86OpReg(o0);

	mov	rcx, QWORD PTR o0$[rsp]
	call	?x86OpReg@asmjit@@YAIPEBUOperand@1@@Z	; asmjit::x86OpReg
	mov	eax, eax
	mov	QWORD PTR $S1$[rsp], rax

; 1595 :         goto _EmitX86R;

	jmp	$LN1154@X86Assembl
	jmp	$_EmitX86R$1953
$LN1153@X86Assembl:

; 1596 :       }
; 1597 : 
; 1598 :       if (encoded == ENC_OPS(Mem, None, None)) {

	cmp	DWORD PTR encoded$[rsp], 3
	jne	SHORT $LN1155@X86Assembl

; 1599 :         rmMem = x86OpMem(o0);

	mov	rcx, QWORD PTR o0$[rsp]
	call	?x86OpMem@asmjit@@YAPEBUX86Mem@1@PEBUOperand@1@@Z ; asmjit::x86OpMem
	mov	QWORD PTR $S1$[rsp], rax

; 1600 :         goto _EmitX86M;

	jmp	$LN1156@X86Assembl
	jmp	$_EmitX86M$1954
$LN1155@X86Assembl:

; 1601 :       }
; 1602 : 
; 1603 :       // The following instructions use the secondary opcode (0xE9).
; 1604 :       opCode = 0xE9;

	mov	DWORD PTR opCode$[rsp], 233		; 000000e9H

; 1605 : 
; 1606 :       if (encoded == ENC_OPS(Imm, None, None)) {

	cmp	DWORD PTR encoded$[rsp], 4
	jne	SHORT $LN1157@X86Assembl

; 1607 :         imVal = static_cast<const Imm*>(o0)->getInt64();

	mov	rcx, QWORD PTR o0$[rsp]
	call	?getInt64@Imm@asmjit@@QEBA_JXZ		; asmjit::Imm::getInt64
	mov	QWORD PTR imVal$[rsp], rax

; 1608 :         goto _EmitJmpOrCallAbs;

	jmp	$LN1158@X86Assembl
	jmp	$_EmitJmpOrCallAbs$1956
$LN1157@X86Assembl:

; 1609 :       }
; 1610 : 
; 1611 :       if (encoded == ENC_OPS(Label, None, None)) {

	cmp	DWORD PTR encoded$[rsp], 5
	jne	$LN1159@X86Assembl

; 1612 :         label = self->getLabelData(static_cast<const Label*>(o0)->getId());

	mov	rcx, QWORD PTR o0$[rsp]
	call	?getId@Operand@asmjit@@QEBAIXZ		; asmjit::Operand::getId
	mov	edx, eax
	mov	rcx, QWORD PTR self$[rsp]
	call	?getLabelData@Assembler@asmjit@@QEBAPEAULabelData@2@I@Z ; asmjit::Assembler::getLabelData
	mov	QWORD PTR label$[rsp], rax

; 1613 :         if (label->offset != -1) {

	mov	rax, QWORD PTR label$[rsp]
	cmp	QWORD PTR [rax], -1
	je	$LN1160@X86Assembl

; 1614 :           // Bound label.
; 1615 :           const intptr_t kRel8Size = 2;

	mov	QWORD PTR kRel8Size$67[rsp], 2

; 1616 :           const intptr_t kRel32Size = 5;

	mov	QWORD PTR kRel32Size$68[rsp], 5

; 1617 : 
; 1618 :           intptr_t offs = label->offset - (intptr_t)(cursor - self->_buffer);

	mov	rax, QWORD PTR self$[rsp]
	mov	rax, QWORD PTR [rax+72]
	mov	rcx, QWORD PTR cursor$[rsp]
	sub	rcx, rax
	mov	rax, rcx
	mov	rcx, QWORD PTR label$[rsp]
	mov	rcx, QWORD PTR [rcx]
	sub	rcx, rax
	mov	rax, rcx
	mov	QWORD PTR offs$59[rsp], rax

; 1619 : 
; 1620 :           if ((options & kInstOptionLongForm) == 0 && IntUtil::isInt8(offs - kRel8Size)) {

	mov	eax, DWORD PTR options$[rsp]
	and	eax, 2
	test	eax, eax
	jne	$LN1162@X86Assembl
	mov	rax, QWORD PTR offs$59[rsp]
	sub	rax, 2
	mov	rcx, rax
	call	??$isInt8@_J@IntUtil@asmjit@@SA_N_J@Z	; asmjit::IntUtil::isInt8<__int64>
	movzx	eax, al
	test	eax, eax
	je	SHORT $LN1162@X86Assembl

; 1621 :             options |= kInstOptionShortForm;

	mov	eax, DWORD PTR options$[rsp]
	or	eax, 1
	mov	DWORD PTR options$[rsp], eax
$LN189@X86Assembl:

; 1622 : 
; 1623 :             EMIT_BYTE(0xEB);

	mov	eax, 1
	imul	rax, rax, 0
	mov	rcx, QWORD PTR cursor$[rsp]
	mov	BYTE PTR [rcx+rax], 235			; 000000ebH
	mov	rax, QWORD PTR cursor$[rsp]
	inc	rax
	mov	QWORD PTR cursor$[rsp], rax
	xor	eax, eax
	test	eax, eax
	jne	SHORT $LN189@X86Assembl
$LN192@X86Assembl:

; 1624 :             EMIT_BYTE(offs - kRel8Size);

	mov	rax, QWORD PTR offs$59[rsp]
	sub	rax, 2
	mov	ecx, 1
	imul	rcx, rcx, 0
	mov	rdx, QWORD PTR cursor$[rsp]
	mov	BYTE PTR [rdx+rcx], al
	mov	rax, QWORD PTR cursor$[rsp]
	inc	rax
	mov	QWORD PTR cursor$[rsp], rax
	xor	eax, eax
	test	eax, eax
	jne	SHORT $LN192@X86Assembl

; 1625 :             goto _EmitDone;

	jmp	$LN1164@X86Assembl
	jmp	$_EmitDone$1951

; 1626 :           }

	jmp	SHORT $LN1163@X86Assembl
$LN1162@X86Assembl:

; 1627 :           else {
; 1628 :             options &= ~kInstOptionShortForm;

	mov	eax, DWORD PTR options$[rsp]
	and	eax, -2					; fffffffeH
	mov	DWORD PTR options$[rsp], eax
$LN195@X86Assembl:

; 1629 : 
; 1630 :             EMIT_BYTE(0xE9);

	mov	eax, 1
	imul	rax, rax, 0
	mov	rcx, QWORD PTR cursor$[rsp]
	mov	BYTE PTR [rcx+rax], 233			; 000000e9H
	mov	rax, QWORD PTR cursor$[rsp]
	inc	rax
	mov	QWORD PTR cursor$[rsp], rax
	xor	eax, eax
	test	eax, eax
	jne	SHORT $LN195@X86Assembl
$LN198@X86Assembl:

; 1631 :             EMIT_DWORD(static_cast<int32_t>(offs - kRel32Size));

	mov	rax, QWORD PTR offs$59[rsp]
	sub	rax, 5
	mov	ecx, 4
	imul	rcx, rcx, 0
	mov	rdx, QWORD PTR cursor$[rsp]
	mov	DWORD PTR [rdx+rcx], eax
	mov	rax, QWORD PTR cursor$[rsp]
	add	rax, 4
	mov	QWORD PTR cursor$[rsp], rax
	xor	eax, eax
	test	eax, eax
	jne	SHORT $LN198@X86Assembl

; 1632 :             goto _EmitDone;

	jmp	$LN1165@X86Assembl
	jmp	$_EmitDone$1951
$LN1163@X86Assembl:

; 1633 :           }
; 1634 :         }

	jmp	$LN1161@X86Assembl
$LN1160@X86Assembl:

; 1635 :         else {
; 1636 :           // Non-bound label.
; 1637 :           if ((options & kInstOptionShortForm) != 0) {

	mov	eax, DWORD PTR options$[rsp]
	and	eax, 1
	test	eax, eax
	je	SHORT $LN1166@X86Assembl
$LN201@X86Assembl:

; 1638 :             EMIT_BYTE(0xEB);

	mov	eax, 1
	imul	rax, rax, 0
	mov	rcx, QWORD PTR cursor$[rsp]
	mov	BYTE PTR [rcx+rax], 235			; 000000ebH
	mov	rax, QWORD PTR cursor$[rsp]
	inc	rax
	mov	QWORD PTR cursor$[rsp], rax
	xor	eax, eax
	test	eax, eax
	jne	SHORT $LN201@X86Assembl

; 1639 :             dispOffset = -1;

	mov	DWORD PTR dispOffset$[rsp], -1

; 1640 :             dispSize = 1;

	mov	DWORD PTR dispSize$[rsp], 1

; 1641 :             relocId = -1;

	mov	QWORD PTR relocId$[rsp], -1

; 1642 :             goto _EmitDisplacement;

	jmp	$LN1168@X86Assembl
	jmp	$_EmitDisplacement$1957

; 1643 :           }

	jmp	SHORT $LN1167@X86Assembl
$LN1166@X86Assembl:
$LN204@X86Assembl:

; 1644 :           else {
; 1645 :             EMIT_BYTE(0xE9);

	mov	eax, 1
	imul	rax, rax, 0
	mov	rcx, QWORD PTR cursor$[rsp]
	mov	BYTE PTR [rcx+rax], 233			; 000000e9H
	mov	rax, QWORD PTR cursor$[rsp]
	inc	rax
	mov	QWORD PTR cursor$[rsp], rax
	xor	eax, eax
	test	eax, eax
	jne	SHORT $LN204@X86Assembl

; 1646 :             dispOffset = -4;

	mov	DWORD PTR dispOffset$[rsp], -4

; 1647 :             dispSize = 4;

	mov	DWORD PTR dispSize$[rsp], 4

; 1648 :             relocId = -1;

	mov	QWORD PTR relocId$[rsp], -1

; 1649 :             goto _EmitDisplacement;

	jmp	$LN1169@X86Assembl
	jmp	$_EmitDisplacement$1957
$LN1167@X86Assembl:
$LN1161@X86Assembl:
$LN1159@X86Assembl:

; 1650 :           }
; 1651 :         }
; 1652 :       }
; 1653 :       break;

	jmp	$LN5@X86Assembl
$LN1170@X86Assembl:

; 1654 : 
; 1655 :     case kX86InstEncodingIdX86Lea:
; 1656 :       if (encoded == ENC_OPS(Reg, Mem, None)) {

	cmp	DWORD PTR encoded$[rsp], 25
	jne	SHORT $LN1171@X86Assembl
$LN207@X86Assembl:

; 1657 :         ADD_66H_P_BY_SIZE(o0->getSize());

	mov	rcx, QWORD PTR o0$[rsp]
	call	?getSize@Operand@asmjit@@QEBAIXZ	; asmjit::Operand::getSize
	and	eax, 2
	shl	eax, 19
	mov	ecx, DWORD PTR opCode$[rsp]
	or	ecx, eax
	mov	eax, ecx
	mov	DWORD PTR opCode$[rsp], eax
	xor	eax, eax
	test	eax, eax
	jne	SHORT $LN207@X86Assembl
$LN210@X86Assembl:

; 1658 :         ADD_REX_W_BY_SIZE(o0->getSize());

	xor	eax, eax
	cmp	eax, 1
	je	SHORT $LN1172@X86Assembl
	mov	rcx, QWORD PTR o0$[rsp]
	call	?getSize@Operand@asmjit@@QEBAIXZ	; asmjit::Operand::getSize
	cmp	eax, 8
	jne	SHORT $LN1172@X86Assembl
	mov	eax, DWORD PTR opCode$[rsp]
	bts	eax, 31
	mov	DWORD PTR opCode$[rsp], eax
$LN1172@X86Assembl:
	xor	eax, eax
	test	eax, eax
	jne	SHORT $LN210@X86Assembl

; 1659 : 
; 1660 :         opReg = x86OpReg(o0);

	mov	rcx, QWORD PTR o0$[rsp]
	call	?x86OpReg@asmjit@@YAIPEBUOperand@1@@Z	; asmjit::x86OpReg
	mov	DWORD PTR opReg$[rsp], eax

; 1661 :         rmMem = x86OpMem(o1);

	mov	rcx, QWORD PTR o1$[rsp]
	call	?x86OpMem@asmjit@@YAPEBUX86Mem@1@PEBUOperand@1@@Z ; asmjit::x86OpMem
	mov	QWORD PTR $S1$[rsp], rax

; 1662 :         goto _EmitX86M;

	jmp	$LN1173@X86Assembl
	jmp	$_EmitX86M$1954
$LN1171@X86Assembl:

; 1663 :       }
; 1664 :       break;

	jmp	$LN5@X86Assembl
$LN1174@X86Assembl:

; 1665 : 
; 1666 :     case kX86InstEncodingIdX86Mov:
; 1667 :       if (encoded == ENC_OPS(Reg, Reg, None)) {

	cmp	DWORD PTR encoded$[rsp], 9
	jne	$LN1175@X86Assembl

; 1668 :         opReg = x86OpReg(o0);

	mov	rcx, QWORD PTR o0$[rsp]
	call	?x86OpReg@asmjit@@YAIPEBUOperand@1@@Z	; asmjit::x86OpReg
	mov	DWORD PTR opReg$[rsp], eax

; 1669 :         rmReg = x86OpReg(o1);

	mov	rcx, QWORD PTR o1$[rsp]
	call	?x86OpReg@asmjit@@YAIPEBUOperand@1@@Z	; asmjit::x86OpReg
	mov	eax, eax
	mov	QWORD PTR $S1$[rsp], rax

; 1670 : 
; 1671 :         // Sreg <- Reg
; 1672 :         if (static_cast<const X86Reg*>(o0)->isSeg()) {

	mov	rcx, QWORD PTR o0$[rsp]
	call	?isSeg@X86Reg@asmjit@@QEBA_NXZ		; asmjit::X86Reg::isSeg
	movzx	eax, al
	test	eax, eax
	je	SHORT $LN1176@X86Assembl

; 1673 :           ASMJIT_ASSERT(static_cast<const X86Reg*>(o1)->isGpw() ||
; 1674 :                         static_cast<const X86Reg*>(o1)->isGpd() ||
; 1675 :                         static_cast<const X86Reg*>(o1)->isGpq() );
; 1676 :           opCode = 0x8E;

	mov	DWORD PTR opCode$[rsp], 142		; 0000008eH
$LN213@X86Assembl:

; 1677 :           ADD_66H_P_BY_SIZE(o1->getSize());

	mov	rcx, QWORD PTR o1$[rsp]
	call	?getSize@Operand@asmjit@@QEBAIXZ	; asmjit::Operand::getSize
	and	eax, 2
	shl	eax, 19
	mov	ecx, DWORD PTR opCode$[rsp]
	or	ecx, eax
	mov	eax, ecx
	mov	DWORD PTR opCode$[rsp], eax
	xor	eax, eax
	test	eax, eax
	jne	SHORT $LN213@X86Assembl
$LN216@X86Assembl:

; 1678 :           ADD_REX_W_BY_SIZE(o1->getSize());

	xor	eax, eax
	cmp	eax, 1
	je	SHORT $LN1177@X86Assembl
	mov	rcx, QWORD PTR o1$[rsp]
	call	?getSize@Operand@asmjit@@QEBAIXZ	; asmjit::Operand::getSize
	cmp	eax, 8
	jne	SHORT $LN1177@X86Assembl
	mov	eax, DWORD PTR opCode$[rsp]
	bts	eax, 31
	mov	DWORD PTR opCode$[rsp], eax
$LN1177@X86Assembl:
	xor	eax, eax
	test	eax, eax
	jne	SHORT $LN216@X86Assembl

; 1679 :           goto _EmitX86R;

	jmp	$LN1178@X86Assembl
	jmp	$_EmitX86R$1953
$LN1176@X86Assembl:

; 1680 :         }
; 1681 : 
; 1682 :         // Reg <- Sreg
; 1683 :         if (static_cast<const X86Reg*>(o1)->isSeg()) {

	mov	rcx, QWORD PTR o1$[rsp]
	call	?isSeg@X86Reg@asmjit@@QEBA_NXZ		; asmjit::X86Reg::isSeg
	movzx	eax, al
	test	eax, eax
	je	SHORT $LN1179@X86Assembl

; 1684 :           ASMJIT_ASSERT(static_cast<const X86Reg*>(o0)->isGpw() ||
; 1685 :                         static_cast<const X86Reg*>(o0)->isGpd() ||
; 1686 :                         static_cast<const X86Reg*>(o0)->isGpq() );
; 1687 :           opCode = 0x8C;

	mov	DWORD PTR opCode$[rsp], 140		; 0000008cH
$LN219@X86Assembl:

; 1688 :           ADD_66H_P_BY_SIZE(o0->getSize());

	mov	rcx, QWORD PTR o0$[rsp]
	call	?getSize@Operand@asmjit@@QEBAIXZ	; asmjit::Operand::getSize
	and	eax, 2
	shl	eax, 19
	mov	ecx, DWORD PTR opCode$[rsp]
	or	ecx, eax
	mov	eax, ecx
	mov	DWORD PTR opCode$[rsp], eax
	xor	eax, eax
	test	eax, eax
	jne	SHORT $LN219@X86Assembl
$LN222@X86Assembl:

; 1689 :           ADD_REX_W_BY_SIZE(o0->getSize());

	xor	eax, eax
	cmp	eax, 1
	je	SHORT $LN1181@X86Assembl
	mov	rcx, QWORD PTR o0$[rsp]
	call	?getSize@Operand@asmjit@@QEBAIXZ	; asmjit::Operand::getSize
	cmp	eax, 8
	jne	SHORT $LN1181@X86Assembl
	mov	eax, DWORD PTR opCode$[rsp]
	bts	eax, 31
	mov	DWORD PTR opCode$[rsp], eax
$LN1181@X86Assembl:
	xor	eax, eax
	test	eax, eax
	jne	SHORT $LN222@X86Assembl

; 1690 :           goto _EmitX86R;

	jmp	$LN1182@X86Assembl
	jmp	$_EmitX86R$1953

; 1691 :         }

	jmp	$LN1180@X86Assembl
$LN1179@X86Assembl:

; 1692 :         // Reg <- Reg
; 1693 :         else {
; 1694 :           ASMJIT_ASSERT(static_cast<const X86Reg*>(o0)->isGpb() ||
; 1695 :                         static_cast<const X86Reg*>(o0)->isGpw() ||
; 1696 :                         static_cast<const X86Reg*>(o0)->isGpd() ||
; 1697 :                         static_cast<const X86Reg*>(o0)->isGpq() );
; 1698 :           opCode = 0x8A + (o0->getSize() != 1);

	mov	rcx, QWORD PTR o0$[rsp]
	call	?getSize@Operand@asmjit@@QEBAIXZ	; asmjit::Operand::getSize
	cmp	eax, 1
	je	SHORT $LN1868@X86Assembl
	mov	DWORD PTR tv1163[rsp], 1
	jmp	SHORT $LN1869@X86Assembl
$LN1868@X86Assembl:
	mov	DWORD PTR tv1163[rsp], 0
$LN1869@X86Assembl:
	mov	eax, DWORD PTR tv1163[rsp]
	add	eax, 138				; 0000008aH
	mov	DWORD PTR opCode$[rsp], eax
$LN225@X86Assembl:

; 1699 :           ADD_66H_P_BY_SIZE(o0->getSize());

	mov	rcx, QWORD PTR o0$[rsp]
	call	?getSize@Operand@asmjit@@QEBAIXZ	; asmjit::Operand::getSize
	and	eax, 2
	shl	eax, 19
	mov	ecx, DWORD PTR opCode$[rsp]
	or	ecx, eax
	mov	eax, ecx
	mov	DWORD PTR opCode$[rsp], eax
	xor	eax, eax
	test	eax, eax
	jne	SHORT $LN225@X86Assembl
$LN228@X86Assembl:

; 1700 :           ADD_REX_W_BY_SIZE(o0->getSize());

	xor	eax, eax
	cmp	eax, 1
	je	SHORT $LN1183@X86Assembl
	mov	rcx, QWORD PTR o0$[rsp]
	call	?getSize@Operand@asmjit@@QEBAIXZ	; asmjit::Operand::getSize
	cmp	eax, 8
	jne	SHORT $LN1183@X86Assembl
	mov	eax, DWORD PTR opCode$[rsp]
	bts	eax, 31
	mov	DWORD PTR opCode$[rsp], eax
$LN1183@X86Assembl:
	xor	eax, eax
	test	eax, eax
	jne	SHORT $LN228@X86Assembl

; 1701 :           goto _EmitX86R;

	jmp	$LN1184@X86Assembl
	jmp	$_EmitX86R$1953
$LN1180@X86Assembl:
$LN1175@X86Assembl:

; 1702 :         }
; 1703 :       }
; 1704 : 
; 1705 :       if (encoded == ENC_OPS(Reg, Mem, None)) {

	cmp	DWORD PTR encoded$[rsp], 25
	jne	$LN1185@X86Assembl

; 1706 :         opReg = x86OpReg(o0);

	mov	rcx, QWORD PTR o0$[rsp]
	call	?x86OpReg@asmjit@@YAIPEBUOperand@1@@Z	; asmjit::x86OpReg
	mov	DWORD PTR opReg$[rsp], eax

; 1707 :         rmMem = x86OpMem(o1);

	mov	rcx, QWORD PTR o1$[rsp]
	call	?x86OpMem@asmjit@@YAPEBUX86Mem@1@PEBUOperand@1@@Z ; asmjit::x86OpMem
	mov	QWORD PTR $S1$[rsp], rax

; 1708 : 
; 1709 :         // Sreg <- Mem
; 1710 :         if (static_cast<const X86Reg*>(o0)->isRegType(kX86RegTypeSeg)) {

	mov	edx, 240				; 000000f0H
	mov	rcx, QWORD PTR o0$[rsp]
	call	?isRegType@Reg@asmjit@@QEBA_NI@Z	; asmjit::Reg::isRegType
	movzx	eax, al
	test	eax, eax
	je	SHORT $LN1186@X86Assembl

; 1711 :           opCode = 0x8E;

	mov	DWORD PTR opCode$[rsp], 142		; 0000008eH

; 1712 :           opReg--;

	mov	eax, DWORD PTR opReg$[rsp]
	dec	eax
	mov	DWORD PTR opReg$[rsp], eax
$LN231@X86Assembl:

; 1713 :           ADD_66H_P_BY_SIZE(o1->getSize());

	mov	rcx, QWORD PTR o1$[rsp]
	call	?getSize@Operand@asmjit@@QEBAIXZ	; asmjit::Operand::getSize
	and	eax, 2
	shl	eax, 19
	mov	ecx, DWORD PTR opCode$[rsp]
	or	ecx, eax
	mov	eax, ecx
	mov	DWORD PTR opCode$[rsp], eax
	xor	eax, eax
	test	eax, eax
	jne	SHORT $LN231@X86Assembl
$LN234@X86Assembl:

; 1714 :           ADD_REX_W_BY_SIZE(o1->getSize());

	xor	eax, eax
	cmp	eax, 1
	je	SHORT $LN1188@X86Assembl
	mov	rcx, QWORD PTR o1$[rsp]
	call	?getSize@Operand@asmjit@@QEBAIXZ	; asmjit::Operand::getSize
	cmp	eax, 8
	jne	SHORT $LN1188@X86Assembl
	mov	eax, DWORD PTR opCode$[rsp]
	bts	eax, 31
	mov	DWORD PTR opCode$[rsp], eax
$LN1188@X86Assembl:
	xor	eax, eax
	test	eax, eax
	jne	SHORT $LN234@X86Assembl

; 1715 :           goto _EmitX86M;

	jmp	$LN1189@X86Assembl
	jmp	$_EmitX86M$1954

; 1716 :         }

	jmp	$LN1187@X86Assembl
$LN1186@X86Assembl:

; 1717 :         // Reg <- Mem
; 1718 :         else {
; 1719 :           ASMJIT_ASSERT(static_cast<const X86Reg*>(o0)->isGpb() ||
; 1720 :                         static_cast<const X86Reg*>(o0)->isGpw() ||
; 1721 :                         static_cast<const X86Reg*>(o0)->isGpd() ||
; 1722 :                         static_cast<const X86Reg*>(o0)->isGpq() );
; 1723 :           opCode = 0x8A + (o0->getSize() != 1);

	mov	rcx, QWORD PTR o0$[rsp]
	call	?getSize@Operand@asmjit@@QEBAIXZ	; asmjit::Operand::getSize
	cmp	eax, 1
	je	SHORT $LN1870@X86Assembl
	mov	DWORD PTR tv1211[rsp], 1
	jmp	SHORT $LN1871@X86Assembl
$LN1870@X86Assembl:
	mov	DWORD PTR tv1211[rsp], 0
$LN1871@X86Assembl:
	mov	eax, DWORD PTR tv1211[rsp]
	add	eax, 138				; 0000008aH
	mov	DWORD PTR opCode$[rsp], eax
$LN237@X86Assembl:

; 1724 :           ADD_66H_P_BY_SIZE(o0->getSize());

	mov	rcx, QWORD PTR o0$[rsp]
	call	?getSize@Operand@asmjit@@QEBAIXZ	; asmjit::Operand::getSize
	and	eax, 2
	shl	eax, 19
	mov	ecx, DWORD PTR opCode$[rsp]
	or	ecx, eax
	mov	eax, ecx
	mov	DWORD PTR opCode$[rsp], eax
	xor	eax, eax
	test	eax, eax
	jne	SHORT $LN237@X86Assembl
$LN240@X86Assembl:

; 1725 :           ADD_REX_W_BY_SIZE(o0->getSize());

	xor	eax, eax
	cmp	eax, 1
	je	SHORT $LN1190@X86Assembl
	mov	rcx, QWORD PTR o0$[rsp]
	call	?getSize@Operand@asmjit@@QEBAIXZ	; asmjit::Operand::getSize
	cmp	eax, 8
	jne	SHORT $LN1190@X86Assembl
	mov	eax, DWORD PTR opCode$[rsp]
	bts	eax, 31
	mov	DWORD PTR opCode$[rsp], eax
$LN1190@X86Assembl:
	xor	eax, eax
	test	eax, eax
	jne	SHORT $LN240@X86Assembl

; 1726 :           goto _EmitX86M;

	jmp	$LN1191@X86Assembl
	jmp	$_EmitX86M$1954
$LN1187@X86Assembl:
$LN1185@X86Assembl:

; 1727 :         }
; 1728 :       }
; 1729 : 
; 1730 :       if (encoded == ENC_OPS(Mem, Reg, None)) {

	cmp	DWORD PTR encoded$[rsp], 11
	jne	$LN1192@X86Assembl

; 1731 :         opReg = x86OpReg(o1);

	mov	rcx, QWORD PTR o1$[rsp]
	call	?x86OpReg@asmjit@@YAIPEBUOperand@1@@Z	; asmjit::x86OpReg
	mov	DWORD PTR opReg$[rsp], eax

; 1732 :         rmMem = x86OpMem(o0);

	mov	rcx, QWORD PTR o0$[rsp]
	call	?x86OpMem@asmjit@@YAPEBUX86Mem@1@PEBUOperand@1@@Z ; asmjit::x86OpMem
	mov	QWORD PTR $S1$[rsp], rax

; 1733 : 
; 1734 :         // X86Mem <- Sreg
; 1735 :         if (static_cast<const X86Reg*>(o1)->isSeg()) {

	mov	rcx, QWORD PTR o1$[rsp]
	call	?isSeg@X86Reg@asmjit@@QEBA_NXZ		; asmjit::X86Reg::isSeg
	movzx	eax, al
	test	eax, eax
	je	SHORT $LN1193@X86Assembl

; 1736 :           opCode = 0x8C;

	mov	DWORD PTR opCode$[rsp], 140		; 0000008cH
$LN243@X86Assembl:

; 1737 :           ADD_66H_P_BY_SIZE(o0->getSize());

	mov	rcx, QWORD PTR o0$[rsp]
	call	?getSize@Operand@asmjit@@QEBAIXZ	; asmjit::Operand::getSize
	and	eax, 2
	shl	eax, 19
	mov	ecx, DWORD PTR opCode$[rsp]
	or	ecx, eax
	mov	eax, ecx
	mov	DWORD PTR opCode$[rsp], eax
	xor	eax, eax
	test	eax, eax
	jne	SHORT $LN243@X86Assembl
$LN246@X86Assembl:

; 1738 :           ADD_REX_W_BY_SIZE(o0->getSize());

	xor	eax, eax
	cmp	eax, 1
	je	SHORT $LN1195@X86Assembl
	mov	rcx, QWORD PTR o0$[rsp]
	call	?getSize@Operand@asmjit@@QEBAIXZ	; asmjit::Operand::getSize
	cmp	eax, 8
	jne	SHORT $LN1195@X86Assembl
	mov	eax, DWORD PTR opCode$[rsp]
	bts	eax, 31
	mov	DWORD PTR opCode$[rsp], eax
$LN1195@X86Assembl:
	xor	eax, eax
	test	eax, eax
	jne	SHORT $LN246@X86Assembl

; 1739 :           goto _EmitX86M;

	jmp	$LN1196@X86Assembl
	jmp	$_EmitX86M$1954

; 1740 :         }

	jmp	$LN1194@X86Assembl
$LN1193@X86Assembl:

; 1741 :         // X86Mem <- Reg
; 1742 :         else {
; 1743 :           ASMJIT_ASSERT(static_cast<const X86Reg*>(o1)->isGpb() ||
; 1744 :                         static_cast<const X86Reg*>(o1)->isGpw() ||
; 1745 :                         static_cast<const X86Reg*>(o1)->isGpd() ||
; 1746 :                         static_cast<const X86Reg*>(o1)->isGpq() );
; 1747 :           opCode = 0x88 + (o1->getSize() != 1);

	mov	rcx, QWORD PTR o1$[rsp]
	call	?getSize@Operand@asmjit@@QEBAIXZ	; asmjit::Operand::getSize
	cmp	eax, 1
	je	SHORT $LN1872@X86Assembl
	mov	DWORD PTR tv1253[rsp], 1
	jmp	SHORT $LN1873@X86Assembl
$LN1872@X86Assembl:
	mov	DWORD PTR tv1253[rsp], 0
$LN1873@X86Assembl:
	mov	eax, DWORD PTR tv1253[rsp]
	add	eax, 136				; 00000088H
	mov	DWORD PTR opCode$[rsp], eax
$LN249@X86Assembl:

; 1748 :           ADD_66H_P_BY_SIZE(o1->getSize());

	mov	rcx, QWORD PTR o1$[rsp]
	call	?getSize@Operand@asmjit@@QEBAIXZ	; asmjit::Operand::getSize
	and	eax, 2
	shl	eax, 19
	mov	ecx, DWORD PTR opCode$[rsp]
	or	ecx, eax
	mov	eax, ecx
	mov	DWORD PTR opCode$[rsp], eax
	xor	eax, eax
	test	eax, eax
	jne	SHORT $LN249@X86Assembl
$LN252@X86Assembl:

; 1749 :           ADD_REX_W_BY_SIZE(o1->getSize());

	xor	eax, eax
	cmp	eax, 1
	je	SHORT $LN1197@X86Assembl
	mov	rcx, QWORD PTR o1$[rsp]
	call	?getSize@Operand@asmjit@@QEBAIXZ	; asmjit::Operand::getSize
	cmp	eax, 8
	jne	SHORT $LN1197@X86Assembl
	mov	eax, DWORD PTR opCode$[rsp]
	bts	eax, 31
	mov	DWORD PTR opCode$[rsp], eax
$LN1197@X86Assembl:
	xor	eax, eax
	test	eax, eax
	jne	SHORT $LN252@X86Assembl

; 1750 :           goto _EmitX86M;

	jmp	$LN1198@X86Assembl
	jmp	$_EmitX86M$1954
$LN1194@X86Assembl:
$LN1192@X86Assembl:

; 1751 :         }
; 1752 :       }
; 1753 : 
; 1754 :       if (encoded == ENC_OPS(Reg, Imm, None)) {

	cmp	DWORD PTR encoded$[rsp], 33		; 00000021H
	jne	$LN1199@X86Assembl

; 1755 :         // 64-bit immediate in 64-bit mode is allowed.
; 1756 :         imVal = static_cast<const Imm*>(o1)->getInt64();

	mov	rcx, QWORD PTR o1$[rsp]
	call	?getInt64@Imm@asmjit@@QEBA_JXZ		; asmjit::Imm::getInt64
	mov	QWORD PTR imVal$[rsp], rax

; 1757 :         imLen = o0->getSize();

	mov	rcx, QWORD PTR o0$[rsp]
	call	?getSize@Operand@asmjit@@QEBAIXZ	; asmjit::Operand::getSize
	mov	DWORD PTR imLen$[rsp], eax

; 1758 : 
; 1759 :         opReg = 0;

	mov	DWORD PTR opReg$[rsp], 0

; 1760 :         rmReg = x86OpReg(o0);

	mov	rcx, QWORD PTR o0$[rsp]
	call	?x86OpReg@asmjit@@YAIPEBUOperand@1@@Z	; asmjit::x86OpReg
	mov	eax, eax
	mov	QWORD PTR $S1$[rsp], rax

; 1761 : 
; 1762 :         // Optimize instruction size by using 32-bit immediate if possible.
; 1763 :         if (Arch == kArchX64 && imLen == 8 && IntUtil::isInt32(imVal)) {

	xor	eax, eax
	cmp	eax, 1
	je	SHORT $LN1200@X86Assembl
	cmp	DWORD PTR imLen$[rsp], 8
	jne	SHORT $LN1200@X86Assembl
	mov	rcx, QWORD PTR imVal$[rsp]
	call	??$isInt32@_J@IntUtil@asmjit@@SA_N_J@Z	; asmjit::IntUtil::isInt32<__int64>
	movzx	eax, al
	test	eax, eax
	je	SHORT $LN1200@X86Assembl

; 1764 :           opCode = 0xC7;

	mov	DWORD PTR opCode$[rsp], 199		; 000000c7H
$LN255@X86Assembl:

; 1765 :           ADD_REX_W(1);

	xor	eax, eax
	cmp	eax, 1
	je	SHORT $LN1202@X86Assembl
	mov	eax, DWORD PTR opCode$[rsp]
	bts	eax, 31
	mov	DWORD PTR opCode$[rsp], eax
$LN1202@X86Assembl:
	xor	eax, eax
	test	eax, eax
	jne	SHORT $LN255@X86Assembl

; 1766 :           imLen = 4;

	mov	DWORD PTR imLen$[rsp], 4

; 1767 :           goto _EmitX86R;

	jmp	$LN1203@X86Assembl
	jmp	$_EmitX86R$1953

; 1768 :         }

	jmp	SHORT $LN1201@X86Assembl
$LN1200@X86Assembl:

; 1769 :         else {
; 1770 :           opCode = 0xB0 + (static_cast<uint32_t>(o0->getSize() != 1) << 3);

	mov	rcx, QWORD PTR o0$[rsp]
	call	?getSize@Operand@asmjit@@QEBAIXZ	; asmjit::Operand::getSize
	cmp	eax, 1
	je	SHORT $LN1874@X86Assembl
	mov	DWORD PTR tv1291[rsp], 1
	jmp	SHORT $LN1875@X86Assembl
$LN1874@X86Assembl:
	mov	DWORD PTR tv1291[rsp], 0
$LN1875@X86Assembl:
	mov	eax, DWORD PTR tv1291[rsp]
	lea	eax, DWORD PTR [rax*8+176]
	mov	DWORD PTR opCode$[rsp], eax

; 1771 :           opReg = rmReg;

	mov	eax, DWORD PTR $S1$[rsp]
	mov	DWORD PTR opReg$[rsp], eax
$LN258@X86Assembl:

; 1772 : 
; 1773 :           ADD_REX_W_BY_SIZE(imLen);

	xor	eax, eax
	cmp	eax, 1
	je	SHORT $LN1204@X86Assembl
	cmp	DWORD PTR imLen$[rsp], 8
	jne	SHORT $LN1204@X86Assembl
	mov	eax, DWORD PTR opCode$[rsp]
	bts	eax, 31
	mov	DWORD PTR opCode$[rsp], eax
$LN1204@X86Assembl:
	xor	eax, eax
	test	eax, eax
	jne	SHORT $LN258@X86Assembl

; 1774 :           goto _EmitX86OpWithOpReg;

	jmp	$LN1205@X86Assembl
	jmp	$_EmitX86OpWithOpReg$1955
$LN1201@X86Assembl:
$LN1199@X86Assembl:

; 1775 :         }
; 1776 :       }
; 1777 : 
; 1778 :       if (encoded == ENC_OPS(Mem, Imm, None)) {

	cmp	DWORD PTR encoded$[rsp], 35		; 00000023H
	jne	$LN1206@X86Assembl

; 1779 :         uint32_t memSize = o0->getSize();

	mov	rcx, QWORD PTR o0$[rsp]
	call	?getSize@Operand@asmjit@@QEBAIXZ	; asmjit::Operand::getSize
	mov	DWORD PTR memSize$22[rsp], eax

; 1780 : 
; 1781 :         if (memSize == 0)

	cmp	DWORD PTR memSize$22[rsp], 0
	jne	SHORT $LN1207@X86Assembl

; 1782 :           goto _IllegalInst;

	jmp	$LN1208@X86Assembl
	jmp	$_IllegalInst$1950
$LN1207@X86Assembl:

; 1783 : 
; 1784 :         imVal = static_cast<const Imm*>(o1)->getInt64();

	mov	rcx, QWORD PTR o1$[rsp]
	call	?getInt64@Imm@asmjit@@QEBA_JXZ		; asmjit::Imm::getInt64
	mov	QWORD PTR imVal$[rsp], rax

; 1785 :         imLen = IntUtil::iMin<uint32_t>(memSize, 4);

	mov	DWORD PTR $T57[rsp], 4
	lea	rdx, QWORD PTR $T57[rsp]
	lea	rcx, QWORD PTR memSize$22[rsp]
	call	??$iMin@I@IntUtil@asmjit@@SAIAEBI0@Z	; asmjit::IntUtil::iMin<unsigned int>
	mov	DWORD PTR imLen$[rsp], eax

; 1786 : 
; 1787 :         opCode = 0xC6 + (memSize != 1);

	cmp	DWORD PTR memSize$22[rsp], 1
	je	SHORT $LN1876@X86Assembl
	mov	DWORD PTR tv1312[rsp], 1
	jmp	SHORT $LN1877@X86Assembl
$LN1876@X86Assembl:
	mov	DWORD PTR tv1312[rsp], 0
$LN1877@X86Assembl:
	mov	eax, DWORD PTR tv1312[rsp]
	add	eax, 198				; 000000c6H
	mov	DWORD PTR opCode$[rsp], eax

; 1788 :         opReg = 0;

	mov	DWORD PTR opReg$[rsp], 0
$LN261@X86Assembl:

; 1789 :         ADD_66H_P_BY_SIZE(memSize);

	mov	eax, DWORD PTR memSize$22[rsp]
	and	eax, 2
	shl	eax, 19
	mov	ecx, DWORD PTR opCode$[rsp]
	or	ecx, eax
	mov	eax, ecx
	mov	DWORD PTR opCode$[rsp], eax
	xor	eax, eax
	test	eax, eax
	jne	SHORT $LN261@X86Assembl
$LN264@X86Assembl:

; 1790 :         ADD_REX_W_BY_SIZE(memSize);

	xor	eax, eax
	cmp	eax, 1
	je	SHORT $LN1209@X86Assembl
	cmp	DWORD PTR memSize$22[rsp], 8
	jne	SHORT $LN1209@X86Assembl
	mov	eax, DWORD PTR opCode$[rsp]
	bts	eax, 31
	mov	DWORD PTR opCode$[rsp], eax
$LN1209@X86Assembl:
	xor	eax, eax
	test	eax, eax
	jne	SHORT $LN264@X86Assembl

; 1791 : 
; 1792 :         rmMem = x86OpMem(o0);

	mov	rcx, QWORD PTR o0$[rsp]
	call	?x86OpMem@asmjit@@YAPEBUX86Mem@1@PEBUOperand@1@@Z ; asmjit::x86OpMem
	mov	QWORD PTR $S1$[rsp], rax

; 1793 :         goto _EmitX86M;

	jmp	$LN1210@X86Assembl
	jmp	$_EmitX86M$1954
$LN1206@X86Assembl:

; 1794 :       }
; 1795 :       break;

	jmp	$LN5@X86Assembl
$LN1211@X86Assembl:

; 1796 : 
; 1797 :     case kX86InstEncodingIdX86MovSxZx:
; 1798 :       if (encoded == ENC_OPS(Reg, Reg, None)) {

	cmp	DWORD PTR encoded$[rsp], 9
	jne	$LN1212@X86Assembl

; 1799 :         opCode += o1->getSize() != 1;

	mov	rcx, QWORD PTR o1$[rsp]
	call	?getSize@Operand@asmjit@@QEBAIXZ	; asmjit::Operand::getSize
	cmp	eax, 1
	je	SHORT $LN1878@X86Assembl
	mov	DWORD PTR tv1328[rsp], 1
	jmp	SHORT $LN1879@X86Assembl
$LN1878@X86Assembl:
	mov	DWORD PTR tv1328[rsp], 0
$LN1879@X86Assembl:
	mov	eax, DWORD PTR tv1328[rsp]
	mov	ecx, DWORD PTR opCode$[rsp]
	add	ecx, eax
	mov	eax, ecx
	mov	DWORD PTR opCode$[rsp], eax
$LN267@X86Assembl:

; 1800 :         ADD_66H_P_BY_SIZE(o0->getSize());

	mov	rcx, QWORD PTR o0$[rsp]
	call	?getSize@Operand@asmjit@@QEBAIXZ	; asmjit::Operand::getSize
	and	eax, 2
	shl	eax, 19
	mov	ecx, DWORD PTR opCode$[rsp]
	or	ecx, eax
	mov	eax, ecx
	mov	DWORD PTR opCode$[rsp], eax
	xor	eax, eax
	test	eax, eax
	jne	SHORT $LN267@X86Assembl
$LN270@X86Assembl:

; 1801 :         ADD_REX_W_BY_SIZE(o0->getSize());

	xor	eax, eax
	cmp	eax, 1
	je	SHORT $LN1213@X86Assembl
	mov	rcx, QWORD PTR o0$[rsp]
	call	?getSize@Operand@asmjit@@QEBAIXZ	; asmjit::Operand::getSize
	cmp	eax, 8
	jne	SHORT $LN1213@X86Assembl
	mov	eax, DWORD PTR opCode$[rsp]
	bts	eax, 31
	mov	DWORD PTR opCode$[rsp], eax
$LN1213@X86Assembl:
	xor	eax, eax
	test	eax, eax
	jne	SHORT $LN270@X86Assembl

; 1802 : 
; 1803 :         opReg = x86OpReg(o0);

	mov	rcx, QWORD PTR o0$[rsp]
	call	?x86OpReg@asmjit@@YAIPEBUOperand@1@@Z	; asmjit::x86OpReg
	mov	DWORD PTR opReg$[rsp], eax

; 1804 :         rmReg = x86OpReg(o1);

	mov	rcx, QWORD PTR o1$[rsp]
	call	?x86OpReg@asmjit@@YAIPEBUOperand@1@@Z	; asmjit::x86OpReg
	mov	eax, eax
	mov	QWORD PTR $S1$[rsp], rax

; 1805 :         goto _EmitX86R;

	jmp	$LN1214@X86Assembl
	jmp	$_EmitX86R$1953
$LN1212@X86Assembl:

; 1806 :       }
; 1807 : 
; 1808 :       if (encoded == ENC_OPS(Reg, Mem, None)) {

	cmp	DWORD PTR encoded$[rsp], 25
	jne	$LN1215@X86Assembl

; 1809 :         opCode += o1->getSize() != 1;

	mov	rcx, QWORD PTR o1$[rsp]
	call	?getSize@Operand@asmjit@@QEBAIXZ	; asmjit::Operand::getSize
	cmp	eax, 1
	je	SHORT $LN1880@X86Assembl
	mov	DWORD PTR tv1351[rsp], 1
	jmp	SHORT $LN1881@X86Assembl
$LN1880@X86Assembl:
	mov	DWORD PTR tv1351[rsp], 0
$LN1881@X86Assembl:
	mov	eax, DWORD PTR tv1351[rsp]
	mov	ecx, DWORD PTR opCode$[rsp]
	add	ecx, eax
	mov	eax, ecx
	mov	DWORD PTR opCode$[rsp], eax
$LN273@X86Assembl:

; 1810 :         ADD_66H_P_BY_SIZE(o0->getSize());

	mov	rcx, QWORD PTR o0$[rsp]
	call	?getSize@Operand@asmjit@@QEBAIXZ	; asmjit::Operand::getSize
	and	eax, 2
	shl	eax, 19
	mov	ecx, DWORD PTR opCode$[rsp]
	or	ecx, eax
	mov	eax, ecx
	mov	DWORD PTR opCode$[rsp], eax
	xor	eax, eax
	test	eax, eax
	jne	SHORT $LN273@X86Assembl
$LN276@X86Assembl:

; 1811 :         ADD_REX_W_BY_SIZE(o0->getSize());

	xor	eax, eax
	cmp	eax, 1
	je	SHORT $LN1216@X86Assembl
	mov	rcx, QWORD PTR o0$[rsp]
	call	?getSize@Operand@asmjit@@QEBAIXZ	; asmjit::Operand::getSize
	cmp	eax, 8
	jne	SHORT $LN1216@X86Assembl
	mov	eax, DWORD PTR opCode$[rsp]
	bts	eax, 31
	mov	DWORD PTR opCode$[rsp], eax
$LN1216@X86Assembl:
	xor	eax, eax
	test	eax, eax
	jne	SHORT $LN276@X86Assembl

; 1812 : 
; 1813 :         opReg = x86OpReg(o0);

	mov	rcx, QWORD PTR o0$[rsp]
	call	?x86OpReg@asmjit@@YAIPEBUOperand@1@@Z	; asmjit::x86OpReg
	mov	DWORD PTR opReg$[rsp], eax

; 1814 :         rmMem = x86OpMem(o1);

	mov	rcx, QWORD PTR o1$[rsp]
	call	?x86OpMem@asmjit@@YAPEBUX86Mem@1@PEBUOperand@1@@Z ; asmjit::x86OpMem
	mov	QWORD PTR $S1$[rsp], rax

; 1815 :         goto _EmitX86M;

	jmp	$LN1217@X86Assembl
	jmp	$_EmitX86M$1954
$LN1215@X86Assembl:

; 1816 :       }
; 1817 :       break;

	jmp	$LN5@X86Assembl
$LN1218@X86Assembl:

; 1818 : 
; 1819 :     case kX86InstEncodingIdX86MovSxd:
; 1820 :       if (encoded == ENC_OPS(Reg, Reg, None)) {

	cmp	DWORD PTR encoded$[rsp], 9
	jne	SHORT $LN1219@X86Assembl
$LN279@X86Assembl:

; 1821 :         ADD_REX_W(true);

	xor	eax, eax
	cmp	eax, 1
	je	SHORT $LN1220@X86Assembl
	mov	eax, DWORD PTR opCode$[rsp]
	bts	eax, 31
	mov	DWORD PTR opCode$[rsp], eax
$LN1220@X86Assembl:
	xor	eax, eax
	test	eax, eax
	jne	SHORT $LN279@X86Assembl

; 1822 : 
; 1823 :         opReg = x86OpReg(o0);

	mov	rcx, QWORD PTR o0$[rsp]
	call	?x86OpReg@asmjit@@YAIPEBUOperand@1@@Z	; asmjit::x86OpReg
	mov	DWORD PTR opReg$[rsp], eax

; 1824 :         rmReg = x86OpReg(o1);

	mov	rcx, QWORD PTR o1$[rsp]
	call	?x86OpReg@asmjit@@YAIPEBUOperand@1@@Z	; asmjit::x86OpReg
	mov	eax, eax
	mov	QWORD PTR $S1$[rsp], rax

; 1825 :         goto _EmitX86R;

	jmp	$LN1221@X86Assembl
	jmp	$_EmitX86R$1953
$LN1219@X86Assembl:

; 1826 :       }
; 1827 : 
; 1828 :       if (encoded == ENC_OPS(Reg, Mem, None)) {

	cmp	DWORD PTR encoded$[rsp], 25
	jne	SHORT $LN1222@X86Assembl
$LN282@X86Assembl:

; 1829 :         ADD_REX_W(true);

	xor	eax, eax
	cmp	eax, 1
	je	SHORT $LN1223@X86Assembl
	mov	eax, DWORD PTR opCode$[rsp]
	bts	eax, 31
	mov	DWORD PTR opCode$[rsp], eax
$LN1223@X86Assembl:
	xor	eax, eax
	test	eax, eax
	jne	SHORT $LN282@X86Assembl

; 1830 : 
; 1831 :         opReg = x86OpReg(o0);

	mov	rcx, QWORD PTR o0$[rsp]
	call	?x86OpReg@asmjit@@YAIPEBUOperand@1@@Z	; asmjit::x86OpReg
	mov	DWORD PTR opReg$[rsp], eax

; 1832 :         rmMem = x86OpMem(o1);

	mov	rcx, QWORD PTR o1$[rsp]
	call	?x86OpMem@asmjit@@YAPEBUX86Mem@1@PEBUOperand@1@@Z ; asmjit::x86OpMem
	mov	QWORD PTR $S1$[rsp], rax

; 1833 :         goto _EmitX86M;

	jmp	$LN1224@X86Assembl
	jmp	$_EmitX86M$1954
$LN1222@X86Assembl:

; 1834 :       }
; 1835 :       break;

	jmp	$LN5@X86Assembl
$LN1225@X86Assembl:

; 1836 : 
; 1837 :     case kX86InstEncodingIdX86MovPtr:
; 1838 :       if (encoded == ENC_OPS(Reg, Imm, None)) {

	cmp	DWORD PTR encoded$[rsp], 33		; 00000021H
	jne	$LN1226@X86Assembl

; 1839 :         ASMJIT_ASSERT(x86OpReg(o0) == 0);
; 1840 : 
; 1841 :         opCode += o0->getSize() != 1;

	mov	rcx, QWORD PTR o0$[rsp]
	call	?getSize@Operand@asmjit@@QEBAIXZ	; asmjit::Operand::getSize
	cmp	eax, 1
	je	SHORT $LN1882@X86Assembl
	mov	DWORD PTR tv1390[rsp], 1
	jmp	SHORT $LN1883@X86Assembl
$LN1882@X86Assembl:
	mov	DWORD PTR tv1390[rsp], 0
$LN1883@X86Assembl:
	mov	eax, DWORD PTR tv1390[rsp]
	mov	ecx, DWORD PTR opCode$[rsp]
	add	ecx, eax
	mov	eax, ecx
	mov	DWORD PTR opCode$[rsp], eax
$LN285@X86Assembl:

; 1842 :         ADD_66H_P_BY_SIZE(o0->getSize());

	mov	rcx, QWORD PTR o0$[rsp]
	call	?getSize@Operand@asmjit@@QEBAIXZ	; asmjit::Operand::getSize
	and	eax, 2
	shl	eax, 19
	mov	ecx, DWORD PTR opCode$[rsp]
	or	ecx, eax
	mov	eax, ecx
	mov	DWORD PTR opCode$[rsp], eax
	xor	eax, eax
	test	eax, eax
	jne	SHORT $LN285@X86Assembl
$LN288@X86Assembl:

; 1843 :         ADD_REX_W_BY_SIZE(o0->getSize());

	xor	eax, eax
	cmp	eax, 1
	je	SHORT $LN1227@X86Assembl
	mov	rcx, QWORD PTR o0$[rsp]
	call	?getSize@Operand@asmjit@@QEBAIXZ	; asmjit::Operand::getSize
	cmp	eax, 8
	jne	SHORT $LN1227@X86Assembl
	mov	eax, DWORD PTR opCode$[rsp]
	bts	eax, 31
	mov	DWORD PTR opCode$[rsp], eax
$LN1227@X86Assembl:
	xor	eax, eax
	test	eax, eax
	jne	SHORT $LN288@X86Assembl

; 1844 : 
; 1845 :         imVal = static_cast<const Imm*>(o1)->getInt64();

	mov	rcx, QWORD PTR o1$[rsp]
	call	?getInt64@Imm@asmjit@@QEBA_JXZ		; asmjit::Imm::getInt64
	mov	QWORD PTR imVal$[rsp], rax

; 1846 :         imLen = self->_regSize;

	mov	rax, QWORD PTR self$[rsp]
	movzx	eax, BYTE PTR [rax+41]
	mov	DWORD PTR imLen$[rsp], eax

; 1847 :         goto _EmitX86Op;

	jmp	$LN1228@X86Assembl
	jmp	$_EmitX86Op$1952
$LN1226@X86Assembl:

; 1848 :       }
; 1849 : 
; 1850 :       // The following instruction uses the secondary opcode.
; 1851 :       opCode = extendedInfo.getSecondaryOpCode();

	mov	rcx, QWORD PTR extendedInfo$[rsp]
	call	?getSecondaryOpCode@X86InstExtendedInfo@asmjit@@QEBAIXZ ; asmjit::X86InstExtendedInfo::getSecondaryOpCode
	mov	DWORD PTR opCode$[rsp], eax

; 1852 : 
; 1853 :       if (encoded == ENC_OPS(Imm, Reg, None)) {

	cmp	DWORD PTR encoded$[rsp], 12
	jne	$LN1229@X86Assembl

; 1854 :         ASMJIT_ASSERT(x86OpReg(o1) == 0);
; 1855 : 
; 1856 :         opCode += o1->getSize() != 1;

	mov	rcx, QWORD PTR o1$[rsp]
	call	?getSize@Operand@asmjit@@QEBAIXZ	; asmjit::Operand::getSize
	cmp	eax, 1
	je	SHORT $LN1884@X86Assembl
	mov	DWORD PTR tv1422[rsp], 1
	jmp	SHORT $LN1885@X86Assembl
$LN1884@X86Assembl:
	mov	DWORD PTR tv1422[rsp], 0
$LN1885@X86Assembl:
	mov	eax, DWORD PTR tv1422[rsp]
	mov	ecx, DWORD PTR opCode$[rsp]
	add	ecx, eax
	mov	eax, ecx
	mov	DWORD PTR opCode$[rsp], eax
$LN291@X86Assembl:

; 1857 :         ADD_66H_P_BY_SIZE(o1->getSize());

	mov	rcx, QWORD PTR o1$[rsp]
	call	?getSize@Operand@asmjit@@QEBAIXZ	; asmjit::Operand::getSize
	and	eax, 2
	shl	eax, 19
	mov	ecx, DWORD PTR opCode$[rsp]
	or	ecx, eax
	mov	eax, ecx
	mov	DWORD PTR opCode$[rsp], eax
	xor	eax, eax
	test	eax, eax
	jne	SHORT $LN291@X86Assembl
$LN294@X86Assembl:

; 1858 :         ADD_REX_W_BY_SIZE(o1->getSize());

	xor	eax, eax
	cmp	eax, 1
	je	SHORT $LN1230@X86Assembl
	mov	rcx, QWORD PTR o1$[rsp]
	call	?getSize@Operand@asmjit@@QEBAIXZ	; asmjit::Operand::getSize
	cmp	eax, 8
	jne	SHORT $LN1230@X86Assembl
	mov	eax, DWORD PTR opCode$[rsp]
	bts	eax, 31
	mov	DWORD PTR opCode$[rsp], eax
$LN1230@X86Assembl:
	xor	eax, eax
	test	eax, eax
	jne	SHORT $LN294@X86Assembl

; 1859 : 
; 1860 :         imVal = static_cast<const Imm*>(o0)->getInt64();

	mov	rcx, QWORD PTR o0$[rsp]
	call	?getInt64@Imm@asmjit@@QEBA_JXZ		; asmjit::Imm::getInt64
	mov	QWORD PTR imVal$[rsp], rax

; 1861 :         imLen = self->_regSize;

	mov	rax, QWORD PTR self$[rsp]
	movzx	eax, BYTE PTR [rax+41]
	mov	DWORD PTR imLen$[rsp], eax

; 1862 :         goto _EmitX86Op;

	jmp	$LN1231@X86Assembl
	jmp	$_EmitX86Op$1952
$LN1229@X86Assembl:

; 1863 :       }
; 1864 :       break;

	jmp	$LN5@X86Assembl
$LN1232@X86Assembl:

; 1865 : 
; 1866 :     case kX86InstEncodingIdX86Push:
; 1867 :       if (encoded == ENC_OPS(Reg, None, None)) {

	cmp	DWORD PTR encoded$[rsp], 1
	jne	$LN1233@X86Assembl

; 1868 :         if (o0->isRegType(kX86RegTypeSeg)) {

	mov	edx, 240				; 000000f0H
	mov	rcx, QWORD PTR o0$[rsp]
	call	?isRegType@Operand@asmjit@@QEBA_NI@Z	; asmjit::Operand::isRegType
	movzx	eax, al
	test	eax, eax
	je	$LN1234@X86Assembl

; 1869 :           uint32_t segment = x86OpReg(o0);

	mov	rcx, QWORD PTR o0$[rsp]
	call	?x86OpReg@asmjit@@YAIPEBUOperand@1@@Z	; asmjit::x86OpReg
	mov	DWORD PTR segment$26[rsp], eax

; 1870 :           ASMJIT_ASSERT(segment < kX86SegCount);
; 1871 : 
; 1872 :           if (segment >= kX86SegFs)

	cmp	DWORD PTR segment$26[rsp], 5
	jb	SHORT $LN1236@X86Assembl
$LN297@X86Assembl:

; 1873 :             EMIT_BYTE(0x0F);

	mov	eax, 1
	imul	rax, rax, 0
	mov	rcx, QWORD PTR cursor$[rsp]
	mov	BYTE PTR [rcx+rax], 15
	mov	rax, QWORD PTR cursor$[rsp]
	inc	rax
	mov	QWORD PTR cursor$[rsp], rax
	xor	eax, eax
	test	eax, eax
	jne	SHORT $LN297@X86Assembl
$LN1236@X86Assembl:
$LN300@X86Assembl:

; 1874 : 
; 1875 :           EMIT_BYTE(x86OpCodePushSeg[segment]);

	mov	eax, DWORD PTR segment$26[rsp]
	lea	rcx, OFFSET FLAT:?x86OpCodePushSeg@asmjit@@3QBEB
	mov	edx, 1
	imul	rdx, rdx, 0
	mov	r8, QWORD PTR cursor$[rsp]
	movzx	eax, BYTE PTR [rcx+rax]
	mov	BYTE PTR [r8+rdx], al
	mov	rax, QWORD PTR cursor$[rsp]
	inc	rax
	mov	QWORD PTR cursor$[rsp], rax
	xor	eax, eax
	test	eax, eax
	jne	SHORT $LN300@X86Assembl

; 1876 :           goto _EmitDone;

	jmp	$LN1237@X86Assembl
	jmp	$_EmitDone$1951

; 1877 :         }

	jmp	SHORT $LN1235@X86Assembl
$LN1234@X86Assembl:

; 1878 :         else {
; 1879 :           goto _GroupPop_Gp;

	jmp	$LN1238@X86Assembl
	jmp	$_GroupPop_Gp$1958
$LN1235@X86Assembl:
$LN1233@X86Assembl:

; 1880 :         }
; 1881 :       }
; 1882 : 
; 1883 :       if (encoded == ENC_OPS(Imm, None, None)) {

	cmp	DWORD PTR encoded$[rsp], 4
	jne	$LN1239@X86Assembl

; 1884 :         imVal = static_cast<const Imm*>(o0)->getInt64();

	mov	rcx, QWORD PTR o0$[rsp]
	call	?getInt64@Imm@asmjit@@QEBA_JXZ		; asmjit::Imm::getInt64
	mov	QWORD PTR imVal$[rsp], rax

; 1885 :         imLen = IntUtil::isInt8(imVal) ? 1 : 4;

	mov	rcx, QWORD PTR imVal$[rsp]
	call	??$isInt8@_J@IntUtil@asmjit@@SA_N_J@Z	; asmjit::IntUtil::isInt8<__int64>
	movzx	eax, al
	test	eax, eax
	je	SHORT $LN1886@X86Assembl
	mov	DWORD PTR tv1479[rsp], 1
	jmp	SHORT $LN1887@X86Assembl
$LN1886@X86Assembl:
	mov	DWORD PTR tv1479[rsp], 4
$LN1887@X86Assembl:
	mov	eax, DWORD PTR tv1479[rsp]
	mov	DWORD PTR imLen$[rsp], eax
$LN303@X86Assembl:

; 1886 : 
; 1887 :         EMIT_BYTE(imLen == 1 ? 0x6A : 0x68);

	cmp	DWORD PTR imLen$[rsp], 1
	jne	SHORT $LN1888@X86Assembl
	mov	DWORD PTR tv1483[rsp], 106		; 0000006aH
	jmp	SHORT $LN1889@X86Assembl
$LN1888@X86Assembl:
	mov	DWORD PTR tv1483[rsp], 104		; 00000068H
$LN1889@X86Assembl:
	mov	eax, 1
	imul	rax, rax, 0
	mov	rcx, QWORD PTR cursor$[rsp]
	movzx	edx, BYTE PTR tv1483[rsp]
	mov	BYTE PTR [rcx+rax], dl
	mov	rax, QWORD PTR cursor$[rsp]
	inc	rax
	mov	QWORD PTR cursor$[rsp], rax
	xor	eax, eax
	test	eax, eax
	jne	SHORT $LN303@X86Assembl

; 1888 :         goto _EmitImm;

	jmp	$LN1240@X86Assembl
	jmp	$_EmitImm$1959
$LN1239@X86Assembl:
$LN1241@X86Assembl:

; 1889 :       }
; 1890 :       // ... Fall through ...
; 1891 : 
; 1892 :     case kX86InstEncodingIdX86Pop:
; 1893 :       if (encoded == ENC_OPS(Reg, None, None)) {

	cmp	DWORD PTR encoded$[rsp], 1
	jne	$LN1242@X86Assembl

; 1894 :         if (o0->isRegType(kX86RegTypeSeg)) {

	mov	edx, 240				; 000000f0H
	mov	rcx, QWORD PTR o0$[rsp]
	call	?isRegType@Operand@asmjit@@QEBA_NI@Z	; asmjit::Operand::isRegType
	movzx	eax, al
	test	eax, eax
	je	$LN1243@X86Assembl

; 1895 :           uint32_t segment = x86OpReg(o0);

	mov	rcx, QWORD PTR o0$[rsp]
	call	?x86OpReg@asmjit@@YAIPEBUOperand@1@@Z	; asmjit::x86OpReg
	mov	DWORD PTR segment$27[rsp], eax

; 1896 :           ASMJIT_ASSERT(segment < kX86SegCount);
; 1897 : 
; 1898 :           if (segment >= kX86SegFs)

	cmp	DWORD PTR segment$27[rsp], 5
	jb	SHORT $LN1245@X86Assembl
$LN306@X86Assembl:

; 1899 :             EMIT_BYTE(0x0F);

	mov	eax, 1
	imul	rax, rax, 0
	mov	rcx, QWORD PTR cursor$[rsp]
	mov	BYTE PTR [rcx+rax], 15
	mov	rax, QWORD PTR cursor$[rsp]
	inc	rax
	mov	QWORD PTR cursor$[rsp], rax
	xor	eax, eax
	test	eax, eax
	jne	SHORT $LN306@X86Assembl
$LN1245@X86Assembl:
$LN309@X86Assembl:

; 1900 : 
; 1901 :           EMIT_BYTE(x86OpCodePopSeg[segment]);

	mov	eax, DWORD PTR segment$27[rsp]
	lea	rcx, OFFSET FLAT:?x86OpCodePopSeg@asmjit@@3QBEB
	mov	edx, 1
	imul	rdx, rdx, 0
	mov	r8, QWORD PTR cursor$[rsp]
	movzx	eax, BYTE PTR [rcx+rax]
	mov	BYTE PTR [r8+rdx], al
	mov	rax, QWORD PTR cursor$[rsp]
	inc	rax
	mov	QWORD PTR cursor$[rsp], rax
	xor	eax, eax
	test	eax, eax
	jne	SHORT $LN309@X86Assembl

; 1902 :           goto _EmitDone;

	jmp	$LN1246@X86Assembl
	jmp	$_EmitDone$1951

; 1903 :         }

	jmp	SHORT $LN1244@X86Assembl
$LN1243@X86Assembl:
$LN1238@X86Assembl:
$_GroupPop_Gp$1958:

; 1904 :         else {
; 1905 : _GroupPop_Gp:
; 1906 :           ASMJIT_ASSERT(static_cast<const X86Reg*>(o0)->getSize() == 2 ||
; 1907 :                         static_cast<const X86Reg*>(o0)->getSize() == self->_regSize);
; 1908 : 
; 1909 :           opCode = extendedInfo.getSecondaryOpCode();

	mov	rcx, QWORD PTR extendedInfo$[rsp]
	call	?getSecondaryOpCode@X86InstExtendedInfo@asmjit@@QEBAIXZ ; asmjit::X86InstExtendedInfo::getSecondaryOpCode
	mov	DWORD PTR opCode$[rsp], eax

; 1910 :           opReg = x86OpReg(o0);

	mov	rcx, QWORD PTR o0$[rsp]
	call	?x86OpReg@asmjit@@YAIPEBUOperand@1@@Z	; asmjit::x86OpReg
	mov	DWORD PTR opReg$[rsp], eax
$LN312@X86Assembl:

; 1911 : 
; 1912 :           ADD_66H_P_BY_SIZE(o0->getSize());

	mov	rcx, QWORD PTR o0$[rsp]
	call	?getSize@Operand@asmjit@@QEBAIXZ	; asmjit::Operand::getSize
	and	eax, 2
	shl	eax, 19
	mov	ecx, DWORD PTR opCode$[rsp]
	or	ecx, eax
	mov	eax, ecx
	mov	DWORD PTR opCode$[rsp], eax
	xor	eax, eax
	test	eax, eax
	jne	SHORT $LN312@X86Assembl

; 1913 :           goto _EmitX86OpWithOpReg;

	jmp	$LN1247@X86Assembl
	jmp	$_EmitX86OpWithOpReg$1955
$LN1244@X86Assembl:
$LN1242@X86Assembl:

; 1914 :         }
; 1915 :       }
; 1916 : 
; 1917 :       if (encoded == ENC_OPS(Mem, None, None)) {

	cmp	DWORD PTR encoded$[rsp], 3
	jne	SHORT $LN1248@X86Assembl
$LN315@X86Assembl:

; 1918 :         ADD_66H_P_BY_SIZE(o0->getSize());

	mov	rcx, QWORD PTR o0$[rsp]
	call	?getSize@Operand@asmjit@@QEBAIXZ	; asmjit::Operand::getSize
	and	eax, 2
	shl	eax, 19
	mov	ecx, DWORD PTR opCode$[rsp]
	or	ecx, eax
	mov	eax, ecx
	mov	DWORD PTR opCode$[rsp], eax
	xor	eax, eax
	test	eax, eax
	jne	SHORT $LN315@X86Assembl

; 1919 : 
; 1920 :         rmMem = x86OpMem(o0);

	mov	rcx, QWORD PTR o0$[rsp]
	call	?x86OpMem@asmjit@@YAPEBUX86Mem@1@PEBUOperand@1@@Z ; asmjit::x86OpMem
	mov	QWORD PTR $S1$[rsp], rax

; 1921 :         goto _EmitX86M;

	jmp	$LN1249@X86Assembl
	jmp	$_EmitX86M$1954
$LN1248@X86Assembl:

; 1922 :       }
; 1923 :       break;

	jmp	$LN5@X86Assembl
$LN1250@X86Assembl:
$LN318@X86Assembl:

; 1924 : 
; 1925 :     case kX86InstEncodingIdX86Rep:
; 1926 :       // Emit REP 0xF2 or 0xF3 prefix first.
; 1927 :       EMIT_BYTE(0xF2 + opReg);

	mov	eax, DWORD PTR opReg$[rsp]
	add	eax, 242				; 000000f2H
	mov	ecx, 1
	imul	rcx, rcx, 0
	mov	rdx, QWORD PTR cursor$[rsp]
	mov	BYTE PTR [rdx+rcx], al
	mov	rax, QWORD PTR cursor$[rsp]
	inc	rax
	mov	QWORD PTR cursor$[rsp], rax
	xor	eax, eax
	test	eax, eax
	jne	SHORT $LN318@X86Assembl

; 1928 :       goto _EmitX86Op;

	jmp	$LN1251@X86Assembl
	jmp	$_EmitX86Op$1952
$LN1252@X86Assembl:

; 1929 : 
; 1930 :     case kX86InstEncodingIdX86Ret:
; 1931 :       if (encoded == ENC_OPS(None, None, None)) {

	cmp	DWORD PTR encoded$[rsp], 0
	jne	SHORT $LN1253@X86Assembl
$LN321@X86Assembl:

; 1932 :         EMIT_BYTE(0xC3);

	mov	eax, 1
	imul	rax, rax, 0
	mov	rcx, QWORD PTR cursor$[rsp]
	mov	BYTE PTR [rcx+rax], 195			; 000000c3H
	mov	rax, QWORD PTR cursor$[rsp]
	inc	rax
	mov	QWORD PTR cursor$[rsp], rax
	xor	eax, eax
	test	eax, eax
	jne	SHORT $LN321@X86Assembl

; 1933 :         goto _EmitDone;

	jmp	$LN1254@X86Assembl
	jmp	$_EmitDone$1951
$LN1253@X86Assembl:

; 1934 :       }
; 1935 : 
; 1936 :       if (encoded == ENC_OPS(Imm, None, None)) {

	cmp	DWORD PTR encoded$[rsp], 4
	jne	$LN1255@X86Assembl

; 1937 :         imVal = static_cast<const Imm*>(o0)->getInt64();

	mov	rcx, QWORD PTR o0$[rsp]
	call	?getInt64@Imm@asmjit@@QEBA_JXZ		; asmjit::Imm::getInt64
	mov	QWORD PTR imVal$[rsp], rax

; 1938 :         if (imVal == 0) {

	cmp	QWORD PTR imVal$[rsp], 0
	jne	SHORT $LN1256@X86Assembl
$LN324@X86Assembl:

; 1939 :           EMIT_BYTE(0xC3);

	mov	eax, 1
	imul	rax, rax, 0
	mov	rcx, QWORD PTR cursor$[rsp]
	mov	BYTE PTR [rcx+rax], 195			; 000000c3H
	mov	rax, QWORD PTR cursor$[rsp]
	inc	rax
	mov	QWORD PTR cursor$[rsp], rax
	xor	eax, eax
	test	eax, eax
	jne	SHORT $LN324@X86Assembl

; 1940 :           goto _EmitDone;

	jmp	$LN1258@X86Assembl
	jmp	$_EmitDone$1951

; 1941 :         }

	jmp	SHORT $LN1257@X86Assembl
$LN1256@X86Assembl:
$LN327@X86Assembl:

; 1942 :         else {
; 1943 :           EMIT_BYTE(0xC2);

	mov	eax, 1
	imul	rax, rax, 0
	mov	rcx, QWORD PTR cursor$[rsp]
	mov	BYTE PTR [rcx+rax], 194			; 000000c2H
	mov	rax, QWORD PTR cursor$[rsp]
	inc	rax
	mov	QWORD PTR cursor$[rsp], rax
	xor	eax, eax
	test	eax, eax
	jne	SHORT $LN327@X86Assembl

; 1944 :           imLen = 2;

	mov	DWORD PTR imLen$[rsp], 2

; 1945 :           goto _EmitImm;

	jmp	$LN1259@X86Assembl
	jmp	$_EmitImm$1959
$LN1257@X86Assembl:
$LN1255@X86Assembl:

; 1946 :         }
; 1947 :       }
; 1948 :       break;

	jmp	$LN5@X86Assembl
$LN1260@X86Assembl:

; 1949 : 
; 1950 :     case kX86InstEncodingIdX86Rot:
; 1951 :       opCode += o0->getSize() != 1;

	mov	rcx, QWORD PTR o0$[rsp]
	call	?getSize@Operand@asmjit@@QEBAIXZ	; asmjit::Operand::getSize
	cmp	eax, 1
	je	SHORT $LN1890@X86Assembl
	mov	DWORD PTR tv1556[rsp], 1
	jmp	SHORT $LN1891@X86Assembl
$LN1890@X86Assembl:
	mov	DWORD PTR tv1556[rsp], 0
$LN1891@X86Assembl:
	mov	eax, DWORD PTR tv1556[rsp]
	mov	ecx, DWORD PTR opCode$[rsp]
	add	ecx, eax
	mov	eax, ecx
	mov	DWORD PTR opCode$[rsp], eax
$LN330@X86Assembl:

; 1952 :       ADD_66H_P_BY_SIZE(o0->getSize());

	mov	rcx, QWORD PTR o0$[rsp]
	call	?getSize@Operand@asmjit@@QEBAIXZ	; asmjit::Operand::getSize
	and	eax, 2
	shl	eax, 19
	mov	ecx, DWORD PTR opCode$[rsp]
	or	ecx, eax
	mov	eax, ecx
	mov	DWORD PTR opCode$[rsp], eax
	xor	eax, eax
	test	eax, eax
	jne	SHORT $LN330@X86Assembl
$LN333@X86Assembl:

; 1953 :       ADD_REX_W_BY_SIZE(o0->getSize());

	xor	eax, eax
	cmp	eax, 1
	je	SHORT $LN1261@X86Assembl
	mov	rcx, QWORD PTR o0$[rsp]
	call	?getSize@Operand@asmjit@@QEBAIXZ	; asmjit::Operand::getSize
	cmp	eax, 8
	jne	SHORT $LN1261@X86Assembl
	mov	eax, DWORD PTR opCode$[rsp]
	bts	eax, 31
	mov	DWORD PTR opCode$[rsp], eax
$LN1261@X86Assembl:
	xor	eax, eax
	test	eax, eax
	jne	SHORT $LN333@X86Assembl

; 1954 : 
; 1955 :       if (encoded == ENC_OPS(Reg, Reg, None)) {

	cmp	DWORD PTR encoded$[rsp], 9
	jne	SHORT $LN1262@X86Assembl

; 1956 :         ASMJIT_ASSERT(static_cast<const X86Reg*>(o1)->isRegCode(kX86RegTypeGpbLo, kX86RegIndexCx));
; 1957 :         opCode += 2;

	mov	eax, DWORD PTR opCode$[rsp]
	add	eax, 2
	mov	DWORD PTR opCode$[rsp], eax

; 1958 :         rmReg = x86OpReg(o0);

	mov	rcx, QWORD PTR o0$[rsp]
	call	?x86OpReg@asmjit@@YAIPEBUOperand@1@@Z	; asmjit::x86OpReg
	mov	eax, eax
	mov	QWORD PTR $S1$[rsp], rax

; 1959 :         goto _EmitX86R;

	jmp	$LN1263@X86Assembl
	jmp	$_EmitX86R$1953
$LN1262@X86Assembl:

; 1960 :       }
; 1961 : 
; 1962 :       if (encoded == ENC_OPS(Mem, Reg, None)) {

	cmp	DWORD PTR encoded$[rsp], 11
	jne	SHORT $LN1264@X86Assembl

; 1963 :         ASMJIT_ASSERT(static_cast<const X86Reg*>(o1)->isRegCode(kX86RegTypeGpbLo, kX86RegIndexCx));
; 1964 :         opCode += 2;

	mov	eax, DWORD PTR opCode$[rsp]
	add	eax, 2
	mov	DWORD PTR opCode$[rsp], eax

; 1965 :         rmMem = x86OpMem(o0);

	mov	rcx, QWORD PTR o0$[rsp]
	call	?x86OpMem@asmjit@@YAPEBUX86Mem@1@PEBUOperand@1@@Z ; asmjit::x86OpMem
	mov	QWORD PTR $S1$[rsp], rax

; 1966 :         goto _EmitX86M;

	jmp	$LN1265@X86Assembl
	jmp	$_EmitX86M$1954
$LN1264@X86Assembl:

; 1967 :       }
; 1968 : 
; 1969 :       if (encoded == ENC_OPS(Reg, Imm, None)) {

	cmp	DWORD PTR encoded$[rsp], 33		; 00000021H
	jne	SHORT $LN1266@X86Assembl

; 1970 :         imVal = static_cast<const Imm*>(o1)->getInt64() & 0xFF;

	mov	rcx, QWORD PTR o1$[rsp]
	call	?getInt64@Imm@asmjit@@QEBA_JXZ		; asmjit::Imm::getInt64
	and	rax, 255				; 000000ffH
	mov	QWORD PTR imVal$[rsp], rax

; 1971 :         imLen = imVal != 1;

	cmp	QWORD PTR imVal$[rsp], 1
	je	SHORT $LN1892@X86Assembl
	mov	DWORD PTR tv1588[rsp], 1
	jmp	SHORT $LN1893@X86Assembl
$LN1892@X86Assembl:
	mov	DWORD PTR tv1588[rsp], 0
$LN1893@X86Assembl:
	mov	eax, DWORD PTR tv1588[rsp]
	mov	DWORD PTR imLen$[rsp], eax

; 1972 :         if (imLen)

	cmp	DWORD PTR imLen$[rsp], 0
	je	SHORT $LN1267@X86Assembl

; 1973 :           opCode -= 0x10;

	mov	eax, DWORD PTR opCode$[rsp]
	sub	eax, 16
	mov	DWORD PTR opCode$[rsp], eax
$LN1267@X86Assembl:

; 1974 :         rmReg = x86OpReg(o0);

	mov	rcx, QWORD PTR o0$[rsp]
	call	?x86OpReg@asmjit@@YAIPEBUOperand@1@@Z	; asmjit::x86OpReg
	mov	eax, eax
	mov	QWORD PTR $S1$[rsp], rax

; 1975 :         goto _EmitX86R;

	jmp	$LN1268@X86Assembl
	jmp	$_EmitX86R$1953
$LN1266@X86Assembl:

; 1976 :       }
; 1977 : 
; 1978 :       if (encoded == ENC_OPS(Mem, Imm, None)) {

	cmp	DWORD PTR encoded$[rsp], 35		; 00000023H
	jne	$LN1269@X86Assembl

; 1979 :         if (o0->getSize() == 0)

	mov	rcx, QWORD PTR o0$[rsp]
	call	?getSize@Operand@asmjit@@QEBAIXZ	; asmjit::Operand::getSize
	test	eax, eax
	jne	SHORT $LN1270@X86Assembl

; 1980 :           goto _IllegalInst;

	jmp	$LN1271@X86Assembl
	jmp	$_IllegalInst$1950
$LN1270@X86Assembl:

; 1981 : 
; 1982 :         imVal = static_cast<const Imm*>(o1)->getInt64() & 0xFF;

	mov	rcx, QWORD PTR o1$[rsp]
	call	?getInt64@Imm@asmjit@@QEBA_JXZ		; asmjit::Imm::getInt64
	and	rax, 255				; 000000ffH
	mov	QWORD PTR imVal$[rsp], rax

; 1983 :         imLen = imVal != 1;

	cmp	QWORD PTR imVal$[rsp], 1
	je	SHORT $LN1894@X86Assembl
	mov	DWORD PTR tv1606[rsp], 1
	jmp	SHORT $LN1895@X86Assembl
$LN1894@X86Assembl:
	mov	DWORD PTR tv1606[rsp], 0
$LN1895@X86Assembl:
	mov	eax, DWORD PTR tv1606[rsp]
	mov	DWORD PTR imLen$[rsp], eax

; 1984 :         if (imLen)

	cmp	DWORD PTR imLen$[rsp], 0
	je	SHORT $LN1272@X86Assembl

; 1985 :           opCode -= 0x10;

	mov	eax, DWORD PTR opCode$[rsp]
	sub	eax, 16
	mov	DWORD PTR opCode$[rsp], eax
$LN1272@X86Assembl:

; 1986 :         rmMem = x86OpMem(o0);

	mov	rcx, QWORD PTR o0$[rsp]
	call	?x86OpMem@asmjit@@YAPEBUX86Mem@1@PEBUOperand@1@@Z ; asmjit::x86OpMem
	mov	QWORD PTR $S1$[rsp], rax

; 1987 :         goto _EmitX86M;

	jmp	$LN1273@X86Assembl
	jmp	$_EmitX86M$1954
$LN1269@X86Assembl:

; 1988 :       }
; 1989 :       break;

	jmp	$LN5@X86Assembl
$LN1274@X86Assembl:

; 1990 : 
; 1991 :     case kX86InstEncodingIdX86Set:
; 1992 :       if (encoded == ENC_OPS(Reg, None, None)) {

	cmp	DWORD PTR encoded$[rsp], 1
	jne	SHORT $LN1275@X86Assembl

; 1993 :         ASMJIT_ASSERT(o0->getSize() == 1);
; 1994 : 
; 1995 :         rmReg = x86OpReg(o0);

	mov	rcx, QWORD PTR o0$[rsp]
	call	?x86OpReg@asmjit@@YAIPEBUOperand@1@@Z	; asmjit::x86OpReg
	mov	eax, eax
	mov	QWORD PTR $S1$[rsp], rax

; 1996 :         goto _EmitX86R;

	jmp	$LN1276@X86Assembl
	jmp	$_EmitX86R$1953
$LN1275@X86Assembl:

; 1997 :       }
; 1998 : 
; 1999 :       if (encoded == ENC_OPS(Mem, None, None)) {

	cmp	DWORD PTR encoded$[rsp], 3
	jne	SHORT $LN1277@X86Assembl

; 2000 :         ASMJIT_ASSERT(o0->getSize() <= 1);
; 2001 : 
; 2002 :         rmMem = x86OpMem(o0);

	mov	rcx, QWORD PTR o0$[rsp]
	call	?x86OpMem@asmjit@@YAPEBUX86Mem@1@PEBUOperand@1@@Z ; asmjit::x86OpMem
	mov	QWORD PTR $S1$[rsp], rax

; 2003 :         goto _EmitX86M;

	jmp	$LN1278@X86Assembl
	jmp	$_EmitX86M$1954
$LN1277@X86Assembl:

; 2004 :       }
; 2005 :       break;

	jmp	$LN5@X86Assembl
$LN1279@X86Assembl:

; 2006 : 
; 2007 :     case kX86InstEncodingIdX86Shlrd:
; 2008 :       if (encoded == ENC_OPS(Reg, Reg, Imm)) {

	cmp	DWORD PTR encoded$[rsp], 265		; 00000109H
	jne	$LN1280@X86Assembl
$LN336@X86Assembl:

; 2009 :         ASMJIT_ASSERT(o0->getSize() == o1->getSize());
; 2010 : 
; 2011 :         ADD_66H_P_BY_SIZE(o0->getSize());

	mov	rcx, QWORD PTR o0$[rsp]
	call	?getSize@Operand@asmjit@@QEBAIXZ	; asmjit::Operand::getSize
	and	eax, 2
	shl	eax, 19
	mov	ecx, DWORD PTR opCode$[rsp]
	or	ecx, eax
	mov	eax, ecx
	mov	DWORD PTR opCode$[rsp], eax
	xor	eax, eax
	test	eax, eax
	jne	SHORT $LN336@X86Assembl
$LN339@X86Assembl:

; 2012 :         ADD_REX_W_BY_SIZE(o0->getSize());

	xor	eax, eax
	cmp	eax, 1
	je	SHORT $LN1281@X86Assembl
	mov	rcx, QWORD PTR o0$[rsp]
	call	?getSize@Operand@asmjit@@QEBAIXZ	; asmjit::Operand::getSize
	cmp	eax, 8
	jne	SHORT $LN1281@X86Assembl
	mov	eax, DWORD PTR opCode$[rsp]
	bts	eax, 31
	mov	DWORD PTR opCode$[rsp], eax
$LN1281@X86Assembl:
	xor	eax, eax
	test	eax, eax
	jne	SHORT $LN339@X86Assembl

; 2013 : 
; 2014 :         imVal = static_cast<const Imm*>(o2)->getInt64();

	mov	rcx, QWORD PTR o2$[rsp]
	call	?getInt64@Imm@asmjit@@QEBA_JXZ		; asmjit::Imm::getInt64
	mov	QWORD PTR imVal$[rsp], rax

; 2015 :         imLen = 1;

	mov	DWORD PTR imLen$[rsp], 1

; 2016 : 
; 2017 :         opReg = x86OpReg(o1);

	mov	rcx, QWORD PTR o1$[rsp]
	call	?x86OpReg@asmjit@@YAIPEBUOperand@1@@Z	; asmjit::x86OpReg
	mov	DWORD PTR opReg$[rsp], eax

; 2018 :         rmReg = x86OpReg(o0);

	mov	rcx, QWORD PTR o0$[rsp]
	call	?x86OpReg@asmjit@@YAIPEBUOperand@1@@Z	; asmjit::x86OpReg
	mov	eax, eax
	mov	QWORD PTR $S1$[rsp], rax

; 2019 :         goto _EmitX86R;

	jmp	$LN1282@X86Assembl
	jmp	$_EmitX86R$1953
$LN1280@X86Assembl:

; 2020 :       }
; 2021 : 
; 2022 :       if (encoded == ENC_OPS(Mem, Reg, Imm)) {

	cmp	DWORD PTR encoded$[rsp], 267		; 0000010bH
	jne	$LN1283@X86Assembl
$LN342@X86Assembl:

; 2023 :         ADD_66H_P_BY_SIZE(o1->getSize());

	mov	rcx, QWORD PTR o1$[rsp]
	call	?getSize@Operand@asmjit@@QEBAIXZ	; asmjit::Operand::getSize
	and	eax, 2
	shl	eax, 19
	mov	ecx, DWORD PTR opCode$[rsp]
	or	ecx, eax
	mov	eax, ecx
	mov	DWORD PTR opCode$[rsp], eax
	xor	eax, eax
	test	eax, eax
	jne	SHORT $LN342@X86Assembl
$LN345@X86Assembl:

; 2024 :         ADD_REX_W_BY_SIZE(o1->getSize());

	xor	eax, eax
	cmp	eax, 1
	je	SHORT $LN1284@X86Assembl
	mov	rcx, QWORD PTR o1$[rsp]
	call	?getSize@Operand@asmjit@@QEBAIXZ	; asmjit::Operand::getSize
	cmp	eax, 8
	jne	SHORT $LN1284@X86Assembl
	mov	eax, DWORD PTR opCode$[rsp]
	bts	eax, 31
	mov	DWORD PTR opCode$[rsp], eax
$LN1284@X86Assembl:
	xor	eax, eax
	test	eax, eax
	jne	SHORT $LN345@X86Assembl

; 2025 : 
; 2026 :         imVal = static_cast<const Imm*>(o2)->getInt64();

	mov	rcx, QWORD PTR o2$[rsp]
	call	?getInt64@Imm@asmjit@@QEBA_JXZ		; asmjit::Imm::getInt64
	mov	QWORD PTR imVal$[rsp], rax

; 2027 :         imLen = 1;

	mov	DWORD PTR imLen$[rsp], 1

; 2028 : 
; 2029 :         opReg = x86OpReg(o1);

	mov	rcx, QWORD PTR o1$[rsp]
	call	?x86OpReg@asmjit@@YAIPEBUOperand@1@@Z	; asmjit::x86OpReg
	mov	DWORD PTR opReg$[rsp], eax

; 2030 :         rmMem = x86OpMem(o0);

	mov	rcx, QWORD PTR o0$[rsp]
	call	?x86OpMem@asmjit@@YAPEBUX86Mem@1@PEBUOperand@1@@Z ; asmjit::x86OpMem
	mov	QWORD PTR $S1$[rsp], rax

; 2031 :         goto _EmitX86M;

	jmp	$LN1285@X86Assembl
	jmp	$_EmitX86M$1954
$LN1283@X86Assembl:

; 2032 :       }
; 2033 : 
; 2034 :       // The following instructions use opCode + 1.
; 2035 :       opCode++;

	mov	eax, DWORD PTR opCode$[rsp]
	inc	eax
	mov	DWORD PTR opCode$[rsp], eax

; 2036 : 
; 2037 :       if (encoded == ENC_OPS(Reg, Reg, Reg)) {

	cmp	DWORD PTR encoded$[rsp], 73		; 00000049H
	jne	SHORT $LN1286@X86Assembl
$LN348@X86Assembl:

; 2038 :         ASMJIT_ASSERT(static_cast<const X86Reg*>(o2)->isRegCode(kX86RegTypeGpbLo, kX86RegIndexCx));
; 2039 :         ASMJIT_ASSERT(o0->getSize() == o1->getSize());
; 2040 : 
; 2041 :         ADD_66H_P_BY_SIZE(o0->getSize());

	mov	rcx, QWORD PTR o0$[rsp]
	call	?getSize@Operand@asmjit@@QEBAIXZ	; asmjit::Operand::getSize
	and	eax, 2
	shl	eax, 19
	mov	ecx, DWORD PTR opCode$[rsp]
	or	ecx, eax
	mov	eax, ecx
	mov	DWORD PTR opCode$[rsp], eax
	xor	eax, eax
	test	eax, eax
	jne	SHORT $LN348@X86Assembl
$LN351@X86Assembl:

; 2042 :         ADD_REX_W_BY_SIZE(o0->getSize());

	xor	eax, eax
	cmp	eax, 1
	je	SHORT $LN1287@X86Assembl
	mov	rcx, QWORD PTR o0$[rsp]
	call	?getSize@Operand@asmjit@@QEBAIXZ	; asmjit::Operand::getSize
	cmp	eax, 8
	jne	SHORT $LN1287@X86Assembl
	mov	eax, DWORD PTR opCode$[rsp]
	bts	eax, 31
	mov	DWORD PTR opCode$[rsp], eax
$LN1287@X86Assembl:
	xor	eax, eax
	test	eax, eax
	jne	SHORT $LN351@X86Assembl

; 2043 : 
; 2044 :         opReg = x86OpReg(o1);

	mov	rcx, QWORD PTR o1$[rsp]
	call	?x86OpReg@asmjit@@YAIPEBUOperand@1@@Z	; asmjit::x86OpReg
	mov	DWORD PTR opReg$[rsp], eax

; 2045 :         rmReg = x86OpReg(o0);

	mov	rcx, QWORD PTR o0$[rsp]
	call	?x86OpReg@asmjit@@YAIPEBUOperand@1@@Z	; asmjit::x86OpReg
	mov	eax, eax
	mov	QWORD PTR $S1$[rsp], rax

; 2046 :         goto _EmitX86R;

	jmp	$LN1288@X86Assembl
	jmp	$_EmitX86R$1953
$LN1286@X86Assembl:

; 2047 :       }
; 2048 : 
; 2049 :       if (encoded == ENC_OPS(Mem, Reg, Reg)) {

	cmp	DWORD PTR encoded$[rsp], 75		; 0000004bH
	jne	SHORT $LN1289@X86Assembl
$LN354@X86Assembl:

; 2050 :         ASMJIT_ASSERT(static_cast<const X86Reg*>(o2)->isRegCode(kX86RegTypeGpbLo, kX86RegIndexCx));
; 2051 : 
; 2052 :         ADD_66H_P_BY_SIZE(o1->getSize());

	mov	rcx, QWORD PTR o1$[rsp]
	call	?getSize@Operand@asmjit@@QEBAIXZ	; asmjit::Operand::getSize
	and	eax, 2
	shl	eax, 19
	mov	ecx, DWORD PTR opCode$[rsp]
	or	ecx, eax
	mov	eax, ecx
	mov	DWORD PTR opCode$[rsp], eax
	xor	eax, eax
	test	eax, eax
	jne	SHORT $LN354@X86Assembl
$LN357@X86Assembl:

; 2053 :         ADD_REX_W_BY_SIZE(o1->getSize());

	xor	eax, eax
	cmp	eax, 1
	je	SHORT $LN1290@X86Assembl
	mov	rcx, QWORD PTR o1$[rsp]
	call	?getSize@Operand@asmjit@@QEBAIXZ	; asmjit::Operand::getSize
	cmp	eax, 8
	jne	SHORT $LN1290@X86Assembl
	mov	eax, DWORD PTR opCode$[rsp]
	bts	eax, 31
	mov	DWORD PTR opCode$[rsp], eax
$LN1290@X86Assembl:
	xor	eax, eax
	test	eax, eax
	jne	SHORT $LN357@X86Assembl

; 2054 : 
; 2055 :         opReg = x86OpReg(o1);

	mov	rcx, QWORD PTR o1$[rsp]
	call	?x86OpReg@asmjit@@YAIPEBUOperand@1@@Z	; asmjit::x86OpReg
	mov	DWORD PTR opReg$[rsp], eax

; 2056 :         rmMem = x86OpMem(o0);

	mov	rcx, QWORD PTR o0$[rsp]
	call	?x86OpMem@asmjit@@YAPEBUX86Mem@1@PEBUOperand@1@@Z ; asmjit::x86OpMem
	mov	QWORD PTR $S1$[rsp], rax

; 2057 :         goto _EmitX86M;

	jmp	$LN1291@X86Assembl
	jmp	$_EmitX86M$1954
$LN1289@X86Assembl:

; 2058 :       }
; 2059 :       break;

	jmp	$LN5@X86Assembl
$LN1292@X86Assembl:

; 2060 : 
; 2061 :     case kX86InstEncodingIdX86Test:
; 2062 :       if (encoded == ENC_OPS(Reg, Reg, None)) {

	cmp	DWORD PTR encoded$[rsp], 9
	jne	$LN1293@X86Assembl

; 2063 :         ASMJIT_ASSERT(o0->getSize() == o1->getSize());
; 2064 : 
; 2065 :         opCode += o0->getSize() != 1;

	mov	rcx, QWORD PTR o0$[rsp]
	call	?getSize@Operand@asmjit@@QEBAIXZ	; asmjit::Operand::getSize
	cmp	eax, 1
	je	SHORT $LN1896@X86Assembl
	mov	DWORD PTR tv1705[rsp], 1
	jmp	SHORT $LN1897@X86Assembl
$LN1896@X86Assembl:
	mov	DWORD PTR tv1705[rsp], 0
$LN1897@X86Assembl:
	mov	eax, DWORD PTR tv1705[rsp]
	mov	ecx, DWORD PTR opCode$[rsp]
	add	ecx, eax
	mov	eax, ecx
	mov	DWORD PTR opCode$[rsp], eax
$LN360@X86Assembl:

; 2066 :         ADD_66H_P_BY_SIZE(o0->getSize());

	mov	rcx, QWORD PTR o0$[rsp]
	call	?getSize@Operand@asmjit@@QEBAIXZ	; asmjit::Operand::getSize
	and	eax, 2
	shl	eax, 19
	mov	ecx, DWORD PTR opCode$[rsp]
	or	ecx, eax
	mov	eax, ecx
	mov	DWORD PTR opCode$[rsp], eax
	xor	eax, eax
	test	eax, eax
	jne	SHORT $LN360@X86Assembl
$LN363@X86Assembl:

; 2067 :         ADD_REX_W_BY_SIZE(o0->getSize());

	xor	eax, eax
	cmp	eax, 1
	je	SHORT $LN1294@X86Assembl
	mov	rcx, QWORD PTR o0$[rsp]
	call	?getSize@Operand@asmjit@@QEBAIXZ	; asmjit::Operand::getSize
	cmp	eax, 8
	jne	SHORT $LN1294@X86Assembl
	mov	eax, DWORD PTR opCode$[rsp]
	bts	eax, 31
	mov	DWORD PTR opCode$[rsp], eax
$LN1294@X86Assembl:
	xor	eax, eax
	test	eax, eax
	jne	SHORT $LN363@X86Assembl

; 2068 : 
; 2069 :         opReg = x86OpReg(o1);

	mov	rcx, QWORD PTR o1$[rsp]
	call	?x86OpReg@asmjit@@YAIPEBUOperand@1@@Z	; asmjit::x86OpReg
	mov	DWORD PTR opReg$[rsp], eax

; 2070 :         rmReg = x86OpReg(o0);

	mov	rcx, QWORD PTR o0$[rsp]
	call	?x86OpReg@asmjit@@YAIPEBUOperand@1@@Z	; asmjit::x86OpReg
	mov	eax, eax
	mov	QWORD PTR $S1$[rsp], rax

; 2071 :         goto _EmitX86R;

	jmp	$LN1295@X86Assembl
	jmp	$_EmitX86R$1953
$LN1293@X86Assembl:

; 2072 :       }
; 2073 : 
; 2074 :       if (encoded == ENC_OPS(Mem, Reg, None)) {

	cmp	DWORD PTR encoded$[rsp], 11
	jne	$LN1296@X86Assembl

; 2075 :         opCode += o1->getSize() != 1;

	mov	rcx, QWORD PTR o1$[rsp]
	call	?getSize@Operand@asmjit@@QEBAIXZ	; asmjit::Operand::getSize
	cmp	eax, 1
	je	SHORT $LN1898@X86Assembl
	mov	DWORD PTR tv1728[rsp], 1
	jmp	SHORT $LN1899@X86Assembl
$LN1898@X86Assembl:
	mov	DWORD PTR tv1728[rsp], 0
$LN1899@X86Assembl:
	mov	eax, DWORD PTR tv1728[rsp]
	mov	ecx, DWORD PTR opCode$[rsp]
	add	ecx, eax
	mov	eax, ecx
	mov	DWORD PTR opCode$[rsp], eax
$LN366@X86Assembl:

; 2076 :         ADD_66H_P_BY_SIZE(o1->getSize());

	mov	rcx, QWORD PTR o1$[rsp]
	call	?getSize@Operand@asmjit@@QEBAIXZ	; asmjit::Operand::getSize
	and	eax, 2
	shl	eax, 19
	mov	ecx, DWORD PTR opCode$[rsp]
	or	ecx, eax
	mov	eax, ecx
	mov	DWORD PTR opCode$[rsp], eax
	xor	eax, eax
	test	eax, eax
	jne	SHORT $LN366@X86Assembl
$LN369@X86Assembl:

; 2077 :         ADD_REX_W_BY_SIZE(o1->getSize());

	xor	eax, eax
	cmp	eax, 1
	je	SHORT $LN1297@X86Assembl
	mov	rcx, QWORD PTR o1$[rsp]
	call	?getSize@Operand@asmjit@@QEBAIXZ	; asmjit::Operand::getSize
	cmp	eax, 8
	jne	SHORT $LN1297@X86Assembl
	mov	eax, DWORD PTR opCode$[rsp]
	bts	eax, 31
	mov	DWORD PTR opCode$[rsp], eax
$LN1297@X86Assembl:
	xor	eax, eax
	test	eax, eax
	jne	SHORT $LN369@X86Assembl

; 2078 : 
; 2079 :         opReg = x86OpReg(o1);

	mov	rcx, QWORD PTR o1$[rsp]
	call	?x86OpReg@asmjit@@YAIPEBUOperand@1@@Z	; asmjit::x86OpReg
	mov	DWORD PTR opReg$[rsp], eax

; 2080 :         rmMem = x86OpMem(o0);

	mov	rcx, QWORD PTR o0$[rsp]
	call	?x86OpMem@asmjit@@YAPEBUX86Mem@1@PEBUOperand@1@@Z ; asmjit::x86OpMem
	mov	QWORD PTR $S1$[rsp], rax

; 2081 :         goto _EmitX86M;

	jmp	$LN1298@X86Assembl
	jmp	$_EmitX86M$1954
$LN1296@X86Assembl:

; 2082 :       }
; 2083 : 
; 2084 :       // The following instructions use the secondary opcode.
; 2085 :       opCode = extendedInfo.getSecondaryOpCode() + (o0->getSize() != 1);

	mov	rcx, QWORD PTR o0$[rsp]
	call	?getSize@Operand@asmjit@@QEBAIXZ	; asmjit::Operand::getSize
	cmp	eax, 1
	je	SHORT $LN1900@X86Assembl
	mov	DWORD PTR tv1751[rsp], 1
	jmp	SHORT $LN1901@X86Assembl
$LN1900@X86Assembl:
	mov	DWORD PTR tv1751[rsp], 0
$LN1901@X86Assembl:
	mov	rcx, QWORD PTR extendedInfo$[rsp]
	call	?getSecondaryOpCode@X86InstExtendedInfo@asmjit@@QEBAIXZ ; asmjit::X86InstExtendedInfo::getSecondaryOpCode
	add	eax, DWORD PTR tv1751[rsp]
	mov	DWORD PTR opCode$[rsp], eax

; 2086 :       opReg = x86ExtractO(opCode);

	mov	ecx, DWORD PTR opCode$[rsp]
	call	?x86ExtractO@asmjit@@YAII@Z		; asmjit::x86ExtractO
	mov	DWORD PTR opReg$[rsp], eax

; 2087 : 
; 2088 :       if (encoded == ENC_OPS(Reg, Imm, None)) {

	cmp	DWORD PTR encoded$[rsp], 33		; 00000021H
	jne	$LN1299@X86Assembl

; 2089 :         imVal = static_cast<const Imm*>(o1)->getInt64();

	mov	rcx, QWORD PTR o1$[rsp]
	call	?getInt64@Imm@asmjit@@QEBA_JXZ		; asmjit::Imm::getInt64
	mov	QWORD PTR imVal$[rsp], rax

; 2090 :         imLen = IntUtil::iMin<uint32_t>(o0->getSize(), 4);

	mov	DWORD PTR $T43[rsp], 4
	mov	rcx, QWORD PTR o0$[rsp]
	call	?getSize@Operand@asmjit@@QEBAIXZ	; asmjit::Operand::getSize
	mov	DWORD PTR $T44[rsp], eax
	lea	rdx, QWORD PTR $T43[rsp]
	lea	rcx, QWORD PTR $T44[rsp]
	call	??$iMin@I@IntUtil@asmjit@@SAIAEBI0@Z	; asmjit::IntUtil::iMin<unsigned int>
	mov	DWORD PTR imLen$[rsp], eax
$LN372@X86Assembl:

; 2091 : 
; 2092 :         ADD_66H_P_BY_SIZE(o0->getSize());

	mov	rcx, QWORD PTR o0$[rsp]
	call	?getSize@Operand@asmjit@@QEBAIXZ	; asmjit::Operand::getSize
	and	eax, 2
	shl	eax, 19
	mov	ecx, DWORD PTR opCode$[rsp]
	or	ecx, eax
	mov	eax, ecx
	mov	DWORD PTR opCode$[rsp], eax
	xor	eax, eax
	test	eax, eax
	jne	SHORT $LN372@X86Assembl
$LN375@X86Assembl:

; 2093 :         ADD_REX_W_BY_SIZE(o0->getSize());

	xor	eax, eax
	cmp	eax, 1
	je	SHORT $LN1300@X86Assembl
	mov	rcx, QWORD PTR o0$[rsp]
	call	?getSize@Operand@asmjit@@QEBAIXZ	; asmjit::Operand::getSize
	cmp	eax, 8
	jne	SHORT $LN1300@X86Assembl
	mov	eax, DWORD PTR opCode$[rsp]
	bts	eax, 31
	mov	DWORD PTR opCode$[rsp], eax
$LN1300@X86Assembl:
	xor	eax, eax
	test	eax, eax
	jne	SHORT $LN375@X86Assembl

; 2094 : 
; 2095 :         // Alternate Form - AL, AX, EAX, RAX.
; 2096 :         if (x86OpReg(o0) == 0) {

	mov	rcx, QWORD PTR o0$[rsp]
	call	?x86OpReg@asmjit@@YAIPEBUOperand@1@@Z	; asmjit::x86OpReg
	test	eax, eax
	jne	SHORT $LN1301@X86Assembl

; 2097 :           opCode &= kX86InstOpCode_PP_66 | kX86InstOpCode_W;

	mov	eax, DWORD PTR opCode$[rsp]
	and	eax, -2146435072			; 80100000H
	mov	DWORD PTR opCode$[rsp], eax

; 2098 :           opCode |= 0xA8 + (o0->getSize() != 1);

	mov	rcx, QWORD PTR o0$[rsp]
	call	?getSize@Operand@asmjit@@QEBAIXZ	; asmjit::Operand::getSize
	cmp	eax, 1
	je	SHORT $LN1902@X86Assembl
	mov	DWORD PTR tv1786[rsp], 1
	jmp	SHORT $LN1903@X86Assembl
$LN1902@X86Assembl:
	mov	DWORD PTR tv1786[rsp], 0
$LN1903@X86Assembl:
	mov	eax, DWORD PTR tv1786[rsp]
	add	eax, 168				; 000000a8H
	mov	ecx, DWORD PTR opCode$[rsp]
	or	ecx, eax
	mov	eax, ecx
	mov	DWORD PTR opCode$[rsp], eax

; 2099 :           goto _EmitX86Op;

	jmp	$LN1302@X86Assembl
	jmp	$_EmitX86Op$1952
$LN1301@X86Assembl:

; 2100 :         }
; 2101 : 
; 2102 :         rmReg = x86OpReg(o0);

	mov	rcx, QWORD PTR o0$[rsp]
	call	?x86OpReg@asmjit@@YAIPEBUOperand@1@@Z	; asmjit::x86OpReg
	mov	eax, eax
	mov	QWORD PTR $S1$[rsp], rax

; 2103 :         goto _EmitX86R;

	jmp	$LN1303@X86Assembl
	jmp	$_EmitX86R$1953
$LN1299@X86Assembl:

; 2104 :       }
; 2105 : 
; 2106 :       if (encoded == ENC_OPS(Mem, Imm, None)) {

	cmp	DWORD PTR encoded$[rsp], 35		; 00000023H
	jne	$LN1304@X86Assembl

; 2107 :         if (o0->getSize() == 0)

	mov	rcx, QWORD PTR o0$[rsp]
	call	?getSize@Operand@asmjit@@QEBAIXZ	; asmjit::Operand::getSize
	test	eax, eax
	jne	SHORT $LN1305@X86Assembl

; 2108 :           goto _IllegalInst;

	jmp	$LN1306@X86Assembl
	jmp	$_IllegalInst$1950
$LN1305@X86Assembl:

; 2109 : 
; 2110 :         imVal = static_cast<const Imm*>(o1)->getInt64();

	mov	rcx, QWORD PTR o1$[rsp]
	call	?getInt64@Imm@asmjit@@QEBA_JXZ		; asmjit::Imm::getInt64
	mov	QWORD PTR imVal$[rsp], rax

; 2111 :         imLen = IntUtil::iMin<uint32_t>(o0->getSize(), 4);

	mov	DWORD PTR $T45[rsp], 4
	mov	rcx, QWORD PTR o0$[rsp]
	call	?getSize@Operand@asmjit@@QEBAIXZ	; asmjit::Operand::getSize
	mov	DWORD PTR $T46[rsp], eax
	lea	rdx, QWORD PTR $T45[rsp]
	lea	rcx, QWORD PTR $T46[rsp]
	call	??$iMin@I@IntUtil@asmjit@@SAIAEBI0@Z	; asmjit::IntUtil::iMin<unsigned int>
	mov	DWORD PTR imLen$[rsp], eax
$LN378@X86Assembl:

; 2112 : 
; 2113 :         ADD_66H_P_BY_SIZE(o0->getSize());

	mov	rcx, QWORD PTR o0$[rsp]
	call	?getSize@Operand@asmjit@@QEBAIXZ	; asmjit::Operand::getSize
	and	eax, 2
	shl	eax, 19
	mov	ecx, DWORD PTR opCode$[rsp]
	or	ecx, eax
	mov	eax, ecx
	mov	DWORD PTR opCode$[rsp], eax
	xor	eax, eax
	test	eax, eax
	jne	SHORT $LN378@X86Assembl
$LN381@X86Assembl:

; 2114 :         ADD_REX_W_BY_SIZE(o0->getSize());

	xor	eax, eax
	cmp	eax, 1
	je	SHORT $LN1307@X86Assembl
	mov	rcx, QWORD PTR o0$[rsp]
	call	?getSize@Operand@asmjit@@QEBAIXZ	; asmjit::Operand::getSize
	cmp	eax, 8
	jne	SHORT $LN1307@X86Assembl
	mov	eax, DWORD PTR opCode$[rsp]
	bts	eax, 31
	mov	DWORD PTR opCode$[rsp], eax
$LN1307@X86Assembl:
	xor	eax, eax
	test	eax, eax
	jne	SHORT $LN381@X86Assembl

; 2115 : 
; 2116 :         rmMem = x86OpMem(o0);

	mov	rcx, QWORD PTR o0$[rsp]
	call	?x86OpMem@asmjit@@YAPEBUX86Mem@1@PEBUOperand@1@@Z ; asmjit::x86OpMem
	mov	QWORD PTR $S1$[rsp], rax

; 2117 :         goto _EmitX86M;

	jmp	$LN1308@X86Assembl
	jmp	$_EmitX86M$1954
$LN1304@X86Assembl:

; 2118 :       }
; 2119 :       break;

	jmp	$LN5@X86Assembl
$LN1309@X86Assembl:

; 2120 : 
; 2121 :     case kX86InstEncodingIdX86Xchg:
; 2122 :       if (encoded == ENC_OPS(Reg, Mem, None)) {

	cmp	DWORD PTR encoded$[rsp], 25
	jne	$LN1310@X86Assembl

; 2123 :         opCode += o0->getSize() != 1;

	mov	rcx, QWORD PTR o0$[rsp]
	call	?getSize@Operand@asmjit@@QEBAIXZ	; asmjit::Operand::getSize
	cmp	eax, 1
	je	SHORT $LN1904@X86Assembl
	mov	DWORD PTR tv1825[rsp], 1
	jmp	SHORT $LN1905@X86Assembl
$LN1904@X86Assembl:
	mov	DWORD PTR tv1825[rsp], 0
$LN1905@X86Assembl:
	mov	eax, DWORD PTR tv1825[rsp]
	mov	ecx, DWORD PTR opCode$[rsp]
	add	ecx, eax
	mov	eax, ecx
	mov	DWORD PTR opCode$[rsp], eax
$LN384@X86Assembl:

; 2124 :         ADD_66H_P_BY_SIZE(o0->getSize());

	mov	rcx, QWORD PTR o0$[rsp]
	call	?getSize@Operand@asmjit@@QEBAIXZ	; asmjit::Operand::getSize
	and	eax, 2
	shl	eax, 19
	mov	ecx, DWORD PTR opCode$[rsp]
	or	ecx, eax
	mov	eax, ecx
	mov	DWORD PTR opCode$[rsp], eax
	xor	eax, eax
	test	eax, eax
	jne	SHORT $LN384@X86Assembl
$LN387@X86Assembl:

; 2125 :         ADD_REX_W_BY_SIZE(o0->getSize());

	xor	eax, eax
	cmp	eax, 1
	je	SHORT $LN1311@X86Assembl
	mov	rcx, QWORD PTR o0$[rsp]
	call	?getSize@Operand@asmjit@@QEBAIXZ	; asmjit::Operand::getSize
	cmp	eax, 8
	jne	SHORT $LN1311@X86Assembl
	mov	eax, DWORD PTR opCode$[rsp]
	bts	eax, 31
	mov	DWORD PTR opCode$[rsp], eax
$LN1311@X86Assembl:
	xor	eax, eax
	test	eax, eax
	jne	SHORT $LN387@X86Assembl

; 2126 : 
; 2127 :         opReg = x86OpReg(o0);

	mov	rcx, QWORD PTR o0$[rsp]
	call	?x86OpReg@asmjit@@YAIPEBUOperand@1@@Z	; asmjit::x86OpReg
	mov	DWORD PTR opReg$[rsp], eax

; 2128 :         rmMem = x86OpMem(o1);

	mov	rcx, QWORD PTR o1$[rsp]
	call	?x86OpMem@asmjit@@YAPEBUX86Mem@1@PEBUOperand@1@@Z ; asmjit::x86OpMem
	mov	QWORD PTR $S1$[rsp], rax

; 2129 :         goto _EmitX86M;

	jmp	$LN1312@X86Assembl
	jmp	$_EmitX86M$1954
$LN1310@X86Assembl:
$LN1313@X86Assembl:

; 2130 :       }
; 2131 :       // ... fall through ...
; 2132 : 
; 2133 :     case kX86InstEncodingIdX86Xadd:
; 2134 :       if (encoded == ENC_OPS(Reg, Reg, None)) {

	cmp	DWORD PTR encoded$[rsp], 9
	jne	$LN1314@X86Assembl

; 2135 :         opReg = x86OpReg(o1);

	mov	rcx, QWORD PTR o1$[rsp]
	call	?x86OpReg@asmjit@@YAIPEBUOperand@1@@Z	; asmjit::x86OpReg
	mov	DWORD PTR opReg$[rsp], eax

; 2136 :         rmReg = x86OpReg(o0);

	mov	rcx, QWORD PTR o0$[rsp]
	call	?x86OpReg@asmjit@@YAIPEBUOperand@1@@Z	; asmjit::x86OpReg
	mov	eax, eax
	mov	QWORD PTR $S1$[rsp], rax
$LN390@X86Assembl:

; 2137 : 
; 2138 :         ADD_66H_P_BY_SIZE(o0->getSize());

	mov	rcx, QWORD PTR o0$[rsp]
	call	?getSize@Operand@asmjit@@QEBAIXZ	; asmjit::Operand::getSize
	and	eax, 2
	shl	eax, 19
	mov	ecx, DWORD PTR opCode$[rsp]
	or	ecx, eax
	mov	eax, ecx
	mov	DWORD PTR opCode$[rsp], eax
	xor	eax, eax
	test	eax, eax
	jne	SHORT $LN390@X86Assembl
$LN393@X86Assembl:

; 2139 :         ADD_REX_W_BY_SIZE(o0->getSize());

	xor	eax, eax
	cmp	eax, 1
	je	SHORT $LN1315@X86Assembl
	mov	rcx, QWORD PTR o0$[rsp]
	call	?getSize@Operand@asmjit@@QEBAIXZ	; asmjit::Operand::getSize
	cmp	eax, 8
	jne	SHORT $LN1315@X86Assembl
	mov	eax, DWORD PTR opCode$[rsp]
	bts	eax, 31
	mov	DWORD PTR opCode$[rsp], eax
$LN1315@X86Assembl:
	xor	eax, eax
	test	eax, eax
	jne	SHORT $LN393@X86Assembl

; 2140 : 
; 2141 :         // Special opcode for 'xchg ?ax, reg'.
; 2142 :         if (code == kX86InstIdXchg && o0->getSize() > 1 && (opReg == 0 || rmReg == 0)) {

	cmp	DWORD PTR code$[rsp], 1050		; 0000041aH
	jne	SHORT $LN1316@X86Assembl
	mov	rcx, QWORD PTR o0$[rsp]
	call	?getSize@Operand@asmjit@@QEBAIXZ	; asmjit::Operand::getSize
	cmp	eax, 1
	jbe	SHORT $LN1316@X86Assembl
	cmp	DWORD PTR opReg$[rsp], 0
	je	SHORT $LN1317@X86Assembl
	cmp	QWORD PTR $S1$[rsp], 0
	jne	SHORT $LN1316@X86Assembl
$LN1317@X86Assembl:

; 2143 :           opCode &= kX86InstOpCode_PP_66 | kX86InstOpCode_W;

	mov	eax, DWORD PTR opCode$[rsp]
	and	eax, -2146435072			; 80100000H
	mov	DWORD PTR opCode$[rsp], eax

; 2144 :           opCode |= 0x90;

	mov	eax, DWORD PTR opCode$[rsp]
	or	eax, 144				; 00000090H
	mov	DWORD PTR opCode$[rsp], eax

; 2145 :           // One of `xchg a, b` or `xchg b, a` is AX/EAX/RAX.
; 2146 :           opReg += rmReg;

	mov	eax, DWORD PTR opReg$[rsp]
	add	rax, QWORD PTR $S1$[rsp]
	mov	DWORD PTR opReg$[rsp], eax

; 2147 :           goto _EmitX86OpWithOpReg;

	jmp	$LN1318@X86Assembl
	jmp	$_EmitX86OpWithOpReg$1955
$LN1316@X86Assembl:

; 2148 :         }
; 2149 : 
; 2150 :         opCode += o0->getSize() != 1;

	mov	rcx, QWORD PTR o0$[rsp]
	call	?getSize@Operand@asmjit@@QEBAIXZ	; asmjit::Operand::getSize
	cmp	eax, 1
	je	SHORT $LN1906@X86Assembl
	mov	DWORD PTR tv1875[rsp], 1
	jmp	SHORT $LN1907@X86Assembl
$LN1906@X86Assembl:
	mov	DWORD PTR tv1875[rsp], 0
$LN1907@X86Assembl:
	mov	eax, DWORD PTR tv1875[rsp]
	mov	ecx, DWORD PTR opCode$[rsp]
	add	ecx, eax
	mov	eax, ecx
	mov	DWORD PTR opCode$[rsp], eax

; 2151 :         goto _EmitX86R;

	jmp	$LN1319@X86Assembl
	jmp	$_EmitX86R$1953
$LN1314@X86Assembl:

; 2152 :       }
; 2153 : 
; 2154 :       if (encoded == ENC_OPS(Mem, Reg, None)) {

	cmp	DWORD PTR encoded$[rsp], 11
	jne	$LN1320@X86Assembl

; 2155 :         opCode += o1->getSize() != 1;

	mov	rcx, QWORD PTR o1$[rsp]
	call	?getSize@Operand@asmjit@@QEBAIXZ	; asmjit::Operand::getSize
	cmp	eax, 1
	je	SHORT $LN1908@X86Assembl
	mov	DWORD PTR tv1881[rsp], 1
	jmp	SHORT $LN1909@X86Assembl
$LN1908@X86Assembl:
	mov	DWORD PTR tv1881[rsp], 0
$LN1909@X86Assembl:
	mov	eax, DWORD PTR tv1881[rsp]
	mov	ecx, DWORD PTR opCode$[rsp]
	add	ecx, eax
	mov	eax, ecx
	mov	DWORD PTR opCode$[rsp], eax
$LN396@X86Assembl:

; 2156 :         ADD_66H_P_BY_SIZE(o1->getSize());

	mov	rcx, QWORD PTR o1$[rsp]
	call	?getSize@Operand@asmjit@@QEBAIXZ	; asmjit::Operand::getSize
	and	eax, 2
	shl	eax, 19
	mov	ecx, DWORD PTR opCode$[rsp]
	or	ecx, eax
	mov	eax, ecx
	mov	DWORD PTR opCode$[rsp], eax
	xor	eax, eax
	test	eax, eax
	jne	SHORT $LN396@X86Assembl
$LN399@X86Assembl:

; 2157 :         ADD_REX_W_BY_SIZE(o1->getSize());

	xor	eax, eax
	cmp	eax, 1
	je	SHORT $LN1321@X86Assembl
	mov	rcx, QWORD PTR o1$[rsp]
	call	?getSize@Operand@asmjit@@QEBAIXZ	; asmjit::Operand::getSize
	cmp	eax, 8
	jne	SHORT $LN1321@X86Assembl
	mov	eax, DWORD PTR opCode$[rsp]
	bts	eax, 31
	mov	DWORD PTR opCode$[rsp], eax
$LN1321@X86Assembl:
	xor	eax, eax
	test	eax, eax
	jne	SHORT $LN399@X86Assembl

; 2158 : 
; 2159 :         opReg = x86OpReg(o1);

	mov	rcx, QWORD PTR o1$[rsp]
	call	?x86OpReg@asmjit@@YAIPEBUOperand@1@@Z	; asmjit::x86OpReg
	mov	DWORD PTR opReg$[rsp], eax

; 2160 :         rmMem = x86OpMem(o0);

	mov	rcx, QWORD PTR o0$[rsp]
	call	?x86OpMem@asmjit@@YAPEBUX86Mem@1@PEBUOperand@1@@Z ; asmjit::x86OpMem
	mov	QWORD PTR $S1$[rsp], rax

; 2161 :         goto _EmitX86M;

	jmp	$LN1322@X86Assembl
	jmp	$_EmitX86M$1954
$LN1320@X86Assembl:

; 2162 :       }
; 2163 :       break;

	jmp	$LN5@X86Assembl
$LN1323@X86Assembl:

; 2164 : 
; 2165 :     // ------------------------------------------------------------------------
; 2166 :     // [Fpu]
; 2167 :     // ------------------------------------------------------------------------
; 2168 : 
; 2169 :     case kX86InstEncodingIdFpuOp:
; 2170 :       goto _EmitFpuOp;

	jmp	$LN1324@X86Assembl
	jmp	$_EmitFpuOp$1960
$LN1325@X86Assembl:

; 2171 : 
; 2172 :     case kX86InstEncodingIdFpuArith:
; 2173 :       if (encoded == ENC_OPS(Reg, Reg, None)) {

	cmp	DWORD PTR encoded$[rsp], 9
	jne	$LN1326@X86Assembl

; 2174 :         opReg = x86OpReg(o0);

	mov	rcx, QWORD PTR o0$[rsp]
	call	?x86OpReg@asmjit@@YAIPEBUOperand@1@@Z	; asmjit::x86OpReg
	mov	DWORD PTR opReg$[rsp], eax

; 2175 :         rmReg = x86OpReg(o1);

	mov	rcx, QWORD PTR o1$[rsp]
	call	?x86OpReg@asmjit@@YAIPEBUOperand@1@@Z	; asmjit::x86OpReg
	mov	eax, eax
	mov	QWORD PTR $S1$[rsp], rax

; 2176 :         rmReg += opReg;

	mov	eax, DWORD PTR opReg$[rsp]
	mov	rcx, QWORD PTR $S1$[rsp]
	add	rcx, rax
	mov	rax, rcx
	mov	QWORD PTR $S1$[rsp], rax

; 2177 : 
; 2178 :         // We switch to the alternative opcode if the first operand is zero.
; 2179 :         if (opReg == 0) {

	cmp	DWORD PTR opReg$[rsp], 0
	jne	SHORT $LN1327@X86Assembl
$_EmitFpArith_Reg$1961:

; 2180 : _EmitFpArith_Reg:
; 2181 :           opCode = 0xD800 + ((opCode >> 8) & 0xFF) + static_cast<uint32_t>(rmReg);

	mov	eax, DWORD PTR opCode$[rsp]
	shr	eax, 8
	and	eax, 255				; 000000ffH
	mov	ecx, DWORD PTR $S1$[rsp]
	lea	eax, DWORD PTR [rax+rcx+55296]
	mov	DWORD PTR opCode$[rsp], eax

; 2182 :           goto _EmitFpuOp;

	jmp	$LN1329@X86Assembl
	jmp	$_EmitFpuOp$1960

; 2183 :         }

	jmp	SHORT $LN1328@X86Assembl
$LN1327@X86Assembl:

; 2184 :         else {
; 2185 :           opCode = 0xDC00 + ((opCode >> 0) & 0xFF) + static_cast<uint32_t>(rmReg);

	mov	eax, DWORD PTR opCode$[rsp]
	and	eax, 255				; 000000ffH
	mov	ecx, DWORD PTR $S1$[rsp]
	lea	eax, DWORD PTR [rax+rcx+56320]
	mov	DWORD PTR opCode$[rsp], eax

; 2186 :           goto _EmitFpuOp;

	jmp	$LN1330@X86Assembl
	jmp	$_EmitFpuOp$1960
$LN1328@X86Assembl:
$LN1326@X86Assembl:

; 2187 :         }
; 2188 :       }
; 2189 : 
; 2190 :       if (encoded == ENC_OPS(Mem, None, None)) {

	cmp	DWORD PTR encoded$[rsp], 3
	jne	SHORT $LN1331@X86Assembl
$_EmitFpArith_Mem$1962:

; 2191 :         // 0xD8/0xDC, depends on the size of the memory operand; opReg has been
; 2192 :         // set already.
; 2193 : _EmitFpArith_Mem:
; 2194 :         opCode = (o0->getSize() == 4) ? 0xD8 : 0xDC;

	mov	rcx, QWORD PTR o0$[rsp]
	call	?getSize@Operand@asmjit@@QEBAIXZ	; asmjit::Operand::getSize
	cmp	eax, 4
	jne	SHORT $LN1910@X86Assembl
	mov	DWORD PTR tv1919[rsp], 216		; 000000d8H
	jmp	SHORT $LN1911@X86Assembl
$LN1910@X86Assembl:
	mov	DWORD PTR tv1919[rsp], 220		; 000000dcH
$LN1911@X86Assembl:
	mov	eax, DWORD PTR tv1919[rsp]
	mov	DWORD PTR opCode$[rsp], eax

; 2195 :         rmMem = x86OpMem(o0);

	mov	rcx, QWORD PTR o0$[rsp]
	call	?x86OpMem@asmjit@@YAPEBUX86Mem@1@PEBUOperand@1@@Z ; asmjit::x86OpMem
	mov	QWORD PTR $S1$[rsp], rax

; 2196 :         goto _EmitX86M;

	jmp	$LN1332@X86Assembl
	jmp	$_EmitX86M$1954
$LN1331@X86Assembl:

; 2197 :       }
; 2198 :       break;

	jmp	$LN5@X86Assembl
$LN1333@X86Assembl:

; 2199 : 
; 2200 :     case kX86InstEncodingIdFpuCom:
; 2201 :       if (encoded == ENC_OPS(None, None, None)) {

	cmp	DWORD PTR encoded$[rsp], 0
	jne	SHORT $LN1334@X86Assembl

; 2202 :         rmReg = 1;

	mov	QWORD PTR $S1$[rsp], 1

; 2203 :         goto _EmitFpArith_Reg;

	jmp	$_EmitFpArith_Reg$1961
$LN1334@X86Assembl:

; 2204 :       }
; 2205 : 
; 2206 :       if (encoded == ENC_OPS(Reg, None, None)) {

	cmp	DWORD PTR encoded$[rsp], 1
	jne	SHORT $LN1335@X86Assembl

; 2207 :         rmReg = x86OpReg(o0);

	mov	rcx, QWORD PTR o0$[rsp]
	call	?x86OpReg@asmjit@@YAIPEBUOperand@1@@Z	; asmjit::x86OpReg
	mov	eax, eax
	mov	QWORD PTR $S1$[rsp], rax

; 2208 :         goto _EmitFpArith_Reg;

	jmp	$_EmitFpArith_Reg$1961
$LN1335@X86Assembl:

; 2209 :       }
; 2210 : 
; 2211 :       if (encoded == ENC_OPS(Mem, None, None)) {

	cmp	DWORD PTR encoded$[rsp], 3
	jne	SHORT $LN1336@X86Assembl

; 2212 :         goto _EmitFpArith_Mem;

	jmp	$_EmitFpArith_Mem$1962
$LN1336@X86Assembl:

; 2213 :       }
; 2214 :       break;

	jmp	$LN5@X86Assembl
$LN1337@X86Assembl:

; 2215 : 
; 2216 :     case kX86InstEncodingIdFpuFldFst:
; 2217 :       if (encoded == ENC_OPS(Mem, None, None)) {

	cmp	DWORD PTR encoded$[rsp], 3
	jne	$LN1338@X86Assembl

; 2218 :         rmMem = x86OpMem(o0);

	mov	rcx, QWORD PTR o0$[rsp]
	call	?x86OpMem@asmjit@@YAPEBUX86Mem@1@PEBUOperand@1@@Z ; asmjit::x86OpMem
	mov	QWORD PTR $S1$[rsp], rax

; 2219 : 
; 2220 :         if (o0->getSize() == 4 && info.hasInstFlag(kX86InstFlagMem4)) {

	mov	rcx, QWORD PTR o0$[rsp]
	call	?getSize@Operand@asmjit@@QEBAIXZ	; asmjit::Operand::getSize
	cmp	eax, 4
	jne	SHORT $LN1339@X86Assembl
	mov	edx, 512				; 00000200H
	mov	rcx, QWORD PTR info$[rsp]
	call	?hasInstFlag@X86InstInfo@asmjit@@QEBA_NI@Z ; asmjit::X86InstInfo::hasInstFlag
	movzx	eax, al
	test	eax, eax
	je	SHORT $LN1339@X86Assembl

; 2221 :           goto _EmitX86M;

	jmp	$LN1340@X86Assembl
	jmp	$_EmitX86M$1954
$LN1339@X86Assembl:

; 2222 :         }
; 2223 : 
; 2224 :         if (o0->getSize() == 8 && info.hasInstFlag(kX86InstFlagMem8)) {

	mov	rcx, QWORD PTR o0$[rsp]
	call	?getSize@Operand@asmjit@@QEBAIXZ	; asmjit::Operand::getSize
	cmp	eax, 8
	jne	SHORT $LN1341@X86Assembl
	mov	edx, 1024				; 00000400H
	mov	rcx, QWORD PTR info$[rsp]
	call	?hasInstFlag@X86InstInfo@asmjit@@QEBA_NI@Z ; asmjit::X86InstInfo::hasInstFlag
	movzx	eax, al
	test	eax, eax
	je	SHORT $LN1341@X86Assembl

; 2225 :           opCode += 4;

	mov	eax, DWORD PTR opCode$[rsp]
	add	eax, 4
	mov	DWORD PTR opCode$[rsp], eax

; 2226 :           goto _EmitX86M;

	jmp	$LN1342@X86Assembl
	jmp	$_EmitX86M$1954
$LN1341@X86Assembl:

; 2227 :         }
; 2228 : 
; 2229 :         if (o0->getSize() == 10 && info.hasInstFlag(kX86InstFlagMem10)) {

	mov	rcx, QWORD PTR o0$[rsp]
	call	?getSize@Operand@asmjit@@QEBAIXZ	; asmjit::Operand::getSize
	cmp	eax, 10
	jne	SHORT $LN1343@X86Assembl
	mov	edx, 2048				; 00000800H
	mov	rcx, QWORD PTR info$[rsp]
	call	?hasInstFlag@X86InstInfo@asmjit@@QEBA_NI@Z ; asmjit::X86InstInfo::hasInstFlag
	movzx	eax, al
	test	eax, eax
	je	SHORT $LN1343@X86Assembl

; 2230 :           opCode = extendedInfo.getSecondaryOpCode();

	mov	rcx, QWORD PTR extendedInfo$[rsp]
	call	?getSecondaryOpCode@X86InstExtendedInfo@asmjit@@QEBAIXZ ; asmjit::X86InstExtendedInfo::getSecondaryOpCode
	mov	DWORD PTR opCode$[rsp], eax

; 2231 :           opReg  = x86ExtractO(opCode);

	mov	ecx, DWORD PTR opCode$[rsp]
	call	?x86ExtractO@asmjit@@YAII@Z		; asmjit::x86ExtractO
	mov	DWORD PTR opReg$[rsp], eax

; 2232 :           goto _EmitX86M;

	jmp	$LN1344@X86Assembl
	jmp	$_EmitX86M$1954
$LN1343@X86Assembl:
$LN1338@X86Assembl:

; 2233 :         }
; 2234 :       }
; 2235 : 
; 2236 :       if (encoded == ENC_OPS(Reg, None, None)) {

	cmp	DWORD PTR encoded$[rsp], 1
	jne	$LN1345@X86Assembl

; 2237 :         if (code == kX86InstIdFld) {

	cmp	DWORD PTR code$[rsp], 173		; 000000adH
	jne	SHORT $LN1346@X86Assembl

; 2238 :           opCode = 0xD9C0 + x86OpReg(o0);

	mov	rcx, QWORD PTR o0$[rsp]
	call	?x86OpReg@asmjit@@YAIPEBUOperand@1@@Z	; asmjit::x86OpReg
	add	eax, 55744				; 0000d9c0H
	mov	DWORD PTR opCode$[rsp], eax

; 2239 :           goto _EmitFpuOp;

	jmp	$LN1347@X86Assembl
	jmp	$_EmitFpuOp$1960
$LN1346@X86Assembl:

; 2240 :         }
; 2241 : 
; 2242 :         if (code == kX86InstIdFst) {

	cmp	DWORD PTR code$[rsp], 203		; 000000cbH
	jne	SHORT $LN1348@X86Assembl

; 2243 :           opCode = 0xDDD0 + x86OpReg(o0);

	mov	rcx, QWORD PTR o0$[rsp]
	call	?x86OpReg@asmjit@@YAIPEBUOperand@1@@Z	; asmjit::x86OpReg
	add	eax, 56784				; 0000ddd0H
	mov	DWORD PTR opCode$[rsp], eax

; 2244 :           goto _EmitFpuOp;

	jmp	$LN1349@X86Assembl
	jmp	$_EmitFpuOp$1960
$LN1348@X86Assembl:

; 2245 :         }
; 2246 : 
; 2247 :         if (code == kX86InstIdFstp) {

	cmp	DWORD PTR code$[rsp], 206		; 000000ceH
	jne	SHORT $LN1350@X86Assembl

; 2248 :           opCode = 0xDDD8 + x86OpReg(o0);

	mov	rcx, QWORD PTR o0$[rsp]
	call	?x86OpReg@asmjit@@YAIPEBUOperand@1@@Z	; asmjit::x86OpReg
	add	eax, 56792				; 0000ddd8H
	mov	DWORD PTR opCode$[rsp], eax

; 2249 :           goto _EmitFpuOp;

	jmp	$LN1351@X86Assembl
	jmp	$_EmitFpuOp$1960
$LN1350@X86Assembl:
$LN1345@X86Assembl:

; 2250 :         }
; 2251 :       }
; 2252 :       break;

	jmp	$LN5@X86Assembl
$LN1352@X86Assembl:

; 2253 : 
; 2254 : 
; 2255 :     case kX86InstEncodingIdFpuM:
; 2256 :       if (encoded == ENC_OPS(Mem, None, None)) {

	cmp	DWORD PTR encoded$[rsp], 3
	jne	$LN1353@X86Assembl

; 2257 :         rmMem = x86OpMem(o0);

	mov	rcx, QWORD PTR o0$[rsp]
	call	?x86OpMem@asmjit@@YAPEBUX86Mem@1@PEBUOperand@1@@Z ; asmjit::x86OpMem
	mov	QWORD PTR $S1$[rsp], rax

; 2258 : 
; 2259 :         if (o0->getSize() == 2 && info.hasInstFlag(kX86InstFlagMem2)) {

	mov	rcx, QWORD PTR o0$[rsp]
	call	?getSize@Operand@asmjit@@QEBAIXZ	; asmjit::Operand::getSize
	cmp	eax, 2
	jne	SHORT $LN1354@X86Assembl
	mov	edx, 256				; 00000100H
	mov	rcx, QWORD PTR info$[rsp]
	call	?hasInstFlag@X86InstInfo@asmjit@@QEBA_NI@Z ; asmjit::X86InstInfo::hasInstFlag
	movzx	eax, al
	test	eax, eax
	je	SHORT $LN1354@X86Assembl

; 2260 :           opCode += 4;

	mov	eax, DWORD PTR opCode$[rsp]
	add	eax, 4
	mov	DWORD PTR opCode$[rsp], eax

; 2261 :           goto _EmitX86M;

	jmp	$LN1355@X86Assembl
	jmp	$_EmitX86M$1954
$LN1354@X86Assembl:

; 2262 :         }
; 2263 : 
; 2264 :         if (o0->getSize() == 4 && info.hasInstFlag(kX86InstFlagMem4)) {

	mov	rcx, QWORD PTR o0$[rsp]
	call	?getSize@Operand@asmjit@@QEBAIXZ	; asmjit::Operand::getSize
	cmp	eax, 4
	jne	SHORT $LN1356@X86Assembl
	mov	edx, 512				; 00000200H
	mov	rcx, QWORD PTR info$[rsp]
	call	?hasInstFlag@X86InstInfo@asmjit@@QEBA_NI@Z ; asmjit::X86InstInfo::hasInstFlag
	movzx	eax, al
	test	eax, eax
	je	SHORT $LN1356@X86Assembl

; 2265 :           goto _EmitX86M;

	jmp	$LN1357@X86Assembl
	jmp	$_EmitX86M$1954
$LN1356@X86Assembl:

; 2266 :         }
; 2267 : 
; 2268 :         if (o0->getSize() == 8 && info.hasInstFlag(kX86InstFlagMem8)) {

	mov	rcx, QWORD PTR o0$[rsp]
	call	?getSize@Operand@asmjit@@QEBAIXZ	; asmjit::Operand::getSize
	cmp	eax, 8
	jne	SHORT $LN1358@X86Assembl
	mov	edx, 1024				; 00000400H
	mov	rcx, QWORD PTR info$[rsp]
	call	?hasInstFlag@X86InstInfo@asmjit@@QEBA_NI@Z ; asmjit::X86InstInfo::hasInstFlag
	movzx	eax, al
	test	eax, eax
	je	SHORT $LN1358@X86Assembl

; 2269 :           opCode = extendedInfo.getSecondaryOpCode();

	mov	rcx, QWORD PTR extendedInfo$[rsp]
	call	?getSecondaryOpCode@X86InstExtendedInfo@asmjit@@QEBAIXZ ; asmjit::X86InstExtendedInfo::getSecondaryOpCode
	mov	DWORD PTR opCode$[rsp], eax

; 2270 :           opReg  = x86ExtractO(opCode);

	mov	ecx, DWORD PTR opCode$[rsp]
	call	?x86ExtractO@asmjit@@YAII@Z		; asmjit::x86ExtractO
	mov	DWORD PTR opReg$[rsp], eax

; 2271 :           goto _EmitX86M;

	jmp	$LN1359@X86Assembl
	jmp	$_EmitX86M$1954
$LN1358@X86Assembl:
$LN1353@X86Assembl:

; 2272 :         }
; 2273 :       }
; 2274 :       break;

	jmp	$LN5@X86Assembl
$LN1360@X86Assembl:

; 2275 : 
; 2276 :     case kX86InstEncodingIdFpuRDef:
; 2277 :       if (encoded == ENC_OPS(None, None, None)) {

	cmp	DWORD PTR encoded$[rsp], 0
	jne	SHORT $LN1361@X86Assembl

; 2278 :         opCode += 1;

	mov	eax, DWORD PTR opCode$[rsp]
	inc	eax
	mov	DWORD PTR opCode$[rsp], eax

; 2279 :         goto _EmitFpuOp;

	jmp	$LN1362@X86Assembl
	jmp	$_EmitFpuOp$1960
$LN1361@X86Assembl:
$LN1363@X86Assembl:

; 2280 :       }
; 2281 :       // ... Fall through ...
; 2282 : 
; 2283 :     case kX86InstEncodingIdFpuR:
; 2284 :       if (encoded == ENC_OPS(Reg, None, None)) {

	cmp	DWORD PTR encoded$[rsp], 1
	jne	SHORT $LN1364@X86Assembl

; 2285 :         opCode += x86OpReg(o0);

	mov	rcx, QWORD PTR o0$[rsp]
	call	?x86OpReg@asmjit@@YAIPEBUOperand@1@@Z	; asmjit::x86OpReg
	mov	ecx, DWORD PTR opCode$[rsp]
	add	ecx, eax
	mov	eax, ecx
	mov	DWORD PTR opCode$[rsp], eax

; 2286 :         goto _EmitFpuOp;

	jmp	$LN1365@X86Assembl
	jmp	$_EmitFpuOp$1960
$LN1364@X86Assembl:

; 2287 :       }
; 2288 :       break;

	jmp	$LN5@X86Assembl
$LN1366@X86Assembl:

; 2289 : 
; 2290 :     case kX86InstEncodingIdFpuStsw:
; 2291 :       if (encoded == ENC_OPS(Reg, None, None)) {

	cmp	DWORD PTR encoded$[rsp], 1
	jne	SHORT $LN1367@X86Assembl

; 2292 :         if (x86OpReg(o0) != 0)

	mov	rcx, QWORD PTR o0$[rsp]
	call	?x86OpReg@asmjit@@YAIPEBUOperand@1@@Z	; asmjit::x86OpReg
	test	eax, eax
	je	SHORT $LN1368@X86Assembl

; 2293 :           goto _IllegalInst;

	jmp	$LN1369@X86Assembl
	jmp	$_IllegalInst$1950
$LN1368@X86Assembl:

; 2294 : 
; 2295 :         opCode = extendedInfo.getSecondaryOpCode();

	mov	rcx, QWORD PTR extendedInfo$[rsp]
	call	?getSecondaryOpCode@X86InstExtendedInfo@asmjit@@QEBAIXZ ; asmjit::X86InstExtendedInfo::getSecondaryOpCode
	mov	DWORD PTR opCode$[rsp], eax

; 2296 :         goto _EmitX86Op;

	jmp	$LN1370@X86Assembl
	jmp	$_EmitX86Op$1952
$LN1367@X86Assembl:

; 2297 :       }
; 2298 : 
; 2299 :       if (encoded == ENC_OPS(Mem, None, None)) {

	cmp	DWORD PTR encoded$[rsp], 3
	jne	SHORT $LN1371@X86Assembl

; 2300 :         rmMem = x86OpMem(o0);

	mov	rcx, QWORD PTR o0$[rsp]
	call	?x86OpMem@asmjit@@YAPEBUX86Mem@1@PEBUOperand@1@@Z ; asmjit::x86OpMem
	mov	QWORD PTR $S1$[rsp], rax

; 2301 :         goto _EmitX86M;

	jmp	$LN1372@X86Assembl
	jmp	$_EmitX86M$1954
$LN1371@X86Assembl:

; 2302 :       }
; 2303 :       break;

	jmp	$LN5@X86Assembl
$LN1373@X86Assembl:
$LN402@X86Assembl:

; 2304 : 
; 2305 :     // ------------------------------------------------------------------------
; 2306 :     // [Ext]
; 2307 :     // ------------------------------------------------------------------------
; 2308 : 
; 2309 :     case kX86InstEncodingIdExtCrc:
; 2310 :       ADD_66H_P_BY_SIZE(o0->getSize());

	mov	rcx, QWORD PTR o0$[rsp]
	call	?getSize@Operand@asmjit@@QEBAIXZ	; asmjit::Operand::getSize
	and	eax, 2
	shl	eax, 19
	mov	ecx, DWORD PTR opCode$[rsp]
	or	ecx, eax
	mov	eax, ecx
	mov	DWORD PTR opCode$[rsp], eax
	xor	eax, eax
	test	eax, eax
	jne	SHORT $LN402@X86Assembl
$LN405@X86Assembl:

; 2311 :       ADD_REX_W_BY_SIZE(o0->getSize());

	xor	eax, eax
	cmp	eax, 1
	je	SHORT $LN1374@X86Assembl
	mov	rcx, QWORD PTR o0$[rsp]
	call	?getSize@Operand@asmjit@@QEBAIXZ	; asmjit::Operand::getSize
	cmp	eax, 8
	jne	SHORT $LN1374@X86Assembl
	mov	eax, DWORD PTR opCode$[rsp]
	bts	eax, 31
	mov	DWORD PTR opCode$[rsp], eax
$LN1374@X86Assembl:
	xor	eax, eax
	test	eax, eax
	jne	SHORT $LN405@X86Assembl

; 2312 : 
; 2313 :       if (encoded == ENC_OPS(Reg, Reg, None)) {

	cmp	DWORD PTR encoded$[rsp], 9
	jne	SHORT $LN1375@X86Assembl

; 2314 :         ASMJIT_ASSERT(static_cast<const Reg*>(o0)->getRegType() == kX86RegTypeGpd ||
; 2315 :                       static_cast<const Reg*>(o0)->getRegType() == kX86RegTypeGpq);
; 2316 : 
; 2317 :         opCode += o0->getSize() != 1;

	mov	rcx, QWORD PTR o0$[rsp]
	call	?getSize@Operand@asmjit@@QEBAIXZ	; asmjit::Operand::getSize
	cmp	eax, 1
	je	SHORT $LN1912@X86Assembl
	mov	DWORD PTR tv2036[rsp], 1
	jmp	SHORT $LN1913@X86Assembl
$LN1912@X86Assembl:
	mov	DWORD PTR tv2036[rsp], 0
$LN1913@X86Assembl:
	mov	eax, DWORD PTR tv2036[rsp]
	mov	ecx, DWORD PTR opCode$[rsp]
	add	ecx, eax
	mov	eax, ecx
	mov	DWORD PTR opCode$[rsp], eax

; 2318 :         opReg = x86OpReg(o0);

	mov	rcx, QWORD PTR o0$[rsp]
	call	?x86OpReg@asmjit@@YAIPEBUOperand@1@@Z	; asmjit::x86OpReg
	mov	DWORD PTR opReg$[rsp], eax

; 2319 :         rmReg = x86OpReg(o1);

	mov	rcx, QWORD PTR o1$[rsp]
	call	?x86OpReg@asmjit@@YAIPEBUOperand@1@@Z	; asmjit::x86OpReg
	mov	eax, eax
	mov	QWORD PTR $S1$[rsp], rax

; 2320 :         goto _EmitX86R;

	jmp	$LN1376@X86Assembl
	jmp	$_EmitX86R$1953
$LN1375@X86Assembl:

; 2321 :       }
; 2322 : 
; 2323 :       if (encoded == ENC_OPS(Reg, Mem, None)) {

	cmp	DWORD PTR encoded$[rsp], 25
	jne	SHORT $LN1377@X86Assembl

; 2324 :         ASMJIT_ASSERT(static_cast<const Reg*>(o0)->getRegType() == kX86RegTypeGpd ||
; 2325 :                       static_cast<const Reg*>(o0)->getRegType() == kX86RegTypeGpq);
; 2326 : 
; 2327 :         opCode += o0->getSize() != 1;

	mov	rcx, QWORD PTR o0$[rsp]
	call	?getSize@Operand@asmjit@@QEBAIXZ	; asmjit::Operand::getSize
	cmp	eax, 1
	je	SHORT $LN1914@X86Assembl
	mov	DWORD PTR tv2047[rsp], 1
	jmp	SHORT $LN1915@X86Assembl
$LN1914@X86Assembl:
	mov	DWORD PTR tv2047[rsp], 0
$LN1915@X86Assembl:
	mov	eax, DWORD PTR tv2047[rsp]
	mov	ecx, DWORD PTR opCode$[rsp]
	add	ecx, eax
	mov	eax, ecx
	mov	DWORD PTR opCode$[rsp], eax

; 2328 :         opReg = x86OpReg(o0);

	mov	rcx, QWORD PTR o0$[rsp]
	call	?x86OpReg@asmjit@@YAIPEBUOperand@1@@Z	; asmjit::x86OpReg
	mov	DWORD PTR opReg$[rsp], eax

; 2329 :         rmMem = x86OpMem(o1);

	mov	rcx, QWORD PTR o1$[rsp]
	call	?x86OpMem@asmjit@@YAPEBUX86Mem@1@PEBUOperand@1@@Z ; asmjit::x86OpMem
	mov	QWORD PTR $S1$[rsp], rax

; 2330 :         goto _EmitX86M;

	jmp	$LN1378@X86Assembl
	jmp	$_EmitX86M$1954
$LN1377@X86Assembl:

; 2331 :       }
; 2332 :       break;

	jmp	$LN5@X86Assembl
$LN1379@X86Assembl:

; 2333 : 
; 2334 :     case kX86InstEncodingIdExtExtract:
; 2335 :       if (encoded == ENC_OPS(Reg, Reg, Imm)) {

	cmp	DWORD PTR encoded$[rsp], 265		; 00000109H
	jne	SHORT $LN1380@X86Assembl
$LN408@X86Assembl:

; 2336 :         ADD_66H_P(static_cast<const X86Reg*>(o1)->isXmm());

	mov	rcx, QWORD PTR o1$[rsp]
	call	?isXmm@X86Reg@asmjit@@QEBA_NXZ		; asmjit::X86Reg::isXmm
	movzx	eax, al
	shl	eax, 20
	mov	ecx, DWORD PTR opCode$[rsp]
	or	ecx, eax
	mov	eax, ecx
	mov	DWORD PTR opCode$[rsp], eax
	xor	eax, eax
	test	eax, eax
	jne	SHORT $LN408@X86Assembl

; 2337 : 
; 2338 :         imVal = static_cast<const Imm*>(o2)->getInt64();

	mov	rcx, QWORD PTR o2$[rsp]
	call	?getInt64@Imm@asmjit@@QEBA_JXZ		; asmjit::Imm::getInt64
	mov	QWORD PTR imVal$[rsp], rax

; 2339 :         imLen = 1;

	mov	DWORD PTR imLen$[rsp], 1

; 2340 : 
; 2341 :         opReg = x86OpReg(o1);

	mov	rcx, QWORD PTR o1$[rsp]
	call	?x86OpReg@asmjit@@YAIPEBUOperand@1@@Z	; asmjit::x86OpReg
	mov	DWORD PTR opReg$[rsp], eax

; 2342 :         rmReg = x86OpReg(o0);

	mov	rcx, QWORD PTR o0$[rsp]
	call	?x86OpReg@asmjit@@YAIPEBUOperand@1@@Z	; asmjit::x86OpReg
	mov	eax, eax
	mov	QWORD PTR $S1$[rsp], rax

; 2343 :         goto _EmitX86R;

	jmp	$LN1381@X86Assembl
	jmp	$_EmitX86R$1953
$LN1380@X86Assembl:

; 2344 :       }
; 2345 : 
; 2346 :       if (encoded == ENC_OPS(Mem, Reg, Imm)) {

	cmp	DWORD PTR encoded$[rsp], 267		; 0000010bH
	jne	SHORT $LN1382@X86Assembl

; 2347 :         // Secondary opcode for 'pextrw' instruction (SSE2).
; 2348 :         opCode = extendedInfo.getSecondaryOpCode();

	mov	rcx, QWORD PTR extendedInfo$[rsp]
	call	?getSecondaryOpCode@X86InstExtendedInfo@asmjit@@QEBAIXZ ; asmjit::X86InstExtendedInfo::getSecondaryOpCode
	mov	DWORD PTR opCode$[rsp], eax
$LN411@X86Assembl:

; 2349 :         ADD_66H_P(static_cast<const X86Reg*>(o1)->isXmm());

	mov	rcx, QWORD PTR o1$[rsp]
	call	?isXmm@X86Reg@asmjit@@QEBA_NXZ		; asmjit::X86Reg::isXmm
	movzx	eax, al
	shl	eax, 20
	mov	ecx, DWORD PTR opCode$[rsp]
	or	ecx, eax
	mov	eax, ecx
	mov	DWORD PTR opCode$[rsp], eax
	xor	eax, eax
	test	eax, eax
	jne	SHORT $LN411@X86Assembl

; 2350 : 
; 2351 :         imVal = static_cast<const Imm*>(o2)->getInt64();

	mov	rcx, QWORD PTR o2$[rsp]
	call	?getInt64@Imm@asmjit@@QEBA_JXZ		; asmjit::Imm::getInt64
	mov	QWORD PTR imVal$[rsp], rax

; 2352 :         imLen = 1;

	mov	DWORD PTR imLen$[rsp], 1

; 2353 : 
; 2354 :         opReg = x86OpReg(o1);

	mov	rcx, QWORD PTR o1$[rsp]
	call	?x86OpReg@asmjit@@YAIPEBUOperand@1@@Z	; asmjit::x86OpReg
	mov	DWORD PTR opReg$[rsp], eax

; 2355 :         rmMem = x86OpMem(o0);

	mov	rcx, QWORD PTR o0$[rsp]
	call	?x86OpMem@asmjit@@YAPEBUX86Mem@1@PEBUOperand@1@@Z ; asmjit::x86OpMem
	mov	QWORD PTR $S1$[rsp], rax

; 2356 :         goto _EmitX86M;

	jmp	$LN1383@X86Assembl
	jmp	$_EmitX86M$1954
$LN1382@X86Assembl:

; 2357 :       }
; 2358 :       break;

	jmp	$LN5@X86Assembl
$LN1384@X86Assembl:

; 2359 : 
; 2360 :     case kX86InstEncodingIdExtFence:
; 2361 :       if (Arch == kArchX64 && (opCode & kX86InstOpCode_W_Mask)) {

	xor	eax, eax
	cmp	eax, 1
	je	SHORT $LN1385@X86Assembl
	mov	eax, DWORD PTR opCode$[rsp]
	and	eax, -2147483648			; 80000000H
	test	eax, eax
	je	SHORT $LN1385@X86Assembl
$LN414@X86Assembl:

; 2362 :         EMIT_BYTE(kX86ByteRex | kX86ByteRexW);

	mov	eax, 1
	imul	rax, rax, 0
	mov	rcx, QWORD PTR cursor$[rsp]
	mov	BYTE PTR [rcx+rax], 72			; 00000048H
	mov	rax, QWORD PTR cursor$[rsp]
	inc	rax
	mov	QWORD PTR cursor$[rsp], rax
	xor	eax, eax
	test	eax, eax
	jne	SHORT $LN414@X86Assembl
$LN1385@X86Assembl:
$LN417@X86Assembl:

; 2363 :       }
; 2364 : 
; 2365 :       EMIT_BYTE(0x0F);

	mov	eax, 1
	imul	rax, rax, 0
	mov	rcx, QWORD PTR cursor$[rsp]
	mov	BYTE PTR [rcx+rax], 15
	mov	rax, QWORD PTR cursor$[rsp]
	inc	rax
	mov	QWORD PTR cursor$[rsp], rax
	xor	eax, eax
	test	eax, eax
	jne	SHORT $LN417@X86Assembl
$LN420@X86Assembl:
$LN423@X86Assembl:

; 2366 :       EMIT_OP(opCode);

	mov	eax, DWORD PTR opCode$[rsp]
	and	eax, 255				; 000000ffH
	mov	ecx, 1
	imul	rcx, rcx, 0
	mov	rdx, QWORD PTR cursor$[rsp]
	mov	BYTE PTR [rdx+rcx], al
	mov	rax, QWORD PTR cursor$[rsp]
	inc	rax
	mov	QWORD PTR cursor$[rsp], rax
	xor	eax, eax
	test	eax, eax
	jne	SHORT $LN423@X86Assembl
	xor	eax, eax
	test	eax, eax
	jne	SHORT $LN420@X86Assembl
$LN426@X86Assembl:

; 2367 :       EMIT_BYTE(0xC0 | (opReg << 3));

	mov	eax, DWORD PTR opReg$[rsp]
	shl	eax, 3
	or	eax, 192				; 000000c0H
	mov	ecx, 1
	imul	rcx, rcx, 0
	mov	rdx, QWORD PTR cursor$[rsp]
	mov	BYTE PTR [rdx+rcx], al
	mov	rax, QWORD PTR cursor$[rsp]
	inc	rax
	mov	QWORD PTR cursor$[rsp], rax
	xor	eax, eax
	test	eax, eax
	jne	SHORT $LN426@X86Assembl

; 2368 :       goto _EmitDone;

	jmp	$LN1386@X86Assembl
	jmp	$_EmitDone$1951
$LN1387@X86Assembl:
$LN1388@X86Assembl:

; 2369 : 
; 2370 :     case kX86InstEncodingIdExtMov:
; 2371 :     case kX86InstEncodingIdExtMovNoRexW:
; 2372 :       ASMJIT_ASSERT(extendedInfo._opFlags[0] != 0);
; 2373 :       ASMJIT_ASSERT(extendedInfo._opFlags[1] != 0);
; 2374 : 
; 2375 :       // Check parameters Gpd|Gpq|Mm|Xmm <- Gpd|Gpq|Mm|Xmm|X86Mem|Imm.
; 2376 :       ASMJIT_ASSERT(!((o0->isMem()                   && (extendedInfo._opFlags[0] & kX86InstOpMem) == 0) ||
; 2377 :                       (o0->isRegType(kX86RegTypeMm ) && (extendedInfo._opFlags[0] & kX86InstOpMm ) == 0) ||
; 2378 :                       (o0->isRegType(kX86RegTypeXmm) && (extendedInfo._opFlags[0] & kX86InstOpXmm) == 0) ||
; 2379 :                       (o0->isRegType(kX86RegTypeGpd) && (extendedInfo._opFlags[0] & kX86InstOpGd ) == 0) ||
; 2380 :                       (o0->isRegType(kX86RegTypeGpq) && (extendedInfo._opFlags[0] & kX86InstOpGq ) == 0) ||
; 2381 :                       (o1->isMem()                   && (extendedInfo._opFlags[1] & kX86InstOpMem) == 0) ||
; 2382 :                       (o1->isRegType(kX86RegTypeMm ) && (extendedInfo._opFlags[1] & kX86InstOpMm ) == 0) ||
; 2383 :                       (o1->isRegType(kX86RegTypeXmm) && (extendedInfo._opFlags[1] & kX86InstOpXmm) == 0) ||
; 2384 :                       (o1->isRegType(kX86RegTypeGpd) && (extendedInfo._opFlags[1] & kX86InstOpGd ) == 0) ||
; 2385 :                       (o1->isRegType(kX86RegTypeGpq) && (extendedInfo._opFlags[1] & kX86InstOpGq ) == 0) ));
; 2386 : 
; 2387 :       // Gp|Mm|Xmm <- Gp|Mm|Xmm
; 2388 :       if (encoded == ENC_OPS(Reg, Reg, None)) {

	cmp	DWORD PTR encoded$[rsp], 9
	jne	$LN1389@X86Assembl
$LN429@X86Assembl:

; 2389 :         ADD_REX_W(static_cast<const X86Reg*>(o0)->isGpq() && (info.getEncodingId() != kX86InstEncodingIdExtMovNoRexW));

	xor	eax, eax
	cmp	eax, 1
	je	SHORT $LN1390@X86Assembl
	mov	rcx, QWORD PTR o0$[rsp]
	call	?isGpq@X86Reg@asmjit@@QEBA_NXZ		; asmjit::X86Reg::isGpq
	movzx	eax, al
	test	eax, eax
	je	SHORT $LN1916@X86Assembl
	mov	rcx, QWORD PTR info$[rsp]
	call	?getEncodingId@X86InstInfo@asmjit@@QEBAIXZ ; asmjit::X86InstInfo::getEncodingId
	cmp	eax, 54					; 00000036H
	je	SHORT $LN1916@X86Assembl
	mov	DWORD PTR tv2136[rsp], 1
	jmp	SHORT $LN1917@X86Assembl
$LN1916@X86Assembl:
	mov	DWORD PTR tv2136[rsp], 0
$LN1917@X86Assembl:
	mov	eax, DWORD PTR tv2136[rsp]
	shl	eax, 31
	mov	ecx, DWORD PTR opCode$[rsp]
	or	ecx, eax
	mov	eax, ecx
	mov	DWORD PTR opCode$[rsp], eax
$LN1390@X86Assembl:
	xor	eax, eax
	test	eax, eax
	jne	SHORT $LN429@X86Assembl
$LN432@X86Assembl:

; 2390 :         ADD_REX_W(static_cast<const X86Reg*>(o1)->isGpq() && (info.getEncodingId() != kX86InstEncodingIdExtMovNoRexW));

	xor	eax, eax
	cmp	eax, 1
	je	SHORT $LN1391@X86Assembl
	mov	rcx, QWORD PTR o1$[rsp]
	call	?isGpq@X86Reg@asmjit@@QEBA_NXZ		; asmjit::X86Reg::isGpq
	movzx	eax, al
	test	eax, eax
	je	SHORT $LN1918@X86Assembl
	mov	rcx, QWORD PTR info$[rsp]
	call	?getEncodingId@X86InstInfo@asmjit@@QEBAIXZ ; asmjit::X86InstInfo::getEncodingId
	cmp	eax, 54					; 00000036H
	je	SHORT $LN1918@X86Assembl
	mov	DWORD PTR tv2152[rsp], 1
	jmp	SHORT $LN1919@X86Assembl
$LN1918@X86Assembl:
	mov	DWORD PTR tv2152[rsp], 0
$LN1919@X86Assembl:
	mov	eax, DWORD PTR tv2152[rsp]
	shl	eax, 31
	mov	ecx, DWORD PTR opCode$[rsp]
	or	ecx, eax
	mov	eax, ecx
	mov	DWORD PTR opCode$[rsp], eax
$LN1391@X86Assembl:
	xor	eax, eax
	test	eax, eax
	jne	SHORT $LN432@X86Assembl

; 2391 : 
; 2392 :         opReg = x86OpReg(o0);

	mov	rcx, QWORD PTR o0$[rsp]
	call	?x86OpReg@asmjit@@YAIPEBUOperand@1@@Z	; asmjit::x86OpReg
	mov	DWORD PTR opReg$[rsp], eax

; 2393 :         rmReg = x86OpReg(o1);

	mov	rcx, QWORD PTR o1$[rsp]
	call	?x86OpReg@asmjit@@YAIPEBUOperand@1@@Z	; asmjit::x86OpReg
	mov	eax, eax
	mov	QWORD PTR $S1$[rsp], rax

; 2394 :         goto _EmitX86R;

	jmp	$LN1392@X86Assembl
	jmp	$_EmitX86R$1953
$LN1389@X86Assembl:

; 2395 :       }
; 2396 : 
; 2397 :       // Gp|Mm|Xmm <- Mem
; 2398 :       if (encoded == ENC_OPS(Reg, Mem, None)) {

	cmp	DWORD PTR encoded$[rsp], 25
	jne	$LN1393@X86Assembl
$LN435@X86Assembl:

; 2399 :         ADD_REX_W(static_cast<const X86Reg*>(o0)->isGpq() && (info.getEncodingId() != kX86InstEncodingIdExtMovNoRexW));

	xor	eax, eax
	cmp	eax, 1
	je	SHORT $LN1394@X86Assembl
	mov	rcx, QWORD PTR o0$[rsp]
	call	?isGpq@X86Reg@asmjit@@QEBA_NXZ		; asmjit::X86Reg::isGpq
	movzx	eax, al
	test	eax, eax
	je	SHORT $LN1920@X86Assembl
	mov	rcx, QWORD PTR info$[rsp]
	call	?getEncodingId@X86InstInfo@asmjit@@QEBAIXZ ; asmjit::X86InstInfo::getEncodingId
	cmp	eax, 54					; 00000036H
	je	SHORT $LN1920@X86Assembl
	mov	DWORD PTR tv2174[rsp], 1
	jmp	SHORT $LN1921@X86Assembl
$LN1920@X86Assembl:
	mov	DWORD PTR tv2174[rsp], 0
$LN1921@X86Assembl:
	mov	eax, DWORD PTR tv2174[rsp]
	shl	eax, 31
	mov	ecx, DWORD PTR opCode$[rsp]
	or	ecx, eax
	mov	eax, ecx
	mov	DWORD PTR opCode$[rsp], eax
$LN1394@X86Assembl:
	xor	eax, eax
	test	eax, eax
	jne	SHORT $LN435@X86Assembl

; 2400 : 
; 2401 :         opReg = x86OpReg(o0);

	mov	rcx, QWORD PTR o0$[rsp]
	call	?x86OpReg@asmjit@@YAIPEBUOperand@1@@Z	; asmjit::x86OpReg
	mov	DWORD PTR opReg$[rsp], eax

; 2402 :         rmMem = x86OpMem(o1);

	mov	rcx, QWORD PTR o1$[rsp]
	call	?x86OpMem@asmjit@@YAPEBUX86Mem@1@PEBUOperand@1@@Z ; asmjit::x86OpMem
	mov	QWORD PTR $S1$[rsp], rax

; 2403 :         goto _EmitX86M;

	jmp	$LN1395@X86Assembl
	jmp	$_EmitX86M$1954
$LN1393@X86Assembl:

; 2404 :       }
; 2405 : 
; 2406 :       // The following instruction uses opCode[1].
; 2407 :       opCode = extendedInfo.getSecondaryOpCode();

	mov	rcx, QWORD PTR extendedInfo$[rsp]
	call	?getSecondaryOpCode@X86InstExtendedInfo@asmjit@@QEBAIXZ ; asmjit::X86InstExtendedInfo::getSecondaryOpCode
	mov	DWORD PTR opCode$[rsp], eax

; 2408 : 
; 2409 :       // X86Mem <- Gp|Mm|Xmm
; 2410 :       if (encoded == ENC_OPS(Mem, Reg, None)) {

	cmp	DWORD PTR encoded$[rsp], 11
	jne	$LN1396@X86Assembl
$LN438@X86Assembl:

; 2411 :         ADD_REX_W(static_cast<const X86Reg*>(o1)->isGpq() && (info.getEncodingId() != kX86InstEncodingIdExtMovNoRexW));

	xor	eax, eax
	cmp	eax, 1
	je	SHORT $LN1397@X86Assembl
	mov	rcx, QWORD PTR o1$[rsp]
	call	?isGpq@X86Reg@asmjit@@QEBA_NXZ		; asmjit::X86Reg::isGpq
	movzx	eax, al
	test	eax, eax
	je	SHORT $LN1922@X86Assembl
	mov	rcx, QWORD PTR info$[rsp]
	call	?getEncodingId@X86InstInfo@asmjit@@QEBAIXZ ; asmjit::X86InstInfo::getEncodingId
	cmp	eax, 54					; 00000036H
	je	SHORT $LN1922@X86Assembl
	mov	DWORD PTR tv2197[rsp], 1
	jmp	SHORT $LN1923@X86Assembl
$LN1922@X86Assembl:
	mov	DWORD PTR tv2197[rsp], 0
$LN1923@X86Assembl:
	mov	eax, DWORD PTR tv2197[rsp]
	shl	eax, 31
	mov	ecx, DWORD PTR opCode$[rsp]
	or	ecx, eax
	mov	eax, ecx
	mov	DWORD PTR opCode$[rsp], eax
$LN1397@X86Assembl:
	xor	eax, eax
	test	eax, eax
	jne	SHORT $LN438@X86Assembl

; 2412 : 
; 2413 :         opReg = x86OpReg(o1);

	mov	rcx, QWORD PTR o1$[rsp]
	call	?x86OpReg@asmjit@@YAIPEBUOperand@1@@Z	; asmjit::x86OpReg
	mov	DWORD PTR opReg$[rsp], eax

; 2414 :         rmMem = x86OpMem(o0);

	mov	rcx, QWORD PTR o0$[rsp]
	call	?x86OpMem@asmjit@@YAPEBUX86Mem@1@PEBUOperand@1@@Z ; asmjit::x86OpMem
	mov	QWORD PTR $S1$[rsp], rax

; 2415 :         goto _EmitX86M;

	jmp	$LN1398@X86Assembl
	jmp	$_EmitX86M$1954
$LN1396@X86Assembl:

; 2416 :       }
; 2417 :       break;

	jmp	$LN5@X86Assembl
$LN1399@X86Assembl:

; 2418 : 
; 2419 :     case kX86InstEncodingIdExtMovBe:
; 2420 :       if (encoded == ENC_OPS(Reg, Mem, None)) {

	cmp	DWORD PTR encoded$[rsp], 25
	jne	SHORT $LN1400@X86Assembl
$LN441@X86Assembl:

; 2421 :         ADD_66H_P_BY_SIZE(o0->getSize());

	mov	rcx, QWORD PTR o0$[rsp]
	call	?getSize@Operand@asmjit@@QEBAIXZ	; asmjit::Operand::getSize
	and	eax, 2
	shl	eax, 19
	mov	ecx, DWORD PTR opCode$[rsp]
	or	ecx, eax
	mov	eax, ecx
	mov	DWORD PTR opCode$[rsp], eax
	xor	eax, eax
	test	eax, eax
	jne	SHORT $LN441@X86Assembl
$LN444@X86Assembl:

; 2422 :         ADD_REX_W_BY_SIZE(o0->getSize());

	xor	eax, eax
	cmp	eax, 1
	je	SHORT $LN1401@X86Assembl
	mov	rcx, QWORD PTR o0$[rsp]
	call	?getSize@Operand@asmjit@@QEBAIXZ	; asmjit::Operand::getSize
	cmp	eax, 8
	jne	SHORT $LN1401@X86Assembl
	mov	eax, DWORD PTR opCode$[rsp]
	bts	eax, 31
	mov	DWORD PTR opCode$[rsp], eax
$LN1401@X86Assembl:
	xor	eax, eax
	test	eax, eax
	jne	SHORT $LN444@X86Assembl

; 2423 : 
; 2424 :         opReg = x86OpReg(o0);

	mov	rcx, QWORD PTR o0$[rsp]
	call	?x86OpReg@asmjit@@YAIPEBUOperand@1@@Z	; asmjit::x86OpReg
	mov	DWORD PTR opReg$[rsp], eax

; 2425 :         rmMem = x86OpMem(o1);

	mov	rcx, QWORD PTR o1$[rsp]
	call	?x86OpMem@asmjit@@YAPEBUX86Mem@1@PEBUOperand@1@@Z ; asmjit::x86OpMem
	mov	QWORD PTR $S1$[rsp], rax

; 2426 :         goto _EmitX86M;

	jmp	$LN1402@X86Assembl
	jmp	$_EmitX86M$1954
$LN1400@X86Assembl:

; 2427 :       }
; 2428 : 
; 2429 :       // The following instruction uses the secondary opcode.
; 2430 :       opCode = extendedInfo.getSecondaryOpCode();

	mov	rcx, QWORD PTR extendedInfo$[rsp]
	call	?getSecondaryOpCode@X86InstExtendedInfo@asmjit@@QEBAIXZ ; asmjit::X86InstExtendedInfo::getSecondaryOpCode
	mov	DWORD PTR opCode$[rsp], eax

; 2431 : 
; 2432 :       if (encoded == ENC_OPS(Mem, Reg, None)) {

	cmp	DWORD PTR encoded$[rsp], 11
	jne	SHORT $LN1403@X86Assembl
$LN447@X86Assembl:

; 2433 :         ADD_66H_P_BY_SIZE(o1->getSize());

	mov	rcx, QWORD PTR o1$[rsp]
	call	?getSize@Operand@asmjit@@QEBAIXZ	; asmjit::Operand::getSize
	and	eax, 2
	shl	eax, 19
	mov	ecx, DWORD PTR opCode$[rsp]
	or	ecx, eax
	mov	eax, ecx
	mov	DWORD PTR opCode$[rsp], eax
	xor	eax, eax
	test	eax, eax
	jne	SHORT $LN447@X86Assembl
$LN450@X86Assembl:

; 2434 :         ADD_REX_W_BY_SIZE(o1->getSize());

	xor	eax, eax
	cmp	eax, 1
	je	SHORT $LN1404@X86Assembl
	mov	rcx, QWORD PTR o1$[rsp]
	call	?getSize@Operand@asmjit@@QEBAIXZ	; asmjit::Operand::getSize
	cmp	eax, 8
	jne	SHORT $LN1404@X86Assembl
	mov	eax, DWORD PTR opCode$[rsp]
	bts	eax, 31
	mov	DWORD PTR opCode$[rsp], eax
$LN1404@X86Assembl:
	xor	eax, eax
	test	eax, eax
	jne	SHORT $LN450@X86Assembl

; 2435 : 
; 2436 :         opReg = x86OpReg(o1);

	mov	rcx, QWORD PTR o1$[rsp]
	call	?x86OpReg@asmjit@@YAIPEBUOperand@1@@Z	; asmjit::x86OpReg
	mov	DWORD PTR opReg$[rsp], eax

; 2437 :         rmMem = x86OpMem(o0);

	mov	rcx, QWORD PTR o0$[rsp]
	call	?x86OpMem@asmjit@@YAPEBUX86Mem@1@PEBUOperand@1@@Z ; asmjit::x86OpMem
	mov	QWORD PTR $S1$[rsp], rax

; 2438 :         goto _EmitX86M;

	jmp	$LN1405@X86Assembl
	jmp	$_EmitX86M$1954
$LN1403@X86Assembl:

; 2439 :       }
; 2440 :       break;

	jmp	$LN5@X86Assembl
$LN1406@X86Assembl:
$_EmitMmMovD$1963:

; 2441 : 
; 2442 :     case kX86InstEncodingIdExtMovD:
; 2443 : _EmitMmMovD:
; 2444 :       opReg = x86OpReg(o0);

	mov	rcx, QWORD PTR o0$[rsp]
	call	?x86OpReg@asmjit@@YAIPEBUOperand@1@@Z	; asmjit::x86OpReg
	mov	DWORD PTR opReg$[rsp], eax
$LN453@X86Assembl:

; 2445 :       ADD_66H_P(static_cast<const X86Reg*>(o0)->isXmm());

	mov	rcx, QWORD PTR o0$[rsp]
	call	?isXmm@X86Reg@asmjit@@QEBA_NXZ		; asmjit::X86Reg::isXmm
	movzx	eax, al
	shl	eax, 20
	mov	ecx, DWORD PTR opCode$[rsp]
	or	ecx, eax
	mov	eax, ecx
	mov	DWORD PTR opCode$[rsp], eax
	xor	eax, eax
	test	eax, eax
	jne	SHORT $LN453@X86Assembl

; 2446 : 
; 2447 :       // Mm/Xmm <- Gp
; 2448 :       if (encoded == ENC_OPS(Reg, Reg, None) && static_cast<const X86Reg*>(o1)->isGp()) {

	cmp	DWORD PTR encoded$[rsp], 9
	jne	SHORT $LN1407@X86Assembl
	mov	rcx, QWORD PTR o1$[rsp]
	call	?isGp@X86Reg@asmjit@@QEBA_NXZ		; asmjit::X86Reg::isGp
	movzx	eax, al
	test	eax, eax
	je	SHORT $LN1407@X86Assembl

; 2449 :         rmReg = x86OpReg(o1);

	mov	rcx, QWORD PTR o1$[rsp]
	call	?x86OpReg@asmjit@@YAIPEBUOperand@1@@Z	; asmjit::x86OpReg
	mov	eax, eax
	mov	QWORD PTR $S1$[rsp], rax

; 2450 :         goto _EmitX86R;

	jmp	$LN1408@X86Assembl
	jmp	$_EmitX86R$1953
$LN1407@X86Assembl:

; 2451 :       }
; 2452 : 
; 2453 :       // Mm/Xmm <- Mem
; 2454 :       if (encoded == ENC_OPS(Reg, Mem, None)) {

	cmp	DWORD PTR encoded$[rsp], 25
	jne	SHORT $LN1409@X86Assembl

; 2455 :         rmMem = x86OpMem(o1);

	mov	rcx, QWORD PTR o1$[rsp]
	call	?x86OpMem@asmjit@@YAPEBUX86Mem@1@PEBUOperand@1@@Z ; asmjit::x86OpMem
	mov	QWORD PTR $S1$[rsp], rax

; 2456 :         goto _EmitX86M;

	jmp	$LN1410@X86Assembl
	jmp	$_EmitX86M$1954
$LN1409@X86Assembl:

; 2457 :       }
; 2458 : 
; 2459 :       // The following instructions use the secondary opcode.
; 2460 :       opCode = extendedInfo.getSecondaryOpCode();

	mov	rcx, QWORD PTR extendedInfo$[rsp]
	call	?getSecondaryOpCode@X86InstExtendedInfo@asmjit@@QEBAIXZ ; asmjit::X86InstExtendedInfo::getSecondaryOpCode
	mov	DWORD PTR opCode$[rsp], eax

; 2461 :       opReg = x86OpReg(o1);

	mov	rcx, QWORD PTR o1$[rsp]
	call	?x86OpReg@asmjit@@YAIPEBUOperand@1@@Z	; asmjit::x86OpReg
	mov	DWORD PTR opReg$[rsp], eax
$LN456@X86Assembl:

; 2462 :       ADD_66H_P(static_cast<const X86Reg*>(o1)->isXmm());

	mov	rcx, QWORD PTR o1$[rsp]
	call	?isXmm@X86Reg@asmjit@@QEBA_NXZ		; asmjit::X86Reg::isXmm
	movzx	eax, al
	shl	eax, 20
	mov	ecx, DWORD PTR opCode$[rsp]
	or	ecx, eax
	mov	eax, ecx
	mov	DWORD PTR opCode$[rsp], eax
	xor	eax, eax
	test	eax, eax
	jne	SHORT $LN456@X86Assembl

; 2463 : 
; 2464 :       // Gp <- Mm/Xmm
; 2465 :       if (encoded == ENC_OPS(Reg, Reg, None) && static_cast<const X86Reg*>(o0)->isGp()) {

	cmp	DWORD PTR encoded$[rsp], 9
	jne	SHORT $LN1411@X86Assembl
	mov	rcx, QWORD PTR o0$[rsp]
	call	?isGp@X86Reg@asmjit@@QEBA_NXZ		; asmjit::X86Reg::isGp
	movzx	eax, al
	test	eax, eax
	je	SHORT $LN1411@X86Assembl

; 2466 :         rmReg = x86OpReg(o0);

	mov	rcx, QWORD PTR o0$[rsp]
	call	?x86OpReg@asmjit@@YAIPEBUOperand@1@@Z	; asmjit::x86OpReg
	mov	eax, eax
	mov	QWORD PTR $S1$[rsp], rax

; 2467 :         goto _EmitX86R;

	jmp	$LN1412@X86Assembl
	jmp	$_EmitX86R$1953
$LN1411@X86Assembl:

; 2468 :       }
; 2469 : 
; 2470 :       // X86Mem <- Mm/Xmm
; 2471 :       if (encoded == ENC_OPS(Mem, Reg, None)) {

	cmp	DWORD PTR encoded$[rsp], 11
	jne	SHORT $LN1413@X86Assembl

; 2472 :         rmMem = x86OpMem(o0);

	mov	rcx, QWORD PTR o0$[rsp]
	call	?x86OpMem@asmjit@@YAPEBUX86Mem@1@PEBUOperand@1@@Z ; asmjit::x86OpMem
	mov	QWORD PTR $S1$[rsp], rax

; 2473 :         goto _EmitX86M;

	jmp	$LN1414@X86Assembl
	jmp	$_EmitX86M$1954
$LN1413@X86Assembl:

; 2474 :       }
; 2475 :       break;

	jmp	$LN5@X86Assembl
$LN1415@X86Assembl:

; 2476 : 
; 2477 :     case kX86InstEncodingIdExtMovQ:
; 2478 :       if (encoded == ENC_OPS(Reg, Reg, None)) {

	cmp	DWORD PTR encoded$[rsp], 9
	jne	$LN1416@X86Assembl

; 2479 :         opReg = x86OpReg(o0);

	mov	rcx, QWORD PTR o0$[rsp]
	call	?x86OpReg@asmjit@@YAIPEBUOperand@1@@Z	; asmjit::x86OpReg
	mov	DWORD PTR opReg$[rsp], eax

; 2480 :         rmReg = x86OpReg(o1);

	mov	rcx, QWORD PTR o1$[rsp]
	call	?x86OpReg@asmjit@@YAIPEBUOperand@1@@Z	; asmjit::x86OpReg
	mov	eax, eax
	mov	QWORD PTR $S1$[rsp], rax

; 2481 : 
; 2482 :         // Mm <- Mm
; 2483 :         if (static_cast<const X86Reg*>(o0)->isMm() && static_cast<const X86Reg*>(o1)->isMm()) {

	mov	rcx, QWORD PTR o0$[rsp]
	call	?isMm@X86Reg@asmjit@@QEBA_NXZ		; asmjit::X86Reg::isMm
	movzx	eax, al
	test	eax, eax
	je	SHORT $LN1417@X86Assembl
	mov	rcx, QWORD PTR o1$[rsp]
	call	?isMm@X86Reg@asmjit@@QEBA_NXZ		; asmjit::X86Reg::isMm
	movzx	eax, al
	test	eax, eax
	je	SHORT $LN1417@X86Assembl

; 2484 :           opCode = kX86InstOpCode_PP_00 | kX86InstOpCode_MM_0F | 0x6F;

	mov	DWORD PTR opCode$[rsp], 65647		; 0001006fH

; 2485 :           goto _EmitX86R;

	jmp	$LN1418@X86Assembl
	jmp	$_EmitX86R$1953
$LN1417@X86Assembl:

; 2486 :         }
; 2487 : 
; 2488 :         // Xmm <- Xmm
; 2489 :         if (static_cast<const X86Reg*>(o0)->isXmm() && static_cast<const X86Reg*>(o1)->isXmm()) {

	mov	rcx, QWORD PTR o0$[rsp]
	call	?isXmm@X86Reg@asmjit@@QEBA_NXZ		; asmjit::X86Reg::isXmm
	movzx	eax, al
	test	eax, eax
	je	SHORT $LN1419@X86Assembl
	mov	rcx, QWORD PTR o1$[rsp]
	call	?isXmm@X86Reg@asmjit@@QEBA_NXZ		; asmjit::X86Reg::isXmm
	movzx	eax, al
	test	eax, eax
	je	SHORT $LN1419@X86Assembl

; 2490 :           opCode = kX86InstOpCode_PP_F3 | kX86InstOpCode_MM_0F | 0x7E;

	mov	DWORD PTR opCode$[rsp], 2162814		; 0021007eH

; 2491 :           goto _EmitX86R;

	jmp	$LN1420@X86Assembl
	jmp	$_EmitX86R$1953
$LN1419@X86Assembl:

; 2492 :         }
; 2493 : 
; 2494 :         // Mm <- Xmm (Movdq2q)
; 2495 :         if (static_cast<const X86Reg*>(o0)->isMm() && static_cast<const X86Reg*>(o1)->isXmm()) {

	mov	rcx, QWORD PTR o0$[rsp]
	call	?isMm@X86Reg@asmjit@@QEBA_NXZ		; asmjit::X86Reg::isMm
	movzx	eax, al
	test	eax, eax
	je	SHORT $LN1421@X86Assembl
	mov	rcx, QWORD PTR o1$[rsp]
	call	?isXmm@X86Reg@asmjit@@QEBA_NXZ		; asmjit::X86Reg::isXmm
	movzx	eax, al
	test	eax, eax
	je	SHORT $LN1421@X86Assembl

; 2496 :           opCode = kX86InstOpCode_PP_F2 | kX86InstOpCode_MM_0F | 0xD6;

	mov	DWORD PTR opCode$[rsp], 3211478		; 003100d6H

; 2497 :           goto _EmitX86R;

	jmp	$LN1422@X86Assembl
	jmp	$_EmitX86R$1953
$LN1421@X86Assembl:

; 2498 :         }
; 2499 : 
; 2500 :         // Xmm <- Mm (Movq2dq)
; 2501 :         if (static_cast<const X86Reg*>(o0)->isXmm() && static_cast<const X86Reg*>(o1)->isMm()) {

	mov	rcx, QWORD PTR o0$[rsp]
	call	?isXmm@X86Reg@asmjit@@QEBA_NXZ		; asmjit::X86Reg::isXmm
	movzx	eax, al
	test	eax, eax
	je	SHORT $LN1423@X86Assembl
	mov	rcx, QWORD PTR o1$[rsp]
	call	?isMm@X86Reg@asmjit@@QEBA_NXZ		; asmjit::X86Reg::isMm
	movzx	eax, al
	test	eax, eax
	je	SHORT $LN1423@X86Assembl

; 2502 :           opCode = kX86InstOpCode_PP_F3 | kX86InstOpCode_MM_0F | 0xD6;

	mov	DWORD PTR opCode$[rsp], 2162902		; 002100d6H

; 2503 :           goto _EmitX86R;

	jmp	$LN1424@X86Assembl
	jmp	$_EmitX86R$1953
$LN1423@X86Assembl:
$LN1416@X86Assembl:

; 2504 :         }
; 2505 :       }
; 2506 : 
; 2507 :       if (encoded == ENC_OPS(Reg, Mem, None)) {

	cmp	DWORD PTR encoded$[rsp], 25
	jne	SHORT $LN1425@X86Assembl

; 2508 :         opReg = x86OpReg(o0);

	mov	rcx, QWORD PTR o0$[rsp]
	call	?x86OpReg@asmjit@@YAIPEBUOperand@1@@Z	; asmjit::x86OpReg
	mov	DWORD PTR opReg$[rsp], eax

; 2509 :         rmMem = x86OpMem(o1);

	mov	rcx, QWORD PTR o1$[rsp]
	call	?x86OpMem@asmjit@@YAPEBUX86Mem@1@PEBUOperand@1@@Z ; asmjit::x86OpMem
	mov	QWORD PTR $S1$[rsp], rax

; 2510 : 
; 2511 :         // Mm <- Mem
; 2512 :         if (static_cast<const X86Reg*>(o0)->isMm()) {

	mov	rcx, QWORD PTR o0$[rsp]
	call	?isMm@X86Reg@asmjit@@QEBA_NXZ		; asmjit::X86Reg::isMm
	movzx	eax, al
	test	eax, eax
	je	SHORT $LN1426@X86Assembl

; 2513 :           opCode = kX86InstOpCode_PP_00 | kX86InstOpCode_MM_0F | 0x6F;

	mov	DWORD PTR opCode$[rsp], 65647		; 0001006fH

; 2514 :           goto _EmitX86M;

	jmp	$LN1427@X86Assembl
	jmp	$_EmitX86M$1954
$LN1426@X86Assembl:

; 2515 :         }
; 2516 : 
; 2517 :         // Xmm <- Mem
; 2518 :         if (static_cast<const X86Reg*>(o0)->isXmm()) {

	mov	rcx, QWORD PTR o0$[rsp]
	call	?isXmm@X86Reg@asmjit@@QEBA_NXZ		; asmjit::X86Reg::isXmm
	movzx	eax, al
	test	eax, eax
	je	SHORT $LN1428@X86Assembl

; 2519 :           opCode = kX86InstOpCode_PP_F3 | kX86InstOpCode_MM_0F | 0x7E;

	mov	DWORD PTR opCode$[rsp], 2162814		; 0021007eH

; 2520 :           goto _EmitX86M;

	jmp	$LN1429@X86Assembl
	jmp	$_EmitX86M$1954
$LN1428@X86Assembl:
$LN1425@X86Assembl:

; 2521 :         }
; 2522 :       }
; 2523 : 
; 2524 :       if (encoded == ENC_OPS(Mem, Reg, None)) {

	cmp	DWORD PTR encoded$[rsp], 11
	jne	SHORT $LN1430@X86Assembl

; 2525 :         opReg = x86OpReg(o1);

	mov	rcx, QWORD PTR o1$[rsp]
	call	?x86OpReg@asmjit@@YAIPEBUOperand@1@@Z	; asmjit::x86OpReg
	mov	DWORD PTR opReg$[rsp], eax

; 2526 :         rmMem = x86OpMem(o0);

	mov	rcx, QWORD PTR o0$[rsp]
	call	?x86OpMem@asmjit@@YAPEBUX86Mem@1@PEBUOperand@1@@Z ; asmjit::x86OpMem
	mov	QWORD PTR $S1$[rsp], rax

; 2527 : 
; 2528 :         // X86Mem <- Mm
; 2529 :         if (static_cast<const X86Reg*>(o1)->isMm()) {

	mov	rcx, QWORD PTR o1$[rsp]
	call	?isMm@X86Reg@asmjit@@QEBA_NXZ		; asmjit::X86Reg::isMm
	movzx	eax, al
	test	eax, eax
	je	SHORT $LN1431@X86Assembl

; 2530 :           opCode = kX86InstOpCode_PP_00 | kX86InstOpCode_MM_0F | 0x7F;

	mov	DWORD PTR opCode$[rsp], 65663		; 0001007fH

; 2531 :           goto _EmitX86M;

	jmp	$LN1432@X86Assembl
	jmp	$_EmitX86M$1954
$LN1431@X86Assembl:

; 2532 :         }
; 2533 : 
; 2534 :         // X86Mem <- Xmm
; 2535 :         if (static_cast<const X86Reg*>(o1)->isXmm()) {

	mov	rcx, QWORD PTR o1$[rsp]
	call	?isXmm@X86Reg@asmjit@@QEBA_NXZ		; asmjit::X86Reg::isXmm
	movzx	eax, al
	test	eax, eax
	je	SHORT $LN1433@X86Assembl

; 2536 :           opCode = kX86InstOpCode_PP_66 | kX86InstOpCode_MM_0F | 0xD6;

	mov	DWORD PTR opCode$[rsp], 1114326		; 001100d6H

; 2537 :           goto _EmitX86M;

	jmp	$LN1434@X86Assembl
	jmp	$_EmitX86M$1954
$LN1433@X86Assembl:
$LN1430@X86Assembl:

; 2538 :         }
; 2539 :       }
; 2540 : 
; 2541 :       if (Arch == kArchX64) {

	xor	eax, eax
	cmp	eax, 1
	je	SHORT $LN1435@X86Assembl

; 2542 :         // Movq in other case is simply a MOVD instruction promoted to 64-bit.
; 2543 :         opCode |= kX86InstOpCode_W;

	mov	eax, DWORD PTR opCode$[rsp]
	bts	eax, 31
	mov	DWORD PTR opCode$[rsp], eax

; 2544 :         goto _EmitMmMovD;

	jmp	$_EmitMmMovD$1963
$LN1435@X86Assembl:

; 2545 :       }
; 2546 :       break;

	jmp	$LN5@X86Assembl
$LN1436@X86Assembl:

; 2547 : 
; 2548 :     case kX86InstEncodingIdExtPrefetch:
; 2549 :       if (encoded == ENC_OPS(Mem, Imm, None)) {

	cmp	DWORD PTR encoded$[rsp], 35		; 00000023H
	jne	SHORT $LN1437@X86Assembl

; 2550 :         opReg = static_cast<const Imm*>(o1)->getUInt32() & 0x3;

	mov	rcx, QWORD PTR o1$[rsp]
	call	?getUInt32@Imm@asmjit@@QEBAIXZ		; asmjit::Imm::getUInt32
	and	eax, 3
	mov	DWORD PTR opReg$[rsp], eax

; 2551 :         rmMem = x86OpMem(o0);

	mov	rcx, QWORD PTR o0$[rsp]
	call	?x86OpMem@asmjit@@YAPEBUX86Mem@1@PEBUOperand@1@@Z ; asmjit::x86OpMem
	mov	QWORD PTR $S1$[rsp], rax

; 2552 :         goto _EmitX86M;

	jmp	$LN1438@X86Assembl
	jmp	$_EmitX86M$1954
$LN1437@X86Assembl:

; 2553 :       }
; 2554 :       break;

	jmp	$LN5@X86Assembl
$LN1439@X86Assembl:
$LN459@X86Assembl:

; 2555 : 
; 2556 :     case kX86InstEncodingIdExtRm_PQ:
; 2557 :       ADD_66H_P(o0->isRegType(kX86RegTypeXmm) || o1->isRegType(kX86RegTypeXmm));

	mov	edx, 112				; 00000070H
	mov	rcx, QWORD PTR o0$[rsp]
	call	?isRegType@Operand@asmjit@@QEBA_NI@Z	; asmjit::Operand::isRegType
	movzx	eax, al
	test	eax, eax
	jne	SHORT $LN1924@X86Assembl
	mov	edx, 112				; 00000070H
	mov	rcx, QWORD PTR o1$[rsp]
	call	?isRegType@Operand@asmjit@@QEBA_NI@Z	; asmjit::Operand::isRegType
	movzx	eax, al
	test	eax, eax
	jne	SHORT $LN1924@X86Assembl
	mov	DWORD PTR tv2431[rsp], 0
	jmp	SHORT $LN1925@X86Assembl
$LN1924@X86Assembl:
	mov	DWORD PTR tv2431[rsp], 1
$LN1925@X86Assembl:
	mov	eax, DWORD PTR tv2431[rsp]
	shl	eax, 20
	mov	ecx, DWORD PTR opCode$[rsp]
	or	ecx, eax
	mov	eax, ecx
	mov	DWORD PTR opCode$[rsp], eax
	xor	eax, eax
	test	eax, eax
	jne	SHORT $LN459@X86Assembl
$LN1440@X86Assembl:
$LN462@X86Assembl:

; 2558 :       // ... Fall through ...
; 2559 : 
; 2560 :     case kX86InstEncodingIdExtRm_Q:
; 2561 :       ADD_REX_W(o0->isRegType(kX86RegTypeGpq) || o1->isRegType(kX86RegTypeGpq) || (o1->isMem() && o1->getSize() == 8));

	xor	eax, eax
	cmp	eax, 1
	je	$LN1441@X86Assembl
	mov	edx, 48					; 00000030H
	mov	rcx, QWORD PTR o0$[rsp]
	call	?isRegType@Operand@asmjit@@QEBA_NI@Z	; asmjit::Operand::isRegType
	movzx	eax, al
	test	eax, eax
	jne	SHORT $LN1926@X86Assembl
	mov	edx, 48					; 00000030H
	mov	rcx, QWORD PTR o1$[rsp]
	call	?isRegType@Operand@asmjit@@QEBA_NI@Z	; asmjit::Operand::isRegType
	movzx	eax, al
	test	eax, eax
	jne	SHORT $LN1926@X86Assembl
	mov	rcx, QWORD PTR o1$[rsp]
	call	?isMem@Operand@asmjit@@QEBA_NXZ		; asmjit::Operand::isMem
	movzx	eax, al
	test	eax, eax
	je	SHORT $LN1927@X86Assembl
	mov	rcx, QWORD PTR o1$[rsp]
	call	?getSize@Operand@asmjit@@QEBAIXZ	; asmjit::Operand::getSize
	cmp	eax, 8
	je	SHORT $LN1926@X86Assembl
$LN1927@X86Assembl:
	mov	DWORD PTR tv2453[rsp], 0
	jmp	SHORT $LN1928@X86Assembl
$LN1926@X86Assembl:
	mov	DWORD PTR tv2453[rsp], 1
$LN1928@X86Assembl:
	mov	eax, DWORD PTR tv2453[rsp]
	shl	eax, 31
	mov	ecx, DWORD PTR opCode$[rsp]
	or	ecx, eax
	mov	eax, ecx
	mov	DWORD PTR opCode$[rsp], eax
$LN1441@X86Assembl:
	xor	eax, eax
	test	eax, eax
	jne	$LN462@X86Assembl
$LN1442@X86Assembl:

; 2562 :       // ... Fall through ...
; 2563 : 
; 2564 :     case kX86InstEncodingIdExtRm:
; 2565 :       if (encoded == ENC_OPS(Reg, Reg, None)) {

	cmp	DWORD PTR encoded$[rsp], 9
	jne	SHORT $LN1443@X86Assembl

; 2566 :         opReg = x86OpReg(o0);

	mov	rcx, QWORD PTR o0$[rsp]
	call	?x86OpReg@asmjit@@YAIPEBUOperand@1@@Z	; asmjit::x86OpReg
	mov	DWORD PTR opReg$[rsp], eax

; 2567 :         rmReg = x86OpReg(o1);

	mov	rcx, QWORD PTR o1$[rsp]
	call	?x86OpReg@asmjit@@YAIPEBUOperand@1@@Z	; asmjit::x86OpReg
	mov	eax, eax
	mov	QWORD PTR $S1$[rsp], rax

; 2568 :         goto _EmitX86R;

	jmp	$LN1444@X86Assembl
	jmp	$_EmitX86R$1953
$LN1443@X86Assembl:

; 2569 :       }
; 2570 : 
; 2571 :       if (encoded == ENC_OPS(Reg, Mem, None)) {

	cmp	DWORD PTR encoded$[rsp], 25
	jne	SHORT $LN1445@X86Assembl

; 2572 :         opReg = x86OpReg(o0);

	mov	rcx, QWORD PTR o0$[rsp]
	call	?x86OpReg@asmjit@@YAIPEBUOperand@1@@Z	; asmjit::x86OpReg
	mov	DWORD PTR opReg$[rsp], eax

; 2573 :         rmMem = x86OpMem(o1);

	mov	rcx, QWORD PTR o1$[rsp]
	call	?x86OpMem@asmjit@@YAPEBUX86Mem@1@PEBUOperand@1@@Z ; asmjit::x86OpMem
	mov	QWORD PTR $S1$[rsp], rax

; 2574 :         goto _EmitX86M;

	jmp	$LN1446@X86Assembl
	jmp	$_EmitX86M$1954
$LN1445@X86Assembl:

; 2575 :       }
; 2576 :       break;

	jmp	$LN5@X86Assembl
$LN1447@X86Assembl:

; 2577 : 
; 2578 :     case kX86InstEncodingIdExtRm_P:
; 2579 :       if (encoded == ENC_OPS(Reg, Reg, None)) {

	cmp	DWORD PTR encoded$[rsp], 9
	jne	$LN1448@X86Assembl
$LN465@X86Assembl:

; 2580 :         ADD_66H_P(static_cast<const X86Reg*>(o0)->isXmm() | static_cast<const X86Reg*>(o1)->isXmm());

	mov	rcx, QWORD PTR o0$[rsp]
	call	?isXmm@X86Reg@asmjit@@QEBA_NXZ		; asmjit::X86Reg::isXmm
	movzx	eax, al
	mov	DWORD PTR tv2486[rsp], eax
	mov	rcx, QWORD PTR o1$[rsp]
	call	?isXmm@X86Reg@asmjit@@QEBA_NXZ		; asmjit::X86Reg::isXmm
	movzx	eax, al
	mov	DWORD PTR tv2484[rsp], eax
	mov	eax, DWORD PTR tv2484[rsp]
	mov	ecx, DWORD PTR tv2486[rsp]
	or	ecx, eax
	mov	eax, ecx
	shl	eax, 20
	mov	ecx, DWORD PTR opCode$[rsp]
	or	ecx, eax
	mov	eax, ecx
	mov	DWORD PTR opCode$[rsp], eax
	xor	eax, eax
	test	eax, eax
	jne	SHORT $LN465@X86Assembl

; 2581 : 
; 2582 :         opReg = x86OpReg(o0);

	mov	rcx, QWORD PTR o0$[rsp]
	call	?x86OpReg@asmjit@@YAIPEBUOperand@1@@Z	; asmjit::x86OpReg
	mov	DWORD PTR opReg$[rsp], eax

; 2583 :         rmReg = x86OpReg(o1);

	mov	rcx, QWORD PTR o1$[rsp]
	call	?x86OpReg@asmjit@@YAIPEBUOperand@1@@Z	; asmjit::x86OpReg
	mov	eax, eax
	mov	QWORD PTR $S1$[rsp], rax

; 2584 :         goto _EmitX86R;

	jmp	$LN1449@X86Assembl
	jmp	$_EmitX86R$1953
$LN1448@X86Assembl:

; 2585 :       }
; 2586 : 
; 2587 :       if (encoded == ENC_OPS(Reg, Mem, None)) {

	cmp	DWORD PTR encoded$[rsp], 25
	jne	SHORT $LN1450@X86Assembl
$LN468@X86Assembl:

; 2588 :         ADD_66H_P(static_cast<const X86Reg*>(o0)->isXmm());

	mov	rcx, QWORD PTR o0$[rsp]
	call	?isXmm@X86Reg@asmjit@@QEBA_NXZ		; asmjit::X86Reg::isXmm
	movzx	eax, al
	shl	eax, 20
	mov	ecx, DWORD PTR opCode$[rsp]
	or	ecx, eax
	mov	eax, ecx
	mov	DWORD PTR opCode$[rsp], eax
	xor	eax, eax
	test	eax, eax
	jne	SHORT $LN468@X86Assembl

; 2589 : 
; 2590 :         opReg = x86OpReg(o0);

	mov	rcx, QWORD PTR o0$[rsp]
	call	?x86OpReg@asmjit@@YAIPEBUOperand@1@@Z	; asmjit::x86OpReg
	mov	DWORD PTR opReg$[rsp], eax

; 2591 :         rmMem = x86OpMem(o1);

	mov	rcx, QWORD PTR o1$[rsp]
	call	?x86OpMem@asmjit@@YAPEBUX86Mem@1@PEBUOperand@1@@Z ; asmjit::x86OpMem
	mov	QWORD PTR $S1$[rsp], rax

; 2592 :         goto _EmitX86M;

	jmp	$LN1451@X86Assembl
	jmp	$_EmitX86M$1954
$LN1450@X86Assembl:

; 2593 :       }
; 2594 :       break;

	jmp	$LN5@X86Assembl
$LN1452@X86Assembl:

; 2595 : 
; 2596 :     case kX86InstEncodingIdExtRmRi:
; 2597 :       if (encoded == ENC_OPS(Reg, Reg, None)) {

	cmp	DWORD PTR encoded$[rsp], 9
	jne	SHORT $LN1453@X86Assembl

; 2598 :         opReg = x86OpReg(o0);

	mov	rcx, QWORD PTR o0$[rsp]
	call	?x86OpReg@asmjit@@YAIPEBUOperand@1@@Z	; asmjit::x86OpReg
	mov	DWORD PTR opReg$[rsp], eax

; 2599 :         rmReg = x86OpReg(o1);

	mov	rcx, QWORD PTR o1$[rsp]
	call	?x86OpReg@asmjit@@YAIPEBUOperand@1@@Z	; asmjit::x86OpReg
	mov	eax, eax
	mov	QWORD PTR $S1$[rsp], rax

; 2600 :         goto _EmitX86R;

	jmp	$LN1454@X86Assembl
	jmp	$_EmitX86R$1953
$LN1453@X86Assembl:

; 2601 :       }
; 2602 : 
; 2603 :       if (encoded == ENC_OPS(Reg, Mem, None)) {

	cmp	DWORD PTR encoded$[rsp], 25
	jne	SHORT $LN1455@X86Assembl

; 2604 :         opReg = x86OpReg(o0);

	mov	rcx, QWORD PTR o0$[rsp]
	call	?x86OpReg@asmjit@@YAIPEBUOperand@1@@Z	; asmjit::x86OpReg
	mov	DWORD PTR opReg$[rsp], eax

; 2605 :         rmMem = x86OpMem(o1);

	mov	rcx, QWORD PTR o1$[rsp]
	call	?x86OpMem@asmjit@@YAPEBUX86Mem@1@PEBUOperand@1@@Z ; asmjit::x86OpMem
	mov	QWORD PTR $S1$[rsp], rax

; 2606 :         goto _EmitX86M;

	jmp	$LN1456@X86Assembl
	jmp	$_EmitX86M$1954
$LN1455@X86Assembl:

; 2607 :       }
; 2608 : 
; 2609 :       // The following instruction uses the secondary opcode.
; 2610 :       opCode = extendedInfo.getSecondaryOpCode();

	mov	rcx, QWORD PTR extendedInfo$[rsp]
	call	?getSecondaryOpCode@X86InstExtendedInfo@asmjit@@QEBAIXZ ; asmjit::X86InstExtendedInfo::getSecondaryOpCode
	mov	DWORD PTR opCode$[rsp], eax

; 2611 :       opReg  = x86ExtractO(opCode);

	mov	ecx, DWORD PTR opCode$[rsp]
	call	?x86ExtractO@asmjit@@YAII@Z		; asmjit::x86ExtractO
	mov	DWORD PTR opReg$[rsp], eax

; 2612 : 
; 2613 :       if (encoded == ENC_OPS(Reg, Imm, None)) {

	cmp	DWORD PTR encoded$[rsp], 33		; 00000021H
	jne	SHORT $LN1457@X86Assembl

; 2614 :         imVal = static_cast<const Imm*>(o1)->getInt64();

	mov	rcx, QWORD PTR o1$[rsp]
	call	?getInt64@Imm@asmjit@@QEBA_JXZ		; asmjit::Imm::getInt64
	mov	QWORD PTR imVal$[rsp], rax

; 2615 :         imLen = 1;

	mov	DWORD PTR imLen$[rsp], 1

; 2616 : 
; 2617 :         rmReg = x86OpReg(o0);

	mov	rcx, QWORD PTR o0$[rsp]
	call	?x86OpReg@asmjit@@YAIPEBUOperand@1@@Z	; asmjit::x86OpReg
	mov	eax, eax
	mov	QWORD PTR $S1$[rsp], rax

; 2618 :         goto _EmitX86R;

	jmp	$LN1458@X86Assembl
	jmp	$_EmitX86R$1953
$LN1457@X86Assembl:

; 2619 :       }
; 2620 :       break;

	jmp	$LN5@X86Assembl
$LN1459@X86Assembl:

; 2621 : 
; 2622 :     case kX86InstEncodingIdExtRmRi_P:
; 2623 :       if (encoded == ENC_OPS(Reg, Reg, None)) {

	cmp	DWORD PTR encoded$[rsp], 9
	jne	$LN1460@X86Assembl
$LN471@X86Assembl:

; 2624 :         ADD_66H_P(static_cast<const X86Reg*>(o0)->isXmm() | static_cast<const X86Reg*>(o1)->isXmm());

	mov	rcx, QWORD PTR o0$[rsp]
	call	?isXmm@X86Reg@asmjit@@QEBA_NXZ		; asmjit::X86Reg::isXmm
	movzx	eax, al
	mov	DWORD PTR tv2554[rsp], eax
	mov	rcx, QWORD PTR o1$[rsp]
	call	?isXmm@X86Reg@asmjit@@QEBA_NXZ		; asmjit::X86Reg::isXmm
	movzx	eax, al
	mov	DWORD PTR tv2552[rsp], eax
	mov	eax, DWORD PTR tv2552[rsp]
	mov	ecx, DWORD PTR tv2554[rsp]
	or	ecx, eax
	mov	eax, ecx
	shl	eax, 20
	mov	ecx, DWORD PTR opCode$[rsp]
	or	ecx, eax
	mov	eax, ecx
	mov	DWORD PTR opCode$[rsp], eax
	xor	eax, eax
	test	eax, eax
	jne	SHORT $LN471@X86Assembl

; 2625 : 
; 2626 :         opReg = x86OpReg(o0);

	mov	rcx, QWORD PTR o0$[rsp]
	call	?x86OpReg@asmjit@@YAIPEBUOperand@1@@Z	; asmjit::x86OpReg
	mov	DWORD PTR opReg$[rsp], eax

; 2627 :         rmReg = x86OpReg(o1);

	mov	rcx, QWORD PTR o1$[rsp]
	call	?x86OpReg@asmjit@@YAIPEBUOperand@1@@Z	; asmjit::x86OpReg
	mov	eax, eax
	mov	QWORD PTR $S1$[rsp], rax

; 2628 :         goto _EmitX86R;

	jmp	$LN1461@X86Assembl
	jmp	$_EmitX86R$1953
$LN1460@X86Assembl:

; 2629 :       }
; 2630 : 
; 2631 :       if (encoded == ENC_OPS(Reg, Mem, None)) {

	cmp	DWORD PTR encoded$[rsp], 25
	jne	SHORT $LN1462@X86Assembl
$LN474@X86Assembl:

; 2632 :         ADD_66H_P(static_cast<const X86Reg*>(o0)->isXmm());

	mov	rcx, QWORD PTR o0$[rsp]
	call	?isXmm@X86Reg@asmjit@@QEBA_NXZ		; asmjit::X86Reg::isXmm
	movzx	eax, al
	shl	eax, 20
	mov	ecx, DWORD PTR opCode$[rsp]
	or	ecx, eax
	mov	eax, ecx
	mov	DWORD PTR opCode$[rsp], eax
	xor	eax, eax
	test	eax, eax
	jne	SHORT $LN474@X86Assembl

; 2633 : 
; 2634 :         opReg = x86OpReg(o0);

	mov	rcx, QWORD PTR o0$[rsp]
	call	?x86OpReg@asmjit@@YAIPEBUOperand@1@@Z	; asmjit::x86OpReg
	mov	DWORD PTR opReg$[rsp], eax

; 2635 :         rmMem = x86OpMem(o1);

	mov	rcx, QWORD PTR o1$[rsp]
	call	?x86OpMem@asmjit@@YAPEBUX86Mem@1@PEBUOperand@1@@Z ; asmjit::x86OpMem
	mov	QWORD PTR $S1$[rsp], rax

; 2636 :         goto _EmitX86M;

	jmp	$LN1463@X86Assembl
	jmp	$_EmitX86M$1954
$LN1462@X86Assembl:

; 2637 :       }
; 2638 : 
; 2639 :       // The following instruction uses the secondary opcode.
; 2640 :       opCode = extendedInfo.getSecondaryOpCode();

	mov	rcx, QWORD PTR extendedInfo$[rsp]
	call	?getSecondaryOpCode@X86InstExtendedInfo@asmjit@@QEBAIXZ ; asmjit::X86InstExtendedInfo::getSecondaryOpCode
	mov	DWORD PTR opCode$[rsp], eax

; 2641 :       opReg  = x86ExtractO(opCode);

	mov	ecx, DWORD PTR opCode$[rsp]
	call	?x86ExtractO@asmjit@@YAII@Z		; asmjit::x86ExtractO
	mov	DWORD PTR opReg$[rsp], eax

; 2642 : 
; 2643 :       if (encoded == ENC_OPS(Reg, Imm, None)) {

	cmp	DWORD PTR encoded$[rsp], 33		; 00000021H
	jne	SHORT $LN1464@X86Assembl
$LN477@X86Assembl:

; 2644 :         ADD_66H_P(static_cast<const X86Reg*>(o0)->isXmm());

	mov	rcx, QWORD PTR o0$[rsp]
	call	?isXmm@X86Reg@asmjit@@QEBA_NXZ		; asmjit::X86Reg::isXmm
	movzx	eax, al
	shl	eax, 20
	mov	ecx, DWORD PTR opCode$[rsp]
	or	ecx, eax
	mov	eax, ecx
	mov	DWORD PTR opCode$[rsp], eax
	xor	eax, eax
	test	eax, eax
	jne	SHORT $LN477@X86Assembl

; 2645 : 
; 2646 :         imVal = static_cast<const Imm*>(o1)->getInt64();

	mov	rcx, QWORD PTR o1$[rsp]
	call	?getInt64@Imm@asmjit@@QEBA_JXZ		; asmjit::Imm::getInt64
	mov	QWORD PTR imVal$[rsp], rax

; 2647 :         imLen = 1;

	mov	DWORD PTR imLen$[rsp], 1

; 2648 : 
; 2649 :         rmReg = x86OpReg(o0);

	mov	rcx, QWORD PTR o0$[rsp]
	call	?x86OpReg@asmjit@@YAIPEBUOperand@1@@Z	; asmjit::x86OpReg
	mov	eax, eax
	mov	QWORD PTR $S1$[rsp], rax

; 2650 :         goto _EmitX86R;

	jmp	$LN1465@X86Assembl
	jmp	$_EmitX86R$1953
$LN1464@X86Assembl:

; 2651 :       }
; 2652 :       break;

	jmp	$LN5@X86Assembl
$LN1466@X86Assembl:

; 2653 : 
; 2654 :     case kX86InstEncodingIdExtRmi:
; 2655 :       imVal = static_cast<const Imm*>(o2)->getInt64();

	mov	rcx, QWORD PTR o2$[rsp]
	call	?getInt64@Imm@asmjit@@QEBA_JXZ		; asmjit::Imm::getInt64
	mov	QWORD PTR imVal$[rsp], rax

; 2656 :       imLen = 1;

	mov	DWORD PTR imLen$[rsp], 1

; 2657 : 
; 2658 :       if (encoded == ENC_OPS(Reg, Reg, Imm)) {

	cmp	DWORD PTR encoded$[rsp], 265		; 00000109H
	jne	SHORT $LN1467@X86Assembl

; 2659 :         opReg = x86OpReg(o0);

	mov	rcx, QWORD PTR o0$[rsp]
	call	?x86OpReg@asmjit@@YAIPEBUOperand@1@@Z	; asmjit::x86OpReg
	mov	DWORD PTR opReg$[rsp], eax

; 2660 :         rmReg = x86OpReg(o1);

	mov	rcx, QWORD PTR o1$[rsp]
	call	?x86OpReg@asmjit@@YAIPEBUOperand@1@@Z	; asmjit::x86OpReg
	mov	eax, eax
	mov	QWORD PTR $S1$[rsp], rax

; 2661 :         goto _EmitX86R;

	jmp	$LN1468@X86Assembl
	jmp	$_EmitX86R$1953
$LN1467@X86Assembl:

; 2662 :       }
; 2663 : 
; 2664 :       if (encoded == ENC_OPS(Reg, Mem, Imm)) {

	cmp	DWORD PTR encoded$[rsp], 281		; 00000119H
	jne	SHORT $LN1469@X86Assembl

; 2665 :         opReg = x86OpReg(o0);

	mov	rcx, QWORD PTR o0$[rsp]
	call	?x86OpReg@asmjit@@YAIPEBUOperand@1@@Z	; asmjit::x86OpReg
	mov	DWORD PTR opReg$[rsp], eax

; 2666 :         rmMem = x86OpMem(o1);

	mov	rcx, QWORD PTR o1$[rsp]
	call	?x86OpMem@asmjit@@YAPEBUX86Mem@1@PEBUOperand@1@@Z ; asmjit::x86OpMem
	mov	QWORD PTR $S1$[rsp], rax

; 2667 :         goto _EmitX86M;

	jmp	$LN1470@X86Assembl
	jmp	$_EmitX86M$1954
$LN1469@X86Assembl:

; 2668 :       }
; 2669 :       break;

	jmp	$LN5@X86Assembl
$LN1471@X86Assembl:

; 2670 : 
; 2671 :     case kX86InstEncodingIdExtRmi_P:
; 2672 :       imVal = static_cast<const Imm*>(o2)->getInt64();

	mov	rcx, QWORD PTR o2$[rsp]
	call	?getInt64@Imm@asmjit@@QEBA_JXZ		; asmjit::Imm::getInt64
	mov	QWORD PTR imVal$[rsp], rax

; 2673 :       imLen = 1;

	mov	DWORD PTR imLen$[rsp], 1

; 2674 : 
; 2675 :       if (encoded == ENC_OPS(Reg, Reg, Imm)) {

	cmp	DWORD PTR encoded$[rsp], 265		; 00000109H
	jne	$LN1472@X86Assembl
$LN480@X86Assembl:

; 2676 :         ADD_66H_P(static_cast<const X86Reg*>(o0)->isXmm() | static_cast<const X86Reg*>(o1)->isXmm());

	mov	rcx, QWORD PTR o0$[rsp]
	call	?isXmm@X86Reg@asmjit@@QEBA_NXZ		; asmjit::X86Reg::isXmm
	movzx	eax, al
	mov	DWORD PTR tv2644[rsp], eax
	mov	rcx, QWORD PTR o1$[rsp]
