; Listing generated by Microsoft (R) Optimizing Compiler Version 19.43.34810.0 

include listing.inc

INCLUDELIB LIBCMT
INCLUDELIB OLDNAMES

PUBLIC	?_x86InstExtendedInfo@asmjit@@3QBUX86InstExtendedInfo@1@B ; asmjit::_x86InstExtendedInfo
PUBLIC	?_x86InstInfo@asmjit@@3QBUX86InstInfo@1@B	; asmjit::_x86InstInfo
PUBLIC	?_x86ReverseCond@asmjit@@3QBIB			; asmjit::_x86ReverseCond
PUBLIC	?_x86CondToCmovcc@asmjit@@3QBIB			; asmjit::_x86CondToCmovcc
PUBLIC	?_x86CondToJcc@asmjit@@3QBIB			; asmjit::_x86CondToJcc
PUBLIC	?_x86CondToSetcc@asmjit@@3QBIB			; asmjit::_x86CondToSetcc
CONST	SEGMENT
?NoInit@asmjit@@3U_NoInit@1@B	ORG $+1			; asmjit::NoInit
	ORG $+15
?_x86InstExtendedInfo@asmjit@@3QBUX86InstExtendedInfo@1@B DB 00H ; asmjit::_x86InstExtendedInfo
	DB	00H
	DB	00H
	DB	00H
	DB	00H
	DB	00H
	DW	00H
	DW	00H
	DW	00H
	DW	00H
	DW	00H
	DD	00H
	DD	00H
	DB	08H
	DB	00H
	DB	00H
	DB	020H
	DB	03fH
	DB	00H
	DW	0100fH
	DW	0300fH
	DW	00H
	DW	00H
	DW	00H
	DD	020H
	DD	00H
	DB	08H
	DB	00H
	DB	00H
	DB	00H
	DB	03fH
	DB	00H
	DW	0100fH
	DW	0300fH
	DW	00H
	DW	00H
	DW	00H
	DD	020H
	DD	00H
	DB	02aH
	DB	00H
	DB	00H
	DB	00H
	DB	00H
	DB	00H
	DW	0100H
	DW	01100H
	DW	00H
	DW	00H
	DW	00H
	DD	00H
	DD	00H
	DB	030H
	DB	00H
	DB	00H
	DB	00H
	DB	00H
	DB	00H
	DW	0100H
	DW	01100H
	DW	02000H
	DW	00H
	DW	00H
	DD	00H
	DD	00H
	DB	048H
	DB	00H
	DB	00H
	DB	00H
	DB	03fH
	DB	00H
	DW	0cH
	DW	0cH
	DW	0100cH
	DW	00H
	DW	00H
	DD	00H
	DD	00H
	DB	04eH
	DB	00H
	DB	00H
	DB	00H
	DB	03fH
	DB	00H
	DW	0cH
	DW	0100cH
	DW	0cH
	DW	00H
	DW	00H
	DD	00H
	DD	00H
	DB	02aH
	DB	00H
	DB	00H
	DB	00H
	DB	00H
	DB	00H
	DW	0100H
	DW	01100H
	DW	00H
	DW	00H
	DW	00H
	DD	040H
	DD	00H
	DB	059H
	DB	00H
	DB	00H
	DB	00H
	DB	03fH
	DB	00H
	DW	0cH
	DW	0100cH
	DW	00H
	DW	00H
	DW	00H
	DD	00H
	DD	00H
	DB	06H
	DB	00H
	DB	00H
	DB	00H
	DB	03fH
	DB	00H
	DW	0eH
	DW	0100eH
	DW	00H
	DW	00H
	DW	00H
	DD	00H
	DD	00H
	DB	09H
	DB	00H
	DB	00H
	DB	00H
	DB	00H
	DB	00H
	DW	0cH
	DW	00H
	DW	00H
	DW	00H
	DW	00H
	DD	00H
	DD	00H
	DB	0aH
	DB	00H
	DB	00H
	DB	00H
	DB	03bH
	DB	00H
	DW	0100eH
	DW	0200eH
	DW	00H
	DW	00H
	DW	00H
	DD	02H
	DD	080100baH
	DB	0aH
	DB	00H
	DB	00H
	DB	00H
	DB	03bH
	DB	00H
	DW	0100eH
	DW	0200eH
	DW	00H
	DW	00H
	DW	00H
	DD	020H
	DD	0e0100baH
	DB	0aH
	DB	00H
	DB	00H
	DB	00H
	DB	03bH
	DB	00H
	DW	0100eH
	DW	0200eH
	DW	00H
	DW	00H
	DW	00H
	DD	020H
	DD	0c0100baH
	DB	0aH
	DB	00H
	DB	00H
	DB	00H
	DB	03bH
	DB	00H
	DW	0100eH
	DW	0200eH
	DW	00H
	DW	00H
	DW	00H
	DD	020H
	DD	0a0100baH
	DB	0bH
	DB	00H
	DB	00H
	DB	00H
	DB	00H
	DB	00H
	DW	0700cH
	DW	00H
	DW	00H
	DW	00H
	DW	00H
	DD	01H
	DD	0e8H
	DB	01H
	DB	00H
	DB	00H
	DB	00H
	DB	00H
	DB	00H
	DW	00H
	DW	00H
	DW	00H
	DW	00H
	DW	00H
	DD	040H
	DD	00H
	DB	01H
	DB	00H
	DB	00H
	DB	00H
	DB	020H
	DB	00H
	DW	00H
	DW	00H
	DW	00H
	DW	00H
	DW	00H
	DD	00H
	DD	00H
	DB	01H
	DB	00H
	DB	00H
	DB	00H
	DB	040H
	DB	00H
	DW	00H
	DW	00H
	DW	00H
	DW	00H
	DW	00H
	DD	00H
	DD	00H
	DB	07H
	DB	00H
	DB	00H
	DB	00H
	DB	00H
	DB	00H
	DW	01000H
	DW	00H
	DW	00H
	DW	00H
	DW	00H
	DD	00H
	DD	00H
	DB	01H
	DB	00H
	DB	00H
	DB	020H
	DB	020H
	DB	00H
	DW	00H
	DW	00H
	DW	00H
	DW	00H
	DW	00H
	DD	00H
	DD	00H
	DB	06H
	DB	00H
	DB	00H
	DB	024H
	DB	00H
	DB	00H
	DW	0eH
	DW	0100eH
	DW	00H
	DW	00H
	DW	00H
	DD	00H
	DD	00H
	DB	06H
	DB	00H
	DB	00H
	DB	020H
	DB	00H
	DB	00H
	DW	0eH
	DW	0100eH
	DW	00H
	DW	00H
	DW	00H
	DD	00H
	DD	00H
	DB	06H
	DB	00H
	DB	00H
	DB	04H
	DB	00H
	DB	00H
	DW	0eH
	DW	0100eH
	DW	00H
	DW	00H
	DW	00H
	DD	00H
	DD	00H
	DB	06H
	DB	00H
	DB	00H
	DB	07H
	DB	00H
	DB	00H
	DW	0eH
	DW	0100eH
	DW	00H
	DW	00H
	DW	00H
	DD	00H
	DD	00H
	DB	06H
	DB	00H
	DB	00H
	DB	03H
	DB	00H
	DB	00H
	DW	0eH
	DW	0100eH
	DW	00H
	DW	00H
	DW	00H
	DD	00H
	DD	00H
	DB	06H
	DB	00H
	DB	00H
	DB	01H
	DB	00H
	DB	00H
	DW	0eH
	DW	0100eH
	DW	00H
	DW	00H
	DW	00H
	DD	00H
	DD	00H
	DB	06H
	DB	00H
	DB	00H
	DB	010H
	DB	00H
	DB	00H
	DW	0eH
	DW	0100eH
	DW	00H
	DW	00H
	DW	00H
	DD	00H
	DD	00H
	DB	06H
	DB	00H
	DB	00H
	DB	02H
	DB	00H
	DB	00H
	DW	0eH
	DW	0100eH
	DW	00H
	DW	00H
	DW	00H
	DD	00H
	DD	00H
	DB	08H
	DB	00H
	DB	00H
	DB	00H
	DB	03fH
	DB	00H
	DW	0100fH
	DW	0300fH
	DW	00H
	DW	00H
	DW	00H
	DD	02H
	DD	00H
	DB	01H
	DB	00H
	DB	00H
	DB	040H
	DB	03fH
	DB	00H
	DW	00H
	DW	00H
	DW	00H
	DW	00H
	DW	00H
	DD	040H
	DD	00H
	DB	02H
	DB	00H
	DB	00H
	DB	040H
	DB	03fH
	DB	00H
	DW	00H
	DW	00H
	DW	00H
	DW	00H
	DW	00H
	DD	040H
	DD	00H
	DB	05H
	DB	00H
	DB	00H
	DB	00H
	DB	03fH
	DB	00H
	DW	00H
	DW	00H
	DW	00H
	DW	00H
	DW	00H
	DD	060H
	DD	00H
	DB	07H
	DB	00H
	DB	00H
	DB	00H
	DB	04H
	DB	00H
	DW	01000H
	DW	00H
	DW	00H
	DW	00H
	DW	00H
	DD	040H
	DD	00H
	DB	02aH
	DB	00H
	DB	00H
	DB	00H
	DB	03fH
	DB	00H
	DW	0100H
	DW	01100H
	DW	00H
	DW	00H
	DW	00H
	DD	02H
	DD	00H
	DB	032H
	DB	00H
	DB	00H
	DB	00H
	DB	00H
	DB	00H
	DW	0cH
	DW	0100fH
	DW	00H
	DW	00H
	DW	00H
	DD	00H
	DD	00H
	DB	02aH
	DB	00H
	DB	010H
	DB	00H
	DB	00H
	DB	00H
	DW	0100H
	DW	01100H
	DW	00H
	DW	00H
	DW	00H
	DD	04H
	DD	00H
	DB	02aH
	DB	00H
	DB	08H
	DB	00H
	DB	00H
	DB	00H
	DW	020H
	DW	01100H
	DW	00H
	DW	00H
	DW	00H
	DD	04H
	DD	00H
	DB	02aH
	DB	00H
	DB	010H
	DB	00H
	DB	00H
	DB	00H
	DW	0100H
	DW	01020H
	DW	00H
	DW	00H
	DW	00H
	DD	04H
	DD	00H
	DB	02aH
	DB	00H
	DB	08H
	DB	00H
	DB	00H
	DB	00H
	DW	0100H
	DW	01020H
	DW	00H
	DW	00H
	DW	00H
	DD	04H
	DD	00H
	DB	02cH
	DB	00H
	DB	08H
	DB	00H
	DB	00H
	DB	00H
	DW	0cH
	DW	01100H
	DW	00H
	DW	00H
	DW	00H
	DD	04H
	DD	00H
	DB	02aH
	DB	00H
	DB	04H
	DB	00H
	DB	00H
	DB	00H
	DW	0100H
	DW	01100H
	DW	00H
	DW	00H
	DW	00H
	DD	04H
	DD	00H
	DB	02cH
	DB	00H
	DB	08H
	DB	00H
	DB	00H
	DB	00H
	DW	0100H
	DW	0100cH
	DW	00H
	DW	00H
	DW	00H
	DD	04H
	DD	00H
	DB	02cH
	DB	00H
	DB	04H
	DB	00H
	DB	00H
	DB	00H
	DW	0100H
	DW	0100cH
	DW	00H
	DW	00H
	DW	00H
	DD	04H
	DD	00H
	DB	02aH
	DB	00H
	DB	08H
	DB	00H
	DB	00H
	DB	00H
	DW	0100H
	DW	01100H
	DW	00H
	DW	00H
	DW	00H
	DD	04H
	DD	00H
	DB	01H
	DB	00H
	DB	00H
	DB	028H
	DB	03fH
	DB	00H
	DW	00H
	DW	00H
	DW	00H
	DW	00H
	DW	00H
	DD	040H
	DD	00H
	DB	0eH
	DB	00H
	DB	00H
	DB	00H
	DB	01fH
	DB	00H
	DW	0100fH
	DW	00H
	DW	00H
	DW	00H
	DW	00H
	DD	020H
	DD	048H
	DB	04H
	DB	00H
	DB	00H
	DB	00H
	DB	03fH
	DB	00H
	DW	00H
	DW	00H
	DW	00H
	DW	00H
	DW	00H
	DD	040H
	DD	00H
	DB	01H
	DB	00H
	DB	00H
	DB	00H
	DB	00H
	DB	00H
	DW	00H
	DW	00H
	DW	00H
	DW	00H
	DW	00H
	DD	00H
	DD	00H
	DB	0cH
	DB	00H
	DB	00H
	DB	00H
	DB	00H
	DB	00H
	DW	00H
	DW	00H
	DW	00H
	DW	00H
	DW	00H
	DD	040H
	DD	00H
	DB	033H
	DB	00H
	DB	08H
	DB	00H
	DB	00H
	DB	00H
	DW	0100cH
	DW	0100H
	DW	00H
	DW	00H
	DW	00H
	DD	04H
	DD	0130017H
	DB	03bH
	DB	00H
	DB	00H
	DB	00H
	DB	00H
	DB	00H
	DW	0100H
	DW	02100H
	DW	0a000H
	DW	00H
	DW	00H
	DD	00H
	DD	0110078H
	DB	022H
	DB	00H
	DB	00H
	DB	00H
	DB	00H
	DB	00H
	DW	00H
	DW	00H
	DW	00H
	DW	00H
	DW	00H
	DD	010H
	DD	00H
	DB	023H
	DB	00H
	DB	00H
	DB	00H
	DB	00H
	DB	00H
	DW	01010H
	DW	010H
	DW	00H
	DW	00H
	DW	00H
	DD	0610H
	DD	00H
	DB	028H
	DB	00H
	DB	00H
	DB	00H
	DB	00H
	DB	00H
	DW	010H
	DW	00H
	DW	00H
	DW	00H
	DW	00H
	DD	010H
	DD	00H
	DB	07H
	DB	00H
	DB	00H
	DB	00H
	DB	00H
	DB	00H
	DW	01000H
	DW	00H
	DW	00H
	DW	00H
	DW	00H
	DD	010H
	DD	00H
	DB	027H
	DB	00H
	DB	00H
	DB	020H
	DB	00H
	DB	00H
	DW	010H
	DW	00H
	DW	00H
	DW	00H
	DW	00H
	DD	010H
	DD	00H
	DB	027H
	DB	00H
	DB	00H
	DB	024H
	DB	00H
	DB	00H
	DW	010H
	DW	00H
	DW	00H
	DW	00H
	DW	00H
	DD	010H
	DD	00H
	DB	027H
	DB	00H
	DB	00H
	DB	04H
	DB	00H
	DB	00H
	DW	010H
	DW	00H
	DW	00H
	DW	00H
	DW	00H
	DD	010H
	DD	00H
	DB	027H
	DB	00H
	DB	00H
	DB	010H
	DB	00H
	DB	00H
	DW	010H
	DW	00H
	DW	00H
	DW	00H
	DW	00H
	DD	010H
	DD	00H
	DB	024H
	DB	00H
	DB	00H
	DB	00H
	DB	00H
	DB	00H
	DW	01010H
	DW	010H
	DW	00H
	DW	00H
	DW	00H
	DD	010H
	DD	00H
	DB	027H
	DB	00H
	DB	00H
	DB	00H
	DB	03fH
	DB	00H
	DW	010H
	DW	00H
	DW	00H
	DW	00H
	DW	00H
	DD	010H
	DD	00H
	DB	01H
	DB	00H
	DB	00H
	DB	00H
	DB	00H
	DB	00H
	DW	00H
	DW	00H
	DW	00H
	DW	00H
	DW	00H
	DD	010H
	DD	00H
	DB	027H
	DB	00H
	DB	00H
	DB	00H
	DB	00H
	DB	00H
	DW	010H
	DW	00H
	DW	00H
	DW	00H
	DW	00H
	DD	010H
	DD	00H
	DB	026H
	DB	00H
	DB	00H
	DB	00H
	DB	00H
	DB	00H
	DW	01000H
	DW	00H
	DW	00H
	DW	00H
	DW	00H
	DD	0310H
	DD	00H
	DB	026H
	DB	00H
	DB	00H
	DB	00H
	DB	00H
	DB	00H
	DW	01000H
	DW	00H
	DW	00H
	DW	00H
	DW	00H
	DD	0710H
	DD	0a0000dfH
	DB	026H
	DB	00H
	DB	00H
	DB	00H
	DB	00H
	DB	00H
	DW	01000H
	DW	00H
	DW	00H
	DW	00H
	DW	00H
	DD	0710H
	DD	0e0000dfH
	DB	026H
	DB	00H
	DB	00H
	DB	00H
	DB	00H
	DB	00H
	DW	01000H
	DW	00H
	DW	00H
	DW	00H
	DW	00H
	DD	0710H
	DD	020000ddH
	DB	025H
	DB	00H
	DB	00H
	DB	00H
	DB	00H
	DB	00H
	DW	01000H
	DW	00H
	DW	00H
	DW	00H
	DW	00H
	DD	0e10H
	DD	0a0000dbH
	DB	029H
	DB	00H
	DB	00H
	DB	00H
	DB	00H
	DB	00H
	DW	01000H
	DW	00H
	DW	00H
	DW	00H
	DW	00H
	DD	010H
	DD	0dfe0H
	DB	025H
	DB	00H
	DB	00H
	DB	00H
	DB	00H
	DB	00H
	DW	01000H
	DW	00H
	DW	00H
	DW	00H
	DW	00H
	DD	0610H
	DD	00H
	DB	025H
	DB	00H
	DB	00H
	DB	00H
	DB	00H
	DB	00H
	DW	01000H
	DW	00H
	DW	00H
	DW	00H
	DW	00H
	DD	0e10H
	DD	0e0000dbH
	DB	029H
	DB	00H
	DB	00H
	DB	00H
	DB	00H
	DB	00H
	DW	01000H
	DW	00H
	DW	00H
	DW	00H
	DW	00H
	DD	010H
	DD	070dfe0H
	DB	04H
	DB	00H
	DB	00H
	DB	00H
	DB	03fH
	DB	00H
	DW	00H
	DW	00H
	DW	00H
	DW	00H
	DW	00H
	DD	040H
	DD	00H
	DB	0dH
	DB	00H
	DB	00H
	DB	00H
	DB	03fH
	DB	00H
	DW	00H
	DW	00H
	DW	00H
	DW	00H
	DW	00H
	DD	040H
	DD	00H
	DB	0eH
	DB	00H
	DB	00H
	DB	00H
	DB	01fH
	DB	00H
	DW	0100fH
	DW	00H
	DW	00H
	DW	00H
	DW	00H
	DD	020H
	DD	040H
	DB	03cH
	DB	00H
	DB	00H
	DB	00H
	DB	00H
	DB	00H
	DW	0100H
	DW	0100H
	DW	0a000H
	DW	0a000H
	DW	00H
	DD	00H
	DD	0310078H
	DB	0fH
	DB	00H
	DB	00H
	DB	00H
	DB	080H
	DB	00H
	DW	00H
	DW	00H
	DW	00H
	DW	00H
	DW	00H
	DD	00H
	DD	00H
	DB	010H
	DB	00H
	DB	00H
	DB	024H
	DB	00H
	DB	00H
	DW	04000H
	DW	00H
	DW	00H
	DW	00H
	DW	00H
	DD	01H
	DD	00H
	DB	010H
	DB	00H
	DB	00H
	DB	020H
	DB	00H
	DB	00H
	DW	04000H
	DW	00H
	DW	00H
	DW	00H
	DW	00H
	DD	01H
	DD	00H
	DB	010H
	DB	00H
	DB	00H
	DB	04H
	DB	00H
	DB	00H
	DW	04000H
	DW	00H
	DW	00H
	DW	00H
	DW	00H
	DD	01H
	DD	00H
	DB	010H
	DB	00H
	DB	00H
	DB	07H
	DB	00H
	DB	00H
	DW	04000H
	DW	00H
	DW	00H
	DW	00H
	DW	00H
	DD	01H
	DD	00H
	DB	010H
	DB	00H
	DB	00H
	DB	03H
	DB	00H
	DB	00H
	DW	04000H
	DW	00H
	DW	00H
	DW	00H
	DW	00H
	DD	01H
	DD	00H
	DB	010H
	DB	00H
	DB	00H
	DB	01H
	DB	00H
	DB	00H
	DW	04000H
	DW	00H
	DW	00H
	DW	00H
	DW	00H
	DD	01H
	DD	00H
	DB	010H
	DB	00H
	DB	00H
	DB	010H
	DB	00H
	DB	00H
	DW	04000H
	DW	00H
	DW	00H
	DW	00H
	DW	00H
	DD	01H
	DD	00H
	DB	010H
	DB	00H
	DB	00H
	DB	02H
	DB	00H
	DB	00H
	DW	04000H
	DW	00H
	DW	00H
	DW	00H
	DW	00H
	DD	01H
	DD	00H
	DB	011H
	DB	00H
	DB	00H
	DB	00H
	DB	00H
	DB	00H
	DW	0eH
	DW	04000H
	DW	00H
	DW	00H
	DW	00H
	DD	041H
	DD	00H
	DB	012H
	DB	00H
	DB	00H
	DB	00H
	DB	00H
	DB	00H
	DW	06000H
	DW	00H
	DW	00H
	DW	00H
	DW	00H
	DD	01H
	DD	0e9H
	DB	01H
	DB	00H
	DB	00H
	DB	03eH
	DB	00H
	DB	00H
	DW	00H
	DW	00H
	DW	00H
	DW	00H
	DW	00H
	DD	040H
	DD	00H
	DB	02aH
	DB	00H
	DB	010H
	DB	00H
	DB	00H
	DB	00H
	DW	0100H
	DW	01000H
	DW	00H
	DW	00H
	DW	00H
	DD	04H
	DD	00H
	DB	013H
	DB	00H
	DB	00H
	DB	00H
	DB	00H
	DB	00H
	DW	0cH
	DW	01000H
	DW	00H
	DW	00H
	DW	00H
	DD	04H
	DD	00H
	DB	034H
	DB	00H
	DB	00H
	DB	00H
	DB	00H
	DB	00H
	DW	00H
	DW	00H
	DW	00H
	DW	00H
	DW	00H
	DD	00H
	DD	00H
	DB	01H
	DB	00H
	DB	01H
	DB	040H
	DB	00H
	DB	00H
	DW	00H
	DW	00H
	DW	00H
	DW	00H
	DW	00H
	DD	044H
	DD	00H
	DB	01H
	DB	00H
	DB	04H
	DB	040H
	DB	00H
	DB	00H
	DW	00H
	DW	00H
	DW	00H
	DW	00H
	DW	00H
	DD	044H
	DD	00H
	DB	01H
	DB	00H
	DB	08H
	DB	040H
	DB	00H
	DB	00H
	DW	00H
	DW	00H
	DW	00H
	DW	00H
	DW	00H
	DD	044H
	DD	00H
	DB	02H
	DB	00H
	DB	02H
	DB	040H
	DB	00H
	DB	00H
	DW	00H
	DW	00H
	DW	00H
	DW	00H
	DW	00H
	DD	044H
	DD	00H
	DB	02aH
	DB	00H
	DB	00H
	DB	00H
	DB	00H
	DB	00H
	DW	0100H
	DW	0100H
	DW	00H
	DW	00H
	DW	00H
	DD	040H
	DD	00H
	DB	02aH
	DB	00H
	DB	00H
	DB	00H
	DB	00H
	DB	00H
	DW	020H
	DW	020H
	DW	00H
	DW	00H
	DW	00H
	DD	040H
	DD	00H
	DB	014H
	DB	00H
	DB	00H
	DB	00H
	DB	00H
	DB	00H
	DW	0100fH
	DW	0300fH
	DW	00H
	DW	00H
	DW	00H
	DD	04H
	DD	00H
	DB	017H
	DB	00H
	DB	00H
	DB	00H
	DB	00H
	DB	00H
	DW	0fH
	DW	02000H
	DW	00H
	DW	00H
	DW	00H
	DD	044H
	DD	0a2H
	DB	035H
	DB	00H
	DB	010H
	DB	00H
	DB	00H
	DB	00H
	DW	01100H
	DW	01100H
	DW	00H
	DW	00H
	DW	00H
	DD	04H
	DD	0110029H
	DB	035H
	DB	00H
	DB	010H
	DB	00H
	DB	00H
	DB	00H
	DW	01100H
	DW	01100H
	DW	00H
	DW	00H
	DW	00H
	DD	04H
	DD	010029H
	DB	037H
	DB	00H
	DB	00H
	DB	00H
	DB	00H
	DB	00H
	DW	0100eH
	DW	0100eH
	DW	00H
	DW	00H
	DW	00H
	DD	04H
	DD	0200f1H
	DB	038H
	DB	00H
	DB	010H
	DB	00H
	DB	00H
	DB	00H
	DW	01124H
	DW	01124H
	DW	00H
	DW	00H
	DW	00H
	DD	04H
	DD	01007eH
	DB	035H
	DB	00H
	DB	010H
	DB	00H
	DB	00H
	DB	00H
	DW	0100H
	DW	01100H
	DW	00H
	DW	00H
	DW	00H
	DD	04H
	DD	00H
	DB	035H
	DB	00H
	DB	08H
	DB	00H
	DB	00H
	DB	00H
	DW	020H
	DW	0100H
	DW	00H
	DW	00H
	DW	00H
	DD	04H
	DD	00H
	DB	035H
	DB	00H
	DB	010H
	DB	00H
	DB	00H
	DB	00H
	DW	01100H
	DW	01100H
	DW	00H
	DW	00H
	DW	00H
	DD	04H
	DD	011007fH
	DB	035H
	DB	00H
	DB	010H
	DB	00H
	DB	00H
	DB	00H
	DW	01100H
	DW	01100H
	DW	00H
	DW	00H
	DW	00H
	DD	04H
	DD	021007fH
	DB	035H
	DB	00H
	DB	08H
	DB	00H
	DB	00H
	DB	00H
	DW	0100H
	DW	0100H
	DW	00H
	DW	00H
	DW	00H
	DD	04H
	DD	00H
	DB	035H
	DB	08H
	DB	08H
	DB	00H
	DB	00H
	DB	00H
	DW	01100H
	DW	01100H
	DW	00H
	DW	00H
	DW	00H
	DD	00H
	DD	0110017H
	DB	035H
	DB	08H
	DB	08H
	DB	00H
	DB	00H
	DB	00H
	DW	01100H
	DW	01100H
	DW	00H
	DW	00H
	DW	00H
	DD	00H
	DD	010017H
	DB	035H
	DB	08H
	DB	08H
	DB	00H
	DB	00H
	DB	00H
	DW	0100H
	DW	0100H
	DW	00H
	DW	00H
	DW	00H
	DD	00H
	DD	00H
	DB	035H
	DB	00H
	DB	08H
	DB	00H
	DB	00H
	DB	00H
	DW	01100H
	DW	01100H
	DW	00H
	DW	00H
	DW	00H
	DD	04H
	DD	0110013H
	DB	035H
	DB	00H
	DB	08H
	DB	00H
	DB	00H
	DB	00H
	DW	01100H
	DW	01100H
	DW	00H
	DW	00H
	DW	00H
	DD	04H
	DD	010013H
	DB	036H
	DB	00H
	DB	08H
	DB	00H
	DB	00H
	DB	00H
	DW	0cH
	DW	0100H
	DW	00H
	DW	00H
	DW	00H
	DD	04H
	DD	00H
	DB	035H
	DB	00H
	DB	010H
	DB	00H
	DB	00H
	DB	00H
	DW	01000H
	DW	0100H
	DW	00H
	DW	00H
	DW	00H
	DD	04H
	DD	01100e7H
	DB	035H
	DB	00H
	DB	010H
	DB	00H
	DB	00H
	DB	00H
	DW	0100H
	DW	01000H
	DW	00H
	DW	00H
	DW	00H
	DD	04H
	DD	00H
	DB	035H
	DB	00H
	DB	08H
	DB	00H
	DB	00H
	DB	00H
	DW	01000H
	DW	0cH
	DW	00H
	DW	00H
	DW	00H
	DD	04H
	DD	0100c3H
	DB	035H
	DB	00H
	DB	010H
	DB	00H
	DB	00H
	DB	00H
	DW	01000H
	DW	0100H
	DW	00H
	DW	00H
	DW	00H
	DD	04H
	DD	011002bH
	DB	035H
	DB	00H
	DB	010H
	DB	00H
	DB	00H
	DB	00H
	DW	01000H
	DW	0100H
	DW	00H
	DW	00H
	DW	00H
	DD	04H
	DD	01002bH
	DB	035H
	DB	00H
	DB	08H
	DB	00H
	DB	00H
	DB	00H
	DW	01000H
	DW	020H
	DW	00H
	DW	00H
	DW	00H
	DD	04H
	DD	0100e7H
	DB	035H
	DB	00H
	DB	08H
	DB	00H
	DB	00H
	DB	00H
	DW	01000H
	DW	0100H
	DW	00H
	DW	00H
	DW	00H
	DD	04H
	DD	031002bH
	DB	035H
	DB	00H
	DB	04H
	DB	00H
	DB	00H
	DB	00H
	DW	01000H
	DW	0100H
	DW	00H
	DW	00H
	DW	00H
	DD	04H
	DD	021002bH
	DB	039H
	DB	00H
	DB	010H
	DB	00H
	DB	00H
	DB	00H
	DW	01128H
	DW	01128H
	DW	00H
	DW	00H
	DW	00H
	DD	04H
	DD	08001007eH
	DB	02aH
	DB	00H
	DB	010H
	DB	00H
	DB	00H
	DB	00H
	DW	0100H
	DW	020H
	DW	00H
	DW	00H
	DW	00H
	DD	04H
	DD	00H
	DB	01H
	DB	00H
	DB	00H
	DB	00H
	DB	00H
	DB	00H
	DW	00H
	DW	00H
	DW	00H
	DW	00H
	DW	00H
	DD	044H
	DD	00H
	DB	02H
	DB	00H
	DB	00H
	DB	00H
	DB	00H
	DB	00H
	DW	00H
	DW	00H
	DW	00H
	DW	00H
	DW	00H
	DD	040H
	DD	00H
	DB	035H
	DB	00H
	DB	08H
	DB	00H
	DB	00H
	DB	00H
	DW	01100H
	DW	01100H
	DW	00H
	DW	00H
	DW	00H
	DD	01004H
	DD	0310011H
	DB	035H
	DB	00H
	DB	04H
	DB	00H
	DB	00H
	DB	00H
	DW	01100H
	DW	01100H
	DW	00H
	DW	00H
	DW	00H
	DD	01004H
	DD	0210011H
	DB	015H
	DB	00H
	DB	00H
	DB	00H
	DB	00H
	DB	00H
	DW	0eH
	DW	01003H
	DW	00H
	DW	00H
	DW	00H
	DD	04H
	DD	00H
	DB	016H
	DB	00H
	DB	00H
	DB	00H
	DB	00H
	DB	00H
	DW	08H
	DW	01004H
	DW	00H
	DW	00H
	DW	00H
	DD	04H
	DD	00H
	DB	035H
	DB	00H
	DB	010H
	DB	00H
	DB	00H
	DB	00H
	DW	01100H
	DW	01100H
	DW	00H
	DW	00H
	DW	00H
	DD	04H
	DD	0110011H
	DB	035H
	DB	00H
	DB	010H
	DB	00H
	DB	00H
	DB	00H
	DW	01100H
	DW	01100H
	DW	00H
	DW	00H
	DW	00H
	DD	04H
	DD	010011H
	DB	048H
	DB	00H
	DB	00H
	DB	00H
	DB	00H
	DB	00H
	DW	0cH
	DW	0cH
	DW	0100cH
	DW	00H
	DW	00H
	DD	00H
	DD	00H
	DB	04H
	DB	00H
	DB	00H
	DB	00H
	DB	03fH
	DB	00H
	DW	0100fH
	DW	00H
	DW	00H
	DW	00H
	DW	00H
	DD	020H
	DD	00H
	DB	04H
	DB	00H
	DB	00H
	DB	00H
	DB	00H
	DB	00H
	DW	0100fH
	DW	00H
	DW	00H
	DW	00H
	DW	00H
	DD	020H
	DD	00H
	DB	02bH
	DB	00H
	DB	00H
	DB	00H
	DB	00H
	DB	00H
	DW	0120H
	DW	01120H
	DW	00H
	DW	00H
	DW	00H
	DD	00H
	DD	00H
	DB	031H
	DB	00H
	DB	00H
	DB	00H
	DB	00H
	DB	00H
	DW	0120H
	DW	01120H
	DW	02000H
	DW	00H
	DW	00H
	DD	00H
	DD	00H
	DB	033H
	DB	00H
	DB	08H
	DB	00H
	DB	00H
	DB	00H
	DW	01005H
	DW	0100H
	DW	00H
	DW	00H
	DW	00H
	DD	04H
	DD	030014H
	DB	033H
	DB	00H
	DB	08H
	DB	00H
	DB	00H
	DB	00H
	DW	01004H
	DW	0100H
	DW	00H
	DW	00H
	DW	00H
	DD	04H
	DD	030016H
	DB	033H
	DB	00H
	DB	08H
	DB	00H
	DB	00H
	DB	00H
	DW	0100cH
	DW	0100H
	DW	00H
	DW	00H
	DW	00H
	DD	04H
	DD	080030016H
	DB	033H
	DB	00H
	DB	08H
	DB	00H
	DB	00H
	DB	00H
	DW	01004H
	DW	0120H
	DW	00H
	DW	00H
	DW	00H
	DD	04H
	DD	030015H
	DB	03dH
	DB	00H
	DB	00H
	DB	00H
	DB	00H
	DB	00H
	DW	020H
	DW	01020H
	DW	00H
	DW	00H
	DW	00H
	DD	00H
	DD	00H
	DB	030H
	DB	00H
	DB	00H
	DB	00H
	DB	00H
	DB	00H
	DW	0100H
	DW	01004H
	DW	02000H
	DW	00H
	DW	00H
	DD	00H
	DD	00H
	DB	030H
	DB	00H
	DB	00H
	DB	00H
	DB	00H
	DB	00H
	DW	0100H
	DW	01008H
	DW	02000H
	DW	00H
	DW	00H
	DD	00H
	DD	00H
	DB	031H
	DB	00H
	DB	00H
	DB	00H
	DB	00H
	DB	00H
	DW	0120H
	DW	01004H
	DW	02000H
	DW	00H
	DW	00H
	DD	00H
	DD	00H
	DB	02dH
	DB	00H
	DB	08H
	DB	00H
	DB	00H
	DB	00H
	DW	0cH
	DW	0120H
	DW	00H
	DW	00H
	DW	00H
	DD	04H
	DD	00H
	DB	019H
	DB	00H
	DB	00H
	DB	00H
	DB	00H
	DB	00H
	DW	00H
	DW	00H
	DW	00H
	DW	00H
	DW	00H
	DD	040H
	DD	058H
	DB	01H
	DB	00H
	DB	00H
	DB	00H
	DB	0ffH
	DB	00H
	DW	00H
	DW	00H
	DW	00H
	DW	00H
	DW	00H
	DD	040H
	DD	00H
	DB	03aH
	DB	00H
	DB	00H
	DB	00H
	DB	00H
	DB	00H
	DW	01000H
	DW	02000H
	DW	00H
	DW	00H
	DW	00H
	DD	00H
	DD	00H
	DB	030H
	DB	00H
	DB	010H
	DB	00H
	DB	00H
	DB	00H
	DW	0100H
	DW	01100H
	DW	02000H
	DW	00H
	DW	00H
	DD	04H
	DD	00H
	DB	031H
	DB	00H
	DB	08H
	DB	00H
	DB	00H
	DB	00H
	DW	020H
	DW	01020H
	DW	02000H
	DW	00H
	DW	00H
	DD	04H
	DD	00H
	DB	02fH
	DB	00H
	DB	00H
	DB	00H
	DB	00H
	DB	00H
	DW	0120H
	DW	03120H
	DW	00H
	DW	00H
	DW	00H
	DD	00H
	DD	0c010072H
	DB	02eH
	DB	00H
	DB	00H
	DB	00H
	DB	00H
	DB	00H
	DW	0100H
	DW	02000H
	DW	00H
	DW	00H
	DW	00H
	DD	00H
	DD	0e110073H
	DB	02fH
	DB	00H
	DB	00H
	DB	00H
	DB	00H
	DB	00H
	DW	0120H
	DW	03120H
	DW	00H
	DW	00H
	DW	00H
	DD	00H
	DD	0c010073H
	DB	02fH
	DB	00H
	DB	00H
	DB	00H
	DB	00H
	DB	00H
	DW	0120H
	DW	03120H
	DW	00H
	DW	00H
	DW	00H
	DD	00H
	DD	0c010071H
	DB	02fH
	DB	00H
	DB	00H
	DB	00H
	DB	00H
	DB	00H
	DW	0120H
	DW	03120H
	DW	00H
	DW	00H
	DW	00H
	DD	00H
	DD	08010072H
	DB	02fH
	DB	00H
	DB	00H
	DB	00H
	DB	00H
	DB	00H
	DW	0120H
	DW	03120H
	DW	00H
	DW	00H
	DW	00H
	DD	00H
	DD	08010071H
	DB	02fH
	DB	00H
	DB	00H
	DB	00H
	DB	00H
	DB	00H
	DW	0120H
	DW	03120H
	DW	00H
	DW	00H
	DW	00H
	DD	00H
	DD	04010072H
	DB	02eH
	DB	00H
	DB	00H
	DB	00H
	DB	00H
	DB	00H
	DW	0100H
	DW	02000H
	DW	00H
	DW	00H
	DW	00H
	DD	00H
	DD	06110073H
	DB	02fH
	DB	00H
	DB	00H
	DB	00H
	DB	00H
	DB	00H
	DW	0120H
	DW	03120H
	DW	00H
	DW	00H
	DW	00H
	DD	00H
	DD	04010073H
	DB	02fH
	DB	00H
	DB	00H
	DB	00H
	DB	00H
	DB	00H
	DW	0120H
	DW	03120H
	DW	00H
	DW	00H
	DW	00H
	DD	00H
	DD	04010071H
	DB	018H
	DB	00H
	DB	00H
	DB	00H
	DB	00H
	DB	00H
	DW	00H
	DW	00H
	DW	00H
	DW	00H
	DW	00H
	DD	040H
	DD	050H
	DB	01H
	DB	00H
	DB	00H
	DB	0ffH
	DB	00H
	DB	00H
	DW	00H
	DW	00H
	DW	00H
	DW	00H
	DW	00H
	DD	040H
	DD	00H
	DB	01cH
	DB	00H
	DB	00H
	DB	020H
	DB	021H
	DB	00H
	DW	0100fH
	DW	02001H
	DW	00H
	DW	00H
	DW	00H
	DD	040H
	DD	00H
	DB	03H
	DB	00H
	DB	08H
	DB	00H
	DB	00H
	DB	00H
	DW	0cH
	DW	00H
	DW	00H
	DW	00H
	DW	00H
	DD	04H
	DD	00H
	DB	03H
	DB	00H
	DB	08H
	DB	00H
	DB	03fH
	DB	00H
	DW	0eH
	DW	00H
	DW	00H
	DW	00H
	DW	00H
	DD	04H
	DD	00H
	DB	01aH
	DB	00H
	DB	00H
	DB	040H
	DB	00H
	DB	00H
	DW	01000H
	DW	00H
	DW	00H
	DW	00H
	DW	00H
	DD	040H
	DD	00H
	DB	01aH
	DB	00H
	DB	00H
	DB	040H
	DB	00H
	DB	00H
	DW	01000H
	DW	01000H
	DW	00H
	DW	00H
	DW	00H
	DD	040H
	DD	00H
	DB	01aH
	DB	00H
	DB	00H
	DB	040H
	DB	03fH
	DB	00H
	DW	01000H
	DW	01000H
	DW	00H
	DW	00H
	DW	00H
	DD	040H
	DD	00H
	DB	01bH
	DB	00H
	DB	00H
	DB	00H
	DB	00H
	DB	00H
	DW	00H
	DW	00H
	DW	00H
	DW	00H
	DW	00H
	DD	040H
	DD	00H
	DB	01cH
	DB	00H
	DB	00H
	DB	00H
	DB	021H
	DB	00H
	DW	0100fH
	DW	02001H
	DW	00H
	DW	00H
	DW	00H
	DD	040H
	DD	00H
	DB	046H
	DB	00H
	DB	00H
	DB	00H
	DB	00H
	DB	00H
	DW	0cH
	DW	0100cH
	DW	02000H
	DW	00H
	DW	00H
	DD	00H
	DD	00H
	DB	030H
	DB	00H
	DB	08H
	DB	00H
	DB	00H
	DB	00H
	DW	0100H
	DW	01100H
	DW	02000H
	DW	00H
	DW	00H
	DD	04H
	DD	00H
	DB	030H
	DB	00H
	DB	04H
	DB	00H
	DB	00H
	DB	00H
	DW	0100H
	DW	01100H
	DW	02000H
	DW	00H
	DW	00H
	DD	04H
	DD	00H
	DB	01H
	DB	00H
	DB	00H
	DB	00H
	DB	03eH
	DB	00H
	DW	00H
	DW	00H
	DW	00H
	DW	00H
	DW	00H
	DD	040H
	DD	00H
	DB	01cH
	DB	00H
	DB	00H
	DB	00H
	DB	03fH
	DB	00H
	DW	0100fH
	DW	02001H
	DW	00H
	DW	00H
	DW	00H
	DD	040H
	DD	00H
	DB	04eH
	DB	00H
	DB	00H
	DB	00H
	DB	00H
	DB	00H
	DW	0cH
	DW	0100cH
	DW	0cH
	DW	00H
	DW	00H
	DD	00H
	DD	00H
	DB	01dH
	DB	00H
	DB	01H
	DB	024H
	DB	00H
	DB	00H
	DW	01001H
	DW	00H
	DW	00H
	DW	00H
	DW	00H
	DD	04H
	DD	00H
	DB	01dH
	DB	00H
	DB	01H
	DB	020H
	DB	00H
	DB	00H
	DW	01001H
	DW	00H
	DW	00H
	DW	00H
	DW	00H
	DD	04H
	DD	00H
	DB	01dH
	DB	00H
	DB	01H
	DB	04H
	DB	00H
	DB	00H
	DW	01001H
	DW	00H
	DW	00H
	DW	00H
	DW	00H
	DD	04H
	DD	00H
	DB	01dH
	DB	00H
	DB	01H
	DB	07H
	DB	00H
	DB	00H
	DW	01001H
	DW	00H
	DW	00H
	DW	00H
	DW	00H
	DD	04H
	DD	00H
	DB	01dH
	DB	00H
	DB	01H
	DB	03H
	DB	00H
	DB	00H
	DW	01001H
	DW	00H
	DW	00H
	DW	00H
	DW	00H
	DD	04H
	DD	00H
	DB	01dH
	DB	00H
	DB	01H
	DB	01H
	DB	00H
	DB	00H
	DW	01001H
	DW	00H
	DW	00H
	DW	00H
	DW	00H
	DD	04H
	DD	00H
	DB	01dH
	DB	00H
	DB	01H
	DB	010H
	DB	00H
	DB	00H
	DW	01001H
	DW	00H
	DW	00H
	DW	00H
	DW	00H
	DD	04H
	DD	00H
	DB	01dH
	DB	00H
	DB	01H
	DB	02H
	DB	00H
	DB	00H
	DW	01001H
	DW	00H
	DW	00H
	DW	00H
	DW	00H
	DD	04H
	DD	00H
	DB	01eH
	DB	00H
	DB	00H
	DB	00H
	DB	03fH
	DB	00H
	DW	0100fH
	DW	01H
	DW	00H
	DW	00H
	DW	00H
	DD	040H
	DD	00H
	DB	01eH
	DB	00H
	DB	00H
	DB	00H
	DB	03fH
	DB	00H
	DW	0100fH
	DW	0fH
	DW	00H
	DW	00H
	DW	00H
	DD	040H
	DD	00H
	DB	01H
	DB	00H
	DB	00H
	DB	040H
	DB	00H
	DB	00H
	DW	00H
	DW	00H
	DW	00H
	DW	00H
	DW	00H
	DD	040H
	DD	00H
	DB	02H
	DB	00H
	DB	00H
	DB	040H
	DB	00H
	DB	00H
	DW	00H
	DW	00H
	DW	00H
	DW	00H
	DW	00H
	DD	040H
	DD	00H
	DB	01fH
	DB	00H
	DB	00H
	DB	00H
	DB	03fH
	DB	00H
	DW	0100fH
	DW	0200fH
	DW	00H
	DW	00H
	DW	00H
	DD	02H
	DD	0f6H
	DB	06H
	DB	00H
	DB	00H
	DB	00H
	DB	03fH
	DB	00H
	DW	0eH
	DW	0100eH
	DW	00H
	DW	00H
	DW	00H
	DD	04H
	DD	00H
	DB	049H
	DB	00H
	DB	00H
	DB	00H
	DB	00H
	DB	00H
	DW	0300H
	DW	0300H
	DW	01300H
	DW	00H
	DW	00H
	DD	010000H
	DD	00H
	DB	048H
	DB	00H
	DB	00H
	DB	00H
	DB	00H
	DB	00H
	DW	0100H
	DW	0100H
	DW	01100H
	DW	00H
	DW	00H
	DD	010000H
	DD	00H
	DB	044H
	DB	00H
	DB	00H
	DB	00H
	DB	00H
	DB	00H
	DW	0100H
	DW	01100H
	DW	00H
	DW	00H
	DW	00H
	DD	010000H
	DD	00H
	DB	046H
	DB	00H
	DB	00H
	DB	00H
	DB	00H
	DB	00H
	DW	0100H
	DW	01100H
	DW	02000H
	DW	00H
	DW	00H
	DD	010000H
	DD	00H
	DB	04dH
	DB	00H
	DB	00H
	DB	00H
	DB	00H
	DB	00H
	DW	0300H
	DW	0300H
	DW	01300H
	DW	02000H
	DW	00H
	DD	010000H
	DD	00H
	DB	04bH
	DB	00H
	DB	00H
	DB	00H
	DB	00H
	DB	00H
	DW	0300H
	DW	0300H
	DW	01300H
	DW	0300H
	DW	00H
	DD	010000H
	DD	00H
	DB	044H
	DB	00H
	DB	00H
	DB	00H
	DB	00H
	DB	00H
	DW	0200H
	DW	01000H
	DW	00H
	DW	00H
	DW	00H
	DD	010000H
	DD	00H
	DB	044H
	DB	00H
	DB	00H
	DB	00H
	DB	00H
	DB	00H
	DW	0200H
	DW	01100H
	DW	00H
	DW	00H
	DW	00H
	DD	010000H
	DD	00H
	DB	044H
	DB	00H
	DB	00H
	DB	00H
	DB	00H
	DB	00H
	DW	0300H
	DW	01100H
	DW	00H
	DW	00H
	DW	00H
	DD	010000H
	DD	00H
	DB	04cH
	DB	00H
	DB	00H
	DB	00H
	DB	00H
	DB	00H
	DW	0100H
	DW	0100H
	DW	01100H
	DW	02000H
	DW	00H
	DD	010000H
	DD	00H
	DB	045H
	DB	00H
	DB	00H
	DB	00H
	DB	00H
	DB	00H
	DW	0300H
	DW	01100H
	DW	00H
	DW	00H
	DW	00H
	DD	010000H
	DD	00H
	DB	045H
	DB	00H
	DB	00H
	DB	00H
	DB	00H
	DB	00H
	DW	0300H
	DW	01300H
	DW	00H
	DW	00H
	DW	00H
	DD	010000H
	DD	00H
	DB	044H
	DB	00H
	DB	00H
	DB	00H
	DB	00H
	DB	00H
	DW	0100H
	DW	01300H
	DW	00H
	DW	00H
	DW	00H
	DD	010000H
	DD	00H
	DB	043H
	DB	00H
	DB	00H
	DB	00H
	DB	00H
	DB	00H
	DW	01100H
	DW	0300H
	DW	02000H
	DW	00H
	DW	00H
	DD	010000H
	DD	00H
	DB	044H
	DB	00H
	DB	00H
	DB	00H
	DB	00H
	DB	00H
	DW	0cH
	DW	01100H
	DW	00H
	DW	00H
	DW	00H
	DD	010000H
	DD	00H
	DB	048H
	DB	00H
	DB	00H
	DB	00H
	DB	00H
	DB	00H
	DW	0100H
	DW	0100H
	DW	0100cH
	DW	00H
	DW	00H
	DD	010000H
	DD	00H
	DB	045H
	DB	00H
	DB	00H
	DB	00H
	DB	00H
	DB	00H
	DW	0100H
	DW	01300H
	DW	00H
	DW	00H
	DW	00H
	DD	010000H
	DD	00H
	DB	042H
	DB	00H
	DB	00H
	DB	00H
	DB	00H
	DB	00H
	DW	01100H
	DW	0200H
	DW	02000H
	DW	00H
	DW	00H
	DD	010000H
	DD	00H
	DB	042H
	DB	00H
	DB	00H
	DB	00H
	DB	00H
	DB	00H
	DW	0100cH
	DW	0100H
	DW	02000H
	DW	00H
	DW	00H
	DD	010000H
	DD	00H
	DB	062H
	DB	00H
	DB	00H
	DB	00H
	DB	00H
	DB	00H
	DW	0300H
	DW	0300H
	DW	01300H
	DW	01300H
	DW	00H
	DD	010000H
	DD	00H
	DB	061H
	DB	00H
	DB	00H
	DB	00H
	DB	00H
	DB	00H
	DW	0100H
	DW	0100H
	DW	01100H
	DW	01100H
	DW	00H
	DD	010000H
	DD	00H
	DB	064H
	DB	00H
	DB	00H
	DB	00H
	DB	00H
	DB	00H
	DW	0300H
	DW	01300H
	DW	00H
	DW	00H
	DW	00H
	DD	010000H
	DD	00H
	DB	063H
	DB	00H
	DB	00H
	DB	00H
	DB	00H
	DB	00H
	DW	0100H
	DW	01100H
	DW	00H
	DW	00H
	DW	00H
	DD	010000H
	DD	00H
	DB	05fH
	DB	00H
	DB	00H
	DB	00H
	DB	00H
	DB	00H
	DW	0300H
	DW	01000H
	DW	0300H
	DW	00H
	DW	00H
	DD	010000H
	DD	00H
	DB	060H
	DB	00H
	DB	00H
	DB	00H
	DB	00H
	DB	00H
	DW	0100H
	DW	01000H
	DW	0100H
	DW	00H
	DW	00H
	DD	010000H
	DD	00H
	DB	04cH
	DB	00H
	DB	00H
	DB	00H
	DB	00H
	DB	00H
	DW	0200H
	DW	0200H
	DW	01100H
	DW	02000H
	DW	00H
	DD	010000H
	DD	00H
	DB	045H
	DB	00H
	DB	00H
	DB	00H
	DB	00H
	DB	00H
	DW	0300H
	DW	01000H
	DW	00H
	DW	00H
	DW	00H
	DD	010000H
	DD	00H
	DB	03fH
	DB	00H
	DB	00H
	DB	00H
	DB	00H
	DB	00H
	DW	01000H
	DW	00H
	DW	00H
	DW	00H
	DW	00H
	DD	010000H
	DD	00H
	DB	044H
	DB	00H
	DB	00H
	DB	00H
	DB	00H
	DB	00H
	DW	0100H
	DW	0100H
	DW	00H
	DW	00H
	DW	00H
	DD	010000H
	DD	00H
	DB	056H
	DB	00H
	DB	00H
	DB	00H
	DB	00H
	DB	00H
	DW	01300H
	DW	0300H
	DW	01300H
	DW	00H
	DW	00H
	DD	010000H
	DD	012002fH
	DB	056H
	DB	00H
	DB	00H
	DB	00H
	DB	00H
	DB	00H
	DW	01300H
	DW	0300H
	DW	01300H
	DW	00H
	DW	00H
	DD	010000H
	DD	012002eH
	DB	051H
	DB	00H
	DB	00H
	DB	00H
	DB	00H
	DB	00H
	DW	01300H
	DW	01300H
	DW	00H
	DW	00H
	DW	00H
	DD	010000H
	DD	0110029H
	DB	051H
	DB	00H
	DB	00H
	DB	00H
	DB	00H
	DB	00H
	DW	01300H
	DW	01300H
	DW	00H
	DW	00H
	DW	00H
	DD	010000H
	DD	010029H
	DB	050H
	DB	00H
	DB	00H
	DB	00H
	DB	00H
	DB	00H
	DW	01100H
	DW	01100H
	DW	00H
	DW	00H
	DW	00H
	DD	010000H
	DD	011007eH
	DB	051H
	DB	00H
	DB	00H
	DB	00H
	DB	00H
	DB	00H
	DW	01300H
	DW	01300H
	DW	00H
	DW	00H
	DW	00H
	DD	010000H
	DD	011007fH
	DB	051H
	DB	00H
	DB	00H
	DB	00H
	DB	00H
	DB	00H
	DW	01300H
	DW	01300H
	DW	00H
	DW	00H
	DW	00H
	DD	010000H
	DD	021007fH
	DB	048H
	DB	00H
	DB	00H
	DB	00H
	DB	00H
	DB	00H
	DW	0100H
	DW	0100H
	DW	0100H
	DW	00H
	DW	00H
	DD	010000H
	DD	00H
	DB	054H
	DB	00H
	DB	00H
	DB	00H
	DB	00H
	DB	00H
	DW	01100H
	DW	0100H
	DW	01000H
	DW	00H
	DW	00H
	DD	010000H
	DD	0110017H
	DB	054H
	DB	00H
	DB	00H
	DB	00H
	DB	00H
	DB	00H
	DW	01100H
	DW	0100H
	DW	01000H
	DW	00H
	DW	00H
	DD	010000H
	DD	010017H
	DB	054H
	DB	00H
	DB	00H
	DB	00H
	DB	00H
	DB	00H
	DW	01100H
	DW	0100H
	DW	01000H
	DW	00H
	DW	00H
	DD	010000H
	DD	0110013H
	DB	054H
	DB	00H
	DB	00H
	DB	00H
	DB	00H
	DB	00H
	DW	01100H
	DW	0100H
	DW	01000H
	DW	00H
	DW	00H
	DD	010000H
	DD	010013H
	DB	045H
	DB	00H
	DB	00H
	DB	00H
	DB	00H
	DB	00H
	DW	0cH
	DW	0300H
	DW	00H
	DW	00H
	DW	00H
	DD	010000H
	DD	00H
	DB	040H
	DB	00H
	DB	00H
	DB	00H
	DB	00H
	DB	00H
	DW	01000H
	DW	0300H
	DW	00H
	DW	00H
	DW	00H
	DD	010000H
	DD	00H
	DB	041H
	DB	00H
	DB	00H
	DB	00H
	DB	00H
	DB	00H
	DW	01000H
	DW	0300H
	DW	00H
	DW	00H
	DW	00H
	DD	010000H
	DD	00H
	DB	05eH
	DB	00H
	DB	00H
	DB	00H
	DB	00H
	DB	00H
	DW	01100H
	DW	01100H
	DW	0100H
	DW	00H
	DW	00H
	DD	010000H
	DD	0310011H
	DB	05eH
	DB	00H
	DB	00H
	DB	00H
	DB	00H
	DB	00H
	DW	01100H
	DW	0100H
	DW	0100H
	DW	00H
	DW	00H
	DD	010000H
	DD	0210011H
	DB	051H
	DB	00H
	DB	00H
	DB	00H
	DB	00H
	DB	00H
	DW	01300H
	DW	01300H
	DW	00H
	DW	00H
	DW	00H
	DD	010000H
	DD	0110011H
	DB	051H
	DB	00H
	DB	00H
	DB	00H
	DB	00H
	DB	00H
	DW	01300H
	DW	01300H
	DW	00H
	DW	00H
	DW	00H
	DD	010000H
	DD	010011H
	DB	04aH
	DB	00H
	DB	00H
	DB	00H
	DB	00H
	DB	00H
	DW	0300H
	DW	0300H
	DW	01300H
	DW	0300H
	DW	00H
	DD	010000H
	DD	00H
	DB	06cH
	DB	00H
	DB	00H
	DB	00H
	DB	00H
	DB	00H
	DW	0300H
	DW	0300H
	DW	01300H
	DW	01300H
	DW	00H
	DD	010000H
	DD	00H
	DB	069H
	DB	00H
	DB	00H
	DB	00H
	DB	00H
	DB	00H
	DW	0100H
	DW	0100H
	DW	01100H
	DW	02000H
	DW	00H
	DD	010000H
	DD	00H
	DB	04cH
	DB	00H
	DB	00H
	DB	00H
	DB	00H
	DB	00H
	DW	0200H
	DW	0200H
	DW	01200H
	DW	02000H
	DW	00H
	DD	010000H
	DD	00H
	DB	048H
	DB	00H
	DB	00H
	DB	00H
	DB	00H
	DB	00H
	DW	0200H
	DW	0200H
	DW	01200H
	DW	00H
	DW	00H
	DD	010000H
	DD	00H
	DB	05dH
	DB	00H
	DB	00H
	DB	00H
	DB	00H
	DB	00H
	DW	0300H
	DW	0300H
	DW	01300H
	DW	01300H
	DW	00H
	DD	010000H
	DD	00H
	DB	053H
	DB	00H
	DB	00H
	DB	00H
	DB	00H
	DB	00H
	DW	0300H
	DW	01300H
	DW	03300H
	DW	00H
	DW	00H
	DD	010000H
	DD	0130005H
	DB	053H
	DB	00H
	DB	00H
	DB	00H
	DB	00H
	DB	00H
	DW	0300H
	DW	01300H
	DW	03300H
	DW	00H
	DW	00H
	DD	010000H
	DD	0130004H
	DB	046H
	DB	00H
	DB	00H
	DB	00H
	DB	00H
	DB	00H
	DW	0200H
	DW	01200H
	DW	02000H
	DW	00H
	DW	00H
	DD	010000H
	DD	00H
	DB	042H
	DB	00H
	DB	00H
	DB	00H
	DB	00H
	DB	00H
	DW	0100fH
	DW	0100H
	DW	02000H
	DW	00H
	DW	00H
	DD	010000H
	DD	00H
	DB	042H
	DB	00H
	DB	00H
	DB	00H
	DB	00H
	DB	00H
	DW	01008H
	DW	0100H
	DW	02000H
	DW	00H
	DW	00H
	DD	010000H
	DD	00H
	DB	042H
	DB	00H
	DB	00H
	DB	00H
	DB	00H
	DB	00H
	DW	0100eH
	DW	0100H
	DW	02000H
	DW	00H
	DW	00H
	DD	010000H
	DD	00H
	DB	04cH
	DB	00H
	DB	00H
	DB	00H
	DB	00H
	DB	00H
	DW	0100H
	DW	0100H
	DW	0100fH
	DW	02000H
	DW	00H
	DD	010000H
	DD	00H
	DB	04cH
	DB	00H
	DB	00H
	DB	00H
	DB	00H
	DB	00H
	DW	0100H
	DW	0100H
	DW	0100cH
	DW	02000H
	DW	00H
	DD	010000H
	DD	00H
	DB	04cH
	DB	00H
	DB	00H
	DB	00H
	DB	00H
	DB	00H
	DW	0100H
	DW	0100H
	DW	01008H
	DW	02000H
	DW	00H
	DD	010000H
	DD	00H
	DB	04cH
	DB	00H
	DB	00H
	DB	00H
	DB	00H
	DB	00H
	DW	0100H
	DW	0100H
	DW	0100eH
	DW	02000H
	DW	00H
	DD	010000H
	DD	00H
	DB	067H
	DB	00H
	DB	00H
	DB	00H
	DB	00H
	DB	00H
	DW	0100H
	DW	0100H
	DW	01100H
	DW	0100H
	DW	00H
	DD	010000H
	DD	00H
	DB	056H
	DB	00H
	DB	00H
	DB	00H
	DB	00H
	DB	00H
	DW	01300H
	DW	0300H
	DW	01300H
	DW	00H
	DW	00H
	DD	010000H
	DD	012008eH
	DB	06bH
	DB	00H
	DB	00H
	DB	00H
	DB	00H
	DB	00H
	DW	0100H
	DW	0100H
	DW	01100H
	DW	01100H
	DW	00H
	DD	010000H
	DD	00H
	DB	066H
	DB	00H
	DB	00H
	DB	00H
	DB	00H
	DB	00H
	DW	0100H
	DW	01100H
	DW	03100H
	DW	00H
	DW	00H
	DD	010000H
	DD	0800c0H
	DB	066H
	DB	00H
	DB	00H
	DB	00H
	DB	00H
	DB	00H
	DW	0100H
	DW	01100H
	DW	03100H
	DW	00H
	DW	00H
	DD	010000H
	DD	0800c2H
	DB	066H
	DB	00H
	DB	00H
	DB	00H
	DB	00H
	DB	00H
	DW	0100H
	DW	01100H
	DW	03100H
	DW	00H
	DW	00H
	DD	010000H
	DD	0800c3H
	DB	066H
	DB	00H
	DB	00H
	DB	00H
	DB	00H
	DB	00H
	DW	0100H
	DW	01100H
	DW	03100H
	DW	00H
	DW	00H
	DD	010000H
	DD	0800c1H
	DB	065H
	DB	00H
	DB	00H
	DB	00H
	DB	00H
	DB	00H
	DW	0100H
	DW	01100H
	DW	01100H
	DW	00H
	DW	00H
	DD	010000H
	DD	00H
	DB	047H
	DB	00H
	DB	00H
	DB	00H
	DB	00H
	DB	00H
	DW	0300H
	DW	01300H
	DW	02000H
	DW	00H
	DW	00H
	DD	010000H
	DD	00H
	DB	058H
	DB	00H
	DB	00H
	DB	00H
	DB	00H
	DB	00H
	DW	0300H
	DW	01300H
	DW	03300H
	DW	00H
	DW	00H
	DD	010000H
	DD	0c110072H
	DB	05bH
	DB	00H
	DB	00H
	DB	00H
	DB	00H
	DB	00H
	DW	0300H
	DW	01300H
	DW	02000H
	DW	00H
	DW	00H
	DD	010000H
	DD	00H
	DB	058H
	DB	00H
	DB	00H
	DB	00H
	DB	00H
	DB	00H
	DW	0300H
	DW	01300H
	DW	03300H
	DW	00H
	DW	00H
	DD	010000H
	DD	0c110073H
	DB	058H
	DB	00H
	DB	00H
	DB	00H
	DB	00H
	DB	00H
	DW	0300H
	DW	01300H
	DW	03300H
	DW	00H
	DW	00H
	DD	010000H
	DD	0c110071H
	DB	058H
	DB	00H
	DB	00H
	DB	00H
	DB	00H
	DB	00H
	DW	0300H
	DW	01300H
	DW	03300H
	DW	00H
	DW	00H
	DD	010000H
	DD	08110072H
	DB	058H
	DB	00H
	DB	00H
	DB	00H
	DB	00H
	DB	00H
	DW	0300H
	DW	01300H
	DW	03300H
	DW	00H
	DW	00H
	DD	010000H
	DD	08110071H
	DB	058H
	DB	00H
	DB	00H
	DB	00H
	DB	00H
	DB	00H
	DW	0300H
	DW	01300H
	DW	03300H
	DW	00H
	DW	00H
	DD	010000H
	DD	04110072H
	DB	058H
	DB	00H
	DB	00H
	DB	00H
	DB	00H
	DB	00H
	DW	0300H
	DW	01300H
	DW	03300H
	DW	00H
	DW	00H
	DD	010000H
	DD	04110073H
	DB	058H
	DB	00H
	DB	00H
	DB	00H
	DB	00H
	DB	00H
	DW	0300H
	DW	01300H
	DW	03300H
	DW	00H
	DW	00H
	DD	010000H
	DD	04110071H
	DB	045H
	DB	00H
	DB	00H
	DB	00H
	DB	03fH
	DB	00H
	DW	0300H
	DW	01300H
	DW	00H
	DW	00H
	DW	00H
	DD	010000H
	DD	00H
	DB	045H
	DB	00H
	DB	00H
	DB	00H
	DB	03fH
	DB	00H
	DW	0300H
	DW	01300H
	DW	00H
	DW	00H
	DW	00H
	DD	02H
	DD	00H
	DB	044H
	DB	00H
	DB	00H
	DB	00H
	DB	03fH
	DB	00H
	DW	0100H
	DW	01100H
	DW	00H
	DW	00H
	DW	00H
	DD	010000H
	DD	00H
	DB	03eH
	DB	00H
	DB	00H
	DB	00H
	DB	00H
	DB	00H
	DW	00H
	DW	00H
	DW	00H
	DW	00H
	DW	00H
	DD	010000H
	DD	00H
	DB	03H
	DB	00H
	DB	00H
	DB	00H
	DB	00H
	DB	00H
	DW	0cH
	DW	00H
	DW	00H
	DW	00H
	DW	00H
	DD	00H
	DD	00H
	DB	020H
	DB	00H
	DB	00H
	DB	00H
	DB	03fH
	DB	00H
	DW	0100fH
	DW	0fH
	DW	00H
	DW	00H
	DW	00H
	DD	028H
	DD	00H
	DB	021H
	DB	00H
	DB	00H
	DB	00H
	DB	00H
	DB	00H
	DW	0100fH
	DW	0fH
	DW	00H
	DW	00H
	DW	00H
	DD	028H
	DD	00H
	DB	07H
	DB	00H
	DB	00H
	DB	00H
	DB	00H
	DB	00H
	DW	01000H
	DW	00H
	DW	00H
	DW	00H
	DW	00H
	DD	040H
	DD	00H
?_x86InstInfo@asmjit@@3QBUX86InstInfo@1@B DW 00H	; asmjit::_x86InstInfo
	DW	00H
	DD	00H
	DW	00H
	DW	01H
	DD	04000010H
	DW	00H
	DW	02H
	DD	00H
	DW	00H
	DW	03H
	DD	0110058H
	DW	00H
	DW	03H
	DD	010058H
	DW	00H
	DW	03H
	DD	0310058H
	DW	00H
	DW	03H
	DD	0210058H
	DW	00H
	DW	03H
	DD	01100d0H
	DW	00H
	DW	03H
	DD	03100d0H
	DW	00H
	DW	03H
	DD	01200deH
	DW	00H
	DW	03H
	DD	01200dfH
	DW	00H
	DW	03H
	DD	01200dcH
	DW	00H
	DW	03H
	DD	01200ddH
	DW	00H
	DW	03H
	DD	01200dbH
	DW	00H
	DW	04H
	DD	01300dfH
	DW	00H
	DW	02H
	DD	08000020H
	DW	00H
	DW	05H
	DD	0200f2H
	DW	00H
	DW	03H
	DD	0110055H
	DW	00H
	DW	03H
	DD	010055H
	DW	00H
	DW	03H
	DD	0110054H
	DW	00H
	DW	03H
	DD	010054H
	DW	00H
	DW	06H
	DD	0200f7H
	DW	00H
	DW	04H
	DD	013000dH
	DW	00H
	DW	04H
	DD	013000cH
	DW	00H
	DW	07H
	DD	0120015H
	DW	00H
	DW	07H
	DD	0120014H
	DW	00H
	DW	08H
	DD	060200f3H
	DW	00H
	DW	08H
	DD	040200f3H
	DW	00H
	DW	08H
	DD	020200f3H
	DW	00H
	DW	09H
	DD	0100bcH
	DW	00H
	DW	09H
	DD	0100bdH
	DW	00H
	DW	0aH
	DD	0100c8H
	DW	00H
	DW	0bH
	DD	0100a3H
	DW	00H
	DW	0cH
	DD	0100bbH
	DW	00H
	DW	0dH
	DD	0100b3H
	DW	00H
	DW	0eH
	DD	0100abH
	DW	00H
	DW	06H
	DD	0200f5H
	DW	00H
	DW	0fH
	DD	040000ffH
	DW	00H
	DW	010H
	DD	0100098H
	DW	00H
	DW	010H
	DD	099H
	DW	00H
	DW	010H
	DD	080000098H
	DW	00H
	DW	011H
	DD	0f8H
	DW	00H
	DW	012H
	DD	0fcH
	DW	00H
	DW	013H
	DD	0e0100aeH
	DW	00H
	DW	014H
	DD	0f5H
	DW	00H
	DW	015H
	DD	010047H
	DW	00H
	DW	016H
	DD	010043H
	DW	00H
	DW	016H
	DD	010042H
	DW	00H
	DW	015H
	DD	010046H
	DW	00H
	DW	016H
	DD	010042H
	DW	00H
	DW	017H
	DD	010044H
	DW	00H
	DW	018H
	DD	01004fH
	DW	00H
	DW	019H
	DD	01004dH
	DW	00H
	DW	019H
	DD	01004cH
	DW	00H
	DW	018H
	DD	01004eH
	DW	00H
	DW	015H
	DD	010046H
	DW	00H
	DW	016H
	DD	010042H
	DW	00H
	DW	016H
	DD	010043H
	DW	00H
	DW	015H
	DD	010047H
	DW	00H
	DW	016H
	DD	010043H
	DW	00H
	DW	017H
	DD	010045H
	DW	00H
	DW	018H
	DD	01004eH
	DW	00H
	DW	019H
	DD	01004cH
	DW	00H
	DW	019H
	DD	01004dH
	DW	00H
	DW	018H
	DD	01004fH
	DW	00H
	DW	01aH
	DD	010041H
	DW	00H
	DW	01bH
	DD	01004bH
	DW	00H
	DW	01cH
	DD	010049H
	DW	00H
	DW	017H
	DD	010045H
	DW	00H
	DW	01aH
	DD	010040H
	DW	00H
	DW	01bH
	DD	01004aH
	DW	00H
	DW	01bH
	DD	01004aH
	DW	00H
	DW	01bH
	DD	01004bH
	DW	00H
	DW	01cH
	DD	010048H
	DW	00H
	DW	017H
	DD	010044H
	DW	00H
	DW	01dH
	DD	0e000038H
	DW	00H
	DW	04H
	DD	01100c2H
	DW	00H
	DW	04H
	DD	0100c2H
	DW	00H
	DW	01eH
	DD	0a6H
	DW	00H
	DW	01eH
	DD	0a7H
	DW	00H
	DW	01eH
	DD	0800000a7H
	DW	00H
	DW	01fH
	DD	0a7H
	DW	00H
	DW	04H
	DD	03100c2H
	DW	00H
	DW	04H
	DD	02100c2H
	DW	00H
	DW	020H
	DD	0100b0H
	DW	00H
	DW	021H
	DD	0820100c7H
	DW	00H
	DW	021H
	DD	020100c7H
	DW	00H
	DW	022H
	DD	011002fH
	DW	00H
	DW	022H
	DD	01002fH
	DW	00H
	DW	010H
	DD	0100a2H
	DW	00H
	DW	010H
	DD	080000099H
	DW	00H
	DW	023H
	DD	03200f0H
	DW	00H
	DW	024H
	DD	02100e6H
	DW	00H
	DW	024H
	DD	01005bH
	DW	00H
	DW	024H
	DD	03100e6H
	DW	00H
	DW	025H
	DD	011002dH
	DW	00H
	DW	024H
	DD	011005aH
	DW	00H
	DW	026H
	DD	011002aH
	DW	00H
	DW	027H
	DD	01002aH
	DW	00H
	DW	024H
	DD	011005bH
	DW	00H
	DW	024H
	DD	01005aH
	DW	00H
	DW	025H
	DD	01002dH
	DW	00H
	DW	028H
	DD	031002dH
	DW	00H
	DW	029H
	DD	031005aH
	DW	00H
	DW	02aH
	DD	031002aH
	DW	00H
	DW	02bH
	DD	021002aH
	DW	00H
	DW	02cH
	DD	021005aH
	DW	00H
	DW	028H
	DD	021002dH
	DW	00H
	DW	024H
	DD	01100e6H
	DW	00H
	DW	025H
	DD	011002cH
	DW	00H
	DW	024H
	DD	021005bH
	DW	00H
	DW	025H
	DD	01002cH
	DW	00H
	DW	028H
	DD	031002cH
	DW	00H
	DW	028H
	DD	021002cH
	DW	00H
	DW	010H
	DD	0100099H
	DW	00H
	DW	010H
	DD	098H
	DW	00H
	DW	02dH
	DD	027H
	DW	00H
	DW	02dH
	DD	02fH
	DW	00H
	DW	02eH
	DD	020000feH
	DW	00H
	DW	02fH
	DD	0c0000f6H
	DW	00H
	DW	03H
	DD	011005eH
	DW	00H
	DW	03H
	DD	01005eH
	DW	00H
	DW	03H
	DD	031005eH
	DW	00H
	DW	03H
	DD	021005eH
	DW	00H
	DW	04H
	DD	0130041H
	DW	00H
	DW	04H
	DD	0130040H
	DW	00H
	DW	030H
	DD	010077H
	DW	00H
	DW	031H
	DD	0c8H
	DW	00H
	DW	032H
	DD	0130017H
	DW	00H
	DW	033H
	DD	0110079H
	DW	00H
	DW	034H
	DD	0d9f0H
	DW	00H
	DW	034H
	DD	0d9e1H
	DW	00H
	DW	035H
	DD	0c0c0H
	DW	00H
	DW	036H
	DD	0dec0H
	DW	00H
	DW	037H
	DD	080000dfH
	DW	00H
	DW	037H
	DD	0c0000dfH
	DW	00H
	DW	034H
	DD	0d9e0H
	DW	00H
	DW	034H
	DD	070dbe2H
	DW	00H
	DW	038H
	DD	0dac0H
	DW	00H
	DW	039H
	DD	0dad0H
	DW	00H
	DW	03aH
	DD	0dac8H
	DW	00H
	DW	038H
	DD	0dbc0H
	DW	00H
	DW	039H
	DD	0dbd0H
	DW	00H
	DW	03aH
	DD	0dbc8H
	DW	00H
	DW	03bH
	DD	0dbd8H
	DW	00H
	DW	03bH
	DD	0dad8H
	DW	00H
	DW	03cH
	DD	0400d0d0H
	DW	00H
	DW	03dH
	DD	0dbf0H
	DW	00H
	DW	03dH
	DD	0dff0H
	DW	00H
	DW	03cH
	DD	0600d8d8H
	DW	00H
	DW	034H
	DD	0ded9H
	DW	00H
	DW	034H
	DD	0d9ffH
	DW	00H
	DW	034H
	DD	0d9f6H
	DW	00H
	DW	035H
	DD	0c00f0f8H
	DW	00H
	DW	036H
	DD	0def8H
	DW	00H
	DW	035H
	DD	0e00f8f0H
	DW	00H
	DW	036H
	DD	0def0H
	DW	00H
	DW	03eH
	DD	01000eH
	DW	00H
	DW	03fH
	DD	0ddc0H
	DW	00H
	DW	040H
	DD	0daH
	DW	00H
	DW	040H
	DD	040000daH
	DW	00H
	DW	040H
	DD	060000daH
	DW	00H
	DW	040H
	DD	0c0000daH
	DW	00H
	DW	040H
	DD	0e0000daH
	DW	00H
	DW	041H
	DD	0dbH
	DW	00H
	DW	040H
	DD	020000daH
	DW	00H
	DW	034H
	DD	0d9f7H
	DW	00H
	DW	034H
	DD	070dbe3H
	DW	00H
	DW	040H
	DD	040000dbH
	DW	00H
	DW	042H
	DD	060000dbH
	DW	00H
	DW	043H
	DD	020000dbH
	DW	00H
	DW	040H
	DD	080000daH
	DW	00H
	DW	040H
	DD	0a0000daH
	DW	00H
	DW	044H
	DD	0d9H
	DW	00H
	DW	034H
	DD	0d9e8H
	DW	00H
	DW	037H
	DD	0a0000d9H
	DW	00H
	DW	037H
	DD	080000d9H
	DW	00H
	DW	034H
	DD	0d9eaH
	DW	00H
	DW	034H
	DD	0d9e9H
	DW	00H
	DW	034H
	DD	0d9ecH
	DW	00H
	DW	034H
	DD	0d9edH
	DW	00H
	DW	034H
	DD	0d9ebH
	DW	00H
	DW	034H
	DD	0d9eeH
	DW	00H
	DW	035H
	DD	0200c8c8H
	DW	00H
	DW	036H
	DD	0dec8H
	DW	00H
	DW	034H
	DD	0dbe2H
	DW	00H
	DW	034H
	DD	0dbe3H
	DW	00H
	DW	034H
	DD	0d9d0H
	DW	00H
	DW	037H
	DD	0c0000ddH
	DW	00H
	DW	037H
	DD	0e0000d9H
	DW	00H
	DW	037H
	DD	0c0000d9H
	DW	00H
	DW	045H
	DD	0e0000ddH
	DW	00H
	DW	034H
	DD	0d9f3H
	DW	00H
	DW	034H
	DD	0d9f8H
	DW	00H
	DW	034H
	DD	0d9f5H
	DW	00H
	DW	034H
	DD	0d9f2H
	DW	00H
	DW	034H
	DD	0d9fcH
	DW	00H
	DW	037H
	DD	080000ddH
	DW	00H
	DW	037H
	DD	0c7000ddH
	DW	00H
	DW	034H
	DD	0d9fdH
	DW	00H
	DW	034H
	DD	0d9feH
	DW	00H
	DW	034H
	DD	0d9fbH
	DW	00H
	DW	034H
	DD	0d9faH
	DW	00H
	DW	046H
	DD	040000d9H
	DW	00H
	DW	037H
	DD	0e7000d9H
	DW	00H
	DW	037H
	DD	0c7000d9H
	DW	00H
	DW	047H
	DD	060000d9H
	DW	00H
	DW	048H
	DD	0e7000ddH
	DW	00H
	DW	035H
	DD	0800e0e8H
	DW	00H
	DW	036H
	DD	0dee8H
	DW	00H
	DW	035H
	DD	0a00e8e0H
	DW	00H
	DW	036H
	DD	0dee0H
	DW	00H
	DW	034H
	DD	0d9e4H
	DW	00H
	DW	036H
	DD	0dde0H
	DW	00H
	DW	03dH
	DD	0dbe8H
	DW	00H
	DW	03dH
	DD	0dfe8H
	DW	00H
	DW	036H
	DD	0dde8H
	DW	00H
	DW	034H
	DD	0dae9H
	DW	00H
	DW	03eH
	DD	0dbH
	DW	00H
	DW	034H
	DD	0d9e5H
	DW	00H
	DW	03fH
	DD	0d9c8H
	DW	00H
	DW	037H
	DD	020100aeH
	DW	00H
	DW	037H
	DD	0100aeH
	DW	00H
	DW	034H
	DD	0d9f4H
	DW	00H
	DW	034H
	DD	0d9f1H
	DW	00H
	DW	034H
	DD	0d9f9H
	DW	00H
	DW	03H
	DD	011007cH
	DW	00H
	DW	03H
	DD	031007cH
	DW	00H
	DW	03H
	DD	011007dH
	DW	00H
	DW	03H
	DD	031007dH
	DW	00H
	DW	049H
	DD	0e0000f6H
	DW	00H
	DW	04aH
	DD	00H
	DW	00H
	DW	04bH
	DD	0feH
	DW	00H
	DW	04H
	DD	0130021H
	DW	00H
	DW	04cH
	DD	0310079H
	DW	00H
	DW	04dH
	DD	0ccH
	DW	00H
	DW	04eH
	DD	077H
	DW	00H
	DW	04fH
	DD	073H
	DW	00H
	DW	04fH
	DD	072H
	DW	00H
	DW	04eH
	DD	076H
	DW	00H
	DW	04fH
	DD	072H
	DW	00H
	DW	050H
	DD	074H
	DW	00H
	DW	051H
	DD	07fH
	DW	00H
	DW	052H
	DD	07dH
	DW	00H
	DW	052H
	DD	07cH
	DW	00H
	DW	051H
	DD	07eH
	DW	00H
	DW	04eH
	DD	076H
	DW	00H
	DW	04fH
	DD	072H
	DW	00H
	DW	04fH
	DD	073H
	DW	00H
	DW	04eH
	DD	077H
	DW	00H
	DW	04fH
	DD	073H
	DW	00H
	DW	050H
	DD	075H
	DW	00H
	DW	051H
	DD	07eH
	DW	00H
	DW	052H
	DD	07cH
	DW	00H
	DW	052H
	DD	07dH
	DW	00H
	DW	051H
	DD	07fH
	DW	00H
	DW	053H
	DD	071H
	DW	00H
	DW	054H
	DD	07bH
	DW	00H
	DW	055H
	DD	079H
	DW	00H
	DW	050H
	DD	075H
	DW	00H
	DW	053H
	DD	070H
	DW	00H
	DW	054H
	DD	07aH
	DW	00H
	DW	054H
	DD	07aH
	DW	00H
	DW	054H
	DD	07bH
	DW	00H
	DW	055H
	DD	078H
	DW	00H
	DW	050H
	DD	074H
	DW	00H
	DW	056H
	DD	0e3H
	DW	00H
	DW	057H
	DD	080000ffH
	DW	00H
	DW	058H
	DD	09fH
	DW	00H
	DW	059H
	DD	03100f0H
	DW	00H
	DW	013H
	DD	040100aeH
	DW	00H
	DW	05aH
	DD	08dH
	DW	00H
	DW	010H
	DD	0c9H
	DW	00H
	DW	05bH
	DD	0a0100aeH
	DW	00H
	DW	05cH
	DD	0acH
	DW	00H
	DW	05dH
	DD	0adH
	DW	00H
	DW	05eH
	DD	0800000adH
	DW	00H
	DW	05fH
	DD	0adH
	DW	00H
	DW	09H
	DD	02100bdH
	DW	00H
	DW	060H
	DD	0110057H
	DW	00H
	DW	061H
	DD	0100f7H
	DW	00H
	DW	03H
	DD	011005fH
	DW	00H
	DW	03H
	DD	01005fH
	DW	00H
	DW	03H
	DD	031005fH
	DW	00H
	DW	03H
	DD	021005fH
	DW	00H
	DW	05bH
	DD	0c0100aeH
	DW	00H
	DW	03H
	DD	011005dH
	DW	00H
	DW	03H
	DD	01005dH
	DW	00H
	DW	03H
	DD	031005dH
	DW	00H
	DW	03H
	DD	021005dH
	DW	00H
	DW	010H
	DD	0f00c8H
	DW	00H
	DW	062H
	DD	00H
	DW	00H
	DW	063H
	DD	0a0H
	DW	00H
	DW	064H
	DD	0110028H
	DW	00H
	DW	065H
	DD	010028H
	DW	00H
	DW	066H
	DD	0200f0H
	DW	00H
	DW	067H
	DD	01006eH
	DW	00H
	DW	068H
	DD	0310012H
	DW	00H
	DW	069H
	DD	03100d6H
	DW	00H
	DW	06aH
	DD	011006fH
	DW	00H
	DW	06bH
	DD	021006fH
	DW	00H
	DW	06cH
	DD	010012H
	DW	00H
	DW	06dH
	DD	0110016H
	DW	00H
	DW	06eH
	DD	010016H
	DW	00H
	DW	06fH
	DD	010016H
	DW	00H
	DW	070H
	DD	0110012H
	DW	00H
	DW	071H
	DD	010012H
	DW	00H
	DW	072H
	DD	0110050H
	DW	00H
	DW	072H
	DD	010050H
	DW	00H
	DW	073H
	DD	00H
	DW	00H
	DW	074H
	DD	012002aH
	DW	00H
	DW	075H
	DD	00H
	DW	00H
	DW	076H
	DD	00H
	DW	00H
	DW	077H
	DD	00H
	DW	00H
	DW	078H
	DD	00H
	DW	00H
	DW	079H
	DD	00H
	DW	00H
	DW	07aH
	DD	00H
	DW	00H
	DW	07bH
	DD	08001006eH
	DW	00H
	DW	07cH
	DD	02100d6H
	DW	00H
	DW	010H
	DD	0a4H
	DW	00H
	DW	07dH
	DD	0a5H
	DW	00H
	DW	010H
	DD	0800000a5H
	DW	00H
	DW	07eH
	DD	0a5H
	DW	00H
	DW	07fH
	DD	0310010H
	DW	00H
	DW	024H
	DD	0210016H
	DW	00H
	DW	024H
	DD	0210012H
	DW	00H
	DW	080H
	DD	0210010H
	DW	00H
	DW	081H
	DD	0100beH
	DW	00H
	DW	082H
	DD	063H
	DW	00H
	DW	083H
	DD	0110010H
	DW	00H
	DW	084H
	DD	010010H
	DW	00H
	DW	081H
	DD	0100b6H
	DW	00H
	DW	04H
	DD	0130042H
	DW	00H
	DW	049H
	DD	080000f6H
	DW	00H
	DW	03H
	DD	0110059H
	DW	00H
	DW	03H
	DD	010059H
	DW	00H
	DW	03H
	DD	0310059H
	DW	00H
	DW	03H
	DD	0210059H
	DW	00H
	DW	085H
	DD	03200f6H
	DW	00H
	DW	010H
	DD	0f00c9H
	DW	00H
	DW	086H
	DD	060000f6H
	DW	00H
	DW	030H
	DD	090H
	DW	00H
	DW	087H
	DD	040000f6H
	DW	00H
	DW	02H
	DD	02000008H
	DW	00H
	DW	03H
	DD	0110056H
	DW	00H
	DW	03H
	DD	010056H
	DW	00H
	DW	088H
	DD	02001cH
	DW	00H
	DW	088H
	DD	02001eH
	DW	00H
	DW	088H
	DD	02001dH
	DW	00H
	DW	088H
	DD	01006bH
	DW	00H
	DW	088H
	DD	010063H
	DW	00H
	DW	03H
	DD	012002bH
	DW	00H
	DW	088H
	DD	010067H
	DW	00H
	DW	088H
	DD	0100fcH
	DW	00H
	DW	088H
	DD	0100feH
	DW	00H
	DW	088H
	DD	0100d4H
	DW	00H
	DW	088H
	DD	0100ecH
	DW	00H
	DW	088H
	DD	0100edH
	DW	00H
	DW	088H
	DD	0100dcH
	DW	00H
	DW	088H
	DD	0100ddH
	DW	00H
	DW	088H
	DD	0100fdH
	DW	00H
	DW	089H
	DD	03000fH
	DW	00H
	DW	088H
	DD	0100dbH
	DW	00H
	DW	088H
	DD	0100dfH
	DW	00H
	DW	030H
	DD	0200090H
	DW	00H
	DW	088H
	DD	0100e0H
	DW	00H
	DW	088H
	DD	0100e3H
	DW	00H
	DW	07H
	DD	0120010H
	DW	00H
	DW	04H
	DD	013000eH
	DW	00H
	DW	04H
	DD	0130044H
	DW	00H
	DW	088H
	DD	010074H
	DW	00H
	DW	088H
	DD	010076H
	DW	00H
	DW	03H
	DD	0120029H
	DW	00H
	DW	088H
	DD	010075H
	DW	00H
	DW	04H
	DD	0130061H
	DW	00H
	DW	04H
	DD	0130060H
	DW	00H
	DW	088H
	DD	010064H
	DW	00H
	DW	088H
	DD	010066H
	DW	00H
	DW	03H
	DD	0120037H
	DW	00H
	DW	088H
	DD	010065H
	DW	00H
	DW	04H
	DD	0130063H
	DW	00H
	DW	04H
	DD	0130062H
	DW	00H
	DW	085H
	DD	03200f5H
	DW	00H
	DW	085H
	DD	02200f5H
	DW	00H
	DW	08aH
	DD	030014H
	DW	00H
	DW	08bH
	DD	030016H
	DW	00H
	DW	08cH
	DD	080030016H
	DW	00H
	DW	08dH
	DD	0100c5H
	DW	00H
	DW	08eH
	DD	01001dH
	DW	00H
	DW	08eH
	DD	01001cH
	DW	00H
	DW	08eH
	DD	0100aeH
	DW	00H
	DW	08eH
	DD	01009eH
	DW	00H
	DW	08eH
	DD	0100b0H
	DW	00H
	DW	08eH
	DD	010090H
	DW	00H
	DW	08eH
	DD	0100a0H
	DW	00H
	DW	08eH
	DD	0100a4H
	DW	00H
	DW	08eH
	DD	010094H
	DW	00H
	DW	08eH
	DD	0100b4H
	DW	00H
	DW	08eH
	DD	01008aH
	DW	00H
	DW	08eH
	DD	01008eH
	DW	00H
	DW	08eH
	DD	010096H
	DW	00H
	DW	08eH
	DD	0100a6H
	DW	00H
	DW	08eH
	DD	0100b6H
	DW	00H
	DW	08eH
	DD	0100a7H
	DW	00H
	DW	08eH
	DD	010097H
	DW	00H
	DW	08eH
	DD	01009aH
	DW	00H
	DW	08eH
	DD	0100aaH
	DW	00H
	DW	088H
	DD	020002H
	DW	00H
	DW	088H
	DD	020003H
	DW	00H
	DW	088H
	DD	020001H
	DW	00H
	DW	03H
	DD	0120041H
	DW	00H
	DW	088H
	DD	020006H
	DW	00H
	DW	088H
	DD	020007H
	DW	00H
	DW	088H
	DD	020005H
	DW	00H
	DW	08eH
	DD	01000dH
	DW	00H
	DW	08eH
	DD	01000cH
	DW	00H
	DW	08fH
	DD	0130020H
	DW	00H
	DW	08fH
	DD	0130022H
	DW	00H
	DW	090H
	DD	080130022H
	DW	00H
	DW	091H
	DD	0100c4H
	DW	00H
	DW	088H
	DD	020004H
	DW	00H
	DW	088H
	DD	0100f5H
	DW	00H
	DW	03H
	DD	012003cH
	DW	00H
	DW	03H
	DD	012003dH
	DW	00H
	DW	088H
	DD	0100eeH
	DW	00H
	DW	088H
	DD	0100deH
	DW	00H
	DW	03H
	DD	012003fH
	DW	00H
	DW	03H
	DD	012003eH
	DW	00H
	DW	03H
	DD	0120038H
	DW	00H
	DW	03H
	DD	0120039H
	DW	00H
	DW	088H
	DD	0100eaH
	DW	00H
	DW	088H
	DD	0100daH
	DW	00H
	DW	03H
	DD	012003bH
	DW	00H
	DW	03H
	DD	012003aH
	DW	00H
	DW	092H
	DD	0100d7H
	DW	00H
	DW	024H
	DD	0120021H
	DW	00H
	DW	024H
	DD	0120022H
	DW	00H
	DW	024H
	DD	0120020H
	DW	00H
	DW	024H
	DD	0120025H
	DW	00H
	DW	024H
	DD	0120023H
	DW	00H
	DW	024H
	DD	0120024H
	DW	00H
	DW	024H
	DD	0120031H
	DW	00H
	DW	024H
	DD	0120032H
	DW	00H
	DW	024H
	DD	0120030H
	DW	00H
	DW	024H
	DD	0120035H
	DW	00H
	DW	024H
	DD	0120033H
	DW	00H
	DW	024H
	DD	0120034H
	DW	00H
	DW	03H
	DD	0120028H
	DW	00H
	DW	088H
	DD	02000bH
	DW	00H
	DW	088H
	DD	0100e4H
	DW	00H
	DW	088H
	DD	0100e5H
	DW	00H
	DW	03H
	DD	0120040H
	DW	00H
	DW	088H
	DD	0100d5H
	DW	00H
	DW	088H
	DD	0100f4H
	DW	00H
	DW	093H
	DD	08fH
	DW	00H
	DW	010H
	DD	061H
	DW	00H
	DW	09H
	DD	02100b8H
	DW	00H
	DW	094H
	DD	09dH
	DW	00H
	DW	088H
	DD	0100ebH
	DW	00H
	DW	095H
	DD	010018H
	DW	00H
	DW	013H
	DD	01000dH
	DW	00H
	DW	013H
	DD	0201000dH
	DW	00H
	DW	088H
	DD	0100f6H
	DW	00H
	DW	088H
	DD	020000H
	DW	00H
	DW	096H
	DD	0110070H
	DW	00H
	DW	096H
	DD	0210070H
	DW	00H
	DW	096H
	DD	0310070H
	DW	00H
	DW	097H
	DD	010070H
	DW	00H
	DW	088H
	DD	020008H
	DW	00H
	DW	088H
	DD	02000aH
	DW	00H
	DW	088H
	DD	020009H
	DW	00H
	DW	098H
	DD	0100f2H
	DW	00H
	DW	099H
	DD	00H
	DW	00H
	DW	09aH
	DD	0100f3H
	DW	00H
	DW	09bH
	DD	0100f1H
	DW	00H
	DW	09cH
	DD	0100e2H
	DW	00H
	DW	09dH
	DD	0100e1H
	DW	00H
	DW	09eH
	DD	0100d2H
	DW	00H
	DW	09fH
	DD	00H
	DW	00H
	DW	0a0H
	DD	0100d3H
	DW	00H
	DW	0a1H
	DD	0100d1H
	DW	00H
	DW	088H
	DD	0100f8H
	DW	00H
	DW	088H
	DD	0100faH
	DW	00H
	DW	088H
	DD	0100fbH
	DW	00H
	DW	088H
	DD	0100e8H
	DW	00H
	DW	088H
	DD	0100e9H
	DW	00H
	DW	088H
	DD	0100d8H
	DW	00H
	DW	088H
	DD	0100d9H
	DW	00H
	DW	088H
	DD	0100f9H
	DW	00H
	DW	08eH
	DD	0100bbH
	DW	00H
	DW	022H
	DD	0120017H
	DW	00H
	DW	088H
	DD	010068H
	DW	00H
	DW	088H
	DD	01006aH
	DW	00H
	DW	03H
	DD	011006dH
	DW	00H
	DW	088H
	DD	010069H
	DW	00H
	DW	088H
	DD	010060H
	DW	00H
	DW	088H
	DD	010062H
	DW	00H
	DW	03H
	DD	011006cH
	DW	00H
	DW	088H
	DD	010061H
	DW	00H
	DW	0a2H
	DD	0c0000ffH
	DW	00H
	DW	010H
	DD	060H
	DW	00H
	DW	0a3H
	DD	09cH
	DW	00H
	DW	088H
	DD	0100efH
	DW	00H
	DW	0a4H
	DD	040000d0H
	DW	00H
	DW	024H
	DD	010053H
	DW	00H
	DW	029H
	DD	0210053H
	DW	00H
	DW	0a4H
	DD	060000d0H
	DW	00H
	DW	0a5H
	DD	02100aeH
	DW	00H
	DW	0a5H
	DD	022100aeH
	DW	00H
	DW	0a6H
	DD	0c0100c7H
	DW	00H
	DW	010H
	DD	010031H
	DW	00H
	DW	010H
	DD	0f00f9H
	DW	00H
	DW	0a7H
	DD	020000acH
	DW	00H
	DW	0a7H
	DD	020000adH
	DW	00H
	DW	0a7H
	DD	0820000adH
	DW	00H
	DW	0a7H
	DD	021000adH
	DW	00H
	DW	0a8H
	DD	020000a4H
	DW	00H
	DW	0a8H
	DD	020000a5H
	DW	00H
	DW	0a8H
	DD	0820000a5H
	DW	00H
	DW	0a8H
	DD	021000a5H
	DW	00H
	DW	0a7H
	DD	020000aaH
	DW	00H
	DW	0a7H
	DD	020000abH
	DW	00H
	DW	0a7H
	DD	0820000abH
	DW	00H
	DW	0a7H
	DD	021000abH
	DW	00H
	DW	0a9H
	DD	020000a6H
	DW	00H
	DW	0a9H
	DD	020000a7H
	DW	00H
	DW	0a9H
	DD	0820000a7H
	DW	00H
	DW	0a9H
	DD	021000a7H
	DW	00H
	DW	0a9H
	DD	020000aeH
	DW	00H
	DW	0a9H
	DD	020000afH
	DW	00H
	DW	0a9H
	DD	0820000afH
	DW	00H
	DW	0a9H
	DD	021000afH
	DW	00H
	DW	0a9H
	DD	0a6H
	DW	00H
	DW	0a9H
	DD	0a7H
	DW	00H
	DW	0a9H
	DD	0800000a7H
	DW	00H
	DW	0a9H
	DD	01000a7H
	DW	00H
	DW	0a9H
	DD	0aeH
	DW	00H
	DW	0a9H
	DD	0afH
	DW	00H
	DW	0a9H
	DD	0800000afH
	DW	00H
	DW	0a9H
	DD	01000afH
	DW	00H
	DW	0aaH
	DD	0c2H
	DW	00H
	DW	0abH
	DD	0d0H
	DW	00H
	DW	0abH
	DD	020000d0H
	DW	00H
	DW	0acH
	DD	03300f0H
	DW	00H
	DW	096H
	DD	0130009H
	DW	00H
	DW	096H
	DD	0130008H
	DW	00H
	DW	0adH
	DD	013000bH
	DW	00H
	DW	0aeH
	DD	013000aH
	DW	00H
	DW	024H
	DD	010052H
	DW	00H
	DW	029H
	DD	0210052H
	DW	00H
	DW	0afH
	DD	09eH
	DW	00H
	DW	0b0H
	DD	080000d0H
	DW	00H
	DW	0b0H
	DD	0e0000d0H
	DW	00H
	DW	0b1H
	DD	02200f7H
	DW	00H
	DW	01H
	DD	06000018H
	DW	00H
	DW	01eH
	DD	0aeH
	DW	00H
	DW	01eH
	DD	0afH
	DW	00H
	DW	01eH
	DD	0800000afH
	DW	00H
	DW	01fH
	DD	0afH
	DW	00H
	DW	0b2H
	DD	010097H
	DW	00H
	DW	0b3H
	DD	010093H
	DW	00H
	DW	0b3H
	DD	010092H
	DW	00H
	DW	0b2H
	DD	010096H
	DW	00H
	DW	0b3H
	DD	010092H
	DW	00H
	DW	0b4H
	DD	010094H
	DW	00H
	DW	0b5H
	DD	01009fH
	DW	00H
	DW	0b6H
	DD	01009dH
	DW	00H
	DW	0b6H
	DD	01009cH
	DW	00H
	DW	0b5H
	DD	01009eH
	DW	00H
	DW	0b2H
	DD	010096H
	DW	00H
	DW	0b3H
	DD	010092H
	DW	00H
	DW	0b3H
	DD	010093H
	DW	00H
	DW	0b2H
	DD	010097H
	DW	00H
	DW	0b3H
	DD	010093H
	DW	00H
	DW	0b4H
	DD	010095H
	DW	00H
	DW	0b5H
	DD	01009eH
	DW	00H
	DW	0b6H
	DD	01009cH
	DW	00H
	DW	0b6H
	DD	01009dH
	DW	00H
	DW	0b5H
	DD	01009fH
	DW	00H
	DW	0b7H
	DD	010091H
	DW	00H
	DW	0b8H
	DD	01009bH
	DW	00H
	DW	0b9H
	DD	010099H
	DW	00H
	DW	0b4H
	DD	010095H
	DW	00H
	DW	0b7H
	DD	010090H
	DW	00H
	DW	0b8H
	DD	01009aH
	DW	00H
	DW	0b8H
	DD	01009aH
	DW	00H
	DW	0b8H
	DD	01009bH
	DW	00H
	DW	0b9H
	DD	010098H
	DW	00H
	DW	0b4H
	DD	010094H
	DW	00H
	DW	05bH
	DD	0e0100aeH
	DW	00H
	DW	0b0H
	DD	080000d0H
	DW	00H
	DW	0baH
	DD	0100a4H
	DW	00H
	DW	0b1H
	DD	01200f7H
	DW	00H
	DW	0b0H
	DD	0a0000d0H
	DW	00H
	DW	0bbH
	DD	0100acH
	DW	00H
	DW	0b1H
	DD	03200f7H
	DW	00H
	DW	04H
	DD	01100c6H
	DW	00H
	DW	04H
	DD	0100c6H
	DW	00H
	DW	024H
	DD	0110051H
	DW	00H
	DW	024H
	DD	010051H
	DW	00H
	DW	02cH
	DD	0310051H
	DW	00H
	DW	029H
	DD	0210051H
	DW	00H
	DW	011H
	DD	0f9H
	DW	00H
	DW	012H
	DD	0fdH
	DW	00H
	DW	013H
	DD	060100aeH
	DW	00H
	DW	0bcH
	DD	0aaH
	DW	00H
	DW	0bcH
	DD	0abH
	DW	00H
	DW	0bcH
	DD	0800000abH
	DW	00H
	DW	0bdH
	DD	0abH
	DW	00H
	DW	02H
	DD	0a000028H
	DW	00H
	DW	03H
	DD	011005cH
	DW	00H
	DW	03H
	DD	01005cH
	DW	00H
	DW	03H
	DD	031005cH
	DW	00H
	DW	03H
	DD	021005cH
	DW	00H
	DW	0beH
	DD	084H
	DW	00H
	DW	0bfH
	DD	02100bcH
	DW	00H
	DW	022H
	DD	011002eH
	DW	00H
	DW	022H
	DD	01002eH
	DW	00H
	DW	030H
	DD	01000bH
	DW	00H
	DW	03H
	DD	0110015H
	DW	00H
	DW	03H
	DD	010015H
	DW	00H
	DW	03H
	DD	0110014H
	DW	00H
	DW	03H
	DD	010014H
	DW	00H
	DW	0c0H
	DD	040110058H
	DW	00H
	DW	0c0H
	DD	010058H
	DW	00H
	DW	0c1H
	DD	040310058H
	DW	00H
	DW	0c1H
	DD	0210058H
	DW	00H
	DW	0c0H
	DD	01100d0H
	DW	00H
	DW	0c0H
	DD	03100d0H
	DW	00H
	DW	0c1H
	DD	01200deH
	DW	00H
	DW	0c1H
	DD	01200dfH
	DW	00H
	DW	0c1H
	DD	01200dcH
	DW	00H
	DW	0c1H
	DD	01200ddH
	DW	00H
	DW	0c2H
	DD	01200dbH
	DW	00H
	DW	0c3H
	DD	01300dfH
	DW	00H
	DW	0c0H
	DD	040110055H
	DW	00H
	DW	0c0H
	DD	010055H
	DW	00H
	DW	0c0H
	DD	040110054H
	DW	00H
	DW	0c0H
	DD	010054H
	DW	00H
	DW	0c4H
	DD	013000dH
	DW	00H
	DW	0c4H
	DD	013000cH
	DW	00H
	DW	0c5H
	DD	013004bH
	DW	00H
	DW	0c5H
	DD	013004aH
	DW	00H
	DW	0c6H
	DD	092001aH
	DW	00H
	DW	0c6H
	DD	092005aH
	DW	00H
	DW	0c7H
	DD	040920019H
	DW	00H
	DW	0c8H
	DD	0120018H
	DW	00H
	DW	0c4H
	DD	01100c2H
	DW	00H
	DW	0c4H
	DD	0100c2H
	DW	00H
	DW	0c9H
	DD	03100c2H
	DW	00H
	DW	0c9H
	DD	02100c2H
	DW	00H
	DW	0c2H
	DD	011002fH
	DW	00H
	DW	0c2H
	DD	01002fH
	DW	00H
	DW	0caH
	DD	02100e6H
	DW	00H
	DW	0cbH
	DD	01005bH
	DW	00H
	DW	0ccH
	DD	03100e6H
	DW	00H
	DW	0ccH
	DD	011005aH
	DW	00H
	DW	0caH
	DD	0120013H
	DW	00H
	DW	0cbH
	DD	011005bH
	DW	00H
	DW	0caH
	DD	01005aH
	DW	00H
	DW	0cdH
	DD	013001dH
	DW	00H
	DW	0ceH
	DD	031002dH
	DW	00H
	DW	0c1H
	DD	031005aH
	DW	00H
	DW	0cfH
	DD	031002aH
	DW	00H
	DW	0cfH
	DD	021002aH
	DW	00H
	DW	0c1H
	DD	021005aH
	DW	00H
	DW	0ceH
	DD	031002dH
	DW	00H
	DW	0d0H
	DD	01100e6H
	DW	00H
	DW	0cbH
	DD	021005bH
	DW	00H
	DW	0ceH
	DD	031002cH
	DW	00H
	DW	0ceH
	DD	021002cH
	DW	00H
	DW	0c0H
	DD	011005eH
	DW	00H
	DW	0c0H
	DD	01005eH
	DW	00H
	DW	0c1H
	DD	031005eH
	DW	00H
	DW	0c1H
	DD	021005eH
	DW	00H
	DW	0c9H
	DD	0130041H
	DW	00H
	DW	0c4H
	DD	0130040H
	DW	00H
	DW	0d1H
	DD	0930019H
	DW	00H
	DW	0d1H
	DD	0930039H
	DW	00H
	DW	0d2H
	DD	0130017H
	DW	00H
	DW	0c0H
	DD	080120098H
	DW	00H
	DW	0c0H
	DD	0120098H
	DW	00H
	DW	0c1H
	DD	080120099H
	DW	00H
	DW	0c1H
	DD	0120099H
	DW	00H
	DW	0c0H
	DD	0801200a8H
	DW	00H
	DW	0c0H
	DD	01200a8H
	DW	00H
	DW	0c1H
	DD	0801200a9H
	DW	00H
	DW	0c1H
	DD	01200a9H
	DW	00H
	DW	0c0H
	DD	0801200b8H
	DW	00H
	DW	0c0H
	DD	01200b8H
	DW	00H
	DW	0c1H
	DD	0801200b9H
	DW	00H
	DW	0c1H
	DD	01200b9H
	DW	00H
	DW	0d3H
	DD	0130069H
	DW	00H
	DW	0d3H
	DD	0130068H
	DW	00H
	DW	0d4H
	DD	013006bH
	DW	00H
	DW	0d4H
	DD	013006aH
	DW	00H
	DW	0c0H
	DD	080120096H
	DW	00H
	DW	0c0H
	DD	0120096H
	DW	00H
	DW	0c0H
	DD	0801200a6H
	DW	00H
	DW	0c0H
	DD	01200a6H
	DW	00H
	DW	0c0H
	DD	0801200b6H
	DW	00H
	DW	0c0H
	DD	01200b6H
	DW	00H
	DW	0d3H
	DD	013005dH
	DW	00H
	DW	0d3H
	DD	013005cH
	DW	00H
	DW	0c0H
	DD	08012009aH
	DW	00H
	DW	0c0H
	DD	012009aH
	DW	00H
	DW	0c1H
	DD	08012009bH
	DW	00H
	DW	0c1H
	DD	012009bH
	DW	00H
	DW	0c0H
	DD	0801200aaH
	DW	00H
	DW	0c0H
	DD	01200aaH
	DW	00H
	DW	0c1H
	DD	0801200abH
	DW	00H
	DW	0c1H
	DD	01200abH
	DW	00H
	DW	0c0H
	DD	0801200baH
	DW	00H
	DW	0c0H
	DD	01200baH
	DW	00H
	DW	0c1H
	DD	0801200bbH
	DW	00H
	DW	0c1H
	DD	01200bbH
	DW	00H
	DW	0c0H
	DD	080120097H
	DW	00H
	DW	0c0H
	DD	0120097H
	DW	00H
	DW	0c0H
	DD	0801200a7H
	DW	00H
	DW	0c0H
	DD	01200a7H
	DW	00H
	DW	0c0H
	DD	0801200b7H
	DW	00H
	DW	0c0H
	DD	01200b7H
	DW	00H
	DW	0d3H
	DD	013005fH
	DW	00H
	DW	0d3H
	DD	013005eH
	DW	00H
	DW	0d3H
	DD	013006dH
	DW	00H
	DW	0d3H
	DD	013006cH
	DW	00H
	DW	0d4H
	DD	013006fH
	DW	00H
	DW	0d4H
	DD	013006eH
	DW	00H
	DW	0c0H
	DD	08012009cH
	DW	00H
	DW	0c0H
	DD	012009cH
	DW	00H
	DW	0c1H
	DD	08012009dH
	DW	00H
	DW	0c1H
	DD	012009dH
	DW	00H
	DW	0c0H
	DD	0801200acH
	DW	00H
	DW	0c0H
	DD	01200acH
	DW	00H
	DW	0c1H
	DD	0801200adH
	DW	00H
	DW	0c1H
	DD	01200adH
	DW	00H
	DW	0c0H
	DD	0801200bcH
	DW	00H
	DW	0c0H
	DD	01200bcH
	DW	00H
	DW	0c1H
	DD	0801200bcH
	DW	00H
	DW	0c1H
	DD	01200bcH
	DW	00H
	DW	0d3H
	DD	0130079H
	DW	00H
	DW	0d3H
	DD	0130078H
	DW	00H
	DW	0d4H
	DD	013007bH
	DW	00H
	DW	0d4H
	DD	013007aH
	DW	00H
	DW	0c0H
	DD	08012009eH
	DW	00H
	DW	0c0H
	DD	012009eH
	DW	00H
	DW	0c1H
	DD	08012009fH
	DW	00H
	DW	0c1H
	DD	012009fH
	DW	00H
	DW	0c0H
	DD	0801200aeH
	DW	00H
	DW	0c0H
	DD	01200aeH
	DW	00H
	DW	0c1H
	DD	0801200afH
	DW	00H
	DW	0c1H
	DD	01200afH
	DW	00H
	DW	0c0H
	DD	0801200beH
	DW	00H
	DW	0c0H
	DD	01200beH
	DW	00H
	DW	0c1H
	DD	0801200bfH
	DW	00H
	DW	0c1H
	DD	01200bfH
	DW	00H
	DW	0d3H
	DD	013007dH
	DW	00H
	DW	0d3H
	DD	013007cH
	DW	00H
	DW	0d4H
	DD	013007fH
	DW	00H
	DW	0d4H
	DD	013007eH
	DW	00H
	DW	0d5H
	DD	090081H
	DW	00H
	DW	0d5H
	DD	090080H
	DW	00H
	DW	0d6H
	DD	090083H
	DW	00H
	DW	0d6H
	DD	090082H
	DW	00H
	DW	0d7H
	DD	080120092H
	DW	00H
	DW	0d7H
	DD	0120092H
	DW	00H
	DW	0d7H
	DD	080120093H
	DW	00H
	DW	0d8H
	DD	0120093H
	DW	00H
	DW	0c0H
	DD	011007cH
	DW	00H
	DW	0c0H
	DD	031007cH
	DW	00H
	DW	0c0H
	DD	011007dH
	DW	00H
	DW	0c0H
	DD	031007dH
	DW	00H
	DW	0d9H
	DD	0930018H
	DW	00H
	DW	0d9H
	DD	0930038H
	DW	00H
	DW	0c9H
	DD	0130021H
	DW	00H
	DW	0daH
	DD	03100f0H
	DW	00H
	DW	0dbH
	DD	040100aeH
	DW	00H
	DW	0dcH
	DD	01100f7H
	DW	00H
	DW	0ddH
	DD	012002dH
	DW	00H
	DW	0deH
	DD	012002cH
	DW	00H
	DW	0c0H
	DD	011005fH
	DW	00H
	DW	0c0H
	DD	01005fH
	DW	00H
	DW	0c0H
	DD	031005fH
	DW	00H
	DW	0c0H
	DD	021005fH
	DW	00H
	DW	0c0H
	DD	011005dH
	DW	00H
	DW	0c0H
	DD	01005dH
	DW	00H
	DW	0c0H
	DD	031005dH
	DW	00H
	DW	0c0H
	DD	021005dH
	DW	00H
	DW	0dfH
	DD	0110028H
	DW	00H
	DW	0e0H
	DD	010028H
	DW	00H
	DW	0e1H
	DD	011006eH
	DW	00H
	DW	0cbH
	DD	0310012H
	DW	00H
	DW	0e2H
	DD	011006fH
	DW	00H
	DW	0e3H
	DD	021006fH
	DW	00H
	DW	0e4H
	DD	010012H
	DW	00H
	DW	0e5H
	DD	0110016H
	DW	00H
	DW	0e6H
	DD	010016H
	DW	00H
	DW	0e4H
	DD	010016H
	DW	00H
	DW	0e7H
	DD	0110012H
	DW	00H
	DW	0e8H
	DD	010012H
	DW	00H
	DW	0e9H
	DD	0110050H
	DW	00H
	DW	0e9H
	DD	010050H
	DW	00H
	DW	0eaH
	DD	01100e7H
	DW	00H
	DW	0daH
	DD	012002aH
	DW	00H
	DW	0ebH
	DD	011002bH
	DW	00H
	DW	0ebH
	DD	01002bH
	DW	00H
	DW	0e1H
	DD	08011006eH
	DW	00H
	DW	0ecH
	DD	0310010H
	DW	00H
	DW	0cbH
	DD	0210016H
	DW	00H
	DW	0cbH
	DD	0210012H
	DW	00H
	DW	0edH
	DD	0210010H
	DW	00H
	DW	0eeH
	DD	0110010H
	DW	00H
	DW	0efH
	DD	010010H
	DW	00H
	DW	0c4H
	DD	0130042H
	DW	00H
	DW	0c0H
	DD	0110059H
	DW	00H
	DW	0c0H
	DD	010059H
	DW	00H
	DW	0c0H
	DD	0310059H
	DW	00H
	DW	0c0H
	DD	0210059H
	DW	00H
	DW	0c0H
	DD	0110056H
	DW	00H
	DW	0c0H
	DD	010056H
	DW	00H
	DW	0cbH
	DD	012001cH
	DW	00H
	DW	0cbH
	DD	012001eH
	DW	00H
	DW	0cbH
	DD	012001dH
	DW	00H
	DW	0c0H
	DD	011006bH
	DW	00H
	DW	0c0H
	DD	0110063H
	DW	00H
	DW	0c0H
	DD	012002bH
	DW	00H
	DW	0c0H
	DD	0110067H
	DW	00H
	DW	0c0H
	DD	01100fcH
	DW	00H
	DW	0c0H
	DD	01100feH
	DW	00H
	DW	0c0H
	DD	01100d4H
	DW	00H
	DW	0c0H
	DD	01100ecH
	DW	00H
	DW	0c0H
	DD	01100edH
	DW	00H
	DW	0c0H
	DD	01100dcH
	DW	00H
	DW	0c0H
	DD	01100ddH
	DW	00H
	DW	0c0H
	DD	01100fdH
	DW	00H
	DW	0c4H
	DD	013000fH
	DW	00H
	DW	0c0H
	DD	01100dbH
	DW	00H
	DW	0c0H
	DD	01100dfH
	DW	00H
	DW	0c0H
	DD	01100e0H
	DW	00H
	DW	0c0H
	DD	01100e3H
	DW	00H
	DW	0c4H
	DD	0130002H
	DW	00H
	DW	0f0H
	DD	013004cH
	DW	00H
	DW	0c4H
	DD	013000eH
	DW	00H
	DW	0caH
	DD	0120078H
	DW	00H
	DW	0caH
	DD	0120058H
	DW	00H
	DW	0caH
	DD	040120059H
	DW	00H
	DW	0caH
	DD	0120079H
	DW	00H
	DW	0c9H
	DD	0130044H
	DW	00H
	DW	0f1H
	DD	0800a2H
	DW	00H
	DW	0c0H
	DD	0110074H
	DW	00H
	DW	0c0H
	DD	0110076H
	DW	00H
	DW	0c0H
	DD	0120029H
	DW	00H
	DW	0c0H
	DD	0110075H
	DW	00H
	DW	0c3H
	DD	0130061H
	DW	00H
	DW	0c3H
	DD	0130060H
	DW	00H
	DW	0c0H
	DD	0110064H
	DW	00H
	DW	0c0H
	DD	0110066H
	DW	00H
	DW	0c0H
	DD	0120037H
	DW	00H
	DW	0c0H
	DD	0110065H
	DW	00H
	DW	0c3H
	DD	0130063H
	DW	00H
	DW	0c3H
	DD	0130062H
	DW	00H
	DW	0f2H
	DD	0800ccH
	DW	00H
	DW	0f2H
	DD	0800ceH
	DW	00H
	DW	0f2H
	DD	0800cfH
	DW	00H
	DW	0f2H
	DD	0800ecH
	DW	00H
	DW	0f2H
	DD	0800eeH
	DW	00H
	DW	0f2H
	DD	0800efH
	DW	00H
	DW	0f2H
	DD	0800edH
	DW	00H
	DW	0f2H
	DD	0800cdH
	DW	00H
	DW	0f3H
	DD	0930006H
	DW	00H
	DW	0f3H
	DD	0930046H
	DW	00H
	DW	0f4H
	DD	0920036H
	DW	00H
	DW	0f5H
	DD	0130049H
	DW	00H
	DW	0f5H
	DD	0130048H
	DW	00H
	DW	0f6H
	DD	012000dH
	DW	00H
	DW	0f7H
	DD	012000cH
	DW	00H
	DW	0f8H
	DD	080930001H
	DW	00H
	DW	0f4H
	DD	0920016H
	DW	00H
	DW	0f8H
	DD	080930000H
	DW	00H
	DW	0f9H
	DD	0130014H
	DW	00H
	DW	0d2H
	DD	0130016H
	DW	00H
	DW	0faH
	DD	080130016H
	DW	00H
	DW	0fbH
	DD	0130015H
	DW	00H
	DW	0d7H
	DD	0120090H
	DW	00H
	DW	0d7H
	DD	080120090H
	DW	00H
	DW	0d8H
	DD	0120091H
	DW	00H
	DW	0d7H
	DD	080120091H
	DW	00H
	DW	0d6H
	DD	0900c2H
	DW	00H
	DW	0d6H
	DD	0900c3H
	DW	00H
	DW	0d6H
	DD	0900c1H
	DW	00H
	DW	0c0H
	DD	0120002H
	DW	00H
	DW	0d6H
	DD	0900cbH
	DW	00H
	DW	0c0H
	DD	0120003H
	DW	00H
	DW	0d6H
	DD	0900d2H
	DW	00H
	DW	0d6H
	DD	0900d3H
	DW	00H
	DW	0d6H
	DD	0900d1H
	DW	00H
	DW	0d6H
	DD	0900dbH
	DW	00H
	DW	0d6H
	DD	0900d6H
	DW	00H
	DW	0d6H
	DD	0900d7H
	DW	00H
	DW	0c0H
	DD	0120001H
	DW	00H
	DW	0d6H
	DD	0900c6H
	DW	00H
	DW	0d6H
	DD	0900c7H
	DW	00H
	DW	0c2H
	DD	0120041H
	DW	00H
	DW	0d6H
	DD	0900e1H
	DW	00H
	DW	0c0H
	DD	0120006H
	DW	00H
	DW	0d6H
	DD	0900e3H
	DW	00H
	DW	0c0H
	DD	0120007H
	DW	00H
	DW	0c0H
	DD	0120005H
	DW	00H
	DW	0d6H
	DD	0900e2H
	DW	00H
	DW	0fcH
	DD	0130020H
	DW	00H
	DW	0fdH
	DD	0130022H
	DW	00H
	DW	0feH
	DD	080130022H
	DW	00H
	DW	0ffH
	DD	01100c4H
	DW	00H
	DW	0100H
	DD	08009eH
	DW	00H
	DW	0100H
	DD	08009fH
	DW	00H
	DW	0100H
	DD	080097H
	DW	00H
	DW	0100H
	DD	08008eH
	DW	00H
	DW	0100H
	DD	08008fH
	DW	00H
	DW	0100H
	DD	080087H
	DW	00H
	DW	0100H
	DD	080086H
	DW	00H
	DW	0100H
	DD	080085H
	DW	00H
	DW	0100H
	DD	080096H
	DW	00H
	DW	0100H
	DD	080095H
	DW	00H
	DW	0100H
	DD	0800a6H
	DW	00H
	DW	0100H
	DD	0800b6H
	DW	00H
	DW	0c0H
	DD	0120004H
	DW	00H
	DW	0c0H
	DD	01100f5H
	DW	00H
	DW	0101H
	DD	012008cH
	DW	00H
	DW	0101H
	DD	08012008cH
	DW	00H
	DW	0c0H
	DD	012003cH
	DW	00H
	DW	0c0H
	DD	012003dH
	DW	00H
	DW	0c0H
	DD	01100eeH
	DW	00H
	DW	0c0H
	DD	01100deH
	DW	00H
	DW	0c0H
	DD	012003fH
	DW	00H
	DW	0c0H
	DD	012003eH
	DW	00H
	DW	0c0H
	DD	0120038H
	DW	00H
	DW	0c0H
	DD	0120039H
	DW	00H
	DW	0c0H
	DD	01100eaH
	DW	00H
	DW	0c0H
	DD	01100daH
	DW	00H
	DW	0c0H
	DD	012003bH
	DW	00H
	DW	0c0H
	DD	012003aH
	DW	00H
	DW	0e9H
	DD	01100d7H
	DW	00H
	DW	0cbH
	DD	0120021H
	DW	00H
	DW	0cbH
	DD	0120022H
	DW	00H
	DW	0cbH
	DD	0120020H
	DW	00H
	DW	0cbH
	DD	0120025H
	DW	00H
	DW	0cbH
	DD	0120023H
	DW	00H
	DW	0cbH
	DD	0120024H
	DW	00H
	DW	0cbH
	DD	0120031H
	DW	00H
	DW	0cbH
	DD	0120032H
	DW	00H
	DW	0cbH
	DD	0120030H
	DW	00H
	DW	0cbH
	DD	0120035H
	DW	00H
	DW	0cbH
	DD	0120033H
	DW	00H
	DW	0cbH
	DD	0120034H
	DW	00H
	DW	0c0H
	DD	0120028H
	DW	00H
	DW	0c0H
	DD	012000bH
	DW	00H
	DW	0c0H
	DD	01100e4H
	DW	00H
	DW	0c0H
	DD	01100e5H
	DW	00H
	DW	0c0H
	DD	0120040H
	DW	00H
	DW	0c0H
	DD	01100d5H
	DW	00H
	DW	0c0H
	DD	01100f4H
	DW	00H
	DW	0c0H
	DD	01100ebH
	DW	00H
	DW	0102H
	DD	0800a3H
	DW	00H
	DW	0103H
	DD	090090H
	DW	00H
	DW	0104H
	DD	090092H
	DW	00H
	DW	0105H
	DD	090093H
	DW	00H
	DW	0106H
	DD	090091H
	DW	00H
	DW	0c0H
	DD	01100f6H
	DW	00H
	DW	0107H
	DD	090098H
	DW	00H
	DW	0107H
	DD	09009aH
	DW	00H
	DW	0107H
	DD	09009bH
	DW	00H
	DW	0107H
	DD	090099H
	DW	00H
	DW	0107H
	DD	090094H
	DW	00H
	DW	0107H
	DD	090096H
	DW	00H
	DW	0107H
	DD	090097H
	DW	00H
	DW	0107H
	DD	090095H
	DW	00H
	DW	0c0H
	DD	0120000H
	DW	00H
	DW	0108H
	DD	0110070H
	DW	00H
	DW	0108H
	DD	0210070H
	DW	00H
	DW	0108H
	DD	0310070H
	DW	00H
	DW	0c0H
	DD	0120008H
	DW	00H
	DW	0c0H
	DD	012000aH
	DW	00H
	DW	0c0H
	DD	0120009H
	DW	00H
	DW	0109H
	DD	01100f2H
	DW	00H
	DW	010aH
	DD	0e110073H
	DW	00H
	DW	010bH
	DD	01100f3H
	DW	00H
	DW	0c0H
	DD	0120047H
	DW	00H
	DW	0c0H
	DD	080120047H
	DW	00H
	DW	010cH
	DD	01100f1H
	DW	00H
	DW	010dH
	DD	01100e2H
	DW	00H
	DW	0c0H
	DD	0120046H
	DW	00H
	DW	010eH
	DD	01100e1H
	DW	00H
	DW	010fH
	DD	01100d2H
	DW	00H
	DW	010aH
	DD	06110073H
	DW	00H
	DW	0110H
	DD	01100d3H
	DW	00H
	DW	0c0H
	DD	0120045H
	DW	00H
	DW	0c0H
	DD	080120045H
	DW	00H
	DW	0111H
	DD	01100d1H
	DW	00H
	DW	0c0H
	DD	01100f8H
	DW	00H
	DW	0c0H
	DD	01100faH
	DW	00H
	DW	0c0H
	DD	01100fbH
	DW	00H
	DW	0c0H
	DD	01100e8H
	DW	00H
	DW	0c0H
	DD	01100e9H
	DW	00H
	DW	0c0H
	DD	01100d8H
	DW	00H
	DW	0c0H
	DD	01100d9H
	DW	00H
	DW	0c0H
	DD	01100f9H
	DW	00H
	DW	0112H
	DD	0120017H
	DW	00H
	DW	0c0H
	DD	0110068H
	DW	00H
	DW	0c0H
	DD	011006aH
	DW	00H
	DW	0c0H
	DD	011006dH
	DW	00H
	DW	0c0H
	DD	0110069H
	DW	00H
	DW	0c0H
	DD	0110060H
	DW	00H
	DW	0c0H
	DD	0110062H
	DW	00H
	DW	0c0H
	DD	011006cH
	DW	00H
	DW	0c0H
	DD	0110061H
	DW	00H
	DW	0c0H
	DD	01100efH
	DW	00H
	DW	0cbH
	DD	010053H
	DW	00H
	DW	0c1H
	DD	0210053H
	DW	00H
	DW	0108H
	DD	0130009H
	DW	00H
	DW	0108H
	DD	0130008H
	DW	00H
	DW	0c9H
	DD	013000bH
	DW	00H
	DW	0c9H
	DD	013000aH
	DW	00H
	DW	0cbH
	DD	010052H
	DW	00H
	DW	0c1H
	DD	0210052H
	DW	00H
	DW	0c4H
	DD	01100c6H
	DW	00H
	DW	0c4H
	DD	0100c6H
	DW	00H
	DW	0cbH
	DD	0110051H
	DW	00H
	DW	0cbH
	DD	010051H
	DW	00H
	DW	0c1H
	DD	0310051H
	DW	00H
	DW	0c1H
	DD	0210051H
	DW	00H
	DW	0dbH
	DD	060100aeH
	DW	00H
	DW	0c0H
	DD	011005cH
	DW	00H
	DW	0c0H
	DD	01005cH
	DW	00H
	DW	0c1H
	DD	031005cH
	DW	00H
	DW	0c1H
	DD	021005cH
	DW	00H
	DW	0113H
	DD	012000fH
	DW	00H
	DW	0113H
	DD	012000eH
	DW	00H
	DW	0114H
	DD	011002eH
	DW	00H
	DW	0114H
	DD	01002eH
	DW	00H
	DW	0c0H
	DD	0110015H
	DW	00H
	DW	0c0H
	DD	010015H
	DW	00H
	DW	0c0H
	DD	0110014H
	DW	00H
	DW	0c0H
	DD	010014H
	DW	00H
	DW	0c0H
	DD	0110057H
	DW	00H
	DW	0c0H
	DD	010057H
	DW	00H
	DW	0115H
	DD	0810077H
	DW	00H
	DW	0115H
	DD	010077H
	DW	00H
	DW	0116H
	DD	042100aeH
	DW	00H
	DW	0116H
	DD	062100aeH
	DW	00H
	DW	0117H
	DD	0100c0H
	DW	00H
	DW	0118H
	DD	086H
	DW	00H
	DW	010H
	DD	0f00d0H
	DW	00H
	DW	02H
	DD	0c000030H
	DW	00H
	DW	03H
	DD	0110057H
	DW	00H
	DW	03H
	DD	010057H
	DW	00H
	DW	0119H
	DD	0a0100aeH
	DW	00H
	DW	0119H
	DD	08a0100aeH
	DW	00H
	DW	0119H
	DD	080100aeH
	DW	00H
	DW	0119H
	DD	0880100aeH
	DW	00H
	DW	0119H
	DD	0c0100aeH
	DW	00H
	DW	0119H
	DD	08c0100aeH
	DW	00H
	DW	010H
	DD	0f00d1H
?_x86ReverseCond@asmjit@@3QBIB DD 00H			; asmjit::_x86ReverseCond
	DD	01H
	DD	07H
	DD	06H
	DD	04H
	DD	05H
	DD	03H
	DD	02H
	DD	08H
	DD	09H
	DD	0aH
	DD	0bH
	DD	0fH
	DD	0eH
	DD	0dH
	DD	0cH
	DD	010H
	DD	011H
	DD	012H
	DD	013H
?_x86CondToCmovcc@asmjit@@3QBIB DD 045H			; asmjit::_x86CondToCmovcc
	DD	041H
	DD	02fH
	DD	02eH
	DD	032H
	DD	03cH
	DD	030H
	DD	02dH
	DD	049H
	DD	043H
	DD	047H
	DD	048H
	DD	035H
	DD	034H
	DD	036H
	DD	033H
	DD	00H
	DD	00H
	DD	00H
	DD	00H
?_x86CondToJcc@asmjit@@3QBIB DD 0104H			; asmjit::_x86CondToJcc
	DD	0100H
	DD	0eeH
	DD	0edH
	DD	0f1H
	DD	0fbH
	DD	0efH
	DD	0ecH
	DD	0108H
	DD	0102H
	DD	0106H
	DD	0107H
	DD	0f4H
	DD	0f3H
	DD	0f5H
	DD	0f2H
	DD	00H
	DD	00H
	DD	00H
	DD	00H
?_x86CondToSetcc@asmjit@@3QBIB DD 0247H			; asmjit::_x86CondToSetcc
	DD	0243H
	DD	0231H
	DD	0230H
	DD	0234H
	DD	023eH
	DD	0232H
	DD	022fH
	DD	024bH
	DD	0245H
	DD	0249H
	DD	024aH
	DD	0237H
	DD	0236H
	DD	0238H
	DD	0235H
	DD	00H
	DD	00H
	DD	00H
	DD	00H
CONST	ENDS
END
