; Listing generated by Microsoft (R) Optimizing Compiler Version 19.43.34810.0 

include listing.inc

INCLUDELIB LIBCMT
INCLUDELIB OLDNAMES

PUBLIC	?x86RegData@asmjit@@3UX86RegData@1@B		; asmjit::x86RegData
CONST	SEGMENT
?NoInit@asmjit@@3U_NoInit@1@B	ORG $+1			; asmjit::NoInit
	ORG $+15
?x86RegData@asmjit@@3UX86RegData@1@B DB 01H		; asmjit::x86RegData
	DB	00H
	DW	0e000H
	DD	0ffffffffH
	DD	0ffH
	DD	00H
	DB	01H
	DB	00H
	DW	0ffffH
	DD	0ffffffffH
	DD	0ffH
	DD	00H
	DB	01H
	DB	02H
	DW	0f000H
	DD	0ffffffffH
	DD	0ffH
	DD	00H
	DB	01H
	DB	02H
	DW	0f001H
	DD	0ffffffffH
	DD	0ffH
	DD	00H
	DB	01H
	DB	02H
	DW	0f002H
	DD	0ffffffffH
	DD	0ffH
	DD	00H
	DB	01H
	DB	02H
	DW	0f003H
	DD	0ffffffffH
	DD	0ffH
	DD	00H
	DB	01H
	DB	02H
	DW	0f004H
	DD	0ffffffffH
	DD	0ffH
	DD	00H
	DB	01H
	DB	02H
	DW	0f005H
	DD	0ffffffffH
	DD	0ffH
	DD	00H
	DB	01H
	DB	02H
	DW	0f006H
	DD	0ffffffffH
	DD	0ffH
	DD	00H
	DB	01H
	DB	01H
	DW	0100H
	DD	0ffffffffH
	DD	0ffH
	DD	00H
	DB	01H
	DB	01H
	DW	0101H
	DD	0ffffffffH
	DD	0ffH
	DD	00H
	DB	01H
	DB	01H
	DW	0102H
	DD	0ffffffffH
	DD	0ffH
	DD	00H
	DB	01H
	DB	01H
	DW	0103H
	DD	0ffffffffH
	DD	0ffH
	DD	00H
	DB	01H
	DB	01H
	DW	0104H
	DD	0ffffffffH
	DD	0ffH
	DD	00H
	DB	01H
	DB	01H
	DW	0105H
	DD	0ffffffffH
	DD	0ffH
	DD	00H
	DB	01H
	DB	01H
	DW	0106H
	DD	0ffffffffH
	DD	0ffH
	DD	00H
	DB	01H
	DB	01H
	DW	0107H
	DD	0ffffffffH
	DD	0ffH
	DD	00H
	DB	01H
	DB	01H
	DW	0108H
	DD	0ffffffffH
	DD	0ffH
	DD	00H
	DB	01H
	DB	01H
	DW	0109H
	DD	0ffffffffH
	DD	0ffH
	DD	00H
	DB	01H
	DB	01H
	DW	010aH
	DD	0ffffffffH
	DD	0ffH
	DD	00H
	DB	01H
	DB	01H
	DW	010bH
	DD	0ffffffffH
	DD	0ffH
	DD	00H
	DB	01H
	DB	01H
	DW	010cH
	DD	0ffffffffH
	DD	0ffH
	DD	00H
	DB	01H
	DB	01H
	DW	010dH
	DD	0ffffffffH
	DD	0ffH
	DD	00H
	DB	01H
	DB	01H
	DW	010eH
	DD	0ffffffffH
	DD	0ffH
	DD	00H
	DB	01H
	DB	01H
	DW	010fH
	DD	0ffffffffH
	DD	0ffH
	DD	00H
	DB	01H
	DB	01H
	DW	0200H
	DD	0ffffffffH
	DD	0ffH
	DD	00H
	DB	01H
	DB	01H
	DW	0201H
	DD	0ffffffffH
	DD	0ffH
	DD	00H
	DB	01H
	DB	01H
	DW	0202H
	DD	0ffffffffH
	DD	0ffH
	DD	00H
	DB	01H
	DB	01H
	DW	0203H
	DD	0ffffffffH
	DD	0ffH
	DD	00H
	DB	01H
	DB	02H
	DW	01000H
	DD	0ffffffffH
	DD	0ffH
	DD	00H
	DB	01H
	DB	02H
	DW	01001H
	DD	0ffffffffH
	DD	0ffH
	DD	00H
	DB	01H
	DB	02H
	DW	01002H
	DD	0ffffffffH
	DD	0ffH
	DD	00H
	DB	01H
	DB	02H
	DW	01003H
	DD	0ffffffffH
	DD	0ffH
	DD	00H
	DB	01H
	DB	02H
	DW	01004H
	DD	0ffffffffH
	DD	0ffH
	DD	00H
	DB	01H
	DB	02H
	DW	01005H
	DD	0ffffffffH
	DD	0ffH
	DD	00H
	DB	01H
	DB	02H
	DW	01006H
	DD	0ffffffffH
	DD	0ffH
	DD	00H
	DB	01H
	DB	02H
	DW	01007H
	DD	0ffffffffH
	DD	0ffH
	DD	00H
	DB	01H
	DB	02H
	DW	01008H
	DD	0ffffffffH
	DD	0ffH
	DD	00H
	DB	01H
	DB	02H
	DW	01009H
	DD	0ffffffffH
	DD	0ffH
	DD	00H
	DB	01H
	DB	02H
	DW	0100aH
	DD	0ffffffffH
	DD	0ffH
	DD	00H
	DB	01H
	DB	02H
	DW	0100bH
	DD	0ffffffffH
	DD	0ffH
	DD	00H
	DB	01H
	DB	02H
	DW	0100cH
	DD	0ffffffffH
	DD	0ffH
	DD	00H
	DB	01H
	DB	02H
	DW	0100dH
	DD	0ffffffffH
	DD	0ffH
	DD	00H
	DB	01H
	DB	02H
	DW	0100eH
	DD	0ffffffffH
	DD	0ffH
	DD	00H
	DB	01H
	DB	02H
	DW	0100fH
	DD	0ffffffffH
	DD	0ffH
	DD	00H
	DB	01H
	DB	04H
	DW	02000H
	DD	0ffffffffH
	DD	0ffH
	DD	00H
	DB	01H
	DB	04H
	DW	02001H
	DD	0ffffffffH
	DD	0ffH
	DD	00H
	DB	01H
	DB	04H
	DW	02002H
	DD	0ffffffffH
	DD	0ffH
	DD	00H
	DB	01H
	DB	04H
	DW	02003H
	DD	0ffffffffH
	DD	0ffH
	DD	00H
	DB	01H
	DB	04H
	DW	02004H
	DD	0ffffffffH
	DD	0ffH
	DD	00H
	DB	01H
	DB	04H
	DW	02005H
	DD	0ffffffffH
	DD	0ffH
	DD	00H
	DB	01H
	DB	04H
	DW	02006H
	DD	0ffffffffH
	DD	0ffH
	DD	00H
	DB	01H
	DB	04H
	DW	02007H
	DD	0ffffffffH
	DD	0ffH
	DD	00H
	DB	01H
	DB	04H
	DW	02008H
	DD	0ffffffffH
	DD	0ffH
	DD	00H
	DB	01H
	DB	04H
	DW	02009H
	DD	0ffffffffH
	DD	0ffH
	DD	00H
	DB	01H
	DB	04H
	DW	0200aH
	DD	0ffffffffH
	DD	0ffH
	DD	00H
	DB	01H
	DB	04H
	DW	0200bH
	DD	0ffffffffH
	DD	0ffH
	DD	00H
	DB	01H
	DB	04H
	DW	0200cH
	DD	0ffffffffH
	DD	0ffH
	DD	00H
	DB	01H
	DB	04H
	DW	0200dH
	DD	0ffffffffH
	DD	0ffH
	DD	00H
	DB	01H
	DB	04H
	DW	0200eH
	DD	0ffffffffH
	DD	0ffH
	DD	00H
	DB	01H
	DB	04H
	DW	0200fH
	DD	0ffffffffH
	DD	0ffH
	DD	00H
	DB	01H
	DB	08H
	DW	03000H
	DD	0ffffffffH
	DD	0ffH
	DD	00H
	DB	01H
	DB	08H
	DW	03001H
	DD	0ffffffffH
	DD	0ffH
	DD	00H
	DB	01H
	DB	08H
	DW	03002H
	DD	0ffffffffH
	DD	0ffH
	DD	00H
	DB	01H
	DB	08H
	DW	03003H
	DD	0ffffffffH
	DD	0ffH
	DD	00H
	DB	01H
	DB	08H
	DW	03004H
	DD	0ffffffffH
	DD	0ffH
	DD	00H
	DB	01H
	DB	08H
	DW	03005H
	DD	0ffffffffH
	DD	0ffH
	DD	00H
	DB	01H
	DB	08H
	DW	03006H
	DD	0ffffffffH
	DD	0ffH
	DD	00H
	DB	01H
	DB	08H
	DW	03007H
	DD	0ffffffffH
	DD	0ffH
	DD	00H
	DB	01H
	DB	08H
	DW	03008H
	DD	0ffffffffH
	DD	0ffH
	DD	00H
	DB	01H
	DB	08H
	DW	03009H
	DD	0ffffffffH
	DD	0ffH
	DD	00H
	DB	01H
	DB	08H
	DW	0300aH
	DD	0ffffffffH
	DD	0ffH
	DD	00H
	DB	01H
	DB	08H
	DW	0300bH
	DD	0ffffffffH
	DD	0ffH
	DD	00H
	DB	01H
	DB	08H
	DW	0300cH
	DD	0ffffffffH
	DD	0ffH
	DD	00H
	DB	01H
	DB	08H
	DW	0300dH
	DD	0ffffffffH
	DD	0ffH
	DD	00H
	DB	01H
	DB	08H
	DW	0300eH
	DD	0ffffffffH
	DD	0ffH
	DD	00H
	DB	01H
	DB	08H
	DW	0300fH
	DD	0ffffffffH
	DD	0ffH
	DD	00H
	DB	01H
	DB	0aH
	DW	04000H
	DD	0ffffffffH
	DD	0ffH
	DD	00H
	DB	01H
	DB	0aH
	DW	04001H
	DD	0ffffffffH
	DD	0ffH
	DD	00H
	DB	01H
	DB	0aH
	DW	04002H
	DD	0ffffffffH
	DD	0ffH
	DD	00H
	DB	01H
	DB	0aH
	DW	04003H
	DD	0ffffffffH
	DD	0ffH
	DD	00H
	DB	01H
	DB	0aH
	DW	04004H
	DD	0ffffffffH
	DD	0ffH
	DD	00H
	DB	01H
	DB	0aH
	DW	04005H
	DD	0ffffffffH
	DD	0ffH
	DD	00H
	DB	01H
	DB	0aH
	DW	04006H
	DD	0ffffffffH
	DD	0ffH
	DD	00H
	DB	01H
	DB	0aH
	DW	04007H
	DD	0ffffffffH
	DD	0ffH
	DD	00H
	DB	01H
	DB	08H
	DW	05000H
	DD	0ffffffffH
	DD	0ffH
	DD	00H
	DB	01H
	DB	08H
	DW	05001H
	DD	0ffffffffH
	DD	0ffH
	DD	00H
	DB	01H
	DB	08H
	DW	05002H
	DD	0ffffffffH
	DD	0ffH
	DD	00H
	DB	01H
	DB	08H
	DW	05003H
	DD	0ffffffffH
	DD	0ffH
	DD	00H
	DB	01H
	DB	08H
	DW	05004H
	DD	0ffffffffH
	DD	0ffH
	DD	00H
	DB	01H
	DB	08H
	DW	05005H
	DD	0ffffffffH
	DD	0ffH
	DD	00H
	DB	01H
	DB	08H
	DW	05006H
	DD	0ffffffffH
	DD	0ffH
	DD	00H
	DB	01H
	DB	08H
	DW	05007H
	DD	0ffffffffH
	DD	0ffH
	DD	00H
	DB	01H
	DB	08H
	DW	06000H
	DD	0ffffffffH
	DD	0ffH
	DD	00H
	DB	01H
	DB	08H
	DW	06001H
	DD	0ffffffffH
	DD	0ffH
	DD	00H
	DB	01H
	DB	08H
	DW	06002H
	DD	0ffffffffH
	DD	0ffH
	DD	00H
	DB	01H
	DB	08H
	DW	06003H
	DD	0ffffffffH
	DD	0ffH
	DD	00H
	DB	01H
	DB	08H
	DW	06004H
	DD	0ffffffffH
	DD	0ffH
	DD	00H
	DB	01H
	DB	08H
	DW	06005H
	DD	0ffffffffH
	DD	0ffH
	DD	00H
	DB	01H
	DB	08H
	DW	06006H
	DD	0ffffffffH
	DD	0ffH
	DD	00H
	DB	01H
	DB	08H
	DW	06007H
	DD	0ffffffffH
	DD	0ffH
	DD	00H
	DB	01H
	DB	010H
	DW	07000H
	DD	0ffffffffH
	DD	0ffH
	DD	00H
	DB	01H
	DB	010H
	DW	07001H
	DD	0ffffffffH
	DD	0ffH
	DD	00H
	DB	01H
	DB	010H
	DW	07002H
	DD	0ffffffffH
	DD	0ffH
	DD	00H
	DB	01H
	DB	010H
	DW	07003H
	DD	0ffffffffH
	DD	0ffH
	DD	00H
	DB	01H
	DB	010H
	DW	07004H
	DD	0ffffffffH
	DD	0ffH
	DD	00H
	DB	01H
	DB	010H
	DW	07005H
	DD	0ffffffffH
	DD	0ffH
	DD	00H
	DB	01H
	DB	010H
	DW	07006H
	DD	0ffffffffH
	DD	0ffH
	DD	00H
	DB	01H
	DB	010H
	DW	07007H
	DD	0ffffffffH
	DD	0ffH
	DD	00H
	DB	01H
	DB	010H
	DW	07008H
	DD	0ffffffffH
	DD	0ffH
	DD	00H
	DB	01H
	DB	010H
	DW	07009H
	DD	0ffffffffH
	DD	0ffH
	DD	00H
	DB	01H
	DB	010H
	DW	0700aH
	DD	0ffffffffH
	DD	0ffH
	DD	00H
	DB	01H
	DB	010H
	DW	0700bH
	DD	0ffffffffH
	DD	0ffH
	DD	00H
	DB	01H
	DB	010H
	DW	0700cH
	DD	0ffffffffH
	DD	0ffH
	DD	00H
	DB	01H
	DB	010H
	DW	0700dH
	DD	0ffffffffH
	DD	0ffH
	DD	00H
	DB	01H
	DB	010H
	DW	0700eH
	DD	0ffffffffH
	DD	0ffH
	DD	00H
	DB	01H
	DB	010H
	DW	0700fH
	DD	0ffffffffH
	DD	0ffH
	DD	00H
	DB	01H
	DB	010H
	DW	07010H
	DD	0ffffffffH
	DD	0ffH
	DD	00H
	DB	01H
	DB	010H
	DW	07011H
	DD	0ffffffffH
	DD	0ffH
	DD	00H
	DB	01H
	DB	010H
	DW	07012H
	DD	0ffffffffH
	DD	0ffH
	DD	00H
	DB	01H
	DB	010H
	DW	07013H
	DD	0ffffffffH
	DD	0ffH
	DD	00H
	DB	01H
	DB	010H
	DW	07014H
	DD	0ffffffffH
	DD	0ffH
	DD	00H
	DB	01H
	DB	010H
	DW	07015H
	DD	0ffffffffH
	DD	0ffH
	DD	00H
	DB	01H
	DB	010H
	DW	07016H
	DD	0ffffffffH
	DD	0ffH
	DD	00H
	DB	01H
	DB	010H
	DW	07017H
	DD	0ffffffffH
	DD	0ffH
	DD	00H
	DB	01H
	DB	010H
	DW	07018H
	DD	0ffffffffH
	DD	0ffH
	DD	00H
	DB	01H
	DB	010H
	DW	07019H
	DD	0ffffffffH
	DD	0ffH
	DD	00H
	DB	01H
	DB	010H
	DW	0701aH
	DD	0ffffffffH
	DD	0ffH
	DD	00H
	DB	01H
	DB	010H
	DW	0701bH
	DD	0ffffffffH
	DD	0ffH
	DD	00H
	DB	01H
	DB	010H
	DW	0701cH
	DD	0ffffffffH
	DD	0ffH
	DD	00H
	DB	01H
	DB	010H
	DW	0701dH
	DD	0ffffffffH
	DD	0ffH
	DD	00H
	DB	01H
	DB	010H
	DW	0701eH
	DD	0ffffffffH
	DD	0ffH
	DD	00H
	DB	01H
	DB	010H
	DW	0701fH
	DD	0ffffffffH
	DD	0ffH
	DD	00H
	DB	01H
	DB	020H
	DW	08000H
	DD	0ffffffffH
	DD	0ffH
	DD	00H
	DB	01H
	DB	020H
	DW	08001H
	DD	0ffffffffH
	DD	0ffH
	DD	00H
	DB	01H
	DB	020H
	DW	08002H
	DD	0ffffffffH
	DD	0ffH
	DD	00H
	DB	01H
	DB	020H
	DW	08003H
	DD	0ffffffffH
	DD	0ffH
	DD	00H
	DB	01H
	DB	020H
	DW	08004H
	DD	0ffffffffH
	DD	0ffH
	DD	00H
	DB	01H
	DB	020H
	DW	08005H
	DD	0ffffffffH
	DD	0ffH
	DD	00H
	DB	01H
	DB	020H
	DW	08006H
	DD	0ffffffffH
	DD	0ffH
	DD	00H
	DB	01H
	DB	020H
	DW	08007H
	DD	0ffffffffH
	DD	0ffH
	DD	00H
	DB	01H
	DB	020H
	DW	08008H
	DD	0ffffffffH
	DD	0ffH
	DD	00H
	DB	01H
	DB	020H
	DW	08009H
	DD	0ffffffffH
	DD	0ffH
	DD	00H
	DB	01H
	DB	020H
	DW	0800aH
	DD	0ffffffffH
	DD	0ffH
	DD	00H
	DB	01H
	DB	020H
	DW	0800bH
	DD	0ffffffffH
	DD	0ffH
	DD	00H
	DB	01H
	DB	020H
	DW	0800cH
	DD	0ffffffffH
	DD	0ffH
	DD	00H
	DB	01H
	DB	020H
	DW	0800dH
	DD	0ffffffffH
	DD	0ffH
	DD	00H
	DB	01H
	DB	020H
	DW	0800eH
	DD	0ffffffffH
	DD	0ffH
	DD	00H
	DB	01H
	DB	020H
	DW	0800fH
	DD	0ffffffffH
	DD	0ffH
	DD	00H
	DB	01H
	DB	020H
	DW	08010H
	DD	0ffffffffH
	DD	0ffH
	DD	00H
	DB	01H
	DB	020H
	DW	08011H
	DD	0ffffffffH
	DD	0ffH
	DD	00H
	DB	01H
	DB	020H
	DW	08012H
	DD	0ffffffffH
	DD	0ffH
	DD	00H
	DB	01H
	DB	020H
	DW	08013H
	DD	0ffffffffH
	DD	0ffH
	DD	00H
	DB	01H
	DB	020H
	DW	08014H
	DD	0ffffffffH
	DD	0ffH
	DD	00H
	DB	01H
	DB	020H
	DW	08015H
	DD	0ffffffffH
	DD	0ffH
	DD	00H
	DB	01H
	DB	020H
	DW	08016H
	DD	0ffffffffH
	DD	0ffH
	DD	00H
	DB	01H
	DB	020H
	DW	08017H
	DD	0ffffffffH
	DD	0ffH
	DD	00H
	DB	01H
	DB	020H
	DW	08018H
	DD	0ffffffffH
	DD	0ffH
	DD	00H
	DB	01H
	DB	020H
	DW	08019H
	DD	0ffffffffH
	DD	0ffH
	DD	00H
	DB	01H
	DB	020H
	DW	0801aH
	DD	0ffffffffH
	DD	0ffH
	DD	00H
	DB	01H
	DB	020H
	DW	0801bH
	DD	0ffffffffH
	DD	0ffH
	DD	00H
	DB	01H
	DB	020H
	DW	0801cH
	DD	0ffffffffH
	DD	0ffH
	DD	00H
	DB	01H
	DB	020H
	DW	0801dH
	DD	0ffffffffH
	DD	0ffH
	DD	00H
	DB	01H
	DB	020H
	DW	0801eH
	DD	0ffffffffH
	DD	0ffH
	DD	00H
	DB	01H
	DB	020H
	DW	0801fH
	DD	0ffffffffH
	DD	0ffH
	DD	00H
	DB	01H
	DB	040H
	DW	09000H
	DD	0ffffffffH
	DD	0ffH
	DD	00H
	DB	01H
	DB	040H
	DW	09001H
	DD	0ffffffffH
	DD	0ffH
	DD	00H
	DB	01H
	DB	040H
	DW	09002H
	DD	0ffffffffH
	DD	0ffH
	DD	00H
	DB	01H
	DB	040H
	DW	09003H
	DD	0ffffffffH
	DD	0ffH
	DD	00H
	DB	01H
	DB	040H
	DW	09004H
	DD	0ffffffffH
	DD	0ffH
	DD	00H
	DB	01H
	DB	040H
	DW	09005H
	DD	0ffffffffH
	DD	0ffH
	DD	00H
	DB	01H
	DB	040H
	DW	09006H
	DD	0ffffffffH
	DD	0ffH
	DD	00H
	DB	01H
	DB	040H
	DW	09007H
	DD	0ffffffffH
	DD	0ffH
	DD	00H
	DB	01H
	DB	040H
	DW	09008H
	DD	0ffffffffH
	DD	0ffH
	DD	00H
	DB	01H
	DB	040H
	DW	09009H
	DD	0ffffffffH
	DD	0ffH
	DD	00H
	DB	01H
	DB	040H
	DW	0900aH
	DD	0ffffffffH
	DD	0ffH
	DD	00H
	DB	01H
	DB	040H
	DW	0900bH
	DD	0ffffffffH
	DD	0ffH
	DD	00H
	DB	01H
	DB	040H
	DW	0900cH
	DD	0ffffffffH
	DD	0ffH
	DD	00H
	DB	01H
	DB	040H
	DW	0900dH
	DD	0ffffffffH
	DD	0ffH
	DD	00H
	DB	01H
	DB	040H
	DW	0900eH
	DD	0ffffffffH
	DD	0ffH
	DD	00H
	DB	01H
	DB	040H
	DW	0900fH
	DD	0ffffffffH
	DD	0ffH
	DD	00H
	DB	01H
	DB	040H
	DW	09010H
	DD	0ffffffffH
	DD	0ffH
	DD	00H
	DB	01H
	DB	040H
	DW	09011H
	DD	0ffffffffH
	DD	0ffH
	DD	00H
	DB	01H
	DB	040H
	DW	09012H
	DD	0ffffffffH
	DD	0ffH
	DD	00H
	DB	01H
	DB	040H
	DW	09013H
	DD	0ffffffffH
	DD	0ffH
	DD	00H
	DB	01H
	DB	040H
	DW	09014H
	DD	0ffffffffH
	DD	0ffH
	DD	00H
	DB	01H
	DB	040H
	DW	09015H
	DD	0ffffffffH
	DD	0ffH
	DD	00H
	DB	01H
	DB	040H
	DW	09016H
	DD	0ffffffffH
	DD	0ffH
	DD	00H
	DB	01H
	DB	040H
	DW	09017H
	DD	0ffffffffH
	DD	0ffH
	DD	00H
	DB	01H
	DB	040H
	DW	09018H
	DD	0ffffffffH
	DD	0ffH
	DD	00H
	DB	01H
	DB	040H
	DW	09019H
	DD	0ffffffffH
	DD	0ffH
	DD	00H
	DB	01H
	DB	040H
	DW	0901aH
	DD	0ffffffffH
	DD	0ffH
	DD	00H
	DB	01H
	DB	040H
	DW	0901bH
	DD	0ffffffffH
	DD	0ffH
	DD	00H
	DB	01H
	DB	040H
	DW	0901cH
	DD	0ffffffffH
	DD	0ffH
	DD	00H
	DB	01H
	DB	040H
	DW	0901dH
	DD	0ffffffffH
	DD	0ffH
	DD	00H
	DB	01H
	DB	040H
	DW	0901eH
	DD	0ffffffffH
	DD	0ffH
	DD	00H
	DB	01H
	DB	040H
	DW	0901fH
	DD	0ffffffffH
	DD	0ffH
	DD	00H
CONST	ENDS
END
